
========================================================================

** ELF Header Information

    File Name: bin\tinyusb_hid_generic.axf

    Machine class: ELFCLASS32 (32-bit)
    Data encoding: ELFDATA2LSB (Little endian)
    Header version: EV_CURRENT (Current version)
    Operating System ABI: none
    ABI Version: 0
    File Type: ET_EXEC (Executable) (2)
    Machine: EM_ARM (ARM)

    Image Entry point: 0x00018235
    Flags: EF_ARM_HASENTRY + EF_ARM_ABI_FLOAT_HARD (0x05000402)

    ARM ELF revision: 5 (ABI version 2)

    Conforms to Hard float procedure-call standard

    Built with
    Component: ARM Compiler 5.06 update 6 (build 750) Tool: armasm [4d35ec]
    Component: ARM Compiler 5.06 update 6 (build 750) Tool: armlink [4d35ed]

    Header size: 52 bytes (0x34)
    Program header entry size: 32 bytes (0x20)
    Section header entry size: 40 bytes (0x28)

    Program header entries: 1
    Section header entries: 17

    Program header offset: 2202744 (0x00219c78)
    Section header offset: 2202776 (0x00219c98)

    Section header string table index: 16

========================================================================

** Program header #0 (PT_LOAD) [PF_X + PF_W + PF_R + PF_ARM_ENTRY]
    Size : 43940 bytes (28284 bytes in file)
    Virtual address: 0x00018000 (Alignment 8)


========================================================================

** Section #1 'MCU_MRAM' (SHT_PROGBITS) [SHF_ALLOC + SHF_EXECINSTR]
    Size   : 27932 bytes (alignment 4)
    Address: 0x00018000

    $d
    RESET
    __Vectors
        0x00018000:    10003e48    H>..    DCD    268451400
        0x00018004:    00018201    ....    DCD    98817
        0x00018008:    0001821f    ....    DCD    98847
        0x0001800c:    0001821d    ....    DCD    98845
        0x00018010:    00018221    !...    DCD    98849
        0x00018014:    00018223    #...    DCD    98851
        0x00018018:    00018225    %...    DCD    98853
        0x0001801c:    00000000    ....    DCD    0
        0x00018020:    00000000    ....    DCD    0
        0x00018024:    00000000    ....    DCD    0
        0x00018028:    00000000    ....    DCD    0
        0x0001802c:    00018227    '...    DCD    98855
        0x00018030:    00018229    )...    DCD    98857
        0x00018034:    00000000    ....    DCD    0
        0x00018038:    0001822b    +...    DCD    98859
        0x0001803c:    0001822d    -...    DCD    98861
        0x00018040:    0001822f    /...    DCD    98863
        0x00018044:    0001822f    /...    DCD    98863
        0x00018048:    0001822f    /...    DCD    98863
        0x0001804c:    0001822f    /...    DCD    98863
        0x00018050:    0001822f    /...    DCD    98863
        0x00018054:    0001822f    /...    DCD    98863
        0x00018058:    0001822f    /...    DCD    98863
        0x0001805c:    0001822f    /...    DCD    98863
        0x00018060:    0001822f    /...    DCD    98863
        0x00018064:    0001822f    /...    DCD    98863
        0x00018068:    0001822f    /...    DCD    98863
        0x0001806c:    0001822f    /...    DCD    98863
        0x00018070:    0001822f    /...    DCD    98863
        0x00018074:    0001822f    /...    DCD    98863
        0x00018078:    0001822f    /...    DCD    98863
        0x0001807c:    0001822f    /...    DCD    98863
        0x00018080:    0001822f    /...    DCD    98863
        0x00018084:    0001822f    /...    DCD    98863
        0x00018088:    0001822f    /...    DCD    98863
        0x0001808c:    0001822f    /...    DCD    98863
        0x00018090:    0001822f    /...    DCD    98863
        0x00018094:    0001822f    /...    DCD    98863
        0x00018098:    0001822f    /...    DCD    98863
        0x0001809c:    0001822f    /...    DCD    98863
        0x000180a0:    0001822f    /...    DCD    98863
        0x000180a4:    0001822f    /...    DCD    98863
        0x000180a8:    0001822f    /...    DCD    98863
        0x000180ac:    0001b0b9    ....    DCD    110777
        0x000180b0:    0001822f    /...    DCD    98863
        0x000180b4:    0001822f    /...    DCD    98863
        0x000180b8:    0001822f    /...    DCD    98863
        0x000180bc:    0001822f    /...    DCD    98863
        0x000180c0:    0001822f    /...    DCD    98863
        0x000180c4:    0001822f    /...    DCD    98863
        0x000180c8:    0001822f    /...    DCD    98863
        0x000180cc:    0001822f    /...    DCD    98863
        0x000180d0:    0001822f    /...    DCD    98863
        0x000180d4:    0001822f    /...    DCD    98863
        0x000180d8:    0001822f    /...    DCD    98863
        0x000180dc:    0001822f    /...    DCD    98863
        0x000180e0:    0001822f    /...    DCD    98863
        0x000180e4:    0001822f    /...    DCD    98863
        0x000180e8:    0001822f    /...    DCD    98863
        0x000180ec:    0001822f    /...    DCD    98863
        0x000180f0:    0001822f    /...    DCD    98863
        0x000180f4:    0001822f    /...    DCD    98863
        0x000180f8:    0001822f    /...    DCD    98863
        0x000180fc:    0001822f    /...    DCD    98863
        0x00018100:    0001822f    /...    DCD    98863
        0x00018104:    0001822f    /...    DCD    98863
        0x00018108:    0001822f    /...    DCD    98863
        0x0001810c:    0001822f    /...    DCD    98863
        0x00018110:    0001822f    /...    DCD    98863
        0x00018114:    0001822f    /...    DCD    98863
        0x00018118:    0001822f    /...    DCD    98863
        0x0001811c:    0001822f    /...    DCD    98863
        0x00018120:    0001822f    /...    DCD    98863
        0x00018124:    0001822f    /...    DCD    98863
        0x00018128:    0001822f    /...    DCD    98863
        0x0001812c:    0001822f    /...    DCD    98863
        0x00018130:    0001822f    /...    DCD    98863
        0x00018134:    0001822f    /...    DCD    98863
        0x00018138:    0001822f    /...    DCD    98863
        0x0001813c:    0001822f    /...    DCD    98863
        0x00018140:    0001822f    /...    DCD    98863
        0x00018144:    0001822f    /...    DCD    98863
        0x00018148:    0001822f    /...    DCD    98863
        0x0001814c:    0001822f    /...    DCD    98863
        0x00018150:    0001822f    /...    DCD    98863
        0x00018154:    0001822f    /...    DCD    98863
        0x00018158:    0001822f    /...    DCD    98863
        0x0001815c:    0001822f    /...    DCD    98863
        0x00018160:    0001822f    /...    DCD    98863
        0x00018164:    0001822f    /...    DCD    98863
        0x00018168:    0001822f    /...    DCD    98863
        0x0001816c:    0001822f    /...    DCD    98863
        0x00018170:    0001822f    /...    DCD    98863
        0x00018174:    0001822f    /...    DCD    98863
        0x00018178:    0001822f    /...    DCD    98863
        0x0001817c:    0001822f    /...    DCD    98863
        0x00018180:    0001822f    /...    DCD    98863
        0x00018184:    0001822f    /...    DCD    98863
        0x00018188:    0001822f    /...    DCD    98863
        0x0001818c:    0001822f    /...    DCD    98863
    __Patchable
        0x00018190:    00000000    ....    DCD    0
        0x00018194:    00000000    ....    DCD    0
        0x00018198:    00000000    ....    DCD    0
        0x0001819c:    00000000    ....    DCD    0
        0x000181a0:    00000000    ....    DCD    0
        0x000181a4:    00000000    ....    DCD    0
        0x000181a8:    00000000    ....    DCD    0
        0x000181ac:    00000000    ....    DCD    0
        0x000181b0:    00000000    ....    DCD    0
        0x000181b4:    00000000    ....    DCD    0
        0x000181b8:    00000000    ....    DCD    0
        0x000181bc:    00000000    ....    DCD    0
        0x000181c0:    00000000    ....    DCD    0
        0x000181c4:    00000000    ....    DCD    0
        0x000181c8:    00000000    ....    DCD    0
        0x000181cc:    00000000    ....    DCD    0
        0x000181d0:    00000000    ....    DCD    0
        0x000181d4:    00000000    ....    DCD    0
        0x000181d8:    00000000    ....    DCD    0
        0x000181dc:    00000000    ....    DCD    0
        0x000181e0:    00000000    ....    DCD    0
        0x000181e4:    00000000    ....    DCD    0
        0x000181e8:    00000000    ....    DCD    0
        0x000181ec:    00000000    ....    DCD    0
        0x000181f0:    00000000    ....    DCD    0
        0x000181f4:    00000000    ....    DCD    0
        0x000181f8:    00000000    ....    DCD    0
        0x000181fc:    00000000    ....    DCD    0
    $t
    $v0
    Reset_Handler
        0x00018200:    f64e5088    N..P    MOV      r0,#0xed88
        0x00018204:    f2ce0000    ....    MOVT     r0,#0xe000
        0x00018208:    6801        .h      LDR      r1,[r0,#0]
        0x0001820a:    f4410170    A.p.    ORR      r1,r1,#0xf00000
        0x0001820e:    6001        .`      STR      r1,[r0,#0]
        0x00018210:    f3bf8f4f    ..O.    DSB      
        0x00018214:    f3bf8f6f    ..o.    ISB      
        0x00018218:    4805        .H      LDR      r0,[pc,#20] ; [0x18230] = 0x18235
        0x0001821a:    4700        .G      BX       r0
    HardFault_Handler
        0x0001821c:    e7fe        ..      B        HardFault_Handler ; 0x1821c
    NMI_Handler
        0x0001821e:    e7fe        ..      B        NMI_Handler ; 0x1821e
    MemManage_Handler
        0x00018220:    e7fe        ..      B        MemManage_Handler ; 0x18220
    BusFault_Handler
        0x00018222:    e7fe        ..      B        BusFault_Handler ; 0x18222
    UsageFault_Handler
        0x00018224:    e7fe        ..      B        UsageFault_Handler ; 0x18224
    SVC_Handler
        0x00018226:    e7fe        ..      B        SVC_Handler ; 0x18226
    DebugMon_Handler
        0x00018228:    e7fe        ..      B        DebugMon_Handler ; 0x18228
    PendSV_Handler
        0x0001822a:    e7fe        ..      B        PendSV_Handler ; 0x1822a
    SysTick_Handler
        0x0001822c:    e7fe        ..      B        SysTick_Handler ; 0x1822c
    am_cryptosec_isr
    am_default_isr
    am_adc_isr
    am_audadc0_isr
    am_brownout_isr
    am_cachecpu_isr
    am_clkgen_isr
    am_ctimer_isr
    am_disp_isr
    am_dsi_isr
    am_dspi2s0_isr
    am_dspi2s1_isr
    am_dspi2s2_isr
    am_dspi2s3_isr
    am_gpio0_001f_isr
    am_gpio0_203f_isr
    am_gpio0_405f_isr
    am_gpio0_607f_isr
    am_gpio1_001f_isr
    am_gpio1_203f_isr
    am_gpio1_405f_isr
    am_gpio1_607f_isr
    am_gpu_isr
    am_iomaster0_isr
    am_iomaster1_isr
    am_iomaster2_isr
    am_iomaster3_isr
    am_iomaster4_isr
    am_iomaster5_isr
    am_iomaster6_isr
    am_iomaster7_isr
    am_ioslave_acc_isr
    am_ioslave_ios_isr
    am_mspi0_isr
    am_mspi1_isr
    am_mspi2_isr
    am_pdm0_isr
    am_pdm1_isr
    am_pdm2_isr
    am_pdm3_isr
    am_rtc_isr
    am_sdio_isr
    am_stimer_cmpr0_isr
    am_stimer_cmpr1_isr
    am_stimer_cmpr2_isr
    am_stimer_cmpr3_isr
    am_stimer_cmpr4_isr
    am_stimer_cmpr5_isr
    am_stimer_cmpr6_isr
    am_stimer_cmpr7_isr
    am_stimerof_isr
    am_timer00_isr
    am_timer01_isr
    am_timer02_isr
    am_timer03_isr
    am_timer04_isr
    am_timer05_isr
    am_timer06_isr
    am_timer07_isr
    am_timer08_isr
    am_timer09_isr
    am_timer10_isr
    am_timer11_isr
    am_timer12_isr
    am_timer13_isr
    am_timer14_isr
    am_timer15_isr
    am_uart1_isr
    am_uart2_isr
    am_uart3_isr
    am_uart_isr
    am_vcomp_isr
    am_watchdog_isr
        0x0001822e:    e7fe        ..      B        am_cryptosec_isr ; 0x1822e
    $d
        0x00018230:    00018235    5...    DCD    98869
    $t
    !!!main
    __main
        0x00018234:    f000f802    ....    BL       __scatterload ; 0x1823c
        0x00018238:    f000f86a    ..j.    BL       __rt_entry ; 0x18310
    !!!scatter
    __scatterload
    __scatterload_rt2
    __scatterload_rt2_thumb_only
        0x0001823c:    a00a        ..      ADR      r0,{pc}+0x2c ; 0x18268
        0x0001823e:    e8900c00    ....    LDM      r0,{r10,r11}
        0x00018242:    4482        .D      ADD      r10,r10,r0
        0x00018244:    4483        .D      ADD      r11,r11,r0
        0x00018246:    f1aa0701    ....    SUB      r7,r10,#1
    __scatterload_null
        0x0001824a:    45da        .E      CMP      r10,r11
        0x0001824c:    d101        ..      BNE      0x18252 ; __scatterload_null + 8
        0x0001824e:    f000f85f    .._.    BL       __rt_entry ; 0x18310
        0x00018252:    f2af0e09    ....    ADR      lr,{pc}-7 ; 0x1824b
        0x00018256:    e8ba000f    ....    LDM      r10!,{r0-r3}
        0x0001825a:    f0130f01    ....    TST      r3,#1
        0x0001825e:    bf18        ..      IT       NE
        0x00018260:    1afb        ..      SUBNE    r3,r7,r3
        0x00018262:    f0430301    C...    ORR      r3,r3,#1
        0x00018266:    4718        .G      BX       r3
    $d
        0x00018268:    00006a84    .j..    DCD    27268
        0x0001826c:    00006ab4    .j..    DCD    27316
    $t
    !!dczerorl2
    __decompress
    __decompress1
        0x00018270:    440a        .D      ADD      r2,r2,r1
        0x00018272:    f04f0c00    O...    MOV      r12,#0
        0x00018276:    f8103b01    ...;    LDRB     r3,[r0],#1
        0x0001827a:    f0130407    ....    ANDS     r4,r3,#7
        0x0001827e:    bf08        ..      IT       EQ
        0x00018280:    f8104b01    ...K    LDRBEQ   r4,[r0],#1
        0x00018284:    111d        ..      ASRS     r5,r3,#4
        0x00018286:    bf08        ..      IT       EQ
        0x00018288:    f8105b01    ...[    LDRBEQ   r5,[r0],#1
        0x0001828c:    1e64        d.      SUBS     r4,r4,#1
        0x0001828e:    d005        ..      BEQ      0x1829c ; __decompress + 44
        0x00018290:    f8106b01    ...k    LDRB     r6,[r0],#1
        0x00018294:    1e64        d.      SUBS     r4,r4,#1
        0x00018296:    f8016b01    ...k    STRB     r6,[r1],#1
        0x0001829a:    d1f9        ..      BNE      0x18290 ; __decompress + 32
        0x0001829c:    f0130f08    ....    TST      r3,#8
        0x000182a0:    bf1e        ..      ITTT     NE
        0x000182a2:    f8104b01    ...K    LDRBNE   r4,[r0],#1
        0x000182a6:    1cad        ..      ADDNE    r5,r5,#2
        0x000182a8:    1b0c        ..      SUBNE    r4,r1,r4
        0x000182aa:    d109        ..      BNE      0x182c0 ; __decompress + 80
        0x000182ac:    1e6d        m.      SUBS     r5,r5,#1
        0x000182ae:    bf58        X.      IT       PL
        0x000182b0:    f801cb01    ....    STRBPL   r12,[r1],#1
        0x000182b4:    d5fa        ..      BPL      0x182ac ; __decompress + 60
        0x000182b6:    e005        ..      B        0x182c4 ; __decompress + 84
        0x000182b8:    f8146b01    ...k    LDRB     r6,[r4],#1
        0x000182bc:    f8016b01    ...k    STRB     r6,[r1],#1
        0x000182c0:    1e6d        m.      SUBS     r5,r5,#1
        0x000182c2:    d5f9        ..      BPL      0x182b8 ; __decompress + 72
        0x000182c4:    4291        .B      CMP      r1,r2
        0x000182c6:    d3d6        ..      BCC      0x18276 ; __decompress + 6
        0x000182c8:    4770        pG      BX       lr
        0x000182ca:    0000        ..      MOVS     r0,r0
    !!handler_copy
    __scatterload_copy
        0x000182cc:    3a10        .:      SUBS     r2,r2,#0x10
        0x000182ce:    bf24        $.      ITT      CS
        0x000182d0:    c878        x.      LDMCS    r0!,{r3-r6}
        0x000182d2:    c178        x.      STMCS    r1!,{r3-r6}
        0x000182d4:    d8fa        ..      BHI      __scatterload_copy ; 0x182cc
        0x000182d6:    0752        R.      LSLS     r2,r2,#29
        0x000182d8:    bf24        $.      ITT      CS
        0x000182da:    c830        0.      LDMCS    r0!,{r4,r5}
        0x000182dc:    c130        0.      STMCS    r1!,{r4,r5}
        0x000182de:    bf44        D.      ITT      MI
        0x000182e0:    6804        .h      LDRMI    r4,[r0,#0]
        0x000182e2:    600c        .`      STRMI    r4,[r1,#0]
        0x000182e4:    4770        pG      BX       lr
        0x000182e6:    0000        ..      MOVS     r0,r0
    !!handler_zi
    __scatterload_zeroinit
        0x000182e8:    2300        .#      MOVS     r3,#0
        0x000182ea:    2400        .$      MOVS     r4,#0
        0x000182ec:    2500        .%      MOVS     r5,#0
        0x000182ee:    2600        .&      MOVS     r6,#0
        0x000182f0:    3a10        .:      SUBS     r2,r2,#0x10
        0x000182f2:    bf28        (.      IT       CS
        0x000182f4:    c178        x.      STMCS    r1!,{r3-r6}
        0x000182f6:    d8fb        ..      BHI      0x182f0 ; __scatterload_zeroinit + 8
        0x000182f8:    0752        R.      LSLS     r2,r2,#29
        0x000182fa:    bf28        (.      IT       CS
        0x000182fc:    c130        0.      STMCS    r1!,{r4,r5}
        0x000182fe:    bf48        H.      IT       MI
        0x00018300:    600b        .`      STRMI    r3,[r1,#0]
        0x00018302:    4770        pG      BX       lr
    .ARM.Collect$$libinit$$00000000
    __rt_lib_init
        0x00018304:    b51f        ..      PUSH     {r0-r4,lr}
    .ARM.Collect$$libinit$$00000001
    __rt_lib_init_fp_1
        0x00018306:    f006f826    ..&.    BL       _fp_init ; 0x1e356
    .ARM.Collect$$libinit$$00000004
    .ARM.Collect$$libinit$$0000000A
    .ARM.Collect$$libinit$$0000000C
    .ARM.Collect$$libinit$$0000000E
    .ARM.Collect$$libinit$$00000011
    .ARM.Collect$$libinit$$00000013
    .ARM.Collect$$libinit$$00000015
    .ARM.Collect$$libinit$$00000017
    .ARM.Collect$$libinit$$00000019
    .ARM.Collect$$libinit$$0000001B
    .ARM.Collect$$libinit$$0000001D
    .ARM.Collect$$libinit$$0000001F
    .ARM.Collect$$libinit$$00000021
    .ARM.Collect$$libinit$$00000023
    .ARM.Collect$$libinit$$00000025
    .ARM.Collect$$libinit$$0000002C
    .ARM.Collect$$libinit$$0000002E
    .ARM.Collect$$libinit$$00000030
    .ARM.Collect$$libinit$$00000032
    .ARM.Collect$$libinit$$00000033
    __rt_lib_init_alloca_1
    __rt_lib_init_argv_1
    __rt_lib_init_atexit_1
    __rt_lib_init_clock_1
    __rt_lib_init_cpp_1
    __rt_lib_init_exceptions_1
    __rt_lib_init_fp_trap_1
    __rt_lib_init_getenv_1
    __rt_lib_init_heap_1
    __rt_lib_init_lc_collate_1
    __rt_lib_init_lc_ctype_1
    __rt_lib_init_lc_monetary_1
    __rt_lib_init_lc_numeric_1
    __rt_lib_init_lc_time_1
    __rt_lib_init_preinit_1
    __rt_lib_init_rand_1
    __rt_lib_init_return
    __rt_lib_init_signal_1
    __rt_lib_init_stdio_1
    __rt_lib_init_user_alloc_1
        0x0001830a:    bd1f        ..      POP      {r0-r4,pc}
    .ARM.Collect$$libshutdown$$00000000
    __rt_lib_shutdown
        0x0001830c:    b510        ..      PUSH     {r4,lr}
    .ARM.Collect$$libshutdown$$00000002
    .ARM.Collect$$libshutdown$$00000004
    .ARM.Collect$$libshutdown$$00000007
    .ARM.Collect$$libshutdown$$0000000A
    .ARM.Collect$$libshutdown$$0000000C
    .ARM.Collect$$libshutdown$$0000000F
    .ARM.Collect$$libshutdown$$00000010
    __rt_lib_shutdown_cpp_1
    __rt_lib_shutdown_fp_trap_1
    __rt_lib_shutdown_heap_1
    __rt_lib_shutdown_return
    __rt_lib_shutdown_signal_1
    __rt_lib_shutdown_stdio_1
    __rt_lib_shutdown_user_alloc_1
        0x0001830e:    bd10        ..      POP      {r4,pc}
    .ARM.Collect$$rtentry$$00000000
    .ARM.Collect$$rtentry$$00000002
    .ARM.Collect$$rtentry$$00000004
    __rt_entry
    __rt_entry_presh_1
    __rt_entry_sh
        0x00018310:    f000f9b2    ....    BL       __user_setup_stackheap ; 0x18678
        0x00018314:    4611        .F      MOV      r1,r2
    .ARM.Collect$$rtentry$$00000009
    .ARM.Collect$$rtentry$$0000000A
    __rt_entry_li
    __rt_entry_postsh_1
        0x00018316:    f7fffff5    ....    BL       __rt_lib_init ; 0x18304
    .ARM.Collect$$rtentry$$0000000C
    .ARM.Collect$$rtentry$$0000000D
    __rt_entry_main
    __rt_entry_postli_1
        0x0001831a:    f004f905    ....    BL       main ; 0x1c528
        0x0001831e:    f000f9d0    ....    BL       exit ; 0x186c2
    .ARM.Collect$$rtexit$$00000000
    __rt_exit
        0x00018322:    b403        ..      PUSH     {r0,r1}
    .ARM.Collect$$rtexit$$00000002
    .ARM.Collect$$rtexit$$00000003
    __rt_exit_ls
    __rt_exit_prels_1
        0x00018324:    f7fffff2    ....    BL       __rt_lib_shutdown ; 0x1830c
    .ARM.Collect$$rtexit$$00000004
    __rt_exit_exit
        0x00018328:    bc03        ..      POP      {r0,r1}
        0x0001832a:    f000f9d3    ....    BL       _sys_exit ; 0x186d4
        0x0001832e:    0000        ..      MOVS     r0,r0
    .emb_text
    $v0
    am_hal_interrupt_master_enable
        0x00018330:    f3ef8010    ....    MRS      r0,PRIMASK
        0x00018334:    b662        b.      CPSIE    i
        0x00018336:    4770        pG      BX       lr
    am_hal_interrupt_master_disable
        0x00018338:    f3ef8010    ....    MRS      r0,PRIMASK
        0x0001833c:    b672        r.      CPSID    i
        0x0001833e:    4770        pG      BX       lr
    am_hal_interrupt_master_set
        0x00018340:    f3808810    ....    MSR      PRIMASK,r0
        0x00018344:    4770        pG      BX       lr
        0x00018346:    0000        ..      MOVS     r0,r0
    .text
    $v0
    __user_initial_stackheap
        0x00018348:    4802        .H      LDR      r0,[pc,#8] ; [0x18354] = 0x10001348
        0x0001834a:    4903        .I      LDR      r1,[pc,#12] ; [0x18358] = 0x10003e48
        0x0001834c:    4a01        .J      LDR      r2,[pc,#4] ; [0x18354] = 0x10001348
        0x0001834e:    4b03        .K      LDR      r3,[pc,#12] ; [0x1835c] = 0x10001348
        0x00018350:    4770        pG      BX       lr
    $d
        0x00018352:    0000        ..      DCW    0
        0x00018354:    10001348    H...    DCD    268440392
        0x00018358:    10003e48    H>..    DCD    268451400
        0x0001835c:    10001348    H...    DCD    268440392
    $t
    .text
    __aeabi_uldivmod
    _ll_udiv
        0x00018360:    ea530c02    S...    ORRS     r12,r3,r2
        0x00018364:    f0008069    ..i.    BEQ.W    0x1843a ; __aeabi_uldivmod + 218
        0x00018368:    e92d4bf0    -..K    PUSH     {r4-r9,r11,lr}
        0x0001836c:    f04f0600    O...    MOV      r6,#0
        0x00018370:    2b00        .+      CMP      r3,#0
        0x00018372:    bf1f        ..      ITTTT    NE
        0x00018374:    fab3f583    ....    CLZNE    r5,r3
        0x00018378:    fa03f405    ....    LSLNE    r4,r3,r5
        0x0001837c:    fa24f605    $...    LSRNE    r6,r4,r5
        0x00018380:    405e        ^@      EORNE    r6,r6,r3
        0x00018382:    bf12        ..      ITEE     NE
        0x00018384:    4316        .C      ORRNE    r6,r6,r2
        0x00018386:    fab2f582    ....    CLZEQ    r5,r2
        0x0001838a:    fa02f405    ....    LSLEQ    r4,r2,r5
        0x0001838e:    f1c50520    .. .    RSB      r5,r5,#0x20
        0x00018392:    bf1e        ..      ITTT     NE
        0x00018394:    fa22fc05    "...    LSRNE    r12,r2,r5
        0x00018398:    ea44040c    D...    ORRNE    r4,r4,r12
        0x0001839c:    3520         5      ADDNE    r5,r5,#0x20
        0x0001839e:    ea564c04    V..L    ORRS     r12,r6,r4,LSL #16
        0x000183a2:    ea4f4414    O..D    LSR      r4,r4,#16
        0x000183a6:    bf18        ..      IT       NE
        0x000183a8:    1c64        d.      ADDNE    r4,r4,#1
        0x000183aa:    f04f0800    O...    MOV      r8,#0
        0x000183ae:    f04f0900    O...    MOV      r9,#0
        0x000183b2:    4290        .B      CMP      r0,r2
        0x000183b4:    eb710c03    q...    SBCS     r12,r1,r3
        0x000183b8:    d339        9.      BCC      0x1842e ; __aeabi_uldivmod + 206
        0x000183ba:    2900        .)      CMP      r1,#0
        0x000183bc:    bf19        ..      ITTEE    NE
        0x000183be:    fab1f781    ....    CLZNE    r7,r1
        0x000183c2:    fa01f607    ....    LSLNE    r6,r1,r7
        0x000183c6:    fab0f780    ....    CLZEQ    r7,r0
        0x000183ca:    fa00f607    ....    LSLEQ    r6,r0,r7
        0x000183ce:    f1c70720    .. .    RSB      r7,r7,#0x20
        0x000183d2:    bf1e        ..      ITTT     NE
        0x000183d4:    fa20fc07     ...    LSRNE    r12,r0,r7
        0x000183d8:    ea46060c    F...    ORRNE    r6,r6,r12
        0x000183dc:    3720         7      ADDNE    r7,r7,#0x20
        0x000183de:    fbb6fcf4    ....    UDIV     r12,r6,r4
        0x000183e2:    eba70705    ....    SUB      r7,r7,r5
        0x000183e6:    3f10        .?      SUBS     r7,r7,#0x10
        0x000183e8:    f0070b1f    ....    AND      r11,r7,#0x1f
        0x000183ec:    f1cb0620    .. .    RSB      r6,r11,#0x20
        0x000183f0:    fa0cfb0b    ....    LSL      r11,r12,r11
        0x000183f4:    fa2cf606    ,...    LSR      r6,r12,r6
        0x000183f8:    bf44        D.      ITT      MI
        0x000183fa:    46b3        .F      MOVMI    r11,r6
        0x000183fc:    2600        .&      MOVMI    r6,#0
        0x000183fe:    2f20         /      CMP      r7,#0x20
        0x00018400:    bfa4        ..      ITT      GE
        0x00018402:    465e        ^F      MOVGE    r6,r11
        0x00018404:    f04f0b00    O...    MOVGE    r11,#0
        0x00018408:    ea5b0c06    [...    ORRS     r12,r11,r6
        0x0001840c:    bf08        ..      IT       EQ
        0x0001840e:    f04f0b01    O...    MOVEQ    r11,#1
        0x00018412:    eb19090b    ....    ADDS     r9,r9,r11
        0x00018416:    fbab7c02    ...|    UMULL    r7,r12,r11,r2
        0x0001841a:    eb480806    H...    ADC      r8,r8,r6
        0x0001841e:    1bc0        ..      SUBS     r0,r0,r7
        0x00018420:    fb06cc02    ....    MLA      r12,r6,r2,r12
        0x00018424:    fb0bcc03    ....    MLA      r12,r11,r3,r12
        0x00018428:    eb71010c    q...    SBCS     r1,r1,r12
        0x0001842c:    e7c1        ..      B        0x183b2 ; __aeabi_uldivmod + 82
        0x0001842e:    460b        .F      MOV      r3,r1
        0x00018430:    4602        .F      MOV      r2,r0
        0x00018432:    4641        AF      MOV      r1,r8
        0x00018434:    4648        HF      MOV      r0,r9
        0x00018436:    e8bd8bf0    ....    POP      {r4-r9,r11,pc}
        0x0001843a:    b513        ..      PUSH     {r0,r1,r4,lr}
        0x0001843c:    f04f0000    O...    MOV      r0,#0
        0x00018440:    f04f0100    O...    MOV      r1,#0
        0x00018444:    f3af8000    ....    NOP.W    
        0x00018448:    e8bd401c    ...@    POP      {r2-r4,lr}
        0x0001844c:    4770        pG      BX       lr
    .text
    __aeabi_llsl
    _ll_shift_l
        0x0001844e:    f1b20320    .. .    SUBS     r3,r2,#0x20
        0x00018452:    d50a        ..      BPL      0x1846a ; __aeabi_llsl + 28
        0x00018454:    f1c20320    .. .    RSB      r3,r2,#0x20
        0x00018458:    fa01f102    ....    LSL      r1,r1,r2
        0x0001845c:    fa20f303     ...    LSR      r3,r0,r3
        0x00018460:    fa00f002    ....    LSL      r0,r0,r2
        0x00018464:    ea410103    A...    ORR      r1,r1,r3
        0x00018468:    4770        pG      BX       lr
        0x0001846a:    fa00f103    ....    LSL      r1,r0,r3
        0x0001846e:    f04f0000    O...    MOV      r0,#0
        0x00018472:    4770        pG      BX       lr
    .text
    __aeabi_llsr
    _ll_ushift_r
        0x00018474:    f1b20320    .. .    SUBS     r3,r2,#0x20
        0x00018478:    d50a        ..      BPL      0x18490 ; __aeabi_llsr + 28
        0x0001847a:    f1c20320    .. .    RSB      r3,r2,#0x20
        0x0001847e:    fa20f002     ...    LSR      r0,r0,r2
        0x00018482:    fa01f303    ....    LSL      r3,r1,r3
        0x00018486:    fa21f102    !...    LSR      r1,r1,r2
        0x0001848a:    ea400003    @...    ORR      r0,r0,r3
        0x0001848e:    4770        pG      BX       lr
        0x00018490:    fa21f003    !...    LSR      r0,r1,r3
        0x00018494:    f04f0100    O...    MOV      r1,#0
        0x00018498:    4770        pG      BX       lr
    .text
    strlen
        0x0001849a:    b510        ..      PUSH     {r4,lr}
        0x0001849c:    1c43        C.      ADDS     r3,r0,#1
        0x0001849e:    e002        ..      B        0x184a6 ; strlen + 12
        0x000184a0:    f8101b01    ....    LDRB     r1,[r0],#1
        0x000184a4:    b171        q.      CBZ      r1,0x184c4 ; strlen + 42
        0x000184a6:    0781        ..      LSLS     r1,r0,#30
        0x000184a8:    d1fa        ..      BNE      0x184a0 ; strlen + 6
        0x000184aa:    f04f3201    O..2    MOV      r2,#0x1010101
        0x000184ae:    c802        ..      LDM      r0!,{r1}
        0x000184b0:    1a8c        ..      SUBS     r4,r1,r2
        0x000184b2:    438c        .C      BICS     r4,r4,r1
        0x000184b4:    ea1411c2    ....    ANDS     r1,r4,r2,LSL #7
        0x000184b8:    d0f9        ..      BEQ      0x184ae ; strlen + 20
        0x000184ba:    1ac0        ..      SUBS     r0,r0,r3
        0x000184bc:    060a        ..      LSLS     r2,r1,#24
        0x000184be:    d003        ..      BEQ      0x184c8 ; strlen + 46
        0x000184c0:    1ec0        ..      SUBS     r0,r0,#3
        0x000184c2:    bd10        ..      POP      {r4,pc}
        0x000184c4:    1ac0        ..      SUBS     r0,r0,r3
        0x000184c6:    bd10        ..      POP      {r4,pc}
        0x000184c8:    040a        ..      LSLS     r2,r1,#16
        0x000184ca:    d001        ..      BEQ      0x184d0 ; strlen + 54
        0x000184cc:    1e80        ..      SUBS     r0,r0,#2
        0x000184ce:    bd10        ..      POP      {r4,pc}
        0x000184d0:    0209        ..      LSLS     r1,r1,#8
        0x000184d2:    d0fc        ..      BEQ      0x184ce ; strlen + 52
        0x000184d4:    1e40        @.      SUBS     r0,r0,#1
        0x000184d6:    bd10        ..      POP      {r4,pc}
    .text
    __aeabi_memcpy
    __rt_memcpy
        0x000184d8:    2a03        .*      CMP      r2,#3
        0x000184da:    f2408030    @.0.    BLS.W    _memcpy_lastbytes ; 0x1853e
        0x000184de:    f0100c03    ....    ANDS     r12,r0,#3
        0x000184e2:    f0008015    ....    BEQ.W    0x18510 ; __aeabi_memcpy + 56
        0x000184e6:    f8113b01    ...;    LDRB     r3,[r1],#1
        0x000184ea:    f1bc0f02    ....    CMP      r12,#2
        0x000184ee:    4462        bD      ADD      r2,r2,r12
        0x000184f0:    bf98        ..      IT       LS
        0x000184f2:    f811cb01    ....    LDRBLS   r12,[r1],#1
        0x000184f6:    f8003b01    ...;    STRB     r3,[r0],#1
        0x000184fa:    bf38        8.      IT       CC
        0x000184fc:    f8113b01    ...;    LDRBCC   r3,[r1],#1
        0x00018500:    f1a20204    ....    SUB      r2,r2,#4
        0x00018504:    bf98        ..      IT       LS
        0x00018506:    f800cb01    ....    STRBLS   r12,[r0],#1
        0x0001850a:    bf38        8.      IT       CC
        0x0001850c:    f8003b01    ...;    STRBCC   r3,[r0],#1
        0x00018510:    f0110303    ....    ANDS     r3,r1,#3
        0x00018514:    f0008079    ..y.    BEQ.W    __aeabi_memcpy4 ; 0x1860a
        0x00018518:    3a08        .:      SUBS     r2,r2,#8
        0x0001851a:    f0c08008    ....    BCC.W    0x1852e ; __aeabi_memcpy + 86
        0x0001851e:    f8513b04    Q..;    LDR      r3,[r1],#4
        0x00018522:    3a08        .:      SUBS     r2,r2,#8
        0x00018524:    f851cb04    Q...    LDR      r12,[r1],#4
        0x00018528:    e8a01008    ....    STM      r0!,{r3,r12}
        0x0001852c:    e7f5        ..      B        0x1851a ; __aeabi_memcpy + 66
        0x0001852e:    1d12        ..      ADDS     r2,r2,#4
        0x00018530:    bf5c        \.      ITT      PL
        0x00018532:    f8513b04    Q..;    LDRPL    r3,[r1],#4
        0x00018536:    f8403b04    @..;    STRPL    r3,[r0],#4
        0x0001853a:    f3af8000    ....    NOP.W    
    _memcpy_lastbytes
        0x0001853e:    07d2        ..      LSLS     r2,r2,#31
        0x00018540:    bf24        $.      ITT      CS
        0x00018542:    f8113b01    ...;    LDRBCS   r3,[r1],#1
        0x00018546:    f811cb01    ....    LDRBCS   r12,[r1],#1
        0x0001854a:    bf48        H.      IT       MI
        0x0001854c:    f8112b01    ...+    LDRBMI   r2,[r1],#1
        0x00018550:    bf24        $.      ITT      CS
        0x00018552:    f8003b01    ...;    STRBCS   r3,[r0],#1
        0x00018556:    f800cb01    ....    STRBCS   r12,[r0],#1
        0x0001855a:    bf48        H.      IT       MI
        0x0001855c:    f8002b01    ...+    STRBMI   r2,[r0],#1
        0x00018560:    4770        pG      BX       lr
    .text
    __aeabi_memset
        0x00018562:    f00203ff    ....    AND      r3,r2,#0xff
        0x00018566:    ea432203    C.."    ORR      r2,r3,r3,LSL #8
        0x0001856a:    ea424202    B..B    ORR      r2,r2,r2,LSL #16
        0x0001856e:    f000b802    ....    B.W      _memset ; 0x18576
    .text
    __aeabi_memclr
    __rt_memclr
        0x00018572:    f04f0200    O...    MOV      r2,#0
    _memset
        0x00018576:    2904        .)      CMP      r1,#4
        0x00018578:    f0c08012    ....    BCC.W    0x185a0 ; _memset + 42
        0x0001857c:    f0100c03    ....    ANDS     r12,r0,#3
        0x00018580:    f000801b    ....    BEQ.W    _memset_w ; 0x185ba
        0x00018584:    f1cc0c04    ....    RSB      r12,r12,#4
        0x00018588:    f1bc0f02    ....    CMP      r12,#2
        0x0001858c:    bf18        ..      IT       NE
        0x0001858e:    f8002b01    ...+    STRBNE   r2,[r0],#1
        0x00018592:    bfa8        ..      IT       GE
        0x00018594:    f8202b02     ..+    STRHGE   r2,[r0],#2
        0x00018598:    eba1010c    ....    SUB      r1,r1,r12
        0x0001859c:    f000b80d    ....    B.W      _memset_w ; 0x185ba
        0x000185a0:    ea5f7cc1    _..|    LSLS     r12,r1,#31
        0x000185a4:    bf24        $.      ITT      CS
        0x000185a6:    f8002b01    ...+    STRBCS   r2,[r0],#1
        0x000185aa:    f8002b01    ...+    STRBCS   r2,[r0],#1
        0x000185ae:    bf48        H.      IT       MI
        0x000185b0:    f8002b01    ...+    STRBMI   r2,[r0],#1
        0x000185b4:    4770        pG      BX       lr
    .text
    __aeabi_memclr4
    __aeabi_memclr8
    __rt_memclr_w
        0x000185b6:    f04f0200    O...    MOV      r2,#0
    _memset_w
        0x000185ba:    b500        ..      PUSH     {lr}
        0x000185bc:    4613        .F      MOV      r3,r2
        0x000185be:    4694        .F      MOV      r12,r2
        0x000185c0:    4696        .F      MOV      lr,r2
        0x000185c2:    3920         9      SUBS     r1,r1,#0x20
        0x000185c4:    bf22        ".      ITTT     CS
        0x000185c6:    e8a0500c    ...P    STMCS    r0!,{r2,r3,r12,lr}
        0x000185ca:    e8a0500c    ...P    STMCS    r0!,{r2,r3,r12,lr}
        0x000185ce:    f1b10120    .. .    SUBSCS   r1,r1,#0x20
        0x000185d2:    f4bfaff7    ....    BCS.W    0x185c4 ; _memset_w + 10
        0x000185d6:    0709        ..      LSLS     r1,r1,#28
        0x000185d8:    bf28        (.      IT       CS
        0x000185da:    e8a0500c    ...P    STMCS    r0!,{r2,r3,r12,lr}
        0x000185de:    bf48        H.      IT       MI
        0x000185e0:    c00c        ..      STMMI    r0!,{r2,r3}
        0x000185e2:    f85deb04    ]...    POP      {lr}
        0x000185e6:    0089        ..      LSLS     r1,r1,#2
        0x000185e8:    bf28        (.      IT       CS
        0x000185ea:    f8402b04    @..+    STRCS    r2,[r0],#4
        0x000185ee:    bf08        ..      IT       EQ
        0x000185f0:    4770        pG      BXEQ     lr
        0x000185f2:    bf48        H.      IT       MI
        0x000185f4:    f8202b02     ..+    STRHMI   r2,[r0],#2
        0x000185f8:    f0114f80    ...O    TST      r1,#0x40000000
        0x000185fc:    bf18        ..      IT       NE
        0x000185fe:    f8002b01    ...+    STRBNE   r2,[r0],#1
        0x00018602:    4770        pG      BX       lr
    .text
    __use_two_region_memory
        0x00018604:    4770        pG      BX       lr
    __rt_heap_escrow$2region
        0x00018606:    4770        pG      BX       lr
    __rt_heap_expand$2region
        0x00018608:    4770        pG      BX       lr
    .text
    __aeabi_memcpy4
    __aeabi_memcpy8
    __rt_memcpy_w
        0x0001860a:    b510        ..      PUSH     {r4,lr}
        0x0001860c:    3a20         :      SUBS     r2,r2,#0x20
        0x0001860e:    f0c0800b    ....    BCC.W    0x18628 ; __aeabi_memcpy4 + 30
        0x00018612:    e8b15018    ...P    LDM      r1!,{r3,r4,r12,lr}
        0x00018616:    3a20         :      SUBS     r2,r2,#0x20
        0x00018618:    e8a05018    ...P    STM      r0!,{r3,r4,r12,lr}
        0x0001861c:    e8b15018    ...P    LDM      r1!,{r3,r4,r12,lr}
        0x00018620:    e8a05018    ...P    STM      r0!,{r3,r4,r12,lr}
        0x00018624:    f4bfaff5    ....    BCS.W    0x18612 ; __aeabi_memcpy4 + 8
        0x00018628:    ea5f7c02    _..|    LSLS     r12,r2,#28
        0x0001862c:    bf24        $.      ITT      CS
        0x0001862e:    e8b15018    ...P    LDMCS    r1!,{r3,r4,r12,lr}
        0x00018632:    e8a05018    ...P    STMCS    r0!,{r3,r4,r12,lr}
        0x00018636:    bf44        D.      ITT      MI
        0x00018638:    c918        ..      LDMMI    r1!,{r3,r4}
        0x0001863a:    c018        ..      STMMI    r0!,{r3,r4}
        0x0001863c:    e8bd4010    ...@    POP      {r4,lr}
        0x00018640:    ea5f7c82    _..|    LSLS     r12,r2,#30
        0x00018644:    bf24        $.      ITT      CS
        0x00018646:    f8513b04    Q..;    LDRCS    r3,[r1],#4
        0x0001864a:    f8403b04    @..;    STRCS    r3,[r0],#4
        0x0001864e:    bf08        ..      IT       EQ
        0x00018650:    4770        pG      BXEQ     lr
    _memcpy_lastbytes_aligned
        0x00018652:    07d2        ..      LSLS     r2,r2,#31
        0x00018654:    bf28        (.      IT       CS
        0x00018656:    f8313b02    1..;    LDRHCS   r3,[r1],#2
        0x0001865a:    bf48        H.      IT       MI
        0x0001865c:    f8112b01    ...+    LDRBMI   r2,[r1],#1
        0x00018660:    bf28        (.      IT       CS
        0x00018662:    f8203b02     ..;    STRHCS   r3,[r0],#2
        0x00018666:    bf48        H.      IT       MI
        0x00018668:    f8002b01    ...+    STRBMI   r2,[r0],#1
        0x0001866c:    4770        pG      BX       lr
        0x0001866e:    0000        ..      MOVS     r0,r0
    .text
    __user_libspace
    __user_perproc_libspace
    __user_perthread_libspace
        0x00018670:    4800        .H      LDR      r0,[pc,#0] ; [0x18674] = 0x100012e8
        0x00018672:    4770        pG      BX       lr
    $d
        0x00018674:    100012e8    ....    DCD    268440296
    $t
    .text
    __user_setup_stackheap
        0x00018678:    4675        uF      MOV      r5,lr
        0x0001867a:    f7fffff9    ....    BL       __user_libspace ; 0x18670
        0x0001867e:    46ae        .F      MOV      lr,r5
        0x00018680:    0005        ..      MOVS     r5,r0
        0x00018682:    4669        iF      MOV      r1,sp
        0x00018684:    4653        SF      MOV      r3,r10
        0x00018686:    f0200007     ...    BIC      r0,r0,#7
        0x0001868a:    4685        .F      MOV      sp,r0
        0x0001868c:    b018        ..      ADD      sp,sp,#0x60
        0x0001868e:    b520         .      PUSH     {r5,lr}
        0x00018690:    f7fffe5a    ..Z.    BL       __user_initial_stackheap ; 0x18348
        0x00018694:    e8bd4020    .. @    POP      {r5,lr}
        0x00018698:    f04f0600    O...    MOV      r6,#0
        0x0001869c:    f04f0700    O...    MOV      r7,#0
        0x000186a0:    f04f0800    O...    MOV      r8,#0
        0x000186a4:    f04f0b00    O...    MOV      r11,#0
        0x000186a8:    f0210107    !...    BIC      r1,r1,#7
        0x000186ac:    46ac        .F      MOV      r12,r5
        0x000186ae:    e8ac09c0    ....    STM      r12!,{r6-r8,r11}
        0x000186b2:    e8ac09c0    ....    STM      r12!,{r6-r8,r11}
        0x000186b6:    e8ac09c0    ....    STM      r12!,{r6-r8,r11}
        0x000186ba:    e8ac09c0    ....    STM      r12!,{r6-r8,r11}
        0x000186be:    468d        .F      MOV      sp,r1
        0x000186c0:    4770        pG      BX       lr
    .text
    exit
        0x000186c2:    b510        ..      PUSH     {r4,lr}
        0x000186c4:    4604        .F      MOV      r4,r0
        0x000186c6:    f3af8000    ....    NOP.W    
        0x000186ca:    4620         F      MOV      r0,r4
        0x000186cc:    e8bd4010    ...@    POP      {r4,lr}
        0x000186d0:    f7ffbe27    ..'.    B.W      __rt_exit ; 0x18322
    .text
    _sys_exit
        0x000186d4:    4901        .I      LDR      r1,[pc,#4] ; [0x186dc] = 0x20026
        0x000186d6:    2018        .       MOVS     r0,#0x18
        0x000186d8:    beab        ..      BKPT     #0xab
        0x000186da:    e7fe        ..      B        0x186da ; _sys_exit + 6
    $d
        0x000186dc:    00020026    &...    DCD    131110
    $t
    .text
    __I$use$semihosting
    __use_no_semihosting_swi
        0x000186e0:    4770        pG      BX       lr
    .text
    __semihosting_library_function
        0x000186e2:    0000        ..      MOVS     r0,r0
    i._data_stage_xact
    _data_stage_xact
        0x000186e4:    b570        p.      PUSH     {r4-r6,lr}
        0x000186e6:    4604        .F      MOV      r4,r0
        0x000186e8:    2500        .%      MOVS     r5,#0
        0x000186ea:    480d        .H      LDR      r0,[pc,#52] ; [0x18720] = 0x10000254
        0x000186ec:    7800        .x      LDRB     r0,[r0,#0]
        0x000186ee:    2101        .!      MOVS     r1,#1
        0x000186f0:    ebb11fd0    ....    CMP      r1,r0,LSR #7
        0x000186f4:    d100        ..      BNE      0x186f8 ; _data_stage_xact + 20
        0x000186f6:    2580        .%      MOVS     r5,#0x80
        0x000186f8:    4809        .H      LDR      r0,[pc,#36] ; [0x18720] = 0x10000254
        0x000186fa:    8982        ..      LDRH     r2,[r0,#0xc]
        0x000186fc:    4629        )F      MOV      r1,r5
        0x000186fe:    a009        ..      ADR      r0,{pc}+0x26 ; 0x18724
        0x00018700:    f002fd5a    ..Z.    BL       am_util_stdio_printf ; 0x1b1b8
        0x00018704:    4806        .H      LDR      r0,[pc,#24] ; [0x18720] = 0x10000254
        0x00018706:    8983        ..      LDRH     r3,[r0,#0xc]
        0x00018708:    8980        ..      LDRH     r0,[r0,#0xc]
        0x0001870a:    b110        ..      CBZ      r0,0x18712 ; _data_stage_xact + 46
        0x0001870c:    4804        .H      LDR      r0,[pc,#16] ; [0x18720] = 0x10000254
        0x0001870e:    6880        .h      LDR      r0,[r0,#8]
        0x00018710:    e000        ..      B        0x18714 ; _data_stage_xact + 48
        0x00018712:    2000        .       MOVS     r0,#0
        0x00018714:    4602        .F      MOV      r2,r0
        0x00018716:    4629        )F      MOV      r1,r5
        0x00018718:    4620         F      MOV      r0,r4
        0x0001871a:    f003f881    ....    BL       dcd_edpt_xfer ; 0x1b820
        0x0001871e:    bd70        p.      POP      {r4-r6,pc}
    $d
        0x00018720:    10000254    T...    DCD    268436052
        0x00018724:    75512020      Qu    DCD    1968250912
        0x00018728:    20657565    eue     DCD    543520101
        0x0001872c:    25205045    EP %    DCD    622874693
        0x00018730:    20583230    02X     DCD    542650928
        0x00018734:    68746977    with    DCD    1752459639
        0x00018738:    20752520     %u     DCD    544548128
        0x0001873c:    65747962    byte    DCD    1702132066
        0x00018740:    000a0d73    s...    DCD    658803
    $t
    i._osal_q_lock
    _osal_q_lock
        0x00018744:    b510        ..      PUSH     {r4,lr}
        0x00018746:    4604        .F      MOV      r4,r0
        0x00018748:    7820         x      LDRB     r0,[r4,#0]
        0x0001874a:    2801        .(      CMP      r0,#1
        0x0001874c:    d102        ..      BNE      0x18754 ; _osal_q_lock + 16
        0x0001874e:    2000        .       MOVS     r0,#0
        0x00018750:    f003f9a8    ....    BL       dcd_int_disable ; 0x1baa4
        0x00018754:    bd10        ..      POP      {r4,pc}
    i._osal_q_unlock
    _osal_q_unlock
        0x00018756:    b510        ..      PUSH     {r4,lr}
        0x00018758:    4604        .F      MOV      r4,r0
        0x0001875a:    7820         x      LDRB     r0,[r4,#0]
        0x0001875c:    2801        .(      CMP      r0,#1
        0x0001875e:    d102        ..      BNE      0x18766 ; _osal_q_unlock + 16
        0x00018760:    2000        .       MOVS     r0,#0
        0x00018762:    f003f9b5    ....    BL       dcd_int_enable ; 0x1bad0
        0x00018766:    bd10        ..      POP      {r4,pc}
    i._status_stage_xact
    _status_stage_xact
        0x00018768:    b570        p.      PUSH     {r4-r6,lr}
        0x0001876a:    4605        .F      MOV      r5,r0
        0x0001876c:    460c        .F      MOV      r4,r1
        0x0001876e:    7820         x      LDRB     r0,[r4,#0]
        0x00018770:    09c0        ..      LSRS     r0,r0,#7
        0x00018772:    b108        ..      CBZ      r0,0x18778 ; _status_stage_xact + 16
        0x00018774:    2000        .       MOVS     r0,#0
        0x00018776:    e000        ..      B        0x1877a ; _status_stage_xact + 18
        0x00018778:    2080        .       MOVS     r0,#0x80
        0x0001877a:    4606        .F      MOV      r6,r0
        0x0001877c:    4631        1F      MOV      r1,r6
        0x0001877e:    a005        ..      ADR      r0,{pc}+0x16 ; 0x18794
        0x00018780:    f002fd1a    ....    BL       am_util_stdio_printf ; 0x1b1b8
        0x00018784:    2300        .#      MOVS     r3,#0
        0x00018786:    461a        .F      MOV      r2,r3
        0x00018788:    4631        1F      MOV      r1,r6
        0x0001878a:    4628        (F      MOV      r0,r5
        0x0001878c:    f003f848    ..H.    BL       dcd_edpt_xfer ; 0x1b820
        0x00018790:    bd70        p.      POP      {r4-r6,pc}
    $d
        0x00018792:    0000        ..      DCW    0
        0x00018794:    75512020      Qu    DCD    1968250912
        0x00018798:    20657565    eue     DCD    543520101
        0x0001879c:    25205045    EP %    DCD    622874693
        0x000187a0:    20583230    02X     DCD    542650928
        0x000187a4:    68746977    with    DCD    1752459639
        0x000187a8:    706c7a20     zlp    DCD    1886157344
        0x000187ac:    61745320     Sta    DCD    1635013408
        0x000187b0:    0d737574    tus.    DCD    225670516
        0x000187b4:    0000000a    ....    DCD    10
    $t
    i._tu_fifo_correct_read_pointer
    _tu_fifo_correct_read_pointer
        0x000187b8:    b570        p.      PUSH     {r4-r6,lr}
        0x000187ba:    4604        .F      MOV      r4,r0
        0x000187bc:    460d        .F      MOV      r5,r1
        0x000187be:    88a2        ..      LDRH     r2,[r4,#4]
        0x000187c0:    4629        )F      MOV      r1,r5
        0x000187c2:    4620         F      MOV      r0,r4
        0x000187c4:    f002ff06    ....    BL       backward_pointer ; 0x1b5d4
        0x000187c8:    8220         .      STRH     r0,[r4,#0x10]
        0x000187ca:    bd70        p.      POP      {r4-r6,pc}
    i._tu_fifo_count
    _tu_fifo_count
        0x000187cc:    b510        ..      PUSH     {r4,lr}
        0x000187ce:    4603        .F      MOV      r3,r0
        0x000187d0:    1a8c        ..      SUBS     r4,r1,r2
        0x000187d2:    b2a0        ..      UXTH     r0,r4
        0x000187d4:    428a        .B      CMP      r2,r1
        0x000187d6:    dd02        ..      BLE      0x187de ; _tu_fifo_count + 18
        0x000187d8:    895c        \.      LDRH     r4,[r3,#0xa]
        0x000187da:    1b04        ..      SUBS     r4,r0,r4
        0x000187dc:    b2a0        ..      UXTH     r0,r4
        0x000187de:    bd10        ..      POP      {r4,pc}
    i._tu_fifo_full
    _tu_fifo_full
        0x000187e0:    b570        p.      PUSH     {r4-r6,lr}
        0x000187e2:    4604        .F      MOV      r4,r0
        0x000187e4:    460d        .F      MOV      r5,r1
        0x000187e6:    4616        .F      MOV      r6,r2
        0x000187e8:    4632        2F      MOV      r2,r6
        0x000187ea:    4629        )F      MOV      r1,r5
        0x000187ec:    4620         F      MOV      r0,r4
        0x000187ee:    f7ffffed    ....    BL       _tu_fifo_count ; 0x187cc
        0x000187f2:    88a1        ..      LDRH     r1,[r4,#4]
        0x000187f4:    4288        .B      CMP      r0,r1
        0x000187f6:    d101        ..      BNE      0x187fc ; _tu_fifo_full + 28
        0x000187f8:    2001        .       MOVS     r0,#1
        0x000187fa:    bd70        p.      POP      {r4-r6,pc}
        0x000187fc:    2000        .       MOVS     r0,#0
        0x000187fe:    e7fc        ..      B        0x187fa ; _tu_fifo_full + 26
    i._tu_fifo_peek
    _tu_fifo_peek
        0x00018800:    e92d47f0    -..G    PUSH     {r4-r10,lr}
        0x00018804:    4604        .F      MOV      r4,r0
        0x00018806:    460f        .F      MOV      r7,r1
        0x00018808:    4690        .F      MOV      r8,r2
        0x0001880a:    461e        .F      MOV      r6,r3
        0x0001880c:    4632        2F      MOV      r2,r6
        0x0001880e:    4641        AF      MOV      r1,r8
        0x00018810:    4620         F      MOV      r0,r4
        0x00018812:    f7ffffdb    ....    BL       _tu_fifo_count ; 0x187cc
        0x00018816:    4681        .F      MOV      r9,r0
        0x00018818:    88a0        ..      LDRH     r0,[r4,#4]
        0x0001881a:    4548        HE      CMP      r0,r9
        0x0001881c:    da05        ..      BGE      0x1882a ; _tu_fifo_peek + 42
        0x0001881e:    4641        AF      MOV      r1,r8
        0x00018820:    4620         F      MOV      r0,r4
        0x00018822:    f7ffffc9    ....    BL       _tu_fifo_correct_read_pointer ; 0x187b8
        0x00018826:    f8b49004    ....    LDRH     r9,[r4,#4]
        0x0001882a:    f1b90f00    ....    CMP      r9,#0
        0x0001882e:    d102        ..      BNE      0x18836 ; _tu_fifo_peek + 54
        0x00018830:    2000        .       MOVS     r0,#0
        0x00018832:    e8bd87f0    ....    POP      {r4-r10,pc}
        0x00018836:    4631        1F      MOV      r1,r6
        0x00018838:    4620         F      MOV      r0,r4
        0x0001883a:    f003fb7d    ..}.    BL       get_relative_pointer ; 0x1bf38
        0x0001883e:    4605        .F      MOV      r5,r0
        0x00018840:    bf00        ..      NOP      
        0x00018842:    88e3        ..      LDRH     r3,[r4,#6]
        0x00018844:    6820         h      LDR      r0,[r4,#0]
        0x00018846:    fb050103    ....    MLA      r1,r5,r3,r0
        0x0001884a:    461a        .F      MOV      r2,r3
        0x0001884c:    4638        8F      MOV      r0,r7
        0x0001884e:    f7fffe43    ..C.    BL       __aeabi_memcpy ; 0x184d8
        0x00018852:    bf00        ..      NOP      
        0x00018854:    2001        .       MOVS     r0,#1
        0x00018856:    e7ec        ..      B        0x18832 ; _tu_fifo_peek + 50
    i.advance_pointer
    advance_pointer
        0x00018858:    b510        ..      PUSH     {r4,lr}
        0x0001885a:    4603        .F      MOV      r3,r0
        0x0001885c:    1888        ..      ADDS     r0,r1,r2
        0x0001885e:    b280        ..      UXTH     r0,r0
        0x00018860:    4288        .B      CMP      r0,r1
        0x00018862:    db04        ..      BLT      0x1886e ; advance_pointer + 22
        0x00018864:    1888        ..      ADDS     r0,r1,r2
        0x00018866:    b280        ..      UXTH     r0,r0
        0x00018868:    899c        ..      LDRH     r4,[r3,#0xc]
        0x0001886a:    42a0        .B      CMP      r0,r4
        0x0001886c:    dd04        ..      BLE      0x18878 ; advance_pointer + 32
        0x0001886e:    1888        ..      ADDS     r0,r1,r2
        0x00018870:    895c        \.      LDRH     r4,[r3,#0xa]
        0x00018872:    4420         D      ADD      r0,r0,r4
        0x00018874:    b281        ..      UXTH     r1,r0
        0x00018876:    e001        ..      B        0x1887c ; advance_pointer + 36
        0x00018878:    1888        ..      ADDS     r0,r1,r2
        0x0001887a:    b281        ..      UXTH     r1,r0
        0x0001887c:    4608        .F      MOV      r0,r1
        0x0001887e:    bd10        ..      POP      {r4,pc}
    i.am_bsp_debug_printf_enable
    am_bsp_debug_printf_enable
        0x00018880:    b5f0        ..      PUSH     {r4-r7,lr}
        0x00018882:    4c4f        OL      LDR      r4,[pc,#316] ; [0x189c0] = 0x1000005c
        0x00018884:    2600        .&      MOVS     r6,#0
        0x00018886:    2701        .'      MOVS     r7,#1
        0x00018888:    7820         x      LDRB     r0,[r4,#0]
        0x0001888a:    b083        ..      SUB      sp,sp,#0xc
        0x0001888c:    2800        .(      CMP      r0,#0
        0x0001888e:    bf18        ..      IT       NE
        0x00018890:    2801        .(      CMPNE    r0,#1
        0x00018892:    d006        ..      BEQ      0x188a2 ; am_bsp_debug_printf_enable + 34
        0x00018894:    4d4b        KM      LDR      r5,[pc,#300] ; [0x189c4] = 0x100000ac
        0x00018896:    4e4c        LN      LDR      r6,[pc,#304] ; [0x189c8] = 0x100000b0
        0x00018898:    2802        .(      CMP      r0,#2
        0x0001889a:    d02f        /.      BEQ      0x188fc ; am_bsp_debug_printf_enable + 124
        0x0001889c:    2803        .(      CMP      r0,#3
        0x0001889e:    d052        R.      BEQ      0x18946 ; am_bsp_debug_printf_enable + 198
        0x000188a0:    e078        x.      B        0x18994 ; am_bsp_debug_printf_enable + 276
        0x000188a2:    484a        JH      LDR      r0,[pc,#296] ; [0x189cc] = 0x40021000
        0x000188a4:    6880        .h      LDR      r0,[r0,#8]
        0x000188a6:    f04f35ff    O..5    MOV      r5,#0xffffffff
        0x000188aa:    f4101f80    ....    TST      r0,#0x100000
        0x000188ae:    d010        ..      BEQ      0x188d2 ; am_bsp_debug_printf_enable + 82
        0x000188b0:    4847        GH      LDR      r0,[pc,#284] ; [0x189d0] = 0x400c0a7c
        0x000188b2:    6800        .h      LDR      r0,[r0,#0]
        0x000188b4:    f0100f01    ....    TST      r0,#1
        0x000188b8:    d00b        ..      BEQ      0x188d2 ; am_bsp_debug_printf_enable + 82
        0x000188ba:    4668        hF      MOV      r0,sp
        0x000188bc:    f000fa3e    ..>.    BL       am_hal_dcu_get ; 0x18d3c
        0x000188c0:    9800        ..      LDR      r0,[sp,#0]
        0x000188c2:    f0100f10    ....    TST      r0,#0x10
        0x000188c6:    d107        ..      BNE      0x188d8 ; am_bsp_debug_printf_enable + 88
        0x000188c8:    2110        .!      MOVS     r1,#0x10
        0x000188ca:    2001        .       MOVS     r0,#1
        0x000188cc:    f000fa7e    ..~.    BL       am_hal_dcu_update ; 0x18dcc
        0x000188d0:    b110        ..      CBZ      r0,0x188d8 ; am_bsp_debug_printf_enable + 88
        0x000188d2:    b003        ..      ADD      sp,sp,#0xc
        0x000188d4:    4628        (F      MOV      r0,r5
        0x000188d6:    bdf0        ..      POP      {r4-r7,pc}
        0x000188d8:    7027        'p      STRB     r7,[r4,#0]
        0x000188da:    f000fbc1    ....    BL       am_hal_itm_enable ; 0x19060
        0x000188de:    483d        =H      LDR      r0,[pc,#244] ; [0x189d4] = 0xf4240
        0x000188e0:    f000ff52    ..R.    BL       am_hal_tpiu_enable ; 0x19788
        0x000188e4:    483c        <H      LDR      r0,[pc,#240] ; [0x189d8] = 0x100000bc
        0x000188e6:    6801        .h      LDR      r1,[r0,#0]
        0x000188e8:    9101        ..      STR      r1,[sp,#4]
        0x000188ea:    201c        .       MOVS     r0,#0x1c
        0x000188ec:    f000fb54    ..T.    BL       am_hal_gpio_pinconfig ; 0x18f98
        0x000188f0:    483a        :H      LDR      r0,[pc,#232] ; [0x189dc] = 0x190a9
        0x000188f2:    f002fc7f    ....    BL       am_util_stdio_printf_init ; 0x1b1f4
        0x000188f6:    b003        ..      ADD      sp,sp,#0xc
        0x000188f8:    4630        0F      MOV      r0,r6
        0x000188fa:    bdf0        ..      POP      {r4-r7,pc}
        0x000188fc:    4938        8I      LDR      r1,[pc,#224] ; [0x189e0] = 0x10000060
        0x000188fe:    2000        .       MOVS     r0,#0
        0x00018900:    f001f87e    ..~.    BL       am_hal_uart_initialize ; 0x19a00
        0x00018904:    2800        .(      CMP      r0,#0
        0x00018906:    d145        E.      BNE      0x18994 ; am_bsp_debug_printf_enable + 276
        0x00018908:    2200        ."      MOVS     r2,#0
        0x0001890a:    4611        .F      MOV      r1,r2
        0x0001890c:    6860        `h      LDR      r0,[r4,#4]
        0x0001890e:    f001f8b7    ....    BL       am_hal_uart_power_control ; 0x19a80
        0x00018912:    2800        .(      CMP      r0,#0
        0x00018914:    d13e        >.      BNE      0x18994 ; am_bsp_debug_printf_enable + 276
        0x00018916:    4933        3I      LDR      r1,[pc,#204] ; [0x189e4] = 0x1e740
        0x00018918:    6860        `h      LDR      r0,[r4,#4]
        0x0001891a:    f000ffa5    ....    BL       am_hal_uart_configure ; 0x19868
        0x0001891e:    2800        .(      CMP      r0,#0
        0x00018920:    d138        8.      BNE      0x18994 ; am_bsp_debug_printf_enable + 276
        0x00018922:    6829        )h      LDR      r1,[r5,#0]
        0x00018924:    9100        ..      STR      r1,[sp,#0]
        0x00018926:    203c        <       MOVS     r0,#0x3c
        0x00018928:    f000fb36    ..6.    BL       am_hal_gpio_pinconfig ; 0x18f98
        0x0001892c:    bb90        ..      CBNZ     r0,0x18994 ; am_bsp_debug_printf_enable + 276
        0x0001892e:    6831        1h      LDR      r1,[r6,#0]
        0x00018930:    9100        ..      STR      r1,[sp,#0]
        0x00018932:    202f        /       MOVS     r0,#0x2f
        0x00018934:    f000fb30    ..0.    BL       am_hal_gpio_pinconfig ; 0x18f98
        0x00018938:    bb60        `.      CBNZ     r0,0x18994 ; am_bsp_debug_printf_enable + 276
        0x0001893a:    2002        .       MOVS     r0,#2
        0x0001893c:    7020         p      STRB     r0,[r4,#0]
        0x0001893e:    482a        *H      LDR      r0,[pc,#168] ; [0x189e8] = 0x18a35
        0x00018940:    f002fc58    ..X.    BL       am_util_stdio_printf_init ; 0x1b1f4
        0x00018944:    e038        8.      B        0x189b8 ; am_bsp_debug_printf_enable + 312
        0x00018946:    4926        &I      LDR      r1,[pc,#152] ; [0x189e0] = 0x10000060
        0x00018948:    2000        .       MOVS     r0,#0
        0x0001894a:    f001f859    ..Y.    BL       am_hal_uart_initialize ; 0x19a00
        0x0001894e:    bb08        ..      CBNZ     r0,0x18994 ; am_bsp_debug_printf_enable + 276
        0x00018950:    2200        ."      MOVS     r2,#0
        0x00018952:    4611        .F      MOV      r1,r2
        0x00018954:    6860        `h      LDR      r0,[r4,#4]
        0x00018956:    f001f893    ....    BL       am_hal_uart_power_control ; 0x19a80
        0x0001895a:    b9d8        ..      CBNZ     r0,0x18994 ; am_bsp_debug_printf_enable + 276
        0x0001895c:    4921        !I      LDR      r1,[pc,#132] ; [0x189e4] = 0x1e740
        0x0001895e:    6860        `h      LDR      r0,[r4,#4]
        0x00018960:    f000ff82    ....    BL       am_hal_uart_configure ; 0x19868
        0x00018964:    b9b0        ..      CBNZ     r0,0x18994 ; am_bsp_debug_printf_enable + 276
        0x00018966:    f44f6080    O..`    MOV      r0,#0x400
        0x0001896a:    4b20         K      LDR      r3,[pc,#128] ; [0x189ec] = 0x10000af4
        0x0001896c:    4602        .F      MOV      r2,r0
        0x0001896e:    9000        ..      STR      r0,[sp,#0]
        0x00018970:    f5a36180    ...a    SUB      r1,r3,#0x400
        0x00018974:    6860        `h      LDR      r0,[r4,#4]
        0x00018976:    f000ff3d    ..=.    BL       am_hal_uart_buffer_configure ; 0x197f4
        0x0001897a:    b958        X.      CBNZ     r0,0x18994 ; am_bsp_debug_printf_enable + 276
        0x0001897c:    6829        )h      LDR      r1,[r5,#0]
        0x0001897e:    9100        ..      STR      r1,[sp,#0]
        0x00018980:    203c        <       MOVS     r0,#0x3c
        0x00018982:    f000fb09    ....    BL       am_hal_gpio_pinconfig ; 0x18f98
        0x00018986:    b928        (.      CBNZ     r0,0x18994 ; am_bsp_debug_printf_enable + 276
        0x00018988:    6831        1h      LDR      r1,[r6,#0]
        0x0001898a:    9100        ..      STR      r1,[sp,#0]
        0x0001898c:    202f        /       MOVS     r0,#0x2f
        0x0001898e:    f000fb03    ....    BL       am_hal_gpio_pinconfig ; 0x18f98
        0x00018992:    b118        ..      CBZ      r0,0x1899c ; am_bsp_debug_printf_enable + 284
        0x00018994:    b003        ..      ADD      sp,sp,#0xc
        0x00018996:    f04f30ff    O..0    MOV      r0,#0xffffffff
        0x0001899a:    bdf0        ..      POP      {r4-r7,pc}
        0x0001899c:    4812        .H      LDR      r0,[pc,#72] ; [0x189e8] = 0x18a35
        0x0001899e:    f002fc29    ..).    BL       am_util_stdio_printf_init ; 0x1b1f4
        0x000189a2:    4913        .I      LDR      r1,[pc,#76] ; [0x189f0] = 0xe000e00f
        0x000189a4:    2080        .       MOVS     r0,#0x80
        0x000189a6:    f8810400    ....    STRB     r0,[r1,#0x400]
        0x000189aa:    f04f21e0    O..!    MOV      r1,#0xe000e000
        0x000189ae:    0200        ..      LSLS     r0,r0,#8
        0x000189b0:    f8c10100    ....    STR      r0,[r1,#0x100]
        0x000189b4:    2003        .       MOVS     r0,#3
        0x000189b6:    7020         p      STRB     r0,[r4,#0]
        0x000189b8:    b003        ..      ADD      sp,sp,#0xc
        0x000189ba:    2000        .       MOVS     r0,#0
        0x000189bc:    bdf0        ..      POP      {r4-r7,pc}
    $d
        0x000189be:    0000        ..      DCW    0
        0x000189c0:    1000005c    \...    DCD    268435548
        0x000189c4:    100000ac    ....    DCD    268435628
        0x000189c8:    100000b0    ....    DCD    268435632
        0x000189cc:    40021000    ...@    DCD    1073876992
        0x000189d0:    400c0a7c    |..@    DCD    1074530940
        0x000189d4:    000f4240    @B..    DCD    1000000
        0x000189d8:    100000bc    ....    DCD    268435644
        0x000189dc:    000190a9    ....    DCD    102569
        0x000189e0:    10000060    `...    DCD    268435552
        0x000189e4:    0001e740    @...    DCD    124736
        0x000189e8:    00018a35    5...    DCD    100917
        0x000189ec:    10000af4    ....    DCD    268438260
        0x000189f0:    e000e00f    ....    DCD    3758153743
    $t
    i.am_bsp_external_vddusb0p9_switch
    am_bsp_external_vddusb0p9_switch
        0x000189f4:    b538        8.      PUSH     {r3-r5,lr}
        0x000189f6:    4604        .F      MOV      r4,r0
        0x000189f8:    4805        .H      LDR      r0,[pc,#20] ; [0x18a10] = 0x100000b8
        0x000189fa:    6801        .h      LDR      r1,[r0,#0]
        0x000189fc:    9100        ..      STR      r1,[sp,#0]
        0x000189fe:    200f        .       MOVS     r0,#0xf
        0x00018a00:    f000faca    ....    BL       am_hal_gpio_pinconfig ; 0x18f98
        0x00018a04:    4621        !F      MOV      r1,r4
        0x00018a06:    e8bd4038    ..8@    POP      {r3-r5,lr}
        0x00018a0a:    200f        .       MOVS     r0,#0xf
        0x00018a0c:    f000baee    ....    B.W      am_hal_gpio_state_write ; 0x18fec
    $d
        0x00018a10:    100000b8    ....    DCD    268435640
    $t
    i.am_bsp_external_vddusb33_switch
    am_bsp_external_vddusb33_switch
        0x00018a14:    b538        8.      PUSH     {r3-r5,lr}
        0x00018a16:    4604        .F      MOV      r4,r0
        0x00018a18:    4805        .H      LDR      r0,[pc,#20] ; [0x18a30] = 0x100000b4
        0x00018a1a:    6801        .h      LDR      r1,[r0,#0]
        0x00018a1c:    9100        ..      STR      r1,[sp,#0]
        0x00018a1e:    200d        .       MOVS     r0,#0xd
        0x00018a20:    f000faba    ....    BL       am_hal_gpio_pinconfig ; 0x18f98
        0x00018a24:    4621        !F      MOV      r1,r4
        0x00018a26:    e8bd4038    ..8@    POP      {r3-r5,lr}
        0x00018a2a:    200d        .       MOVS     r0,#0xd
        0x00018a2c:    f000bade    ....    B.W      am_hal_gpio_state_write ; 0x18fec
    $d
        0x00018a30:    100000b4    ....    DCD    268435636
    $t
    i.am_bsp_uart_string_print
    am_bsp_uart_string_print
        0x00018a34:    b530        0.      PUSH     {r4,r5,lr}
        0x00018a36:    b08b        ..      SUB      sp,sp,#0x2c
        0x00018a38:    2400        .$      MOVS     r4,#0
        0x00018a3a:    9401        ..      STR      r4,[sp,#4]
        0x00018a3c:    7801        .x      LDRB     r1,[r0,#0]
        0x00018a3e:    b119        ..      CBZ      r1,0x18a48 ; am_bsp_uart_string_print + 20
        0x00018a40:    1c64        d.      ADDS     r4,r4,#1
        0x00018a42:    5d01        .]      LDRB     r1,[r0,r4]
        0x00018a44:    2900        .)      CMP      r1,#0
        0x00018a46:    d1fb        ..      BNE      0x18a40 ; am_bsp_uart_string_print + 12
        0x00018a48:    490b        .I      LDR      r1,[pc,#44] ; [0x18a78] = 0x1e740
        0x00018a4a:    68ca        .h      LDR      r2,[r1,#0xc]
        0x00018a4c:    311c        .1      ADDS     r1,r1,#0x1c
        0x00018a4e:    e891102a    ..*.    LDM      r1,{r1,r3,r5,r12}
        0x00018a52:    e9cd2002    ...     STRD     r2,r0,[sp,#8]
        0x00018a56:    aa05        ..      ADD      r2,sp,#0x14
        0x00018a58:    9404        ..      STR      r4,[sp,#0x10]
        0x00018a5a:    a801        ..      ADD      r0,sp,#4
        0x00018a5c:    e882102b    ..+.    STM      r2,{r0,r1,r3,r5,r12}
        0x00018a60:    4806        .H      LDR      r0,[pc,#24] ; [0x18a7c] = 0x1000005c
        0x00018a62:    a902        ..      ADD      r1,sp,#8
        0x00018a64:    6840        @h      LDR      r0,[r0,#4]
        0x00018a66:    f001f87f    ....    BL       am_hal_uart_transfer ; 0x19b68
        0x00018a6a:    9801        ..      LDR      r0,[sp,#4]
        0x00018a6c:    42a0        .B      CMP      r0,r4
        0x00018a6e:    bf04        ..      ITT      EQ
        0x00018a70:    b00b        ..      ADDEQ    sp,sp,#0x2c
        0x00018a72:    bd30        0.      POPEQ    {r4,r5,pc}
        0x00018a74:    e7fe        ..      B        0x18a74 ; am_bsp_uart_string_print + 64
    $d
        0x00018a76:    0000        ..      DCW    0
        0x00018a78:    0001e740    @...    DCD    124736
        0x00018a7c:    1000005c    \...    DCD    268435548
    $t
    i.am_hal_cachectrl_config
    am_hal_cachectrl_config
        0x00018a80:    b538        8.      PUSH     {r3-r5,lr}
        0x00018a82:    4604        .F      MOV      r4,r0
        0x00018a84:    f7fffc58    ..X.    BL       am_hal_interrupt_master_disable ; 0x18338
        0x00018a88:    f04f4590    O..E    MOV      r5,#0x48000000
        0x00018a8c:    9000        ..      STR      r0,[sp,#0]
        0x00018a8e:    6828        (h      LDR      r0,[r5,#0]
        0x00018a90:    f4207040     .@p    BIC      r0,r0,#0x300
        0x00018a94:    6028        (`      STR      r0,[r5,#0]
        0x00018a96:    9800        ..      LDR      r0,[sp,#0]
        0x00018a98:    f7fffc52    ..R.    BL       am_hal_interrupt_master_set ; 0x18340
        0x00018a9c:    78a0        .x      LDRB     r0,[r4,#2]
        0x00018a9e:    2102        .!      MOVS     r1,#2
        0x00018aa0:    ea010040    ..@.    AND      r0,r1,r0,LSL #1
        0x00018aa4:    7821        !x      LDRB     r1,[r4,#0]
        0x00018aa6:    22f0        ."      MOVS     r2,#0xf0
        0x00018aa8:    ea021101    ....    AND      r1,r2,r1,LSL #4
        0x00018aac:    4308        .C      ORRS     r0,r0,r1
        0x00018aae:    7861        ax      LDRB     r1,[r4,#1]
        0x00018ab0:    f44f7240    O.@r    MOV      r2,#0x300
        0x00018ab4:    ea022101    ...!    AND      r1,r2,r1,LSL #8
        0x00018ab8:    4308        .C      ORRS     r0,r0,r1
        0x00018aba:    f4406080    @..`    ORR      r0,r0,#0x400
        0x00018abe:    f4401080    @...    ORR      r0,r0,#0x100000
        0x00018ac2:    6028        (`      STR      r0,[r5,#0]
        0x00018ac4:    2000        .       MOVS     r0,#0
        0x00018ac6:    bd38        8.      POP      {r3-r5,pc}
    i.am_hal_cachectrl_enable
    am_hal_cachectrl_enable
        0x00018ac8:    f04f4090    O..@    MOV      r0,#0x48000000
        0x00018acc:    6801        .h      LDR      r1,[r0,#0]
        0x00018ace:    f0410101    A...    ORR      r1,r1,#1
        0x00018ad2:    6001        .`      STR      r1,[r0,#0]
        0x00018ad4:    6881        .h      LDR      r1,[r0,#8]
        0x00018ad6:    f0410101    A...    ORR      r1,r1,#1
        0x00018ada:    6081        .`      STR      r1,[r0,#8]
        0x00018adc:    2000        .       MOVS     r0,#0
        0x00018ade:    4770        pG      BX       lr
    i.am_hal_clkgen_control
    am_hal_clkgen_control
        0x00018ae0:    e92d41f0    -..A    PUSH     {r4-r8,lr}
        0x00018ae4:    281f        .(      CMP      r0,#0x1f
        0x00018ae6:    d271        q.      BCS      0x18bcc ; am_hal_clkgen_control + 236
        0x00018ae8:    e8dff000    ....    TBB      [pc,r0]
    $d
        0x00018aec:    291e1016    ...)    DCD    689836054
        0x00018af0:    56ce5031    1P.V    DCD    1456361521
        0x00018af4:    d2d2d265    e...    DCD    3537031781
        0x00018af8:    d2d2d2d2    ....    DCD    3537031890
        0x00018afc:    71d2d2d2    ...q    DCD    1909641938
        0x00018b00:    8f867f78    x...    DCD    2407956344
        0x00018b04:    ada69f98    ....    DCD    2913378200
        0x00018b08:    00c6bdb4    ....    DCD    13024692
    $t
        0x00018b0c:    f04f2040    O.@     MOV      r0,#0x40004000
        0x00018b10:    68c1        .h      LDR      r1,[r0,#0xc]
        0x00018b12:    f0410180    A...    ORR      r1,r1,#0x80
        0x00018b16:    e004        ..      B        0x18b22 ; am_hal_clkgen_control + 66
        0x00018b18:    f04f2040    O.@     MOV      r0,#0x40004000
        0x00018b1c:    68c1        .h      LDR      r1,[r0,#0xc]
        0x00018b1e:    f0210180    !...    BIC      r1,r1,#0x80
        0x00018b22:    60c1        .`      STR      r1,[r0,#0xc]
        0x00018b24:    f000b901    ....    B.W      0x18d2a ; am_hal_clkgen_control + 586
        0x00018b28:    2900        .)      CMP      r1,#0
        0x00018b2a:    bf0c        ..      ITE      EQ
        0x00018b2c:    4880        .H      LDREQ    r0,[pc,#512] ; [0x18d30] = 0xa5b801
        0x00018b2e:    6808        .h      LDRNE    r0,[r1,#0]
        0x00018b30:    f0400001    @...    ORR      r0,r0,#1
        0x00018b34:    f04f2140    O.@!    MOV      r1,#0x40004000
        0x00018b38:    6208        .b      STR      r0,[r1,#0x20]
        0x00018b3a:    f000b8f6    ....    B.W      0x18d2a ; am_hal_clkgen_control + 586
        0x00018b3e:    f04f2040    O.@     MOV      r0,#0x40004000
        0x00018b42:    6a01        .j      LDR      r1,[r0,#0x20]
        0x00018b44:    f0210101    !...    BIC      r1,r1,#1
        0x00018b48:    6201        .b      STR      r1,[r0,#0x20]
        0x00018b4a:    f000b8ee    ....    B.W      0x18d2a ; am_hal_clkgen_control + 586
        0x00018b4e:    f04f2040    O.@     MOV      r0,#0x40004000
        0x00018b52:    6c82        .l      LDR      r2,[r0,#0x48]
        0x00018b54:    f0220201    "...    BIC      r2,r2,#1
        0x00018b58:    6482        .d      STR      r2,[r0,#0x48]
        0x00018b5a:    6cc2        .l      LDR      r2,[r0,#0x4c]
        0x00018b5c:    f0420207    B...    ORR      r2,r2,#7
        0x00018b60:    64c2        .d      STR      r2,[r0,#0x4c]
        0x00018b62:    6d02        .m      LDR      r2,[r0,#0x50]
        0x00018b64:    f0220203    "...    BIC      r2,r2,#3
        0x00018b68:    1c92        ..      ADDS     r2,r2,#2
        0x00018b6a:    6502        .e      STR      r2,[r0,#0x50]
        0x00018b6c:    2900        .)      CMP      r1,#0
        0x00018b6e:    bf1b        ..      ITTET    NE
        0x00018b70:    6809        .h      LDRNE    r1,[r1,#0]
        0x00018b72:    2900        .)      CMPNE    r1,#0
        0x00018b74:    4a6f        oJ      LDREQ    r2,[pc,#444] ; [0x18d34] = 0x189374
        0x00018b76:    f44f1200    O...    MOVNE    r2,#0x200000
        0x00018b7a:    6d01        .m      LDR      r1,[r0,#0x50]
        0x00018b7c:    f362019e    b...    BFI      r1,r2,#2,#29
        0x00018b80:    6501        .e      STR      r1,[r0,#0x50]
        0x00018b82:    6c81        .l      LDR      r1,[r0,#0x48]
        0x00018b84:    f0410101    A...    ORR      r1,r1,#1
        0x00018b88:    6481        .d      STR      r1,[r0,#0x48]
        0x00018b8a:    e0ce        ..      B        0x18d2a ; am_hal_clkgen_control + 586
        0x00018b8c:    f04f2040    O.@     MOV      r0,#0x40004000
        0x00018b90:    6c81        .l      LDR      r1,[r0,#0x48]
        0x00018b92:    f0210101    !...    BIC      r1,r1,#1
        0x00018b96:    e7f7        ..      B        0x18b88 ; am_hal_clkgen_control + 168
        0x00018b98:    f04f2040    O.@     MOV      r0,#0x40004000
        0x00018b9c:    6c41        Al      LDR      r1,[r0,#0x44]
        0x00018b9e:    f0110f20    .. .    TST      r1,#0x20
        0x00018ba2:    d170        p.      BNE      0x18c86 ; am_hal_clkgen_control + 422
        0x00018ba4:    6c41        Al      LDR      r1,[r0,#0x44]
        0x00018ba6:    f0410120    A. .    ORR      r1,r1,#0x20
        0x00018baa:    6441        Ad      STR      r1,[r0,#0x44]
        0x00018bac:    f04f000a    O...    MOV      r0,#0xa
        0x00018bb0:    f000f97e    ..~.    BL       am_hal_delay_us ; 0x18eb0
        0x00018bb4:    e0b9        ..      B        0x18d2a ; am_hal_clkgen_control + 586
        0x00018bb6:    f04f2040    O.@     MOV      r0,#0x40004000
        0x00018bba:    6c41        Al      LDR      r1,[r0,#0x44]
        0x00018bbc:    f0110f20    .. .    TST      r1,#0x20
        0x00018bc0:    d061        a.      BEQ      0x18c86 ; am_hal_clkgen_control + 422
        0x00018bc2:    6c41        Al      LDR      r1,[r0,#0x44]
        0x00018bc4:    f0210120    !. .    BIC      r1,r1,#0x20
        0x00018bc8:    6441        Ad      STR      r1,[r0,#0x44]
        0x00018bca:    e0ae        ..      B        0x18d2a ; am_hal_clkgen_control + 586
        0x00018bcc:    e060        `.      B        0x18c90 ; am_hal_clkgen_control + 432
        0x00018bce:    f04f2040    O.@     MOV      r0,#0x40004000
        0x00018bd2:    f8501f84    P...    LDR      r1,[r0,#0x84]!
        0x00018bd6:    f0410180    A...    ORR      r1,r1,#0x80
        0x00018bda:    e053        S.      B        0x18c84 ; am_hal_clkgen_control + 420
        0x00018bdc:    f04f2040    O.@     MOV      r0,#0x40004000
        0x00018be0:    f8501f84    P...    LDR      r1,[r0,#0x84]!
        0x00018be4:    f0210180    !...    BIC      r1,r1,#0x80
        0x00018be8:    e04c        L.      B        0x18c84 ; am_hal_clkgen_control + 420
        0x00018bea:    f04f2040    O.@     MOV      r0,#0x40004000
        0x00018bee:    f8501f84    P...    LDR      r1,[r0,#0x84]!
        0x00018bf2:    f0210130    !.0.    BIC      r1,r1,#0x30
        0x00018bf6:    e045        E.      B        0x18c84 ; am_hal_clkgen_control + 420
        0x00018bf8:    f04f2040    O.@     MOV      r0,#0x40004000
        0x00018bfc:    f8501f84    P...    LDR      r1,[r0,#0x84]!
        0x00018c00:    f0210130    !.0.    BIC      r1,r1,#0x30
        0x00018c04:    f1010110    ....    ADD      r1,r1,#0x10
        0x00018c08:    e03c        <.      B        0x18c84 ; am_hal_clkgen_control + 420
        0x00018c0a:    f04f2040    O.@     MOV      r0,#0x40004000
        0x00018c0e:    f8501f84    P...    LDR      r1,[r0,#0x84]!
        0x00018c12:    f0210130    !.0.    BIC      r1,r1,#0x30
        0x00018c16:    f1010120    .. .    ADD      r1,r1,#0x20
        0x00018c1a:    e033        3.      B        0x18c84 ; am_hal_clkgen_control + 420
        0x00018c1c:    f04f2040    O.@     MOV      r0,#0x40004000
        0x00018c20:    f8501f84    P...    LDR      r1,[r0,#0x84]!
        0x00018c24:    f0410130    A.0.    ORR      r1,r1,#0x30
        0x00018c28:    e02c        ,.      B        0x18c84 ; am_hal_clkgen_control + 420
        0x00018c2a:    f04f2040    O.@     MOV      r0,#0x40004000
        0x00018c2e:    f8501f84    P...    LDR      r1,[r0,#0x84]!
        0x00018c32:    f0410108    A...    ORR      r1,r1,#8
        0x00018c36:    e025        %.      B        0x18c84 ; am_hal_clkgen_control + 420
        0x00018c38:    f04f2040    O.@     MOV      r0,#0x40004000
        0x00018c3c:    f8501f84    P...    LDR      r1,[r0,#0x84]!
        0x00018c40:    f0210108    !...    BIC      r1,r1,#8
        0x00018c44:    e01e        ..      B        0x18c84 ; am_hal_clkgen_control + 420
        0x00018c46:    f04f2040    O.@     MOV      r0,#0x40004000
        0x00018c4a:    f8501f84    P...    LDR      r1,[r0,#0x84]!
        0x00018c4e:    f0210103    !...    BIC      r1,r1,#3
        0x00018c52:    e017        ..      B        0x18c84 ; am_hal_clkgen_control + 420
        0x00018c54:    f04f2040    O.@     MOV      r0,#0x40004000
        0x00018c58:    f8501f84    P...    LDR      r1,[r0,#0x84]!
        0x00018c5c:    f0210103    !...    BIC      r1,r1,#3
        0x00018c60:    f1010101    ....    ADD      r1,r1,#1
        0x00018c64:    e00e        ..      B        0x18c84 ; am_hal_clkgen_control + 420
        0x00018c66:    f04f2040    O.@     MOV      r0,#0x40004000
        0x00018c6a:    f8501f84    P...    LDR      r1,[r0,#0x84]!
        0x00018c6e:    f0210103    !...    BIC      r1,r1,#3
        0x00018c72:    f1010102    ....    ADD      r1,r1,#2
        0x00018c76:    e005        ..      B        0x18c84 ; am_hal_clkgen_control + 420
        0x00018c78:    f04f2040    O.@     MOV      r0,#0x40004000
        0x00018c7c:    f8501f84    P...    LDR      r1,[r0,#0x84]!
        0x00018c80:    f0410103    A...    ORR      r1,r1,#3
        0x00018c84:    6001        .`      STR      r1,[r0,#0]
        0x00018c86:    e050        P.      B        0x18d2a ; am_hal_clkgen_control + 586
        0x00018c88:    b111        ..      CBZ      r1,0x18c90 ; am_hal_clkgen_control + 432
        0x00018c8a:    6808        .h      LDR      r0,[r1,#0]
        0x00018c8c:    2801        .(      CMP      r0,#1
        0x00018c8e:    d002        ..      BEQ      0x18c96 ; am_hal_clkgen_control + 438
        0x00018c90:    2006        .       MOVS     r0,#6
        0x00018c92:    e8bd81f0    ....    POP      {r4-r8,pc}
        0x00018c96:    f04f2440    O.@$    MOV      r4,#0x40004000
        0x00018c9a:    6a20         j      LDR      r0,[r4,#0x20]
        0x00018c9c:    f0200001     ...    BIC      r0,r0,#1
        0x00018ca0:    6220         b      STR      r0,[r4,#0x20]
        0x00018ca2:    6ce0        .l      LDR      r0,[r4,#0x4c]
        0x00018ca4:    f0400007    @...    ORR      r0,r0,#7
        0x00018ca8:    64e0        .d      STR      r0,[r4,#0x4c]
        0x00018caa:    684a        Jh      LDR      r2,[r1,#4]
        0x00018cac:    4b22        "K      LDR      r3,[pc,#136] ; [0x18d38] = 0xb71b00
        0x00018cae:    1e50        P.      SUBS     r0,r2,#1
        0x00018cb0:    fbb0f0f3    ....    UDIV     r0,r0,r3
        0x00018cb4:    2804        .(      CMP      r0,#4
        0x00018cb6:    bf3c        <.      ITT      CC
        0x00018cb8:    2004        .       MOVCC    r0,#4
        0x00018cba:    2302        .#      MOVCC    r3,#2
        0x00018cbc:    d304        ..      BCC      0x18cc8 ; am_hal_clkgen_control + 488
        0x00018cbe:    2808        .(      CMP      r0,#8
        0x00018cc0:    bf3c        <.      ITT      CC
        0x00018cc2:    2008        .       MOVCC    r0,#8
        0x00018cc4:    2303        .#      MOVCC    r3,#3
        0x00018cc6:    d225        %.      BCS      0x18d14 ; am_hal_clkgen_control + 564
        0x00018cc8:    f8d4c050    ..P.    LDR      r12,[r4,#0x50]
        0x00018ccc:    f3630c01    c...    BFI      r12,r3,#0,#2
        0x00018cd0:    f8c4c050    ..P.    STR      r12,[r4,#0x50]
        0x00018cd4:    688d        .h      LDR      r5,[r1,#8]
        0x00018cd6:    f44f2300    O..#    MOV      r3,#0x80000
        0x00018cda:    fba56703    ...g    UMULL    r6,r7,r5,r3
        0x00018cde:    f04f0c00    O...    MOV      r12,#0
        0x00018ce2:    fb0c7303    ...s    MLA      r3,r12,r3,r7
        0x00018ce6:    fb05330c    ...3    MLA      r3,r5,r12,r3
        0x00018cea:    4661        aF      MOV      r1,r12
        0x00018cec:    fba6c500    ....    UMULL    r12,r5,r6,r0
        0x00018cf0:    fb035000    ...P    MLA      r0,r3,r0,r5
        0x00018cf4:    fb060301    ....    MLA      r3,r6,r1,r0
        0x00018cf8:    0850        P.      LSRS     r0,r2,#1
        0x00018cfa:    eb10000c    ....    ADDS     r0,r0,r12
        0x00018cfe:    4159        YA      ADCS     r1,r1,r3
        0x00018d00:    2300        .#      MOVS     r3,#0
        0x00018d02:    f7fffb2d    ..-.    BL       __aeabi_uldivmod ; 0x18360
        0x00018d06:    f06f4260    o.`B    MVN      r2,#0xe0000000
        0x00018d0a:    2300        .#      MOVS     r3,#0
        0x00018d0c:    1a12        ..      SUBS     r2,r2,r0
        0x00018d0e:    eb730101    s...    SBCS     r1,r3,r1
        0x00018d12:    d202        ..      BCS      0x18d1a ; am_hal_clkgen_control + 570
        0x00018d14:    2005        .       MOVS     r0,#5
        0x00018d16:    e8bd81f0    ....    POP      {r4-r8,pc}
        0x00018d1a:    6d21        !m      LDR      r1,[r4,#0x50]
        0x00018d1c:    f360019e    `...    BFI      r1,r0,#2,#29
        0x00018d20:    6521        !e      STR      r1,[r4,#0x50]
        0x00018d22:    6ca0        .l      LDR      r0,[r4,#0x48]
        0x00018d24:    f0400001    @...    ORR      r0,r0,#1
        0x00018d28:    64a0        .d      STR      r0,[r4,#0x48]
        0x00018d2a:    2000        .       MOVS     r0,#0
        0x00018d2c:    e8bd81f0    ....    POP      {r4-r8,pc}
    $d
        0x00018d30:    00a5b801    ....    DCD    10860545
        0x00018d34:    00189374    t...    DCD    1610612
        0x00018d38:    00b71b00    ....    DCD    12000000
    $t
    i.am_hal_dcu_get
    am_hal_dcu_get
        0x00018d3c:    e92d43f0    -..C    PUSH     {r4-r9,lr}
        0x00018d40:    4680        .F      MOV      r8,r0
        0x00018d42:    481f        .H      LDR      r0,[pc,#124] ; [0x18dc0] = 0x40021000
        0x00018d44:    b083        ..      SUB      sp,sp,#0xc
        0x00018d46:    6880        .h      LDR      r0,[r0,#8]
        0x00018d48:    f4101f80    ....    TST      r0,#0x100000
        0x00018d4c:    d023        #.      BEQ      0x18d96 ; am_hal_dcu_get + 90
        0x00018d4e:    481d        .H      LDR      r0,[pc,#116] ; [0x18dc4] = 0x400c0a7c
        0x00018d50:    6800        .h      LDR      r0,[r0,#0]
        0x00018d52:    f0100f01    ....    TST      r0,#1
        0x00018d56:    d01e        ..      BEQ      0x18d96 ; am_hal_dcu_get + 90
        0x00018d58:    f8df906c    ..l.    LDR      r9,[pc,#108] ; [0x18dc8] = 0x100000c0
        0x00018d5c:    4668        hF      MOV      r0,sp
        0x00018d5e:    2202        ."      MOVS     r2,#2
        0x00018d60:    f8d91004    ....    LDR      r1,[r9,#4]
        0x00018d64:    f002fcc2    ....    BL       copy_words ; 0x1b6ec
        0x00018d68:    e9dd0100    ....    LDRD     r0,r1,[sp,#0]
        0x00018d6c:    2400        .$      MOVS     r4,#0
        0x00018d6e:    4627        'F      MOV      r7,r4
        0x00018d70:    2605        .&      MOVS     r6,#5
        0x00018d72:    4625        %F      MOV      r5,r4
        0x00018d74:    f8d92000    ...     LDR      r2,[r9,#0]
        0x00018d78:    f7fffb7c    ..|.    BL       __aeabi_llsr ; 0x18474
        0x00018d7c:    2214        ."      MOVS     r2,#0x14
        0x00018d7e:    f04f0c01    O...    MOV      r12,#1
        0x00018d82:    bf00        ..      NOP      
        0x00018d84:    f0000307    ....    AND      r3,r0,#7
        0x00018d88:    4073        s@      EORS     r3,r3,r6
        0x00018d8a:    ea840904    ....    EOR      r9,r4,r4
        0x00018d8e:    ea530309    S...    ORRS     r3,r3,r9
        0x00018d92:    d109        ..      BNE      0x18da8 ; am_hal_dcu_get + 108
        0x00018d94:    e003        ..      B        0x18d9e ; am_hal_dcu_get + 98
        0x00018d96:    b003        ..      ADD      sp,sp,#0xc
        0x00018d98:    2007        .       MOVS     r0,#7
        0x00018d9a:    e8bd83f0    ....    POP      {r4-r9,pc}
        0x00018d9e:    f1c20314    ....    RSB      r3,r2,#0x14
        0x00018da2:    fa0cf303    ....    LSL      r3,r12,r3
        0x00018da6:    431d        .C      ORRS     r5,r5,r3
        0x00018da8:    08c0        ..      LSRS     r0,r0,#3
        0x00018daa:    ea407041    @.Ap    ORR      r0,r0,r1,LSL #29
        0x00018dae:    08c9        ..      LSRS     r1,r1,#3
        0x00018db0:    1e52        R.      SUBS     r2,r2,#1
        0x00018db2:    d1e7        ..      BNE      0x18d84 ; am_hal_dcu_get + 72
        0x00018db4:    f8c85000    ...P    STR      r5,[r8,#0]
        0x00018db8:    b003        ..      ADD      sp,sp,#0xc
        0x00018dba:    4638        8F      MOV      r0,r7
        0x00018dbc:    e8bd83f0    ....    POP      {r4-r9,pc}
    $d
        0x00018dc0:    40021000    ...@    DCD    1073876992
        0x00018dc4:    400c0a7c    |..@    DCD    1074530940
        0x00018dc8:    100000c0    ....    DCD    268435648
    $t
    i.am_hal_dcu_update
    am_hal_dcu_update
        0x00018dcc:    e92d4ff0    -..O    PUSH     {r4-r11,lr}
        0x00018dd0:    4681        .F      MOV      r9,r0
        0x00018dd2:    4834        4H      LDR      r0,[pc,#208] ; [0x18ea4] = 0x40021000
        0x00018dd4:    b085        ..      SUB      sp,sp,#0x14
        0x00018dd6:    6880        .h      LDR      r0,[r0,#8]
        0x00018dd8:    f4101f80    ....    TST      r0,#0x100000
        0x00018ddc:    d02a        *.      BEQ      0x18e34 ; am_hal_dcu_update + 104
        0x00018dde:    f8dfa0c8    ....    LDR      r10,[pc,#200] ; [0x18ea8] = 0x400c0a7c
        0x00018de2:    f8da0000    ....    LDR      r0,[r10,#0]
        0x00018de6:    f0100f01    ....    TST      r0,#1
        0x00018dea:    d023        #.      BEQ      0x18e34 ; am_hal_dcu_update + 104
        0x00018dec:    f8df80bc    ....    LDR      r8,[pc,#188] ; [0x18eac] = 0x100000c0
        0x00018df0:    2700        .'      MOVS     r7,#0
        0x00018df2:    084d        M.      LSRS     r5,r1,#1
        0x00018df4:    f8d8b000    ....    LDR      r11,[r8,#0]
        0x00018df8:    463e        >F      MOV      r6,r7
        0x00018dfa:    2414        .$      MOVS     r4,#0x14
        0x00018dfc:    f0150f01    ....    TST      r5,#1
        0x00018e00:    d006        ..      BEQ      0x18e10 ; am_hal_dcu_update + 68
        0x00018e02:    465a        ZF      MOV      r2,r11
        0x00018e04:    2007        .       MOVS     r0,#7
        0x00018e06:    2100        .!      MOVS     r1,#0
        0x00018e08:    f7fffb21    ..!.    BL       __aeabi_llsl ; 0x1844e
        0x00018e0c:    4307        .C      ORRS     r7,r7,r0
        0x00018e0e:    430e        .C      ORRS     r6,r6,r1
        0x00018e10:    086d        m.      LSRS     r5,r5,#1
        0x00018e12:    1e64        d.      SUBS     r4,r4,#1
        0x00018e14:    f10b0b03    ....    ADD      r11,r11,#3
        0x00018e18:    2c00        .,      CMP      r4,#0
        0x00018e1a:    dcef        ..      BGT      0x18dfc ; am_hal_dcu_update + 48
        0x00018e1c:    2202        ."      MOVS     r2,#2
        0x00018e1e:    a802        ..      ADD      r0,sp,#8
        0x00018e20:    f8d81008    ....    LDR      r1,[r8,#8]
        0x00018e24:    f002fc62    ..b.    BL       copy_words ; 0x1b6ec
        0x00018e28:    e9dd1002    ....    LDRD     r1,r0,[sp,#8]
        0x00018e2c:    4039        9@      ANDS     r1,r1,r7
        0x00018e2e:    4030        0@      ANDS     r0,r0,r6
        0x00018e30:    4308        .C      ORRS     r0,r0,r1
        0x00018e32:    d003        ..      BEQ      0x18e3c ; am_hal_dcu_update + 112
        0x00018e34:    b005        ..      ADD      sp,sp,#0x14
        0x00018e36:    2007        .       MOVS     r0,#7
        0x00018e38:    e8bd8ff0    ....    POP      {r4-r11,pc}
        0x00018e3c:    2202        ."      MOVS     r2,#2
        0x00018e3e:    4668        hF      MOV      r0,sp
        0x00018e40:    f8d81004    ....    LDR      r1,[r8,#4]
        0x00018e44:    f002fc52    ..R.    BL       copy_words ; 0x1b6ec
        0x00018e48:    f1b90f00    ....    CMP      r9,#0
        0x00018e4c:    d00d        ..      BEQ      0x18e6a ; am_hal_dcu_update + 158
        0x00018e4e:    e9dd1000    ....    LDRD     r1,r0,[sp,#0]
        0x00018e52:    ea210207    !...    BIC      r2,r1,r7
        0x00018e56:    e9d83104    ...1    LDRD     r3,r1,[r8,#0x10]
        0x00018e5a:    403b        ;@      ANDS     r3,r3,r7
        0x00018e5c:    43b0        .C      BICS     r0,r0,r6
        0x00018e5e:    4031        1@      ANDS     r1,r1,r6
        0x00018e60:    431a        .C      ORRS     r2,r2,r3
        0x00018e62:    4308        .C      ORRS     r0,r0,r1
        0x00018e64:    e9cd2000    ...     STRD     r2,r0,[sp,#0]
        0x00018e68:    e00c        ..      B        0x18e84 ; am_hal_dcu_update + 184
        0x00018e6a:    e9dd0100    ....    LDRD     r0,r1,[sp,#0]
        0x00018e6e:    ea210206    !...    BIC      r2,r1,r6
        0x00018e72:    e9d83106    ...1    LDRD     r3,r1,[r8,#0x18]
        0x00018e76:    43b8        .C      BICS     r0,r0,r7
        0x00018e78:    403b        ;@      ANDS     r3,r3,r7
        0x00018e7a:    4031        1@      ANDS     r1,r1,r6
        0x00018e7c:    4318        .C      ORRS     r0,r0,r3
        0x00018e7e:    4311        .C      ORRS     r1,r1,r2
        0x00018e80:    e9cd0100    ....    STRD     r0,r1,[sp,#0]
        0x00018e84:    2202        ."      MOVS     r2,#2
        0x00018e86:    4669        iF      MOV      r1,sp
        0x00018e88:    f8d80004    ....    LDR      r0,[r8,#4]
        0x00018e8c:    f002fc2e    ....    BL       copy_words ; 0x1b6ec
        0x00018e90:    f8da0000    ....    LDR      r0,[r10,#0]
        0x00018e94:    f0100f01    ....    TST      r0,#1
        0x00018e98:    d0fa        ..      BEQ      0x18e90 ; am_hal_dcu_update + 196
        0x00018e9a:    b005        ..      ADD      sp,sp,#0x14
        0x00018e9c:    2000        .       MOVS     r0,#0
        0x00018e9e:    e8bd8ff0    ....    POP      {r4-r11,pc}
    $d
        0x00018ea2:    0000        ..      DCW    0
        0x00018ea4:    40021000    ...@    DCD    1073876992
        0x00018ea8:    400c0a7c    |..@    DCD    1074530940
        0x00018eac:    100000c0    ....    DCD    268435648
    $t
    i.am_hal_delay_us
    am_hal_delay_us
        0x00018eb0:    4908        .I      LDR      r1,[pc,#32] ; [0x18ed4] = 0x40021000
        0x00018eb2:    0140        @.      LSLS     r0,r0,#5
        0x00018eb4:    6809        .h      LDR      r1,[r1,#0]
        0x00018eb6:    f3c101c1    ....    UBFX     r1,r1,#3,#2
        0x00018eba:    2902        .)      CMP      r1,#2
        0x00018ebc:    bf06        ..      ITTE     EQ
        0x00018ebe:    0040        @.      LSLEQ    r0,r0,#1
        0x00018ec0:    2115        .!      MOVEQ    r1,#0x15
        0x00018ec2:    210f        .!      MOVNE    r1,#0xf
        0x00018ec4:    4288        .B      CMP      r0,r1
        0x00018ec6:    bf98        ..      IT       LS
        0x00018ec8:    4770        pG      BXLS     lr
        0x00018eca:    1a40        @.      SUBS     r0,r0,r1
        0x00018ecc:    4902        .I      LDR      r1,[pc,#8] ; [0x18ed8] = 0x1e790
        0x00018ece:    6a49        Ij      LDR      r1,[r1,#0x24]
        0x00018ed0:    4708        .G      BX       r1
    $d
        0x00018ed2:    0000        ..      DCW    0
        0x00018ed4:    40021000    ...@    DCD    1073876992
        0x00018ed8:    0001e790    ....    DCD    124816
    $t
    i.am_hal_delay_us_status_change
    am_hal_delay_us_status_change
        0x00018edc:    e92d47f0    -..G    PUSH     {r4-r10,lr}
        0x00018ee0:    f8df8048    ..H.    LDR      r8,[pc,#72] ; [0x18f2c] = 0x40021000
        0x00018ee4:    f8df9048    ..H.    LDR      r9,[pc,#72] ; [0x18f30] = 0x1e790
        0x00018ee8:    461d        .F      MOV      r5,r3
        0x00018eea:    4616        .F      MOV      r6,r2
        0x00018eec:    460f        .F      MOV      r7,r1
        0x00018eee:    4604        .F      MOV      r4,r0
        0x00018ef0:    6838        8h      LDR      r0,[r7,#0]
        0x00018ef2:    4030        0@      ANDS     r0,r0,r6
        0x00018ef4:    42a8        .B      CMP      r0,r5
        0x00018ef6:    d102        ..      BNE      0x18efe ; am_hal_delay_us_status_change + 34
        0x00018ef8:    2000        .       MOVS     r0,#0
        0x00018efa:    e8bd87f0    ....    POP      {r4-r10,pc}
        0x00018efe:    1e64        d.      SUBS     r4,r4,#1
        0x00018f00:    d311        ..      BCC      0x18f26 ; am_hal_delay_us_status_change + 74
        0x00018f02:    f8d81000    ....    LDR      r1,[r8,#0]
        0x00018f06:    2020                MOVS     r0,#0x20
        0x00018f08:    f3c101c1    ....    UBFX     r1,r1,#3,#2
        0x00018f0c:    2902        .)      CMP      r1,#2
        0x00018f0e:    bf06        ..      ITTE     EQ
        0x00018f10:    2040        @       MOVEQ    r0,#0x40
        0x00018f12:    f04f0c15    O...    MOVEQ    r12,#0x15
        0x00018f16:    f04f0c0f    O...    MOVNE    r12,#0xf
        0x00018f1a:    eba0000c    ....    SUB      r0,r0,r12
        0x00018f1e:    f8d91024    ..$.    LDR      r1,[r9,#0x24]
        0x00018f22:    4788        .G      BLX      r1
        0x00018f24:    e7e4        ..      B        0x18ef0 ; am_hal_delay_us_status_change + 20
        0x00018f26:    2004        .       MOVS     r0,#4
        0x00018f28:    e8bd87f0    ....    POP      {r4-r10,pc}
    $d
        0x00018f2c:    40021000    ...@    DCD    1073876992
        0x00018f30:    0001e790    ....    DCD    124816
    $t
    i.am_hal_delay_us_status_check
    am_hal_delay_us_status_check
        0x00018f34:    e92d47f0    -..G    PUSH     {r4-r10,lr}
        0x00018f38:    f8df9054    ..T.    LDR      r9,[pc,#84] ; [0x18f90] = 0x40021000
        0x00018f3c:    f8dfa054    ..T.    LDR      r10,[pc,#84] ; [0x18f94] = 0x1e790
        0x00018f40:    f8dd8020    .. .    LDR      r8,[sp,#0x20]
        0x00018f44:    461c        .F      MOV      r4,r3
        0x00018f46:    4615        .F      MOV      r5,r2
        0x00018f48:    460e        .F      MOV      r6,r1
        0x00018f4a:    4607        .F      MOV      r7,r0
        0x00018f4c:    6830        0h      LDR      r0,[r6,#0]
        0x00018f4e:    f1b80f00    ....    CMP      r8,#0
        0x00018f52:    ea000005    ....    AND      r0,r0,r5
        0x00018f56:    d002        ..      BEQ      0x18f5e ; am_hal_delay_us_status_check + 42
        0x00018f58:    42a0        .B      CMP      r0,r4
        0x00018f5a:    d002        ..      BEQ      0x18f62 ; am_hal_delay_us_status_check + 46
        0x00018f5c:    e004        ..      B        0x18f68 ; am_hal_delay_us_status_check + 52
        0x00018f5e:    42a0        .B      CMP      r0,r4
        0x00018f60:    d002        ..      BEQ      0x18f68 ; am_hal_delay_us_status_check + 52
        0x00018f62:    2000        .       MOVS     r0,#0
        0x00018f64:    e8bd87f0    ....    POP      {r4-r10,pc}
        0x00018f68:    1e7f        ..      SUBS     r7,r7,#1
        0x00018f6a:    d30e        ..      BCC      0x18f8a ; am_hal_delay_us_status_check + 86
        0x00018f6c:    f8d91000    ....    LDR      r1,[r9,#0]
        0x00018f70:    2020                MOVS     r0,#0x20
        0x00018f72:    f3c101c1    ....    UBFX     r1,r1,#3,#2
        0x00018f76:    2902        .)      CMP      r1,#2
        0x00018f78:    bf06        ..      ITTE     EQ
        0x00018f7a:    2040        @       MOVEQ    r0,#0x40
        0x00018f7c:    2115        .!      MOVEQ    r1,#0x15
        0x00018f7e:    210f        .!      MOVNE    r1,#0xf
        0x00018f80:    1a40        @.      SUBS     r0,r0,r1
        0x00018f82:    f8da1024    ..$.    LDR      r1,[r10,#0x24]
        0x00018f86:    4788        .G      BLX      r1
        0x00018f88:    e7e0        ..      B        0x18f4c ; am_hal_delay_us_status_check + 24
        0x00018f8a:    2004        .       MOVS     r0,#4
        0x00018f8c:    e8bd87f0    ....    POP      {r4-r10,pc}
    $d
        0x00018f90:    40021000    ...@    DCD    1073876992
        0x00018f94:    0001e790    ....    DCD    124816
    $t
    i.am_hal_gpio_pinconfig
    am_hal_gpio_pinconfig
        0x00018f98:    b403        ..      PUSH     {r0,r1}
        0x00018f9a:    4912        .I      LDR      r1,[pc,#72] ; [0x18fe4] = 0x40010000
        0x00018f9c:    2880        .(      CMP      r0,#0x80
        0x00018f9e:    bf22        ".      ITTT     CS
        0x00018fa0:    2005        .       MOVCS    r0,#5
        0x00018fa2:    b002        ..      ADDCS    sp,sp,#8
        0x00018fa4:    4770        pG      BXCS     lr
        0x00018fa6:    9a01        ..      LDR      r2,[sp,#4]
        0x00018fa8:    f3c22281    ..."    UBFX     r2,r2,#10,#2
        0x00018fac:    2a01        .*      CMP      r2,#1
        0x00018fae:    d90e        ..      BLS      0x18fce ; am_hal_gpio_pinconfig + 54
        0x00018fb0:    4b0d        .K      LDR      r3,[pc,#52] ; [0x18fe8] = 0x1e7b8
        0x00018fb2:    0942        B.      LSRS     r2,r0,#5
        0x00018fb4:    f04f0c01    O...    MOV      r12,#1
        0x00018fb8:    f8532022    S."     LDR      r2,[r3,r2,LSL #2]
        0x00018fbc:    f000031f    ....    AND      r3,r0,#0x1f
        0x00018fc0:    fa0cf303    ....    LSL      r3,r12,r3
        0x00018fc4:    421a        .B      TST      r2,r3
        0x00018fc6:    bf02        ..      ITTT     EQ
        0x00018fc8:    2007        .       MOVEQ    r0,#7
        0x00018fca:    b002        ..      ADDEQ    sp,sp,#8
        0x00018fcc:    4770        pG      BXEQ     lr
        0x00018fce:    2273        s"      MOVS     r2,#0x73
        0x00018fd0:    f8c12200    ..."    STR      r2,[r1,#0x200]
        0x00018fd4:    9a01        ..      LDR      r2,[sp,#4]
        0x00018fd6:    f8412020    A.      STR      r2,[r1,r0,LSL #2]
        0x00018fda:    2000        .       MOVS     r0,#0
        0x00018fdc:    f8c10200    ....    STR      r0,[r1,#0x200]
        0x00018fe0:    b002        ..      ADD      sp,sp,#8
        0x00018fe2:    4770        pG      BX       lr
    $d
        0x00018fe4:    40010000    ...@    DCD    1073807360
        0x00018fe8:    0001e7b8    ....    DCD    124856
    $t
    i.am_hal_gpio_state_write
    am_hal_gpio_state_write
        0x00018fec:    b538        8.      PUSH     {r3-r5,lr}
        0x00018fee:    f000021f    ....    AND      r2,r0,#0x1f
        0x00018ff2:    2301        .#      MOVS     r3,#1
        0x00018ff4:    fa03f502    ....    LSL      r5,r3,r2
        0x00018ff8:    f3c01041    ..A.    UBFX     r0,r0,#5,#2
        0x00018ffc:    0080        ..      LSLS     r0,r0,#2
        0x00018ffe:    f1004480    ...D    ADD      r4,r0,#0x40000000
        0x00019002:    f5043480    ...4    ADD      r4,r4,#0x10000
        0x00019006:    2906        .)      CMP      r1,#6
        0x00019008:    d227        '.      BCS      0x1905a ; am_hal_gpio_state_write + 110
        0x0001900a:    e8dff001    ....    TBB      [pc,r1]
    $d
        0x0001900e:    0603        ..      DCW    1539
        0x00019010:    1b181509    ....    DCD    454563081
    $t
        0x00019014:    f8c45234    ..4R    STR      r5,[r4,#0x234]
        0x00019018:    e01f        ..      B        0x1905a ; am_hal_gpio_state_write + 110
        0x0001901a:    f8c45224    ..$R    STR      r5,[r4,#0x224]
        0x0001901e:    e01c        ..      B        0x1905a ; am_hal_gpio_state_write + 110
        0x00019020:    f7fff98a    ....    BL       am_hal_interrupt_master_disable ; 0x18338
        0x00019024:    9000        ..      STR      r0,[sp,#0]
        0x00019026:    f8d40214    ....    LDR      r0,[r4,#0x214]
        0x0001902a:    4068        h@      EORS     r0,r0,r5
        0x0001902c:    f8c40214    ....    STR      r0,[r4,#0x214]
        0x00019030:    9800        ..      LDR      r0,[sp,#0]
        0x00019032:    f7fff985    ....    BL       am_hal_interrupt_master_set ; 0x18340
        0x00019036:    e010        ..      B        0x1905a ; am_hal_gpio_state_write + 110
        0x00019038:    f8c45264    ..dR    STR      r5,[r4,#0x264]
        0x0001903c:    e00d        ..      B        0x1905a ; am_hal_gpio_state_write + 110
        0x0001903e:    f8c45254    ..TR    STR      r5,[r4,#0x254]
        0x00019042:    e00a        ..      B        0x1905a ; am_hal_gpio_state_write + 110
        0x00019044:    f7fff978    ..x.    BL       am_hal_interrupt_master_disable ; 0x18338
        0x00019048:    9000        ..      STR      r0,[sp,#0]
        0x0001904a:    f8d40244    ..D.    LDR      r0,[r4,#0x244]
        0x0001904e:    4068        h@      EORS     r0,r0,r5
        0x00019050:    f8c40244    ..D.    STR      r0,[r4,#0x244]
        0x00019054:    9800        ..      LDR      r0,[sp,#0]
        0x00019056:    f7fff973    ..s.    BL       am_hal_interrupt_master_set ; 0x18340
        0x0001905a:    2000        .       MOVS     r0,#0
        0x0001905c:    bd38        8.      POP      {r3-r5,pc}
        0x0001905e:    0000        ..      MOVS     r0,r0
    i.am_hal_itm_enable
    am_hal_itm_enable
        0x00019060:    480a        .H      LDR      r0,[pc,#40] ; [0x1908c] = 0xe000edfc
        0x00019062:    6801        .h      LDR      r1,[r0,#0]
        0x00019064:    f0417180    A..q    ORR      r1,r1,#0x1000000
        0x00019068:    6001        .`      STR      r1,[r0,#0]
        0x0001906a:    6801        .h      LDR      r1,[r0,#0]
        0x0001906c:    f0117f80    ....    TST      r1,#0x1000000
        0x00019070:    d0fb        ..      BEQ      0x1906a ; am_hal_itm_enable + 10
        0x00019072:    4908        .I      LDR      r1,[pc,#32] ; [0x19094] = 0xe0000fb0
        0x00019074:    4806        .H      LDR      r0,[pc,#24] ; [0x19090] = 0xc5acce55
        0x00019076:    6008        .`      STR      r0,[r1,#0]
        0x00019078:    4907        .I      LDR      r1,[pc,#28] ; [0x19098] = 0xe0000e40
        0x0001907a:    200f        .       MOVS     r0,#0xf
        0x0001907c:    6008        .`      STR      r0,[r1,#0]
        0x0001907e:    1748        H.      ASRS     r0,r1,#29
        0x00019080:    4906        .I      LDR      r1,[pc,#24] ; [0x1909c] = 0xe0000e00
        0x00019082:    6008        .`      STR      r0,[r1,#0]
        0x00019084:    4907        .I      LDR      r1,[pc,#28] ; [0x190a4] = 0xe0000e80
        0x00019086:    4806        .H      LDR      r0,[pc,#24] ; [0x190a0] = 0x150511
        0x00019088:    6008        .`      STR      r0,[r1,#0]
        0x0001908a:    4770        pG      BX       lr
    $d
        0x0001908c:    e000edfc    ....    DCD    3758157308
        0x00019090:    c5acce55    U...    DCD    3316436565
        0x00019094:    e0000fb0    ....    DCD    3758100400
        0x00019098:    e0000e40    @...    DCD    3758100032
        0x0001909c:    e0000e00    ....    DCD    3758099968
        0x000190a0:    00150511    ....    DCD    1377553
        0x000190a4:    e0000e80    ....    DCD    3758100096
    $t
    i.am_hal_itm_print
    am_hal_itm_print
        0x000190a8:    7802        .x      LDRB     r2,[r0,#0]
        0x000190aa:    2100        .!      MOVS     r1,#0
        0x000190ac:    2a00        .*      CMP      r2,#0
        0x000190ae:    bf08        ..      IT       EQ
        0x000190b0:    4770        pG      BXEQ     lr
        0x000190b2:    1c49        I.      ADDS     r1,r1,#1
        0x000190b4:    5c42        B\      LDRB     r2,[r0,r1]
        0x000190b6:    2a00        .*      CMP      r2,#0
        0x000190b8:    d1fb        ..      BNE      0x190b2 ; am_hal_itm_print + 10
        0x000190ba:    2900        .)      CMP      r1,#0
        0x000190bc:    bf08        ..      IT       EQ
        0x000190be:    4770        pG      BXEQ     lr
        0x000190c0:    f810cb01    ....    LDRB     r12,[r0],#1
        0x000190c4:    f04f4260    O.`B    MOV      r2,#0xe0000000
        0x000190c8:    6813        .h      LDR      r3,[r2,#0]
        0x000190ca:    2b00        .+      CMP      r3,#0
        0x000190cc:    d0fc        ..      BEQ      0x190c8 ; am_hal_itm_print + 32
        0x000190ce:    f882c000    ....    STRB     r12,[r2,#0]
        0x000190d2:    1e49        I.      SUBS     r1,r1,#1
        0x000190d4:    d1f4        ..      BNE      0x190c0 ; am_hal_itm_print + 24
        0x000190d6:    4770        pG      BX       lr
    i.am_hal_mcuctrl_control
    am_hal_mcuctrl_control
        0x000190d8:    e92d47f0    -..G    PUSH     {r4-r10,lr}
        0x000190dc:    4eb2        .N      LDR      r6,[pc,#712] ; [0x193a8] = 0x10000078
        0x000190de:    f8df82cc    ....    LDR      r8,[pc,#716] ; [0x193ac] = 0xfff8c00
        0x000190e2:    4cb3        .L      LDR      r4,[pc,#716] ; [0x193b0] = 0x40020000
        0x000190e4:    4db3        .M      LDR      r5,[pc,#716] ; [0x193b4] = 0x10000ef4
        0x000190e6:    b082        ..      SUB      sp,sp,#8
        0x000190e8:    f04f0901    O...    MOV      r9,#1
        0x000190ec:    f44f7770    O.pw    MOV      r7,#0x3c0
        0x000190f0:    f04f0a00    O...    MOV      r10,#0
        0x000190f4:    2806        .(      CMP      r0,#6
        0x000190f6:    f0808152    ..R.    BCS.W    0x1939e ; am_hal_mcuctrl_control + 710
        0x000190fa:    e8dff000    ....    TBB      [pc,r0]
    $d
        0x000190fe:    1303        ..      DCW    4867
        0x00019100:    26fdac41    A..&    DCD    654158913
    $t
        0x00019104:    f7fff918    ....    BL       am_hal_interrupt_master_disable ; 0x18338
        0x00019108:    9001        ..      STR      r0,[sp,#4]
        0x0001910a:    f8d40120    .. .    LDR      r0,[r4,#0x120]
        0x0001910e:    f020001f     ...    BIC      r0,r0,#0x1f
        0x00019112:    f0400019    @...    ORR      r0,r0,#0x19
        0x00019116:    9000        ..      STR      r0,[sp,#0]
        0x00019118:    f8c40120    .. .    STR      r0,[r4,#0x120]
        0x0001911c:    9801        ..      LDR      r0,[sp,#4]
        0x0001911e:    f7fff90f    ....    BL       am_hal_interrupt_master_set ; 0x18340
        0x00019122:    e00e        ..      B        0x19142 ; am_hal_mcuctrl_control + 106
        0x00019124:    f7fff908    ....    BL       am_hal_interrupt_master_disable ; 0x18338
        0x00019128:    9001        ..      STR      r0,[sp,#4]
        0x0001912a:    f8d40120    .. .    LDR      r0,[r4,#0x120]
        0x0001912e:    f020001f     ...    BIC      r0,r0,#0x1f
        0x00019132:    f0400018    @...    ORR      r0,r0,#0x18
        0x00019136:    9000        ..      STR      r0,[sp,#0]
        0x00019138:    f8c40120    .. .    STR      r0,[r4,#0x120]
        0x0001913c:    9801        ..      LDR      r0,[sp,#4]
        0x0001913e:    f7fff8ff    ....    BL       am_hal_interrupt_master_set ; 0x18340
        0x00019142:    b002        ..      ADD      sp,sp,#8
        0x00019144:    2000        .       MOVS     r0,#0
        0x00019146:    e8bd87f0    ....    POP      {r4-r10,pc}
        0x0001914a:    2900        .)      CMP      r1,#0
        0x0001914c:    f0008127    ..'.    BEQ.W    0x1939e ; am_hal_mcuctrl_control + 710
        0x00019150:    4898        .H      LDR      r0,[pc,#608] ; [0x193b4] = 0x10000ef4
        0x00019152:    7809        .x      LDRB     r1,[r1,#0]
        0x00019154:    6840        @h      LDR      r0,[r0,#4]
        0x00019156:    2900        .)      CMP      r1,#0
        0x00019158:    bf0c        ..      ITE      EQ
        0x0001915a:    f4201000     ...    BICEQ    r0,r0,#0x200000
        0x0001915e:    f4401000    @...    ORRNE    r0,r0,#0x200000
        0x00019162:    6068        h`      STR      r0,[r5,#4]
        0x00019164:    2800        .(      CMP      r0,#0
        0x00019166:    f8d4012c    ..,.    LDR      r0,[r4,#0x12c]
        0x0001916a:    bf14        ..      ITE      NE
        0x0001916c:    f0400080    @...    ORRNE    r0,r0,#0x80
        0x00019170:    f0200080     ...    BICEQ    r0,r0,#0x80
        0x00019174:    f8c4012c    ..,.    STR      r0,[r4,#0x12c]
        0x00019178:    b002        ..      ADD      sp,sp,#8
        0x0001917a:    4650        PF      MOV      r0,r10
        0x0001917c:    e8bd87f0    ....    POP      {r4-r10,pc}
        0x00019180:    ea5f0a01    _...    MOVS     r10,r1
        0x00019184:    f000810b    ....    BEQ.W    0x1939e ; am_hal_mcuctrl_control + 710
        0x00019188:    f7fff8d6    ....    BL       am_hal_interrupt_master_disable ; 0x18338
        0x0001918c:    9000        ..      STR      r0,[sp,#0]
        0x0001918e:    6828        (h      LDR      r0,[r5,#0]
        0x00019190:    1c01        ..      ADDS     r1,r0,#0
        0x00019192:    bf18        ..      IT       NE
        0x00019194:    2101        .!      MOVNE    r1,#1
        0x00019196:    f89a2004    ...     LDRB     r2,[r10,#4]
        0x0001919a:    b1c2        ..      CBZ      r2,0x191ce ; am_hal_mcuctrl_control + 246
        0x0001919c:    f8da2000    ...     LDR      r2,[r10,#0]
        0x000191a0:    4310        .C      ORRS     r0,r0,r2
        0x000191a2:    6028        (`      STR      r0,[r5,#0]
        0x000191a4:    f89a2007    ...     LDRB     r2,[r10,#7]
        0x000191a8:    f8da0000    ....    LDR      r0,[r10,#0]
        0x000191ac:    2a00        .*      CMP      r2,#0
        0x000191ae:    686a        jh      LDR      r2,[r5,#4]
        0x000191b0:    bf0c        ..      ITE      EQ
        0x000191b2:    ea220000    "...    BICEQ    r0,r2,r0
        0x000191b6:    4310        .C      ORRNE    r0,r0,r2
        0x000191b8:    6068        h`      STR      r0,[r5,#4]
        0x000191ba:    2800        .(      CMP      r0,#0
        0x000191bc:    f8d4012c    ..,.    LDR      r0,[r4,#0x12c]
        0x000191c0:    bf14        ..      ITE      NE
        0x000191c2:    f0400080    @...    ORRNE    r0,r0,#0x80
        0x000191c6:    f0200080     ...    BICEQ    r0,r0,#0x80
        0x000191ca:    f8c4012c    ..,.    STR      r0,[r4,#0x12c]
        0x000191ce:    6828        (h      LDR      r0,[r5,#0]
        0x000191d0:    2800        .(      CMP      r0,#0
        0x000191d2:    bf18        ..      IT       NE
        0x000191d4:    2001        .       MOVNE    r0,#1
        0x000191d6:    4388        .C      BICS     r0,r0,r1
        0x000191d8:    bf04        ..      ITT      EQ
        0x000191da:    f89a0006    ....    LDRBEQ   r0,[r10,#6]
        0x000191de:    2800        .(      CMPEQ    r0,#0
        0x000191e0:    f00080d6    ....    BEQ.W    0x19390 ; am_hal_mcuctrl_control + 696
        0x000191e4:    f8859008    ....    STRB     r9,[r5,#8]
        0x000191e8:    7830        0x      LDRB     r0,[r6,#0]
        0x000191ea:    6871        qh      LDR      r1,[r6,#4]
        0x000191ec:    f000003f    ..?.    AND      r0,r0,#0x3f
        0x000191f0:    ea071181    ....    AND      r1,r7,r1,LSL #6
        0x000191f4:    ea400001    @...    ORR      r0,r0,r1
        0x000191f8:    ea400008    @...    ORR      r0,r0,r8
        0x000191fc:    f8c40128    ..(.    STR      r0,[r4,#0x128]
        0x00019200:    f8d4012c    ..,.    LDR      r0,[r4,#0x12c]
        0x00019204:    f0200022     .".    BIC      r0,r0,#0x22
        0x00019208:    f0400002    @...    ORR      r0,r0,#2
        0x0001920c:    f8c4012c    ..,.    STR      r0,[r4,#0x12c]
        0x00019210:    f0400001    @...    ORR      r0,r0,#1
        0x00019214:    f8c4012c    ..,.    STR      r0,[r4,#0x12c]
        0x00019218:    f0400010    @...    ORR      r0,r0,#0x10
        0x0001921c:    f8c4012c    ..,.    STR      r0,[r4,#0x12c]
        0x00019220:    f0400008    @...    ORR      r0,r0,#8
        0x00019224:    f8c4012c    ..,.    STR      r0,[r4,#0x12c]
        0x00019228:    f04f0005    O...    MOV      r0,#5
        0x0001922c:    f7fffe40    ..@.    BL       am_hal_delay_us ; 0x18eb0
        0x00019230:    f8d4012c    ..,.    LDR      r0,[r4,#0x12c]
        0x00019234:    f89a1005    ....    LDRB     r1,[r10,#5]
        0x00019238:    f0200010     ...    BIC      r0,r0,#0x10
        0x0001923c:    2900        .)      CMP      r1,#0
        0x0001923e:    bf1c        ..      ITT      NE
        0x00019240:    f0200009     ...    BICNE    r0,r0,#9
        0x00019244:    f4207080     ..p    BICNE    r0,r0,#0x100
        0x00019248:    d002        ..      BEQ      0x19250 ; am_hal_mcuctrl_control + 376
        0x0001924a:    bf00        ..      NOP      
        0x0001924c:    f4407080    @..p    ORR      r0,r0,#0x100
        0x00019250:    f8c4012c    ..,.    STR      r0,[r4,#0x12c]
        0x00019254:    e09c        ..      B        0x19390 ; am_hal_mcuctrl_control + 696
        0x00019256:    ea5f0901    _...    MOVS     r9,r1
        0x0001925a:    d07d        }.      BEQ      0x19358 ; am_hal_mcuctrl_control + 640
        0x0001925c:    f7fff86c    ..l.    BL       am_hal_interrupt_master_disable ; 0x18338
        0x00019260:    9000        ..      STR      r0,[sp,#0]
        0x00019262:    6828        (h      LDR      r0,[r5,#0]
        0x00019264:    1c01        ..      ADDS     r1,r0,#0
        0x00019266:    bf18        ..      IT       NE
        0x00019268:    2101        .!      MOVNE    r1,#1
        0x0001926a:    f8992004    ...     LDRB     r2,[r9,#4]
        0x0001926e:    b1c2        ..      CBZ      r2,0x192a2 ; am_hal_mcuctrl_control + 458
        0x00019270:    f8d92000    ...     LDR      r2,[r9,#0]
        0x00019274:    4310        .C      ORRS     r0,r0,r2
        0x00019276:    6028        (`      STR      r0,[r5,#0]
        0x00019278:    f8992007    ...     LDRB     r2,[r9,#7]
        0x0001927c:    f8d90000    ....    LDR      r0,[r9,#0]
        0x00019280:    2a00        .*      CMP      r2,#0
        0x00019282:    686a        jh      LDR      r2,[r5,#4]
        0x00019284:    bf0c        ..      ITE      EQ
        0x00019286:    ea220000    "...    BICEQ    r0,r2,r0
        0x0001928a:    4310        .C      ORRNE    r0,r0,r2
        0x0001928c:    6068        h`      STR      r0,[r5,#4]
        0x0001928e:    2800        .(      CMP      r0,#0
        0x00019290:    f8d4012c    ..,.    LDR      r0,[r4,#0x12c]
        0x00019294:    bf14        ..      ITE      NE
        0x00019296:    f0400080    @...    ORRNE    r0,r0,#0x80
        0x0001929a:    f0200080     ...    BICEQ    r0,r0,#0x80
        0x0001929e:    f8c4012c    ..,.    STR      r0,[r4,#0x12c]
        0x000192a2:    6828        (h      LDR      r0,[r5,#0]
        0x000192a4:    2800        .(      CMP      r0,#0
        0x000192a6:    bf18        ..      IT       NE
        0x000192a8:    2001        .       MOVNE    r0,#1
        0x000192aa:    4388        .C      BICS     r0,r0,r1
        0x000192ac:    bf04        ..      ITT      EQ
        0x000192ae:    f8990006    ....    LDRBEQ   r0,[r9,#6]
        0x000192b2:    2800        .(      CMPEQ    r0,#0
        0x000192b4:    d06c        l.      BEQ      0x19390 ; am_hal_mcuctrl_control + 696
        0x000192b6:    7830        0x      LDRB     r0,[r6,#0]
        0x000192b8:    6871        qh      LDR      r1,[r6,#4]
        0x000192ba:    f000003f    ..?.    AND      r0,r0,#0x3f
        0x000192be:    ea071181    ....    AND      r1,r7,r1,LSL #6
        0x000192c2:    ea400001    @...    ORR      r0,r0,r1
        0x000192c6:    ea400008    @...    ORR      r0,r0,r8
        0x000192ca:    f8c40128    ..(.    STR      r0,[r4,#0x128]
        0x000192ce:    f8d4012c    ..,.    LDR      r0,[r4,#0x12c]
        0x000192d2:    f0400022    @.".    ORR      r0,r0,#0x22
        0x000192d6:    f8c4012c    ..,.    STR      r0,[r4,#0x12c]
        0x000192da:    f0400001    @...    ORR      r0,r0,#1
        0x000192de:    f8c4012c    ..,.    STR      r0,[r4,#0x12c]
        0x000192e2:    f8991005    ....    LDRB     r1,[r9,#5]
        0x000192e6:    2900        .)      CMP      r1,#0
        0x000192e8:    bf1a        ..      ITTE     NE
        0x000192ea:    f0200001     ...    BICNE    r0,r0,#1
        0x000192ee:    f4207080     ..p    BICNE    r0,r0,#0x100
        0x000192f2:    f0200028     .(.    BICEQ    r0,r0,#0x28
        0x000192f6:    e000        ..      B        0x192fa ; am_hal_mcuctrl_control + 546
        0x000192f8:    e004        ..      B        0x19304 ; am_hal_mcuctrl_control + 556
        0x000192fa:    bf08        ..      IT       EQ
        0x000192fc:    f0400008    @...    ORREQ    r0,r0,#8
        0x00019300:    d0a6        ..      BEQ      0x19250 ; am_hal_mcuctrl_control + 376
        0x00019302:    e7a3        ..      B        0x1924c ; am_hal_mcuctrl_control + 372
        0x00019304:    ea5f0801    _...    MOVS     r8,r1
        0x00019308:    d049        I.      BEQ      0x1939e ; am_hal_mcuctrl_control + 710
        0x0001930a:    f7fff815    ....    BL       am_hal_interrupt_master_disable ; 0x18338
        0x0001930e:    9000        ..      STR      r0,[sp,#0]
        0x00019310:    f8980004    ....    LDRB     r0,[r8,#4]
        0x00019314:    b1d0        ..      CBZ      r0,0x1934c ; am_hal_mcuctrl_control + 628
        0x00019316:    f8d80000    ....    LDR      r0,[r8,#0]
        0x0001931a:    6829        )h      LDR      r1,[r5,#0]
        0x0001931c:    ea210000    !...    BIC      r0,r1,r0
        0x00019320:    6028        (`      STR      r0,[r5,#0]
        0x00019322:    f8981007    ....    LDRB     r1,[r8,#7]
        0x00019326:    f8d80000    ....    LDR      r0,[r8,#0]
        0x0001932a:    2900        .)      CMP      r1,#0
        0x0001932c:    6869        ih      LDR      r1,[r5,#4]
        0x0001932e:    bf0c        ..      ITE      EQ
        0x00019330:    ea210000    !...    BICEQ    r0,r1,r0
        0x00019334:    4308        .C      ORRNE    r0,r0,r1
        0x00019336:    6068        h`      STR      r0,[r5,#4]
        0x00019338:    2800        .(      CMP      r0,#0
        0x0001933a:    f8d4012c    ..,.    LDR      r0,[r4,#0x12c]
        0x0001933e:    bf14        ..      ITE      NE
        0x00019340:    f0400080    @...    ORRNE    r0,r0,#0x80
        0x00019344:    f0200080     ...    BICEQ    r0,r0,#0x80
        0x00019348:    f8c4012c    ..,.    STR      r0,[r4,#0x12c]
        0x0001934c:    6828        (h      LDR      r0,[r5,#0]
        0x0001934e:    b110        ..      CBZ      r0,0x19356 ; am_hal_mcuctrl_control + 638
        0x00019350:    f8980006    ....    LDRB     r0,[r8,#6]
        0x00019354:    b1e0        ..      CBZ      r0,0x19390 ; am_hal_mcuctrl_control + 696
        0x00019356:    e000        ..      B        0x1935a ; am_hal_mcuctrl_control + 642
        0x00019358:    e021        !.      B        0x1939e ; am_hal_mcuctrl_control + 710
        0x0001935a:    f885a008    ....    STRB     r10,[r5,#8]
        0x0001935e:    f8c5a000    ....    STR      r10,[r5,#0]
        0x00019362:    7830        0x      LDRB     r0,[r6,#0]
        0x00019364:    6871        qh      LDR      r1,[r6,#4]
        0x00019366:    f000003f    ..?.    AND      r0,r0,#0x3f
        0x0001936a:    ea071181    ....    AND      r1,r7,r1,LSL #6
        0x0001936e:    4308        .C      ORRS     r0,r0,r1
        0x00019370:    f44030f8    @..0    ORR      r0,r0,#0x1f000
        0x00019374:    f0407044    @.Dp    ORR      r0,r0,#0x3100000
        0x00019378:    f8c40128    ..(.    STR      r0,[r4,#0x128]
        0x0001937c:    f8d4012c    ..,.    LDR      r0,[r4,#0x12c]
        0x00019380:    f020002b     .+.    BIC      r0,r0,#0x2b
        0x00019384:    f4207080     ..p    BIC      r0,r0,#0x100
        0x00019388:    f0400002    @...    ORR      r0,r0,#2
        0x0001938c:    f8c4012c    ..,.    STR      r0,[r4,#0x12c]
        0x00019390:    9800        ..      LDR      r0,[sp,#0]
        0x00019392:    f7feffd5    ....    BL       am_hal_interrupt_master_set ; 0x18340
        0x00019396:    b002        ..      ADD      sp,sp,#8
        0x00019398:    2000        .       MOVS     r0,#0
        0x0001939a:    e8bd87f0    ....    POP      {r4-r10,pc}
        0x0001939e:    b002        ..      ADD      sp,sp,#8
        0x000193a0:    2006        .       MOVS     r0,#6
        0x000193a2:    e8bd87f0    ....    POP      {r4-r10,pc}
    $d
        0x000193a6:    0000        ..      DCW    0
        0x000193a8:    10000078    x...    DCD    268435576
        0x000193ac:    0fff8c00    ....    DCD    268405760
        0x000193b0:    40020000    ...@    DCD    1073872896
        0x000193b4:    10000ef4    ....    DCD    268439284
    $t
    i.am_hal_mcuctrl_info_get
    am_hal_mcuctrl_info_get
        0x000193b8:    b119        ..      CBZ      r1,0x193c2 ; am_hal_mcuctrl_info_get + 10
        0x000193ba:    4a42        BJ      LDR      r2,[pc,#264] ; [0x194c4] = 0x40020000
        0x000193bc:    b118        ..      CBZ      r0,0x193c6 ; am_hal_mcuctrl_info_get + 14
        0x000193be:    2801        .(      CMP      r0,#1
        0x000193c0:    d020         .      BEQ      0x19404 ; am_hal_mcuctrl_info_get + 76
        0x000193c2:    2006        .       MOVS     r0,#6
        0x000193c4:    4770        pG      BX       lr
        0x000193c6:    2000        .       MOVS     r0,#0
        0x000193c8:    7008        .p      STRB     r0,[r1,#0]
        0x000193ca:    6950        Pi      LDR      r0,[r2,#0x14]
        0x000193cc:    f0000003    ....    AND      r0,r0,#3
        0x000193d0:    7048        Hp      STRB     r0,[r1,#1]
        0x000193d2:    6950        Pi      LDR      r0,[r2,#0x14]
        0x000193d4:    f3c00081    ....    UBFX     r0,r0,#2,#2
        0x000193d8:    7088        .p      STRB     r0,[r1,#2]
        0x000193da:    6950        Pi      LDR      r0,[r2,#0x14]
        0x000193dc:    f3c01080    ....    UBFX     r0,r0,#6,#1
        0x000193e0:    70c8        .p      STRB     r0,[r1,#3]
        0x000193e2:    6950        Pi      LDR      r0,[r2,#0x14]
        0x000193e4:    f3c010c0    ....    UBFX     r0,r0,#7,#1
        0x000193e8:    7108        .q      STRB     r0,[r1,#4]
        0x000193ea:    6950        Pi      LDR      r0,[r2,#0x14]
        0x000193ec:    f3c02000    ...     UBFX     r0,r0,#8,#1
        0x000193f0:    7148        Hq      STRB     r0,[r1,#5]
        0x000193f2:    6950        Pi      LDR      r0,[r2,#0x14]
        0x000193f4:    f3c02040    ..@     UBFX     r0,r0,#9,#1
        0x000193f8:    7188        .q      STRB     r0,[r1,#6]
        0x000193fa:    6950        Pi      LDR      r0,[r2,#0x14]
        0x000193fc:    f3c02080    ...     UBFX     r0,r0,#10,#1
        0x00019400:    71c8        .q      STRB     r0,[r1,#7]
        0x00019402:    e05d        ].      B        0x194c0 ; am_hal_mcuctrl_info_get + 264
        0x00019404:    6810        .h      LDR      r0,[r2,#0]
        0x00019406:    6008        .`      STR      r0,[r1,#0]
        0x00019408:    6850        Ph      LDR      r0,[r2,#4]
        0x0001940a:    6048        H`      STR      r0,[r1,#4]
        0x0001940c:    6890        .h      LDR      r0,[r2,#8]
        0x0001940e:    6088        .`      STR      r0,[r1,#8]
        0x00019410:    68d0        .h      LDR      r0,[r2,#0xc]
        0x00019412:    60c8        .`      STR      r0,[r1,#0xc]
        0x00019414:    6910        .i      LDR      r0,[r2,#0x10]
        0x00019416:    6108        .a      STR      r0,[r1,#0x10]
        0x00019418:    6950        Pi      LDR      r0,[r2,#0x14]
        0x0001941a:    6148        Ha      STR      r0,[r1,#0x14]
        0x0001941c:    2001        .       MOVS     r0,#1
        0x0001941e:    6188        .a      STR      r0,[r1,#0x18]
        0x00019420:    6950        Pi      LDR      r0,[r2,#0x14]
        0x00019422:    4b29        )K      LDR      r3,[pc,#164] ; [0x194c8] = 0x1e770
        0x00019424:    f3c00081    ....    UBFX     r0,r0,#2,#2
        0x00019428:    f8330010    3...    LDRH     r0,[r3,r0,LSL #1]
        0x0001942c:    0280        ..      LSLS     r0,r0,#10
        0x0001942e:    6288        .b      STR      r0,[r1,#0x28]
        0x00019430:    f44f20c0    O..     MOV      r0,#0x60000
        0x00019434:    6208        .b      STR      r0,[r1,#0x20]
        0x00019436:    6950        Pi      LDR      r0,[r2,#0x14]
        0x00019438:    6952        Ri      LDR      r2,[r2,#0x14]
        0x0001943a:    f0000303    ....    AND      r3,r0,#3
        0x0001943e:    4823        #H      LDR      r0,[pc,#140] ; [0x194cc] = 0x1e778
        0x00019440:    f8303023    0.#0    LDRH     r3,[r0,r3,LSL #2]
        0x00019444:    f0020203    ....    AND      r2,r2,#3
        0x00019448:    eb000082    ....    ADD      r0,r0,r2,LSL #2
        0x0001944c:    8840        @.      LDRH     r0,[r0,#2]
        0x0001944e:    4418        .D      ADD      r0,r0,r3
        0x00019450:    0280        ..      LSLS     r0,r0,#10
        0x00019452:    6248        Hb      STR      r0,[r1,#0x24]
        0x00019454:    481e        .H      LDR      r0,[pc,#120] ; [0x194d0] = 0xf0000fe0
        0x00019456:    6800        .h      LDR      r0,[r0,#0]
        0x00019458:    4a1e        .J      LDR      r2,[pc,#120] ; [0x194d4] = 0xf0000fe4
        0x0001945a:    b2c0        ..      UXTB     r0,r0
        0x0001945c:    62c8        .b      STR      r0,[r1,#0x2c]
        0x0001945e:    6813        .h      LDR      r3,[r2,#0]
        0x00019460:    f003030f    ....    AND      r3,r3,#0xf
        0x00019464:    ea402003    @..     ORR      r0,r0,r3,LSL #8
        0x00019468:    62c8        .b      STR      r0,[r1,#0x2c]
        0x0001946a:    6810        .h      LDR      r0,[r2,#0]
        0x0001946c:    1d12        ..      ADDS     r2,r2,#4
        0x0001946e:    f3c01003    ....    UBFX     r0,r0,#4,#4
        0x00019472:    6308        .c      STR      r0,[r1,#0x30]
        0x00019474:    6813        .h      LDR      r3,[r2,#0]
        0x00019476:    f003030f    ....    AND      r3,r3,#0xf
        0x0001947a:    ea401003    @...    ORR      r0,r0,r3,LSL #4
        0x0001947e:    6308        .c      STR      r0,[r1,#0x30]
        0x00019480:    6810        .h      LDR      r0,[r2,#0]
        0x00019482:    f3c01003    ....    UBFX     r0,r0,#4,#4
        0x00019486:    0100        ..      LSLS     r0,r0,#4
        0x00019488:    1d12        ..      ADDS     r2,r2,#4
        0x0001948a:    6348        Hc      STR      r0,[r1,#0x34]
        0x0001948c:    6812        .h      LDR      r2,[r2,#0]
        0x0001948e:    f3c21203    ....    UBFX     r2,r2,#4,#4
        0x00019492:    4310        .C      ORRS     r0,r0,r2
        0x00019494:    6348        Hc      STR      r0,[r1,#0x34]
        0x00019496:    4810        .H      LDR      r0,[pc,#64] ; [0x194d8] = 0xf0000ffc
        0x00019498:    6800        .h      LDR      r0,[r0,#0]
        0x0001949a:    4a10        .J      LDR      r2,[pc,#64] ; [0x194dc] = 0xf0000ff8
        0x0001949c:    0600        ..      LSLS     r0,r0,#24
        0x0001949e:    6388        .c      STR      r0,[r1,#0x38]
        0x000194a0:    6812        .h      LDR      r2,[r2,#0]
        0x000194a2:    b2d2        ..      UXTB     r2,r2
        0x000194a4:    ea404002    @..@    ORR      r0,r0,r2,LSL #16
        0x000194a8:    4a0d        .J      LDR      r2,[pc,#52] ; [0x194e0] = 0xf0000ff4
        0x000194aa:    6388        .c      STR      r0,[r1,#0x38]
        0x000194ac:    6812        .h      LDR      r2,[r2,#0]
        0x000194ae:    b2d2        ..      UXTB     r2,r2
        0x000194b0:    ea402002    @..     ORR      r0,r0,r2,LSL #8
        0x000194b4:    4a0b        .J      LDR      r2,[pc,#44] ; [0x194e4] = 0xf0000ff0
        0x000194b6:    6388        .c      STR      r0,[r1,#0x38]
        0x000194b8:    6812        .h      LDR      r2,[r2,#0]
        0x000194ba:    b2d2        ..      UXTB     r2,r2
        0x000194bc:    4310        .C      ORRS     r0,r0,r2
        0x000194be:    6388        .c      STR      r0,[r1,#0x38]
        0x000194c0:    2000        .       MOVS     r0,#0
        0x000194c2:    4770        pG      BX       lr
    $d
        0x000194c4:    40020000    ...@    DCD    1073872896
        0x000194c8:    0001e770    p...    DCD    124784
        0x000194cc:    0001e778    x...    DCD    124792
        0x000194d0:    f0000fe0    ....    DCD    4026535904
        0x000194d4:    f0000fe4    ....    DCD    4026535908
        0x000194d8:    f0000ffc    ....    DCD    4026535932
        0x000194dc:    f0000ff8    ....    DCD    4026535928
        0x000194e0:    f0000ff4    ....    DCD    4026535924
        0x000194e4:    f0000ff0    ....    DCD    4026535920
    $t
    i.am_hal_pwrctrl_periph_disable
    am_hal_pwrctrl_periph_disable
        0x000194e8:    2822        "(      CMP      r0,#0x22
        0x000194ea:    bf24        $.      ITT      CS
        0x000194ec:    2006        .       MOVCS    r0,#6
        0x000194ee:    4770        pG      BXCS     lr
        0x000194f0:    e92d43f8    -..C    PUSH     {r3-r9,lr}
        0x000194f4:    4941        AI      LDR      r1,[pc,#260] ; [0x195fc] = 0x1e7d4
        0x000194f6:    4602        .F      MOV      r2,r0
        0x000194f8:    eb011800    ....    ADD      r8,r1,r0,LSL #4
        0x000194fc:    2500        .%      MOVS     r5,#0
        0x000194fe:    e9d86900    ...i    LDRD     r6,r9,[r8,#0]
        0x00019502:    e9d87402    ...t    LDRD     r7,r4,[r8,#8]
        0x00019506:    6831        1h      LDR      r1,[r6,#0]
        0x00019508:    ea110f09    ....    TST      r1,r9
        0x0001950c:    bf04        ..      ITT      EQ
        0x0001950e:    2000        .       MOVEQ    r0,#0
        0x00019510:    e8bd83f8    ....    POPEQ    {r3-r9,pc}
        0x00019514:    2a14        .*      CMP      r2,#0x14
        0x00019516:    d123        #.      BNE      0x19560 ; am_hal_pwrctrl_periph_disable + 120
        0x00019518:    4839        9H      LDR      r0,[pc,#228] ; [0x19600] = 0x400c0fe0
        0x0001951a:    6800        .h      LDR      r0,[r0,#0]
        0x0001951c:    28c0        .(      CMP      r0,#0xc0
        0x0001951e:    d11f        ..      BNE      0x19560 ; am_hal_pwrctrl_periph_disable + 120
        0x00019520:    2301        .#      MOVS     r3,#1
        0x00019522:    461a        .F      MOV      r2,r3
        0x00019524:    4937        7I      LDR      r1,[pc,#220] ; [0x19604] = 0x400c0a7c
        0x00019526:    2064        d       MOVS     r0,#0x64
        0x00019528:    f7fffcd8    ....    BL       am_hal_delay_us_status_change ; 0x18edc
        0x0001952c:    2800        .(      CMP      r0,#0
        0x0001952e:    bf18        ..      IT       NE
        0x00019530:    e8bd83f8    ....    POPNE    {r3-r9,pc}
        0x00019534:    2301        .#      MOVS     r3,#1
        0x00019536:    461a        .F      MOV      r2,r3
        0x00019538:    4933        3I      LDR      r1,[pc,#204] ; [0x19608] = 0x400c1f10
        0x0001953a:    2064        d       MOVS     r0,#0x64
        0x0001953c:    f7fffcce    ....    BL       am_hal_delay_us_status_change ; 0x18edc
        0x00019540:    2800        .(      CMP      r0,#0
        0x00019542:    bf18        ..      IT       NE
        0x00019544:    e8bd83f8    ....    POPNE    {r3-r9,pc}
        0x00019548:    4830        0H      LDR      r0,[pc,#192] ; [0x1960c] = 0x400c0a80
        0x0001954a:    6801        .h      LDR      r1,[r0,#0]
        0x0001954c:    f0410101    A...    ORR      r1,r1,#1
        0x00019550:    6001        .`      STR      r1,[r0,#0]
        0x00019552:    482f        /H      LDR      r0,[pc,#188] ; [0x19610] = 0x100000e0
        0x00019554:    6a81        .j      LDR      r1,[r0,#0x28]
        0x00019556:    2900        .)      CMP      r1,#0
        0x00019558:    bf1c        ..      ITT      NE
        0x0001955a:    2000        .       MOVNE    r0,#0
        0x0001955c:    f002f8da    ....    BLNE     crypto_boost_trims ; 0x1b714
        0x00019560:    f7fefeea    ....    BL       am_hal_interrupt_master_disable ; 0x18338
        0x00019564:    9000        ..      STR      r0,[sp,#0]
        0x00019566:    6830        0h      LDR      r0,[r6,#0]
        0x00019568:    ea200009     ...    BIC      r0,r0,r9
        0x0001956c:    6030        0`      STR      r0,[r6,#0]
        0x0001956e:    9800        ..      LDR      r0,[sp,#0]
        0x00019570:    f7fefee6    ....    BL       am_hal_interrupt_master_set ; 0x18340
        0x00019574:    4623        #F      MOV      r3,r4
        0x00019576:    461a        .F      MOV      r2,r3
        0x00019578:    4639        9F      MOV      r1,r7
        0x0001957a:    2005        .       MOVS     r0,#5
        0x0001957c:    9500        ..      STR      r5,[sp,#0]
        0x0001957e:    f7fffcd9    ....    BL       am_hal_delay_us_status_check ; 0x18f34
        0x00019582:    2800        .(      CMP      r0,#0
        0x00019584:    bf08        ..      IT       EQ
        0x00019586:    e8bd83f8    ....    POPEQ    {r3-r9,pc}
        0x0001958a:    4628        (F      MOV      r0,r5
        0x0001958c:    f8d8200c    ...     LDR      r2,[r8,#0xc]
        0x00019590:    f8d81000    ....    LDR      r1,[r8,#0]
        0x00019594:    f5b27ff0    ....    CMP      r2,#0x1e0
        0x00019598:    d029        ).      BEQ      0x195ee ; am_hal_pwrctrl_periph_disable + 262
        0x0001959a:    dc0b        ..      BGT      0x195b4 ; am_hal_pwrctrl_periph_disable + 204
        0x0001959c:    2a1e        .*      CMP      r2,#0x1e
        0x0001959e:    d020         .      BEQ      0x195e2 ; am_hal_pwrctrl_periph_disable + 250
        0x000195a0:    2aff        .*      CMP      r2,#0xff
        0x000195a2:    bf18        ..      IT       NE
        0x000195a4:    e8bd83f8    ....    POPNE    {r3-r9,pc}
        0x000195a8:    680a        .h      LDR      r2,[r1,#0]
        0x000195aa:    f0120fff    ....    TST      r2,#0xff
        0x000195ae:    d115        ..      BNE      0x195dc ; am_hal_pwrctrl_periph_disable + 244
        0x000195b0:    e8bd83f8    ....    POP      {r3-r9,pc}
        0x000195b4:    f5b25ff0    ..._    CMP      r2,#0x1e00
        0x000195b8:    d00a        ..      BEQ      0x195d0 ; am_hal_pwrctrl_periph_disable + 232
        0x000195ba:    f5b23fe0    ...?    CMP      r2,#0x1c000
        0x000195be:    bf18        ..      IT       NE
        0x000195c0:    e8bd83f8    ....    POPNE    {r3-r9,pc}
        0x000195c4:    680a        .h      LDR      r2,[r1,#0]
        0x000195c6:    f4123fe0    ...?    TST      r2,#0x1c000
        0x000195ca:    d107        ..      BNE      0x195dc ; am_hal_pwrctrl_periph_disable + 244
        0x000195cc:    e8bd83f8    ....    POP      {r3-r9,pc}
        0x000195d0:    680a        .h      LDR      r2,[r1,#0]
        0x000195d2:    f4125ff0    ..._    TST      r2,#0x1e00
        0x000195d6:    bf08        ..      IT       EQ
        0x000195d8:    e8bd83f8    ....    POPEQ    {r3-r9,pc}
        0x000195dc:    6809        .h      LDR      r1,[r1,#0]
        0x000195de:    e8bd83f8    ....    POP      {r3-r9,pc}
        0x000195e2:    680a        .h      LDR      r2,[r1,#0]
        0x000195e4:    f0120f1e    ....    TST      r2,#0x1e
        0x000195e8:    d1f8        ..      BNE      0x195dc ; am_hal_pwrctrl_periph_disable + 244
        0x000195ea:    e8bd83f8    ....    POP      {r3-r9,pc}
        0x000195ee:    680a        .h      LDR      r2,[r1,#0]
        0x000195f0:    f4127ff0    ....    TST      r2,#0x1e0
        0x000195f4:    d1f2        ..      BNE      0x195dc ; am_hal_pwrctrl_periph_disable + 244
        0x000195f6:    e8bd83f8    ....    POP      {r3-r9,pc}
    $d
        0x000195fa:    0000        ..      DCW    0
        0x000195fc:    0001e7d4    ....    DCD    124884
        0x00019600:    400c0fe0    ...@    DCD    1074532320
        0x00019604:    400c0a7c    |..@    DCD    1074530940
        0x00019608:    400c1f10    ...@    DCD    1074536208
        0x0001960c:    400c0a80    ...@    DCD    1074530944
        0x00019610:    100000e0    ....    DCD    268435680
    $t
    i.am_hal_pwrctrl_periph_enable
    am_hal_pwrctrl_periph_enable
        0x00019614:    2822        "(      CMP      r0,#0x22
        0x00019616:    bf24        $.      ITT      CS
        0x00019618:    2006        .       MOVCS    r0,#6
        0x0001961a:    4770        pG      BXCS     lr
        0x0001961c:    e92d43f8    -..C    PUSH     {r3-r9,lr}
        0x00019620:    4926        &I      LDR      r1,[pc,#152] ; [0x196bc] = 0x1e7d4
        0x00019622:    4604        .F      MOV      r4,r0
        0x00019624:    eb011004    ....    ADD      r0,r1,r4,LSL #4
        0x00019628:    e9d06502    ...e    LDRD     r6,r5,[r0,#8]
        0x0001962c:    e9d08900    ....    LDRD     r8,r9,[r0,#0]
        0x00019630:    f8d80000    ....    LDR      r0,[r8,#0]
        0x00019634:    ea100f09    ....    TST      r0,r9
        0x00019638:    d13c        <.      BNE      0x196b4 ; am_hal_pwrctrl_periph_enable + 160
        0x0001963a:    4f21        !O      LDR      r7,[pc,#132] ; [0x196c0] = 0x100000e0
        0x0001963c:    2c14        .,      CMP      r4,#0x14
        0x0001963e:    d105        ..      BNE      0x1964c ; am_hal_pwrctrl_periph_enable + 56
        0x00019640:    6ab9        .j      LDR      r1,[r7,#0x28]
        0x00019642:    2900        .)      CMP      r1,#0
        0x00019644:    bf1c        ..      ITT      NE
        0x00019646:    2001        .       MOVNE    r0,#1
        0x00019648:    f002f864    ..d.    BLNE     crypto_boost_trims ; 0x1b714
        0x0001964c:    f7fefe74    ..t.    BL       am_hal_interrupt_master_disable ; 0x18338
        0x00019650:    9000        ..      STR      r0,[sp,#0]
        0x00019652:    f8d80000    ....    LDR      r0,[r8,#0]
        0x00019656:    ea400009    @...    ORR      r0,r0,r9
        0x0001965a:    f8c80000    ....    STR      r0,[r8,#0]
        0x0001965e:    9800        ..      LDR      r0,[sp,#0]
        0x00019660:    f7fefe6e    ..n.    BL       am_hal_interrupt_master_set ; 0x18340
        0x00019664:    2001        .       MOVS     r0,#1
        0x00019666:    462b        +F      MOV      r3,r5
        0x00019668:    9000        ..      STR      r0,[sp,#0]
        0x0001966a:    461a        .F      MOV      r2,r3
        0x0001966c:    4631        1F      MOV      r1,r6
        0x0001966e:    2005        .       MOVS     r0,#5
        0x00019670:    f7fffc60    ..`.    BL       am_hal_delay_us_status_check ; 0x18f34
        0x00019674:    ea5f0800    _...    MOVS     r8,r0
        0x00019678:    d00a        ..      BEQ      0x19690 ; am_hal_pwrctrl_periph_enable + 124
        0x0001967a:    2c14        .,      CMP      r4,#0x14
        0x0001967c:    d105        ..      BNE      0x1968a ; am_hal_pwrctrl_periph_enable + 118
        0x0001967e:    6ab9        .j      LDR      r1,[r7,#0x28]
        0x00019680:    2900        .)      CMP      r1,#0
        0x00019682:    bf1c        ..      ITT      NE
        0x00019684:    2000        .       MOVNE    r0,#0
        0x00019686:    f002f845    ..E.    BLNE     crypto_boost_trims ; 0x1b714
        0x0001968a:    4640        @F      MOV      r0,r8
        0x0001968c:    e8bd83f8    ....    POP      {r3-r9,pc}
        0x00019690:    2c14        .,      CMP      r4,#0x14
        0x00019692:    d109        ..      BNE      0x196a8 ; am_hal_pwrctrl_periph_enable + 148
        0x00019694:    2301        .#      MOVS     r3,#1
        0x00019696:    461a        .F      MOV      r2,r3
        0x00019698:    490a        .I      LDR      r1,[pc,#40] ; [0x196c4] = 0x400c1f10
        0x0001969a:    2064        d       MOVS     r0,#0x64
        0x0001969c:    f7fffc1e    ....    BL       am_hal_delay_us_status_change ; 0x18edc
        0x000196a0:    2800        .(      CMP      r0,#0
        0x000196a2:    bf18        ..      IT       NE
        0x000196a4:    e8bd83f8    ....    POPNE    {r3-r9,pc}
        0x000196a8:    6830        0h      LDR      r0,[r6,#0]
        0x000196aa:    4228        (B      TST      r0,r5
        0x000196ac:    bf04        ..      ITT      EQ
        0x000196ae:    2001        .       MOVEQ    r0,#1
        0x000196b0:    e8bd83f8    ....    POPEQ    {r3-r9,pc}
        0x000196b4:    2000        .       MOVS     r0,#0
        0x000196b6:    e8bd83f8    ....    POP      {r3-r9,pc}
    $d
        0x000196ba:    0000        ..      DCW    0
        0x000196bc:    0001e7d4    ....    DCD    124884
        0x000196c0:    100000e0    ....    DCD    268435680
        0x000196c4:    400c1f10    ...@    DCD    1074536208
    $t
    i.am_hal_queue_init
    am_hal_queue_init
        0x000196c8:    f04f0c00    O...    MOV      r12,#0
        0x000196cc:    f8c0c000    ....    STR      r12,[r0,#0]
        0x000196d0:    f8c0c004    ....    STR      r12,[r0,#4]
        0x000196d4:    f8c0c008    ....    STR      r12,[r0,#8]
        0x000196d8:    60c3        .`      STR      r3,[r0,#0xc]
        0x000196da:    e9c02104    ...!    STRD     r2,r1,[r0,#0x10]
        0x000196de:    4770        pG      BX       lr
    i.am_hal_queue_item_add
    am_hal_queue_item_add
        0x000196e0:    b5f8        ..      PUSH     {r3-r7,lr}
        0x000196e2:    4604        .F      MOV      r4,r0
        0x000196e4:    6900        .i      LDR      r0,[r0,#0x10]
        0x000196e6:    460e        .F      MOV      r6,r1
        0x000196e8:    fb00f502    ....    MUL      r5,r0,r2
        0x000196ec:    2700        .'      MOVS     r7,#0
        0x000196ee:    f7fefe23    ..#.    BL       am_hal_interrupt_master_disable ; 0x18338
        0x000196f2:    9000        ..      STR      r0,[sp,#0]
        0x000196f4:    68a1        .h      LDR      r1,[r4,#8]
        0x000196f6:    68e0        .h      LDR      r0,[r4,#0xc]
        0x000196f8:    1a40        @.      SUBS     r0,r0,r1
        0x000196fa:    4285        .B      CMP      r5,r0
        0x000196fc:    d816        ..      BHI      0x1972c ; am_hal_queue_item_add + 76
        0x000196fe:    2000        .       MOVS     r0,#0
        0x00019700:    2d00        .-      CMP      r5,#0
        0x00019702:    d90f        ..      BLS      0x19724 ; am_hal_queue_item_add + 68
        0x00019704:    b11e        ..      CBZ      r6,0x1970e ; am_hal_queue_item_add + 46
        0x00019706:    5c31        1\      LDRB     r1,[r6,r0]
        0x00019708:    6823        #h      LDR      r3,[r4,#0]
        0x0001970a:    6962        bi      LDR      r2,[r4,#0x14]
        0x0001970c:    54d1        .T      STRB     r1,[r2,r3]
        0x0001970e:    6821        !h      LDR      r1,[r4,#0]
        0x00019710:    68e2        .h      LDR      r2,[r4,#0xc]
        0x00019712:    1c49        I.      ADDS     r1,r1,#1
        0x00019714:    fbb1f3f2    ....    UDIV     r3,r1,r2
        0x00019718:    fb021113    ....    MLS      r1,r2,r3,r1
        0x0001971c:    6021        !`      STR      r1,[r4,#0]
        0x0001971e:    1c40        @.      ADDS     r0,r0,#1
        0x00019720:    42a8        .B      CMP      r0,r5
        0x00019722:    d3ef        ..      BCC      0x19704 ; am_hal_queue_item_add + 36
        0x00019724:    68a0        .h      LDR      r0,[r4,#8]
        0x00019726:    4428        (D      ADD      r0,r0,r5
        0x00019728:    60a0        .`      STR      r0,[r4,#8]
        0x0001972a:    2701        .'      MOVS     r7,#1
        0x0001972c:    9800        ..      LDR      r0,[sp,#0]
        0x0001972e:    f7fefe07    ....    BL       am_hal_interrupt_master_set ; 0x18340
        0x00019732:    4638        8F      MOV      r0,r7
        0x00019734:    bdf8        ..      POP      {r3-r7,pc}
    i.am_hal_queue_item_get
    am_hal_queue_item_get
        0x00019736:    b5f8        ..      PUSH     {r3-r7,lr}
        0x00019738:    4604        .F      MOV      r4,r0
        0x0001973a:    6900        .i      LDR      r0,[r0,#0x10]
        0x0001973c:    460e        .F      MOV      r6,r1
        0x0001973e:    fb00f502    ....    MUL      r5,r0,r2
        0x00019742:    2700        .'      MOVS     r7,#0
        0x00019744:    f7fefdf8    ....    BL       am_hal_interrupt_master_disable ; 0x18338
        0x00019748:    9000        ..      STR      r0,[sp,#0]
        0x0001974a:    68a0        .h      LDR      r0,[r4,#8]
        0x0001974c:    4285        .B      CMP      r5,r0
        0x0001974e:    d816        ..      BHI      0x1977e ; am_hal_queue_item_get + 72
        0x00019750:    2000        .       MOVS     r0,#0
        0x00019752:    2d00        .-      CMP      r5,#0
        0x00019754:    d90f        ..      BLS      0x19776 ; am_hal_queue_item_get + 64
        0x00019756:    b11e        ..      CBZ      r6,0x19760 ; am_hal_queue_item_get + 42
        0x00019758:    6962        bi      LDR      r2,[r4,#0x14]
        0x0001975a:    6861        ah      LDR      r1,[r4,#4]
        0x0001975c:    5c52        R\      LDRB     r2,[r2,r1]
        0x0001975e:    5432        2T      STRB     r2,[r6,r0]
        0x00019760:    6861        ah      LDR      r1,[r4,#4]
        0x00019762:    68e2        .h      LDR      r2,[r4,#0xc]
        0x00019764:    1c49        I.      ADDS     r1,r1,#1
        0x00019766:    fbb1f3f2    ....    UDIV     r3,r1,r2
        0x0001976a:    fb021113    ....    MLS      r1,r2,r3,r1
        0x0001976e:    6061        a`      STR      r1,[r4,#4]
        0x00019770:    1c40        @.      ADDS     r0,r0,#1
        0x00019772:    42a8        .B      CMP      r0,r5
        0x00019774:    d3ef        ..      BCC      0x19756 ; am_hal_queue_item_get + 32
        0x00019776:    68a0        .h      LDR      r0,[r4,#8]
        0x00019778:    1b40        @.      SUBS     r0,r0,r5
        0x0001977a:    60a0        .`      STR      r0,[r4,#8]
        0x0001977c:    2701        .'      MOVS     r7,#1
        0x0001977e:    9800        ..      LDR      r0,[sp,#0]
        0x00019780:    f7fefdde    ....    BL       am_hal_interrupt_master_set ; 0x18340
        0x00019784:    4638        8F      MOV      r0,r7
        0x00019786:    bdf8        ..      POP      {r3-r7,pc}
    i.am_hal_tpiu_enable
    am_hal_tpiu_enable
        0x00019788:    4914        .I      LDR      r1,[pc,#80] ; [0x197dc] = 0xe0040000
        0x0001978a:    2200        ."      MOVS     r2,#0
        0x0001978c:    f8c12304    ...#    STR      r2,[r1,#0x304]
        0x00019790:    2301        .#      MOVS     r3,#1
        0x00019792:    604b        K`      STR      r3,[r1,#4]
        0x00019794:    f8dfc048    ..H.    LDR      r12,[pc,#72] ; [0x197e0] = 0x1da381
        0x00019798:    f5a04361    ..aC    SUB      r3,r0,#0xe100
        0x0001979c:    4563        cE      CMP      r3,r12
        0x0001979e:    bf28        (.      IT       CS
        0x000197a0:    4810        .H      LDRCS    r0,[pc,#64] ; [0x197e4] = 0xf4240
        0x000197a2:    4b11        .K      LDR      r3,[pc,#68] ; [0x197e8] = 0x2dc6c00
        0x000197a4:    fbb3f0f0    ....    UDIV     r0,r3,r0
        0x000197a8:    1e40        @.      SUBS     r0,r0,#1
        0x000197aa:    b280        ..      UXTH     r0,r0
        0x000197ac:    6108        .a      STR      r0,[r1,#0x10]
        0x000197ae:    2002        .       MOVS     r0,#2
        0x000197b0:    f8c100f0    ....    STR      r0,[r1,#0xf0]
        0x000197b4:    480d        .H      LDR      r0,[pc,#52] ; [0x197ec] = 0xe0040f00
        0x000197b6:    6002        .`      STR      r2,[r0,#0]
        0x000197b8:    480d        .H      LDR      r0,[pc,#52] ; [0x197f0] = 0x40020000
        0x000197ba:    f8d01250    ..P.    LDR      r1,[r0,#0x250]
        0x000197be:    f021010e    !...    BIC      r1,r1,#0xe
        0x000197c2:    1d09        ..      ADDS     r1,r1,#4
        0x000197c4:    f8c01250    ..P.    STR      r1,[r0,#0x250]
        0x000197c8:    f8d01250    ..P.    LDR      r1,[r0,#0x250]
        0x000197cc:    f0410101    A...    ORR      r1,r1,#1
        0x000197d0:    f8c01250    ..P.    STR      r1,[r0,#0x250]
        0x000197d4:    2064        d       MOVS     r0,#0x64
        0x000197d6:    f7ffbb6b    ..k.    B        am_hal_delay_us ; 0x18eb0
    $d
        0x000197da:    0000        ..      DCW    0
        0x000197dc:    e0040000    ....    DCD    3758358528
        0x000197e0:    001da381    ....    DCD    1942401
        0x000197e4:    000f4240    @B..    DCD    1000000
        0x000197e8:    02dc6c00    .l..    DCD    48000000
        0x000197ec:    e0040f00    ....    DCD    3758362368
        0x000197f0:    40020000    ...@    DCD    1073872896
    $t
    i.am_hal_uart_buffer_configure
    am_hal_uart_buffer_configure
        0x000197f4:    e92d41f0    -..A    PUSH     {r4-r8,lr}
        0x000197f8:    461f        .F      MOV      r7,r3
        0x000197fa:    f8dd8018    ....    LDR      r8,[sp,#0x18]
        0x000197fe:    1e04        ..      SUBS     r4,r0,#0
        0x00019800:    bf1c        ..      ITT      NE
        0x00019802:    6820         h      LDRNE    r0,[r4,#0]
        0x00019804:    f0107f80    ....    TSTNE    r0,#0x1000000
        0x00019808:    d004        ..      BEQ      0x19814 ; am_hal_uart_buffer_configure + 32
        0x0001980a:    4b16        .K      LDR      r3,[pc,#88] ; [0x19864] = 0xea9e06
        0x0001980c:    f020407f     ..@    BIC      r0,r0,#0xff000000
        0x00019810:    4298        .B      CMP      r0,r3
        0x00019812:    d002        ..      BEQ      0x1981a ; am_hal_uart_buffer_configure + 38
        0x00019814:    2002        .       MOVS     r0,#2
        0x00019816:    e8bd81f0    ....    POP      {r4-r8,pc}
        0x0001981a:    2501        .%      MOVS     r5,#1
        0x0001981c:    2600        .&      MOVS     r6,#0
        0x0001981e:    2900        .)      CMP      r1,#0
        0x00019820:    bf14        ..      ITE      NE
        0x00019822:    2a00        .*      CMPNE    r2,#0
        0x00019824:    f884607c    ..|`    STRBEQ   r6,[r4,#0x7c]
        0x00019828:    d008        ..      BEQ      0x1983c ; am_hal_uart_buffer_configure + 72
        0x0001982a:    4613        .F      MOV      r3,r2
        0x0001982c:    f884507c    ..|P    STRB     r5,[r4,#0x7c]
        0x00019830:    f04f0201    O...    MOV      r2,#1
        0x00019834:    f1040080    ....    ADD      r0,r4,#0x80
        0x00019838:    f7ffff46    ..F.    BL       am_hal_queue_init ; 0x196c8
        0x0001983c:    2f00        ./      CMP      r7,#0
        0x0001983e:    bf14        ..      ITE      NE
        0x00019840:    f1b80f00    ....    CMPNE    r8,#0
        0x00019844:    f8846098    ...`    STRBEQ   r6,[r4,#0x98]
        0x00019848:    d009        ..      BEQ      0x1985e ; am_hal_uart_buffer_configure + 106
        0x0001984a:    f8845098    ...P    STRB     r5,[r4,#0x98]
        0x0001984e:    4643        CF      MOV      r3,r8
        0x00019850:    f04f0201    O...    MOV      r2,#1
        0x00019854:    4639        9F      MOV      r1,r7
        0x00019856:    f104009c    ....    ADD      r0,r4,#0x9c
        0x0001985a:    f7ffff35    ..5.    BL       am_hal_queue_init ; 0x196c8
        0x0001985e:    2000        .       MOVS     r0,#0
        0x00019860:    e8bd81f0    ....    POP      {r4-r8,pc}
    $d
        0x00019864:    00ea9e06    ....    DCD    15375878
    $t
    i.am_hal_uart_configure
    am_hal_uart_configure
        0x00019868:    6a42        Bj      LDR      r2,[r0,#0x24]
        0x0001986a:    2800        .(      CMP      r0,#0
        0x0001986c:    bf1c        ..      ITT      NE
        0x0001986e:    6803        .h      LDRNE    r3,[r0,#0]
        0x00019870:    f0137f80    ....    TSTNE    r3,#0x1000000
        0x00019874:    d005        ..      BEQ      0x19882 ; am_hal_uart_configure + 26
        0x00019876:    f8dfc164    ..d.    LDR      r12,[pc,#356] ; [0x199dc] = 0xea9e06
        0x0001987a:    f023437f    #..C    BIC      r3,r3,#0xff000000
        0x0001987e:    4563        cE      CMP      r3,r12
        0x00019880:    d001        ..      BEQ      0x19886 ; am_hal_uart_configure + 30
        0x00019882:    2002        .       MOVS     r0,#2
        0x00019884:    4770        pG      BX       lr
        0x00019886:    b470        p.      PUSH     {r4-r6}
        0x00019888:    2500        .%      MOVS     r5,#0
        0x0001988a:    0312        ..      LSLS     r2,r2,#12
        0x0001988c:    f1024280    ...B    ADD      r2,r2,#0x40000000
        0x00019890:    f50232e0    ...2    ADD      r2,r2,#0x1c000
        0x00019894:    6315        .c      STR      r5,[r2,#0x30]
        0x00019896:    6b13        .k      LDR      r3,[r2,#0x30]
        0x00019898:    f0430308    C...    ORR      r3,r3,#8
        0x0001989c:    6313        .c      STR      r3,[r2,#0x30]
        0x0001989e:    f8dfc140    ..@.    LDR      r12,[pc,#320] ; [0x199e0] = 0x16e360
        0x000198a2:    680b        .h      LDR      r3,[r1,#0]
        0x000198a4:    4563        cE      CMP      r3,r12
        0x000198a6:    6b13        .k      LDR      r3,[r2,#0x30]
        0x000198a8:    f0230370    #.p.    BIC      r3,r3,#0x70
        0x000198ac:    bf8c        ..      ITE      HI
        0x000198ae:    3350        P3      ADDHI    r3,r3,#0x50
        0x000198b0:    3310        .3      ADDLS    r3,r3,#0x10
        0x000198b2:    6313        .c      STR      r3,[r2,#0x30]
        0x000198b4:    6b13        .k      LDR      r3,[r2,#0x30]
        0x000198b6:    f0230301    #...    BIC      r3,r3,#1
        0x000198ba:    6313        .c      STR      r3,[r2,#0x30]
        0x000198bc:    6b13        .k      LDR      r3,[r2,#0x30]
        0x000198be:    f4237300    #..s    BIC      r3,r3,#0x200
        0x000198c2:    6313        .c      STR      r3,[r2,#0x30]
        0x000198c4:    6b13        .k      LDR      r3,[r2,#0x30]
        0x000198c6:    f4237380    #..s    BIC      r3,r3,#0x100
        0x000198ca:    6313        .c      STR      r3,[r2,#0x30]
        0x000198cc:    f8d1c000    ....    LDR      r12,[r1,#0]
        0x000198d0:    6b13        .k      LDR      r3,[r2,#0x30]
        0x000198d2:    f3c31302    ....    UBFX     r3,r3,#4,#3
        0x000198d6:    2b06        .+      CMP      r3,#6
        0x000198d8:    d27c        |.      BCS      0x199d4 ; am_hal_uart_configure + 364
        0x000198da:    e8dff003    ....    TBB      [pc,r3]
    $d
        0x000198de:    057b        {.      DCW    1403
        0x000198e0:    030b0907    ....    DCD    51054855
    $t
        0x000198e4:    4b3f        ?K      LDR      r3,[pc,#252] ; [0x199e4] = 0x2dc6c00
        0x000198e6:    e006        ..      B        0x198f6 ; am_hal_uart_configure + 142
        0x000198e8:    4b3f        ?K      LDR      r3,[pc,#252] ; [0x199e8] = 0x16e3600
        0x000198ea:    e004        ..      B        0x198f6 ; am_hal_uart_configure + 142
        0x000198ec:    4b3f        ?K      LDR      r3,[pc,#252] ; [0x199ec] = 0xb71b00
        0x000198ee:    e002        ..      B        0x198f6 ; am_hal_uart_configure + 142
        0x000198f0:    4b3f        ?K      LDR      r3,[pc,#252] ; [0x199f0] = 0x5b8d80
        0x000198f2:    e000        ..      B        0x198f6 ; am_hal_uart_configure + 142
        0x000198f4:    4b3f        ?K      LDR      r3,[pc,#252] ; [0x199f4] = 0x2dc6c0
        0x000198f6:    ea4f1c0c    O...    LSL      r12,r12,#4
        0x000198fa:    fbb3f4fc    ....    UDIV     r4,r3,r12
        0x000198fe:    019e        ..      LSLS     r6,r3,#6
        0x00019900:    fbb6fcfc    ....    UDIV     r12,r6,r12
        0x00019904:    01a6        ..      LSLS     r6,r4,#6
        0x00019906:    ebbc0c06    ....    SUBS     r12,r12,r6
        0x0001990a:    2c00        .,      CMP      r4,#0
        0x0001990c:    bf01        ..      ITTTT    EQ
        0x0001990e:    6285        .b      STREQ    r5,[r0,#0x28]
        0x00019910:    4839        9H      LDREQ    r0,[pc,#228] ; [0x199f8] = 0x8000003
        0x00019912:    bc70        p.      POPEQ    {r4-r6}
        0x00019914:    4770        pG      BXEQ     lr
        0x00019916:    6254        Tb      STR      r4,[r2,#0x24]
        0x00019918:    f8c2c028    ..(.    STR      r12,[r2,#0x28]
        0x0001991c:    0124        $.      LSLS     r4,r4,#4
        0x0001991e:    eb040c9c    ....    ADD      r12,r4,r12,LSR #2
        0x00019922:    fbb3f3fc    ....    UDIV     r3,r3,r12
        0x00019926:    6283        .b      STR      r3,[r0,#0x28]
        0x00019928:    6b10        .k      LDR      r0,[r2,#0x30]
        0x0001992a:    f4204080     ..@    BIC      r0,r0,#0x4000
        0x0001992e:    6310        .c      STR      r0,[r2,#0x30]
        0x00019930:    6b10        .k      LDR      r0,[r2,#0x30]
        0x00019932:    f4204000     ..@    BIC      r0,r0,#0x8000
        0x00019936:    6310        .c      STR      r0,[r2,#0x30]
        0x00019938:    6b10        .k      LDR      r0,[r2,#0x30]
        0x0001993a:    890b        ..      LDRH     r3,[r1,#8]
        0x0001993c:    4318        .C      ORRS     r0,r0,r3
        0x0001993e:    6310        .c      STR      r0,[r2,#0x30]
        0x00019940:    2000        .       MOVS     r0,#0
        0x00019942:    f891c005    ....    LDRB     r12,[r1,#5]
        0x00019946:    4603        .F      MOV      r3,r0
        0x00019948:    f1bc0f00    ....    CMP      r12,#0
        0x0001994c:    bf08        ..      IT       EQ
        0x0001994e:    2001        .       MOVEQ    r0,#1
        0x00019950:    d004        ..      BEQ      0x1995c ; am_hal_uart_configure + 244
        0x00019952:    f1bc0f01    ....    CMP      r12,#1
        0x00019956:    bf04        ..      ITT      EQ
        0x00019958:    2001        .       MOVEQ    r0,#1
        0x0001995a:    4603        .F      MOVEQ    r3,r0
        0x0001995c:    f8d2c02c    ..,.    LDR      r12,[r2,#0x2c]
        0x00019960:    f02c0c01    ,...    BIC      r12,r12,#1
        0x00019964:    f8c2c02c    ..,.    STR      r12,[r2,#0x2c]
        0x00019968:    f8d2c02c    ..,.    LDR      r12,[r2,#0x2c]
        0x0001996c:    f3600c41    `.A.    BFI      r12,r0,#1,#1
        0x00019970:    f8c2c02c    ..,.    STR      r12,[r2,#0x2c]
        0x00019974:    6ad0        .j      LDR      r0,[r2,#0x2c]
        0x00019976:    f3630082    c...    BFI      r0,r3,#2,#1
        0x0001997a:    62d0        .b      STR      r0,[r2,#0x2c]
        0x0001997c:    798b        .y      LDRB     r3,[r1,#6]
        0x0001997e:    6ad0        .j      LDR      r0,[r2,#0x2c]
        0x00019980:    f36300c3    c...    BFI      r0,r3,#3,#1
        0x00019984:    62d0        .b      STR      r0,[r2,#0x2c]
        0x00019986:    6ad0        .j      LDR      r0,[r2,#0x2c]
        0x00019988:    f0400010    @...    ORR      r0,r0,#0x10
        0x0001998c:    62d0        .b      STR      r0,[r2,#0x2c]
        0x0001998e:    790b        .y      LDRB     r3,[r1,#4]
        0x00019990:    6ad0        .j      LDR      r0,[r2,#0x2c]
        0x00019992:    f3631046    c.F.    BFI      r0,r3,#5,#2
        0x00019996:    62d0        .b      STR      r0,[r2,#0x2c]
        0x00019998:    6ad0        .j      LDR      r0,[r2,#0x2c]
        0x0001999a:    f0200080     ...    BIC      r0,r0,#0x80
        0x0001999e:    62d0        .b      STR      r0,[r2,#0x2c]
        0x000199a0:    7a8b        .z      LDRB     r3,[r1,#0xa]
        0x000199a2:    6b50        Pk      LDR      r0,[r2,#0x34]
        0x000199a4:    f3630002    c...    BFI      r0,r3,#0,#3
        0x000199a8:    6350        Pc      STR      r0,[r2,#0x34]
        0x000199aa:    7ac9        .z      LDRB     r1,[r1,#0xb]
        0x000199ac:    6b50        Pk      LDR      r0,[r2,#0x34]
        0x000199ae:    f36100c5    a...    BFI      r0,r1,#3,#3
        0x000199b2:    6350        Pc      STR      r0,[r2,#0x34]
        0x000199b4:    6b10        .k      LDR      r0,[r2,#0x30]
        0x000199b6:    f0400001    @...    ORR      r0,r0,#1
        0x000199ba:    6310        .c      STR      r0,[r2,#0x30]
        0x000199bc:    6b10        .k      LDR      r0,[r2,#0x30]
        0x000199be:    f4407000    @..p    ORR      r0,r0,#0x200
        0x000199c2:    6310        .c      STR      r0,[r2,#0x30]
        0x000199c4:    6b10        .k      LDR      r0,[r2,#0x30]
        0x000199c6:    f4407080    @..p    ORR      r0,r0,#0x100
        0x000199ca:    6310        .c      STR      r0,[r2,#0x30]
        0x000199cc:    bc70        p.      POP      {r4-r6}
        0x000199ce:    2000        .       MOVS     r0,#0
        0x000199d0:    4770        pG      BX       lr
        0x000199d2:    e7ff        ..      B        0x199d4 ; am_hal_uart_configure + 364
        0x000199d4:    6285        .b      STR      r5,[r0,#0x28]
        0x000199d6:    bc70        p.      POP      {r4-r6}
        0x000199d8:    4808        .H      LDR      r0,[pc,#32] ; [0x199fc] = 0x8000002
        0x000199da:    4770        pG      BX       lr
    $d
        0x000199dc:    00ea9e06    ....    DCD    15375878
        0x000199e0:    0016e360    `...    DCD    1500000
        0x000199e4:    02dc6c00    .l..    DCD    48000000
        0x000199e8:    016e3600    .6n.    DCD    24000000
        0x000199ec:    00b71b00    ....    DCD    12000000
        0x000199f0:    005b8d80    ..[.    DCD    6000000
        0x000199f4:    002dc6c0    ..-.    DCD    3000000
        0x000199f8:    08000003    ....    DCD    134217731
        0x000199fc:    08000002    ....    DCD    134217730
    $t
    i.am_hal_uart_initialize
    am_hal_uart_initialize
        0x00019a00:    2804        .(      CMP      r0,#4
        0x00019a02:    bf24        $.      ITT      CS
        0x00019a04:    2005        .       MOVCS    r0,#5
        0x00019a06:    4770        pG      BXCS     lr
        0x00019a08:    2900        .)      CMP      r1,#0
        0x00019a0a:    bf04        ..      ITT      EQ
        0x00019a0c:    2006        .       MOVEQ    r0,#6
        0x00019a0e:    4770        pG      BXEQ     lr
        0x00019a10:    b410        ..      PUSH     {r4}
        0x00019a12:    680a        .h      LDR      r2,[r1,#0]
        0x00019a14:    4c18        .L      LDR      r4,[pc,#96] ; [0x19a78] = 0xea9e06
        0x00019a16:    2a00        .*      CMP      r2,#0
        0x00019a18:    bf1c        ..      ITT      NE
        0x00019a1a:    6812        .h      LDRNE    r2,[r2,#0]
        0x00019a1c:    f0127f80    ....    TSTNE    r2,#0x1000000
        0x00019a20:    d006        ..      BEQ      0x19a30 ; am_hal_uart_initialize + 48
        0x00019a22:    f022427f    "..B    BIC      r2,r2,#0xff000000
        0x00019a26:    42a2        .B      CMP      r2,r4
        0x00019a28:    bf02        ..      ITTT     EQ
        0x00019a2a:    2007        .       MOVEQ    r0,#7
        0x00019a2c:    bc10        ..      POPEQ    {r4}
        0x00019a2e:    4770        pG      BXEQ     lr
        0x00019a30:    ebc002c0    ....    RSB      r2,r0,r0,LSL #3
        0x00019a34:    eb021c00    ....    ADD      r12,r2,r0,LSL #4
        0x00019a38:    4b10        .K      LDR      r3,[pc,#64] ; [0x19a7c] = 0x10001008
        0x00019a3a:    f853203c    S.<     LDR      r2,[r3,r12,LSL #3]
        0x00019a3e:    f0427280    B..r    ORR      r2,r2,#0x1000000
        0x00019a42:    f3640217    d...    BFI      r2,r4,#0,#24
        0x00019a46:    f843203c    C.<     STR      r2,[r3,r12,LSL #3]
        0x00019a4a:    eb0302cc    ....    ADD      r2,r3,r12,LSL #3
        0x00019a4e:    6250        Pb      STR      r0,[r2,#0x24]
        0x00019a50:    2000        .       MOVS     r0,#0
        0x00019a52:    7110        .q      STRB     r0,[r2,#4]
        0x00019a54:    6290        .b      STR      r0,[r2,#0x28]
        0x00019a56:    f882002c    ..,.    STRB     r0,[r2,#0x2c]
        0x00019a5a:    f8820054    ..T.    STRB     r0,[r2,#0x54]
        0x00019a5e:    f882007c    ..|.    STRB     r0,[r2,#0x7c]
        0x00019a62:    f8820098    ....    STRB     r0,[r2,#0x98]
        0x00019a66:    6790        .g      STR      r0,[r2,#0x78]
        0x00019a68:    6510        .e      STR      r0,[r2,#0x50]
        0x00019a6a:    2001        .       MOVS     r0,#1
        0x00019a6c:    f88200b4    ....    STRB     r0,[r2,#0xb4]
        0x00019a70:    600a        .`      STR      r2,[r1,#0]
        0x00019a72:    bc10        ..      POP      {r4}
        0x00019a74:    2000        .       MOVS     r0,#0
        0x00019a76:    4770        pG      BX       lr
    $d
        0x00019a78:    00ea9e06    ....    DCD    15375878
        0x00019a7c:    10001008    ....    DCD    268439560
    $t
    i.am_hal_uart_power_control
    am_hal_uart_power_control
        0x00019a80:    b570        p.      PUSH     {r4-r6,lr}
        0x00019a82:    6a46        Fj      LDR      r6,[r0,#0x24]
        0x00019a84:    1e04        ..      SUBS     r4,r0,#0
        0x00019a86:    f1060309    ....    ADD      r3,r6,#9
        0x00019a8a:    b2db        ..      UXTB     r3,r3
        0x00019a8c:    bf1c        ..      ITT      NE
        0x00019a8e:    6820         h      LDRNE    r0,[r4,#0]
        0x00019a90:    f0107f80    ....    TSTNE    r0,#0x1000000
        0x00019a94:    d005        ..      BEQ      0x19aa2 ; am_hal_uart_power_control + 34
        0x00019a96:    f8dfc0cc    ....    LDR      r12,[pc,#204] ; [0x19b64] = 0xea9e06
        0x00019a9a:    f020407f     ..@    BIC      r0,r0,#0xff000000
        0x00019a9e:    4560        `E      CMP      r0,r12
        0x00019aa0:    d001        ..      BEQ      0x19aa6 ; am_hal_uart_power_control + 38
        0x00019aa2:    2002        .       MOVS     r0,#2
        0x00019aa4:    bd70        p.      POP      {r4-r6,pc}
        0x00019aa6:    2500        .%      MOVS     r5,#0
        0x00019aa8:    2900        .)      CMP      r1,#0
        0x00019aaa:    d038        8.      BEQ      0x19b1e ; am_hal_uart_power_control + 158
        0x00019aac:    2901        .)      CMP      r1,#1
        0x00019aae:    bf1e        ..      ITTT     NE
        0x00019ab0:    2902        .)      CMPNE    r1,#2
        0x00019ab2:    2006        .       MOVNE    r0,#6
        0x00019ab4:    bd70        p.      POPNE    {r4-r6,pc}
        0x00019ab6:    b1b2        ..      CBZ      r2,0x19ae6 ; am_hal_uart_power_control + 102
        0x00019ab8:    ea4f3006    O..0    LSL      r0,r6,#12
        0x00019abc:    f1004080    ...@    ADD      r0,r0,#0x40000000
        0x00019ac0:    f50030e0    ...0    ADD      r0,r0,#0x1c000
        0x00019ac4:    6a01        .j      LDR      r1,[r0,#0x20]
        0x00019ac6:    60a1        .`      STR      r1,[r4,#8]
        0x00019ac8:    6a41        Aj      LDR      r1,[r0,#0x24]
        0x00019aca:    60e1        .`      STR      r1,[r4,#0xc]
        0x00019acc:    6a81        .j      LDR      r1,[r0,#0x28]
        0x00019ace:    6121        !a      STR      r1,[r4,#0x10]
        0x00019ad0:    6ac1        .j      LDR      r1,[r0,#0x2c]
        0x00019ad2:    6161        aa      STR      r1,[r4,#0x14]
        0x00019ad4:    6b01        .k      LDR      r1,[r0,#0x30]
        0x00019ad6:    61a1        .a      STR      r1,[r4,#0x18]
        0x00019ad8:    6b41        Ak      LDR      r1,[r0,#0x34]
        0x00019ada:    61e1        .a      STR      r1,[r4,#0x1c]
        0x00019adc:    6b80        .k      LDR      r0,[r0,#0x38]
        0x00019ade:    6220         b      STR      r0,[r4,#0x20]
        0x00019ae0:    f04f0001    O...    MOV      r0,#1
        0x00019ae4:    7120         q      STRB     r0,[r4,#4]
        0x00019ae6:    6822        "h      LDR      r2,[r4,#0]
        0x00019ae8:    6a61        aj      LDR      r1,[r4,#0x24]
        0x00019aea:    f04f30ff    O..0    MOV      r0,#0xffffffff
        0x00019aee:    f0127f80    ....    TST      r2,#0x1000000
        0x00019af2:    d009        ..      BEQ      0x19b08 ; am_hal_uart_power_control + 136
        0x00019af4:    f022427f    "..B    BIC      r2,r2,#0xff000000
        0x00019af8:    4562        bE      CMP      r2,r12
        0x00019afa:    d105        ..      BNE      0x19b08 ; am_hal_uart_power_control + 136
        0x00019afc:    0309        ..      LSLS     r1,r1,#12
        0x00019afe:    f1014180    ...A    ADD      r1,r1,#0x40000000
        0x00019b02:    f50131e0    ...1    ADD      r1,r1,#0x1c000
        0x00019b06:    6448        Hd      STR      r0,[r1,#0x44]
        0x00019b08:    0330        0.      LSLS     r0,r6,#12
        0x00019b0a:    f1004080    ...@    ADD      r0,r0,#0x40000000
        0x00019b0e:    f50030e0    ...0    ADD      r0,r0,#0x1c000
        0x00019b12:    6305        .c      STR      r5,[r0,#0x30]
        0x00019b14:    4618        .F      MOV      r0,r3
        0x00019b16:    f7fffce7    ....    BL       am_hal_pwrctrl_periph_disable ; 0x194e8
        0x00019b1a:    2000        .       MOVS     r0,#0
        0x00019b1c:    bd70        p.      POP      {r4-r6,pc}
        0x00019b1e:    b1e2        ..      CBZ      r2,0x19b5a ; am_hal_uart_power_control + 218
        0x00019b20:    7920         y      LDRB     r0,[r4,#4]
        0x00019b22:    2800        .(      CMP      r0,#0
        0x00019b24:    bf04        ..      ITT      EQ
        0x00019b26:    2007        .       MOVEQ    r0,#7
        0x00019b28:    bd70        p.      POPEQ    {r4-r6,pc}
        0x00019b2a:    4618        .F      MOV      r0,r3
        0x00019b2c:    f7fffd72    ..r.    BL       am_hal_pwrctrl_periph_enable ; 0x19614
        0x00019b30:    0330        0.      LSLS     r0,r6,#12
        0x00019b32:    f1004080    ...@    ADD      r0,r0,#0x40000000
        0x00019b36:    f50030e0    ...0    ADD      r0,r0,#0x1c000
        0x00019b3a:    68a1        .h      LDR      r1,[r4,#8]
        0x00019b3c:    6201        .b      STR      r1,[r0,#0x20]
        0x00019b3e:    68e1        .h      LDR      r1,[r4,#0xc]
        0x00019b40:    6241        Ab      STR      r1,[r0,#0x24]
        0x00019b42:    6921        !i      LDR      r1,[r4,#0x10]
        0x00019b44:    6281        .b      STR      r1,[r0,#0x28]
        0x00019b46:    6961        ai      LDR      r1,[r4,#0x14]
        0x00019b48:    62c1        .b      STR      r1,[r0,#0x2c]
        0x00019b4a:    69a1        .i      LDR      r1,[r4,#0x18]
        0x00019b4c:    6301        .c      STR      r1,[r0,#0x30]
        0x00019b4e:    69e1        .i      LDR      r1,[r4,#0x1c]
        0x00019b50:    6341        Ac      STR      r1,[r0,#0x34]
        0x00019b52:    6a21        !j      LDR      r1,[r4,#0x20]
        0x00019b54:    6381        .c      STR      r1,[r0,#0x38]
        0x00019b56:    7125        %q      STRB     r5,[r4,#4]
        0x00019b58:    e7df        ..      B        0x19b1a ; am_hal_uart_power_control + 154
        0x00019b5a:    4618        .F      MOV      r0,r3
        0x00019b5c:    f7fffd5a    ..Z.    BL       am_hal_pwrctrl_periph_enable ; 0x19614
        0x00019b60:    e7db        ..      B        0x19b1a ; am_hal_uart_power_control + 154
    $d
        0x00019b62:    0000        ..      DCW    0
        0x00019b64:    00ea9e06    ....    DCD    15375878
    $t
    i.am_hal_uart_transfer
    am_hal_uart_transfer
        0x00019b68:    e92d4ff8    -..O    PUSH     {r3-r11,lr}
        0x00019b6c:    460d        .F      MOV      r5,r1
        0x00019b6e:    4604        .F      MOV      r4,r0
        0x00019b70:    780a        .x      LDRB     r2,[r1,#0]
        0x00019b72:    2002        .       MOVS     r0,#2
        0x00019b74:    4999        .I      LDR      r1,[pc,#612] ; [0x19ddc] = 0xea9e06
        0x00019b76:    4f9a        .O      LDR      r7,[pc,#616] ; [0x19de0] = 0x8000004
        0x00019b78:    f04f0901    O...    MOV      r9,#1
        0x00019b7c:    f04f0a04    O...    MOV      r10,#4
        0x00019b80:    2600        .&      MOVS     r6,#0
        0x00019b82:    b352        R.      CBZ      r2,0x19bda ; am_hal_uart_transfer + 114
        0x00019b84:    f1070801    ....    ADD      r8,r7,#1
        0x00019b88:    2a01        .*      CMP      r2,#1
        0x00019b8a:    d07b        {.      BEQ      0x19c84 ; am_hal_uart_transfer + 284
        0x00019b8c:    2a02        .*      CMP      r2,#2
        0x00019b8e:    f00080cd    ....    BEQ.W    0x19d2c ; am_hal_uart_transfer + 452
        0x00019b92:    2a03        .*      CMP      r2,#3
        0x00019b94:    bf1c        ..      ITT      NE
        0x00019b96:    2001        .       MOVNE    r0,#1
        0x00019b98:    e8bd8ff8    ....    POPNE    {r3-r11,pc}
        0x00019b9c:    68ea        .h      LDR      r2,[r5,#0xc]
        0x00019b9e:    2c00        .,      CMP      r4,#0
        0x00019ba0:    bf1a        ..      ITTE     NE
        0x00019ba2:    6823        #h      LDRNE    r3,[r4,#0]
        0x00019ba4:    f0137f80    ....    TSTNE    r3,#0x1000000
        0x00019ba8:    e8bd8ff8    ....    POPEQ    {r3-r11,pc}
        0x00019bac:    f023437f    #..C    BIC      r3,r3,#0xff000000
        0x00019bb0:    428b        .B      CMP      r3,r1
        0x00019bb2:    bf18        ..      IT       NE
        0x00019bb4:    e8bd8ff8    ....    POPNE    {r3-r11,pc}
        0x00019bb8:    2a00        .*      CMP      r2,#0
        0x00019bba:    bf18        ..      IT       NE
        0x00019bbc:    6016        .`      STRNE    r6,[r2,#0]
        0x00019bbe:    f7fefbbb    ....    BL       am_hal_interrupt_master_disable ; 0x18338
        0x00019bc2:    9000        ..      STR      r0,[sp,#0]
        0x00019bc4:    f894002c    ..,.    LDRB     r0,[r4,#0x2c]
        0x00019bc8:    2800        .(      CMP      r0,#0
        0x00019bca:    f00080e9    ....    BEQ.W    0x19da0 ; am_hal_uart_transfer + 568
        0x00019bce:    9800        ..      LDR      r0,[sp,#0]
        0x00019bd0:    f7fefbb6    ....    BL       am_hal_interrupt_master_set ; 0x18340
        0x00019bd4:    4640        @F      MOV      r0,r8
        0x00019bd6:    e8bd8ff8    ....    POP      {r3-r11,pc}
        0x00019bda:    68ea        .h      LDR      r2,[r5,#0xc]
        0x00019bdc:    f04f0800    O...    MOV      r8,#0
        0x00019be0:    2c00        .,      CMP      r4,#0
        0x00019be2:    bf1a        ..      ITTE     NE
        0x00019be4:    6823        #h      LDRNE    r3,[r4,#0]
        0x00019be6:    f0137f80    ....    TSTNE    r3,#0x1000000
        0x00019bea:    e8bd8ff8    ....    POPEQ    {r3-r11,pc}
        0x00019bee:    f023437f    #..C    BIC      r3,r3,#0xff000000
        0x00019bf2:    428b        .B      CMP      r3,r1
        0x00019bf4:    bf18        ..      IT       NE
        0x00019bf6:    e8bd8ff8    ....    POPNE    {r3-r11,pc}
        0x00019bfa:    2a00        .*      CMP      r2,#0
        0x00019bfc:    bf18        ..      IT       NE
        0x00019bfe:    6016        .`      STRNE    r6,[r2,#0]
        0x00019c00:    f7fefb9a    ....    BL       am_hal_interrupt_master_disable ; 0x18338
        0x00019c04:    9000        ..      STR      r0,[sp,#0]
        0x00019c06:    f8940054    ..T.    LDRB     r0,[r4,#0x54]
        0x00019c0a:    2800        .(      CMP      r0,#0
        0x00019c0c:    d17e        ~.      BNE      0x19d0c ; am_hal_uart_transfer + 420
        0x00019c0e:    f8849054    ..T.    STRB     r9,[r4,#0x54]
        0x00019c12:    7829        )x      LDRB     r1,[r5,#0]
        0x00019c14:    f8841058    ..X.    STRB     r1,[r4,#0x58]
        0x00019c18:    6869        ih      LDR      r1,[r5,#4]
        0x00019c1a:    65e1        .e      STR      r1,[r4,#0x5c]
        0x00019c1c:    68a9        .h      LDR      r1,[r5,#8]
        0x00019c1e:    6621        !f      STR      r1,[r4,#0x60]
        0x00019c20:    68e9        .h      LDR      r1,[r5,#0xc]
        0x00019c22:    6661        af      STR      r1,[r4,#0x64]
        0x00019c24:    6929        )i      LDR      r1,[r5,#0x10]
        0x00019c26:    66a1        .f      STR      r1,[r4,#0x68]
        0x00019c28:    6969        ii      LDR      r1,[r5,#0x14]
        0x00019c2a:    66e1        .f      STR      r1,[r4,#0x6c]
        0x00019c2c:    69a9        .i      LDR      r1,[r5,#0x18]
        0x00019c2e:    6721        !g      STR      r1,[r4,#0x70]
        0x00019c30:    4620         F      MOV      r0,r4
        0x00019c32:    69e9        .i      LDR      r1,[r5,#0x1c]
        0x00019c34:    6761        ag      STR      r1,[r4,#0x74]
        0x00019c36:    6786        .g      STR      r6,[r0,#0x78]
        0x00019c38:    f88060b4    ...`    STRB     r6,[r0,#0xb4]
        0x00019c3c:    9800        ..      LDR      r0,[sp,#0]
        0x00019c3e:    f7fefb7f    ....    BL       am_hal_interrupt_master_set ; 0x18340
        0x00019c42:    4620         F      MOV      r0,r4
        0x00019c44:    f002fd5d    ..].    BL       nonblocking_write_sm ; 0x1c702
        0x00019c48:    f8940054    ..T.    LDRB     r0,[r4,#0x54]
        0x00019c4c:    2800        .(      CMP      r0,#0
        0x00019c4e:    d067        g.      BEQ      0x19d20 ; am_hal_uart_transfer + 440
        0x00019c50:    4620         F      MOV      r0,r4
        0x00019c52:    f002fd56    ..V.    BL       nonblocking_write_sm ; 0x1c702
        0x00019c56:    f44f707a    O.zp    MOV      r0,#0x3e8
        0x00019c5a:    f7fff929    ..).    BL       am_hal_delay_us ; 0x18eb0
        0x00019c5e:    6928        (i      LDR      r0,[r5,#0x10]
        0x00019c60:    f1b03fff    ...?    CMP      r0,#0xffffffff
        0x00019c64:    d009        ..      BEQ      0x19c7a ; am_hal_uart_transfer + 274
        0x00019c66:    f1080801    ....    ADD      r8,r8,#1
        0x00019c6a:    4540        @E      CMP      r0,r8
        0x00019c6c:    d105        ..      BNE      0x19c7a ; am_hal_uart_transfer + 274
        0x00019c6e:    f8846054    ..T`    STRB     r6,[r4,#0x54]
        0x00019c72:    4650        PF      MOV      r0,r10
        0x00019c74:    e8bd8ff8    ....    POP      {r3-r11,pc}
        0x00019c78:    e004        ..      B        0x19c84 ; am_hal_uart_transfer + 284
        0x00019c7a:    f8940054    ..T.    LDRB     r0,[r4,#0x54]
        0x00019c7e:    2800        .(      CMP      r0,#0
        0x00019c80:    d1e6        ..      BNE      0x19c50 ; am_hal_uart_transfer + 232
        0x00019c82:    e0a7        ..      B        0x19dd4 ; am_hal_uart_transfer + 620
        0x00019c84:    2700        .'      MOVS     r7,#0
        0x00019c86:    68ea        .h      LDR      r2,[r5,#0xc]
        0x00019c88:    2c00        .,      CMP      r4,#0
        0x00019c8a:    bf1c        ..      ITT      NE
        0x00019c8c:    6823        #h      LDRNE    r3,[r4,#0]
        0x00019c8e:    f0137f80    ....    TSTNE    r3,#0x1000000
        0x00019c92:    d003        ..      BEQ      0x19c9c ; am_hal_uart_transfer + 308
        0x00019c94:    f023437f    #..C    BIC      r3,r3,#0xff000000
        0x00019c98:    428b        .B      CMP      r3,r1
        0x00019c9a:    d001        ..      BEQ      0x19ca0 ; am_hal_uart_transfer + 312
        0x00019c9c:    4606        .F      MOV      r6,r0
        0x00019c9e:    e099        ..      B        0x19dd4 ; am_hal_uart_transfer + 620
        0x00019ca0:    2a00        .*      CMP      r2,#0
        0x00019ca2:    bf18        ..      IT       NE
        0x00019ca4:    6016        .`      STRNE    r6,[r2,#0]
        0x00019ca6:    f7fefb47    ..G.    BL       am_hal_interrupt_master_disable ; 0x18338
        0x00019caa:    9000        ..      STR      r0,[sp,#0]
        0x00019cac:    f894002c    ..,.    LDRB     r0,[r4,#0x2c]
        0x00019cb0:    b120         .      CBZ      r0,0x19cbc ; am_hal_uart_transfer + 340
        0x00019cb2:    4646        FF      MOV      r6,r8
        0x00019cb4:    9800        ..      LDR      r0,[sp,#0]
        0x00019cb6:    f7fefb43    ..C.    BL       am_hal_interrupt_master_set ; 0x18340
        0x00019cba:    e08b        ..      B        0x19dd4 ; am_hal_uart_transfer + 620
        0x00019cbc:    f884902c    ..,.    STRB     r9,[r4,#0x2c]
        0x00019cc0:    7829        )x      LDRB     r1,[r5,#0]
        0x00019cc2:    f8841030    ..0.    STRB     r1,[r4,#0x30]
        0x00019cc6:    6869        ih      LDR      r1,[r5,#4]
        0x00019cc8:    6361        ac      STR      r1,[r4,#0x34]
        0x00019cca:    68a9        .h      LDR      r1,[r5,#8]
        0x00019ccc:    63a1        .c      STR      r1,[r4,#0x38]
        0x00019cce:    68e9        .h      LDR      r1,[r5,#0xc]
        0x00019cd0:    63e1        .c      STR      r1,[r4,#0x3c]
        0x00019cd2:    6929        )i      LDR      r1,[r5,#0x10]
        0x00019cd4:    6421        !d      STR      r1,[r4,#0x40]
        0x00019cd6:    6969        ii      LDR      r1,[r5,#0x14]
        0x00019cd8:    6461        ad      STR      r1,[r4,#0x44]
        0x00019cda:    69a9        .i      LDR      r1,[r5,#0x18]
        0x00019cdc:    64a1        .d      STR      r1,[r4,#0x48]
        0x00019cde:    4620         F      MOV      r0,r4
        0x00019ce0:    69e9        .i      LDR      r1,[r5,#0x1c]
        0x00019ce2:    64e1        .d      STR      r1,[r4,#0x4c]
        0x00019ce4:    6506        .e      STR      r6,[r0,#0x50]
        0x00019ce6:    9800        ..      LDR      r0,[sp,#0]
        0x00019ce8:    f7fefb2a    ..*.    BL       am_hal_interrupt_master_set ; 0x18340
        0x00019cec:    4620         F      MOV      r0,r4
        0x00019cee:    f002fc6e    ..n.    BL       nonblocking_read_sm ; 0x1c5ce
        0x00019cf2:    f894002c    ..,.    LDRB     r0,[r4,#0x2c]
        0x00019cf6:    2800        .(      CMP      r0,#0
        0x00019cf8:    d06c        l.      BEQ      0x19dd4 ; am_hal_uart_transfer + 620
        0x00019cfa:    4620         F      MOV      r0,r4
        0x00019cfc:    f002fc67    ..g.    BL       nonblocking_read_sm ; 0x1c5ce
        0x00019d00:    f44f707a    O.zp    MOV      r0,#0x3e8
        0x00019d04:    f7fff8d4    ....    BL       am_hal_delay_us ; 0x18eb0
        0x00019d08:    6928        (i      LDR      r0,[r5,#0x10]
        0x00019d0a:    e000        ..      B        0x19d0e ; am_hal_uart_transfer + 422
        0x00019d0c:    e025        %.      B        0x19d5a ; am_hal_uart_transfer + 498
        0x00019d0e:    f1b03fff    ...?    CMP      r0,#0xffffffff
        0x00019d12:    d006        ..      BEQ      0x19d22 ; am_hal_uart_transfer + 442
        0x00019d14:    1c7f        ..      ADDS     r7,r7,#1
        0x00019d16:    42b8        .B      CMP      r0,r7
        0x00019d18:    d103        ..      BNE      0x19d22 ; am_hal_uart_transfer + 442
        0x00019d1a:    f884602c    ..,`    STRB     r6,[r4,#0x2c]
        0x00019d1e:    4656        VF      MOV      r6,r10
        0x00019d20:    e058        X.      B        0x19dd4 ; am_hal_uart_transfer + 620
        0x00019d22:    f894002c    ..,.    LDRB     r0,[r4,#0x2c]
        0x00019d26:    2800        .(      CMP      r0,#0
        0x00019d28:    d1e7        ..      BNE      0x19cfa ; am_hal_uart_transfer + 402
        0x00019d2a:    e053        S.      B        0x19dd4 ; am_hal_uart_transfer + 620
        0x00019d2c:    68ea        .h      LDR      r2,[r5,#0xc]
        0x00019d2e:    2c00        .,      CMP      r4,#0
        0x00019d30:    bf1a        ..      ITTE     NE
        0x00019d32:    6823        #h      LDRNE    r3,[r4,#0]
        0x00019d34:    f0137f80    ....    TSTNE    r3,#0x1000000
        0x00019d38:    e8bd8ff8    ....    POPEQ    {r3-r11,pc}
        0x00019d3c:    f023437f    #..C    BIC      r3,r3,#0xff000000
        0x00019d40:    428b        .B      CMP      r3,r1
        0x00019d42:    bf18        ..      IT       NE
        0x00019d44:    e8bd8ff8    ....    POPNE    {r3-r11,pc}
        0x00019d48:    2a00        .*      CMP      r2,#0
        0x00019d4a:    bf18        ..      IT       NE
        0x00019d4c:    6016        .`      STRNE    r6,[r2,#0]
        0x00019d4e:    f7fefaf3    ....    BL       am_hal_interrupt_master_disable ; 0x18338
        0x00019d52:    9000        ..      STR      r0,[sp,#0]
        0x00019d54:    f8940054    ..T.    LDRB     r0,[r4,#0x54]
        0x00019d58:    b128        (.      CBZ      r0,0x19d66 ; am_hal_uart_transfer + 510
        0x00019d5a:    9800        ..      LDR      r0,[sp,#0]
        0x00019d5c:    f7fefaf0    ....    BL       am_hal_interrupt_master_set ; 0x18340
        0x00019d60:    4638        8F      MOV      r0,r7
        0x00019d62:    e8bd8ff8    ....    POP      {r3-r11,pc}
        0x00019d66:    f8849054    ..T.    STRB     r9,[r4,#0x54]
        0x00019d6a:    7828        (x      LDRB     r0,[r5,#0]
        0x00019d6c:    f8840058    ..X.    STRB     r0,[r4,#0x58]
        0x00019d70:    6868        hh      LDR      r0,[r5,#4]
        0x00019d72:    65e0        .e      STR      r0,[r4,#0x5c]
        0x00019d74:    68a8        .h      LDR      r0,[r5,#8]
        0x00019d76:    6620         f      STR      r0,[r4,#0x60]
        0x00019d78:    68e8        .h      LDR      r0,[r5,#0xc]
        0x00019d7a:    6660        `f      STR      r0,[r4,#0x64]
        0x00019d7c:    6928        (i      LDR      r0,[r5,#0x10]
        0x00019d7e:    66a0        .f      STR      r0,[r4,#0x68]
        0x00019d80:    6968        hi      LDR      r0,[r5,#0x14]
        0x00019d82:    66e0        .f      STR      r0,[r4,#0x6c]
        0x00019d84:    69a8        .i      LDR      r0,[r5,#0x18]
        0x00019d86:    6720         g      STR      r0,[r4,#0x70]
        0x00019d88:    69e8        .i      LDR      r0,[r5,#0x1c]
        0x00019d8a:    67a6        .g      STR      r6,[r4,#0x78]
        0x00019d8c:    6760        `g      STR      r0,[r4,#0x74]
        0x00019d8e:    f88460b4    ...`    STRB     r6,[r4,#0xb4]
        0x00019d92:    9800        ..      LDR      r0,[sp,#0]
        0x00019d94:    f7fefad4    ....    BL       am_hal_interrupt_master_set ; 0x18340
        0x00019d98:    4620         F      MOV      r0,r4
        0x00019d9a:    f002fcb2    ....    BL       nonblocking_write_sm ; 0x1c702
        0x00019d9e:    e019        ..      B        0x19dd4 ; am_hal_uart_transfer + 620
        0x00019da0:    f884902c    ..,.    STRB     r9,[r4,#0x2c]
        0x00019da4:    7828        (x      LDRB     r0,[r5,#0]
        0x00019da6:    f8840030    ..0.    STRB     r0,[r4,#0x30]
        0x00019daa:    6868        hh      LDR      r0,[r5,#4]
        0x00019dac:    6360        `c      STR      r0,[r4,#0x34]
        0x00019dae:    68a8        .h      LDR      r0,[r5,#8]
        0x00019db0:    63a0        .c      STR      r0,[r4,#0x38]
        0x00019db2:    68e8        .h      LDR      r0,[r5,#0xc]
        0x00019db4:    63e0        .c      STR      r0,[r4,#0x3c]
        0x00019db6:    6928        (i      LDR      r0,[r5,#0x10]
        0x00019db8:    6420         d      STR      r0,[r4,#0x40]
        0x00019dba:    6968        hi      LDR      r0,[r5,#0x14]
        0x00019dbc:    6460        `d      STR      r0,[r4,#0x44]
        0x00019dbe:    69a8        .i      LDR      r0,[r5,#0x18]
        0x00019dc0:    64a0        .d      STR      r0,[r4,#0x48]
        0x00019dc2:    69e8        .i      LDR      r0,[r5,#0x1c]
        0x00019dc4:    6526        &e      STR      r6,[r4,#0x50]
        0x00019dc6:    64e0        .d      STR      r0,[r4,#0x4c]
        0x00019dc8:    9800        ..      LDR      r0,[sp,#0]
        0x00019dca:    f7fefab9    ....    BL       am_hal_interrupt_master_set ; 0x18340
        0x00019dce:    4620         F      MOV      r0,r4
        0x00019dd0:    f002fbfd    ....    BL       nonblocking_read_sm ; 0x1c5ce
        0x00019dd4:    4630        0F      MOV      r0,r6
        0x00019dd6:    e8bd8ff8    ....    POP      {r3-r11,pc}
    $d
        0x00019dda:    0000        ..      DCW    0
        0x00019ddc:    00ea9e06    ....    DCD    15375878
        0x00019de0:    08000004    ....    DCD    134217732
    $t
    i.am_hal_usb_attach
    am_hal_usb_attach
        0x00019de4:    2800        .(      CMP      r0,#0
        0x00019de6:    bf1c        ..      ITT      NE
        0x00019de8:    6800        .h      LDRNE    r0,[r0,#0]
        0x00019dea:    f0107f80    ....    TSTNE    r0,#0x1000000
        0x00019dee:    d004        ..      BEQ      0x19dfa ; am_hal_usb_attach + 22
        0x00019df0:    4906        .I      LDR      r1,[pc,#24] ; [0x19e0c] = 0xea9e06
        0x00019df2:    f020407f     ..@    BIC      r0,r0,#0xff000000
        0x00019df6:    4288        .B      CMP      r0,r1
        0x00019df8:    d001        ..      BEQ      0x19dfe ; am_hal_usb_attach + 26
        0x00019dfa:    2002        .       MOVS     r0,#2
        0x00019dfc:    4770        pG      BX       lr
        0x00019dfe:    4804        .H      LDR      r0,[pc,#16] ; [0x19e10] = 0x400b0000
        0x00019e00:    7841        Ax      LDRB     r1,[r0,#1]
        0x00019e02:    f0410140    A.@.    ORR      r1,r1,#0x40
        0x00019e06:    7041        Ap      STRB     r1,[r0,#1]
        0x00019e08:    2000        .       MOVS     r0,#0
        0x00019e0a:    4770        pG      BX       lr
    $d
        0x00019e0c:    00ea9e06    ....    DCD    15375878
        0x00019e10:    400b0000    ...@    DCD    1074462720
    $t
    i.am_hal_usb_control
    am_hal_usb_control
        0x00019e14:    b530        0.      PUSH     {r4,r5,lr}
        0x00019e16:    0002        ..      MOVS     r2,r0
        0x00019e18:    4d2e        .M      LDR      r5,[pc,#184] ; [0x19ed4] = 0x10000080
        0x00019e1a:    b087        ..      SUB      sp,sp,#0x1c
        0x00019e1c:    f04f0000    O...    MOV      r0,#0
        0x00019e20:    d004        ..      BEQ      0x19e2c ; am_hal_usb_control + 24
        0x00019e22:    2a01        .*      CMP      r2,#1
        0x00019e24:    bf08        ..      IT       EQ
        0x00019e26:    680c        .h      LDREQ    r4,[r1,#0]
        0x00019e28:    d009        ..      BEQ      0x19e3e ; am_hal_usb_control + 42
        0x00019e2a:    e005        ..      B        0x19e38 ; am_hal_usb_control + 36
        0x00019e2c:    2900        .)      CMP      r1,#0
        0x00019e2e:    bf1f        ..      ITTTT    NE
        0x00019e30:    6809        .h      LDRNE    r1,[r1,#0]
        0x00019e32:    6029        )`      STRNE    r1,[r5,#0]
        0x00019e34:    b007        ..      ADDNE    sp,sp,#0x1c
        0x00019e36:    bd30        0.      POPNE    {r4,r5,pc}
        0x00019e38:    2006        .       MOVS     r0,#6
        0x00019e3a:    b007        ..      ADD      sp,sp,#0x1c
        0x00019e3c:    bd30        0.      POP      {r4,r5,pc}
        0x00019e3e:    2006        .       MOVS     r0,#6
        0x00019e40:    2c05        .,      CMP      r4,#5
        0x00019e42:    bf24        $.      ITT      CS
        0x00019e44:    b007        ..      ADDCS    sp,sp,#0x1c
        0x00019e46:    bd30        0.      POPCS    {r4,r5,pc}
        0x00019e48:    e8dff004    ....    TBB      [pc,r4]
    $d
        0x00019e4c:    0e3d0303    ..=.    DCD    238879491
        0x00019e50:    000e        ..      DCW    14
    $t
        0x00019e52:    2100        .!      MOVS     r1,#0
        0x00019e54:    2008        .       MOVS     r0,#8
        0x00019e56:    f7fefe43    ..C.    BL       am_hal_clkgen_control ; 0x18ae0
        0x00019e5a:    2c01        .,      CMP      r4,#1
        0x00019e5c:    bf07        ..      ITTEE    EQ
        0x00019e5e:    2100        .!      MOVEQ    r1,#0
        0x00019e60:    2005        .       MOVEQ    r0,#5
        0x00019e62:    b007        ..      ADDNE    sp,sp,#0x1c
        0x00019e64:    bd30        0.      POPNE    {r4,r5,pc}
        0x00019e66:    e030        0.      B        0x19eca ; am_hal_usb_control + 182
        0x00019e68:    2100        .!      MOVS     r1,#0
        0x00019e6a:    2008        .       MOVS     r0,#8
        0x00019e6c:    f7fefe38    ..8.    BL       am_hal_clkgen_control ; 0x18ae0
        0x00019e70:    2800        .(      CMP      r0,#0
        0x00019e72:    bf1c        ..      ITT      NE
        0x00019e74:    b007        ..      ADDNE    sp,sp,#0x1c
        0x00019e76:    bd30        0.      POPNE    {r4,r5,pc}
        0x00019e78:    4817        .H      LDR      r0,[pc,#92] ; [0x19ed8] = 0x1e788
        0x00019e7a:    6840        @h      LDR      r0,[r0,#4]
        0x00019e7c:    9003        ..      STR      r0,[sp,#0xc]
        0x00019e7e:    2002        .       MOVS     r0,#2
        0x00019e80:    9002        ..      STR      r0,[sp,#8]
        0x00019e82:    2c04        .,      CMP      r4,#4
        0x00019e84:    bf14        ..      ITE      NE
        0x00019e86:    2000        .       MOVNE    r0,#0
        0x00019e88:    2001        .       MOVEQ    r0,#1
        0x00019e8a:    f88d000d    ....    STRB     r0,[sp,#0xd]
        0x00019e8e:    a902        ..      ADD      r1,sp,#8
        0x00019e90:    2002        .       MOVS     r0,#2
        0x00019e92:    f7fff921    ..!.    BL       am_hal_mcuctrl_control ; 0x190d8
        0x00019e96:    2800        .(      CMP      r0,#0
        0x00019e98:    bf1c        ..      ITT      NE
        0x00019e9a:    b007        ..      ADDNE    sp,sp,#0x1c
        0x00019e9c:    bd30        0.      POPNE    {r4,r5,pc}
        0x00019e9e:    2001        .       MOVS     r0,#1
        0x00019ea0:    9004        ..      STR      r0,[sp,#0x10]
        0x00019ea2:    6828        (h      LDR      r0,[r5,#0]
        0x00019ea4:    9005        ..      STR      r0,[sp,#0x14]
        0x00019ea6:    480d        .H      LDR      r0,[pc,#52] ; [0x19edc] = 0x16e3600
        0x00019ea8:    9006        ..      STR      r0,[sp,#0x18]
        0x00019eaa:    a904        ..      ADD      r1,sp,#0x10
        0x00019eac:    2006        .       MOVS     r0,#6
        0x00019eae:    f7fefe17    ....    BL       am_hal_clkgen_control ; 0x18ae0
        0x00019eb2:    2800        .(      CMP      r0,#0
        0x00019eb4:    bf1c        ..      ITT      NE
        0x00019eb6:    b007        ..      ADDNE    sp,sp,#0x1c
        0x00019eb8:    bd30        0.      POPNE    {r4,r5,pc}
        0x00019eba:    2100        .!      MOVS     r1,#0
        0x00019ebc:    2007        .       MOVS     r0,#7
        0x00019ebe:    f7fefe0f    ....    BL       am_hal_clkgen_control ; 0x18ae0
        0x00019ec2:    b007        ..      ADD      sp,sp,#0x1c
        0x00019ec4:    bd30        0.      POP      {r4,r5,pc}
        0x00019ec6:    2100        .!      MOVS     r1,#0
        0x00019ec8:    2007        .       MOVS     r0,#7
        0x00019eca:    f7fefe09    ....    BL       am_hal_clkgen_control ; 0x18ae0
        0x00019ece:    b007        ..      ADD      sp,sp,#0x1c
        0x00019ed0:    bd30        0.      POP      {r4,r5,pc}
    $d
        0x00019ed2:    0000        ..      DCW    0
        0x00019ed4:    10000080    ....    DCD    268435584
        0x00019ed8:    0001e788    ....    DCD    124808
        0x00019edc:    016e3600    .6n.    DCD    24000000
    $t
    i.am_hal_usb_ep0_handle_setup_req
    am_hal_usb_ep0_handle_setup_req
        0x00019ee0:    690a        .i      LDR      r2,[r1,#0x10]
        0x00019ee2:    f4123f80    ...?    TST      r2,#0x10000
        0x00019ee6:    bf08        ..      IT       EQ
        0x00019ee8:    4770        pG      BXEQ     lr
        0x00019eea:    e92d41f0    -..A    PUSH     {r4-r8,lr}
        0x00019eee:    698a        .i      LDR      r2,[r1,#0x18]
        0x00019ef0:    b082        ..      SUB      sp,sp,#8
        0x00019ef2:    f3c2020c    ....    UBFX     r2,r2,#0,#13
        0x00019ef6:    2600        .&      MOVS     r6,#0
        0x00019ef8:    0893        ..      LSRS     r3,r2,#2
        0x00019efa:    f1c30400    ....    RSB      r4,r3,#0
        0x00019efe:    46ec        .F      MOV      r12,sp
        0x00019f00:    eb020584    ....    ADD      r5,r2,r4,LSL #2
        0x00019f04:    d014        ..      BEQ      0x19f30 ; am_hal_usb_ep0_handle_setup_req + 80
        0x00019f06:    f0130201    ....    ANDS     r2,r3,#1
        0x00019f0a:    bf1c        ..      ITT      NE
        0x00019f0c:    6a0c        .j      LDRNE    r4,[r1,#0x20]
        0x00019f0e:    9400        ..      STRNE    r4,[sp,#0]
        0x00019f10:    429a        .B      CMP      r2,r3
        0x00019f12:    bf38        8.      IT       CC
        0x00019f14:    eb010486    ....    ADDCC    r4,r1,r6,LSL #2
        0x00019f18:    d20a        ..      BCS      0x19f30 ; am_hal_usb_ep0_handle_setup_req + 80
        0x00019f1a:    6a27        'j      LDR      r7,[r4,#0x20]
        0x00019f1c:    f84c7022    L."p    STR      r7,[r12,r2,LSL #2]
        0x00019f20:    6a27        'j      LDR      r7,[r4,#0x20]
        0x00019f22:    eb0c0882    ....    ADD      r8,r12,r2,LSL #2
        0x00019f26:    1c92        ..      ADDS     r2,r2,#2
        0x00019f28:    f8c87004    ...p    STR      r7,[r8,#4]
        0x00019f2c:    429a        .B      CMP      r2,r3
        0x00019f2e:    d3f4        ..      BCC      0x19f1a ; am_hal_usb_ep0_handle_setup_req + 58
        0x00019f30:    b195        ..      CBZ      r5,0x19f58 ; am_hal_usb_ep0_handle_setup_req + 120
        0x00019f32:    eb010186    ....    ADD      r1,r1,r6,LSL #2
        0x00019f36:    f8914020    .. @    LDRB     r4,[r1,#0x20]
        0x00019f3a:    eb0c0183    ....    ADD      r1,r12,r3,LSL #2
        0x00019f3e:    1e49        I.      SUBS     r1,r1,#1
        0x00019f40:    f0150f01    ....    TST      r5,#1
        0x00019f44:    bf18        ..      IT       NE
        0x00019f46:    f8014f01    ...O    STRBNE   r4,[r1,#1]!
        0x00019f4a:    086a        j.      LSRS     r2,r5,#1
        0x00019f4c:    d004        ..      BEQ      0x19f58 ; am_hal_usb_ep0_handle_setup_req + 120
        0x00019f4e:    704c        Lp      STRB     r4,[r1,#1]
        0x00019f50:    f8014f02    ...O    STRB     r4,[r1,#2]!
        0x00019f54:    1e52        R.      SUBS     r2,r2,#1
        0x00019f56:    d1fa        ..      BNE      0x19f4e ; am_hal_usb_ep0_handle_setup_req + 110
        0x00019f58:    2101        .!      MOVS     r1,#1
        0x00019f5a:    f8801056    ..V.    STRB     r1,[r0,#0x56]
        0x00019f5e:    f8d01100    ....    LDR      r1,[r0,#0x100]
        0x00019f62:    4660        `F      MOV      r0,r12
        0x00019f64:    4788        .G      BLX      r1
        0x00019f66:    b002        ..      ADD      sp,sp,#8
        0x00019f68:    e8bd81f0    ....    POP      {r4-r8,pc}
    i.am_hal_usb_ep_clear_stall
    am_hal_usb_ep_clear_stall
        0x00019f6c:    b410        ..      PUSH     {r4}
        0x00019f6e:    2800        .(      CMP      r0,#0
        0x00019f70:    bf1c        ..      ITT      NE
        0x00019f72:    6800        .h      LDRNE    r0,[r0,#0]
        0x00019f74:    f0107f80    ....    TSTNE    r0,#0x1000000
        0x00019f78:    d004        ..      BEQ      0x19f84 ; am_hal_usb_ep_clear_stall + 24
        0x00019f7a:    4a20         J      LDR      r2,[pc,#128] ; [0x19ffc] = 0xea9e06
        0x00019f7c:    f020407f     ..@    BIC      r0,r0,#0xff000000
        0x00019f80:    4290        .B      CMP      r0,r2
        0x00019f82:    d002        ..      BEQ      0x19f8a ; am_hal_usb_ep_clear_stall + 30
        0x00019f84:    bc10        ..      POP      {r4}
        0x00019f86:    2002        .       MOVS     r0,#2
        0x00019f88:    4770        pG      BX       lr
        0x00019f8a:    f001007f    ....    AND      r0,r1,#0x7f
        0x00019f8e:    2805        .(      CMP      r0,#5
        0x00019f90:    bf82        ..      ITTT     HI
        0x00019f92:    2006        .       MOVHI    r0,#6
        0x00019f94:    bc10        ..      POPHI    {r4}
        0x00019f96:    4770        pG      BXHI     lr
        0x00019f98:    f0310280    1...    BICS     r2,r1,#0x80
        0x00019f9c:    ea4f11d1    O...    LSR      r1,r1,#7
        0x00019fa0:    4817        .H      LDR      r0,[pc,#92] ; [0x1a000] = 0x400b0000
        0x00019fa2:    bf02        ..      ITTT     EQ
        0x00019fa4:    2000        .       MOVEQ    r0,#0
        0x00019fa6:    bc10        ..      POPEQ    {r4}
        0x00019fa8:    4770        pG      BXEQ     lr
        0x00019faa:    f04f6c00    O..l    MOV      r12,#0x8000000
        0x00019fae:    f04f23e0    O..#    MOV      r3,#0xe000e000
        0x00019fb2:    f8c3c180    ....    STR      r12,[r3,#0x180]
        0x00019fb6:    f3bf8f4f    ..O.    DSB      
        0x00019fba:    f3bf8f6f    ..o.    ISB      
        0x00019fbe:    68c4        .h      LDR      r4,[r0,#0xc]
        0x00019fc0:    f4242470    $.p$    BIC      r4,r4,#0xf0000
        0x00019fc4:    60c4        .`      STR      r4,[r0,#0xc]
        0x00019fc6:    68c4        .h      LDR      r4,[r0,#0xc]
        0x00019fc8:    ea444202    D..B    ORR      r2,r4,r2,LSL #16
        0x00019fcc:    60c2        .`      STR      r2,[r0,#0xc]
        0x00019fce:    b141        A.      CBZ      r1,0x19fe2 ; am_hal_usb_ep_clear_stall + 118
        0x00019fd0:    6901        .i      LDR      r1,[r0,#0x10]
        0x00019fd2:    f4211180    !...    BIC      r1,r1,#0x100000
        0x00019fd6:    6101        .a      STR      r1,[r0,#0x10]
        0x00019fd8:    6901        .i      LDR      r1,[r0,#0x10]
        0x00019fda:    f4410180    A...    ORR      r1,r1,#0x400000
        0x00019fde:    6101        .a      STR      r1,[r0,#0x10]
        0x00019fe0:    e007        ..      B        0x19ff2 ; am_hal_usb_ep_clear_stall + 134
        0x00019fe2:    6941        Ai      LDR      r1,[r0,#0x14]
        0x00019fe4:    f4211100    !...    BIC      r1,r1,#0x200000
        0x00019fe8:    6141        Aa      STR      r1,[r0,#0x14]
        0x00019fea:    6941        Ai      LDR      r1,[r0,#0x14]
        0x00019fec:    f4410100    A...    ORR      r1,r1,#0x800000
        0x00019ff0:    6141        Aa      STR      r1,[r0,#0x14]
        0x00019ff2:    f8c3c100    ....    STR      r12,[r3,#0x100]
        0x00019ff6:    bc10        ..      POP      {r4}
        0x00019ff8:    2000        .       MOVS     r0,#0
        0x00019ffa:    4770        pG      BX       lr
    $d
        0x00019ffc:    00ea9e06    ....    DCD    15375878
        0x0001a000:    400b0000    ...@    DCD    1074462720
    $t
    i.am_hal_usb_ep_init
    am_hal_usb_ep_init
        0x0001a004:    b470        p.      PUSH     {r4-r6}
        0x0001a006:    f8dfc1bc    ....    LDR      r12,[pc,#444] ; [0x1a1c4] = 0x400b0000
        0x0001a00a:    2800        .(      CMP      r0,#0
        0x0001a00c:    bf1c        ..      ITT      NE
        0x0001a00e:    6804        .h      LDRNE    r4,[r0,#0]
        0x0001a010:    f0147f80    ....    TSTNE    r4,#0x1000000
        0x0001a014:    d004        ..      BEQ      0x1a020 ; am_hal_usb_ep_init + 28
        0x0001a016:    4d6c        lM      LDR      r5,[pc,#432] ; [0x1a1c8] = 0xea9e06
        0x0001a018:    f024447f    $..D    BIC      r4,r4,#0xff000000
        0x0001a01c:    42ac        .B      CMP      r4,r5
        0x0001a01e:    d002        ..      BEQ      0x1a026 ; am_hal_usb_ep_init + 34
        0x0001a020:    bc70        p.      POP      {r4-r6}
        0x0001a022:    2002        .       MOVS     r0,#2
        0x0001a024:    4770        pG      BX       lr
        0x0001a026:    f001047f    ....    AND      r4,r1,#0x7f
        0x0001a02a:    2c05        .,      CMP      r4,#5
        0x0001a02c:    d86c        l.      BHI      0x1a108 ; am_hal_usb_ep_init + 260
        0x0001a02e:    f89c4001    ...@    LDRB     r4,[r12,#1]
        0x0001a032:    4d66        fM      LDR      r5,[pc,#408] ; [0x1a1cc] = 0x10000084
        0x0001a034:    f3c41400    ....    UBFX     r4,r4,#4,#1
        0x0001a038:    68ed        .h      LDR      r5,[r5,#0xc]
        0x0001a03a:    429d        .B      CMP      r5,r3
        0x0001a03c:    d201        ..      BCS      0x1a042 ; am_hal_usb_ep_init + 62
        0x0001a03e:    2c00        .,      CMP      r4,#0
        0x0001a040:    d062        b.      BEQ      0x1a108 ; am_hal_usb_ep_init + 260
        0x0001a042:    f8dc600c    ...`    LDR      r6,[r12,#0xc]
        0x0001a046:    f0310480    1...    BICS     r4,r1,#0x80
        0x0001a04a:    ea4f15d1    O...    LSR      r5,r1,#7
        0x0001a04e:    f4262670    &.p&    BIC      r6,r6,#0xf0000
        0x0001a052:    f8cc600c    ...`    STR      r6,[r12,#0xc]
        0x0001a056:    f8dc600c    ...`    LDR      r6,[r12,#0xc]
        0x0001a05a:    ea464604    F..F    ORR      r6,r6,r4,LSL #16
        0x0001a05e:    f8cc600c    ...`    STR      r6,[r12,#0xc]
        0x0001a062:    d054        T.      BEQ      0x1a10e ; am_hal_usb_ep_init + 266
        0x0001a064:    f0210480    !...    BIC      r4,r1,#0x80
        0x0001a068:    0919        ..      LSRS     r1,r3,#4
        0x0001a06a:    eb000444    ..D.    ADD      r4,r0,r4,LSL #1
        0x0001a06e:    f0020203    ....    AND      r2,r2,#3
        0x0001a072:    2d00        .-      CMP      r5,#0
        0x0001a074:    d056        V.      BEQ      0x1a124 ; am_hal_usb_ep_init + 288
        0x0001a076:    d07c        |.      BEQ      0x1a172 ; am_hal_usb_ep_init + 366
        0x0001a078:    f8dc5010    ...P    LDR      r5,[r12,#0x10]
        0x0001a07c:    f36f050a    o...    BFC      r5,#0,#11
        0x0001a080:    f8cc5010    ...P    STR      r5,[r12,#0x10]
        0x0001a084:    f8dc5010    ...P    LDR      r5,[r12,#0x10]
        0x0001a088:    431d        .C      ORRS     r5,r5,r3
        0x0001a08a:    f8cc5010    ...P    STR      r5,[r12,#0x10]
        0x0001a08e:    f8a43058    ..X0    STRH     r3,[r4,#0x58]
        0x0001a092:    2a01        .*      CMP      r2,#1
        0x0001a094:    f8dc2010    ...     LDR      r2,[r12,#0x10]
        0x0001a098:    bf0c        ..      ITE      EQ
        0x0001a09a:    f0424280    B..B    ORREQ    r2,r2,#0x40000000
        0x0001a09e:    f0224280    "..B    BICNE    r2,r2,#0x40000000
        0x0001a0a2:    f8cc2010    ...     STR      r2,[r12,#0x10]
        0x0001a0a6:    f8dc2010    ...     LDR      r2,[r12,#0x10]
        0x0001a0aa:    f4420280    B...    ORR      r2,r2,#0x400000
        0x0001a0ae:    f8cc2010    ...     STR      r2,[r12,#0x10]
        0x0001a0b2:    f8dc2010    ...     LDR      r2,[r12,#0x10]
        0x0001a0b6:    f4123f00    ...?    TST      r2,#0x20000
        0x0001a0ba:    d005        ..      BEQ      0x1a0c8 ; am_hal_usb_ep_init + 196
        0x0001a0bc:    f8dc2010    ...     LDR      r2,[r12,#0x10]
        0x0001a0c0:    f4422200    B.."    ORR      r2,r2,#0x80000
        0x0001a0c4:    f8cc2010    ...     STR      r2,[r12,#0x10]
        0x0001a0c8:    2200        ."      MOVS     r2,#0
        0x0001a0ca:    b119        ..      CBZ      r1,0x1a0d4 ; am_hal_usb_ep_init + 208
        0x0001a0cc:    1c52        R.      ADDS     r2,r2,#1
        0x0001a0ce:    b2d2        ..      UXTB     r2,r2
        0x0001a0d0:    0849        I.      LSRS     r1,r1,#1
        0x0001a0d2:    d1fb        ..      BNE      0x1a0cc ; am_hal_usb_ep_init + 200
        0x0001a0d4:    f8dc1018    ....    LDR      r1,[r12,#0x18]
        0x0001a0d8:    f42111f8    !...    BIC      r1,r1,#0x1f0000
        0x0001a0dc:    f8cc1018    ....    STR      r1,[r12,#0x18]
        0x0001a0e0:    f8dc1018    ....    LDR      r1,[r12,#0x18]
        0x0001a0e4:    ea414102    A..A    ORR      r1,r1,r2,LSL #16
        0x0001a0e8:    f8cc1018    ....    STR      r1,[r12,#0x18]
        0x0001a0ec:    f8dc101c    ....    LDR      r1,[r12,#0x1c]
        0x0001a0f0:    f36f010c    o...    BFC      r1,#0,#13
        0x0001a0f4:    f8cc101c    ....    STR      r1,[r12,#0x1c]
        0x0001a0f8:    6d01        .m      LDR      r1,[r0,#0x50]
        0x0001a0fa:    eb0102d3    ....    ADD      r2,r1,r3,LSR #3
        0x0001a0fe:    6502        .e      STR      r2,[r0,#0x50]
        0x0001a100:    f8dc001c    ....    LDR      r0,[r12,#0x1c]
        0x0001a104:    4308        .C      ORRS     r0,r0,r1
        0x0001a106:    e057        W.      B        0x1a1b8 ; am_hal_usb_ep_init + 436
        0x0001a108:    bc70        p.      POP      {r4-r6}
        0x0001a10a:    2006        .       MOVS     r0,#6
        0x0001a10c:    4770        pG      BX       lr
        0x0001a10e:    f8bc1006    ....    LDRH     r1,[r12,#6]
        0x0001a112:    f0410101    A...    ORR      r1,r1,#1
        0x0001a116:    f8ac1006    ....    STRH     r1,[r12,#6]
        0x0001a11a:    f8a03058    ..X0    STRH     r3,[r0,#0x58]
        0x0001a11e:    bc70        p.      POP      {r4-r6}
        0x0001a120:    2000        .       MOVS     r0,#0
        0x0001a122:    4770        pG      BX       lr
        0x0001a124:    f8dc5014    ...P    LDR      r5,[r12,#0x14]
        0x0001a128:    f36f050a    o...    BFC      r5,#0,#11
        0x0001a12c:    f8cc5014    ...P    STR      r5,[r12,#0x14]
        0x0001a130:    f8dc5014    ...P    LDR      r5,[r12,#0x14]
        0x0001a134:    431d        .C      ORRS     r5,r5,r3
        0x0001a136:    f8cc5014    ...P    STR      r5,[r12,#0x14]
        0x0001a13a:    f8a43062    ..b0    STRH     r3,[r4,#0x62]
        0x0001a13e:    2a01        .*      CMP      r2,#1
        0x0001a140:    f8dc2014    ...     LDR      r2,[r12,#0x14]
        0x0001a144:    bf14        ..      ITE      NE
        0x0001a146:    f0224280    "..B    BICNE    r2,r2,#0x40000000
        0x0001a14a:    f0424280    B..B    ORREQ    r2,r2,#0x40000000
        0x0001a14e:    f8cc2014    ...     STR      r2,[r12,#0x14]
        0x0001a152:    f8dc2014    ...     LDR      r2,[r12,#0x14]
        0x0001a156:    f4420200    B...    ORR      r2,r2,#0x800000
        0x0001a15a:    f8cc2014    ...     STR      r2,[r12,#0x14]
        0x0001a15e:    f8dc2014    ...     LDR      r2,[r12,#0x14]
        0x0001a162:    f4123f80    ...?    TST      r2,#0x10000
        0x0001a166:    d007        ..      BEQ      0x1a178 ; am_hal_usb_ep_init + 372
        0x0001a168:    f8dc2014    ...     LDR      r2,[r12,#0x14]
        0x0001a16c:    f4421280    B...    ORR      r2,r2,#0x100000
        0x0001a170:    e000        ..      B        0x1a174 ; am_hal_usb_ep_init + 368
        0x0001a172:    e023        #.      B        0x1a1bc ; am_hal_usb_ep_init + 440
        0x0001a174:    f8cc2014    ...     STR      r2,[r12,#0x14]
        0x0001a178:    2200        ."      MOVS     r2,#0
        0x0001a17a:    b119        ..      CBZ      r1,0x1a184 ; am_hal_usb_ep_init + 384
        0x0001a17c:    1c52        R.      ADDS     r2,r2,#1
        0x0001a17e:    b2d2        ..      UXTB     r2,r2
        0x0001a180:    0849        I.      LSRS     r1,r1,#1
        0x0001a182:    d1fb        ..      BNE      0x1a17c ; am_hal_usb_ep_init + 376
        0x0001a184:    f8dc1018    ....    LDR      r1,[r12,#0x18]
        0x0001a188:    f02151f8    !..Q    BIC      r1,r1,#0x1f000000
        0x0001a18c:    f8cc1018    ....    STR      r1,[r12,#0x18]
        0x0001a190:    f8dc1018    ....    LDR      r1,[r12,#0x18]
        0x0001a194:    ea416102    A..a    ORR      r1,r1,r2,LSL #24
        0x0001a198:    f8cc1018    ....    STR      r1,[r12,#0x18]
        0x0001a19c:    f8dc101c    ....    LDR      r1,[r12,#0x1c]
        0x0001a1a0:    f36f411c    o..A    BFC      r1,#16,#13
        0x0001a1a4:    f8cc101c    ....    STR      r1,[r12,#0x1c]
        0x0001a1a8:    6d01        .m      LDR      r1,[r0,#0x50]
        0x0001a1aa:    eb0102d3    ....    ADD      r2,r1,r3,LSR #3
        0x0001a1ae:    6502        .e      STR      r2,[r0,#0x50]
        0x0001a1b0:    f8dc001c    ....    LDR      r0,[r12,#0x1c]
        0x0001a1b4:    ea404001    @..@    ORR      r0,r0,r1,LSL #16
        0x0001a1b8:    f8cc001c    ....    STR      r0,[r12,#0x1c]
        0x0001a1bc:    bc70        p.      POP      {r4-r6}
        0x0001a1be:    2000        .       MOVS     r0,#0
        0x0001a1c0:    4770        pG      BX       lr
    $d
        0x0001a1c2:    0000        ..      DCW    0
        0x0001a1c4:    400b0000    ...@    DCD    1074462720
        0x0001a1c8:    00ea9e06    ....    DCD    15375878
        0x0001a1cc:    10000084    ....    DCD    268435588
    $t
    i.am_hal_usb_ep_stall
    am_hal_usb_ep_stall
        0x0001a1d0:    b410        ..      PUSH     {r4}
        0x0001a1d2:    2800        .(      CMP      r0,#0
        0x0001a1d4:    bf1c        ..      ITT      NE
        0x0001a1d6:    6800        .h      LDRNE    r0,[r0,#0]
        0x0001a1d8:    f0107f80    ....    TSTNE    r0,#0x1000000
        0x0001a1dc:    d004        ..      BEQ      0x1a1e8 ; am_hal_usb_ep_stall + 24
        0x0001a1de:    4a1e        .J      LDR      r2,[pc,#120] ; [0x1a258] = 0xea9e06
        0x0001a1e0:    f020407f     ..@    BIC      r0,r0,#0xff000000
        0x0001a1e4:    4290        .B      CMP      r0,r2
        0x0001a1e6:    d002        ..      BEQ      0x1a1ee ; am_hal_usb_ep_stall + 30
        0x0001a1e8:    bc10        ..      POP      {r4}
        0x0001a1ea:    2002        .       MOVS     r0,#2
        0x0001a1ec:    4770        pG      BX       lr
        0x0001a1ee:    f001007f    ....    AND      r0,r1,#0x7f
        0x0001a1f2:    2805        .(      CMP      r0,#5
        0x0001a1f4:    bf82        ..      ITTT     HI
        0x0001a1f6:    2006        .       MOVHI    r0,#6
        0x0001a1f8:    bc10        ..      POPHI    {r4}
        0x0001a1fa:    4770        pG      BXHI     lr
        0x0001a1fc:    f0210280    !...    BIC      r2,r1,#0x80
        0x0001a200:    f04f2ce0    O..,    MOV      r12,#0xe000e000
        0x0001a204:    f04f6300    O..c    MOV      r3,#0x8000000
        0x0001a208:    4814        .H      LDR      r0,[pc,#80] ; [0x1a25c] = 0x400b0000
        0x0001a20a:    09c9        ..      LSRS     r1,r1,#7
        0x0001a20c:    f8cc3180    ...1    STR      r3,[r12,#0x180]
        0x0001a210:    f3bf8f4f    ..O.    DSB      
        0x0001a214:    f3bf8f6f    ..o.    ISB      
        0x0001a218:    68c4        .h      LDR      r4,[r0,#0xc]
        0x0001a21a:    f4242470    $.p$    BIC      r4,r4,#0xf0000
        0x0001a21e:    60c4        .`      STR      r4,[r0,#0xc]
        0x0001a220:    68c4        .h      LDR      r4,[r0,#0xc]
        0x0001a222:    ea444402    D..D    ORR      r4,r4,r2,LSL #16
        0x0001a226:    60c4        .`      STR      r4,[r0,#0xc]
        0x0001a228:    2a00        .*      CMP      r2,#0
        0x0001a22a:    bf04        ..      ITT      EQ
        0x0001a22c:    6901        .i      LDREQ    r1,[r0,#0x10]
        0x0001a22e:    f44101c0    A...    ORREQ    r1,r1,#0x600000
        0x0001a232:    d006        ..      BEQ      0x1a242 ; am_hal_usb_ep_stall + 114
        0x0001a234:    b139        9.      CBZ      r1,0x1a246 ; am_hal_usb_ep_stall + 118
        0x0001a236:    2900        .)      CMP      r1,#0
        0x0001a238:    bf1c        ..      ITT      NE
        0x0001a23a:    6901        .i      LDRNE    r1,[r0,#0x10]
        0x0001a23c:    f4411180    A...    ORRNE    r1,r1,#0x100000
        0x0001a240:    d005        ..      BEQ      0x1a24e ; am_hal_usb_ep_stall + 126
        0x0001a242:    6101        .a      STR      r1,[r0,#0x10]
        0x0001a244:    e003        ..      B        0x1a24e ; am_hal_usb_ep_stall + 126
        0x0001a246:    6941        Ai      LDR      r1,[r0,#0x14]
        0x0001a248:    f4411100    A...    ORR      r1,r1,#0x200000
        0x0001a24c:    6141        Aa      STR      r1,[r0,#0x14]
        0x0001a24e:    f8cc3100    ...1    STR      r3,[r12,#0x100]
        0x0001a252:    bc10        ..      POP      {r4}
        0x0001a254:    2000        .       MOVS     r0,#0
        0x0001a256:    4770        pG      BX       lr
    $d
        0x0001a258:    00ea9e06    ....    DCD    15375878
        0x0001a25c:    400b0000    ...@    DCD    1074462720
    $t
    i.am_hal_usb_ep_xfer
    am_hal_usb_ep_xfer
        0x0001a260:    e92d5ff0    -.._    PUSH     {r4-r12,lr}
        0x0001a264:    468b        .F      MOV      r11,r1
        0x0001a266:    4684        .F      MOV      r12,r0
        0x0001a268:    0006        ..      MOVS     r6,r0
        0x0001a26a:    bf1c        ..      ITT      NE
        0x0001a26c:    f8dc0000    ....    LDRNE    r0,[r12,#0]
        0x0001a270:    f0107f80    ....    TSTNE    r0,#0x1000000
        0x0001a274:    d004        ..      BEQ      0x1a280 ; am_hal_usb_ep_xfer + 32
        0x0001a276:    4974        tI      LDR      r1,[pc,#464] ; [0x1a448] = 0xea9e06
        0x0001a278:    f020407f     ..@    BIC      r0,r0,#0xff000000
        0x0001a27c:    4288        .B      CMP      r0,r1
        0x0001a27e:    d002        ..      BEQ      0x1a286 ; am_hal_usb_ep_xfer + 38
        0x0001a280:    2002        .       MOVS     r0,#2
        0x0001a282:    e8bd9ff0    ....    POP      {r4-r12,pc}
        0x0001a286:    f00b007f    ....    AND      r0,r11,#0x7f
        0x0001a28a:    2805        .(      CMP      r0,#5
        0x0001a28c:    bf84        ..      ITT      HI
        0x0001a28e:    2006        .       MOVHI    r0,#6
        0x0001a290:    e8bd9ff0    ....    POPHI    {r4-r12,pc}
        0x0001a294:    f03b0180    ;...    BICS     r1,r11,#0x80
        0x0001a298:    4c6c        lL      LDR      r4,[pc,#432] ; [0x1a44c] = 0x400b0000
        0x0001a29a:    ea4f10db    O...    LSR      r0,r11,#7
        0x0001a29e:    f04f6800    O..h    MOV      r8,#0x8000000
        0x0001a2a2:    f04f29e0    O..)    MOV      r9,#0xe000e000
        0x0001a2a6:    f04f0700    O...    MOV      r7,#0
        0x0001a2aa:    f04f0501    O...    MOV      r5,#1
        0x0001a2ae:    d020         .      BEQ      0x1a2f2 ; am_hal_usb_ep_xfer + 146
        0x0001a2b0:    4692        .F      MOV      r10,r2
        0x0001a2b2:    461d        .F      MOV      r5,r3
        0x0001a2b4:    eb010241    ..A.    ADD      r2,r1,r1,LSL #1
        0x0001a2b8:    eb0602c2    ....    ADD      r2,r6,r2,LSL #3
        0x0001a2bc:    eb000340    ..@.    ADD      r3,r0,r0,LSL #1
        0x0001a2c0:    eb020283    ....    ADD      r2,r2,r3,LSL #2
        0x0001a2c4:    f1020664    ..d.    ADD      r6,r2,#0x64
        0x0001a2c8:    f8c98180    ....    STR      r8,[r9,#0x180]
        0x0001a2cc:    f3bf8f4f    ..O.    DSB      
        0x0001a2d0:    f3bf8f6f    ..o.    ISB      
        0x0001a2d4:    68e2        .h      LDR      r2,[r4,#0xc]
        0x0001a2d6:    f4222270    ".p"    BIC      r2,r2,#0xf0000
        0x0001a2da:    60e2        .`      STR      r2,[r4,#0xc]
        0x0001a2dc:    68e2        .h      LDR      r2,[r4,#0xc]
        0x0001a2de:    ea424201    B..B    ORR      r2,r2,r1,LSL #16
        0x0001a2e2:    60e2        .`      STR      r2,[r4,#0xc]
        0x0001a2e4:    7a32        2z      LDRB     r2,[r6,#8]
        0x0001a2e6:    f0120f01    ....    TST      r2,#1
        0x0001a2ea:    bf18        ..      IT       NE
        0x0001a2ec:    2003        .       MOVNE    r0,#3
        0x0001a2ee:    d064        d.      BEQ      0x1a3ba ; am_hal_usb_ep_xfer + 346
        0x0001a2f0:    e0a5        ..      B        0x1a43e ; am_hal_usb_ep_xfer + 478
        0x0001a2f2:    f8c98180    ....    STR      r8,[r9,#0x180]
        0x0001a2f6:    f3bf8f4f    ..O.    DSB      
        0x0001a2fa:    f3bf8f6f    ..o.    ISB      
        0x0001a2fe:    68e1        .h      LDR      r1,[r4,#0xc]
        0x0001a300:    f4212170    !.p!    BIC      r1,r1,#0xf0000
        0x0001a304:    60e1        .`      STR      r1,[r4,#0xc]
        0x0001a306:    68e1        .h      LDR      r1,[r4,#0xc]
        0x0001a308:    60e1        .`      STR      r1,[r4,#0xc]
        0x0001a30a:    f89c1078    ..x.    LDRB     r1,[r12,#0x78]
        0x0001a30e:    f0110f01    ....    TST      r1,#1
        0x0001a312:    bf18        ..      IT       NE
        0x0001a314:    2003        .       MOVNE    r0,#3
        0x0001a316:    d003        ..      BEQ      0x1a320 ; am_hal_usb_ep_xfer + 192
        0x0001a318:    f8c98100    ....    STR      r8,[r9,#0x100]
        0x0001a31c:    e8bd9ff0    ....    POP      {r4-r12,pc}
        0x0001a320:    f0410601    A...    ORR      r6,r1,#1
        0x0001a324:    f8bc1058    ..X.    LDRH     r1,[r12,#0x58]
        0x0001a328:    f3600682    `...    BFI      r6,r0,#2,#1
        0x0001a32c:    f88c6078    ..x`    STRB     r6,[r12,#0x78]
        0x0001a330:    f8cc2070    ..p     STR      r2,[r12,#0x70]
        0x0001a334:    f8ac3074    ..t0    STRH     r3,[r12,#0x74]
        0x0001a338:    f89c6056    ..V`    LDRB     r6,[r12,#0x56]
        0x0001a33c:    2e01        ..      CMP      r6,#1
        0x0001a33e:    bf18        ..      IT       NE
        0x0001a340:    4628        (F      MOVNE    r0,r5
        0x0001a342:    d1e9        ..      BNE      0x1a318 ; am_hal_usb_ep_xfer + 184
        0x0001a344:    b1a3        ..      CBZ      r3,0x1a370 ; am_hal_usb_ep_xfer + 272
        0x0001a346:    6925        %i      LDR      r5,[r4,#0x10]
        0x0001a348:    f4450580    E...    ORR      r5,r5,#0x400000
        0x0001a34c:    6125        %a      STR      r5,[r4,#0x10]
        0x0001a34e:    b350        P.      CBZ      r0,0x1a3a6 ; am_hal_usb_ep_xfer + 326
        0x0001a350:    b340        @.      CBZ      r0,0x1a3a4 ; am_hal_usb_ep_xfer + 324
        0x0001a352:    428b        .B      CMP      r3,r1
        0x0001a354:    d217        ..      BCS      0x1a386 ; am_hal_usb_ep_xfer + 294
        0x0001a356:    f8ac7076    ..vp    STRH     r7,[r12,#0x76]
        0x0001a35a:    2005        .       MOVS     r0,#5
        0x0001a35c:    f88c0056    ..V.    STRB     r0,[r12,#0x56]
        0x0001a360:    2100        .!      MOVS     r1,#0
        0x0001a362:    4620         F      MOV      r0,r4
        0x0001a364:    f000f874    ..t.    BL       am_hal_usb_fifo_loading ; 0x1a450
        0x0001a368:    6920         i      LDR      r0,[r4,#0x10]
        0x0001a36a:    f4402020    @.      ORR      r0,r0,#0xa0000
        0x0001a36e:    e018        ..      B        0x1a3a2 ; am_hal_usb_ep_xfer + 322
        0x0001a370:    6921        !i      LDR      r1,[r4,#0x10]
        0x0001a372:    f4410190    A...    ORR      r1,r1,#0x480000
        0x0001a376:    6121        !a      STR      r1,[r4,#0x10]
        0x0001a378:    2800        .(      CMP      r0,#0
        0x0001a37a:    bf14        ..      ITE      NE
        0x0001a37c:    2005        .       MOVNE    r0,#5
        0x0001a37e:    2004        .       MOVEQ    r0,#4
        0x0001a380:    f88c0056    ..V.    STRB     r0,[r12,#0x56]
        0x0001a384:    e014        ..      B        0x1a3b0 ; am_hal_usb_ep_xfer + 336
        0x0001a386:    1a58        X.      SUBS     r0,r3,r1
        0x0001a388:    f8ac0076    ..v.    STRH     r0,[r12,#0x76]
        0x0001a38c:    2003        .       MOVS     r0,#3
        0x0001a38e:    f88c0056    ..V.    STRB     r0,[r12,#0x56]
        0x0001a392:    460b        .F      MOV      r3,r1
        0x0001a394:    2100        .!      MOVS     r1,#0
        0x0001a396:    4620         F      MOV      r0,r4
        0x0001a398:    f000f85a    ..Z.    BL       am_hal_usb_fifo_loading ; 0x1a450
        0x0001a39c:    6920         i      LDR      r0,[r4,#0x10]
        0x0001a39e:    f4403000    @..0    ORR      r0,r0,#0x20000
        0x0001a3a2:    6120         a      STR      r0,[r4,#0x10]
        0x0001a3a4:    e004        ..      B        0x1a3b0 ; am_hal_usb_ep_xfer + 336
        0x0001a3a6:    f8ac3076    ..v0    STRH     r3,[r12,#0x76]
        0x0001a3aa:    2002        .       MOVS     r0,#2
        0x0001a3ac:    f88c0056    ..V.    STRB     r0,[r12,#0x56]
        0x0001a3b0:    4638        8F      MOV      r0,r7
        0x0001a3b2:    f8c98100    ....    STR      r8,[r9,#0x100]
        0x0001a3b6:    e8bd9ff0    ....    POP      {r4-r12,pc}
        0x0001a3ba:    f0420201    B...    ORR      r2,r2,#1
        0x0001a3be:    f3600282    `...    BFI      r2,r0,#2,#1
        0x0001a3c2:    7232        2r      STRB     r2,[r6,#8]
        0x0001a3c4:    f02b0380    +...    BIC      r3,r11,#0x80
        0x0001a3c8:    eb0c0243    ..C.    ADD      r2,r12,r3,LSL #1
        0x0001a3cc:    f04f0c01    O...    MOV      r12,#1
        0x0001a3d0:    fa0cf303    ....    LSL      r3,r12,r3
        0x0001a3d4:    f0030b3f    ..?.    AND      r11,r3,#0x3f
        0x0001a3d8:    b320         .      CBZ      r0,0x1a424 ; am_hal_usb_ep_xfer + 452
        0x0001a3da:    b310        ..      CBZ      r0,0x1a422 ; am_hal_usb_ep_xfer + 450
        0x0001a3dc:    f8b27058    ..Xp    LDRH     r7,[r2,#0x58]
        0x0001a3e0:    42bd        .B      CMP      r5,r7
        0x0001a3e2:    d206        ..      BCS      0x1a3f2 ; am_hal_usb_ep_xfer + 402
        0x0001a3e4:    462b        +F      MOV      r3,r5
        0x0001a3e6:    4652        RF      MOV      r2,r10
        0x0001a3e8:    4620         F      MOV      r0,r4
        0x0001a3ea:    f000f831    ..1.    BL       am_hal_usb_fifo_loading ; 0x1a450
        0x0001a3ee:    2000        .       MOVS     r0,#0
        0x0001a3f0:    e005        ..      B        0x1a3fe ; am_hal_usb_ep_xfer + 414
        0x0001a3f2:    463b        ;F      MOV      r3,r7
        0x0001a3f4:    4652        RF      MOV      r2,r10
        0x0001a3f6:    4620         F      MOV      r0,r4
        0x0001a3f8:    f000f82a    ..*.    BL       am_hal_usb_fifo_loading ; 0x1a450
        0x0001a3fc:    1be8        ..      SUBS     r0,r5,r7
        0x0001a3fe:    80f0        ..      STRH     r0,[r6,#6]
        0x0001a400:    42bd        .B      CMP      r5,r7
        0x0001a402:    d103        ..      BNE      0x1a40c ; am_hal_usb_ep_xfer + 428
        0x0001a404:    7a30        0z      LDRB     r0,[r6,#8]
        0x0001a406:    f0400002    @...    ORR      r0,r0,#2
        0x0001a40a:    7230        0r      STRB     r0,[r6,#8]
        0x0001a40c:    f8c6a000    ....    STR      r10,[r6,#0]
        0x0001a410:    80b5        ..      STRH     r5,[r6,#4]
        0x0001a412:    6920         i      LDR      r0,[r4,#0x10]
        0x0001a414:    f4403080    @..0    ORR      r0,r0,#0x10000
        0x0001a418:    6120         a      STR      r0,[r4,#0x10]
        0x0001a41a:    88e0        ..      LDRH     r0,[r4,#6]
        0x0001a41c:    ea40000b    @...    ORR      r0,r0,r11
        0x0001a420:    80e0        ..      STRH     r0,[r4,#6]
        0x0001a422:    e00b        ..      B        0x1a43c ; am_hal_usb_ep_xfer + 476
        0x0001a424:    f8c6a000    ....    STR      r10,[r6,#0]
        0x0001a428:    80b5        ..      STRH     r5,[r6,#4]
        0x0001a42a:    80f5        ..      STRH     r5,[r6,#6]
        0x0001a42c:    6960        `i      LDR      r0,[r4,#0x14]
        0x0001a42e:    f4203080     ..0    BIC      r0,r0,#0x10000
        0x0001a432:    6160        `a      STR      r0,[r4,#0x14]
        0x0001a434:    7a20         z      LDRB     r0,[r4,#8]
        0x0001a436:    ea40000b    @...    ORR      r0,r0,r11
        0x0001a43a:    7220         r      STRB     r0,[r4,#8]
        0x0001a43c:    2000        .       MOVS     r0,#0
        0x0001a43e:    f8c98100    ....    STR      r8,[r9,#0x100]
        0x0001a442:    e8bd9ff0    ....    POP      {r4-r12,pc}
    $d
        0x0001a446:    0000        ..      DCW    0
        0x0001a448:    00ea9e06    ....    DCD    15375878
        0x0001a44c:    400b0000    ...@    DCD    1074462720
    $t
    i.am_hal_usb_fifo_loading
    am_hal_usb_fifo_loading
        0x0001a450:    b430        0.      PUSH     {r4,r5}
        0x0001a452:    ea5f0c93    _...    LSRS     r12,r3,#2
        0x0001a456:    f1cc0400    ....    RSB      r4,r12,#0
        0x0001a45a:    eb030384    ....    ADD      r3,r3,r4,LSL #2
        0x0001a45e:    eb000181    ....    ADD      r1,r0,r1,LSL #2
        0x0001a462:    d011        ..      BEQ      0x1a488 ; am_hal_usb_fifo_loading + 56
        0x0001a464:    f01c0001    ....    ANDS     r0,r12,#1
        0x0001a468:    bf1c        ..      ITT      NE
        0x0001a46a:    6814        .h      LDRNE    r4,[r2,#0]
        0x0001a46c:    620c        .b      STRNE    r4,[r1,#0x20]
        0x0001a46e:    4560        `E      CMP      r0,r12
        0x0001a470:    d20a        ..      BCS      0x1a488 ; am_hal_usb_fifo_loading + 56
        0x0001a472:    bf00        ..      NOP      
        0x0001a474:    f8524020    R. @    LDR      r4,[r2,r0,LSL #2]
        0x0001a478:    620c        .b      STR      r4,[r1,#0x20]
        0x0001a47a:    eb020480    ....    ADD      r4,r2,r0,LSL #2
        0x0001a47e:    6864        dh      LDR      r4,[r4,#4]
        0x0001a480:    620c        .b      STR      r4,[r1,#0x20]
        0x0001a482:    1c80        ..      ADDS     r0,r0,#2
        0x0001a484:    4560        `E      CMP      r0,r12
        0x0001a486:    d3f5        ..      BCC      0x1a474 ; am_hal_usb_fifo_loading + 36
        0x0001a488:    2b00        .+      CMP      r3,#0
        0x0001a48a:    bf04        ..      ITT      EQ
        0x0001a48c:    bc30        0.      POPEQ    {r4,r5}
        0x0001a48e:    4770        pG      BXEQ     lr
        0x0001a490:    3120         1      ADDS     r1,r1,#0x20
        0x0001a492:    f0130001    ....    ANDS     r0,r3,#1
        0x0001a496:    bf1c        ..      ITT      NE
        0x0001a498:    f812402c    ..,@    LDRBNE   r4,[r2,r12,LSL #2]
        0x0001a49c:    700c        .p      STRBNE   r4,[r1,#0]
        0x0001a49e:    4298        .B      CMP      r0,r3
        0x0001a4a0:    bf24        $.      ITT      CS
        0x0001a4a2:    bc30        0.      POPCS    {r4,r5}
        0x0001a4a4:    4770        pG      BXCS     lr
        0x0001a4a6:    bf00        ..      NOP      
        0x0001a4a8:    eb00048c    ....    ADD      r4,r0,r12,LSL #2
        0x0001a4ac:    5d15        .]      LDRB     r5,[r2,r4]
        0x0001a4ae:    700d        .p      STRB     r5,[r1,#0]
        0x0001a4b0:    4414        .D      ADD      r4,r4,r2
        0x0001a4b2:    7864        dx      LDRB     r4,[r4,#1]
        0x0001a4b4:    700c        .p      STRB     r4,[r1,#0]
        0x0001a4b6:    1c80        ..      ADDS     r0,r0,#2
        0x0001a4b8:    4298        .B      CMP      r0,r3
        0x0001a4ba:    d3f5        ..      BCC      0x1a4a8 ; am_hal_usb_fifo_loading + 88
        0x0001a4bc:    bc30        0.      POP      {r4,r5}
        0x0001a4be:    4770        pG      BX       lr
    i.am_hal_usb_initialize
    am_hal_usb_initialize
        0x0001a4c0:    2800        .(      CMP      r0,#0
        0x0001a4c2:    bf1c        ..      ITT      NE
        0x0001a4c4:    2005        .       MOVNE    r0,#5
        0x0001a4c6:    4770        pG      BXNE     lr
        0x0001a4c8:    2900        .)      CMP      r1,#0
        0x0001a4ca:    bf04        ..      ITT      EQ
        0x0001a4cc:    2006        .       MOVEQ    r0,#6
        0x0001a4ce:    4770        pG      BXEQ     lr
        0x0001a4d0:    2200        ."      MOVS     r2,#0
        0x0001a4d2:    480a        .H      LDR      r0,[pc,#40] ; [0x1a4fc] = 0x10000f00
        0x0001a4d4:    6803        .h      LDR      r3,[r0,#0]
        0x0001a4d6:    f0137f80    ....    TST      r3,#0x1000000
        0x0001a4da:    bf1c        ..      ITT      NE
        0x0001a4dc:    2007        .       MOVNE    r0,#7
        0x0001a4de:    4770        pG      BXNE     lr
        0x0001a4e0:    f0437380    C..s    ORR      r3,r3,#0x1000000
        0x0001a4e4:    f8dfc018    ....    LDR      r12,[pc,#24] ; [0x1a500] = 0xea9e06
        0x0001a4e8:    f36c0317    l...    BFI      r3,r12,#0,#24
        0x0001a4ec:    6003        .`      STR      r3,[r0,#0]
        0x0001a4ee:    f8c020f8    ...     STR      r2,[r0,#0xf8]
        0x0001a4f2:    7102        .q      STRB     r2,[r0,#4]
        0x0001a4f4:    6008        .`      STR      r0,[r1,#0]
        0x0001a4f6:    2000        .       MOVS     r0,#0
        0x0001a4f8:    4770        pG      BX       lr
    $d
        0x0001a4fa:    0000        ..      DCW    0
        0x0001a4fc:    10000f00    ....    DCD    268439296
        0x0001a500:    00ea9e06    ....    DCD    15375878
    $t
    i.am_hal_usb_interrupt_service
    am_hal_usb_interrupt_service
        0x0001a504:    e92d4fff    -..O    PUSH     {r0-r11,lr}
        0x0001a508:    b083        ..      SUB      sp,sp,#0xc
        0x0001a50a:    4693        .F      MOV      r11,r2
        0x0001a50c:    1e05        ..      SUBS     r5,r0,#0
        0x0001a50e:    bf19        ..      ITTEE    NE
        0x0001a510:    6828        (h      LDRNE    r0,[r5,#0]
        0x0001a512:    f0107f80    ....    TSTNE    r0,#0x1000000
        0x0001a516:    b007        ..      ADDEQ    sp,sp,#0x1c
        0x0001a518:    e8bd8ff0    ....    POPEQ    {r4-r11,pc}
        0x0001a51c:    f020407f     ..@    BIC      r0,r0,#0xff000000
        0x0001a520:    49fe        .I      LDR      r1,[pc,#1016] ; [0x1a91c] = 0xea9e06
        0x0001a522:    4288        .B      CMP      r0,r1
        0x0001a524:    bf1c        ..      ITT      NE
        0x0001a526:    b007        ..      ADDNE    sp,sp,#0x1c
        0x0001a528:    e8bd8ff0    ....    POPNE    {r4-r11,pc}
        0x0001a52c:    4efc        .N      LDR      r6,[pc,#1008] ; [0x1a920] = 0x400b0000
        0x0001a52e:    9804        ..      LDR      r0,[sp,#0x10]
        0x0001a530:    f0100f02    ....    TST      r0,#2
        0x0001a534:    d00e        ..      BEQ      0x1a554 ; am_hal_usb_interrupt_service + 80
        0x0001a536:    48fb        .H      LDR      r0,[pc,#1004] ; [0x1a924] = 0x400b4000
        0x0001a538:    6901        .i      LDR      r1,[r0,#0x10]
        0x0001a53a:    f0410102    A...    ORR      r1,r1,#2
        0x0001a53e:    6101        .a      STR      r1,[r0,#0x10]
        0x0001a540:    f04f0003    O...    MOV      r0,#3
        0x0001a544:    f8850055    ..U.    STRB     r0,[r5,#0x55]
        0x0001a548:    f8d510fc    ....    LDR      r1,[r5,#0xfc]
        0x0001a54c:    2900        .)      CMP      r1,#0
        0x0001a54e:    bf1c        ..      ITT      NE
        0x0001a550:    2002        .       MOVNE    r0,#2
        0x0001a552:    4788        .G      BLXNE    r1
        0x0001a554:    9804        ..      LDR      r0,[sp,#0x10]
        0x0001a556:    f04f0700    O...    MOV      r7,#0
        0x0001a55a:    f0100f04    ....    TST      r0,#4
        0x0001a55e:    d074        t.      BEQ      0x1a64a ; am_hal_usb_interrupt_service + 326
        0x0001a560:    f8857055    ..Up    STRB     r7,[r5,#0x55]
        0x0001a564:    f8951078    ..x.    LDRB     r1,[r5,#0x78]
        0x0001a568:    f1050070    ..p.    ADD      r0,r5,#0x70
        0x0001a56c:    f0110f01    ....    TST      r1,#1
        0x0001a570:    d014        ..      BEQ      0x1a59c ; am_hal_usb_interrupt_service + 152
        0x0001a572:    f3c10180    ....    UBFX     r1,r1,#2,#1
        0x0001a576:    f1110c00    ....    ADDS     r12,r1,#0
        0x0001a57a:    bf18        ..      IT       NE
        0x0001a57c:    f04f0c80    O...    MOVNE    r12,#0x80
        0x0001a580:    8882        ..      LDRH     r2,[r0,#4]
        0x0001a582:    88c1        ..      LDRH     r1,[r0,#6]
        0x0001a584:    1a51        Q.      SUBS     r1,r2,r1
        0x0001a586:    b289        ..      UXTH     r1,r1
        0x0001a588:    2204        ."      MOVS     r2,#4
        0x0001a58a:    b138        8.      CBZ      r0,0x1a59c ; am_hal_usb_interrupt_service + 152
        0x0001a58c:    6007        .`      STR      r7,[r0,#0]
        0x0001a58e:    6047        G`      STR      r7,[r0,#4]
        0x0001a590:    6087        .`      STR      r7,[r0,#8]
        0x0001a592:    f8d54104    ...A    LDR      r4,[r5,#0x104]
        0x0001a596:    463b        ;F      MOV      r3,r7
        0x0001a598:    4660        `F      MOV      r0,r12
        0x0001a59a:    47a0        .G      BLX      r4
        0x0001a59c:    f8857056    ..Vp    STRB     r7,[r5,#0x56]
        0x0001a5a0:    672f        /g      STR      r7,[r5,#0x70]
        0x0001a5a2:    676f        og      STR      r7,[r5,#0x74]
        0x0001a5a4:    f04f0800    O...    MOV      r8,#0
        0x0001a5a8:    67af        .g      STR      r7,[r5,#0x78]
        0x0001a5aa:    eb080048    ..H.    ADD      r0,r8,r8,LSL #1
        0x0001a5ae:    2400        .$      MOVS     r4,#0
        0x0001a5b0:    eb0509c0    ....    ADD      r9,r5,r0,LSL #3
        0x0001a5b4:    f1080a01    ....    ADD      r10,r8,#1
        0x0001a5b8:    eb040044    ..D.    ADD      r0,r4,r4,LSL #1
        0x0001a5bc:    eb090080    ....    ADD      r0,r9,r0,LSL #2
        0x0001a5c0:    f1000c7c    ..|.    ADD      r12,r0,#0x7c
        0x0001a5c4:    f8900084    ....    LDRB     r0,[r0,#0x84]
        0x0001a5c8:    f0100f01    ....    TST      r0,#1
        0x0001a5cc:    d01c        ..      BEQ      0x1a608 ; am_hal_usb_interrupt_service + 260
        0x0001a5ce:    f00a01ff    ....    AND      r1,r10,#0xff
        0x0001a5d2:    f01400ff    ....    ANDS     r0,r4,#0xff
        0x0001a5d6:    bf18        ..      IT       NE
        0x0001a5d8:    2080        .       MOVNE    r0,#0x80
        0x0001a5da:    4308        .C      ORRS     r0,r0,r1
        0x0001a5dc:    f8bc1004    ....    LDRH     r1,[r12,#4]
        0x0001a5e0:    f8bc2006    ...     LDRH     r2,[r12,#6]
        0x0001a5e4:    1a89        ..      SUBS     r1,r1,r2
        0x0001a5e6:    2204        ."      MOVS     r2,#4
        0x0001a5e8:    b289        ..      UXTH     r1,r1
        0x0001a5ea:    2d00        .-      CMP      r5,#0
        0x0001a5ec:    bf18        ..      IT       NE
        0x0001a5ee:    f1bc0f00    ....    CMPNE    r12,#0
        0x0001a5f2:    d009        ..      BEQ      0x1a608 ; am_hal_usb_interrupt_service + 260
        0x0001a5f4:    f8cc7000    ...p    STR      r7,[r12,#0]
        0x0001a5f8:    f8cc7004    ...p    STR      r7,[r12,#4]
        0x0001a5fc:    f8cc7008    ...p    STR      r7,[r12,#8]
        0x0001a600:    f8d5c104    ....    LDR      r12,[r5,#0x104]
        0x0001a604:    463b        ;F      MOV      r3,r7
        0x0001a606:    47e0        .G      BLX      r12
        0x0001a608:    1c64        d.      ADDS     r4,r4,#1
        0x0001a60a:    2c02        .,      CMP      r4,#2
        0x0001a60c:    dbd4        ..      BLT      0x1a5b8 ; am_hal_usb_interrupt_service + 180
        0x0001a60e:    f1080801    ....    ADD      r8,r8,#1
        0x0001a612:    f1b80f05    ....    CMP      r8,#5
        0x0001a616:    dbc8        ..      BLT      0x1a5aa ; am_hal_usb_interrupt_service + 166
        0x0001a618:    2178        x!      MOVS     r1,#0x78
        0x0001a61a:    f105007c    ..|.    ADD      r0,r5,#0x7c
        0x0001a61e:    f7fdffca    ....    BL       __aeabi_memclr4 ; 0x185b6
        0x0001a622:    2008        .       MOVS     r0,#8
        0x0001a624:    6528        (e      STR      r0,[r5,#0x50]
        0x0001a626:    88f0        ..      LDRH     r0,[r6,#6]
        0x0001a628:    80f7        ..      STRH     r7,[r6,#6]
        0x0001a62a:    7a30        0z      LDRB     r0,[r6,#8]
        0x0001a62c:    7237        7r      STRB     r7,[r6,#8]
        0x0001a62e:    7af0        .z      LDRB     r0,[r6,#0xb]
        0x0001a630:    f0200008     ...    BIC      r0,r0,#8
        0x0001a634:    72f0        .r      STRB     r0,[r6,#0xb]
        0x0001a636:    7af0        .z      LDRB     r0,[r6,#0xb]
        0x0001a638:    f0400001    @...    ORR      r0,r0,#1
        0x0001a63c:    72f0        .r      STRB     r0,[r6,#0xb]
        0x0001a63e:    f8d510fc    ....    LDR      r1,[r5,#0xfc]
        0x0001a642:    2900        .)      CMP      r1,#0
        0x0001a644:    bf1c        ..      ITT      NE
        0x0001a646:    2000        .       MOVNE    r0,#0
        0x0001a648:    4788        .G      BLXNE    r1
        0x0001a64a:    9804        ..      LDR      r0,[sp,#0x10]
        0x0001a64c:    f0100f08    ....    TST      r0,#8
        0x0001a650:    bf1f        ..      ITTTT    NE
        0x0001a652:    f8d510fc    ....    LDRNE    r1,[r5,#0xfc]
        0x0001a656:    2900        .)      CMPNE    r1,#0
        0x0001a658:    2001        .       MOVNE    r0,#1
        0x0001a65a:    4788        .G      BLXNE    r1
        0x0001a65c:    f01b0f01    ....    TST      r11,#1
        0x0001a660:    f0008194    ....    BEQ.W    0x1a98c ; am_hal_usb_interrupt_service + 1160
        0x0001a664:    68f0        .h      LDR      r0,[r6,#0xc]
        0x0001a666:    f4202170     .p!    BIC      r1,r0,#0xf0000
        0x0001a66a:    60f1        .`      STR      r1,[r6,#0xc]
        0x0001a66c:    68f1        .h      LDR      r1,[r6,#0xc]
        0x0001a66e:    60f1        .`      STR      r1,[r6,#0xc]
        0x0001a670:    f8950056    ..V.    LDRB     r0,[r5,#0x56]
        0x0001a674:    f8b5a058    ..X.    LDRH     r10,[r5,#0x58]
        0x0001a678:    2806        .(      CMP      r0,#6
        0x0001a67a:    f0808187    ....    BCS.W    0x1a98c ; am_hal_usb_interrupt_service + 1160
        0x0001a67e:    e8dff000    ....    TBB      [pc,r0]
    $d
        0x0001a682:    0703        ..      DCW    1795
        0x0001a684:    f0f1a711    ....    DCD    4042368785
    $t
        0x0001a688:    4631        1F      MOV      r1,r6
        0x0001a68a:    4628        (F      MOV      r0,r5
        0x0001a68c:    f000b97c    ..|.    B.W      0x1a988 ; am_hal_usb_interrupt_service + 1156
        0x0001a690:    6930        0i      LDR      r0,[r6,#0x10]
        0x0001a692:    f4102f80    .../    TST      r0,#0x40000
        0x0001a696:    f0008179    ..y.    BEQ.W    0x1a98c ; am_hal_usb_interrupt_service + 1160
        0x0001a69a:    6930        0i      LDR      r0,[r6,#0x10]
        0x0001a69c:    f4202180     ..!    BIC      r1,r0,#0x40000
        0x0001a6a0:    6131        1a      STR      r1,[r6,#0x10]
        0x0001a6a2:    e02b        +.      B        0x1a6fc ; am_hal_usb_interrupt_service + 504
        0x0001a6a4:    f8b52076    ..v     LDRH     r2,[r5,#0x76]
        0x0001a6a8:    f8b50074    ..t.    LDRH     r0,[r5,#0x74]
        0x0001a6ac:    6931        1i      LDR      r1,[r6,#0x10]
        0x0001a6ae:    eba00002    ....    SUB      r0,r0,r2
        0x0001a6b2:    b280        ..      UXTH     r0,r0
        0x0001a6b4:    f4111f80    ....    TST      r1,#0x100000
        0x0001a6b8:    d027        '.      BEQ      0x1a70a ; am_hal_usb_interrupt_service + 518
        0x0001a6ba:    6930        0i      LDR      r0,[r6,#0x10]
        0x0001a6bc:    f4400100    @...    ORR      r1,r0,#0x800000
        0x0001a6c0:    6131        1a      STR      r1,[r6,#0x10]
        0x0001a6c2:    6930        0i      LDR      r0,[r6,#0x10]
        0x0001a6c4:    f4103f80    ...?    TST      r0,#0x10000
        0x0001a6c8:    f0408160    @.`.    BNE.W    0x1a98c ; am_hal_usb_interrupt_service + 1160
        0x0001a6cc:    0028        (.      MOVS     r0,r5
        0x0001a6ce:    f8b51074    ..t.    LDRH     r1,[r5,#0x74]
        0x0001a6d2:    f8b03076    ..v0    LDRH     r3,[r0,#0x76]
        0x0001a6d6:    f1050270    ..p.    ADD      r2,r5,#0x70
        0x0001a6da:    eba10103    ....    SUB      r1,r1,r3
        0x0001a6de:    b289        ..      UXTH     r1,r1
        0x0001a6e0:    f04f0c06    O...    MOV      r12,#6
        0x0001a6e4:    bf18        ..      IT       NE
        0x0001a6e6:    2a00        .*      CMPNE    r2,#0
        0x0001a6e8:    d008        ..      BEQ      0x1a6fc ; am_hal_usb_interrupt_service + 504
        0x0001a6ea:    6017        .`      STR      r7,[r2,#0]
        0x0001a6ec:    6057        W`      STR      r7,[r2,#4]
        0x0001a6ee:    6097        .`      STR      r7,[r2,#8]
        0x0001a6f0:    f8d54104    ...A    LDR      r4,[r5,#0x104]
        0x0001a6f4:    463b        ;F      MOV      r3,r7
        0x0001a6f6:    4662        bF      MOV      r2,r12
        0x0001a6f8:    4638        8F      MOV      r0,r7
        0x0001a6fa:    47a0        .G      BLX      r4
        0x0001a6fc:    f8857056    ..Vp    STRB     r7,[r5,#0x56]
        0x0001a700:    672f        /g      STR      r7,[r5,#0x70]
        0x0001a702:    676f        og      STR      r7,[r5,#0x74]
        0x0001a704:    67af        .g      STR      r7,[r5,#0x78]
        0x0001a706:    f000b941    ..A.    B.W      0x1a98c ; am_hal_usb_interrupt_service + 1160
        0x0001a70a:    6931        1i      LDR      r1,[r6,#0x10]
        0x0001a70c:    f4112f80    .../    TST      r1,#0x40000
        0x0001a710:    d005        ..      BEQ      0x1a71e ; am_hal_usb_interrupt_service + 538
        0x0001a712:    6930        0i      LDR      r0,[r6,#0x10]
        0x0001a714:    f4202180     ..!    BIC      r1,r0,#0x40000
        0x0001a718:    6131        1a      STR      r1,[r6,#0x10]
        0x0001a71a:    f000b937    ..7.    B.W      0x1a98c ; am_hal_usb_interrupt_service + 1160
        0x0001a71e:    6931        1i      LDR      r1,[r6,#0x10]
        0x0001a720:    f4113f80    ...?    TST      r1,#0x10000
        0x0001a724:    f0008132    ..2.    BEQ.W    0x1a98c ; am_hal_usb_interrupt_service + 1160
        0x0001a728:    69b1        .i      LDR      r1,[r6,#0x18]
        0x0001a72a:    4634        4F      MOV      r4,r6
        0x0001a72c:    f3c10c0c    ....    UBFX     r12,r1,#0,#13
        0x0001a730:    eba2010c    ....    SUB      r1,r2,r12
        0x0001a734:    f8a51076    ..v.    STRH     r1,[r5,#0x76]
        0x0001a738:    6f29        )o      LDR      r1,[r5,#0x70]
        0x0001a73a:    f04f0e00    O...    MOV      lr,#0
        0x0001a73e:    eb010200    ....    ADD      r2,r1,r0
        0x0001a742:    ea5f019c    _...    LSRS     r1,r12,#2
        0x0001a746:    f1c10000    ....    RSB      r0,r1,#0
        0x0001a74a:    eb0c0080    ....    ADD      r0,r12,r0,LSL #2
        0x0001a74e:    9000        ..      STR      r0,[sp,#0]
        0x0001a750:    d017        ..      BEQ      0x1a782 ; am_hal_usb_interrupt_service + 638
        0x0001a752:    f0110001    ....    ANDS     r0,r1,#1
        0x0001a756:    bf1c        ..      ITT      NE
        0x0001a758:    6a23        #j      LDRNE    r3,[r4,#0x20]
        0x0001a75a:    6013        .`      STRNE    r3,[r2,#0]
        0x0001a75c:    4288        .B      CMP      r0,r1
        0x0001a75e:    bf38        8.      IT       CC
        0x0001a760:    eb04038e    ....    ADDCC    r3,r4,lr,LSL #2
        0x0001a764:    d20d        ..      BCS      0x1a782 ; am_hal_usb_interrupt_service + 638
        0x0001a766:    bf00        ..      NOP      
        0x0001a768:    f8d38020    .. .    LDR      r8,[r3,#0x20]
        0x0001a76c:    f8428020    B. .    STR      r8,[r2,r0,LSL #2]
        0x0001a770:    f8d38020    .. .    LDR      r8,[r3,#0x20]
        0x0001a774:    eb020980    ....    ADD      r9,r2,r0,LSL #2
        0x0001a778:    1c80        ..      ADDS     r0,r0,#2
        0x0001a77a:    f8c98004    ....    STR      r8,[r9,#4]
        0x0001a77e:    4288        .B      CMP      r0,r1
        0x0001a780:    d3f2        ..      BCC      0x1a768 ; am_hal_usb_interrupt_service + 612
        0x0001a782:    9800        ..      LDR      r0,[sp,#0]
        0x0001a784:    b1a0        ..      CBZ      r0,0x1a7b0 ; am_hal_usb_interrupt_service + 684
        0x0001a786:    eb06008e    ....    ADD      r0,r6,lr,LSL #2
        0x0001a78a:    f8903020    .. 0    LDRB     r3,[r0,#0x20]
        0x0001a78e:    eb020081    ....    ADD      r0,r2,r1,LSL #2
        0x0001a792:    1e41        A.      SUBS     r1,r0,#1
        0x0001a794:    9800        ..      LDR      r0,[sp,#0]
        0x0001a796:    f0100f01    ....    TST      r0,#1
        0x0001a79a:    bf18        ..      IT       NE
        0x0001a79c:    f8013f01    ...?    STRBNE   r3,[r1,#1]!
        0x0001a7a0:    9800        ..      LDR      r0,[sp,#0]
        0x0001a7a2:    0840        @.      LSRS     r0,r0,#1
        0x0001a7a4:    d004        ..      BEQ      0x1a7b0 ; am_hal_usb_interrupt_service + 684
        0x0001a7a6:    704b        Kp      STRB     r3,[r1,#1]
        0x0001a7a8:    f8013f02    ...?    STRB     r3,[r1,#2]!
        0x0001a7ac:    1e40        @.      SUBS     r0,r0,#1
        0x0001a7ae:    d1fa        ..      BNE      0x1a7a6 ; am_hal_usb_interrupt_service + 674
        0x0001a7b0:    45d4        .E      CMP      r12,r10
        0x0001a7b2:    d208        ..      BCS      0x1a7c6 ; am_hal_usb_interrupt_service + 706
        0x0001a7b4:    2104        .!      MOVS     r1,#4
        0x0001a7b6:    f8851056    ..V.    STRB     r1,[r5,#0x56]
        0x0001a7ba:    6920         i      LDR      r0,[r4,#0x10]
        0x0001a7bc:    f4400190    @...    ORR      r1,r0,#0x480000
        0x0001a7c0:    6131        1a      STR      r1,[r6,#0x10]
        0x0001a7c2:    f000b8e3    ....    B.W      0x1a98c ; am_hal_usb_interrupt_service + 1160
        0x0001a7c6:    6920         i      LDR      r0,[r4,#0x10]
        0x0001a7c8:    f4400180    @...    ORR      r1,r0,#0x400000
        0x0001a7cc:    6131        1a      STR      r1,[r6,#0x10]
        0x0001a7ce:    e0dd        ..      B        0x1a98c ; am_hal_usb_interrupt_service + 1160
        0x0001a7d0:    f8b53076    ..v0    LDRH     r3,[r5,#0x76]
        0x0001a7d4:    f8b51074    ..t.    LDRH     r1,[r5,#0x74]
        0x0001a7d8:    6f28        (o      LDR      r0,[r5,#0x70]
        0x0001a7da:    1ac9        ..      SUBS     r1,r1,r3
        0x0001a7dc:    6932        2i      LDR      r2,[r6,#0x10]
        0x0001a7de:    b289        ..      UXTH     r1,r1
        0x0001a7e0:    f4121f80    ....    TST      r2,#0x100000
        0x0001a7e4:    d022        ".      BEQ      0x1a82c ; am_hal_usb_interrupt_service + 808
        0x0001a7e6:    6930        0i      LDR      r0,[r6,#0x10]
        0x0001a7e8:    f4400100    @...    ORR      r1,r0,#0x800000
        0x0001a7ec:    6131        1a      STR      r1,[r6,#0x10]
        0x0001a7ee:    0028        (.      MOVS     r0,r5
        0x0001a7f0:    f8b51074    ..t.    LDRH     r1,[r5,#0x74]
        0x0001a7f4:    f8b02076    ..v     LDRH     r2,[r0,#0x76]
        0x0001a7f8:    f1050c70    ..p.    ADD      r12,r5,#0x70
        0x0001a7fc:    eba10102    ....    SUB      r1,r1,r2
        0x0001a800:    f04f0480    O...    MOV      r4,#0x80
        0x0001a804:    b289        ..      UXTH     r1,r1
        0x0001a806:    f04f0206    O...    MOV      r2,#6
        0x0001a80a:    bf18        ..      IT       NE
        0x0001a80c:    f1bc0f00    ....    CMPNE    r12,#0
        0x0001a810:    f43faf74    ?.t.    BEQ      0x1a6fc ; am_hal_usb_interrupt_service + 504
        0x0001a814:    f8cc7000    ...p    STR      r7,[r12,#0]
        0x0001a818:    f8cc7004    ...p    STR      r7,[r12,#4]
        0x0001a81c:    f8cc7008    ...p    STR      r7,[r12,#8]
        0x0001a820:    f8d5c104    ....    LDR      r12,[r5,#0x104]
        0x0001a824:    463b        ;F      MOV      r3,r7
        0x0001a826:    4620         F      MOV      r0,r4
        0x0001a828:    47e0        .G      BLX      r12
        0x0001a82a:    e767        g.      B        0x1a6fc ; am_hal_usb_interrupt_service + 504
        0x0001a82c:    6932        2i      LDR      r2,[r6,#0x10]
        0x0001a82e:    f4122f80    .../    TST      r2,#0x40000
        0x0001a832:    f47faf6e    ..n.    BNE      0x1a712 ; am_hal_usb_interrupt_service + 526
        0x0001a836:    6932        2i      LDR      r2,[r6,#0x10]
        0x0001a838:    f4123f00    ...?    TST      r2,#0x20000
        0x0001a83c:    d174        t.      BNE      0x1a928 ; am_hal_usb_interrupt_service + 1060
        0x0001a83e:    461a        .F      MOV      r2,r3
        0x0001a840:    4553        SE      CMP      r3,r10
        0x0001a842:    d810        ..      BHI      0x1a866 ; am_hal_usb_interrupt_service + 866
        0x0001a844:    1842        B.      ADDS     r2,r0,r1
        0x0001a846:    2100        .!      MOVS     r1,#0
        0x0001a848:    4630        0F      MOV      r0,r6
        0x0001a84a:    f7fffe01    ....    BL       am_hal_usb_fifo_loading ; 0x1a450
        0x0001a84e:    f8a57076    ..vp    STRH     r7,[r5,#0x76]
        0x0001a852:    2005        .       MOVS     r0,#5
        0x0001a854:    f8850056    ..V.    STRB     r0,[r5,#0x56]
        0x0001a858:    6930        0i      LDR      r0,[r6,#0x10]
        0x0001a85a:    f4402120    @. !    ORR      r1,r0,#0xa0000
        0x0001a85e:    6131        1a      STR      r1,[r6,#0x10]
        0x0001a860:    e094        ..      B        0x1a98c ; am_hal_usb_interrupt_service + 1160
        0x0001a862:    e046        F.      B        0x1a8f2 ; am_hal_usb_interrupt_service + 1006
        0x0001a864:    e00e        ..      B        0x1a884 ; am_hal_usb_interrupt_service + 896
        0x0001a866:    eba2020a    ....    SUB      r2,r2,r10
        0x0001a86a:    f8a52076    ..v     STRH     r2,[r5,#0x76]
        0x0001a86e:    1842        B.      ADDS     r2,r0,r1
        0x0001a870:    4653        SF      MOV      r3,r10
        0x0001a872:    2100        .!      MOVS     r1,#0
        0x0001a874:    4630        0F      MOV      r0,r6
        0x0001a876:    f7fffdeb    ....    BL       am_hal_usb_fifo_loading ; 0x1a450
        0x0001a87a:    6930        0i      LDR      r0,[r6,#0x10]
        0x0001a87c:    f4403100    @..1    ORR      r1,r0,#0x20000
        0x0001a880:    6131        1a      STR      r1,[r6,#0x10]
        0x0001a882:    e083        ..      B        0x1a98c ; am_hal_usb_interrupt_service + 1160
        0x0001a884:    6930        0i      LDR      r0,[r6,#0x10]
        0x0001a886:    f4102f80    .../    TST      r0,#0x40000
        0x0001a88a:    d01b        ..      BEQ      0x1a8c4 ; am_hal_usb_interrupt_service + 960
        0x0001a88c:    6930        0i      LDR      r0,[r6,#0x10]
        0x0001a88e:    f4202180     ..!    BIC      r1,r0,#0x40000
        0x0001a892:    6131        1a      STR      r1,[r6,#0x10]
        0x0001a894:    0029        ).      MOVS     r1,r5
        0x0001a896:    f8b50074    ..t.    LDRH     r0,[r5,#0x74]
        0x0001a89a:    f8b12076    ..v     LDRH     r2,[r1,#0x76]
        0x0001a89e:    f1050370    ..p.    ADD      r3,r5,#0x70
        0x0001a8a2:    eba00002    ....    SUB      r0,r0,r2
        0x0001a8a6:    b284        ..      UXTH     r4,r0
        0x0001a8a8:    f04f0202    O...    MOV      r2,#2
        0x0001a8ac:    bf18        ..      IT       NE
        0x0001a8ae:    2b00        .+      CMPNE    r3,#0
        0x0001a8b0:    d063        c.      BEQ      0x1a97a ; am_hal_usb_interrupt_service + 1142
        0x0001a8b2:    601f        .`      STR      r7,[r3,#0]
        0x0001a8b4:    605f        _`      STR      r7,[r3,#4]
        0x0001a8b6:    609f        .`      STR      r7,[r3,#8]
        0x0001a8b8:    4638        8F      MOV      r0,r7
        0x0001a8ba:    4603        .F      MOV      r3,r0
        0x0001a8bc:    4621        !F      MOV      r1,r4
        0x0001a8be:    f8d5c104    ....    LDR      r12,[r5,#0x104]
        0x0001a8c2:    e014        ..      B        0x1a8ee ; am_hal_usb_interrupt_service + 1002
        0x0001a8c4:    0028        (.      MOVS     r0,r5
        0x0001a8c6:    f8b51074    ..t.    LDRH     r1,[r5,#0x74]
        0x0001a8ca:    f8b03076    ..v0    LDRH     r3,[r0,#0x76]
        0x0001a8ce:    f1050270    ..p.    ADD      r2,r5,#0x70
        0x0001a8d2:    eba10103    ....    SUB      r1,r1,r3
        0x0001a8d6:    b289        ..      UXTH     r1,r1
        0x0001a8d8:    bf18        ..      IT       NE
        0x0001a8da:    2a00        .*      CMPNE    r2,#0
        0x0001a8dc:    d04d        M.      BEQ      0x1a97a ; am_hal_usb_interrupt_service + 1142
        0x0001a8de:    6017        .`      STR      r7,[r2,#0]
        0x0001a8e0:    6057        W`      STR      r7,[r2,#4]
        0x0001a8e2:    6097        .`      STR      r7,[r2,#8]
        0x0001a8e4:    463a        :F      MOV      r2,r7
        0x0001a8e6:    f8d5c104    ....    LDR      r12,[r5,#0x104]
        0x0001a8ea:    463b        ;F      MOV      r3,r7
        0x0001a8ec:    4610        .F      MOV      r0,r2
        0x0001a8ee:    47e0        .G      BLX      r12
        0x0001a8f0:    e043        C.      B        0x1a97a ; am_hal_usb_interrupt_service + 1142
        0x0001a8f2:    6930        0i      LDR      r0,[r6,#0x10]
        0x0001a8f4:    f4102f80    .../    TST      r0,#0x40000
        0x0001a8f8:    d026        &.      BEQ      0x1a948 ; am_hal_usb_interrupt_service + 1092
        0x0001a8fa:    6930        0i      LDR      r0,[r6,#0x10]
        0x0001a8fc:    f4202180     ..!    BIC      r1,r0,#0x40000
        0x0001a900:    6131        1a      STR      r1,[r6,#0x10]
        0x0001a902:    0028        (.      MOVS     r0,r5
        0x0001a904:    f8b52074    ..t     LDRH     r2,[r5,#0x74]
        0x0001a908:    f8b03076    ..v0    LDRH     r3,[r0,#0x76]
        0x0001a90c:    f1050170    ..p.    ADD      r1,r5,#0x70
        0x0001a910:    eba20203    ....    SUB      r2,r2,r3
        0x0001a914:    f04f0c80    O...    MOV      r12,#0x80
        0x0001a918:    b294        ..      UXTH     r4,r2
        0x0001a91a:    e006        ..      B        0x1a92a ; am_hal_usb_interrupt_service + 1062
    $d
        0x0001a91c:    00ea9e06    ....    DCD    15375878
        0x0001a920:    400b0000    ...@    DCD    1074462720
        0x0001a924:    400b4000    .@.@    DCD    1074479104
    $t
        0x0001a928:    e030        0.      B        0x1a98c ; am_hal_usb_interrupt_service + 1160
        0x0001a92a:    f04f0202    O...    MOV      r2,#2
        0x0001a92e:    bf18        ..      IT       NE
        0x0001a930:    2900        .)      CMPNE    r1,#0
        0x0001a932:    d022        ".      BEQ      0x1a97a ; am_hal_usb_interrupt_service + 1142
        0x0001a934:    600f        .`      STR      r7,[r1,#0]
        0x0001a936:    604f        O`      STR      r7,[r1,#4]
        0x0001a938:    608f        .`      STR      r7,[r1,#8]
        0x0001a93a:    f8d58104    ....    LDR      r8,[r5,#0x104]
        0x0001a93e:    463b        ;F      MOV      r3,r7
        0x0001a940:    4621        !F      MOV      r1,r4
        0x0001a942:    4660        `F      MOV      r0,r12
        0x0001a944:    47c0        .G      BLX      r8
        0x0001a946:    e018        ..      B        0x1a97a ; am_hal_usb_interrupt_service + 1142
        0x0001a948:    0028        (.      MOVS     r0,r5
        0x0001a94a:    f8b52074    ..t     LDRH     r2,[r5,#0x74]
        0x0001a94e:    f8b03076    ..v0    LDRH     r3,[r0,#0x76]
        0x0001a952:    f1050170    ..p.    ADD      r1,r5,#0x70
        0x0001a956:    eba20203    ....    SUB      r2,r2,r3
        0x0001a95a:    f04f0c80    O...    MOV      r12,#0x80
        0x0001a95e:    b294        ..      UXTH     r4,r2
        0x0001a960:    bf18        ..      IT       NE
        0x0001a962:    2900        .)      CMPNE    r1,#0
        0x0001a964:    d009        ..      BEQ      0x1a97a ; am_hal_usb_interrupt_service + 1142
        0x0001a966:    600f        .`      STR      r7,[r1,#0]
        0x0001a968:    604f        O`      STR      r7,[r1,#4]
        0x0001a96a:    608f        .`      STR      r7,[r1,#8]
        0x0001a96c:    463a        :F      MOV      r2,r7
        0x0001a96e:    f8d58104    ....    LDR      r8,[r5,#0x104]
        0x0001a972:    4613        .F      MOV      r3,r2
        0x0001a974:    4621        !F      MOV      r1,r4
        0x0001a976:    4660        `F      MOV      r0,r12
        0x0001a978:    47c0        .G      BLX      r8
        0x0001a97a:    f8857056    ..Vp    STRB     r7,[r5,#0x56]
        0x0001a97e:    672f        /g      STR      r7,[r5,#0x70]
        0x0001a980:    676f        og      STR      r7,[r5,#0x74]
        0x0001a982:    4628        (F      MOV      r0,r5
        0x0001a984:    4631        1F      MOV      r1,r6
        0x0001a986:    67af        .g      STR      r7,[r5,#0x78]
        0x0001a988:    f7fffaaa    ....    BL       am_hal_usb_ep0_handle_setup_req ; 0x19ee0
        0x0001a98c:    f04f0801    O...    MOV      r8,#1
        0x0001a990:    4644        DF      MOV      r4,r8
        0x0001a992:    f04f0a3f    O.?.    MOV      r10,#0x3f
        0x0001a996:    bf00        ..      NOP      
        0x0001a998:    fa04f008    ....    LSL      r0,r4,r8
        0x0001a99c:    ea100f0b    ....    TST      r0,r11
        0x0001a9a0:    d040        @.      BEQ      0x1aa24 ; am_hal_usb_interrupt_service + 1312
        0x0001a9a2:    4641        AF      MOV      r1,r8
        0x0001a9a4:    eb080241    ..A.    ADD      r2,r8,r1,LSL #1
        0x0001a9a8:    eb0502c2    ....    ADD      r2,r5,r2,LSL #3
        0x0001a9ac:    f1020770    ..p.    ADD      r7,r2,#0x70
        0x0001a9b0:    eb050241    ..A.    ADD      r2,r5,r1,LSL #1
        0x0001a9b4:    f8b29058    ..X.    LDRH     r9,[r2,#0x58]
        0x0001a9b8:    68f2        .h      LDR      r2,[r6,#0xc]
        0x0001a9ba:    f4222270    ".p"    BIC      r2,r2,#0xf0000
        0x0001a9be:    60f2        .`      STR      r2,[r6,#0xc]
        0x0001a9c0:    68f2        .h      LDR      r2,[r6,#0xc]
        0x0001a9c2:    ea424201    B..B    ORR      r2,r2,r1,LSL #16
        0x0001a9c6:    60f2        .`      STR      r2,[r6,#0xc]
        0x0001a9c8:    6932        2i      LDR      r2,[r6,#0x10]
        0x0001a9ca:    f4121f00    ....    TST      r2,#0x200000
        0x0001a9ce:    d004        ..      BEQ      0x1a9da ; am_hal_usb_interrupt_service + 1238
        0x0001a9d0:    6930        0i      LDR      r0,[r6,#0x10]
        0x0001a9d2:    f4201100     ...    BIC      r1,r0,#0x200000
        0x0001a9d6:    6131        1a      STR      r1,[r6,#0x10]
        0x0001a9d8:    e024        $.      B        0x1aa24 ; am_hal_usb_interrupt_service + 1312
        0x0001a9da:    6932        2i      LDR      r2,[r6,#0x10]
        0x0001a9dc:    f4123f80    ...?    TST      r2,#0x10000
        0x0001a9e0:    d120         .      BNE      0x1aa24 ; am_hal_usb_interrupt_service + 1312
        0x0001a9e2:    88fb        ..      LDRH     r3,[r7,#6]
        0x0001a9e4:    b3f3        ..      CBZ      r3,0x1aa64 ; am_hal_usb_interrupt_service + 1376
        0x0001a9e6:    454b        KE      CMP      r3,r9
        0x0001a9e8:    bf2c        ,.      ITE      CS
        0x0001a9ea:    464a        JF      MOVCS    r2,r9
        0x0001a9ec:    461a        .F      MOVCC    r2,r3
        0x0001a9ee:    9200        ..      STR      r2,[sp,#0]
        0x0001a9f0:    88ba        ..      LDRH     r2,[r7,#4]
        0x0001a9f2:    6838        8h      LDR      r0,[r7,#0]
        0x0001a9f4:    4410        .D      ADD      r0,r0,r2
        0x0001a9f6:    1ac2        ..      SUBS     r2,r0,r3
        0x0001a9f8:    4630        0F      MOV      r0,r6
        0x0001a9fa:    9b00        ..      LDR      r3,[sp,#0]
        0x0001a9fc:    f7fffd28    ..(.    BL       am_hal_usb_fifo_loading ; 0x1a450
        0x0001aa00:    6930        0i      LDR      r0,[r6,#0x10]
        0x0001aa02:    f4403180    @..1    ORR      r1,r0,#0x10000
        0x0001aa06:    6131        1a      STR      r1,[r6,#0x10]
        0x0001aa08:    88f8        ..      LDRH     r0,[r7,#6]
        0x0001aa0a:    9a00        ..      LDR      r2,[sp,#0]
        0x0001aa0c:    1a80        ..      SUBS     r0,r0,r2
        0x0001aa0e:    0400        ..      LSLS     r0,r0,#16
        0x0001aa10:    0c00        ..      LSRS     r0,r0,#16
        0x0001aa12:    80f8        ..      STRH     r0,[r7,#6]
        0x0001aa14:    bf04        ..      ITT      EQ
        0x0001aa16:    9800        ..      LDREQ    r0,[sp,#0]
        0x0001aa18:    4548        HE      CMPEQ    r0,r9
        0x0001aa1a:    d103        ..      BNE      0x1aa24 ; am_hal_usb_interrupt_service + 1312
        0x0001aa1c:    7a38        8z      LDRB     r0,[r7,#8]
        0x0001aa1e:    f0400002    @...    ORR      r0,r0,#2
        0x0001aa22:    7238        8r      STRB     r0,[r7,#8]
        0x0001aa24:    f1080001    ....    ADD      r0,r8,#1
        0x0001aa28:    f00008ff    ....    AND      r8,r0,#0xff
        0x0001aa2c:    f1b80f05    ....    CMP      r8,#5
        0x0001aa30:    d9b2        ..      BLS      0x1a998 ; am_hal_usb_interrupt_service + 1172
        0x0001aa32:    2701        .'      MOVS     r7,#1
        0x0001aa34:    9906        ..      LDR      r1,[sp,#0x18]
        0x0001aa36:    fa04f007    ....    LSL      r0,r4,r7
        0x0001aa3a:    4208        .B      TST      r0,r1
        0x0001aa3c:    d07e        ~.      BEQ      0x1ab3c ; am_hal_usb_interrupt_service + 1592
        0x0001aa3e:    eb070047    ..G.    ADD      r0,r7,r7,LSL #1
        0x0001aa42:    eb0500c0    ....    ADD      r0,r5,r0,LSL #3
        0x0001aa46:    f1000c64    ..d.    ADD      r12,r0,#0x64
        0x0001aa4a:    68f0        .h      LDR      r0,[r6,#0xc]
        0x0001aa4c:    f4202070     .p     BIC      r0,r0,#0xf0000
        0x0001aa50:    60f0        .`      STR      r0,[r6,#0xc]
        0x0001aa52:    68f0        .h      LDR      r0,[r6,#0xc]
        0x0001aa54:    ea404007    @..@    ORR      r0,r0,r7,LSL #16
        0x0001aa58:    60f0        .`      STR      r0,[r6,#0xc]
        0x0001aa5a:    6970        pi      LDR      r0,[r6,#0x14]
        0x0001aa5c:    f4100f80    ....    TST      r0,#0x400000
        0x0001aa60:    6970        pi      LDR      r0,[r6,#0x14]
        0x0001aa62:    e000        ..      B        0x1aa66 ; am_hal_usb_interrupt_service + 1378
        0x0001aa64:    e004        ..      B        0x1aa70 ; am_hal_usb_interrupt_service + 1388
        0x0001aa66:    d01a        ..      BEQ      0x1aa9e ; am_hal_usb_interrupt_service + 1434
        0x0001aa68:    f4200180     ...    BIC      r1,r0,#0x400000
        0x0001aa6c:    6171        qa      STR      r1,[r6,#0x14]
        0x0001aa6e:    e0d9        ..      B        0x1ac24 ; am_hal_usb_interrupt_service + 1824
        0x0001aa70:    88f2        ..      LDRH     r2,[r6,#6]
        0x0001aa72:    ea2a0000    *...    BIC      r0,r10,r0
        0x0001aa76:    4002        .@      ANDS     r2,r2,r0
        0x0001aa78:    80f2        ..      STRH     r2,[r6,#6]
        0x0001aa7a:    88b9        ..      LDRH     r1,[r7,#4]
        0x0001aa7c:    0028        (.      MOVS     r0,r5
        0x0001aa7e:    f0480c80    H...    ORR      r12,r8,#0x80
        0x0001aa82:    bf18        ..      IT       NE
        0x0001aa84:    2f00        ./      CMPNE    r7,#0
        0x0001aa86:    d0cd        ..      BEQ      0x1aa24 ; am_hal_usb_interrupt_service + 1312
        0x0001aa88:    f04f0200    O...    MOV      r2,#0
        0x0001aa8c:    603a        :`      STR      r2,[r7,#0]
        0x0001aa8e:    607a        z`      STR      r2,[r7,#4]
        0x0001aa90:    60ba        .`      STR      r2,[r7,#8]
        0x0001aa92:    f8d57104    ...q    LDR      r7,[r5,#0x104]
        0x0001aa96:    4613        .F      MOV      r3,r2
        0x0001aa98:    4660        `F      MOV      r0,r12
        0x0001aa9a:    47b8        .G      BLX      r7
        0x0001aa9c:    e7c2        ..      B        0x1aa24 ; am_hal_usb_interrupt_service + 1312
        0x0001aa9e:    f4103f80    ...?    TST      r0,#0x10000
        0x0001aaa2:    d04b        K.      BEQ      0x1ab3c ; am_hal_usb_interrupt_service + 1592
        0x0001aaa4:    69b0        .i      LDR      r0,[r6,#0x18]
        0x0001aaa6:    46b3        .F      MOV      r11,r6
        0x0001aaa8:    f3c00e0c    ....    UBFX     lr,r0,#0,#13
        0x0001aaac:    eb050047    ..G.    ADD      r0,r5,r7,LSL #1
        0x0001aab0:    46ba        .F      MOV      r10,r7
        0x0001aab2:    f8b00062    ..b.    LDRH     r0,[r0,#0x62]
        0x0001aab6:    9001        ..      STR      r0,[sp,#4]
        0x0001aab8:    f8bc0006    ....    LDRH     r0,[r12,#6]
        0x0001aabc:    f8bc2004    ...     LDRH     r2,[r12,#4]
        0x0001aac0:    f8dc1000    ....    LDR      r1,[r12,#0]
        0x0001aac4:    4586        .E      CMP      lr,r0
        0x0001aac6:    4411        .D      ADD      r1,r1,r2
        0x0001aac8:    eba10200    ....    SUB      r2,r1,r0
        0x0001aacc:    d93d        =.      BLS      0x1ab4a ; am_hal_usb_interrupt_service + 1606
        0x0001aace:    0881        ..      LSRS     r1,r0,#2
        0x0001aad0:    f1c10300    ....    RSB      r3,r1,#0
        0x0001aad4:    eb000e83    ....    ADD      lr,r0,r3,LSL #2
        0x0001aad8:    d019        ..      BEQ      0x1ab0e ; am_hal_usb_interrupt_service + 1546
        0x0001aada:    f0110001    ....    ANDS     r0,r1,#1
        0x0001aade:    d003        ..      BEQ      0x1aae8 ; am_hal_usb_interrupt_service + 1508
        0x0001aae0:    eb0b038a    ....    ADD      r3,r11,r10,LSL #2
        0x0001aae4:    6a1b        .j      LDR      r3,[r3,#0x20]
        0x0001aae6:    6013        .`      STR      r3,[r2,#0]
        0x0001aae8:    4288        .B      CMP      r0,r1
        0x0001aaea:    bf38        8.      IT       CC
        0x0001aaec:    eb0b038a    ....    ADDCC    r3,r11,r10,LSL #2
        0x0001aaf0:    d20d        ..      BCS      0x1ab0e ; am_hal_usb_interrupt_service + 1546
        0x0001aaf2:    bf00        ..      NOP      
        0x0001aaf4:    f8d38020    .. .    LDR      r8,[r3,#0x20]
        0x0001aaf8:    f8428020    B. .    STR      r8,[r2,r0,LSL #2]
        0x0001aafc:    f8d38020    .. .    LDR      r8,[r3,#0x20]
        0x0001ab00:    eb020980    ....    ADD      r9,r2,r0,LSL #2
        0x0001ab04:    1c80        ..      ADDS     r0,r0,#2
        0x0001ab06:    f8c98004    ....    STR      r8,[r9,#4]
        0x0001ab0a:    4288        .B      CMP      r0,r1
        0x0001ab0c:    d3f2        ..      BCC      0x1aaf4 ; am_hal_usb_interrupt_service + 1520
        0x0001ab0e:    f1be0f00    ....    CMP      lr,#0
        0x0001ab12:    d016        ..      BEQ      0x1ab42 ; am_hal_usb_interrupt_service + 1598
        0x0001ab14:    eb06008a    ....    ADD      r0,r6,r10,LSL #2
        0x0001ab18:    f01e0f01    ....    TST      lr,#1
        0x0001ab1c:    f8903020    .. 0    LDRB     r3,[r0,#0x20]
        0x0001ab20:    eb020081    ....    ADD      r0,r2,r1,LSL #2
        0x0001ab24:    f1a00001    ....    SUB      r0,r0,#1
        0x0001ab28:    bf18        ..      IT       NE
        0x0001ab2a:    f8003f01    ...?    STRBNE   r3,[r0,#1]!
        0x0001ab2e:    ea5f015e    _.^.    LSRS     r1,lr,#1
        0x0001ab32:    d006        ..      BEQ      0x1ab42 ; am_hal_usb_interrupt_service + 1598
        0x0001ab34:    7043        Cp      STRB     r3,[r0,#1]
        0x0001ab36:    f8003f02    ...?    STRB     r3,[r0,#2]!
        0x0001ab3a:    e000        ..      B        0x1ab3e ; am_hal_usb_interrupt_service + 1594
        0x0001ab3c:    e072        r.      B        0x1ac24 ; am_hal_usb_interrupt_service + 1824
        0x0001ab3e:    1e49        I.      SUBS     r1,r1,#1
        0x0001ab40:    d1f8        ..      BNE      0x1ab34 ; am_hal_usb_interrupt_service + 1584
        0x0001ab42:    2000        .       MOVS     r0,#0
        0x0001ab44:    f8ac0006    ....    STRH     r0,[r12,#6]
        0x0001ab48:    e044        D.      B        0x1abd4 ; am_hal_usb_interrupt_service + 1744
        0x0001ab4a:    ea5f019e    _...    LSRS     r1,lr,#2
        0x0001ab4e:    f1c10000    ....    RSB      r0,r1,#0
        0x0001ab52:    eb0e0080    ....    ADD      r0,lr,r0,LSL #2
        0x0001ab56:    9000        ..      STR      r0,[sp,#0]
        0x0001ab58:    d019        ..      BEQ      0x1ab8e ; am_hal_usb_interrupt_service + 1674
        0x0001ab5a:    f0110001    ....    ANDS     r0,r1,#1
        0x0001ab5e:    d003        ..      BEQ      0x1ab68 ; am_hal_usb_interrupt_service + 1636
        0x0001ab60:    eb0b038a    ....    ADD      r3,r11,r10,LSL #2
        0x0001ab64:    6a1b        .j      LDR      r3,[r3,#0x20]
        0x0001ab66:    6013        .`      STR      r3,[r2,#0]
        0x0001ab68:    4288        .B      CMP      r0,r1
        0x0001ab6a:    bf38        8.      IT       CC
        0x0001ab6c:    eb0b038a    ....    ADDCC    r3,r11,r10,LSL #2
        0x0001ab70:    d20d        ..      BCS      0x1ab8e ; am_hal_usb_interrupt_service + 1674
        0x0001ab72:    bf00        ..      NOP      
        0x0001ab74:    f8d38020    .. .    LDR      r8,[r3,#0x20]
        0x0001ab78:    f8428020    B. .    STR      r8,[r2,r0,LSL #2]
        0x0001ab7c:    f8d38020    .. .    LDR      r8,[r3,#0x20]
        0x0001ab80:    eb020980    ....    ADD      r9,r2,r0,LSL #2
        0x0001ab84:    1c80        ..      ADDS     r0,r0,#2
        0x0001ab86:    f8c98004    ....    STR      r8,[r9,#4]
        0x0001ab8a:    4288        .B      CMP      r0,r1
        0x0001ab8c:    d3f2        ..      BCC      0x1ab74 ; am_hal_usb_interrupt_service + 1648
        0x0001ab8e:    9800        ..      LDR      r0,[sp,#0]
        0x0001ab90:    b1a0        ..      CBZ      r0,0x1abbc ; am_hal_usb_interrupt_service + 1720
        0x0001ab92:    eb06008a    ....    ADD      r0,r6,r10,LSL #2
        0x0001ab96:    f8903020    .. 0    LDRB     r3,[r0,#0x20]
        0x0001ab9a:    eb020081    ....    ADD      r0,r2,r1,LSL #2
        0x0001ab9e:    9900        ..      LDR      r1,[sp,#0]
        0x0001aba0:    1e40        @.      SUBS     r0,r0,#1
        0x0001aba2:    f0110f01    ....    TST      r1,#1
        0x0001aba6:    bf18        ..      IT       NE
        0x0001aba8:    f8003f01    ...?    STRBNE   r3,[r0,#1]!
        0x0001abac:    9900        ..      LDR      r1,[sp,#0]
        0x0001abae:    0849        I.      LSRS     r1,r1,#1
        0x0001abb0:    d004        ..      BEQ      0x1abbc ; am_hal_usb_interrupt_service + 1720
        0x0001abb2:    7043        Cp      STRB     r3,[r0,#1]
        0x0001abb4:    f8003f02    ...?    STRB     r3,[r0,#2]!
        0x0001abb8:    1e49        I.      SUBS     r1,r1,#1
        0x0001abba:    d1fa        ..      BNE      0x1abb2 ; am_hal_usb_interrupt_service + 1710
        0x0001abbc:    f8bc0006    ....    LDRH     r0,[r12,#6]
        0x0001abc0:    eba0000e    ....    SUB      r0,r0,lr
        0x0001abc4:    0400        ..      LSLS     r0,r0,#16
        0x0001abc6:    0c00        ..      LSRS     r0,r0,#16
        0x0001abc8:    f8ac0006    ....    STRH     r0,[r12,#6]
        0x0001abcc:    d002        ..      BEQ      0x1abd4 ; am_hal_usb_interrupt_service + 1744
        0x0001abce:    9801        ..      LDR      r0,[sp,#4]
        0x0001abd0:    4570        pE      CMP      r0,lr
        0x0001abd2:    d922        ".      BLS      0x1ac1a ; am_hal_usb_interrupt_service + 1814
        0x0001abd4:    f89b1008    ....    LDRB     r1,[r11,#8]
        0x0001abd8:    fa04f20a    ....    LSL      r2,r4,r10
        0x0001abdc:    203f        ?       MOVS     r0,#0x3f
        0x0001abde:    4390        .C      BICS     r0,r0,r2
        0x0001abe0:    4001        .@      ANDS     r1,r1,r0
        0x0001abe2:    7231        1r      STRB     r1,[r6,#8]
        0x0001abe4:    f8bc1004    ....    LDRH     r1,[r12,#4]
        0x0001abe8:    f8bc2006    ...     LDRH     r2,[r12,#6]
        0x0001abec:    ea5f0805    _...    MOVS     r8,r5
        0x0001abf0:    eba10102    ....    SUB      r1,r1,r2
        0x0001abf4:    4638        8F      MOV      r0,r7
        0x0001abf6:    b289        ..      UXTH     r1,r1
        0x0001abf8:    bf18        ..      IT       NE
        0x0001abfa:    f1bc0f00    ....    CMPNE    r12,#0
        0x0001abfe:    d011        ..      BEQ      0x1ac24 ; am_hal_usb_interrupt_service + 1824
        0x0001ac00:    f04f0200    O...    MOV      r2,#0
        0x0001ac04:    f8cc2000    ...     STR      r2,[r12,#0]
        0x0001ac08:    f8cc2004    ...     STR      r2,[r12,#4]
        0x0001ac0c:    f8cc2008    ...     STR      r2,[r12,#8]
        0x0001ac10:    f8d5c104    ....    LDR      r12,[r5,#0x104]
        0x0001ac14:    4613        .F      MOV      r3,r2
        0x0001ac16:    47e0        .G      BLX      r12
        0x0001ac18:    e004        ..      B        0x1ac24 ; am_hal_usb_interrupt_service + 1824
        0x0001ac1a:    f8db0014    ....    LDR      r0,[r11,#0x14]
        0x0001ac1e:    f4203180     ..1    BIC      r1,r0,#0x10000
        0x0001ac22:    6171        qa      STR      r1,[r6,#0x14]
        0x0001ac24:    1c78        x.      ADDS     r0,r7,#1
        0x0001ac26:    b2c7        ..      UXTB     r7,r0
        0x0001ac28:    2f05        ./      CMP      r7,#5
        0x0001ac2a:    f67faf03    ....    BLS      0x1aa34 ; am_hal_usb_interrupt_service + 1328
        0x0001ac2e:    9804        ..      LDR      r0,[sp,#0x10]
        0x0001ac30:    f0100f01    ....    TST      r0,#1
        0x0001ac34:    bf04        ..      ITT      EQ
        0x0001ac36:    b007        ..      ADDEQ    sp,sp,#0x1c
        0x0001ac38:    e8bd8ff0    ....    POPEQ    {r4-r11,pc}
        0x0001ac3c:    4809        .H      LDR      r0,[pc,#36] ; [0x1ac64] = 0x400b4000
        0x0001ac3e:    6901        .i      LDR      r1,[r0,#0x10]
        0x0001ac40:    f00101fd    ....    AND      r1,r1,#0xfd
        0x0001ac44:    6101        .a      STR      r1,[r0,#0x10]
        0x0001ac46:    2005        .       MOVS     r0,#5
        0x0001ac48:    f8850055    ..U.    STRB     r0,[r5,#0x55]
        0x0001ac4c:    f8d510fc    ....    LDR      r1,[r5,#0xfc]
        0x0001ac50:    2900        .)      CMP      r1,#0
        0x0001ac52:    bf04        ..      ITT      EQ
        0x0001ac54:    b007        ..      ADDEQ    sp,sp,#0x1c
        0x0001ac56:    e8bd8ff0    ....    POPEQ    {r4-r11,pc}
        0x0001ac5a:    2003        .       MOVS     r0,#3
        0x0001ac5c:    b007        ..      ADD      sp,sp,#0x1c
        0x0001ac5e:    e8bd4ff0    ...O    POP      {r4-r11,lr}
        0x0001ac62:    4708        .G      BX       r1
    $d
        0x0001ac64:    400b4000    .@.@    DCD    1074479104
    $t
    i.am_hal_usb_intr_status_get
    am_hal_usb_intr_status_get
        0x0001ac68:    2800        .(      CMP      r0,#0
        0x0001ac6a:    bf1c        ..      ITT      NE
        0x0001ac6c:    6800        .h      LDRNE    r0,[r0,#0]
        0x0001ac6e:    f0107f80    ....    TSTNE    r0,#0x1000000
        0x0001ac72:    d005        ..      BEQ      0x1ac80 ; am_hal_usb_intr_status_get + 24
        0x0001ac74:    f8dfc030    ..0.    LDR      r12,[pc,#48] ; [0x1aca8] = 0xea9e06
        0x0001ac78:    f020407f     ..@    BIC      r0,r0,#0xff000000
        0x0001ac7c:    4560        `E      CMP      r0,r12
        0x0001ac7e:    d001        ..      BEQ      0x1ac84 ; am_hal_usb_intr_status_get + 28
        0x0001ac80:    2002        .       MOVS     r0,#2
        0x0001ac82:    4770        pG      BX       lr
        0x0001ac84:    4809        .H      LDR      r0,[pc,#36] ; [0x1acac] = 0x400b0000
        0x0001ac86:    f890c00a    ....    LDRB     r12,[r0,#0xa]
        0x0001ac8a:    f00c0c0f    ....    AND      r12,r12,#0xf
        0x0001ac8e:    f8c1c000    ....    STR      r12,[r1,#0]
        0x0001ac92:    8841        A.      LDRH     r1,[r0,#2]
        0x0001ac94:    f001013f    ..?.    AND      r1,r1,#0x3f
        0x0001ac98:    6011        .`      STR      r1,[r2,#0]
        0x0001ac9a:    7900        .y      LDRB     r0,[r0,#4]
        0x0001ac9c:    f000003f    ..?.    AND      r0,r0,#0x3f
        0x0001aca0:    6018        .`      STR      r0,[r3,#0]
        0x0001aca2:    2000        .       MOVS     r0,#0
        0x0001aca4:    4770        pG      BX       lr
    $d
        0x0001aca6:    0000        ..      DCW    0
        0x0001aca8:    00ea9e06    ....    DCD    15375878
        0x0001acac:    400b0000    ...@    DCD    1074462720
    $t
    i.am_hal_usb_intr_usb_enable
    am_hal_usb_intr_usb_enable
        0x0001acb0:    4a0c        .J      LDR      r2,[pc,#48] ; [0x1ace4] = 0x400b0000
        0x0001acb2:    2800        .(      CMP      r0,#0
        0x0001acb4:    bf1c        ..      ITT      NE
        0x0001acb6:    6800        .h      LDRNE    r0,[r0,#0]
        0x0001acb8:    f0107f80    ....    TSTNE    r0,#0x1000000
        0x0001acbc:    d004        ..      BEQ      0x1acc8 ; am_hal_usb_intr_usb_enable + 24
        0x0001acbe:    4b0a        .K      LDR      r3,[pc,#40] ; [0x1ace8] = 0xea9e06
        0x0001acc0:    f020407f     ..@    BIC      r0,r0,#0xff000000
        0x0001acc4:    4298        .B      CMP      r0,r3
        0x0001acc6:    d001        ..      BEQ      0x1accc ; am_hal_usb_intr_usb_enable + 28
        0x0001acc8:    2002        .       MOVS     r0,#2
        0x0001acca:    4770        pG      BX       lr
        0x0001accc:    f031000f    1...    BICS     r0,r1,#0xf
        0x0001acd0:    bf1c        ..      ITT      NE
        0x0001acd2:    2006        .       MOVNE    r0,#6
        0x0001acd4:    4770        pG      BXNE     lr
        0x0001acd6:    7ad0        .z      LDRB     r0,[r2,#0xb]
        0x0001acd8:    f001010f    ....    AND      r1,r1,#0xf
        0x0001acdc:    4308        .C      ORRS     r0,r0,r1
        0x0001acde:    72d0        .r      STRB     r0,[r2,#0xb]
        0x0001ace0:    2000        .       MOVS     r0,#0
        0x0001ace2:    4770        pG      BX       lr
    $d
        0x0001ace4:    400b0000    ...@    DCD    1074462720
        0x0001ace8:    00ea9e06    ....    DCD    15375878
    $t
    i.am_hal_usb_power_control
    am_hal_usb_power_control
        0x0001acec:    e92d43f8    -..C    PUSH     {r3-r9,lr}
        0x0001acf0:    4691        .F      MOV      r9,r2
        0x0001acf2:    f8d020f8    ...     LDR      r2,[r0,#0xf8]
        0x0001acf6:    4c92        .L      LDR      r4,[pc,#584] ; [0x1af40] = 0x400b0000
        0x0001acf8:    4605        .F      MOV      r5,r0
        0x0001acfa:    2a00        .*      CMP      r2,#0
        0x0001acfc:    bf1c        ..      ITT      NE
        0x0001acfe:    2005        .       MOVNE    r0,#5
        0x0001ad00:    e8bd83f8    ....    POPNE    {r3-r9,pc}
        0x0001ad04:    2800        .(      CMP      r0,#0
        0x0001ad06:    bf1c        ..      ITT      NE
        0x0001ad08:    6828        (h      LDRNE    r0,[r5,#0]
        0x0001ad0a:    f0107f80    ....    TSTNE    r0,#0x1000000
        0x0001ad0e:    d004        ..      BEQ      0x1ad1a ; am_hal_usb_power_control + 46
        0x0001ad10:    4a8c        .J      LDR      r2,[pc,#560] ; [0x1af44] = 0xea9e06
        0x0001ad12:    f020407f     ..@    BIC      r0,r0,#0xff000000
        0x0001ad16:    4290        .B      CMP      r0,r2
        0x0001ad18:    d002        ..      BEQ      0x1ad20 ; am_hal_usb_power_control + 52
        0x0001ad1a:    2002        .       MOVS     r0,#2
        0x0001ad1c:    e8bd83f8    ....    POP      {r3-r9,pc}
        0x0001ad20:    2001        .       MOVS     r0,#1
        0x0001ad22:    06c7        ..      LSLS     r7,r0,#27
        0x0001ad24:    2600        .&      MOVS     r6,#0
        0x0001ad26:    f04f28e0    O..(    MOV      r8,#0xe000e000
        0x0001ad2a:    2900        .)      CMP      r1,#0
        0x0001ad2c:    f0008090    ....    BEQ.W    0x1ae50 ; am_hal_usb_power_control + 356
        0x0001ad30:    2901        .)      CMP      r1,#1
        0x0001ad32:    bf1e        ..      ITTT     NE
        0x0001ad34:    2902        .)      CMPNE    r1,#2
        0x0001ad36:    2006        .       MOVNE    r0,#6
        0x0001ad38:    e8bd83f8    ....    POPNE    {r3-r9,pc}
        0x0001ad3c:    f1b90f00    ....    CMP      r9,#0
        0x0001ad40:    d054        T.      BEQ      0x1adec ; am_hal_usb_power_control + 256
        0x0001ad42:    f8c87180    ...q    STR      r7,[r8,#0x180]
        0x0001ad46:    f3bf8f4f    ..O.    DSB      
        0x0001ad4a:    f3bf8f6f    ..o.    ISB      
        0x0001ad4e:    6821        !h      LDR      r1,[r4,#0]
        0x0001ad50:    60a9        .`      STR      r1,[r5,#8]
        0x0001ad52:    6861        ah      LDR      r1,[r4,#4]
        0x0001ad54:    60e9        .`      STR      r1,[r5,#0xc]
        0x0001ad56:    68a1        .h      LDR      r1,[r4,#8]
        0x0001ad58:    6129        )a      STR      r1,[r5,#0x10]
        0x0001ad5a:    68e1        .h      LDR      r1,[r4,#0xc]
        0x0001ad5c:    f4212370    !.p#    BIC      r3,r1,#0xf0000
        0x0001ad60:    60e3        .`      STR      r3,[r4,#0xc]
        0x0001ad62:    68e1        .h      LDR      r1,[r4,#0xc]
        0x0001ad64:    f4413380    A..3    ORR      r3,r1,#0x10000
        0x0001ad68:    60e3        .`      STR      r3,[r4,#0xc]
        0x0001ad6a:    6921        !i      LDR      r1,[r4,#0x10]
        0x0001ad6c:    6169        ia      STR      r1,[r5,#0x14]
        0x0001ad6e:    6961        ai      LDR      r1,[r4,#0x14]
        0x0001ad70:    61a9        .a      STR      r1,[r5,#0x18]
        0x0001ad72:    69a1        .i      LDR      r1,[r4,#0x18]
        0x0001ad74:    61e9        .a      STR      r1,[r5,#0x1c]
        0x0001ad76:    68e1        .h      LDR      r1,[r4,#0xc]
        0x0001ad78:    f4212370    !.p#    BIC      r3,r1,#0xf0000
        0x0001ad7c:    60e3        .`      STR      r3,[r4,#0xc]
        0x0001ad7e:    68e1        .h      LDR      r1,[r4,#0xc]
        0x0001ad80:    f4413300    A..3    ORR      r3,r1,#0x20000
        0x0001ad84:    60e3        .`      STR      r3,[r4,#0xc]
        0x0001ad86:    6921        !i      LDR      r1,[r4,#0x10]
        0x0001ad88:    6229        )b      STR      r1,[r5,#0x20]
        0x0001ad8a:    6961        ai      LDR      r1,[r4,#0x14]
        0x0001ad8c:    6269        ib      STR      r1,[r5,#0x24]
        0x0001ad8e:    69a1        .i      LDR      r1,[r4,#0x18]
        0x0001ad90:    62a9        .b      STR      r1,[r5,#0x28]
        0x0001ad92:    68e1        .h      LDR      r1,[r4,#0xc]
        0x0001ad94:    f4212370    !.p#    BIC      r3,r1,#0xf0000
        0x0001ad98:    60e3        .`      STR      r3,[r4,#0xc]
        0x0001ad9a:    68e1        .h      LDR      r1,[r4,#0xc]
        0x0001ad9c:    f4413340    A.@3    ORR      r3,r1,#0x30000
        0x0001ada0:    60e3        .`      STR      r3,[r4,#0xc]
        0x0001ada2:    6921        !i      LDR      r1,[r4,#0x10]
        0x0001ada4:    62e9        .b      STR      r1,[r5,#0x2c]
        0x0001ada6:    6961        ai      LDR      r1,[r4,#0x14]
        0x0001ada8:    6329        )c      STR      r1,[r5,#0x30]
        0x0001adaa:    69a1        .i      LDR      r1,[r4,#0x18]
        0x0001adac:    6369        ic      STR      r1,[r5,#0x34]
        0x0001adae:    68e1        .h      LDR      r1,[r4,#0xc]
        0x0001adb0:    f4212370    !.p#    BIC      r3,r1,#0xf0000
        0x0001adb4:    60e3        .`      STR      r3,[r4,#0xc]
        0x0001adb6:    68e1        .h      LDR      r1,[r4,#0xc]
        0x0001adb8:    f4412380    A..#    ORR      r3,r1,#0x40000
        0x0001adbc:    60e3        .`      STR      r3,[r4,#0xc]
        0x0001adbe:    6921        !i      LDR      r1,[r4,#0x10]
        0x0001adc0:    63a9        .c      STR      r1,[r5,#0x38]
        0x0001adc2:    6961        ai      LDR      r1,[r4,#0x14]
        0x0001adc4:    63e9        .c      STR      r1,[r5,#0x3c]
        0x0001adc6:    69a1        .i      LDR      r1,[r4,#0x18]
        0x0001adc8:    6429        )d      STR      r1,[r5,#0x40]
        0x0001adca:    68e1        .h      LDR      r1,[r4,#0xc]
        0x0001adcc:    f4212370    !.p#    BIC      r3,r1,#0xf0000
        0x0001add0:    60e3        .`      STR      r3,[r4,#0xc]
        0x0001add2:    68e1        .h      LDR      r1,[r4,#0xc]
        0x0001add4:    f44123a0    A..#    ORR      r3,r1,#0x50000
        0x0001add8:    60e3        .`      STR      r3,[r4,#0xc]
        0x0001adda:    6921        !i      LDR      r1,[r4,#0x10]
        0x0001addc:    6469        id      STR      r1,[r5,#0x44]
        0x0001adde:    6961        ai      LDR      r1,[r4,#0x14]
        0x0001ade0:    64a9        .d      STR      r1,[r5,#0x48]
        0x0001ade2:    69a1        .i      LDR      r1,[r4,#0x18]
        0x0001ade4:    64e9        .d      STR      r1,[r5,#0x4c]
        0x0001ade6:    7128        (q      STRB     r0,[r5,#4]
        0x0001ade8:    f8c87100    ...q    STR      r7,[r8,#0x100]
        0x0001adec:    9600        ..      STR      r6,[sp,#0]
        0x0001adee:    6828        (h      LDR      r0,[r5,#0]
        0x0001adf0:    f0107f80    ....    TST      r0,#0x1000000
        0x0001adf4:    d007        ..      BEQ      0x1ae06 ; am_hal_usb_power_control + 282
        0x0001adf6:    f020417f     ..A    BIC      r1,r0,#0xff000000
        0x0001adfa:    4291        .B      CMP      r1,r2
        0x0001adfc:    d103        ..      BNE      0x1ae06 ; am_hal_usb_power_control + 282
        0x0001adfe:    7aa1        .z      LDRB     r1,[r4,#0xa]
        0x0001ae00:    f001010f    ....    AND      r1,r1,#0xf
        0x0001ae04:    9100        ..      STR      r1,[sp,#0]
        0x0001ae06:    f0107f80    ....    TST      r0,#0x1000000
        0x0001ae0a:    9600        ..      STR      r6,[sp,#0]
        0x0001ae0c:    d007        ..      BEQ      0x1ae1e ; am_hal_usb_power_control + 306
        0x0001ae0e:    f020417f     ..A    BIC      r1,r0,#0xff000000
        0x0001ae12:    4291        .B      CMP      r1,r2
        0x0001ae14:    d103        ..      BNE      0x1ae1e ; am_hal_usb_power_control + 306
        0x0001ae16:    8861        a.      LDRH     r1,[r4,#2]
        0x0001ae18:    f001013f    ..?.    AND      r1,r1,#0x3f
        0x0001ae1c:    9100        ..      STR      r1,[sp,#0]
        0x0001ae1e:    f0107f80    ....    TST      r0,#0x1000000
        0x0001ae22:    9600        ..      STR      r6,[sp,#0]
        0x0001ae24:    d007        ..      BEQ      0x1ae36 ; am_hal_usb_power_control + 330
        0x0001ae26:    f020407f     ..@    BIC      r0,r0,#0xff000000
        0x0001ae2a:    4290        .B      CMP      r0,r2
        0x0001ae2c:    d103        ..      BNE      0x1ae36 ; am_hal_usb_power_control + 330
        0x0001ae2e:    7920         y      LDRB     r0,[r4,#4]
        0x0001ae30:    f000003f    ..?.    AND      r0,r0,#0x3f
        0x0001ae34:    9000        ..      STR      r0,[sp,#0]
        0x0001ae36:    2016        .       MOVS     r0,#0x16
        0x0001ae38:    f7fefb56    ..V.    BL       am_hal_pwrctrl_periph_disable ; 0x194e8
        0x0001ae3c:    2800        .(      CMP      r0,#0
        0x0001ae3e:    bf18        ..      IT       NE
        0x0001ae40:    e8bd83f8    ....    POPNE    {r3-r9,pc}
        0x0001ae44:    2017        .       MOVS     r0,#0x17
        0x0001ae46:    e8bd43f8    ...C    POP      {r3-r9,lr}
        0x0001ae4a:    f7febb4d    ..M.    B        am_hal_pwrctrl_periph_disable ; 0x194e8
        0x0001ae4e:    bf00        ..      NOP      
        0x0001ae50:    f1b90f00    ....    CMP      r9,#0
        0x0001ae54:    d005        ..      BEQ      0x1ae62 ; am_hal_usb_power_control + 374
        0x0001ae56:    7928        (y      LDRB     r0,[r5,#4]
        0x0001ae58:    2800        .(      CMP      r0,#0
        0x0001ae5a:    bf04        ..      ITT      EQ
        0x0001ae5c:    2007        .       MOVEQ    r0,#7
        0x0001ae5e:    e8bd83f8    ....    POPEQ    {r3-r9,pc}
        0x0001ae62:    2016        .       MOVS     r0,#0x16
        0x0001ae64:    f7fefbd6    ....    BL       am_hal_pwrctrl_periph_enable ; 0x19614
        0x0001ae68:    2800        .(      CMP      r0,#0
        0x0001ae6a:    bf18        ..      IT       NE
        0x0001ae6c:    e8bd83f8    ....    POPNE    {r3-r9,pc}
        0x0001ae70:    2017        .       MOVS     r0,#0x17
        0x0001ae72:    f7fefbcf    ....    BL       am_hal_pwrctrl_periph_enable ; 0x19614
        0x0001ae76:    2800        .(      CMP      r0,#0
        0x0001ae78:    bf18        ..      IT       NE
        0x0001ae7a:    e8bd83f8    ....    POPNE    {r3-r9,pc}
        0x0001ae7e:    f2427107    B..q    MOV      r1,#0x2707
        0x0001ae82:    4a31        1J      LDR      r2,[pc,#196] ; [0x1af48] = 0x400b2000
        0x0001ae84:    6051        Q`      STR      r1,[r2,#4]
        0x0001ae86:    f1b90f00    ....    CMP      r9,#0
        0x0001ae8a:    bf08        ..      IT       EQ
        0x0001ae8c:    e8bd83f8    ....    POPEQ    {r3-r9,pc}
        0x0001ae90:    f8c87180    ...q    STR      r7,[r8,#0x180]
        0x0001ae94:    f3bf8f4f    ..O.    DSB      
        0x0001ae98:    f3bf8f6f    ..o.    ISB      
        0x0001ae9c:    68a9        .h      LDR      r1,[r5,#8]
        0x0001ae9e:    6021        !`      STR      r1,[r4,#0]
        0x0001aea0:    68e9        .h      LDR      r1,[r5,#0xc]
        0x0001aea2:    6061        a`      STR      r1,[r4,#4]
        0x0001aea4:    6929        )i      LDR      r1,[r5,#0x10]
        0x0001aea6:    60a1        .`      STR      r1,[r4,#8]
        0x0001aea8:    68e1        .h      LDR      r1,[r4,#0xc]
        0x0001aeaa:    f4212170    !.p!    BIC      r1,r1,#0xf0000
        0x0001aeae:    60e1        .`      STR      r1,[r4,#0xc]
        0x0001aeb0:    68e1        .h      LDR      r1,[r4,#0xc]
        0x0001aeb2:    f4413180    A..1    ORR      r1,r1,#0x10000
        0x0001aeb6:    60e1        .`      STR      r1,[r4,#0xc]
        0x0001aeb8:    6969        ii      LDR      r1,[r5,#0x14]
        0x0001aeba:    6121        !a      STR      r1,[r4,#0x10]
        0x0001aebc:    69a9        .i      LDR      r1,[r5,#0x18]
        0x0001aebe:    6161        aa      STR      r1,[r4,#0x14]
        0x0001aec0:    69e9        .i      LDR      r1,[r5,#0x1c]
        0x0001aec2:    61a1        .a      STR      r1,[r4,#0x18]
        0x0001aec4:    68e1        .h      LDR      r1,[r4,#0xc]
        0x0001aec6:    f4212170    !.p!    BIC      r1,r1,#0xf0000
        0x0001aeca:    60e1        .`      STR      r1,[r4,#0xc]
        0x0001aecc:    68e1        .h      LDR      r1,[r4,#0xc]
        0x0001aece:    f4413100    A..1    ORR      r1,r1,#0x20000
        0x0001aed2:    60e1        .`      STR      r1,[r4,#0xc]
        0x0001aed4:    6a29        )j      LDR      r1,[r5,#0x20]
        0x0001aed6:    6121        !a      STR      r1,[r4,#0x10]
        0x0001aed8:    6a69        ij      LDR      r1,[r5,#0x24]
        0x0001aeda:    6161        aa      STR      r1,[r4,#0x14]
        0x0001aedc:    6aa9        .j      LDR      r1,[r5,#0x28]
        0x0001aede:    61a1        .a      STR      r1,[r4,#0x18]
        0x0001aee0:    68e1        .h      LDR      r1,[r4,#0xc]
        0x0001aee2:    f4212170    !.p!    BIC      r1,r1,#0xf0000
        0x0001aee6:    60e1        .`      STR      r1,[r4,#0xc]
        0x0001aee8:    68e1        .h      LDR      r1,[r4,#0xc]
        0x0001aeea:    f4413140    A.@1    ORR      r1,r1,#0x30000
        0x0001aeee:    60e1        .`      STR      r1,[r4,#0xc]
        0x0001aef0:    6ae9        .j      LDR      r1,[r5,#0x2c]
        0x0001aef2:    6121        !a      STR      r1,[r4,#0x10]
        0x0001aef4:    6b29        )k      LDR      r1,[r5,#0x30]
        0x0001aef6:    6161        aa      STR      r1,[r4,#0x14]
        0x0001aef8:    6b69        ik      LDR      r1,[r5,#0x34]
        0x0001aefa:    61a1        .a      STR      r1,[r4,#0x18]
        0x0001aefc:    68e1        .h      LDR      r1,[r4,#0xc]
        0x0001aefe:    f4212170    !.p!    BIC      r1,r1,#0xf0000
        0x0001af02:    60e1        .`      STR      r1,[r4,#0xc]
        0x0001af04:    68e1        .h      LDR      r1,[r4,#0xc]
        0x0001af06:    f4412180    A..!    ORR      r1,r1,#0x40000
        0x0001af0a:    60e1        .`      STR      r1,[r4,#0xc]
        0x0001af0c:    6ba9        .k      LDR      r1,[r5,#0x38]
        0x0001af0e:    6121        !a      STR      r1,[r4,#0x10]
        0x0001af10:    6be9        .k      LDR      r1,[r5,#0x3c]
        0x0001af12:    6161        aa      STR      r1,[r4,#0x14]
        0x0001af14:    6c29        )l      LDR      r1,[r5,#0x40]
        0x0001af16:    61a1        .a      STR      r1,[r4,#0x18]
        0x0001af18:    68e1        .h      LDR      r1,[r4,#0xc]
        0x0001af1a:    f4212170    !.p!    BIC      r1,r1,#0xf0000
        0x0001af1e:    60e1        .`      STR      r1,[r4,#0xc]
        0x0001af20:    68e1        .h      LDR      r1,[r4,#0xc]
        0x0001af22:    f44121a0    A..!    ORR      r1,r1,#0x50000
        0x0001af26:    60e1        .`      STR      r1,[r4,#0xc]
        0x0001af28:    6c69        il      LDR      r1,[r5,#0x44]
        0x0001af2a:    6121        !a      STR      r1,[r4,#0x10]
        0x0001af2c:    6ca9        .l      LDR      r1,[r5,#0x48]
        0x0001af2e:    6161        aa      STR      r1,[r4,#0x14]
        0x0001af30:    6ce9        .l      LDR      r1,[r5,#0x4c]
        0x0001af32:    61a1        .a      STR      r1,[r4,#0x18]
        0x0001af34:    712e        .q      STRB     r6,[r5,#4]
        0x0001af36:    f8c87100    ...q    STR      r7,[r8,#0x100]
        0x0001af3a:    e8bd83f8    ....    POP      {r3-r9,pc}
    $d
        0x0001af3e:    0000        ..      DCW    0
        0x0001af40:    400b0000    ...@    DCD    1074462720
        0x0001af44:    00ea9e06    ....    DCD    15375878
        0x0001af48:    400b2000    . .@    DCD    1074470912
    $t
    i.am_hal_usb_register_dev_evt_callback
    am_hal_usb_register_dev_evt_callback
        0x0001af4c:    2800        .(      CMP      r0,#0
        0x0001af4e:    bf1c        ..      ITT      NE
        0x0001af50:    6802        .h      LDRNE    r2,[r0,#0]
        0x0001af52:    f0127f80    ....    TSTNE    r2,#0x1000000
        0x0001af56:    d004        ..      BEQ      0x1af62 ; am_hal_usb_register_dev_evt_callback + 22
        0x0001af58:    4b06        .K      LDR      r3,[pc,#24] ; [0x1af74] = 0xea9e06
        0x0001af5a:    f022427f    "..B    BIC      r2,r2,#0xff000000
        0x0001af5e:    429a        .B      CMP      r2,r3
        0x0001af60:    d001        ..      BEQ      0x1af66 ; am_hal_usb_register_dev_evt_callback + 26
        0x0001af62:    2002        .       MOVS     r0,#2
        0x0001af64:    4770        pG      BX       lr
        0x0001af66:    2900        .)      CMP      r1,#0
        0x0001af68:    bf1a        ..      ITTE     NE
        0x0001af6a:    f8c010fc    ....    STRNE    r1,[r0,#0xfc]
        0x0001af6e:    2000        .       MOVNE    r0,#0
        0x0001af70:    2006        .       MOVEQ    r0,#6
        0x0001af72:    4770        pG      BX       lr
    $d
        0x0001af74:    00ea9e06    ....    DCD    15375878
    $t
    i.am_hal_usb_register_ep0_setup_received_callback
    am_hal_usb_register_ep0_setup_received_callback
        0x0001af78:    2800        .(      CMP      r0,#0
        0x0001af7a:    bf1c        ..      ITT      NE
        0x0001af7c:    6802        .h      LDRNE    r2,[r0,#0]
        0x0001af7e:    f0127f80    ....    TSTNE    r2,#0x1000000
        0x0001af82:    d004        ..      BEQ      0x1af8e ; am_hal_usb_register_ep0_setup_received_callback + 22
        0x0001af84:    4b06        .K      LDR      r3,[pc,#24] ; [0x1afa0] = 0xea9e06
        0x0001af86:    f022427f    "..B    BIC      r2,r2,#0xff000000
        0x0001af8a:    429a        .B      CMP      r2,r3
        0x0001af8c:    d001        ..      BEQ      0x1af92 ; am_hal_usb_register_ep0_setup_received_callback + 26
        0x0001af8e:    2002        .       MOVS     r0,#2
        0x0001af90:    4770        pG      BX       lr
        0x0001af92:    2900        .)      CMP      r1,#0
        0x0001af94:    bf1a        ..      ITTE     NE
        0x0001af96:    f8c01100    ....    STRNE    r1,[r0,#0x100]
        0x0001af9a:    2000        .       MOVNE    r0,#0
        0x0001af9c:    2006        .       MOVEQ    r0,#6
        0x0001af9e:    4770        pG      BX       lr
    $d
        0x0001afa0:    00ea9e06    ....    DCD    15375878
    $t
    i.am_hal_usb_register_ep_xfer_complete_callback
    am_hal_usb_register_ep_xfer_complete_callback
        0x0001afa4:    2800        .(      CMP      r0,#0
        0x0001afa6:    bf1c        ..      ITT      NE
        0x0001afa8:    6802        .h      LDRNE    r2,[r0,#0]
        0x0001afaa:    f0127f80    ....    TSTNE    r2,#0x1000000
        0x0001afae:    d004        ..      BEQ      0x1afba ; am_hal_usb_register_ep_xfer_complete_callback + 22
        0x0001afb0:    4b06        .K      LDR      r3,[pc,#24] ; [0x1afcc] = 0xea9e06
        0x0001afb2:    f022427f    "..B    BIC      r2,r2,#0xff000000
        0x0001afb6:    429a        .B      CMP      r2,r3
        0x0001afb8:    d001        ..      BEQ      0x1afbe ; am_hal_usb_register_ep_xfer_complete_callback + 26
        0x0001afba:    2002        .       MOVS     r0,#2
        0x0001afbc:    4770        pG      BX       lr
        0x0001afbe:    2900        .)      CMP      r1,#0
        0x0001afc0:    bf1a        ..      ITTE     NE
        0x0001afc2:    f8c01104    ....    STRNE    r1,[r0,#0x104]
        0x0001afc6:    2000        .       MOVNE    r0,#0
        0x0001afc8:    2006        .       MOVEQ    r0,#6
        0x0001afca:    4770        pG      BX       lr
    $d
        0x0001afcc:    00ea9e06    ....    DCD    15375878
    $t
    i.am_hal_usb_set_addr
    am_hal_usb_set_addr
        0x0001afd0:    2800        .(      CMP      r0,#0
        0x0001afd2:    bf1c        ..      ITT      NE
        0x0001afd4:    6800        .h      LDRNE    r0,[r0,#0]
        0x0001afd6:    f0107f80    ....    TSTNE    r0,#0x1000000
        0x0001afda:    d004        ..      BEQ      0x1afe6 ; am_hal_usb_set_addr + 22
        0x0001afdc:    4a08        .J      LDR      r2,[pc,#32] ; [0x1b000] = 0xea9e06
        0x0001afde:    f020407f     ..@    BIC      r0,r0,#0xff000000
        0x0001afe2:    4290        .B      CMP      r0,r2
        0x0001afe4:    d001        ..      BEQ      0x1afea ; am_hal_usb_set_addr + 26
        0x0001afe6:    2002        .       MOVS     r0,#2
        0x0001afe8:    4770        pG      BX       lr
        0x0001afea:    4806        .H      LDR      r0,[pc,#24] ; [0x1b004] = 0x400b0000
        0x0001afec:    7802        .x      LDRB     r2,[r0,#0]
        0x0001afee:    f022027f    "...    BIC      r2,r2,#0x7f
        0x0001aff2:    7002        .p      STRB     r2,[r0,#0]
        0x0001aff4:    7802        .x      LDRB     r2,[r0,#0]
        0x0001aff6:    4311        .C      ORRS     r1,r1,r2
        0x0001aff8:    7001        .p      STRB     r1,[r0,#0]
        0x0001affa:    2000        .       MOVS     r0,#0
        0x0001affc:    4770        pG      BX       lr
    $d
        0x0001affe:    0000        ..      DCW    0
        0x0001b000:    00ea9e06    ....    DCD    15375878
        0x0001b004:    400b0000    ...@    DCD    1074462720
    $t
    i.am_hal_usb_set_dev_speed
    am_hal_usb_set_dev_speed
        0x0001b008:    2800        .(      CMP      r0,#0
        0x0001b00a:    bf1c        ..      ITT      NE
        0x0001b00c:    6802        .h      LDRNE    r2,[r0,#0]
        0x0001b00e:    f0127f80    ....    TSTNE    r2,#0x1000000
        0x0001b012:    d020         .      BEQ      0x1b056 ; am_hal_usb_set_dev_speed + 78
        0x0001b014:    4b17        .K      LDR      r3,[pc,#92] ; [0x1b074] = 0xea9e06
        0x0001b016:    f022427f    "..B    BIC      r2,r2,#0xff000000
        0x0001b01a:    429a        .B      CMP      r2,r3
        0x0001b01c:    d11b        ..      BNE      0x1b056 ; am_hal_usb_set_dev_speed + 78
        0x0001b01e:    2903        .)      CMP      r1,#3
        0x0001b020:    d019        ..      BEQ      0x1b056 ; am_hal_usb_set_dev_speed + 78
        0x0001b022:    4a15        .J      LDR      r2,[pc,#84] ; [0x1b078] = 0x400b0000
        0x0001b024:    4b15        .K      LDR      r3,[pc,#84] ; [0x1b07c] = 0x400b2000
        0x0001b026:    2900        .)      CMP      r1,#0
        0x0001b028:    bf18        ..      IT       NE
        0x0001b02a:    2901        .)      CMPNE    r1,#1
        0x0001b02c:    d015        ..      BEQ      0x1b05a ; am_hal_usb_set_dev_speed + 82
        0x0001b02e:    2902        .)      CMP      r1,#2
        0x0001b030:    bf1c        ..      ITT      NE
        0x0001b032:    2006        .       MOVNE    r0,#6
        0x0001b034:    4770        pG      BXNE     lr
        0x0001b036:    f892c001    ....    LDRB     r12,[r2,#1]
        0x0001b03a:    f04c0c20    L. .    ORR      r12,r12,#0x20
        0x0001b03e:    f882c001    ....    STRB     r12,[r2,#1]
        0x0001b042:    681a        .h      LDR      r2,[r3,#0]
        0x0001b044:    f0227240    ".@r    BIC      r2,r2,#0x3000000
        0x0001b048:    f1027280    ...r    ADD      r2,r2,#0x1000000
        0x0001b04c:    601a        .`      STR      r2,[r3,#0]
        0x0001b04e:    f8801054    ..T.    STRB     r1,[r0,#0x54]
        0x0001b052:    2000        .       MOVS     r0,#0
        0x0001b054:    4770        pG      BX       lr
        0x0001b056:    2002        .       MOVS     r0,#2
        0x0001b058:    4770        pG      BX       lr
        0x0001b05a:    f892c001    ....    LDRB     r12,[r2,#1]
        0x0001b05e:    f02c0c20    ,. .    BIC      r12,r12,#0x20
        0x0001b062:    f882c001    ....    STRB     r12,[r2,#1]
        0x0001b066:    681a        .h      LDR      r2,[r3,#0]
        0x0001b068:    f0227240    ".@r    BIC      r2,r2,#0x3000000
        0x0001b06c:    f1027200    ...r    ADD      r2,r2,#0x2000000
        0x0001b070:    e7ec        ..      B        0x1b04c ; am_hal_usb_set_dev_speed + 68
    $d
        0x0001b072:    0000        ..      DCW    0
        0x0001b074:    00ea9e06    ....    DCD    15375878
        0x0001b078:    400b0000    ...@    DCD    1074462720
        0x0001b07c:    400b2000    . .@    DCD    1074470912
    $t
    i.am_hal_usb_set_dev_state
    am_hal_usb_set_dev_state
        0x0001b080:    b538        8.      PUSH     {r3-r5,lr}
        0x0001b082:    460d        .F      MOV      r5,r1
        0x0001b084:    1e04        ..      SUBS     r4,r0,#0
        0x0001b086:    bf1c        ..      ITT      NE
        0x0001b088:    6820         h      LDRNE    r0,[r4,#0]
        0x0001b08a:    f0107f80    ....    TSTNE    r0,#0x1000000
        0x0001b08e:    d004        ..      BEQ      0x1b09a ; am_hal_usb_set_dev_state + 26
        0x0001b090:    4908        .I      LDR      r1,[pc,#32] ; [0x1b0b4] = 0xea9e06
        0x0001b092:    f020407f     ..@    BIC      r0,r0,#0xff000000
        0x0001b096:    4288        .B      CMP      r0,r1
        0x0001b098:    d001        ..      BEQ      0x1b09e ; am_hal_usb_set_dev_state + 30
        0x0001b09a:    2002        .       MOVS     r0,#2
        0x0001b09c:    bd38        8.      POP      {r3-r5,pc}
        0x0001b09e:    f7fdf94b    ..K.    BL       am_hal_interrupt_master_disable ; 0x18338
        0x0001b0a2:    9000        ..      STR      r0,[sp,#0]
        0x0001b0a4:    f8845055    ..UP    STRB     r5,[r4,#0x55]
        0x0001b0a8:    9800        ..      LDR      r0,[sp,#0]
        0x0001b0aa:    f7fdf949    ..I.    BL       am_hal_interrupt_master_set ; 0x18340
        0x0001b0ae:    2000        .       MOVS     r0,#0
        0x0001b0b0:    bd38        8.      POP      {r3-r5,pc}
    $d
        0x0001b0b2:    0000        ..      DCW    0
        0x0001b0b4:    00ea9e06    ....    DCD    15375878
    $t
    i.am_usb_isr
    am_usb_isr
        0x0001b0b8:    b50e        ..      PUSH     {r1-r3,lr}
        0x0001b0ba:    ab02        ..      ADD      r3,sp,#8
        0x0001b0bc:    aa01        ..      ADD      r2,sp,#4
        0x0001b0be:    4669        iF      MOV      r1,sp
        0x0001b0c0:    4805        .H      LDR      r0,[pc,#20] ; [0x1b0d8] = 0x1000002c
        0x0001b0c2:    6800        .h      LDR      r0,[r0,#0]
        0x0001b0c4:    f7fffdd0    ....    BL       am_hal_usb_intr_status_get ; 0x1ac68
        0x0001b0c8:    4803        .H      LDR      r0,[pc,#12] ; [0x1b0d8] = 0x1000002c
        0x0001b0ca:    e89d000e    ....    LDM      sp,{r1-r3}
        0x0001b0ce:    6800        .h      LDR      r0,[r0,#0]
        0x0001b0d0:    f7fffa18    ....    BL       am_hal_usb_interrupt_service ; 0x1a504
        0x0001b0d4:    bd0e        ..      POP      {r1-r3,pc}
    $d
        0x0001b0d6:    0000        ..      DCW    0
        0x0001b0d8:    1000002c    ,...    DCD    268435500
    $t
    i.am_util_delay_ms
    am_util_delay_ms
        0x0001b0dc:    b510        ..      PUSH     {r4,lr}
        0x0001b0de:    4604        .F      MOV      r4,r0
        0x0001b0e0:    f44f717a    O.zq    MOV      r1,#0x3e8
        0x0001b0e4:    fb04f001    ....    MUL      r0,r4,r1
        0x0001b0e8:    f7fdfee2    ....    BL       am_hal_delay_us ; 0x18eb0
        0x0001b0ec:    bd10        ..      POP      {r4,pc}
        0x0001b0ee:    0000        ..      MOVS     r0,r0
    i.am_util_id_device
    am_util_id_device
        0x0001b0f0:    b570        p.      PUSH     {r4-r6,lr}
        0x0001b0f2:    4604        .F      MOV      r4,r0
        0x0001b0f4:    2000        .       MOVS     r0,#0
        0x0001b0f6:    6460        `d      STR      r0,[r4,#0x44]
        0x0001b0f8:    4827        'H      LDR      r0,[pc,#156] ; [0x1b198] = 0x1e731
        0x0001b0fa:    64e0        .d      STR      r0,[r4,#0x4c]
        0x0001b0fc:    4827        'H      LDR      r0,[pc,#156] ; [0x1b19c] = 0x1e72c
        0x0001b0fe:    64a0        .d      STR      r0,[r4,#0x48]
        0x0001b100:    203f        ?       MOVS     r0,#0x3f
        0x0001b102:    f8840050    ..P.    STRB     r0,[r4,#0x50]
        0x0001b106:    2020                MOVS     r0,#0x20
        0x0001b108:    f8840051    ..Q.    STRB     r0,[r4,#0x51]
        0x0001b10c:    4621        !F      MOV      r1,r4
        0x0001b10e:    2001        .       MOVS     r0,#1
        0x0001b110:    f7fef952    ..R.    BL       am_hal_mcuctrl_info_get ; 0x193b8
        0x0001b114:    f104013c    ..<.    ADD      r1,r4,#0x3c
        0x0001b118:    2000        .       MOVS     r0,#0
        0x0001b11a:    f7fef94d    ..M.    BL       am_hal_mcuctrl_info_get ; 0x193b8
        0x0001b11e:    6820         h      LDR      r0,[r4,#0]
        0x0001b120:    f000467f    ...F    AND      r6,r0,#0xff000000
        0x0001b124:    68e5        .h      LDR      r5,[r4,#0xc]
        0x0001b126:    491e        .I      LDR      r1,[pc,#120] ; [0x1b1a0] = 0x414d4251
        0x0001b128:    6920         i      LDR      r0,[r4,#0x10]
        0x0001b12a:    4288        .B      CMP      r0,r1
        0x0001b12c:    d101        ..      BNE      0x1b132 ; am_util_id_device + 66
        0x0001b12e:    481d        .H      LDR      r0,[pc,#116] ; [0x1b1a4] = 0x1e727
        0x0001b130:    64a0        .d      STR      r0,[r4,#0x48]
        0x0001b132:    f1b66f00    ...o    CMP      r6,#0x8000000
        0x0001b136:    d11b        ..      BNE      0x1b170 ; am_util_id_device + 128
        0x0001b138:    f894002c    ..,.    LDRB     r0,[r4,#0x2c]
        0x0001b13c:    f00000f0    ....    AND      r0,r0,#0xf0
        0x0001b140:    28b0        .(      CMP      r0,#0xb0
        0x0001b142:    d115        ..      BNE      0x1b170 ; am_util_id_device + 128
        0x0001b144:    4628        (F      MOV      r0,r5
        0x0001b146:    f002f82d    ..-.    BL       revmaj_get ; 0x1d1a4
        0x0001b14a:    2843        C(      CMP      r0,#0x43
        0x0001b14c:    d110        ..      BNE      0x1b170 ; am_util_id_device + 128
        0x0001b14e:    f44f7082    O..p    MOV      r0,#0x104
        0x0001b152:    6460        `d      STR      r0,[r4,#0x44]
        0x0001b154:    7820         x      LDRB     r0,[r4,#0]
        0x0001b156:    f3c01081    ....    UBFX     r0,r0,#6,#2
        0x0001b15a:    2802        .(      CMP      r0,#2
        0x0001b15c:    d302        ..      BCC      0x1b164 ; am_util_id_device + 116
        0x0001b15e:    4812        .H      LDR      r0,[pc,#72] ; [0x1b1a8] = 0x1e6cc
        0x0001b160:    64e0        .d      STR      r0,[r4,#0x4c]
        0x0001b162:    e001        ..      B        0x1b168 ; am_util_id_device + 120
        0x0001b164:    4811        .H      LDR      r0,[pc,#68] ; [0x1b1ac] = 0x1e6d9
        0x0001b166:    64e0        .d      STR      r0,[r4,#0x4c]
        0x0001b168:    2101        .!      MOVS     r1,#1
        0x0001b16a:    4620         F      MOV      r0,r4
        0x0001b16c:    f000fa87    ....    BL       chiprev_set ; 0x1b67e
        0x0001b170:    7820         x      LDRB     r0,[r4,#0]
        0x0001b172:    f3c01081    ....    UBFX     r0,r0,#6,#2
        0x0001b176:    490e        .I      LDR      r1,[pc,#56] ; [0x1b1b0] = 0x1e6eb
        0x0001b178:    eb010080    ....    ADD      r0,r1,r0,LSL #2
        0x0001b17c:    6560        `e      STR      r0,[r4,#0x54]
        0x0001b17e:    7820         x      LDRB     r0,[r4,#0]
        0x0001b180:    f3c00041    ..A.    UBFX     r0,r0,#1,#2
        0x0001b184:    eb000140    ..@.    ADD      r1,r0,r0,LSL #1
        0x0001b188:    eb0100c0    ....    ADD      r0,r1,r0,LSL #3
        0x0001b18c:    4909        .I      LDR      r1,[pc,#36] ; [0x1b1b4] = 0x1e6fb
        0x0001b18e:    4408        .D      ADD      r0,r0,r1
        0x0001b190:    65a0        .e      STR      r0,[r4,#0x58]
        0x0001b192:    6c60        `l      LDR      r0,[r4,#0x44]
        0x0001b194:    bd70        p.      POP      {r4-r6,pc}
    $d
        0x0001b196:    0000        ..      DCW    0
        0x0001b198:    0001e731    1...    DCD    124721
        0x0001b19c:    0001e72c    ,...    DCD    124716
        0x0001b1a0:    414d4251    QBMA    DCD    1095582289
        0x0001b1a4:    0001e727    '...    DCD    124711
        0x0001b1a8:    0001e6cc    ....    DCD    124620
        0x0001b1ac:    0001e6d9    ....    DCD    124633
        0x0001b1b0:    0001e6eb    ....    DCD    124651
        0x0001b1b4:    0001e6fb    ....    DCD    124667
    $t
    i.am_util_stdio_printf
    am_util_stdio_printf
        0x0001b1b8:    b40f        ..      PUSH     {r0-r3}
        0x0001b1ba:    b538        8.      PUSH     {r3-r5,lr}
        0x0001b1bc:    480b        .H      LDR      r0,[pc,#44] ; [0x1b1ec] = 0x10000054
        0x0001b1be:    6800        .h      LDR      r0,[r0,#0]
        0x0001b1c0:    b918        ..      CBNZ     r0,0x1b1ca ; am_util_stdio_printf + 18
        0x0001b1c2:    2000        .       MOVS     r0,#0
        0x0001b1c4:    bc38        8.      POP      {r3-r5}
        0x0001b1c6:    f85dfb14    ]...    LDR      pc,[sp],#0x14
        0x0001b1ca:    a805        ..      ADD      r0,sp,#0x14
        0x0001b1cc:    9000        ..      STR      r0,[sp,#0]
        0x0001b1ce:    4808        .H      LDR      r0,[pc,#32] ; [0x1b1f0] = 0x100002f4
        0x0001b1d0:    9a00        ..      LDR      r2,[sp,#0]
        0x0001b1d2:    9904        ..      LDR      r1,[sp,#0x10]
        0x0001b1d4:    f000f824    ..$.    BL       am_util_stdio_vsprintf ; 0x1b220
        0x0001b1d8:    4604        .F      MOV      r4,r0
        0x0001b1da:    2000        .       MOVS     r0,#0
        0x0001b1dc:    9000        ..      STR      r0,[sp,#0]
        0x0001b1de:    4804        .H      LDR      r0,[pc,#16] ; [0x1b1f0] = 0x100002f4
        0x0001b1e0:    4902        .I      LDR      r1,[pc,#8] ; [0x1b1ec] = 0x10000054
        0x0001b1e2:    6809        .h      LDR      r1,[r1,#0]
        0x0001b1e4:    4788        .G      BLX      r1
        0x0001b1e6:    4620         F      MOV      r0,r4
        0x0001b1e8:    e7ec        ..      B        0x1b1c4 ; am_util_stdio_printf + 12
    $d
        0x0001b1ea:    0000        ..      DCW    0
        0x0001b1ec:    10000054    T...    DCD    268435540
        0x0001b1f0:    100002f4    ....    DCD    268436212
    $t
    i.am_util_stdio_printf_init
    am_util_stdio_printf_init
        0x0001b1f4:    4901        .I      LDR      r1,[pc,#4] ; [0x1b1fc] = 0x10000054
        0x0001b1f6:    6008        .`      STR      r0,[r1,#0]
        0x0001b1f8:    4770        pG      BX       lr
    $d
        0x0001b1fa:    0000        ..      DCW    0
        0x0001b1fc:    10000054    T...    DCD    268435540
    $t
    i.am_util_stdio_terminal_clear
    am_util_stdio_terminal_clear
        0x0001b200:    b510        ..      PUSH     {r4,lr}
        0x0001b202:    a002        ..      ADR      r0,{pc}+0xa ; 0x1b20c
        0x0001b204:    f7ffffd8    ....    BL       am_util_stdio_printf ; 0x1b1b8
        0x0001b208:    bd10        ..      POP      {r4,pc}
    $d
        0x0001b20a:    0000        ..      DCW    0
        0x0001b20c:    0a0a0a0a    ....    DCD    168430090
        0x0001b210:    0a0a0a0a    ....    DCD    168430090
        0x0001b214:    0a0a0a0a    ....    DCD    168430090
        0x0001b218:    0a0a0a0a    ....    DCD    168430090
        0x0001b21c:    00000a0a    ....    DCD    2570
    $t
    i.am_util_stdio_vsprintf
    am_util_stdio_vsprintf
        0x0001b220:    e92d4ff7    -..O    PUSH     {r0-r2,r4-r11,lr}
        0x0001b224:    ed2d8b02    -...    VPUSH    {d8}
        0x0001b228:    b08a        ..      SUB      sp,sp,#0x28
        0x0001b22a:    4604        .F      MOV      r4,r0
        0x0001b22c:    460d        .F      MOV      r5,r1
        0x0001b22e:    f04f0900    O...    MOV      r9,#0
        0x0001b232:    2000        .       MOVS     r0,#0
        0x0001b234:    9000        ..      STR      r0,[sp,#0]
        0x0001b236:    e1b9        ..      B        0x1b5ac ; am_util_stdio_vsprintf + 908
        0x0001b238:    2006        .       MOVS     r0,#6
        0x0001b23a:    9006        ..      STR      r0,[sp,#0x18]
        0x0001b23c:    7828        (x      LDRB     r0,[r5,#0]
        0x0001b23e:    2825        %(      CMP      r0,#0x25
        0x0001b240:    d012        ..      BEQ      0x1b268 ; am_util_stdio_vsprintf + 72
        0x0001b242:    b16c        l.      CBZ      r4,0x1b260 ; am_util_stdio_vsprintf + 64
        0x0001b244:    7828        (x      LDRB     r0,[r5,#0]
        0x0001b246:    280a        .(      CMP      r0,#0xa
        0x0001b248:    d107        ..      BNE      0x1b25a ; am_util_stdio_vsprintf + 58
        0x0001b24a:    48de        .H      LDR      r0,[pc,#888] ; [0x1b5c4] = 0x10000058
        0x0001b24c:    7800        .x      LDRB     r0,[r0,#0]
        0x0001b24e:    b120         .      CBZ      r0,0x1b25a ; am_util_stdio_vsprintf + 58
        0x0001b250:    200d        .       MOVS     r0,#0xd
        0x0001b252:    f8040b01    ....    STRB     r0,[r4],#1
        0x0001b256:    f1090901    ....    ADD      r9,r9,#1
        0x0001b25a:    7828        (x      LDRB     r0,[r5,#0]
        0x0001b25c:    f8040b01    ....    STRB     r0,[r4],#1
        0x0001b260:    1c6d        m.      ADDS     r5,r5,#1
        0x0001b262:    f1090901    ....    ADD      r9,r9,#1
        0x0001b266:    e1a1        ..      B        0x1b5ac ; am_util_stdio_vsprintf + 908
        0x0001b268:    1c6d        m.      ADDS     r5,r5,#1
        0x0001b26a:    2000        .       MOVS     r0,#0
        0x0001b26c:    9002        ..      STR      r0,[sp,#8]
        0x0001b26e:    9003        ..      STR      r0,[sp,#0xc]
        0x0001b270:    2020                MOVS     r0,#0x20
        0x0001b272:    9004        ..      STR      r0,[sp,#0x10]
        0x0001b274:    7828        (x      LDRB     r0,[r5,#0]
        0x0001b276:    2830        0(      CMP      r0,#0x30
        0x0001b278:    d101        ..      BNE      0x1b27e ; am_util_stdio_vsprintf + 94
        0x0001b27a:    9004        ..      STR      r0,[sp,#0x10]
        0x0001b27c:    1c6d        m.      ADDS     r5,r5,#1
        0x0001b27e:    a907        ..      ADD      r1,sp,#0x1c
        0x0001b280:    4628        (F      MOV      r0,r5
        0x0001b282:    f000fcf1    ....    BL       decstr_to_int ; 0x1bc68
        0x0001b286:    4606        .F      MOV      r6,r0
        0x0001b288:    9807        ..      LDR      r0,[sp,#0x1c]
        0x0001b28a:    4405        .D      ADD      r5,r5,r0
        0x0001b28c:    7828        (x      LDRB     r0,[r5,#0]
        0x0001b28e:    2873        s(      CMP      r0,#0x73
        0x0001b290:    d002        ..      BEQ      0x1b298 ; am_util_stdio_vsprintf + 120
        0x0001b292:    2e00        ..      CMP      r6,#0
        0x0001b294:    da00        ..      BGE      0x1b298 ; am_util_stdio_vsprintf + 120
        0x0001b296:    4276        vB      RSBS     r6,r6,#0
        0x0001b298:    7828        (x      LDRB     r0,[r5,#0]
        0x0001b29a:    282e        .(      CMP      r0,#0x2e
        0x0001b29c:    d107        ..      BNE      0x1b2ae ; am_util_stdio_vsprintf + 142
        0x0001b29e:    1c6d        m.      ADDS     r5,r5,#1
        0x0001b2a0:    a907        ..      ADD      r1,sp,#0x1c
        0x0001b2a2:    4628        (F      MOV      r0,r5
        0x0001b2a4:    f000fce0    ....    BL       decstr_to_int ; 0x1bc68
        0x0001b2a8:    9006        ..      STR      r0,[sp,#0x18]
        0x0001b2aa:    9807        ..      LDR      r0,[sp,#0x1c]
        0x0001b2ac:    4405        .D      ADD      r5,r5,r0
        0x0001b2ae:    7828        (x      LDRB     r0,[r5,#0]
        0x0001b2b0:    286c        l(      CMP      r0,#0x6c
        0x0001b2b2:    d106        ..      BNE      0x1b2c2 ; am_util_stdio_vsprintf + 162
        0x0001b2b4:    1c6d        m.      ADDS     r5,r5,#1
        0x0001b2b6:    7828        (x      LDRB     r0,[r5,#0]
        0x0001b2b8:    286c        l(      CMP      r0,#0x6c
        0x0001b2ba:    d102        ..      BNE      0x1b2c2 ; am_util_stdio_vsprintf + 162
        0x0001b2bc:    1c6d        m.      ADDS     r5,r5,#1
        0x0001b2be:    2001        .       MOVS     r0,#1
        0x0001b2c0:    9002        ..      STR      r0,[sp,#8]
        0x0001b2c2:    7828        (x      LDRB     r0,[r5,#0]
        0x0001b2c4:    2866        f(      CMP      r0,#0x66
        0x0001b2c6:    d06f        o.      BEQ      0x1b3a8 ; am_util_stdio_vsprintf + 392
        0x0001b2c8:    dc08        ..      BGT      0x1b2dc ; am_util_stdio_vsprintf + 188
        0x0001b2ca:    2846        F(      CMP      r0,#0x46
        0x0001b2cc:    d06d        m.      BEQ      0x1b3aa ; am_util_stdio_vsprintf + 394
        0x0001b2ce:    2858        X(      CMP      r0,#0x58
        0x0001b2d0:    d05c        \.      BEQ      0x1b38c ; am_util_stdio_vsprintf + 364
        0x0001b2d2:    2863        c(      CMP      r0,#0x63
        0x0001b2d4:    d00b        ..      BEQ      0x1b2ee ; am_util_stdio_vsprintf + 206
        0x0001b2d6:    2864        d(      CMP      r0,#0x64
        0x0001b2d8:    d168        h.      BNE      0x1b3ac ; am_util_stdio_vsprintf + 396
        0x0001b2da:    e0c3        ..      B        0x1b464 ; am_util_stdio_vsprintf + 580
        0x0001b2dc:    2869        i(      CMP      r0,#0x69
        0x0001b2de:    d07d        }.      BEQ      0x1b3dc ; am_util_stdio_vsprintf + 444
        0x0001b2e0:    2873        s(      CMP      r0,#0x73
        0x0001b2e2:    d011        ..      BEQ      0x1b308 ; am_util_stdio_vsprintf + 232
        0x0001b2e4:    2875        u(      CMP      r0,#0x75
        0x0001b2e6:    d07a        z.      BEQ      0x1b3de ; am_util_stdio_vsprintf + 446
        0x0001b2e8:    2878        x(      CMP      r0,#0x78
        0x0001b2ea:    d1f5        ..      BNE      0x1b2d8 ; am_util_stdio_vsprintf + 184
        0x0001b2ec:    e04b        K.      B        0x1b386 ; am_util_stdio_vsprintf + 358
        0x0001b2ee:    980e        ..      LDR      r0,[sp,#0x38]
        0x0001b2f0:    f8101b04    ....    LDRB     r1,[r0],#4
        0x0001b2f4:    900e        ..      STR      r0,[sp,#0x38]
        0x0001b2f6:    b2c8        ..      UXTB     r0,r1
        0x0001b2f8:    9005        ..      STR      r0,[sp,#0x14]
        0x0001b2fa:    b114        ..      CBZ      r4,0x1b302 ; am_util_stdio_vsprintf + 226
        0x0001b2fc:    9805        ..      LDR      r0,[sp,#0x14]
        0x0001b2fe:    f8040b01    ....    STRB     r0,[r4],#1
        0x0001b302:    f1090901    ....    ADD      r9,r9,#1
        0x0001b306:    e14e        N.      B        0x1b5a6 ; am_util_stdio_vsprintf + 902
        0x0001b308:    980e        ..      LDR      r0,[sp,#0x38]
        0x0001b30a:    f850bb04    P...    LDR      r11,[r0],#4
        0x0001b30e:    900e        ..      STR      r0,[sp,#0x38]
        0x0001b310:    4658        XF      MOV      r0,r11
        0x0001b312:    f001ff4d    ..M.    BL       simple_strlen ; 0x1d1b0
        0x0001b316:    9000        ..      STR      r0,[sp,#0]
        0x0001b318:    2e00        ..      CMP      r6,#0
        0x0001b31a:    dd11        ..      BLE      0x1b340 ; am_util_stdio_vsprintf + 288
        0x0001b31c:    9800        ..      LDR      r0,[sp,#0]
        0x0001b31e:    42b0        .B      CMP      r0,r6
        0x0001b320:    d20e        ..      BCS      0x1b340 ; am_util_stdio_vsprintf + 288
        0x0001b322:    9800        ..      LDR      r0,[sp,#0]
        0x0001b324:    1a36        6.      SUBS     r6,r6,r0
        0x0001b326:    4632        2F      MOV      r2,r6
        0x0001b328:    4620         F      MOV      r0,r4
        0x0001b32a:    9904        ..      LDR      r1,[sp,#0x10]
        0x0001b32c:    f001face    ....    BL       padbuffer ; 0x1c8cc
        0x0001b330:    4606        .F      MOV      r6,r0
        0x0001b332:    b10c        ..      CBZ      r4,0x1b338 ; am_util_stdio_vsprintf + 280
        0x0001b334:    4630        0F      MOV      r0,r6
        0x0001b336:    e000        ..      B        0x1b33a ; am_util_stdio_vsprintf + 282
        0x0001b338:    2000        .       MOVS     r0,#0
        0x0001b33a:    4404        .D      ADD      r4,r4,r0
        0x0001b33c:    44b1        .D      ADD      r9,r9,r6
        0x0001b33e:    2600        .&      MOVS     r6,#0
        0x0001b340:    e008        ..      B        0x1b354 ; am_util_stdio_vsprintf + 308
        0x0001b342:    b11c        ..      CBZ      r4,0x1b34c ; am_util_stdio_vsprintf + 300
        0x0001b344:    f89b0000    ....    LDRB     r0,[r11,#0]
        0x0001b348:    f8040b01    ....    STRB     r0,[r4],#1
        0x0001b34c:    f10b0b01    ....    ADD      r11,r11,#1
        0x0001b350:    f1090901    ....    ADD      r9,r9,#1
        0x0001b354:    f89b0000    ....    LDRB     r0,[r11,#0]
        0x0001b358:    2800        .(      CMP      r0,#0
        0x0001b35a:    d1f2        ..      BNE      0x1b342 ; am_util_stdio_vsprintf + 290
        0x0001b35c:    b196        ..      CBZ      r6,0x1b384 ; am_util_stdio_vsprintf + 356
        0x0001b35e:    4276        vB      RSBS     r6,r6,#0
        0x0001b360:    9800        ..      LDR      r0,[sp,#0]
        0x0001b362:    42b0        .B      CMP      r0,r6
        0x0001b364:    d20e        ..      BCS      0x1b384 ; am_util_stdio_vsprintf + 356
        0x0001b366:    9800        ..      LDR      r0,[sp,#0]
        0x0001b368:    1a36        6.      SUBS     r6,r6,r0
        0x0001b36a:    4632        2F      MOV      r2,r6
        0x0001b36c:    4620         F      MOV      r0,r4
        0x0001b36e:    9904        ..      LDR      r1,[sp,#0x10]
        0x0001b370:    f001faac    ....    BL       padbuffer ; 0x1c8cc
        0x0001b374:    4606        .F      MOV      r6,r0
        0x0001b376:    b10c        ..      CBZ      r4,0x1b37c ; am_util_stdio_vsprintf + 348
        0x0001b378:    4630        0F      MOV      r0,r6
        0x0001b37a:    e000        ..      B        0x1b37e ; am_util_stdio_vsprintf + 350
        0x0001b37c:    2000        .       MOVS     r0,#0
        0x0001b37e:    4404        .D      ADD      r4,r4,r0
        0x0001b380:    44b1        .D      ADD      r9,r9,r6
        0x0001b382:    2600        .&      MOVS     r6,#0
        0x0001b384:    e10f        ..      B        0x1b5a6 ; am_util_stdio_vsprintf + 902
        0x0001b386:    2001        .       MOVS     r0,#1
        0x0001b388:    9003        ..      STR      r0,[sp,#0xc]
        0x0001b38a:    bf00        ..      NOP      
        0x0001b38c:    9802        ..      LDR      r0,[sp,#8]
        0x0001b38e:    b170        p.      CBZ      r0,0x1b3ae ; am_util_stdio_vsprintf + 398
        0x0001b390:    980e        ..      LDR      r0,[sp,#0x38]
        0x0001b392:    1dc0        ..      ADDS     r0,r0,#7
        0x0001b394:    f0200007     ...    BIC      r0,r0,#7
        0x0001b398:    4601        .F      MOV      r1,r0
        0x0001b39a:    900e        ..      STR      r0,[sp,#0x38]
        0x0001b39c:    6800        .h      LDR      r0,[r0,#0]
        0x0001b39e:    6849        Ih      LDR      r1,[r1,#4]
        0x0001b3a0:    9a0e        ..      LDR      r2,[sp,#0x38]
        0x0001b3a2:    3208        .2      ADDS     r2,r2,#8
        0x0001b3a4:    920e        ..      STR      r2,[sp,#0x38]
        0x0001b3a6:    e008        ..      B        0x1b3ba ; am_util_stdio_vsprintf + 410
        0x0001b3a8:    e0c3        ..      B        0x1b532 ; am_util_stdio_vsprintf + 786
        0x0001b3aa:    e0c3        ..      B        0x1b534 ; am_util_stdio_vsprintf + 788
        0x0001b3ac:    e0f4        ..      B        0x1b598 ; am_util_stdio_vsprintf + 888
        0x0001b3ae:    980e        ..      LDR      r0,[sp,#0x38]
        0x0001b3b0:    6800        .h      LDR      r0,[r0,#0]
        0x0001b3b2:    990e        ..      LDR      r1,[sp,#0x38]
        0x0001b3b4:    1d09        ..      ADDS     r1,r1,#4
        0x0001b3b6:    910e        ..      STR      r1,[sp,#0x38]
        0x0001b3b8:    2100        .!      MOVS     r1,#0
        0x0001b3ba:    4607        .F      MOV      r7,r0
        0x0001b3bc:    4688        .F      MOV      r8,r1
        0x0001b3be:    b19e        ..      CBZ      r6,0x1b3e8 ; am_util_stdio_vsprintf + 456
        0x0001b3c0:    4638        8F      MOV      r0,r7
        0x0001b3c2:    4641        AF      MOV      r1,r8
        0x0001b3c4:    f001f8ba    ....    BL       ndigits_in_hex ; 0x1c53c
        0x0001b3c8:    1a36        6.      SUBS     r6,r6,r0
        0x0001b3ca:    4632        2F      MOV      r2,r6
        0x0001b3cc:    4620         F      MOV      r0,r4
        0x0001b3ce:    9904        ..      LDR      r1,[sp,#0x10]
        0x0001b3d0:    f001fa7c    ..|.    BL       padbuffer ; 0x1c8cc
        0x0001b3d4:    4606        .F      MOV      r6,r0
        0x0001b3d6:    b11c        ..      CBZ      r4,0x1b3e0 ; am_util_stdio_vsprintf + 448
        0x0001b3d8:    4630        0F      MOV      r0,r6
        0x0001b3da:    e002        ..      B        0x1b3e2 ; am_util_stdio_vsprintf + 450
        0x0001b3dc:    e043        C.      B        0x1b466 ; am_util_stdio_vsprintf + 582
        0x0001b3de:    e00e        ..      B        0x1b3fe ; am_util_stdio_vsprintf + 478
        0x0001b3e0:    2000        .       MOVS     r0,#0
        0x0001b3e2:    4404        .D      ADD      r4,r4,r0
        0x0001b3e4:    44b1        .D      ADD      r9,r9,r6
        0x0001b3e6:    2600        .&      MOVS     r6,#0
        0x0001b3e8:    4622        "F      MOV      r2,r4
        0x0001b3ea:    4638        8F      MOV      r0,r7
        0x0001b3ec:    4641        AF      MOV      r1,r8
        0x0001b3ee:    9b03        ..      LDR      r3,[sp,#0xc]
        0x0001b3f0:    f002fbee    ....    BL       uint64_to_hexstr ; 0x1dbd0
        0x0001b3f4:    4682        .F      MOV      r10,r0
        0x0001b3f6:    b104        ..      CBZ      r4,0x1b3fa ; am_util_stdio_vsprintf + 474
        0x0001b3f8:    4454        TD      ADD      r4,r4,r10
        0x0001b3fa:    44d1        .D      ADD      r9,r9,r10
        0x0001b3fc:    e0d3        ..      B        0x1b5a6 ; am_util_stdio_vsprintf + 902
        0x0001b3fe:    9802        ..      LDR      r0,[sp,#8]
        0x0001b400:    b158        X.      CBZ      r0,0x1b41a ; am_util_stdio_vsprintf + 506
        0x0001b402:    980e        ..      LDR      r0,[sp,#0x38]
        0x0001b404:    1dc0        ..      ADDS     r0,r0,#7
        0x0001b406:    f0200007     ...    BIC      r0,r0,#7
        0x0001b40a:    4601        .F      MOV      r1,r0
        0x0001b40c:    900e        ..      STR      r0,[sp,#0x38]
        0x0001b40e:    6800        .h      LDR      r0,[r0,#0]
        0x0001b410:    6849        Ih      LDR      r1,[r1,#4]
        0x0001b412:    9a0e        ..      LDR      r2,[sp,#0x38]
        0x0001b414:    3208        .2      ADDS     r2,r2,#8
        0x0001b416:    920e        ..      STR      r2,[sp,#0x38]
        0x0001b418:    e005        ..      B        0x1b426 ; am_util_stdio_vsprintf + 518
        0x0001b41a:    980e        ..      LDR      r0,[sp,#0x38]
        0x0001b41c:    6800        .h      LDR      r0,[r0,#0]
        0x0001b41e:    990e        ..      LDR      r1,[sp,#0x38]
        0x0001b420:    1d09        ..      ADDS     r1,r1,#4
        0x0001b422:    910e        ..      STR      r1,[sp,#0x38]
        0x0001b424:    2100        .!      MOVS     r1,#0
        0x0001b426:    4607        .F      MOV      r7,r0
        0x0001b428:    4688        .F      MOV      r8,r1
        0x0001b42a:    b18e        ..      CBZ      r6,0x1b450 ; am_util_stdio_vsprintf + 560
        0x0001b42c:    4638        8F      MOV      r0,r7
        0x0001b42e:    4641        AF      MOV      r1,r8
        0x0001b430:    f001f8b0    ....    BL       ndigits_in_u64 ; 0x1c594
        0x0001b434:    1a36        6.      SUBS     r6,r6,r0
        0x0001b436:    4632        2F      MOV      r2,r6
        0x0001b438:    4620         F      MOV      r0,r4
        0x0001b43a:    9904        ..      LDR      r1,[sp,#0x10]
        0x0001b43c:    f001fa46    ..F.    BL       padbuffer ; 0x1c8cc
        0x0001b440:    4606        .F      MOV      r6,r0
        0x0001b442:    b10c        ..      CBZ      r4,0x1b448 ; am_util_stdio_vsprintf + 552
        0x0001b444:    4630        0F      MOV      r0,r6
        0x0001b446:    e000        ..      B        0x1b44a ; am_util_stdio_vsprintf + 554
        0x0001b448:    2000        .       MOVS     r0,#0
        0x0001b44a:    4404        .D      ADD      r4,r4,r0
        0x0001b44c:    44b1        .D      ADD      r9,r9,r6
        0x0001b44e:    2600        .&      MOVS     r6,#0
        0x0001b450:    4622        "F      MOV      r2,r4
        0x0001b452:    4638        8F      MOV      r0,r7
        0x0001b454:    4641        AF      MOV      r1,r8
        0x0001b456:    f002fc00    ....    BL       uint64_to_str ; 0x1dc5a
        0x0001b45a:    4682        .F      MOV      r10,r0
        0x0001b45c:    b104        ..      CBZ      r4,0x1b460 ; am_util_stdio_vsprintf + 576
        0x0001b45e:    4454        TD      ADD      r4,r4,r10
        0x0001b460:    44d1        .D      ADD      r9,r9,r10
        0x0001b462:    e0a0        ..      B        0x1b5a6 ; am_util_stdio_vsprintf + 902
        0x0001b464:    bf00        ..      NOP      
        0x0001b466:    9802        ..      LDR      r0,[sp,#8]
        0x0001b468:    b158        X.      CBZ      r0,0x1b482 ; am_util_stdio_vsprintf + 610
        0x0001b46a:    980e        ..      LDR      r0,[sp,#0x38]
        0x0001b46c:    1dc0        ..      ADDS     r0,r0,#7
        0x0001b46e:    f0200007     ...    BIC      r0,r0,#7
        0x0001b472:    4601        .F      MOV      r1,r0
        0x0001b474:    900e        ..      STR      r0,[sp,#0x38]
        0x0001b476:    6800        .h      LDR      r0,[r0,#0]
        0x0001b478:    6849        Ih      LDR      r1,[r1,#4]
        0x0001b47a:    9a0e        ..      LDR      r2,[sp,#0x38]
        0x0001b47c:    3208        .2      ADDS     r2,r2,#8
        0x0001b47e:    920e        ..      STR      r2,[sp,#0x38]
        0x0001b480:    e005        ..      B        0x1b48e ; am_util_stdio_vsprintf + 622
        0x0001b482:    980e        ..      LDR      r0,[sp,#0x38]
        0x0001b484:    6800        .h      LDR      r0,[r0,#0]
        0x0001b486:    990e        ..      LDR      r1,[sp,#0x38]
        0x0001b488:    1d09        ..      ADDS     r1,r1,#4
        0x0001b48a:    910e        ..      STR      r1,[sp,#0x38]
        0x0001b48c:    17c1        ..      ASRS     r1,r0,#31
        0x0001b48e:    e9cd0108    ....    STRD     r0,r1,[sp,#0x20]
        0x0001b492:    2300        .#      MOVS     r3,#0
        0x0001b494:    e9dd0108    ....    LDRD     r0,r1,[sp,#0x20]
        0x0001b498:    1ac0        ..      SUBS     r0,r0,r3
        0x0001b49a:    4199        .A      SBCS     r1,r1,r3
        0x0001b49c:    da08        ..      BGE      0x1b4b0 ; am_util_stdio_vsprintf + 656
        0x0001b49e:    2200        ."      MOVS     r2,#0
        0x0001b4a0:    e9dd1008    ....    LDRD     r1,r0,[sp,#0x20]
        0x0001b4a4:    424f        OB      RSBS     r7,r1,#0
        0x0001b4a6:    eb620800    b...    SBC      r8,r2,r0
        0x0001b4aa:    2001        .       MOVS     r0,#1
        0x0001b4ac:    9001        ..      STR      r0,[sp,#4]
        0x0001b4ae:    e003        ..      B        0x1b4b8 ; am_util_stdio_vsprintf + 664
        0x0001b4b0:    e9dd7808    ...x    LDRD     r7,r8,[sp,#0x20]
        0x0001b4b4:    2000        .       MOVS     r0,#0
        0x0001b4b6:    9001        ..      STR      r0,[sp,#4]
        0x0001b4b8:    b34e        N.      CBZ      r6,0x1b50e ; am_util_stdio_vsprintf + 750
        0x0001b4ba:    4638        8F      MOV      r0,r7
        0x0001b4bc:    4641        AF      MOV      r1,r8
        0x0001b4be:    f001f857    ..W.    BL       ndigits_in_i64 ; 0x1c570
        0x0001b4c2:    1a36        6.      SUBS     r6,r6,r0
        0x0001b4c4:    9801        ..      LDR      r0,[sp,#4]
        0x0001b4c6:    b148        H.      CBZ      r0,0x1b4dc ; am_util_stdio_vsprintf + 700
        0x0001b4c8:    1e76        v.      SUBS     r6,r6,#1
        0x0001b4ca:    9804        ..      LDR      r0,[sp,#0x10]
        0x0001b4cc:    2830        0(      CMP      r0,#0x30
        0x0001b4ce:    d105        ..      BNE      0x1b4dc ; am_util_stdio_vsprintf + 700
        0x0001b4d0:    b114        ..      CBZ      r4,0x1b4d8 ; am_util_stdio_vsprintf + 696
        0x0001b4d2:    202d        -       MOVS     r0,#0x2d
        0x0001b4d4:    f8040b01    ....    STRB     r0,[r4],#1
        0x0001b4d8:    f1090901    ....    ADD      r9,r9,#1
        0x0001b4dc:    4632        2F      MOV      r2,r6
        0x0001b4de:    4620         F      MOV      r0,r4
        0x0001b4e0:    9904        ..      LDR      r1,[sp,#0x10]
        0x0001b4e2:    f001f9f3    ....    BL       padbuffer ; 0x1c8cc
        0x0001b4e6:    4606        .F      MOV      r6,r0
        0x0001b4e8:    b10c        ..      CBZ      r4,0x1b4ee ; am_util_stdio_vsprintf + 718
        0x0001b4ea:    4630        0F      MOV      r0,r6
        0x0001b4ec:    e000        ..      B        0x1b4f0 ; am_util_stdio_vsprintf + 720
        0x0001b4ee:    2000        .       MOVS     r0,#0
        0x0001b4f0:    4404        .D      ADD      r4,r4,r0
        0x0001b4f2:    44b1        .D      ADD      r9,r9,r6
        0x0001b4f4:    2600        .&      MOVS     r6,#0
        0x0001b4f6:    9801        ..      LDR      r0,[sp,#4]
        0x0001b4f8:    b188        ..      CBZ      r0,0x1b51e ; am_util_stdio_vsprintf + 766
        0x0001b4fa:    9804        ..      LDR      r0,[sp,#0x10]
        0x0001b4fc:    2820         (      CMP      r0,#0x20
        0x0001b4fe:    d10e        ..      BNE      0x1b51e ; am_util_stdio_vsprintf + 766
        0x0001b500:    b114        ..      CBZ      r4,0x1b508 ; am_util_stdio_vsprintf + 744
        0x0001b502:    202d        -       MOVS     r0,#0x2d
        0x0001b504:    f8040b01    ....    STRB     r0,[r4],#1
        0x0001b508:    f1090901    ....    ADD      r9,r9,#1
        0x0001b50c:    e007        ..      B        0x1b51e ; am_util_stdio_vsprintf + 766
        0x0001b50e:    9801        ..      LDR      r0,[sp,#4]
        0x0001b510:    b128        (.      CBZ      r0,0x1b51e ; am_util_stdio_vsprintf + 766
        0x0001b512:    b114        ..      CBZ      r4,0x1b51a ; am_util_stdio_vsprintf + 762
        0x0001b514:    202d        -       MOVS     r0,#0x2d
        0x0001b516:    f8040b01    ....    STRB     r0,[r4],#1
        0x0001b51a:    f1090901    ....    ADD      r9,r9,#1
        0x0001b51e:    4622        "F      MOV      r2,r4
        0x0001b520:    4638        8F      MOV      r0,r7
        0x0001b522:    4641        AF      MOV      r1,r8
        0x0001b524:    f002fb99    ....    BL       uint64_to_str ; 0x1dc5a
        0x0001b528:    4682        .F      MOV      r10,r0
        0x0001b52a:    b104        ..      CBZ      r4,0x1b52e ; am_util_stdio_vsprintf + 782
        0x0001b52c:    4454        TD      ADD      r4,r4,r10
        0x0001b52e:    44d1        .D      ADD      r9,r9,r10
        0x0001b530:    e039        9.      B        0x1b5a6 ; am_util_stdio_vsprintf + 902
        0x0001b532:    bf00        ..      NOP      
        0x0001b534:    b37c        |.      CBZ      r4,0x1b596 ; am_util_stdio_vsprintf + 886
        0x0001b536:    980e        ..      LDR      r0,[sp,#0x38]
        0x0001b538:    1dc0        ..      ADDS     r0,r0,#7
        0x0001b53a:    f0200007     ...    BIC      r0,r0,#7
        0x0001b53e:    900e        ..      STR      r0,[sp,#0x38]
        0x0001b540:    ecb01b02    ....    VLDM     r0!,{d1}
        0x0001b544:    eeb00a41    ..A.    VMOV.F32 s0,s2
        0x0001b548:    eef00a61    ..a.    VMOV.F32 s1,s3
        0x0001b54c:    900e        ..      STR      r0,[sp,#0x38]
        0x0001b54e:    ec510b10    Q...    VMOV     r0,r1,d0
        0x0001b552:    f002fe81    ....    BL       __aeabi_d2f ; 0x1e258
        0x0001b556:    ee080a10    ....    VMOV     s16,r0
        0x0001b55a:    2014        .       MOVS     r0,#0x14
        0x0001b55c:    6020         `      STR      r0,[r4,#0]
        0x0001b55e:    4620         F      MOV      r0,r4
        0x0001b560:    eeb00a48    ..H.    VMOV.F32 s0,s16
        0x0001b564:    9906        ..      LDR      r1,[sp,#0x18]
        0x0001b566:    f000fc07    ....    BL       ftoa ; 0x1bd78
        0x0001b56a:    4682        .F      MOV      r10,r0
        0x0001b56c:    f1ba0f00    ....    CMP      r10,#0
        0x0001b570:    da0e        ..      BGE      0x1b590 ; am_util_stdio_vsprintf + 880
        0x0001b572:    f10a0101    ....    ADD      r1,r10,#1
        0x0001b576:    b909        ..      CBNZ     r1,0x1b57c ; am_util_stdio_vsprintf + 860
        0x0001b578:    4813        .H      LDR      r0,[pc,#76] ; [0x1b5c8] = 0x302e30
        0x0001b57a:    e005        ..      B        0x1b588 ; am_util_stdio_vsprintf + 872
        0x0001b57c:    f10a0102    ....    ADD      r1,r10,#2
        0x0001b580:    b909        ..      CBNZ     r1,0x1b586 ; am_util_stdio_vsprintf + 870
        0x0001b582:    4812        .H      LDR      r0,[pc,#72] ; [0x1b5cc] = 0x232e23
        0x0001b584:    e000        ..      B        0x1b588 ; am_util_stdio_vsprintf + 872
        0x0001b586:    4812        .H      LDR      r0,[pc,#72] ; [0x1b5d0] = 0x3f2e3f
        0x0001b588:    6020         `      STR      r0,[r4,#0]
        0x0001b58a:    f04f0a03    O...    MOV      r10,#3
        0x0001b58e:    bf00        ..      NOP      
        0x0001b590:    44d1        .D      ADD      r9,r9,r10
        0x0001b592:    4454        TD      ADD      r4,r4,r10
        0x0001b594:    bf00        ..      NOP      
        0x0001b596:    e006        ..      B        0x1b5a6 ; am_util_stdio_vsprintf + 902
        0x0001b598:    b114        ..      CBZ      r4,0x1b5a0 ; am_util_stdio_vsprintf + 896
        0x0001b59a:    7828        (x      LDRB     r0,[r5,#0]
        0x0001b59c:    f8040b01    ....    STRB     r0,[r4],#1
        0x0001b5a0:    f1090901    ....    ADD      r9,r9,#1
        0x0001b5a4:    bf00        ..      NOP      
        0x0001b5a6:    bf00        ..      NOP      
        0x0001b5a8:    1c6d        m.      ADDS     r5,r5,#1
        0x0001b5aa:    bf00        ..      NOP      
        0x0001b5ac:    7828        (x      LDRB     r0,[r5,#0]
        0x0001b5ae:    2800        .(      CMP      r0,#0
        0x0001b5b0:    f47fae42    ..B.    BNE      0x1b238 ; am_util_stdio_vsprintf + 24
        0x0001b5b4:    b104        ..      CBZ      r4,0x1b5b8 ; am_util_stdio_vsprintf + 920
        0x0001b5b6:    7020         p      STRB     r0,[r4,#0]
        0x0001b5b8:    4648        HF      MOV      r0,r9
        0x0001b5ba:    b00a        ..      ADD      sp,sp,#0x28
        0x0001b5bc:    ecbd8b02    ....    VPOP     {d8}
        0x0001b5c0:    e8bd8ffe    ....    POP      {r1-r11,pc}
    $d
        0x0001b5c4:    10000058    X...    DCD    268435544
        0x0001b5c8:    00302e30    0.0.    DCD    3157552
        0x0001b5cc:    00232e23    #.#.    DCD    2305571
        0x0001b5d0:    003f2e3f    ?.?.    DCD    4140607
    $t
    i.backward_pointer
    backward_pointer
        0x0001b5d4:    b510        ..      PUSH     {r4,lr}
        0x0001b5d6:    4603        .F      MOV      r3,r0
        0x0001b5d8:    1a88        ..      SUBS     r0,r1,r2
        0x0001b5da:    b280        ..      UXTH     r0,r0
        0x0001b5dc:    4288        .B      CMP      r0,r1
        0x0001b5de:    dc04        ..      BGT      0x1b5ea ; backward_pointer + 22
        0x0001b5e0:    1a88        ..      SUBS     r0,r1,r2
        0x0001b5e2:    b280        ..      UXTH     r0,r0
        0x0001b5e4:    899c        ..      LDRH     r4,[r3,#0xc]
        0x0001b5e6:    42a0        .B      CMP      r0,r4
        0x0001b5e8:    dd04        ..      BLE      0x1b5f4 ; backward_pointer + 32
        0x0001b5ea:    1a88        ..      SUBS     r0,r1,r2
        0x0001b5ec:    895c        \.      LDRH     r4,[r3,#0xa]
        0x0001b5ee:    1b00        ..      SUBS     r0,r0,r4
        0x0001b5f0:    b281        ..      UXTH     r1,r0
        0x0001b5f2:    e001        ..      B        0x1b5f8 ; backward_pointer + 36
        0x0001b5f4:    1a88        ..      SUBS     r0,r1,r2
        0x0001b5f6:    b281        ..      UXTH     r1,r0
        0x0001b5f8:    4608        .F      MOV      r0,r1
        0x0001b5fa:    bd10        ..      POP      {r4,pc}
    i.board_init
    board_init
        0x0001b5fc:    b500        ..      PUSH     {lr}
        0x0001b5fe:    b097        ..      SUB      sp,sp,#0x5c
        0x0001b600:    f7fcfe96    ....    BL       am_hal_interrupt_master_enable ; 0x18330
        0x0001b604:    480c        .H      LDR      r0,[pc,#48] ; [0x1b638] = 0x1e76c
        0x0001b606:    f7fdfa3b    ..;.    BL       am_hal_cachectrl_config ; 0x18a80
        0x0001b60a:    f7fdfa5d    ..].    BL       am_hal_cachectrl_enable ; 0x18ac8
        0x0001b60e:    f7fdf937    ..7.    BL       am_bsp_debug_printf_enable ; 0x18880
        0x0001b612:    f7fffdf5    ....    BL       am_util_stdio_terminal_clear ; 0x1b200
        0x0001b616:    a009        ..      ADR      r0,{pc}+0x26 ; 0x1b63c
        0x0001b618:    f7fffdce    ....    BL       am_util_stdio_printf ; 0x1b1b8
        0x0001b61c:    4668        hF      MOV      r0,sp
        0x0001b61e:    f7fffd67    ..g.    BL       am_util_id_device ; 0x1b0f0
        0x0001b622:    a00b        ..      ADR      r0,{pc}+0x2e ; 0x1b650
        0x0001b624:    9912        ..      LDR      r1,[sp,#0x48]
        0x0001b626:    f7fffdc7    ....    BL       am_util_stdio_printf ; 0x1b1b8
        0x0001b62a:    a00e        ..      ADR      r0,{pc}+0x3a ; 0x1b664
        0x0001b62c:    9913        ..      LDR      r1,[sp,#0x4c]
        0x0001b62e:    f7fffdc3    ....    BL       am_util_stdio_printf ; 0x1b1b8
        0x0001b632:    b017        ..      ADD      sp,sp,#0x5c
        0x0001b634:    bd00        ..      POP      {pc}
    $d
        0x0001b636:    0000        ..      DCW    0
        0x0001b638:    0001e76c    l...    DCD    124780
        0x0001b63c:    20425355    USB     DCD    541217621
        0x0001b640:    20434443    CDC     DCD    541279299
        0x0001b644:    6d617845    Exam    DCD    1835104325
        0x0001b648:    0a656c70    ple.    DCD    174419056
        0x0001b64c:    0000000a    ....    DCD    10
        0x0001b650:    646e6556    Vend    DCD    1684956502
        0x0001b654:    4e20726f    or N    DCD    1310749295
        0x0001b658:    3a656d61    ame:    DCD    979725665
        0x0001b65c:    0a732520     %s.    DCD    175318304
        0x0001b660:    00000000    ....    DCD    0
        0x0001b664:    69766544    Devi    DCD    1769366852
        0x0001b668:    74206563    ce t    DCD    1948280163
        0x0001b66c:    3a657079    ype:    DCD    979726457
        0x0001b670:    0a732520     %s.    DCD    175318304
        0x0001b674:    0000000a    ....    DCD    10
    $t
    i.board_led_write
    board_led_write
        0x0001b678:    4770        pG      BX       lr
    i.board_millis
    board_millis
        0x0001b67a:    2000        .       MOVS     r0,#0
        0x0001b67c:    4770        pG      BX       lr
    i.chiprev_set
    chiprev_set
        0x0001b67e:    b510        ..      PUSH     {r4,lr}
        0x0001b680:    7b04        .{      LDRB     r4,[r0,#0xc]
        0x0001b682:    f3c41203    ....    UBFX     r2,r4,#4,#4
        0x0001b686:    f1020440    ..@.    ADD      r4,r2,#0x40
        0x0001b68a:    f8804050    ..P@    STRB     r4,[r0,#0x50]
        0x0001b68e:    7b04        .{      LDRB     r4,[r0,#0xc]
        0x0001b690:    f004030f    ....    AND      r3,r4,#0xf
        0x0001b694:    f1030430    ..0.    ADD      r4,r3,#0x30
        0x0001b698:    1a64        d.      SUBS     r4,r4,r1
        0x0001b69a:    f8804051    ..Q@    STRB     r4,[r0,#0x51]
        0x0001b69e:    bd10        ..      POP      {r4,pc}
    i.configuration_reset
    configuration_reset
        0x0001b6a0:    b570        p.      PUSH     {r4-r6,lr}
        0x0001b6a2:    4605        .F      MOV      r5,r0
        0x0001b6a4:    2400        .$      MOVS     r4,#0
        0x0001b6a6:    e007        ..      B        0x1b6b8 ; configuration_reset + 24
        0x0001b6a8:    4620         F      MOV      r0,r4
        0x0001b6aa:    f000fc21    ..!.    BL       get_driver ; 0x1bef0
        0x0001b6ae:    6886        .h      LDR      r6,[r0,#8]
        0x0001b6b0:    4628        (F      MOV      r0,r5
        0x0001b6b2:    47b0        .G      BLX      r6
        0x0001b6b4:    1c60        `.      ADDS     r0,r4,#1
        0x0001b6b6:    b2c4        ..      UXTB     r4,r0
        0x0001b6b8:    480a        .H      LDR      r0,[pc,#40] ; [0x1b6e4] = 0x10000034
        0x0001b6ba:    7800        .x      LDRB     r0,[r0,#0]
        0x0001b6bc:    1c40        @.      ADDS     r0,r0,#1
        0x0001b6be:    4284        .B      CMP      r4,r0
        0x0001b6c0:    dbf2        ..      BLT      0x1b6a8 ; configuration_reset + 8
        0x0001b6c2:    2133        3!      MOVS     r1,#0x33
        0x0001b6c4:    4808        .H      LDR      r0,[pc,#32] ; [0x1b6e8] = 0x10000160
        0x0001b6c6:    f7fcff54    ..T.    BL       __aeabi_memclr ; 0x18572
        0x0001b6ca:    22ff        ."      MOVS     r2,#0xff
        0x0001b6cc:    2110        .!      MOVS     r1,#0x10
        0x0001b6ce:    4806        .H      LDR      r0,[pc,#24] ; [0x1b6e8] = 0x10000160
        0x0001b6d0:    1cc0        ..      ADDS     r0,r0,#3
        0x0001b6d2:    f7fcff46    ..F.    BL       __aeabi_memset ; 0x18562
        0x0001b6d6:    22ff        ."      MOVS     r2,#0xff
        0x0001b6d8:    2110        .!      MOVS     r1,#0x10
        0x0001b6da:    4803        .H      LDR      r0,[pc,#12] ; [0x1b6e8] = 0x10000160
        0x0001b6dc:    3013        .0      ADDS     r0,r0,#0x13
        0x0001b6de:    f7fcff40    ..@.    BL       __aeabi_memset ; 0x18562
        0x0001b6e2:    bd70        p.      POP      {r4-r6,pc}
    $d
        0x0001b6e4:    10000034    4...    DCD    268435508
        0x0001b6e8:    10000160    `...    DCD    268435808
    $t
    i.copy_words
    copy_words
        0x0001b6ec:    b430        0.      PUSH     {r4,r5}
        0x0001b6ee:    2301        .#      MOVS     r3,#1
        0x0001b6f0:    f05f0403    _...    MOVS.W   r4,#3
        0x0001b6f4:    f1a20c01    ....    SUB      r12,r2,#1
        0x0001b6f8:    f851502c    Q.,P    LDR      r5,[r1,r12,LSL #2]
        0x0001b6fc:    f840502c    @.,P    STR      r5,[r0,r12,LSL #2]
        0x0001b700:    1e92        ..      SUBS     r2,r2,#2
        0x0001b702:    f851c022    Q.".    LDR      r12,[r1,r2,LSL #2]
        0x0001b706:    f840c022    @.".    STR      r12,[r0,r2,LSL #2]
        0x0001b70a:    1c9b        ..      ADDS     r3,r3,#2
        0x0001b70c:    42a3        .B      CMP      r3,r4
        0x0001b70e:    dbf1        ..      BLT      0x1b6f4 ; copy_words + 8
        0x0001b710:    bc30        0.      POP      {r4,r5}
        0x0001b712:    4770        pG      BX       lr
    i.crypto_boost_trims
    crypto_boost_trims
        0x0001b714:    b5f8        ..      PUSH     {r3-r7,lr}
        0x0001b716:    4f29        )O      LDR      r7,[pc,#164] ; [0x1b7bc] = 0x100000e0
        0x0001b718:    4606        .F      MOV      r6,r0
        0x0001b71a:    460c        .F      MOV      r4,r1
        0x0001b71c:    78b8        .x      LDRB     r0,[r7,#2]
        0x0001b71e:    ea460100    F...    ORR      r1,r6,r0
        0x0001b722:    4030        0@      ANDS     r0,r0,r6
        0x0001b724:    ea310000    1...    BICS     r0,r1,r0
        0x0001b728:    bf08        ..      IT       EQ
        0x0001b72a:    bdf8        ..      POPEQ    {r3-r7,pc}
        0x0001b72c:    f7fcfe04    ....    BL       am_hal_interrupt_master_disable ; 0x18338
        0x0001b730:    9000        ..      STR      r0,[sp,#0]
        0x0001b732:    70be        .p      STRB     r6,[r7,#2]
        0x0001b734:    6af8        .j      LDR      r0,[r7,#0x2c]
        0x0001b736:    2e00        ..      CMP      r6,#0
        0x0001b738:    bf0c        ..      ITE      EQ
        0x0001b73a:    1b05        ..      SUBEQ    r5,r0,r4
        0x0001b73c:    1905        ..      ADDNE    r5,r0,r4
        0x0001b73e:    62fd        .b      STR      r5,[r7,#0x2c]
        0x0001b740:    2d00        .-      CMP      r5,#0
        0x0001b742:    bfb8        ..      IT       LT
        0x0001b744:    2500        .%      MOVLT    r5,#0
        0x0001b746:    db02        ..      BLT      0x1b74e ; crypto_boost_trims + 58
        0x0001b748:    2d3f        ?-      CMP      r5,#0x3f
        0x0001b74a:    bf88        ..      IT       HI
        0x0001b74c:    253f        ?%      MOVHI    r5,#0x3f
        0x0001b74e:    2e00        ..      CMP      r6,#0
        0x0001b750:    6b38        8k      LDR      r0,[r7,#0x30]
        0x0001b752:    bf14        ..      ITE      NE
        0x0001b754:    4404        .D      ADDNE    r4,r0
        0x0001b756:    1b04        ..      SUBEQ    r4,r0,r4
        0x0001b758:    633c        <c      STR      r4,[r7,#0x30]
        0x0001b75a:    2c00        .,      CMP      r4,#0
        0x0001b75c:    bfb8        ..      IT       LT
        0x0001b75e:    2400        .$      MOVLT    r4,#0
        0x0001b760:    db02        ..      BLT      0x1b768 ; crypto_boost_trims + 84
        0x0001b762:    2c3f        ?,      CMP      r4,#0x3f
        0x0001b764:    bf88        ..      IT       HI
        0x0001b766:    243f        ?$      MOVHI    r4,#0x3f
        0x0001b768:    4f15        .O      LDR      r7,[pc,#84] ; [0x1b7c0] = 0x40020000
        0x0001b76a:    b17e        ~.      CBZ      r6,0x1b78c ; crypto_boost_trims + 120
        0x0001b76c:    f8d7036c    ..l.    LDR      r0,[r7,#0x36c]
        0x0001b770:    f3655019    e..P    BFI      r0,r5,#20,#6
        0x0001b774:    f8c7036c    ..l.    STR      r0,[r7,#0x36c]
        0x0001b778:    2014        .       MOVS     r0,#0x14
        0x0001b77a:    f7fdfb99    ....    BL       am_hal_delay_us ; 0x18eb0
        0x0001b77e:    f8d70088    ....    LDR      r0,[r7,#0x88]
        0x0001b782:    f3640005    d...    BFI      r0,r4,#0,#6
        0x0001b786:    f8c70088    ....    STR      r0,[r7,#0x88]
        0x0001b78a:    e00e        ..      B        0x1b7aa ; crypto_boost_trims + 150
        0x0001b78c:    f8d70088    ....    LDR      r0,[r7,#0x88]
        0x0001b790:    f3640005    d...    BFI      r0,r4,#0,#6
        0x0001b794:    f8c70088    ....    STR      r0,[r7,#0x88]
        0x0001b798:    2014        .       MOVS     r0,#0x14
        0x0001b79a:    f7fdfb89    ....    BL       am_hal_delay_us ; 0x18eb0
        0x0001b79e:    f8d7036c    ..l.    LDR      r0,[r7,#0x36c]
        0x0001b7a2:    f3655019    e..P    BFI      r0,r5,#20,#6
        0x0001b7a6:    f8c7036c    ..l.    STR      r0,[r7,#0x36c]
        0x0001b7aa:    9800        ..      LDR      r0,[sp,#0]
        0x0001b7ac:    f7fcfdc8    ....    BL       am_hal_interrupt_master_set ; 0x18340
        0x0001b7b0:    e8bd40f8    ...@    POP      {r3-r7,lr}
        0x0001b7b4:    2014        .       MOVS     r0,#0x14
        0x0001b7b6:    f7fdbb7b    ..{.    B        am_hal_delay_us ; 0x18eb0
    $d
        0x0001b7ba:    0000        ..      DCW    0
        0x0001b7bc:    100000e0    ....    DCD    268435680
        0x0001b7c0:    40020000    ...@    DCD    1073872896
    $t
    i.dcd_edpt_clear_stall
    dcd_edpt_clear_stall
        0x0001b7c4:    b570        p.      PUSH     {r4-r6,lr}
        0x0001b7c6:    4605        .F      MOV      r5,r0
        0x0001b7c8:    460c        .F      MOV      r4,r1
        0x0001b7ca:    4621        !F      MOV      r1,r4
        0x0001b7cc:    4802        .H      LDR      r0,[pc,#8] ; [0x1b7d8] = 0x1000002c
        0x0001b7ce:    6800        .h      LDR      r0,[r0,#0]
        0x0001b7d0:    f7fefbcc    ....    BL       am_hal_usb_ep_clear_stall ; 0x19f6c
        0x0001b7d4:    bd70        p.      POP      {r4-r6,pc}
    $d
        0x0001b7d6:    0000        ..      DCW    0
        0x0001b7d8:    1000002c    ,...    DCD    268435500
    $t
    i.dcd_edpt_close_all
    dcd_edpt_close_all
        0x0001b7dc:    4770        pG      BX       lr
        0x0001b7de:    0000        ..      MOVS     r0,r0
    i.dcd_edpt_open
    dcd_edpt_open
        0x0001b7e0:    b570        p.      PUSH     {r4-r6,lr}
        0x0001b7e2:    4605        .F      MOV      r5,r0
        0x0001b7e4:    460c        .F      MOV      r4,r1
        0x0001b7e6:    88a3        ..      LDRH     r3,[r4,#4]
        0x0001b7e8:    78e0        .x      LDRB     r0,[r4,#3]
        0x0001b7ea:    f0000203    ....    AND      r2,r0,#3
        0x0001b7ee:    78a1        .x      LDRB     r1,[r4,#2]
        0x0001b7f0:    4804        .H      LDR      r0,[pc,#16] ; [0x1b804] = 0x1000002c
        0x0001b7f2:    6800        .h      LDR      r0,[r0,#0]
        0x0001b7f4:    f7fefc06    ....    BL       am_hal_usb_ep_init ; 0x1a004
        0x0001b7f8:    b908        ..      CBNZ     r0,0x1b7fe ; dcd_edpt_open + 30
        0x0001b7fa:    2001        .       MOVS     r0,#1
        0x0001b7fc:    bd70        p.      POP      {r4-r6,pc}
        0x0001b7fe:    2000        .       MOVS     r0,#0
        0x0001b800:    e7fc        ..      B        0x1b7fc ; dcd_edpt_open + 28
    $d
        0x0001b802:    0000        ..      DCW    0
        0x0001b804:    1000002c    ,...    DCD    268435500
    $t
    i.dcd_edpt_stall
    dcd_edpt_stall
        0x0001b808:    b570        p.      PUSH     {r4-r6,lr}
        0x0001b80a:    4605        .F      MOV      r5,r0
        0x0001b80c:    460c        .F      MOV      r4,r1
        0x0001b80e:    4621        !F      MOV      r1,r4
        0x0001b810:    4802        .H      LDR      r0,[pc,#8] ; [0x1b81c] = 0x1000002c
        0x0001b812:    6800        .h      LDR      r0,[r0,#0]
        0x0001b814:    f7fefcdc    ....    BL       am_hal_usb_ep_stall ; 0x1a1d0
        0x0001b818:    bd70        p.      POP      {r4-r6,pc}
    $d
        0x0001b81a:    0000        ..      DCW    0
        0x0001b81c:    1000002c    ,...    DCD    268435500
    $t
    i.dcd_edpt_xfer
    dcd_edpt_xfer
        0x0001b820:    e92d41f0    -..A    PUSH     {r4-r8,lr}
        0x0001b824:    4607        .F      MOV      r7,r0
        0x0001b826:    460c        .F      MOV      r4,r1
        0x0001b828:    4615        .F      MOV      r5,r2
        0x0001b82a:    461e        .F      MOV      r6,r3
        0x0001b82c:    4633        3F      MOV      r3,r6
        0x0001b82e:    462a        *F      MOV      r2,r5
        0x0001b830:    4621        !F      MOV      r1,r4
        0x0001b832:    4805        .H      LDR      r0,[pc,#20] ; [0x1b848] = 0x1000002c
        0x0001b834:    6800        .h      LDR      r0,[r0,#0]
        0x0001b836:    f7fefd13    ....    BL       am_hal_usb_ep_xfer ; 0x1a260
        0x0001b83a:    b910        ..      CBNZ     r0,0x1b842 ; dcd_edpt_xfer + 34
        0x0001b83c:    2001        .       MOVS     r0,#1
        0x0001b83e:    e8bd81f0    ....    POP      {r4-r8,pc}
        0x0001b842:    2000        .       MOVS     r0,#0
        0x0001b844:    e7fb        ..      B        0x1b83e ; dcd_edpt_xfer + 30
    $d
        0x0001b846:    0000        ..      DCW    0
        0x0001b848:    1000002c    ,...    DCD    268435500
    $t
    i.dcd_event_bus_reset
    dcd_event_bus_reset
        0x0001b84c:    b5fe        ..      PUSH     {r1-r7,lr}
        0x0001b84e:    4606        .F      MOV      r6,r0
        0x0001b850:    460c        .F      MOV      r4,r1
        0x0001b852:    4615        .F      MOV      r5,r2
        0x0001b854:    4a06        .J      LDR      r2,[pc,#24] ; [0x1b870] = 0x1e588
        0x0001b856:    ca07        ..      LDM      r2,{r0-r2}
        0x0001b858:    e88d0007    ....    STM      sp,{r0-r2}
        0x0001b85c:    f88d6000    ...`    STRB     r6,[sp,#0]
        0x0001b860:    f88d4004    ...@    STRB     r4,[sp,#4]
        0x0001b864:    4629        )F      MOV      r1,r5
        0x0001b866:    4668        hF      MOV      r0,sp
        0x0001b868:    f000f816    ....    BL       dcd_event_handler ; 0x1b898
        0x0001b86c:    bdfe        ..      POP      {r1-r7,pc}
    $d
        0x0001b86e:    0000        ..      DCW    0
        0x0001b870:    0001e588    ....    DCD    124296
    $t
    i.dcd_event_bus_signal
    dcd_event_bus_signal
        0x0001b874:    b5fe        ..      PUSH     {r1-r7,lr}
        0x0001b876:    4606        .F      MOV      r6,r0
        0x0001b878:    460c        .F      MOV      r4,r1
        0x0001b87a:    4615        .F      MOV      r5,r2
        0x0001b87c:    2000        .       MOVS     r0,#0
        0x0001b87e:    9000        ..      STR      r0,[sp,#0]
        0x0001b880:    9001        ..      STR      r0,[sp,#4]
        0x0001b882:    9002        ..      STR      r0,[sp,#8]
        0x0001b884:    f88d6000    ...`    STRB     r6,[sp,#0]
        0x0001b888:    f88d4001    ...@    STRB     r4,[sp,#1]
        0x0001b88c:    4629        )F      MOV      r1,r5
        0x0001b88e:    4668        hF      MOV      r0,sp
        0x0001b890:    f000f802    ....    BL       dcd_event_handler ; 0x1b898
        0x0001b894:    bdfe        ..      POP      {r1-r7,pc}
        0x0001b896:    0000        ..      MOVS     r0,r0
    i.dcd_event_handler
    dcd_event_handler
        0x0001b898:    b53e        >.      PUSH     {r1-r5,lr}
        0x0001b89a:    4604        .F      MOV      r4,r0
        0x0001b89c:    460d        .F      MOV      r5,r1
        0x0001b89e:    7860        `x      LDRB     r0,[r4,#1]
        0x0001b8a0:    2802        .(      CMP      r0,#2
        0x0001b8a2:    d006        ..      BEQ      0x1b8b2 ; dcd_event_handler + 26
        0x0001b8a4:    2803        .(      CMP      r0,#3
        0x0001b8a6:    d042        B.      BEQ      0x1b92e ; dcd_event_handler + 150
        0x0001b8a8:    2804        .(      CMP      r0,#4
        0x0001b8aa:    d01b        ..      BEQ      0x1b8e4 ; dcd_event_handler + 76
        0x0001b8ac:    2805        .(      CMP      r0,#5
        0x0001b8ae:    d158        X.      BNE      0x1b962 ; dcd_event_handler + 202
        0x0001b8b0:    e02b        +.      B        0x1b90a ; dcd_event_handler + 114
        0x0001b8b2:    4830        0H      LDR      r0,[pc,#192] ; [0x1b974] = 0x10000160
        0x0001b8b4:    7800        .x      LDRB     r0,[r0,#0]
        0x0001b8b6:    f0200001     ...    BIC      r0,r0,#1
        0x0001b8ba:    492e        .I      LDR      r1,[pc,#184] ; [0x1b974] = 0x10000160
        0x0001b8bc:    7008        .p      STRB     r0,[r1,#0]
        0x0001b8be:    4608        .F      MOV      r0,r1
        0x0001b8c0:    7800        .x      LDRB     r0,[r0,#0]
        0x0001b8c2:    f0200002     ...    BIC      r0,r0,#2
        0x0001b8c6:    7008        .p      STRB     r0,[r1,#0]
        0x0001b8c8:    2000        .       MOVS     r0,#0
        0x0001b8ca:    7048        Hp      STRB     r0,[r1,#1]
        0x0001b8cc:    4608        .F      MOV      r0,r1
        0x0001b8ce:    7800        .x      LDRB     r0,[r0,#0]
        0x0001b8d0:    f0200004     ...    BIC      r0,r0,#4
        0x0001b8d4:    7008        .p      STRB     r0,[r1,#0]
        0x0001b8d6:    462a        *F      MOV      r2,r5
        0x0001b8d8:    4621        !F      MOV      r1,r4
        0x0001b8da:    4827        'H      LDR      r0,[pc,#156] ; [0x1b978] = 0x10000050
        0x0001b8dc:    6800        .h      LDR      r0,[r0,#0]
        0x0001b8de:    f000ffbd    ....    BL       osal_queue_send ; 0x1c85c
        0x0001b8e2:    e045        E.      B        0x1b970 ; dcd_event_handler + 216
        0x0001b8e4:    4823        #H      LDR      r0,[pc,#140] ; [0x1b974] = 0x10000160
        0x0001b8e6:    7800        .x      LDRB     r0,[r0,#0]
        0x0001b8e8:    f0000001    ....    AND      r0,r0,#1
        0x0001b8ec:    b160        `.      CBZ      r0,0x1b908 ; dcd_event_handler + 112
        0x0001b8ee:    4821        !H      LDR      r0,[pc,#132] ; [0x1b974] = 0x10000160
        0x0001b8f0:    7800        .x      LDRB     r0,[r0,#0]
        0x0001b8f2:    f0200004     ...    BIC      r0,r0,#4
        0x0001b8f6:    1d00        ..      ADDS     r0,r0,#4
        0x0001b8f8:    491e        .I      LDR      r1,[pc,#120] ; [0x1b974] = 0x10000160
        0x0001b8fa:    7008        .p      STRB     r0,[r1,#0]
        0x0001b8fc:    462a        *F      MOV      r2,r5
        0x0001b8fe:    4621        !F      MOV      r1,r4
        0x0001b900:    481d        .H      LDR      r0,[pc,#116] ; [0x1b978] = 0x10000050
        0x0001b902:    6800        .h      LDR      r0,[r0,#0]
        0x0001b904:    f000ffaa    ....    BL       osal_queue_send ; 0x1c85c
        0x0001b908:    e032        2.      B        0x1b970 ; dcd_event_handler + 216
        0x0001b90a:    481a        .H      LDR      r0,[pc,#104] ; [0x1b974] = 0x10000160
        0x0001b90c:    7800        .x      LDRB     r0,[r0,#0]
        0x0001b90e:    f0000001    ....    AND      r0,r0,#1
        0x0001b912:    b158        X.      CBZ      r0,0x1b92c ; dcd_event_handler + 148
        0x0001b914:    4817        .H      LDR      r0,[pc,#92] ; [0x1b974] = 0x10000160
        0x0001b916:    7800        .x      LDRB     r0,[r0,#0]
        0x0001b918:    f0200004     ...    BIC      r0,r0,#4
        0x0001b91c:    4915        .I      LDR      r1,[pc,#84] ; [0x1b974] = 0x10000160
        0x0001b91e:    7008        .p      STRB     r0,[r1,#0]
        0x0001b920:    462a        *F      MOV      r2,r5
        0x0001b922:    4621        !F      MOV      r1,r4
        0x0001b924:    4814        .H      LDR      r0,[pc,#80] ; [0x1b978] = 0x10000050
        0x0001b926:    6800        .h      LDR      r0,[r0,#0]
        0x0001b928:    f000ff98    ....    BL       osal_queue_send ; 0x1c85c
        0x0001b92c:    e020         .      B        0x1b970 ; dcd_event_handler + 216
        0x0001b92e:    4811        .H      LDR      r0,[pc,#68] ; [0x1b974] = 0x10000160
        0x0001b930:    7800        .x      LDRB     r0,[r0,#0]
        0x0001b932:    f3c00080    ....    UBFX     r0,r0,#2,#1
        0x0001b936:    b198        ..      CBZ      r0,0x1b960 ; dcd_event_handler + 200
        0x0001b938:    480e        .H      LDR      r0,[pc,#56] ; [0x1b974] = 0x10000160
        0x0001b93a:    7800        .x      LDRB     r0,[r0,#0]
        0x0001b93c:    f0200004     ...    BIC      r0,r0,#4
        0x0001b940:    490c        .I      LDR      r1,[pc,#48] ; [0x1b974] = 0x10000160
        0x0001b942:    7008        .p      STRB     r0,[r1,#0]
        0x0001b944:    4a0d        .J      LDR      r2,[pc,#52] ; [0x1b97c] = 0x1e57c
        0x0001b946:    ca07        ..      LDM      r2,{r0-r2}
        0x0001b948:    e88d0007    ....    STM      sp,{r0-r2}
        0x0001b94c:    7820         x      LDRB     r0,[r4,#0]
        0x0001b94e:    f88d0000    ....    STRB     r0,[sp,#0]
        0x0001b952:    462a        *F      MOV      r2,r5
        0x0001b954:    4669        iF      MOV      r1,sp
        0x0001b956:    4808        .H      LDR      r0,[pc,#32] ; [0x1b978] = 0x10000050
        0x0001b958:    6800        .h      LDR      r0,[r0,#0]
        0x0001b95a:    f000ff7f    ....    BL       osal_queue_send ; 0x1c85c
        0x0001b95e:    bf00        ..      NOP      
        0x0001b960:    e006        ..      B        0x1b970 ; dcd_event_handler + 216
        0x0001b962:    462a        *F      MOV      r2,r5
        0x0001b964:    4621        !F      MOV      r1,r4
        0x0001b966:    4804        .H      LDR      r0,[pc,#16] ; [0x1b978] = 0x10000050
        0x0001b968:    6800        .h      LDR      r0,[r0,#0]
        0x0001b96a:    f000ff77    ..w.    BL       osal_queue_send ; 0x1c85c
        0x0001b96e:    bf00        ..      NOP      
        0x0001b970:    bf00        ..      NOP      
        0x0001b972:    bd3e        >.      POP      {r1-r5,pc}
    $d
        0x0001b974:    10000160    `...    DCD    268435808
        0x0001b978:    10000050    P...    DCD    268435536
        0x0001b97c:    0001e57c    |...    DCD    124284
    $t
    i.dcd_event_setup_received
    dcd_event_setup_received
        0x0001b980:    b5fe        ..      PUSH     {r1-r7,lr}
        0x0001b982:    4606        .F      MOV      r6,r0
        0x0001b984:    460c        .F      MOV      r4,r1
        0x0001b986:    4615        .F      MOV      r5,r2
        0x0001b988:    4a07        .J      LDR      r2,[pc,#28] ; [0x1b9a8] = 0x1e594
        0x0001b98a:    ca07        ..      LDM      r2,{r0-r2}
        0x0001b98c:    e88d0007    ....    STM      sp,{r0-r2}
        0x0001b990:    f88d6000    ...`    STRB     r6,[sp,#0]
        0x0001b994:    6820         h      LDR      r0,[r4,#0]
        0x0001b996:    9001        ..      STR      r0,[sp,#4]
        0x0001b998:    6860        `h      LDR      r0,[r4,#4]
        0x0001b99a:    9002        ..      STR      r0,[sp,#8]
        0x0001b99c:    4629        )F      MOV      r1,r5
        0x0001b99e:    4668        hF      MOV      r0,sp
        0x0001b9a0:    f7ffff7a    ..z.    BL       dcd_event_handler ; 0x1b898
        0x0001b9a4:    bdfe        ..      POP      {r1-r7,pc}
    $d
        0x0001b9a6:    0000        ..      DCW    0
        0x0001b9a8:    0001e594    ....    DCD    124308
    $t
    i.dcd_event_xfer_complete
    dcd_event_xfer_complete
        0x0001b9ac:    e92d43fe    -..C    PUSH     {r1-r9,lr}
        0x0001b9b0:    4604        .F      MOV      r4,r0
        0x0001b9b2:    460d        .F      MOV      r5,r1
        0x0001b9b4:    4616        .F      MOV      r6,r2
        0x0001b9b6:    461f        .F      MOV      r7,r3
        0x0001b9b8:    f8dd8028    ..(.    LDR      r8,[sp,#0x28]
        0x0001b9bc:    4a08        .J      LDR      r2,[pc,#32] ; [0x1b9e0] = 0x1e5a0
        0x0001b9be:    ca07        ..      LDM      r2,{r0-r2}
        0x0001b9c0:    e88d0007    ....    STM      sp,{r0-r2}
        0x0001b9c4:    f88d4000    ...@    STRB     r4,[sp,#0]
        0x0001b9c8:    f88d5004    ...P    STRB     r5,[sp,#4]
        0x0001b9cc:    9602        ..      STR      r6,[sp,#8]
        0x0001b9ce:    f88d7005    ...p    STRB     r7,[sp,#5]
        0x0001b9d2:    4641        AF      MOV      r1,r8
        0x0001b9d4:    4668        hF      MOV      r0,sp
        0x0001b9d6:    f7ffff5f    .._.    BL       dcd_event_handler ; 0x1b898
        0x0001b9da:    e8bd83fe    ....    POP      {r1-r9,pc}
    $d
        0x0001b9de:    0000        ..      DCW    0
        0x0001b9e0:    0001e5a0    ....    DCD    124320
    $t
    i.dcd_init
    dcd_init
        0x0001b9e4:    e92d41f0    -..A    PUSH     {r4-r8,lr}
        0x0001b9e8:    4607        .F      MOV      r7,r0
        0x0001b9ea:    4928        (I      LDR      r1,[pc,#160] ; [0x1ba8c] = 0x1000002c
        0x0001b9ec:    2000        .       MOVS     r0,#0
        0x0001b9ee:    f7fefd67    ..g.    BL       am_hal_usb_initialize ; 0x1a4c0
        0x0001b9f2:    4606        .F      MOV      r6,r0
        0x0001b9f4:    b10e        ..      CBZ      r6,0x1b9fa ; dcd_init + 22
        0x0001b9f6:    e8bd81f0    ....    POP      {r4-r8,pc}
        0x0001b9fa:    4925        %I      LDR      r1,[pc,#148] ; [0x1ba90] = 0x1bb61
        0x0001b9fc:    4823        #H      LDR      r0,[pc,#140] ; [0x1ba8c] = 0x1000002c
        0x0001b9fe:    6800        .h      LDR      r0,[r0,#0]
        0x0001ba00:    f7fffaa4    ....    BL       am_hal_usb_register_dev_evt_callback ; 0x1af4c
        0x0001ba04:    4923        #I      LDR      r1,[pc,#140] ; [0x1ba94] = 0x1bbe9
        0x0001ba06:    4821        !H      LDR      r0,[pc,#132] ; [0x1ba8c] = 0x1000002c
        0x0001ba08:    6800        .h      LDR      r0,[r0,#0]
        0x0001ba0a:    f7fffab5    ....    BL       am_hal_usb_register_ep0_setup_received_callback ; 0x1af78
        0x0001ba0e:    4922        "I      LDR      r1,[pc,#136] ; [0x1ba98] = 0x1bbf9
        0x0001ba10:    481e        .H      LDR      r0,[pc,#120] ; [0x1ba8c] = 0x1000002c
        0x0001ba12:    6800        .h      LDR      r0,[r0,#0]
        0x0001ba14:    f7fffac6    ....    BL       am_hal_usb_register_ep_xfer_complete_callback ; 0x1afa4
        0x0001ba18:    2200        ."      MOVS     r2,#0
        0x0001ba1a:    4611        .F      MOV      r1,r2
        0x0001ba1c:    481b        .H      LDR      r0,[pc,#108] ; [0x1ba8c] = 0x1000002c
        0x0001ba1e:    6800        .h      LDR      r0,[r0,#0]
        0x0001ba20:    f7fff964    ..d.    BL       am_hal_usb_power_control ; 0x1acec
        0x0001ba24:    bf00        ..      NOP      
        0x0001ba26:    481d        .H      LDR      r0,[pc,#116] ; [0x1ba9c] = 0x40020418
        0x0001ba28:    6800        .h      LDR      r0,[r0,#0]
        0x0001ba2a:    f0200003     ...    BIC      r0,r0,#3
        0x0001ba2e:    491b        .I      LDR      r1,[pc,#108] ; [0x1ba9c] = 0x40020418
        0x0001ba30:    6008        .`      STR      r0,[r1,#0]
        0x0001ba32:    bf00        ..      NOP      
        0x0001ba34:    2001        .       MOVS     r0,#1
        0x0001ba36:    f7fcffed    ....    BL       am_bsp_external_vddusb33_switch ; 0x18a14
        0x0001ba3a:    2001        .       MOVS     r0,#1
        0x0001ba3c:    f7fcffda    ....    BL       am_bsp_external_vddusb0p9_switch ; 0x189f4
        0x0001ba40:    2032        2       MOVS     r0,#0x32
        0x0001ba42:    f7fffb4b    ..K.    BL       am_util_delay_ms ; 0x1b0dc
        0x0001ba46:    bf00        ..      NOP      
        0x0001ba48:    f04f4000    O..@    MOV      r0,#0x80000000
        0x0001ba4c:    4914        .I      LDR      r1,[pc,#80] ; [0x1baa0] = 0x400b2000
        0x0001ba4e:    6248        Hb      STR      r0,[r1,#0x24]
        0x0001ba50:    bf00        ..      NOP      
        0x0001ba52:    f000f901    ....    BL       dcd_usb_setHFCR2 ; 0x1bc58
        0x0001ba56:    4604        .F      MOV      r4,r0
        0x0001ba58:    bf00        ..      NOP      
        0x0001ba5a:    4810        .H      LDR      r0,[pc,#64] ; [0x1ba9c] = 0x40020418
        0x0001ba5c:    6800        .h      LDR      r0,[r0,#0]
        0x0001ba5e:    f0400003    @...    ORR      r0,r0,#3
        0x0001ba62:    490e        .I      LDR      r1,[pc,#56] ; [0x1ba9c] = 0x40020418
        0x0001ba64:    6008        .`      STR      r0,[r1,#0]
        0x0001ba66:    bf00        ..      NOP      
        0x0001ba68:    2501        .%      MOVS     r5,#1
        0x0001ba6a:    b924        $.      CBNZ     r4,0x1ba76 ; dcd_init + 146
        0x0001ba6c:    4629        )F      MOV      r1,r5
        0x0001ba6e:    4807        .H      LDR      r0,[pc,#28] ; [0x1ba8c] = 0x1000002c
        0x0001ba70:    6800        .h      LDR      r0,[r0,#0]
        0x0001ba72:    f7fffac9    ....    BL       am_hal_usb_set_dev_speed ; 0x1b008
        0x0001ba76:    2104        .!      MOVS     r1,#4
        0x0001ba78:    4804        .H      LDR      r0,[pc,#16] ; [0x1ba8c] = 0x1000002c
        0x0001ba7a:    6800        .h      LDR      r0,[r0,#0]
        0x0001ba7c:    f7fff918    ....    BL       am_hal_usb_intr_usb_enable ; 0x1acb0
        0x0001ba80:    4802        .H      LDR      r0,[pc,#8] ; [0x1ba8c] = 0x1000002c
        0x0001ba82:    6800        .h      LDR      r0,[r0,#0]
        0x0001ba84:    f7fef9ae    ....    BL       am_hal_usb_attach ; 0x19de4
        0x0001ba88:    bf00        ..      NOP      
        0x0001ba8a:    e7b4        ..      B        0x1b9f6 ; dcd_init + 18
    $d
        0x0001ba8c:    1000002c    ,...    DCD    268435500
        0x0001ba90:    0001bb61    a...    DCD    113505
        0x0001ba94:    0001bbe9    ....    DCD    113641
        0x0001ba98:    0001bbf9    ....    DCD    113657
        0x0001ba9c:    40020418    ...@    DCD    1073873944
        0x0001baa0:    400b2000    . .@    DCD    1074470912
    $t
    i.dcd_int_disable
    dcd_int_disable
        0x0001baa4:    b510        ..      PUSH     {r4,lr}
        0x0001baa6:    4601        .F      MOV      r1,r0
        0x0001baa8:    201b        .       MOVS     r0,#0x1b
        0x0001baaa:    2800        .(      CMP      r0,#0
        0x0001baac:    db0b        ..      BLT      0x1bac6 ; dcd_int_disable + 34
        0x0001baae:    f000031f    ....    AND      r3,r0,#0x1f
        0x0001bab2:    2201        ."      MOVS     r2,#1
        0x0001bab4:    409a        .@      LSLS     r2,r2,r3
        0x0001bab6:    4b05        .K      LDR      r3,[pc,#20] ; [0x1bacc] = 0xe000e180
        0x0001bab8:    0944        D.      LSRS     r4,r0,#5
        0x0001baba:    f8432024    C.$     STR      r2,[r3,r4,LSL #2]
        0x0001babe:    f3bf8f4f    ..O.    DSB      
        0x0001bac2:    f3bf8f6f    ..o.    ISB      
        0x0001bac6:    bf00        ..      NOP      
        0x0001bac8:    bd10        ..      POP      {r4,pc}
    $d
        0x0001baca:    0000        ..      DCW    0
        0x0001bacc:    e000e180    ....    DCD    3758154112
    $t
    i.dcd_int_enable
    dcd_int_enable
        0x0001bad0:    b530        0.      PUSH     {r4,r5,lr}
        0x0001bad2:    4602        .F      MOV      r2,r0
        0x0001bad4:    201b        .       MOVS     r0,#0x1b
        0x0001bad6:    2104        .!      MOVS     r1,#4
        0x0001bad8:    2800        .(      CMP      r0,#0
        0x0001bada:    db04        ..      BLT      0x1bae6 ; dcd_int_enable + 22
        0x0001badc:    074b        K.      LSLS     r3,r1,#29
        0x0001bade:    0e1c        ..      LSRS     r4,r3,#24
        0x0001bae0:    4b0e        .K      LDR      r3,[pc,#56] ; [0x1bb1c] = 0xe000e400
        0x0001bae2:    541c        .T      STRB     r4,[r3,r0]
        0x0001bae4:    e006        ..      B        0x1baf4 ; dcd_int_enable + 36
        0x0001bae6:    074b        K.      LSLS     r3,r1,#29
        0x0001bae8:    0e1d        ..      LSRS     r5,r3,#24
        0x0001baea:    4b0d        .K      LDR      r3,[pc,#52] ; [0x1bb20] = 0xe000ed18
        0x0001baec:    f000040f    ....    AND      r4,r0,#0xf
        0x0001baf0:    1f24        $.      SUBS     r4,r4,#4
        0x0001baf2:    551d        .U      STRB     r5,[r3,r4]
        0x0001baf4:    bf00        ..      NOP      
        0x0001baf6:    201b        .       MOVS     r0,#0x1b
        0x0001baf8:    2800        .(      CMP      r0,#0
        0x0001bafa:    db0d        ..      BLT      0x1bb18 ; dcd_int_enable + 72
        0x0001bafc:    bf00        ..      NOP      
        0x0001bafe:    bf00        ..      NOP      
        0x0001bb00:    f000031f    ....    AND      r3,r0,#0x1f
        0x0001bb04:    2101        .!      MOVS     r1,#1
        0x0001bb06:    4099        .@      LSLS     r1,r1,r3
        0x0001bb08:    0943        C.      LSRS     r3,r0,#5
        0x0001bb0a:    009b        ..      LSLS     r3,r3,#2
        0x0001bb0c:    f10323e0    ...#    ADD      r3,r3,#0xe000e000
        0x0001bb10:    f8c31100    ....    STR      r1,[r3,#0x100]
        0x0001bb14:    bf00        ..      NOP      
        0x0001bb16:    bf00        ..      NOP      
        0x0001bb18:    bf00        ..      NOP      
        0x0001bb1a:    bd30        0.      POP      {r4,r5,pc}
    $d
        0x0001bb1c:    e000e400    ....    DCD    3758154752
        0x0001bb20:    e000ed18    ....    DCD    3758157080
    $t
    i.dcd_set_address
    dcd_set_address
        0x0001bb24:    b570        p.      PUSH     {r4-r6,lr}
        0x0001bb26:    4605        .F      MOV      r5,r0
        0x0001bb28:    460e        .F      MOV      r6,r1
        0x0001bb2a:    2000        .       MOVS     r0,#0
        0x0001bb2c:    2101        .!      MOVS     r1,#1
        0x0001bb2e:    b109        ..      CBZ      r1,0x1bb34 ; dcd_set_address + 16
        0x0001bb30:    2280        ."      MOVS     r2,#0x80
        0x0001bb32:    e000        ..      B        0x1bb36 ; dcd_set_address + 18
        0x0001bb34:    2200        ."      MOVS     r2,#0
        0x0001bb36:    ea420400    B...    ORR      r4,r2,r0
        0x0001bb3a:    2300        .#      MOVS     r3,#0
        0x0001bb3c:    461a        .F      MOV      r2,r3
        0x0001bb3e:    4621        !F      MOV      r1,r4
        0x0001bb40:    4628        (F      MOV      r0,r5
        0x0001bb42:    f7fffe6d    ..m.    BL       dcd_edpt_xfer ; 0x1b820
        0x0001bb46:    4631        1F      MOV      r1,r6
        0x0001bb48:    4804        .H      LDR      r0,[pc,#16] ; [0x1bb5c] = 0x1000002c
        0x0001bb4a:    6800        .h      LDR      r0,[r0,#0]
        0x0001bb4c:    f7fffa40    ..@.    BL       am_hal_usb_set_addr ; 0x1afd0
        0x0001bb50:    2101        .!      MOVS     r1,#1
        0x0001bb52:    4802        .H      LDR      r0,[pc,#8] ; [0x1bb5c] = 0x1000002c
        0x0001bb54:    6800        .h      LDR      r0,[r0,#0]
        0x0001bb56:    f7fffa93    ....    BL       am_hal_usb_set_dev_state ; 0x1b080
        0x0001bb5a:    bd70        p.      POP      {r4-r6,pc}
    $d
        0x0001bb5c:    1000002c    ,...    DCD    268435500
    $t
    i.dcd_usb_dev_evt_callback
    dcd_usb_dev_evt_callback
        0x0001bb60:    b510        ..      PUSH     {r4,lr}
        0x0001bb62:    4604        .F      MOV      r4,r0
        0x0001bb64:    b134        4.      CBZ      r4,0x1bb74 ; dcd_usb_dev_evt_callback + 20
        0x0001bb66:    2c01        .,      CMP      r4,#1
        0x0001bb68:    d027        '.      BEQ      0x1bbba ; dcd_usb_dev_evt_callback + 90
        0x0001bb6a:    2c02        .,      CMP      r4,#2
        0x0001bb6c:    d01a        ..      BEQ      0x1bba4 ; dcd_usb_dev_evt_callback + 68
        0x0001bb6e:    2c03        .,      CMP      r4,#3
        0x0001bb70:    d134        4.      BNE      0x1bbdc ; dcd_usb_dev_evt_callback + 124
        0x0001bb72:    e028        (.      B        0x1bbc6 ; dcd_usb_dev_evt_callback + 102
        0x0001bb74:    f04f6170    O.pa    MOV      r1,#0xf000000
        0x0001bb78:    481a        .H      LDR      r0,[pc,#104] ; [0x1bbe4] = 0x1000002c
        0x0001bb7a:    6800        .h      LDR      r0,[r0,#0]
        0x0001bb7c:    f7fff898    ....    BL       am_hal_usb_intr_usb_enable ; 0x1acb0
        0x0001bb80:    2340        @#      MOVS     r3,#0x40
        0x0001bb82:    2200        ."      MOVS     r2,#0
        0x0001bb84:    4611        .F      MOV      r1,r2
        0x0001bb86:    4817        .H      LDR      r0,[pc,#92] ; [0x1bbe4] = 0x1000002c
        0x0001bb88:    6800        .h      LDR      r0,[r0,#0]
        0x0001bb8a:    f7fefa3b    ..;.    BL       am_hal_usb_ep_init ; 0x1a004
        0x0001bb8e:    2101        .!      MOVS     r1,#1
        0x0001bb90:    4814        .H      LDR      r0,[pc,#80] ; [0x1bbe4] = 0x1000002c
        0x0001bb92:    6800        .h      LDR      r0,[r0,#0]
        0x0001bb94:    f7fffa38    ..8.    BL       am_hal_usb_set_dev_speed ; 0x1b008
        0x0001bb98:    2201        ."      MOVS     r2,#1
        0x0001bb9a:    2100        .!      MOVS     r1,#0
        0x0001bb9c:    4608        .F      MOV      r0,r1
        0x0001bb9e:    f7fffe55    ..U.    BL       dcd_event_bus_reset ; 0x1b84c
        0x0001bba2:    e01c        ..      B        0x1bbde ; dcd_usb_dev_evt_callback + 126
        0x0001bba4:    2201        ."      MOVS     r2,#1
        0x0001bba6:    2105        .!      MOVS     r1,#5
        0x0001bba8:    2000        .       MOVS     r0,#0
        0x0001bbaa:    f7fffe63    ..c.    BL       dcd_event_bus_signal ; 0x1b874
        0x0001bbae:    2104        .!      MOVS     r1,#4
        0x0001bbb0:    480c        .H      LDR      r0,[pc,#48] ; [0x1bbe4] = 0x1000002c
        0x0001bbb2:    6800        .h      LDR      r0,[r0,#0]
        0x0001bbb4:    f7fffa64    ..d.    BL       am_hal_usb_set_dev_state ; 0x1b080
        0x0001bbb8:    e011        ..      B        0x1bbde ; dcd_usb_dev_evt_callback + 126
        0x0001bbba:    2201        ."      MOVS     r2,#1
        0x0001bbbc:    2103        .!      MOVS     r1,#3
        0x0001bbbe:    2000        .       MOVS     r0,#0
        0x0001bbc0:    f7fffe58    ..X.    BL       dcd_event_bus_signal ; 0x1b874
        0x0001bbc4:    e00b        ..      B        0x1bbde ; dcd_usb_dev_evt_callback + 126
        0x0001bbc6:    2201        ."      MOVS     r2,#1
        0x0001bbc8:    2104        .!      MOVS     r1,#4
        0x0001bbca:    2000        .       MOVS     r0,#0
        0x0001bbcc:    f7fffe52    ..R.    BL       dcd_event_bus_signal ; 0x1b874
        0x0001bbd0:    2106        .!      MOVS     r1,#6
        0x0001bbd2:    4804        .H      LDR      r0,[pc,#16] ; [0x1bbe4] = 0x1000002c
        0x0001bbd4:    6800        .h      LDR      r0,[r0,#0]
        0x0001bbd6:    f7fffa53    ..S.    BL       am_hal_usb_set_dev_state ; 0x1b080
        0x0001bbda:    e000        ..      B        0x1bbde ; dcd_usb_dev_evt_callback + 126
        0x0001bbdc:    bf00        ..      NOP      
        0x0001bbde:    bf00        ..      NOP      
        0x0001bbe0:    bd10        ..      POP      {r4,pc}
    $d
        0x0001bbe2:    0000        ..      DCW    0
        0x0001bbe4:    1000002c    ,...    DCD    268435500
    $t
    i.dcd_usb_ep0_setup_callback
    dcd_usb_ep0_setup_callback
        0x0001bbe8:    b510        ..      PUSH     {r4,lr}
        0x0001bbea:    4604        .F      MOV      r4,r0
        0x0001bbec:    2201        ."      MOVS     r2,#1
        0x0001bbee:    4621        !F      MOV      r1,r4
        0x0001bbf0:    2000        .       MOVS     r0,#0
        0x0001bbf2:    f7fffec5    ....    BL       dcd_event_setup_received ; 0x1b980
        0x0001bbf6:    bd10        ..      POP      {r4,pc}
    i.dcd_usb_ep_xfer_complete_callback
    dcd_usb_ep_xfer_complete_callback
        0x0001bbf8:    b5f8        ..      PUSH     {r3-r7,lr}
        0x0001bbfa:    4606        .F      MOV      r6,r0
        0x0001bbfc:    460c        .F      MOV      r4,r1
        0x0001bbfe:    4615        .F      MOV      r5,r2
        0x0001bc00:    461f        .F      MOV      r7,r3
        0x0001bc02:    2d07        .-      CMP      r5,#7
        0x0001bc04:    d218        ..      BCS      0x1bc38 ; dcd_usb_ep_xfer_complete_callback + 64
        0x0001bc06:    e8dff005    ....    TBB      [pc,r5]
    $d
        0x0001bc0a:    1804        ..      DCW    6148
        0x0001bc0c:    1a16190d    ....    DCD    437655821
        0x0001bc10:    001b        ..      DCW    27
    $t
        0x0001bc12:    2001        .       MOVS     r0,#1
        0x0001bc14:    2300        .#      MOVS     r3,#0
        0x0001bc16:    4622        "F      MOV      r2,r4
        0x0001bc18:    4631        1F      MOV      r1,r6
        0x0001bc1a:    9000        ..      STR      r0,[sp,#0]
        0x0001bc1c:    4618        .F      MOV      r0,r3
        0x0001bc1e:    f7fffec5    ....    BL       dcd_event_xfer_complete ; 0x1b9ac
        0x0001bc22:    e017        ..      B        0x1bc54 ; dcd_usb_ep_xfer_complete_callback + 92
        0x0001bc24:    2001        .       MOVS     r0,#1
        0x0001bc26:    2302        .#      MOVS     r3,#2
        0x0001bc28:    4622        "F      MOV      r2,r4
        0x0001bc2a:    4631        1F      MOV      r1,r6
        0x0001bc2c:    9000        ..      STR      r0,[sp,#0]
        0x0001bc2e:    2000        .       MOVS     r0,#0
        0x0001bc30:    f7fffebc    ....    BL       dcd_event_xfer_complete ; 0x1b9ac
        0x0001bc34:    e00e        ..      B        0x1bc54 ; dcd_usb_ep_xfer_complete_callback + 92
        0x0001bc36:    e00d        ..      B        0x1bc54 ; dcd_usb_ep_xfer_complete_callback + 92
        0x0001bc38:    bf00        ..      NOP      
        0x0001bc3a:    bf00        ..      NOP      
        0x0001bc3c:    bf00        ..      NOP      
        0x0001bc3e:    bf00        ..      NOP      
        0x0001bc40:    b13c        <.      CBZ      r4,0x1bc52 ; dcd_usb_ep_xfer_complete_callback + 90
        0x0001bc42:    2001        .       MOVS     r0,#1
        0x0001bc44:    4603        .F      MOV      r3,r0
        0x0001bc46:    4622        "F      MOV      r2,r4
        0x0001bc48:    4631        1F      MOV      r1,r6
        0x0001bc4a:    9000        ..      STR      r0,[sp,#0]
        0x0001bc4c:    2000        .       MOVS     r0,#0
        0x0001bc4e:    f7fffead    ....    BL       dcd_event_xfer_complete ; 0x1b9ac
        0x0001bc52:    bf00        ..      NOP      
        0x0001bc54:    bf00        ..      NOP      
        0x0001bc56:    bdf8        ..      POP      {r3-r7,pc}
    i.dcd_usb_setHFCR2
    dcd_usb_setHFCR2
        0x0001bc58:    b508        ..      PUSH     {r3,lr}
        0x0001bc5a:    2000        .       MOVS     r0,#0
        0x0001bc5c:    9000        ..      STR      r0,[sp,#0]
        0x0001bc5e:    4669        iF      MOV      r1,sp
        0x0001bc60:    2001        .       MOVS     r0,#1
        0x0001bc62:    f7fef8d7    ....    BL       am_hal_usb_control ; 0x19e14
        0x0001bc66:    bd08        ..      POP      {r3,pc}
    i.decstr_to_int
    decstr_to_int
        0x0001bc68:    b530        0.      PUSH     {r4,r5,lr}
        0x0001bc6a:    4602        .F      MOV      r2,r0
        0x0001bc6c:    2500        .%      MOVS     r5,#0
        0x0001bc6e:    2300        .#      MOVS     r3,#0
        0x0001bc70:    2400        .$      MOVS     r4,#0
        0x0001bc72:    7810        .x      LDRB     r0,[r2,#0]
        0x0001bc74:    282d        -(      CMP      r0,#0x2d
        0x0001bc76:    d102        ..      BNE      0x1bc7e ; decstr_to_int + 22
        0x0001bc78:    2501        .%      MOVS     r5,#1
        0x0001bc7a:    1c52        R.      ADDS     r2,r2,#1
        0x0001bc7c:    1c64        d.      ADDS     r4,r4,#1
        0x0001bc7e:    e007        ..      B        0x1bc90 ; decstr_to_int + 40
        0x0001bc80:    1c64        d.      ADDS     r4,r4,#1
        0x0001bc82:    eb030083    ....    ADD      r0,r3,r3,LSL #2
        0x0001bc86:    0043        C.      LSLS     r3,r0,#1
        0x0001bc88:    7810        .x      LDRB     r0,[r2,#0]
        0x0001bc8a:    3830        08      SUBS     r0,r0,#0x30
        0x0001bc8c:    4403        .D      ADD      r3,r3,r0
        0x0001bc8e:    1c52        R.      ADDS     r2,r2,#1
        0x0001bc90:    7810        .x      LDRB     r0,[r2,#0]
        0x0001bc92:    2830        0(      CMP      r0,#0x30
        0x0001bc94:    db02        ..      BLT      0x1bc9c ; decstr_to_int + 52
        0x0001bc96:    7810        .x      LDRB     r0,[r2,#0]
        0x0001bc98:    2839        9(      CMP      r0,#0x39
        0x0001bc9a:    ddf1        ..      BLE      0x1bc80 ; decstr_to_int + 24
        0x0001bc9c:    b101        ..      CBZ      r1,0x1bca0 ; decstr_to_int + 56
        0x0001bc9e:    600c        .`      STR      r4,[r1,#0]
        0x0001bca0:    b10d        ..      CBZ      r5,0x1bca6 ; decstr_to_int + 62
        0x0001bca2:    4258        XB      RSBS     r0,r3,#0
        0x0001bca4:    bd30        0.      POP      {r4,r5,pc}
        0x0001bca6:    4618        .F      MOV      r0,r3
        0x0001bca8:    e7fc        ..      B        0x1bca4 ; decstr_to_int + 60
    i.divu64_10
    divu64_10
        0x0001bcaa:    e92d4ff0    -..O    PUSH     {r4-r11,lr}
        0x0001bcae:    4604        .F      MOV      r4,r0
        0x0001bcb0:    460d        .F      MOV      r5,r1
        0x0001bcb2:    2000        .       MOVS     r0,#0
        0x0001bcb4:    ea850100    ....    EOR      r1,r5,r0
        0x0001bcb8:    4040        @@      EORS     r0,r0,r0
        0x0001bcba:    4301        .C      ORRS     r1,r1,r0
        0x0001bcbc:    d044        D.      BEQ      0x1bd48 ; divu64_10 + 158
        0x0001bcbe:    ea5f0a55    _.U.    LSRS     r10,r5,#1
        0x0001bcc2:    ea4f0134    O.4.    RRX      r1,r4
        0x0001bcc6:    ea4f0b94    O...    LSR      r11,r4,#2
        0x0001bcca:    ea4b7085    K..p    ORR      r0,r11,r5,LSL #30
        0x0001bcce:    180a        ..      ADDS     r2,r1,r0
        0x0001bcd0:    eb4a0395    J...    ADC      r3,r10,r5,LSR #2
        0x0001bcd4:    ea4f1012    O...    LSR      r0,r2,#4
        0x0001bcd8:    ea407a03    @..z    ORR      r10,r0,r3,LSL #28
        0x0001bcdc:    eb1a0202    ....    ADDS     r2,r10,r2
        0x0001bce0:    eb431313    C...    ADC      r3,r3,r3,LSR #4
        0x0001bce4:    ea4f2012    O..     LSR      r0,r2,#8
        0x0001bce8:    ea406a03    @..j    ORR      r10,r0,r3,LSL #24
        0x0001bcec:    eb1a0202    ....    ADDS     r2,r10,r2
        0x0001bcf0:    eb432313    C..#    ADC      r3,r3,r3,LSR #8
        0x0001bcf4:    ea4f4012    O..@    LSR      r0,r2,#16
        0x0001bcf8:    ea404a03    @..J    ORR      r10,r0,r3,LSL #16
        0x0001bcfc:    eb1a0202    ....    ADDS     r2,r10,r2
        0x0001bd00:    eb434313    C..C    ADC      r3,r3,r3,LSR #16
        0x0001bd04:    189a        ..      ADDS     r2,r3,r2
        0x0001bd06:    f1430300    C...    ADC      r3,r3,#0
        0x0001bd0a:    08d0        ..      LSRS     r0,r2,#3
        0x0001bd0c:    ea407243    @.Cr    ORR      r2,r0,r3,LSL #29
        0x0001bd10:    08db        ..      LSRS     r3,r3,#3
        0x0001bd12:    210a        .!      MOVS     r1,#0xa
        0x0001bd14:    f04f0a00    O...    MOV      r10,#0
        0x0001bd18:    fba20b01    ....    UMULL    r0,r11,r2,r1
        0x0001bd1c:    fb03b101    ....    MLA      r1,r3,r1,r11
        0x0001bd20:    fb02110a    ....    MLA      r1,r2,r10,r1
        0x0001bd24:    1a26        &.      SUBS     r6,r4,r0
        0x0001bd26:    eb650701    e...    SBC      r7,r5,r1
        0x0001bd2a:    2106        .!      MOVS     r1,#6
        0x0001bd2c:    eb160a01    ....    ADDS     r10,r6,r1
        0x0001bd30:    f1470100    G...    ADC      r1,r7,#0
        0x0001bd34:    ea4f101a    O...    LSR      r0,r10,#4
        0x0001bd38:    ea407a01    @..z    ORR      r10,r0,r1,LSL #28
        0x0001bd3c:    eb1a0002    ....    ADDS     r0,r10,r2
        0x0001bd40:    eb431111    C...    ADC      r1,r3,r1,LSR #4
        0x0001bd44:    e8bd8ff0    ....    POP      {r4-r11,pc}
        0x0001bd48:    46a0        .F      MOV      r8,r4
        0x0001bd4a:    ea4f0058    O.X.    LSR      r0,r8,#1
        0x0001bd4e:    eb000c98    ....    ADD      r12,r0,r8,LSR #2
        0x0001bd52:    eb0c1c1c    ....    ADD      r12,r12,r12,LSR #4
        0x0001bd56:    eb0c2c1c    ...,    ADD      r12,r12,r12,LSR #8
        0x0001bd5a:    eb0c4c1c    ...L    ADD      r12,r12,r12,LSR #16
        0x0001bd5e:    ea4f0cdc    O...    LSR      r12,r12,#3
        0x0001bd62:    eb0c008c    ....    ADD      r0,r12,r12,LSL #2
        0x0001bd66:    eba80940    ..@.    SUB      r9,r8,r0,LSL #1
        0x0001bd6a:    f1090006    ....    ADD      r0,r9,#6
        0x0001bd6e:    eb0c1010    ....    ADD      r0,r12,r0,LSR #4
        0x0001bd72:    2100        .!      MOVS     r1,#0
        0x0001bd74:    e7e6        ..      B        0x1bd44 ; divu64_10 + 154
        0x0001bd76:    0000        ..      MOVS     r0,r0
    i.ftoa
    ftoa
        0x0001bd78:    e92d4ff3    -..O    PUSH     {r0,r1,r4-r11,lr}
        0x0001bd7c:    ed2d0b02    -...    VPUSH    {d0}
        0x0001bd80:    ed2d8b02    -...    VPUSH    {d8}
        0x0001bd84:    b081        ..      SUB      sp,sp,#4
        0x0001bd86:    eeb08a40    ..@.    VMOV.F32 s16,s0
        0x0001bd8a:    4604        .F      MOV      r4,r0
        0x0001bd8c:    f8d4b000    ....    LDR      r11,[r4,#0]
        0x0001bd90:    f1bb0f04    ....    CMP      r11,#4
        0x0001bd94:    da07        ..      BGE      0x1bda6 ; ftoa + 46
        0x0001bd96:    f06f0002    o...    MVN      r0,#2
        0x0001bd9a:    b001        ..      ADD      sp,sp,#4
        0x0001bd9c:    ecbd8b02    ....    VPOP     {d8}
        0x0001bda0:    b004        ..      ADD      sp,sp,#0x10
        0x0001bda2:    e8bd8ff0    ....    POP      {r4-r11,pc}
        0x0001bda6:    eeb58ac0    ....    VCMPE.F32 s16,#0.0
        0x0001bdaa:    eef1fa10    ....    VMRS     APSR_nzcv,FPSCR
        0x0001bdae:    d103        ..      BNE      0x1bdb8 ; ftoa + 64
        0x0001bdb0:    484e        NH      LDR      r0,[pc,#312] ; [0x1beec] = 0x302e30
        0x0001bdb2:    6020         `      STR      r0,[r4,#0]
        0x0001bdb4:    2003        .       MOVS     r0,#3
        0x0001bdb6:    e7f0        ..      B        0x1bd9a ; ftoa + 34
        0x0001bdb8:    46a2        .F      MOV      r10,r4
        0x0001bdba:    ed8d8a00    ....    VSTR     s16,[sp,#0]
        0x0001bdbe:    9800        ..      LDR      r0,[sp,#0]
        0x0001bdc0:    f3c050c7    ...P    UBFX     r0,r0,#23,#8
        0x0001bdc4:    f1a0057f    ....    SUB      r5,r0,#0x7f
        0x0001bdc8:    9800        ..      LDR      r0,[sp,#0]
        0x0001bdca:    f020407f     ..@    BIC      r0,r0,#0xff000000
        0x0001bdce:    f4400900    @...    ORR      r9,r0,#0x800000
        0x0001bdd2:    f04f0800    O...    MOV      r8,#0
        0x0001bdd6:    2700        .'      MOVS     r7,#0
        0x0001bdd8:    2d1f        .-      CMP      r5,#0x1f
        0x0001bdda:    db01        ..      BLT      0x1bde0 ; ftoa + 104
        0x0001bddc:    1eb8        ..      SUBS     r0,r7,#2
        0x0001bdde:    e7dc        ..      B        0x1bd9a ; ftoa + 34
        0x0001bde0:    f1150f17    ....    CMN      r5,#0x17
        0x0001bde4:    da02        ..      BGE      0x1bdec ; ftoa + 116
        0x0001bde6:    f04f30ff    O..0    MOV      r0,#0xffffffff
        0x0001bdea:    e7d6        ..      B        0x1bd9a ; ftoa + 34
        0x0001bdec:    2d17        .-      CMP      r5,#0x17
        0x0001bdee:    db04        ..      BLT      0x1bdfa ; ftoa + 130
        0x0001bdf0:    f1a50017    ....    SUB      r0,r5,#0x17
        0x0001bdf4:    fa09f700    ....    LSL      r7,r9,r0
        0x0001bdf8:    e011        ..      B        0x1be1e ; ftoa + 166
        0x0001bdfa:    2d00        .-      CMP      r5,#0
        0x0001bdfc:    db09        ..      BLT      0x1be12 ; ftoa + 154
        0x0001bdfe:    f1c50017    ....    RSB      r0,r5,#0x17
        0x0001be02:    fa49f700    I...    ASR      r7,r9,r0
        0x0001be06:    1c68        h.      ADDS     r0,r5,#1
        0x0001be08:    fa09f000    ....    LSL      r0,r9,r0
        0x0001be0c:    f020487f     ..H    BIC      r8,r0,#0xff000000
        0x0001be10:    e005        ..      B        0x1be1e ; ftoa + 166
        0x0001be12:    f029407f    )..@    BIC      r0,r9,#0xff000000
        0x0001be16:    1c69        i.      ADDS     r1,r5,#1
        0x0001be18:    4249        IB      RSBS     r1,r1,#0
        0x0001be1a:    fa40f801    @...    ASR      r8,r0,r1
        0x0001be1e:    9800        ..      LDR      r0,[sp,#0]
        0x0001be20:    2800        .(      CMP      r0,#0
        0x0001be22:    da02        ..      BGE      0x1be2a ; ftoa + 178
        0x0001be24:    202d        -       MOVS     r0,#0x2d
        0x0001be26:    f8040b01    ....    STRB     r0,[r4],#1
        0x0001be2a:    b91f        ..      CBNZ     r7,0x1be34 ; ftoa + 188
        0x0001be2c:    2030        0       MOVS     r0,#0x30
        0x0001be2e:    f8040b01    ....    STRB     r0,[r4],#1
        0x0001be32:    e014        ..      B        0x1be5e ; ftoa + 230
        0x0001be34:    2f00        ./      CMP      r7,#0
        0x0001be36:    dd05        ..      BLE      0x1be44 ; ftoa + 204
        0x0001be38:    4622        "F      MOV      r2,r4
        0x0001be3a:    4638        8F      MOV      r0,r7
        0x0001be3c:    17f9        ..      ASRS     r1,r7,#31
        0x0001be3e:    f001ff0c    ....    BL       uint64_to_str ; 0x1dc5a
        0x0001be42:    e007        ..      B        0x1be54 ; ftoa + 220
        0x0001be44:    202d        -       MOVS     r0,#0x2d
        0x0001be46:    f8040b01    ....    STRB     r0,[r4],#1
        0x0001be4a:    4622        "F      MOV      r2,r4
        0x0001be4c:    4278        xB      RSBS     r0,r7,#0
        0x0001be4e:    17c1        ..      ASRS     r1,r0,#31
        0x0001be50:    f001ff03    ....    BL       uint64_to_str ; 0x1dc5a
        0x0001be54:    e000        ..      B        0x1be58 ; ftoa + 224
        0x0001be56:    1c64        d.      ADDS     r4,r4,#1
        0x0001be58:    7820         x      LDRB     r0,[r4,#0]
        0x0001be5a:    2800        .(      CMP      r0,#0
        0x0001be5c:    d1fb        ..      BNE      0x1be56 ; ftoa + 222
        0x0001be5e:    202e        .       MOVS     r0,#0x2e
        0x0001be60:    f8040b01    ....    STRB     r0,[r4],#1
        0x0001be64:    f1b80f00    ....    CMP      r8,#0
        0x0001be68:    d103        ..      BNE      0x1be72 ; ftoa + 250
        0x0001be6a:    2030        0       MOVS     r0,#0x30
        0x0001be6c:    f8040b01    ....    STRB     r0,[r4],#1
        0x0001be70:    e036        6.      B        0x1bee0 ; ftoa + 360
        0x0001be72:    eba4020a    ....    SUB      r2,r4,r10
        0x0001be76:    ebab0202    ....    SUB      r2,r11,r2
        0x0001be7a:    1e51        Q.      SUBS     r1,r2,#1
        0x0001be7c:    9a06        ..      LDR      r2,[sp,#0x18]
        0x0001be7e:    4291        .B      CMP      r1,r2
        0x0001be80:    dd01        ..      BLE      0x1be86 ; ftoa + 270
        0x0001be82:    9a06        ..      LDR      r2,[sp,#0x18]
        0x0001be84:    e000        ..      B        0x1be88 ; ftoa + 272
        0x0001be86:    460a        .F      MOV      r2,r1
        0x0001be88:    4611        .F      MOV      r1,r2
        0x0001be8a:    2000        .       MOVS     r0,#0
        0x0001be8c:    e00b        ..      B        0x1bea6 ; ftoa + 302
        0x0001be8e:    eb080288    ....    ADD      r2,r8,r8,LSL #2
        0x0001be92:    ea4f0842    O.B.    LSL      r8,r2,#1
        0x0001be96:    2230        0"      MOVS     r2,#0x30
        0x0001be98:    eb026228    ..(b    ADD      r2,r2,r8,ASR #24
        0x0001be9c:    f8042b01    ...+    STRB     r2,[r4],#1
        0x0001bea0:    f028487f    (..H    BIC      r8,r8,#0xff000000
        0x0001bea4:    1c40        @.      ADDS     r0,r0,#1
        0x0001bea6:    4288        .B      CMP      r0,r1
        0x0001bea8:    dbf1        ..      BLT      0x1be8e ; ftoa + 278
        0x0001beaa:    eb080288    ....    ADD      r2,r8,r8,LSL #2
        0x0001beae:    0052        R.      LSLS     r2,r2,#1
        0x0001beb0:    2305        .#      MOVS     r3,#5
        0x0001beb2:    ebb36f22    .."o    CMP      r3,r2,ASR #24
        0x0001beb6:    dc12        ..      BGT      0x1bede ; ftoa + 358
        0x0001beb8:    1e66        f.      SUBS     r6,r4,#1
        0x0001beba:    e00d        ..      B        0x1bed8 ; ftoa + 352
        0x0001bebc:    7832        2x      LDRB     r2,[r6,#0]
        0x0001bebe:    2a2e        .*      CMP      r2,#0x2e
        0x0001bec0:    d009        ..      BEQ      0x1bed6 ; ftoa + 350
        0x0001bec2:    7832        2x      LDRB     r2,[r6,#0]
        0x0001bec4:    2a39        9*      CMP      r2,#0x39
        0x0001bec6:    d102        ..      BNE      0x1bece ; ftoa + 342
        0x0001bec8:    2230        0"      MOVS     r2,#0x30
        0x0001beca:    7032        2p      STRB     r2,[r6,#0]
        0x0001becc:    e003        ..      B        0x1bed6 ; ftoa + 350
        0x0001bece:    7832        2x      LDRB     r2,[r6,#0]
        0x0001bed0:    1c52        R.      ADDS     r2,r2,#1
        0x0001bed2:    7032        2p      STRB     r2,[r6,#0]
        0x0001bed4:    e002        ..      B        0x1bedc ; ftoa + 356
        0x0001bed6:    1e76        v.      SUBS     r6,r6,#1
        0x0001bed8:    4556        VE      CMP      r6,r10
        0x0001beda:    d2ef        ..      BCS      0x1bebc ; ftoa + 324
        0x0001bedc:    bf00        ..      NOP      
        0x0001bede:    bf00        ..      NOP      
        0x0001bee0:    2000        .       MOVS     r0,#0
        0x0001bee2:    7020         p      STRB     r0,[r4,#0]
        0x0001bee4:    eba4000a    ....    SUB      r0,r4,r10
        0x0001bee8:    e757        W.      B        0x1bd9a ; ftoa + 34
    $d
        0x0001beea:    0000        ..      DCW    0
        0x0001beec:    00302e30    0.0.    DCD    3157552
    $t
    i.get_driver
    get_driver
        0x0001bef0:    4601        .F      MOV      r1,r0
        0x0001bef2:    480d        .H      LDR      r0,[pc,#52] ; [0x1bf28] = 0
        0x0001bef4:    b170        p.      CBZ      r0,0x1bf14 ; get_driver + 36
        0x0001bef6:    480d        .H      LDR      r0,[pc,#52] ; [0x1bf2c] = 0x10000034
        0x0001bef8:    7800        .x      LDRB     r0,[r0,#0]
        0x0001befa:    4281        .B      CMP      r1,r0
        0x0001befc:    da06        ..      BGE      0x1bf0c ; get_driver + 28
        0x0001befe:    ebc100c1    ....    RSB      r0,r1,r1,LSL #3
        0x0001bf02:    4a0b        .J      LDR      r2,[pc,#44] ; [0x1bf30] = 0x10000030
        0x0001bf04:    6812        .h      LDR      r2,[r2,#0]
        0x0001bf06:    eb020080    ....    ADD      r0,r2,r0,LSL #2
        0x0001bf0a:    4770        pG      BX       lr
        0x0001bf0c:    4807        .H      LDR      r0,[pc,#28] ; [0x1bf2c] = 0x10000034
        0x0001bf0e:    7800        .x      LDRB     r0,[r0,#0]
        0x0001bf10:    1a08        ..      SUBS     r0,r1,r0
        0x0001bf12:    b2c1        ..      UXTB     r1,r0
        0x0001bf14:    2901        .)      CMP      r1,#1
        0x0001bf16:    da05        ..      BGE      0x1bf24 ; get_driver + 52
        0x0001bf18:    ebc100c1    ....    RSB      r0,r1,r1,LSL #3
        0x0001bf1c:    4a05        .J      LDR      r2,[pc,#20] ; [0x1bf34] = 0x1e498
        0x0001bf1e:    eb020080    ....    ADD      r0,r2,r0,LSL #2
        0x0001bf22:    e7f2        ..      B        0x1bf0a ; get_driver + 26
        0x0001bf24:    2000        .       MOVS     r0,#0
        0x0001bf26:    e7f0        ..      B        0x1bf0a ; get_driver + 26
    $d
        0x0001bf28:    00000000    ....    DCD    0
        0x0001bf2c:    10000034    4...    DCD    268435508
        0x0001bf30:    10000030    0...    DCD    268435504
        0x0001bf34:    0001e498    ....    DCD    124056
    $t
    i.get_relative_pointer
    get_relative_pointer
        0x0001bf38:    b510        ..      PUSH     {r4,lr}
        0x0001bf3a:    4602        .F      MOV      r2,r0
        0x0001bf3c:    460b        .F      MOV      r3,r1
        0x0001bf3e:    4618        .F      MOV      r0,r3
        0x0001bf40:    8891        ..      LDRH     r1,[r2,#4]
        0x0001bf42:    e001        ..      B        0x1bf48 ; get_relative_pointer + 16
        0x0001bf44:    1a44        D.      SUBS     r4,r0,r1
        0x0001bf46:    b2a0        ..      UXTH     r0,r4
        0x0001bf48:    4288        .B      CMP      r0,r1
        0x0001bf4a:    dafb        ..      BGE      0x1bf44 ; get_relative_pointer + 12
        0x0001bf4c:    bd10        ..      POP      {r4,pc}
        0x0001bf4e:    0000        ..      MOVS     r0,r0
    i.hidd_control_xfer_cb
    hidd_control_xfer_cb
        0x0001bf50:    e92d4ff7    -..O    PUSH     {r0-r2,r4-r11,lr}
        0x0001bf54:    b082        ..      SUB      sp,sp,#8
        0x0001bf56:    460e        .F      MOV      r6,r1
        0x0001bf58:    4614        .F      MOV      r4,r2
        0x0001bf5a:    bf00        ..      NOP      
        0x0001bf5c:    7820         x      LDRB     r0,[r4,#0]
        0x0001bf5e:    f000001f    ....    AND      r0,r0,#0x1f
        0x0001bf62:    2801        .(      CMP      r0,#1
        0x0001bf64:    d003        ..      BEQ      0x1bf6e ; hidd_control_xfer_cb + 30
        0x0001bf66:    2000        .       MOVS     r0,#0
        0x0001bf68:    b005        ..      ADD      sp,sp,#0x14
        0x0001bf6a:    e8bd8ff0    ....    POP      {r4-r11,pc}
        0x0001bf6e:    bf00        ..      NOP      
        0x0001bf70:    7921        !y      LDRB     r1,[r4,#4]
        0x0001bf72:    2000        .       MOVS     r0,#0
        0x0001bf74:    e00b        ..      B        0x1bf8e ; hidd_control_xfer_cb + 62
        0x0001bf76:    ebc002c0    ....    RSB      r2,r0,r0,LSL #3
        0x0001bf7a:    eb020282    ....    ADD      r2,r2,r2,LSL #2
        0x0001bf7e:    4b90        .K      LDR      r3,[pc,#576] ; [0x1c1c0] = 0x10000268
        0x0001bf80:    f8132022    .."     LDRB     r2,[r3,r2,LSL #2]
        0x0001bf84:    428a        .B      CMP      r2,r1
        0x0001bf86:    d100        ..      BNE      0x1bf8a ; hidd_control_xfer_cb + 58
        0x0001bf88:    e004        ..      B        0x1bf94 ; hidd_control_xfer_cb + 68
        0x0001bf8a:    1c42        B.      ADDS     r2,r0,#1
        0x0001bf8c:    b2d0        ..      UXTB     r0,r2
        0x0001bf8e:    2801        .(      CMP      r0,#1
        0x0001bf90:    dbf1        ..      BLT      0x1bf76 ; hidd_control_xfer_cb + 38
        0x0001bf92:    20ff        .       MOVS     r0,#0xff
        0x0001bf94:    4681        .F      MOV      r9,r0
        0x0001bf96:    bf00        ..      NOP      
        0x0001bf98:    f1b90f01    ....    CMP      r9,#1
        0x0001bf9c:    db01        ..      BLT      0x1bfa2 ; hidd_control_xfer_cb + 82
        0x0001bf9e:    2000        .       MOVS     r0,#0
        0x0001bfa0:    e7e2        ..      B        0x1bf68 ; hidd_control_xfer_cb + 24
        0x0001bfa2:    bf00        ..      NOP      
        0x0001bfa4:    ebc900c9    ....    RSB      r0,r9,r9,LSL #3
        0x0001bfa8:    eb000080    ....    ADD      r0,r0,r0,LSL #2
        0x0001bfac:    4984        .I      LDR      r1,[pc,#528] ; [0x1c1c0] = 0x10000268
        0x0001bfae:    eb010580    ....    ADD      r5,r1,r0,LSL #2
        0x0001bfb2:    7820         x      LDRB     r0,[r4,#0]
        0x0001bfb4:    f3c01041    ..A.    UBFX     r0,r0,#5,#2
        0x0001bfb8:    bb78        x.      CBNZ     r0,0x1c01a ; hidd_control_xfer_cb + 202
        0x0001bfba:    2e00        ..      CMP      r6,#0
        0x0001bfbc:    d12e        ..      BNE      0x1c01c ; hidd_control_xfer_cb + 204
        0x0001bfbe:    8860        `.      LDRH     r0,[r4,#2]
        0x0001bfc0:    0a01        ..      LSRS     r1,r0,#8
        0x0001bfc2:    460f        .F      MOV      r7,r1
        0x0001bfc4:    7860        `x      LDRB     r0,[r4,#1]
        0x0001bfc6:    2806        .(      CMP      r0,#6
        0x0001bfc8:    d115        ..      BNE      0x1bff6 ; hidd_control_xfer_cb + 166
        0x0001bfca:    2f21        !/      CMP      r7,#0x21
        0x0001bfcc:    d113        ..      BNE      0x1bff6 ; hidd_control_xfer_cb + 166
        0x0001bfce:    bf00        ..      NOP      
        0x0001bfd0:    f8d50088    ....    LDR      r0,[r5,#0x88]
        0x0001bfd4:    b908        ..      CBNZ     r0,0x1bfda ; hidd_control_xfer_cb + 138
        0x0001bfd6:    2000        .       MOVS     r0,#0
        0x0001bfd8:    e7c6        ..      B        0x1bf68 ; hidd_control_xfer_cb + 24
        0x0001bfda:    bf00        ..      NOP      
        0x0001bfdc:    bf00        ..      NOP      
        0x0001bfde:    f8d50088    ....    LDR      r0,[r5,#0x88]
        0x0001bfe2:    7803        .x      LDRB     r3,[r0,#0]
        0x0001bfe4:    4602        .F      MOV      r2,r0
        0x0001bfe6:    4621        !F      MOV      r1,r4
        0x0001bfe8:    9802        ..      LDR      r0,[sp,#8]
        0x0001bfea:    f001fa35    ..5.    BL       tud_control_xfer ; 0x1d458
        0x0001bfee:    b908        ..      CBNZ     r0,0x1bff4 ; hidd_control_xfer_cb + 164
        0x0001bff0:    2000        .       MOVS     r0,#0
        0x0001bff2:    e7b9        ..      B        0x1bf68 ; hidd_control_xfer_cb + 24
        0x0001bff4:    e012        ..      B        0x1c01c ; hidd_control_xfer_cb + 204
        0x0001bff6:    7860        `x      LDRB     r0,[r4,#1]
        0x0001bff8:    2806        .(      CMP      r0,#6
        0x0001bffa:    d10c        ..      BNE      0x1c016 ; hidd_control_xfer_cb + 198
        0x0001bffc:    2f22        "/      CMP      r7,#0x22
        0x0001bffe:    d10a        ..      BNE      0x1c016 ; hidd_control_xfer_cb + 198
        0x0001c000:    4648        HF      MOV      r0,r9
        0x0001c002:    f001faf3    ....    BL       tud_hid_descriptor_report_cb ; 0x1d5ec
        0x0001c006:    4680        .F      MOV      r8,r0
        0x0001c008:    88eb        ..      LDRH     r3,[r5,#6]
        0x0001c00a:    4642        BF      MOV      r2,r8
        0x0001c00c:    4621        !F      MOV      r1,r4
        0x0001c00e:    9802        ..      LDR      r0,[sp,#8]
        0x0001c010:    f001fa22    ..".    BL       tud_control_xfer ; 0x1d458
        0x0001c014:    e002        ..      B        0x1c01c ; hidd_control_xfer_cb + 204
        0x0001c016:    2000        .       MOVS     r0,#0
        0x0001c018:    e7a6        ..      B        0x1bf68 ; hidd_control_xfer_cb + 24
        0x0001c01a:    e000        ..      B        0x1c01e ; hidd_control_xfer_cb + 206
        0x0001c01c:    e0cd        ..      B        0x1c1ba ; hidd_control_xfer_cb + 618
        0x0001c01e:    7820         x      LDRB     r0,[r4,#0]
        0x0001c020:    f3c01041    ..A.    UBFX     r0,r0,#5,#2
        0x0001c024:    2801        .(      CMP      r0,#1
        0x0001c026:    d173        s.      BNE      0x1c110 ; hidd_control_xfer_cb + 448
        0x0001c028:    7860        `x      LDRB     r0,[r4,#1]
        0x0001c02a:    280c        .(      CMP      r0,#0xc
        0x0001c02c:    d271        q.      BCS      0x1c112 ; hidd_control_xfer_cb + 450
        0x0001c02e:    e8dff000    ....    TBB      [pc,r0]
    $d
        0x0001c032:    06bf        ..      DCW    1727
        0x0001c034:    bfbfa69e    ....    DCD    3217008286
        0x0001c038:    4fbfbfbf    ...O    DCD    1337966527
        0x0001c03c:    ae8a        ..      DCW    44682
    $t
        0x0001c03e:    2e00        ..      CMP      r6,#0
        0x0001c040:    d145        E.      BNE      0x1c0ce ; hidd_control_xfer_cb + 382
        0x0001c042:    8860        `.      LDRH     r0,[r4,#2]
        0x0001c044:    0a01        ..      LSRS     r1,r0,#8
        0x0001c046:    9101        ..      STR      r1,[sp,#4]
        0x0001c048:    8860        `.      LDRH     r0,[r4,#2]
        0x0001c04a:    b2c1        ..      UXTB     r1,r0
        0x0001c04c:    468a        .F      MOV      r10,r1
        0x0001c04e:    f1050b08    ....    ADD      r11,r5,#8
        0x0001c052:    88e0        ..      LDRH     r0,[r4,#6]
        0x0001c054:    2140        @!      MOVS     r1,#0x40
        0x0001c056:    4288        .B      CMP      r0,r1
        0x0001c058:    da01        ..      BGE      0x1c05e ; hidd_control_xfer_cb + 270
        0x0001c05a:    4602        .F      MOV      r2,r0
        0x0001c05c:    e000        ..      B        0x1c060 ; hidd_control_xfer_cb + 272
        0x0001c05e:    460a        .F      MOV      r2,r1
        0x0001c060:    4690        .F      MOV      r8,r2
        0x0001c062:    bf00        ..      NOP      
        0x0001c064:    2700        .'      MOVS     r7,#0
        0x0001c066:    f1ba0f00    ....    CMP      r10,#0
        0x0001c06a:    d00a        ..      BEQ      0x1c082 ; hidd_control_xfer_cb + 306
        0x0001c06c:    f1b80f01    ....    CMP      r8,#1
        0x0001c070:    dd07        ..      BLE      0x1c082 ; hidd_control_xfer_cb + 306
        0x0001c072:    f80bab01    ....    STRB     r10,[r11],#1
        0x0001c076:    f1a80001    ....    SUB      r0,r8,#1
        0x0001c07a:    fa1ff880    ....    UXTH     r8,r0
        0x0001c07e:    1c78        x.      ADDS     r0,r7,#1
        0x0001c080:    b287        ..      UXTH     r7,r0
        0x0001c082:    465b        [F      MOV      r3,r11
        0x0001c084:    f8cd8000    ....    STR      r8,[sp,#0]
        0x0001c088:    4651        QF      MOV      r1,r10
        0x0001c08a:    4648        HF      MOV      r0,r9
        0x0001c08c:    9a01        ..      LDR      r2,[sp,#4]
        0x0001c08e:    f001fab3    ....    BL       tud_hid_get_report_cb ; 0x1d5f8
        0x0001c092:    4438        8D      ADD      r0,r0,r7
        0x0001c094:    b287        ..      UXTH     r7,r0
        0x0001c096:    bf00        ..      NOP      
        0x0001c098:    2f00        ./      CMP      r7,#0
        0x0001c09a:    dc0f        ..      BGT      0x1c0bc ; hidd_control_xfer_cb + 364
        0x0001c09c:    f240122b    @.+.    MOV      r2,#0x12b
        0x0001c0a0:    4948        HI      LDR      r1,[pc,#288] ; [0x1c1c4] = 0x1e690
        0x0001c0a2:    a049        I.      ADR      r0,{pc}+0x126 ; 0x1c1c8
        0x0001c0a4:    f7fff888    ....    BL       am_util_stdio_printf ; 0x1b1b8
        0x0001c0a8:    bf00        ..      NOP      
        0x0001c0aa:    484d        MH      LDR      r0,[pc,#308] ; [0x1c1e0] = 0xe000edf0
        0x0001c0ac:    6801        .h      LDR      r1,[r0,#0]
        0x0001c0ae:    f0010101    ....    AND      r1,r1,#1
        0x0001c0b2:    b101        ..      CBZ      r1,0x1c0b6 ; hidd_control_xfer_cb + 358
        0x0001c0b4:    be00        ..      BKPT     #0
        0x0001c0b6:    bf00        ..      NOP      
        0x0001c0b8:    2000        .       MOVS     r0,#0
        0x0001c0ba:    e755        U.      B        0x1bf68 ; hidd_control_xfer_cb + 24
        0x0001c0bc:    bf00        ..      NOP      
        0x0001c0be:    463b        ;F      MOV      r3,r7
        0x0001c0c0:    f1050208    ....    ADD      r2,r5,#8
        0x0001c0c4:    4621        !F      MOV      r1,r4
        0x0001c0c6:    9802        ..      LDR      r0,[sp,#8]
        0x0001c0c8:    f001f9c6    ....    BL       tud_control_xfer ; 0x1d458
        0x0001c0cc:    bf00        ..      NOP      
        0x0001c0ce:    e071        q.      B        0x1c1b4 ; hidd_control_xfer_cb + 612
        0x0001c0d0:    b976        v.      CBNZ     r6,0x1c0f0 ; hidd_control_xfer_cb + 416
        0x0001c0d2:    bf00        ..      NOP      
        0x0001c0d4:    88e0        ..      LDRH     r0,[r4,#6]
        0x0001c0d6:    2840        @(      CMP      r0,#0x40
        0x0001c0d8:    d901        ..      BLS      0x1c0de ; hidd_control_xfer_cb + 398
        0x0001c0da:    2000        .       MOVS     r0,#0
        0x0001c0dc:    e744        D.      B        0x1bf68 ; hidd_control_xfer_cb + 24
        0x0001c0de:    bf00        ..      NOP      
        0x0001c0e0:    88e3        ..      LDRH     r3,[r4,#6]
        0x0001c0e2:    f1050248    ..H.    ADD      r2,r5,#0x48
        0x0001c0e6:    4621        !F      MOV      r1,r4
        0x0001c0e8:    9802        ..      LDR      r0,[sp,#8]
        0x0001c0ea:    f001f9b5    ....    BL       tud_control_xfer ; 0x1d458
        0x0001c0ee:    e029        ).      B        0x1c144 ; hidd_control_xfer_cb + 500
        0x0001c0f0:    2e02        ..      CMP      r6,#2
        0x0001c0f2:    d127        '.      BNE      0x1c144 ; hidd_control_xfer_cb + 500
        0x0001c0f4:    8860        `.      LDRH     r0,[r4,#2]
        0x0001c0f6:    0a01        ..      LSRS     r1,r0,#8
        0x0001c0f8:    468b        .F      MOV      r11,r1
        0x0001c0fa:    8860        `.      LDRH     r0,[r4,#2]
        0x0001c0fc:    b2c1        ..      UXTB     r1,r0
        0x0001c0fe:    4688        .F      MOV      r8,r1
        0x0001c100:    f1050a48    ..H.    ADD      r10,r5,#0x48
        0x0001c104:    88e0        ..      LDRH     r0,[r4,#6]
        0x0001c106:    2140        @!      MOVS     r1,#0x40
        0x0001c108:    4288        .B      CMP      r0,r1
        0x0001c10a:    da03        ..      BGE      0x1c114 ; hidd_control_xfer_cb + 452
        0x0001c10c:    4602        .F      MOV      r2,r0
        0x0001c10e:    e002        ..      B        0x1c116 ; hidd_control_xfer_cb + 454
        0x0001c110:    e051        Q.      B        0x1c1b6 ; hidd_control_xfer_cb + 614
        0x0001c112:    e04d        M.      B        0x1c1b0 ; hidd_control_xfer_cb + 608
        0x0001c114:    460a        .F      MOV      r2,r1
        0x0001c116:    4617        .F      MOV      r7,r2
        0x0001c118:    bf00        ..      NOP      
        0x0001c11a:    f1b80f00    ....    CMP      r8,#0
        0x0001c11e:    d009        ..      BEQ      0x1c134 ; hidd_control_xfer_cb + 484
        0x0001c120:    2f01        ./      CMP      r7,#1
        0x0001c122:    dd07        ..      BLE      0x1c134 ; hidd_control_xfer_cb + 484
        0x0001c124:    f89a0000    ....    LDRB     r0,[r10,#0]
        0x0001c128:    4540        @E      CMP      r0,r8
        0x0001c12a:    d103        ..      BNE      0x1c134 ; hidd_control_xfer_cb + 484
        0x0001c12c:    f10a0a01    ....    ADD      r10,r10,#1
        0x0001c130:    1e78        x.      SUBS     r0,r7,#1
        0x0001c132:    b287        ..      UXTH     r7,r0
        0x0001c134:    4653        SF      MOV      r3,r10
        0x0001c136:    465a        ZF      MOV      r2,r11
        0x0001c138:    4641        AF      MOV      r1,r8
        0x0001c13a:    4648        HF      MOV      r0,r9
        0x0001c13c:    9700        ..      STR      r7,[sp,#0]
        0x0001c13e:    f001faa5    ....    BL       tud_hid_set_report_cb ; 0x1d68c
        0x0001c142:    bf00        ..      NOP      
        0x0001c144:    e036        6.      B        0x1c1b4 ; hidd_control_xfer_cb + 612
        0x0001c146:    b98e        ..      CBNZ     r6,0x1c16c ; hidd_control_xfer_cb + 540
        0x0001c148:    8860        `.      LDRH     r0,[r4,#2]
        0x0001c14a:    0a01        ..      LSRS     r1,r0,#8
        0x0001c14c:    7169        iq      STRB     r1,[r5,#5]
        0x0001c14e:    4825        %H      LDR      r0,[pc,#148] ; [0x1c1e4] = 0
        0x0001c150:    b140        @.      CBZ      r0,0x1c164 ; hidd_control_xfer_cb + 532
        0x0001c152:    bf00        ..      NOP      
        0x0001c154:    7969        iy      LDRB     r1,[r5,#5]
        0x0001c156:    4648        HF      MOV      r0,r9
        0x0001c158:    f3af8000    ....    NOP.W    
        0x0001c15c:    b908        ..      CBNZ     r0,0x1c162 ; hidd_control_xfer_cb + 530
        0x0001c15e:    2000        .       MOVS     r0,#0
        0x0001c160:    e702        ..      B        0x1bf68 ; hidd_control_xfer_cb + 24
        0x0001c162:    bf00        ..      NOP      
        0x0001c164:    4621        !F      MOV      r1,r4
        0x0001c166:    9802        ..      LDR      r0,[sp,#8]
        0x0001c168:    f001f962    ..b.    BL       tud_control_status ; 0x1d430
        0x0001c16c:    e022        ".      B        0x1c1b4 ; hidd_control_xfer_cb + 612
        0x0001c16e:    b92e        ..      CBNZ     r6,0x1c17c ; hidd_control_xfer_cb + 556
        0x0001c170:    2301        .#      MOVS     r3,#1
        0x0001c172:    1d6a        j.      ADDS     r2,r5,#5
        0x0001c174:    4621        !F      MOV      r1,r4
        0x0001c176:    9802        ..      LDR      r0,[sp,#8]
        0x0001c178:    f001f96e    ..n.    BL       tud_control_xfer ; 0x1d458
        0x0001c17c:    e01a        ..      B        0x1c1b4 ; hidd_control_xfer_cb + 612
        0x0001c17e:    b92e        ..      CBNZ     r6,0x1c18c ; hidd_control_xfer_cb + 572
        0x0001c180:    2301        .#      MOVS     r3,#1
        0x0001c182:    1d2a        *.      ADDS     r2,r5,#4
        0x0001c184:    4621        !F      MOV      r1,r4
        0x0001c186:    9802        ..      LDR      r0,[sp,#8]
        0x0001c188:    f001f966    ..f.    BL       tud_control_xfer ; 0x1d458
        0x0001c18c:    e012        ..      B        0x1c1b4 ; hidd_control_xfer_cb + 612
        0x0001c18e:    b926        &.      CBNZ     r6,0x1c19a ; hidd_control_xfer_cb + 586
        0x0001c190:    4621        !F      MOV      r1,r4
        0x0001c192:    9802        ..      LDR      r0,[sp,#8]
        0x0001c194:    f001f94c    ..L.    BL       tud_control_status ; 0x1d430
        0x0001c198:    e009        ..      B        0x1c1ae ; hidd_control_xfer_cb + 606
        0x0001c19a:    2e02        ..      CMP      r6,#2
        0x0001c19c:    d107        ..      BNE      0x1c1ae ; hidd_control_xfer_cb + 606
        0x0001c19e:    78a0        .x      LDRB     r0,[r4,#2]
        0x0001c1a0:    7128        (q      STRB     r0,[r5,#4]
        0x0001c1a2:    4811        .H      LDR      r0,[pc,#68] ; [0x1c1e8] = 0
        0x0001c1a4:    b118        ..      CBZ      r0,0x1c1ae ; hidd_control_xfer_cb + 606
        0x0001c1a6:    7929        )y      LDRB     r1,[r5,#4]
        0x0001c1a8:    4648        HF      MOV      r0,r9
        0x0001c1aa:    f3af8000    ....    NOP.W    
        0x0001c1ae:    e001        ..      B        0x1c1b4 ; hidd_control_xfer_cb + 612
        0x0001c1b0:    2000        .       MOVS     r0,#0
        0x0001c1b2:    e6d9        ..      B        0x1bf68 ; hidd_control_xfer_cb + 24
        0x0001c1b4:    e001        ..      B        0x1c1ba ; hidd_control_xfer_cb + 618
        0x0001c1b6:    2000        .       MOVS     r0,#0
        0x0001c1b8:    e6d6        ..      B        0x1bf68 ; hidd_control_xfer_cb + 24
        0x0001c1ba:    2001        .       MOVS     r0,#1
        0x0001c1bc:    e6d4        ..      B        0x1bf68 ; hidd_control_xfer_cb + 24
    $d
        0x0001c1be:    0000        ..      DCW    0
        0x0001c1c0:    10000268    h...    DCD    268436072
        0x0001c1c4:    0001e690    ....    DCD    124560
        0x0001c1c8:    25207325    %s %    DCD    622883621
        0x0001c1cc:    41203a64    d: A    DCD    1092631140
        0x0001c1d0:    52455353    SSER    DCD    1380275027
        0x0001c1d4:    41462054    T FA    DCD    1095114836
        0x0001c1d8:    44454c49    ILED    DCD    1145392201
        0x0001c1dc:    00000a0d    ....    DCD    2573
        0x0001c1e0:    e000edf0    ....    DCD    3758157296
        0x0001c1e4:    00000000    ....    DCD    0
        0x0001c1e8:    00000000    ....    DCD    0
    $t
    i.hidd_init
    hidd_init
        0x0001c1ec:    b510        ..      PUSH     {r4,lr}
        0x0001c1ee:    2000        .       MOVS     r0,#0
        0x0001c1f0:    f000f8d4    ....    BL       hidd_reset ; 0x1c39c
        0x0001c1f4:    bd10        ..      POP      {r4,pc}
        0x0001c1f6:    0000        ..      MOVS     r0,r0
    i.hidd_open
    hidd_open
        0x0001c1f8:    e92d47fc    -..G    PUSH     {r2-r10,lr}
        0x0001c1fc:    4682        .F      MOV      r10,r0
        0x0001c1fe:    460d        .F      MOV      r5,r1
        0x0001c200:    4691        .F      MOV      r9,r2
        0x0001c202:    bf00        ..      NOP      
        0x0001c204:    7968        hy      LDRB     r0,[r5,#5]
        0x0001c206:    2803        .(      CMP      r0,#3
        0x0001c208:    d002        ..      BEQ      0x1c210 ; hidd_open + 24
        0x0001c20a:    2000        .       MOVS     r0,#0
        0x0001c20c:    e8bd87fc    ....    POP      {r2-r10,pc}
        0x0001c210:    bf00        ..      NOP      
        0x0001c212:    7928        (y      LDRB     r0,[r5,#4]
        0x0001c214:    ebc000c0    ....    RSB      r0,r0,r0,LSL #3
        0x0001c218:    f1000812    ....    ADD      r8,r0,#0x12
        0x0001c21c:    bf00        ..      NOP      
        0x0001c21e:    45c1        .E      CMP      r9,r8
        0x0001c220:    da0e        ..      BGE      0x1c240 ; hidd_open + 72
        0x0001c222:    22be        ."      MOVS     r2,#0xbe
        0x0001c224:    494e        NI      LDR      r1,[pc,#312] ; [0x1c360] = 0x1e634
        0x0001c226:    a04f        O.      ADR      r0,{pc}+0x13e ; 0x1c364
        0x0001c228:    f7feffc6    ....    BL       am_util_stdio_printf ; 0x1b1b8
        0x0001c22c:    bf00        ..      NOP      
        0x0001c22e:    4853        SH      LDR      r0,[pc,#332] ; [0x1c37c] = 0xe000edf0
        0x0001c230:    6801        .h      LDR      r1,[r0,#0]
        0x0001c232:    f0010101    ....    AND      r1,r1,#1
        0x0001c236:    b101        ..      CBZ      r1,0x1c23a ; hidd_open + 66
        0x0001c238:    be00        ..      BKPT     #0
        0x0001c23a:    bf00        ..      NOP      
        0x0001c23c:    2000        .       MOVS     r0,#0
        0x0001c23e:    e7e5        ..      B        0x1c20c ; hidd_open + 20
        0x0001c240:    bf00        ..      NOP      
        0x0001c242:    2400        .$      MOVS     r4,#0
        0x0001c244:    2600        .&      MOVS     r6,#0
        0x0001c246:    e011        ..      B        0x1c26c ; hidd_open + 116
        0x0001c248:    ebc600c6    ....    RSB      r0,r6,r6,LSL #3
        0x0001c24c:    eb000080    ....    ADD      r0,r0,r0,LSL #2
        0x0001c250:    494b        KI      LDR      r1,[pc,#300] ; [0x1c380] = 0x10000268
        0x0001c252:    eb010080    ....    ADD      r0,r1,r0,LSL #2
        0x0001c256:    7840        @x      LDRB     r0,[r0,#1]
        0x0001c258:    b930        0.      CBNZ     r0,0x1c268 ; hidd_open + 112
        0x0001c25a:    ebc600c6    ....    RSB      r0,r6,r6,LSL #3
        0x0001c25e:    eb000080    ....    ADD      r0,r0,r0,LSL #2
        0x0001c262:    eb010480    ....    ADD      r4,r1,r0,LSL #2
        0x0001c266:    e003        ..      B        0x1c270 ; hidd_open + 120
        0x0001c268:    1c70        p.      ADDS     r0,r6,#1
        0x0001c26a:    b2c6        ..      UXTB     r6,r0
        0x0001c26c:    2e01        ..      CMP      r6,#1
        0x0001c26e:    dbeb        ..      BLT      0x1c248 ; hidd_open + 80
        0x0001c270:    bf00        ..      NOP      
        0x0001c272:    bf00        ..      NOP      
        0x0001c274:    b974        t.      CBNZ     r4,0x1c294 ; hidd_open + 156
        0x0001c276:    22cb        ."      MOVS     r2,#0xcb
        0x0001c278:    4939        9I      LDR      r1,[pc,#228] ; [0x1c360] = 0x1e634
        0x0001c27a:    a03a        :.      ADR      r0,{pc}+0xea ; 0x1c364
        0x0001c27c:    f7feff9c    ....    BL       am_util_stdio_printf ; 0x1b1b8
        0x0001c280:    bf00        ..      NOP      
        0x0001c282:    483e        >H      LDR      r0,[pc,#248] ; [0x1c37c] = 0xe000edf0
        0x0001c284:    6801        .h      LDR      r1,[r0,#0]
        0x0001c286:    f0010101    ....    AND      r1,r1,#1
        0x0001c28a:    b101        ..      CBZ      r1,0x1c28e ; hidd_open + 150
        0x0001c28c:    be00        ..      BKPT     #0
        0x0001c28e:    bf00        ..      NOP      
        0x0001c290:    2000        .       MOVS     r0,#0
        0x0001c292:    e7bb        ..      B        0x1c20c ; hidd_open + 20
        0x0001c294:    bf00        ..      NOP      
        0x0001c296:    462f        /F      MOV      r7,r5
        0x0001c298:    4638        8F      MOV      r0,r7
        0x0001c29a:    f000ff9f    ....    BL       tu_desc_next ; 0x1d1dc
        0x0001c29e:    4607        .F      MOV      r7,r0
        0x0001c2a0:    bf00        ..      NOP      
        0x0001c2a2:    bf00        ..      NOP      
        0x0001c2a4:    7878        xx      LDRB     r0,[r7,#1]
        0x0001c2a6:    2821        !(      CMP      r0,#0x21
        0x0001c2a8:    d00e        ..      BEQ      0x1c2c8 ; hidd_open + 208
        0x0001c2aa:    22d1        ."      MOVS     r2,#0xd1
        0x0001c2ac:    492c        ,I      LDR      r1,[pc,#176] ; [0x1c360] = 0x1e634
        0x0001c2ae:    a02d        -.      ADR      r0,{pc}+0xb6 ; 0x1c364
        0x0001c2b0:    f7feff82    ....    BL       am_util_stdio_printf ; 0x1b1b8
        0x0001c2b4:    bf00        ..      NOP      
        0x0001c2b6:    4831        1H      LDR      r0,[pc,#196] ; [0x1c37c] = 0xe000edf0
        0x0001c2b8:    6801        .h      LDR      r1,[r0,#0]
        0x0001c2ba:    f0010101    ....    AND      r1,r1,#1
        0x0001c2be:    b101        ..      CBZ      r1,0x1c2c2 ; hidd_open + 202
        0x0001c2c0:    be00        ..      BKPT     #0
        0x0001c2c2:    bf00        ..      NOP      
        0x0001c2c4:    2000        .       MOVS     r0,#0
        0x0001c2c6:    e7a1        ..      B        0x1c20c ; hidd_open + 20
        0x0001c2c8:    bf00        ..      NOP      
        0x0001c2ca:    f8c47088    ...p    STR      r7,[r4,#0x88]
        0x0001c2ce:    4638        8F      MOV      r0,r7
        0x0001c2d0:    f000ff84    ....    BL       tu_desc_next ; 0x1d1dc
        0x0001c2d4:    4607        .F      MOV      r7,r0
        0x0001c2d6:    bf00        ..      NOP      
        0x0001c2d8:    1c60        `.      ADDS     r0,r4,#1
        0x0001c2da:    1ca1        ..      ADDS     r1,r4,#2
        0x0001c2dc:    e9cd1000    ....    STRD     r1,r0,[sp,#0]
        0x0001c2e0:    792a        *y      LDRB     r2,[r5,#4]
        0x0001c2e2:    2303        .#      MOVS     r3,#3
        0x0001c2e4:    4639        9F      MOV      r1,r7
        0x0001c2e6:    4650        PF      MOV      r0,r10
        0x0001c2e8:    f001ff4a    ..J.    BL       usbd_open_edpt_pair ; 0x1e180
        0x0001c2ec:    b970        p.      CBNZ     r0,0x1c30c ; hidd_open + 276
        0x0001c2ee:    22d6        ."      MOVS     r2,#0xd6
        0x0001c2f0:    491b        .I      LDR      r1,[pc,#108] ; [0x1c360] = 0x1e634
        0x0001c2f2:    a01c        ..      ADR      r0,{pc}+0x72 ; 0x1c364
        0x0001c2f4:    f7feff60    ..`.    BL       am_util_stdio_printf ; 0x1b1b8
        0x0001c2f8:    bf00        ..      NOP      
        0x0001c2fa:    4820         H      LDR      r0,[pc,#128] ; [0x1c37c] = 0xe000edf0
        0x0001c2fc:    6801        .h      LDR      r1,[r0,#0]
        0x0001c2fe:    f0010101    ....    AND      r1,r1,#1
        0x0001c302:    b101        ..      CBZ      r1,0x1c306 ; hidd_open + 270
        0x0001c304:    be00        ..      BKPT     #0
        0x0001c306:    bf00        ..      NOP      
        0x0001c308:    2000        .       MOVS     r0,#0
        0x0001c30a:    e77f        ..      B        0x1c20c ; hidd_open + 20
        0x0001c30c:    bf00        ..      NOP      
        0x0001c30e:    79a8        .y      LDRB     r0,[r5,#6]
        0x0001c310:    2801        .(      CMP      r0,#1
        0x0001c312:    d101        ..      BNE      0x1c318 ; hidd_open + 288
        0x0001c314:    79e8        .y      LDRB     r0,[r5,#7]
        0x0001c316:    70e0        .p      STRB     r0,[r4,#3]
        0x0001c318:    2001        .       MOVS     r0,#1
        0x0001c31a:    7120         q      STRB     r0,[r4,#4]
        0x0001c31c:    78a8        .x      LDRB     r0,[r5,#2]
        0x0001c31e:    7020         p      STRB     r0,[r4,#0]
        0x0001c320:    f8d41088    ....    LDR      r1,[r4,#0x88]
        0x0001c324:    1dc8        ..      ADDS     r0,r1,#7
        0x0001c326:    4601        .F      MOV      r1,r0
        0x0001c328:    880a        ..      LDRH     r2,[r1,#0]
        0x0001c32a:    80e2        ..      STRH     r2,[r4,#6]
        0x0001c32c:    78a0        .x      LDRB     r0,[r4,#2]
        0x0001c32e:    b1a0        ..      CBZ      r0,0x1c35a ; hidd_open + 354
        0x0001c330:    78a1        .x      LDRB     r1,[r4,#2]
        0x0001c332:    2340        @#      MOVS     r3,#0x40
        0x0001c334:    f1040248    ..H.    ADD      r2,r4,#0x48
        0x0001c338:    4650        PF      MOV      r0,r10
        0x0001c33a:    f001fe95    ....    BL       usbd_edpt_xfer ; 0x1e068
        0x0001c33e:    b960        `.      CBNZ     r0,0x1c35a ; hidd_open + 354
        0x0001c340:    22e5        ."      MOVS     r2,#0xe5
        0x0001c342:    4910        .I      LDR      r1,[pc,#64] ; [0x1c384] = 0x1e63e
        0x0001c344:    a010        ..      ADR      r0,{pc}+0x44 ; 0x1c388
        0x0001c346:    f7feff37    ..7.    BL       am_util_stdio_printf ; 0x1b1b8
        0x0001c34a:    bf00        ..      NOP      
        0x0001c34c:    480b        .H      LDR      r0,[pc,#44] ; [0x1c37c] = 0xe000edf0
        0x0001c34e:    6801        .h      LDR      r1,[r0,#0]
        0x0001c350:    f0010101    ....    AND      r1,r1,#1
        0x0001c354:    b101        ..      CBZ      r1,0x1c358 ; hidd_open + 352
        0x0001c356:    be00        ..      BKPT     #0
        0x0001c358:    bf00        ..      NOP      
        0x0001c35a:    4640        @F      MOV      r0,r8
        0x0001c35c:    e756        V.      B        0x1c20c ; hidd_open + 20
    $d
        0x0001c35e:    0000        ..      DCW    0
        0x0001c360:    0001e634    4...    DCD    124468
        0x0001c364:    25207325    %s %    DCD    622883621
        0x0001c368:    41203a64    d: A    DCD    1092631140
        0x0001c36c:    52455353    SSER    DCD    1380275027
        0x0001c370:    41462054    T FA    DCD    1095114836
        0x0001c374:    44454c49    ILED    DCD    1145392201
        0x0001c378:    00000a0d    ....    DCD    2573
        0x0001c37c:    e000edf0    ....    DCD    3758157296
        0x0001c380:    10000268    h...    DCD    268436072
        0x0001c384:    0001e63e    >...    DCD    124478
        0x0001c388:    203a7325    %s:     DCD    540701477
        0x0001c38c:    203a6425    %d:     DCD    540697637
        0x0001c390:    6c696146    Fail    DCD    1818845510
        0x0001c394:    0a0d6465    ed..    DCD    168649829
        0x0001c398:    00000000    ....    DCD    0
    $t
    i.hidd_reset
    hidd_reset
        0x0001c39c:    b510        ..      PUSH     {r4,lr}
        0x0001c39e:    4604        .F      MOV      r4,r0
        0x0001c3a0:    218c        .!      MOVS     r1,#0x8c
        0x0001c3a2:    4802        .H      LDR      r0,[pc,#8] ; [0x1c3ac] = 0x10000268
        0x0001c3a4:    f7fcf907    ....    BL       __aeabi_memclr4 ; 0x185b6
        0x0001c3a8:    bd10        ..      POP      {r4,pc}
    $d
        0x0001c3aa:    0000        ..      DCW    0
        0x0001c3ac:    10000268    h...    DCD    268436072
    $t
    i.hidd_xfer_cb
    hidd_xfer_cb
        0x0001c3b0:    e92d43f8    -..C    PUSH     {r3-r9,lr}
        0x0001c3b4:    4680        .F      MOV      r8,r0
        0x0001c3b6:    460d        .F      MOV      r5,r1
        0x0001c3b8:    4691        .F      MOV      r9,r2
        0x0001c3ba:    461f        .F      MOV      r7,r3
        0x0001c3bc:    2600        .&      MOVS     r6,#0
        0x0001c3be:    4c2f        /L      LDR      r4,[pc,#188] ; [0x1c47c] = 0x10000268
        0x0001c3c0:    bf00        ..      NOP      
        0x0001c3c2:    e00f        ..      B        0x1c3e4 ; hidd_xfer_cb + 52
        0x0001c3c4:    ebc600c6    ....    RSB      r0,r6,r6,LSL #3
        0x0001c3c8:    eb000080    ....    ADD      r0,r0,r0,LSL #2
        0x0001c3cc:    492b        +I      LDR      r1,[pc,#172] ; [0x1c47c] = 0x10000268
        0x0001c3ce:    eb010480    ....    ADD      r4,r1,r0,LSL #2
        0x0001c3d2:    78a0        .x      LDRB     r0,[r4,#2]
        0x0001c3d4:    42a8        .B      CMP      r0,r5
        0x0001c3d6:    d002        ..      BEQ      0x1c3de ; hidd_xfer_cb + 46
        0x0001c3d8:    7860        `x      LDRB     r0,[r4,#1]
        0x0001c3da:    42a8        .B      CMP      r0,r5
        0x0001c3dc:    d100        ..      BNE      0x1c3e0 ; hidd_xfer_cb + 48
        0x0001c3de:    e003        ..      B        0x1c3e8 ; hidd_xfer_cb + 56
        0x0001c3e0:    1c70        p.      ADDS     r0,r6,#1
        0x0001c3e2:    b2c6        ..      UXTB     r6,r0
        0x0001c3e4:    2e01        ..      CMP      r6,#1
        0x0001c3e6:    dbed        ..      BLT      0x1c3c4 ; hidd_xfer_cb + 20
        0x0001c3e8:    bf00        ..      NOP      
        0x0001c3ea:    bf00        ..      NOP      
        0x0001c3ec:    2e01        ..      CMP      r6,#1
        0x0001c3ee:    db10        ..      BLT      0x1c412 ; hidd_xfer_cb + 98
        0x0001c3f0:    f240128d    @...    MOV      r2,#0x18d
        0x0001c3f4:    4922        "I      LDR      r1,[pc,#136] ; [0x1c480] = 0x1e6a5
        0x0001c3f6:    a023        #.      ADR      r0,{pc}+0x8e ; 0x1c484
        0x0001c3f8:    f7fefede    ....    BL       am_util_stdio_printf ; 0x1b1b8
        0x0001c3fc:    bf00        ..      NOP      
        0x0001c3fe:    4827        'H      LDR      r0,[pc,#156] ; [0x1c49c] = 0xe000edf0
        0x0001c400:    6801        .h      LDR      r1,[r0,#0]
        0x0001c402:    f0010101    ....    AND      r1,r1,#1
        0x0001c406:    b101        ..      CBZ      r1,0x1c40a ; hidd_xfer_cb + 90
        0x0001c408:    be00        ..      BKPT     #0
        0x0001c40a:    bf00        ..      NOP      
        0x0001c40c:    2000        .       MOVS     r0,#0
        0x0001c40e:    e8bd83f8    ....    POP      {r3-r9,pc}
        0x0001c412:    bf00        ..      NOP      
        0x0001c414:    7860        `x      LDRB     r0,[r4,#1]
        0x0001c416:    42a8        .B      CMP      r0,r5
        0x0001c418:    d108        ..      BNE      0x1c42c ; hidd_xfer_cb + 124
        0x0001c41a:    4821        !H      LDR      r0,[pc,#132] ; [0x1c4a0] = 0
        0x0001c41c:    b360        `.      CBZ      r0,0x1c478 ; hidd_xfer_cb + 200
        0x0001c41e:    b2fa        ..      UXTB     r2,r7
        0x0001c420:    f1040108    ....    ADD      r1,r4,#8
        0x0001c424:    4630        0F      MOV      r0,r6
        0x0001c426:    f3af8000    ....    NOP.W    
        0x0001c42a:    e025        %.      B        0x1c478 ; hidd_xfer_cb + 200
        0x0001c42c:    78a0        .x      LDRB     r0,[r4,#2]
        0x0001c42e:    42a8        .B      CMP      r0,r5
        0x0001c430:    d122        ".      BNE      0x1c478 ; hidd_xfer_cb + 200
        0x0001c432:    b2b8        ..      UXTH     r0,r7
        0x0001c434:    f1040348    ..H.    ADD      r3,r4,#0x48
        0x0001c438:    2200        ."      MOVS     r2,#0
        0x0001c43a:    4611        .F      MOV      r1,r2
        0x0001c43c:    9000        ..      STR      r0,[sp,#0]
        0x0001c43e:    4630        0F      MOV      r0,r6
        0x0001c440:    f001f924    ..$.    BL       tud_hid_set_report_cb ; 0x1d68c
        0x0001c444:    bf00        ..      NOP      
        0x0001c446:    78a1        .x      LDRB     r1,[r4,#2]
        0x0001c448:    2340        @#      MOVS     r3,#0x40
        0x0001c44a:    f1040248    ..H.    ADD      r2,r4,#0x48
        0x0001c44e:    4640        @F      MOV      r0,r8
        0x0001c450:    f001fe0a    ....    BL       usbd_edpt_xfer ; 0x1e068
        0x0001c454:    b978        x.      CBNZ     r0,0x1c476 ; hidd_xfer_cb + 198
        0x0001c456:    f240129b    @...    MOV      r2,#0x19b
        0x0001c45a:    4909        .I      LDR      r1,[pc,#36] ; [0x1c480] = 0x1e6a5
        0x0001c45c:    a009        ..      ADR      r0,{pc}+0x28 ; 0x1c484
        0x0001c45e:    f7fefeab    ....    BL       am_util_stdio_printf ; 0x1b1b8
        0x0001c462:    bf00        ..      NOP      
        0x0001c464:    480d        .H      LDR      r0,[pc,#52] ; [0x1c49c] = 0xe000edf0
        0x0001c466:    6801        .h      LDR      r1,[r0,#0]
        0x0001c468:    f0010101    ....    AND      r1,r1,#1
        0x0001c46c:    b101        ..      CBZ      r1,0x1c470 ; hidd_xfer_cb + 192
        0x0001c46e:    be00        ..      BKPT     #0
        0x0001c470:    bf00        ..      NOP      
        0x0001c472:    2000        .       MOVS     r0,#0
        0x0001c474:    e7cb        ..      B        0x1c40e ; hidd_xfer_cb + 94
        0x0001c476:    bf00        ..      NOP      
        0x0001c478:    2001        .       MOVS     r0,#1
        0x0001c47a:    e7c8        ..      B        0x1c40e ; hidd_xfer_cb + 94
    $d
        0x0001c47c:    10000268    h...    DCD    268436072
        0x0001c480:    0001e6a5    ....    DCD    124581
        0x0001c484:    25207325    %s %    DCD    622883621
        0x0001c488:    41203a64    d: A    DCD    1092631140
        0x0001c48c:    52455353    SSER    DCD    1380275027
        0x0001c490:    41462054    T FA    DCD    1095114836
        0x0001c494:    44454c49    ILED    DCD    1145392201
        0x0001c498:    00000a0d    ....    DCD    2573
        0x0001c49c:    e000edf0    ....    DCD    3758157296
        0x0001c4a0:    00000000    ....    DCD    0
    $t
    i.invoke_class_control
    invoke_class_control
        0x0001c4a4:    b570        p.      PUSH     {r4-r6,lr}
        0x0001c4a6:    4605        .F      MOV      r5,r0
        0x0001c4a8:    460c        .F      MOV      r4,r1
        0x0001c4aa:    4616        .F      MOV      r6,r2
        0x0001c4ac:    6920         i      LDR      r0,[r4,#0x10]
        0x0001c4ae:    f001fc15    ....    BL       usbd_control_set_complete_callback ; 0x1dcdc
        0x0001c4b2:    a005        ..      ADR      r0,{pc}+0x16 ; 0x1c4c8
        0x0001c4b4:    6821        !h      LDR      r1,[r4,#0]
        0x0001c4b6:    f7fefe7f    ....    BL       am_util_stdio_printf ; 0x1b1b8
        0x0001c4ba:    4632        2F      MOV      r2,r6
        0x0001c4bc:    2100        .!      MOVS     r1,#0
        0x0001c4be:    4628        (F      MOV      r0,r5
        0x0001c4c0:    6923        #i      LDR      r3,[r4,#0x10]
        0x0001c4c2:    4798        .G      BLX      r3
        0x0001c4c4:    bd70        p.      POP      {r4-r6,pc}
    $d
        0x0001c4c6:    0000        ..      DCW    0
        0x0001c4c8:    73252020      %s    DCD    1931812896
        0x0001c4cc:    6e6f6320     con    DCD    1852793632
        0x0001c4d0:    6c6f7274    trol    DCD    1819243124
        0x0001c4d4:    71657220     req    DCD    1902473760
        0x0001c4d8:    74736575    uest    DCD    1953719669
        0x0001c4dc:    00000a0d    ....    DCD    2573
    $t
    i.led_blinking_task
    led_blinking_task
        0x0001c4e0:    b510        ..      PUSH     {r4,lr}
        0x0001c4e2:    f7fff8ca    ....    BL       board_millis ; 0x1b67a
        0x0001c4e6:    490d        .I      LDR      r1,[pc,#52] ; [0x1c51c] = 0x10000014
        0x0001c4e8:    6809        .h      LDR      r1,[r1,#0]
        0x0001c4ea:    1a40        @.      SUBS     r0,r0,r1
        0x0001c4ec:    490c        .I      LDR      r1,[pc,#48] ; [0x1c520] = 0x10000000
        0x0001c4ee:    6809        .h      LDR      r1,[r1,#0]
        0x0001c4f0:    4288        .B      CMP      r0,r1
        0x0001c4f2:    d200        ..      BCS      0x1c4f6 ; led_blinking_task + 22
        0x0001c4f4:    bd10        ..      POP      {r4,pc}
        0x0001c4f6:    4809        .H      LDR      r0,[pc,#36] ; [0x1c51c] = 0x10000014
        0x0001c4f8:    6800        .h      LDR      r0,[r0,#0]
        0x0001c4fa:    4909        .I      LDR      r1,[pc,#36] ; [0x1c520] = 0x10000000
        0x0001c4fc:    6809        .h      LDR      r1,[r1,#0]
        0x0001c4fe:    4408        .D      ADD      r0,r0,r1
        0x0001c500:    4906        .I      LDR      r1,[pc,#24] ; [0x1c51c] = 0x10000014
        0x0001c502:    6008        .`      STR      r0,[r1,#0]
        0x0001c504:    4807        .H      LDR      r0,[pc,#28] ; [0x1c524] = 0x10000018
        0x0001c506:    7800        .x      LDRB     r0,[r0,#0]
        0x0001c508:    f7fff8b6    ....    BL       board_led_write ; 0x1b678
        0x0001c50c:    4805        .H      LDR      r0,[pc,#20] ; [0x1c524] = 0x10000018
        0x0001c50e:    7800        .x      LDRB     r0,[r0,#0]
        0x0001c510:    f1c00001    ....    RSB      r0,r0,#1
        0x0001c514:    4903        .I      LDR      r1,[pc,#12] ; [0x1c524] = 0x10000018
        0x0001c516:    7008        .p      STRB     r0,[r1,#0]
        0x0001c518:    bf00        ..      NOP      
        0x0001c51a:    e7eb        ..      B        0x1c4f4 ; led_blinking_task + 20
    $d
        0x0001c51c:    10000014    ....    DCD    268435476
        0x0001c520:    10000000    ....    DCD    268435456
        0x0001c524:    10000018    ....    DCD    268435480
    $t
    i.main
    main
        0x0001c528:    f7fff868    ..h.    BL       board_init ; 0x1b5fc
        0x0001c52c:    f001fb1c    ....    BL       tusb_init ; 0x1db68
        0x0001c530:    e003        ..      B        0x1c53a ; main + 18
        0x0001c532:    f001f955    ..U.    BL       tud_task ; 0x1d7e0
        0x0001c536:    f7ffffd3    ....    BL       led_blinking_task ; 0x1c4e0
        0x0001c53a:    e7fa        ..      B        0x1c532 ; main + 10
    i.ndigits_in_hex
    ndigits_in_hex
        0x0001c53c:    b530        0.      PUSH     {r4,r5,lr}
        0x0001c53e:    4602        .F      MOV      r2,r0
        0x0001c540:    460b        .F      MOV      r3,r1
        0x0001c542:    2400        .$      MOVS     r4,#0
        0x0001c544:    ea820104    ....    EOR      r1,r2,r4
        0x0001c548:    405c        \@      EORS     r4,r4,r3
        0x0001c54a:    4321        !C      ORRS     r1,r1,r4
        0x0001c54c:    d101        ..      BNE      0x1c552 ; ndigits_in_hex + 22
        0x0001c54e:    2101        .!      MOVS     r1,#1
        0x0001c550:    e000        ..      B        0x1c554 ; ndigits_in_hex + 24
        0x0001c552:    2100        .!      MOVS     r1,#0
        0x0001c554:    4608        .F      MOV      r0,r1
        0x0001c556:    e004        ..      B        0x1c562 ; ndigits_in_hex + 38
        0x0001c558:    0911        ..      LSRS     r1,r2,#4
        0x0001c55a:    ea417203    A..r    ORR      r2,r1,r3,LSL #28
        0x0001c55e:    091b        ..      LSRS     r3,r3,#4
        0x0001c560:    1c40        @.      ADDS     r0,r0,#1
        0x0001c562:    2400        .$      MOVS     r4,#0
        0x0001c564:    ea820104    ....    EOR      r1,r2,r4
        0x0001c568:    405c        \@      EORS     r4,r4,r3
        0x0001c56a:    4321        !C      ORRS     r1,r1,r4
        0x0001c56c:    d1f4        ..      BNE      0x1c558 ; ndigits_in_hex + 28
        0x0001c56e:    bd30        0.      POP      {r4,r5,pc}
    i.ndigits_in_i64
    ndigits_in_i64
        0x0001c570:    b570        p.      PUSH     {r4-r6,lr}
        0x0001c572:    4604        .F      MOV      r4,r0
        0x0001c574:    460d        .F      MOV      r5,r1
        0x0001c576:    2100        .!      MOVS     r1,#0
        0x0001c578:    4608        .F      MOV      r0,r1
        0x0001c57a:    1a61        a.      SUBS     r1,r4,r1
        0x0001c57c:    eb750000    u...    SBCS     r0,r5,r0
        0x0001c580:    da03        ..      BGE      0x1c58a ; ndigits_in_i64 + 26
        0x0001c582:    2200        ."      MOVS     r2,#0
        0x0001c584:    4264        dB      RSBS     r4,r4,#0
        0x0001c586:    eb620505    b...    SBC      r5,r2,r5
        0x0001c58a:    4620         F      MOV      r0,r4
        0x0001c58c:    4629        )F      MOV      r1,r5
        0x0001c58e:    f000f801    ....    BL       ndigits_in_u64 ; 0x1c594
        0x0001c592:    bd70        p.      POP      {r4-r6,pc}
    i.ndigits_in_u64
    ndigits_in_u64
        0x0001c594:    b570        p.      PUSH     {r4-r6,lr}
        0x0001c596:    4604        .F      MOV      r4,r0
        0x0001c598:    460d        .F      MOV      r5,r1
        0x0001c59a:    2100        .!      MOVS     r1,#0
        0x0001c59c:    ea840001    ....    EOR      r0,r4,r1
        0x0001c5a0:    4069        i@      EORS     r1,r1,r5
        0x0001c5a2:    4308        .C      ORRS     r0,r0,r1
        0x0001c5a4:    d101        ..      BNE      0x1c5aa ; ndigits_in_u64 + 22
        0x0001c5a6:    2001        .       MOVS     r0,#1
        0x0001c5a8:    e000        ..      B        0x1c5ac ; ndigits_in_u64 + 24
        0x0001c5aa:    2000        .       MOVS     r0,#0
        0x0001c5ac:    4606        .F      MOV      r6,r0
        0x0001c5ae:    e006        ..      B        0x1c5be ; ndigits_in_u64 + 42
        0x0001c5b0:    4620         F      MOV      r0,r4
        0x0001c5b2:    4629        )F      MOV      r1,r5
        0x0001c5b4:    f7fffb79    ..y.    BL       divu64_10 ; 0x1bcaa
        0x0001c5b8:    4604        .F      MOV      r4,r0
        0x0001c5ba:    460d        .F      MOV      r5,r1
        0x0001c5bc:    1c76        v.      ADDS     r6,r6,#1
        0x0001c5be:    2100        .!      MOVS     r1,#0
        0x0001c5c0:    ea840001    ....    EOR      r0,r4,r1
        0x0001c5c4:    4069        i@      EORS     r1,r1,r5
        0x0001c5c6:    4308        .C      ORRS     r0,r0,r1
        0x0001c5c8:    d1f2        ..      BNE      0x1c5b0 ; ndigits_in_u64 + 28
        0x0001c5ca:    4630        0F      MOV      r0,r6
        0x0001c5cc:    bd70        p.      POP      {r4-r6,pc}
    i.nonblocking_read_sm
    nonblocking_read_sm
        0x0001c5ce:    e92d41f0    -..A    PUSH     {r4-r8,lr}
        0x0001c5d2:    4604        .F      MOV      r4,r0
        0x0001c5d4:    f8900098    ....    LDRB     r0,[r0,#0x98]
        0x0001c5d8:    b08a        ..      SUB      sp,sp,#0x28
        0x0001c5da:    b370        p.      CBZ      r0,0x1c63a ; nonblocking_read_sm + 108
        0x0001c5dc:    4625        %F      MOV      r5,r4
        0x0001c5de:    f7fbfeab    ....    BL       am_hal_interrupt_master_disable ; 0x18338
        0x0001c5e2:    9009        ..      STR      r0,[sp,#0x24]
        0x0001c5e4:    2100        .!      MOVS     r1,#0
        0x0001c5e6:    6a6a        jj      LDR      r2,[r5,#0x24]
        0x0001c5e8:    2620         &      MOVS     r6,#0x20
        0x0001c5ea:    0310        ..      LSLS     r0,r2,#12
        0x0001c5ec:    f1004380    ...C    ADD      r3,r0,#0x40000000
        0x0001c5f0:    466f        oF      MOV      r7,sp
        0x0001c5f2:    f10d0820    .. .    ADD      r8,sp,#0x20
        0x0001c5f6:    468c        .F      MOV      r12,r1
        0x0001c5f8:    f50333e0    ...3    ADD      r3,r3,#0x1c000
        0x0001c5fc:    6998        .i      LDR      r0,[r3,#0x18]
        0x0001c5fe:    f0100f10    ....    TST      r0,#0x10
        0x0001c602:    d10a        ..      BNE      0x1c61a ; nonblocking_read_sm + 76
        0x0001c604:    681a        .h      LDR      r2,[r3,#0]
        0x0001c606:    f4126f70    ..po    TST      r2,#0xf00
        0x0001c60a:    d002        ..      BEQ      0x1c612 ; nonblocking_read_sm + 68
        0x0001c60c:    f04f6c00    O..l    MOV      r12,#0x8000000
        0x0001c610:    e003        ..      B        0x1c61a ; nonblocking_read_sm + 76
        0x0001c612:    547a        zT      STRB     r2,[r7,r1]
        0x0001c614:    1c49        I.      ADDS     r1,r1,#1
        0x0001c616:    42b1        .B      CMP      r1,r6
        0x0001c618:    d3f0        ..      BCC      0x1c5fc ; nonblocking_read_sm + 46
        0x0001c61a:    f1b80f00    ....    CMP      r8,#0
        0x0001c61e:    bf18        ..      IT       NE
        0x0001c620:    9108        ..      STRNE    r1,[sp,#0x20]
        0x0001c622:    f1bc0f00    ....    CMP      r12,#0
        0x0001c626:    d105        ..      BNE      0x1c634 ; nonblocking_read_sm + 102
        0x0001c628:    4639        9F      MOV      r1,r7
        0x0001c62a:    f105009c    ....    ADD      r0,r5,#0x9c
        0x0001c62e:    9a08        ..      LDR      r2,[sp,#0x20]
        0x0001c630:    f7fdf856    ..V.    BL       am_hal_queue_item_add ; 0x196e0
        0x0001c634:    9809        ..      LDR      r0,[sp,#0x24]
        0x0001c636:    f7fbfe83    ....    BL       am_hal_interrupt_master_set ; 0x18340
        0x0001c63a:    f894002c    ..,.    LDRB     r0,[r4,#0x2c]
        0x0001c63e:    2800        .(      CMP      r0,#0
        0x0001c640:    bf04        ..      ITT      EQ
        0x0001c642:    b00a        ..      ADDEQ    sp,sp,#0x28
        0x0001c644:    e8bd81f0    ....    POPEQ    {r4-r8,pc}
        0x0001c648:    f7fbfe76    ..v.    BL       am_hal_interrupt_master_disable ; 0x18338
        0x0001c64c:    9001        ..      STR      r0,[sp,#4]
        0x0001c64e:    6d20         m      LDR      r0,[r4,#0x50]
        0x0001c650:    6ba1        .k      LDR      r1,[r4,#0x38]
        0x0001c652:    1a0a        ..      SUBS     r2,r1,r0
        0x0001c654:    6b61        ak      LDR      r1,[r4,#0x34]
        0x0001c656:    2500        .%      MOVS     r5,#0
        0x0001c658:    4401        .D      ADD      r1,r1,r0
        0x0001c65a:    9500        ..      STR      r5,[sp,#0]
        0x0001c65c:    f8940098    ....    LDRB     r0,[r4,#0x98]
        0x0001c660:    b1a0        ..      CBZ      r0,0x1c68c ; nonblocking_read_sm + 190
        0x0001c662:    f8d400a4    ....    LDR      r0,[r4,#0xa4]
        0x0001c666:    4282        .B      CMP      r2,r0
        0x0001c668:    bf28        (.      IT       CS
        0x0001c66a:    4602        .F      MOVCS    r2,r0
        0x0001c66c:    f104009c    ....    ADD      r0,r4,#0x9c
        0x0001c670:    9200        ..      STR      r2,[sp,#0]
        0x0001c672:    f7fdf860    ..`.    BL       am_hal_queue_item_get ; 0x19736
        0x0001c676:    bb28        (.      CBNZ     r0,0x1c6c4 ; nonblocking_read_sm + 246
        0x0001c678:    f884502c    ..,P    STRB     r5,[r4,#0x2c]
        0x0001c67c:    6c62        bl      LDR      r2,[r4,#0x44]
        0x0001c67e:    b30a        ..      CBZ      r2,0x1c6c4 ; nonblocking_read_sm + 246
        0x0001c680:    2001        .       MOVS     r0,#1
        0x0001c682:    6ca1        .l      LDR      r1,[r4,#0x48]
        0x0001c684:    4790        .G      BLX      r2
        0x0001c686:    b00a        ..      ADD      sp,sp,#0x28
        0x0001c688:    e8bd81f0    ....    POP      {r4-r8,pc}
        0x0001c68c:    2000        .       MOVS     r0,#0
        0x0001c68e:    6a63        cj      LDR      r3,[r4,#0x24]
        0x0001c690:    466e        nF      MOV      r6,sp
        0x0001c692:    2a00        .*      CMP      r2,#0
        0x0001c694:    bf82        ..      ITTT     HI
        0x0001c696:    031b        ..      LSLHI    r3,r3,#12
        0x0001c698:    f1034c80    ...L    ADDHI    r12,r3,#0x40000000
        0x0001c69c:    f50c3ce0    ...<    ADDHI    r12,r12,#0x1c000
        0x0001c6a0:    d90d        ..      BLS      0x1c6be ; nonblocking_read_sm + 240
        0x0001c6a2:    f8dc3018    ...0    LDR      r3,[r12,#0x18]
        0x0001c6a6:    f0130f10    ....    TST      r3,#0x10
        0x0001c6aa:    bf04        ..      ITT      EQ
        0x0001c6ac:    f8dc3000    ...0    LDREQ    r3,[r12,#0]
        0x0001c6b0:    f4136f70    ..po    TSTEQ    r3,#0xf00
        0x0001c6b4:    d103        ..      BNE      0x1c6be ; nonblocking_read_sm + 240
        0x0001c6b6:    540b        .T      STRB     r3,[r1,r0]
        0x0001c6b8:    1c40        @.      ADDS     r0,r0,#1
        0x0001c6ba:    4290        .B      CMP      r0,r2
        0x0001c6bc:    d3f1        ..      BCC      0x1c6a2 ; nonblocking_read_sm + 212
        0x0001c6be:    2e00        ..      CMP      r6,#0
        0x0001c6c0:    bf18        ..      IT       NE
        0x0001c6c2:    9000        ..      STRNE    r0,[sp,#0]
        0x0001c6c4:    6d20         m      LDR      r0,[r4,#0x50]
        0x0001c6c6:    9900        ..      LDR      r1,[sp,#0]
        0x0001c6c8:    4408        .D      ADD      r0,r0,r1
        0x0001c6ca:    6520         e      STR      r0,[r4,#0x50]
        0x0001c6cc:    9801        ..      LDR      r0,[sp,#4]
        0x0001c6ce:    f7fbfe37    ..7.    BL       am_hal_interrupt_master_set ; 0x18340
        0x0001c6d2:    6d20         m      LDR      r0,[r4,#0x50]
        0x0001c6d4:    6be1        .k      LDR      r1,[r4,#0x3c]
        0x0001c6d6:    6008        .`      STR      r0,[r1,#0]
        0x0001c6d8:    6d20         m      LDR      r0,[r4,#0x50]
        0x0001c6da:    6ba1        .k      LDR      r1,[r4,#0x38]
        0x0001c6dc:    4288        .B      CMP      r0,r1
        0x0001c6de:    bf1c        ..      ITT      NE
        0x0001c6e0:    b00a        ..      ADDNE    sp,sp,#0x28
        0x0001c6e2:    e8bd81f0    ....    POPNE    {r4-r8,pc}
        0x0001c6e6:    f884502c    ..,P    STRB     r5,[r4,#0x2c]
        0x0001c6ea:    6c62        bl      LDR      r2,[r4,#0x44]
        0x0001c6ec:    2a00        .*      CMP      r2,#0
        0x0001c6ee:    bf04        ..      ITT      EQ
        0x0001c6f0:    b00a        ..      ADDEQ    sp,sp,#0x28
        0x0001c6f2:    e8bd81f0    ....    POPEQ    {r4-r8,pc}
        0x0001c6f6:    2000        .       MOVS     r0,#0
        0x0001c6f8:    6ca1        .l      LDR      r1,[r4,#0x48]
        0x0001c6fa:    b00a        ..      ADD      sp,sp,#0x28
        0x0001c6fc:    e8bd41f0    ...A    POP      {r4-r8,lr}
        0x0001c700:    4710        .G      BX       r2
    i.nonblocking_write_sm
    nonblocking_write_sm
        0x0001c702:    b5f0        ..      PUSH     {r4-r7,lr}
        0x0001c704:    4604        .F      MOV      r4,r0
        0x0001c706:    f8900054    ..T.    LDRB     r0,[r0,#0x54]
        0x0001c70a:    2600        .&      MOVS     r6,#0
        0x0001c70c:    b083        ..      SUB      sp,sp,#0xc
        0x0001c70e:    2800        .(      CMP      r0,#0
        0x0001c710:    d049        I.      BEQ      0x1c7a6 ; nonblocking_write_sm + 164
        0x0001c712:    f7fbfe11    ....    BL       am_hal_interrupt_master_disable ; 0x18338
        0x0001c716:    9001        ..      STR      r0,[sp,#4]
        0x0001c718:    6fa0        .o      LDR      r0,[r4,#0x78]
        0x0001c71a:    6e21        !n      LDR      r1,[r4,#0x60]
        0x0001c71c:    1a0a        ..      SUBS     r2,r1,r0
        0x0001c71e:    6de1        .m      LDR      r1,[r4,#0x5c]
        0x0001c720:    4401        .D      ADD      r1,r1,r0
        0x0001c722:    f894007c    ..|.    LDRB     r0,[r4,#0x7c]
        0x0001c726:    b1b8        ..      CBZ      r0,0x1c758 ; nonblocking_write_sm + 86
        0x0001c728:    f8d4308c    ...0    LDR      r3,[r4,#0x8c]
        0x0001c72c:    f8d40088    ....    LDR      r0,[r4,#0x88]
        0x0001c730:    1a18        ..      SUBS     r0,r3,r0
        0x0001c732:    4282        .B      CMP      r2,r0
        0x0001c734:    bf28        (.      IT       CS
        0x0001c736:    4602        .F      MOVCS    r2,r0
        0x0001c738:    f1040080    ....    ADD      r0,r4,#0x80
        0x0001c73c:    9200        ..      STR      r2,[sp,#0]
        0x0001c73e:    f7fcffcf    ....    BL       am_hal_queue_item_add ; 0x196e0
        0x0001c742:    bb48        H.      CBNZ     r0,0x1c798 ; nonblocking_write_sm + 150
        0x0001c744:    f8846054    ..T`    STRB     r6,[r4,#0x54]
        0x0001c748:    6ee2        .n      LDR      r2,[r4,#0x6c]
        0x0001c74a:    4620         F      MOV      r0,r4
        0x0001c74c:    b322        ".      CBZ      r2,0x1c798 ; nonblocking_write_sm + 150
        0x0001c74e:    6f01        .o      LDR      r1,[r0,#0x70]
        0x0001c750:    2001        .       MOVS     r0,#1
        0x0001c752:    4790        .G      BLX      r2
        0x0001c754:    b003        ..      ADD      sp,sp,#0xc
        0x0001c756:    bdf0        ..      POP      {r4-r7,pc}
        0x0001c758:    f8d4c024    ..$.    LDR      r12,[r4,#0x24]
        0x0001c75c:    466d        mF      MOV      r5,sp
        0x0001c75e:    2300        .#      MOVS     r3,#0
        0x0001c760:    b1ba        ..      CBZ      r2,0x1c792 ; nonblocking_write_sm + 144
        0x0001c762:    f1b24f00    ...O    CMP      r2,#0x80000000
        0x0001c766:    d266        f.      BCS      0x1c836 ; nonblocking_write_sm + 308
        0x0001c768:    2001        .       MOVS     r0,#1
        0x0001c76a:    2a01        .*      CMP      r2,#1
        0x0001c76c:    db11        ..      BLT      0x1c792 ; nonblocking_write_sm + 144
        0x0001c76e:    ea4f3c0c    O..<    LSL      r12,r12,#12
        0x0001c772:    f10c4c80    ...L    ADD      r12,r12,#0x40000000
        0x0001c776:    f50c3ce0    ...<    ADD      r12,r12,#0x1c000
        0x0001c77a:    f8dc7018    ...p    LDR      r7,[r12,#0x18]
        0x0001c77e:    f0170f20    .. .    TST      r7,#0x20
        0x0001c782:    d106        ..      BNE      0x1c792 ; nonblocking_write_sm + 144
        0x0001c784:    5ccf        .\      LDRB     r7,[r1,r3]
        0x0001c786:    f8cc7000    ...p    STR      r7,[r12,#0]
        0x0001c78a:    1c40        @.      ADDS     r0,r0,#1
        0x0001c78c:    1c5b        [.      ADDS     r3,r3,#1
        0x0001c78e:    4290        .B      CMP      r0,r2
        0x0001c790:    ddf3        ..      BLE      0x1c77a ; nonblocking_write_sm + 120
        0x0001c792:    2d00        .-      CMP      r5,#0
        0x0001c794:    bf18        ..      IT       NE
        0x0001c796:    9300        ..      STRNE    r3,[sp,#0]
        0x0001c798:    6fa0        .o      LDR      r0,[r4,#0x78]
        0x0001c79a:    9900        ..      LDR      r1,[sp,#0]
        0x0001c79c:    4401        .D      ADD      r1,r1,r0
        0x0001c79e:    67a1        .g      STR      r1,[r4,#0x78]
        0x0001c7a0:    9801        ..      LDR      r0,[sp,#4]
        0x0001c7a2:    f7fbfdcd    ....    BL       am_hal_interrupt_master_set ; 0x18340
        0x0001c7a6:    f894007c    ..|.    LDRB     r0,[r4,#0x7c]
        0x0001c7aa:    b340        @.      CBZ      r0,0x1c7fe ; nonblocking_write_sm + 252
        0x0001c7ac:    4625        %F      MOV      r5,r4
        0x0001c7ae:    6a67        gj      LDR      r7,[r4,#0x24]
        0x0001c7b0:    f7fbfdc2    ....    BL       am_hal_interrupt_master_disable ; 0x18338
        0x0001c7b4:    9001        ..      STR      r0,[sp,#4]
        0x0001c7b6:    0338        8.      LSLS     r0,r7,#12
        0x0001c7b8:    f1004780    ...G    ADD      r7,r0,#0x40000000
        0x0001c7bc:    f50737e0    ...7    ADD      r7,r7,#0x1c000
        0x0001c7c0:    69b8        .i      LDR      r0,[r7,#0x18]
        0x0001c7c2:    f0100f20    .. .    TST      r0,#0x20
        0x0001c7c6:    d117        ..      BNE      0x1c7f8 ; nonblocking_write_sm + 246
        0x0001c7c8:    2201        ."      MOVS     r2,#1
        0x0001c7ca:    4669        iF      MOV      r1,sp
        0x0001c7cc:    f1050080    ....    ADD      r0,r5,#0x80
        0x0001c7d0:    f7fcffb1    ....    BL       am_hal_queue_item_get ; 0x19736
        0x0001c7d4:    b180        ..      CBZ      r0,0x1c7f8 ; nonblocking_write_sm + 246
        0x0001c7d6:    6a68        hj      LDR      r0,[r5,#0x24]
        0x0001c7d8:    0300        ..      LSLS     r0,r0,#12
        0x0001c7da:    f1004080    ...@    ADD      r0,r0,#0x40000000
        0x0001c7de:    f50030e0    ...0    ADD      r0,r0,#0x1c000
        0x0001c7e2:    6981        .i      LDR      r1,[r0,#0x18]
        0x0001c7e4:    f0110f20    .. .    TST      r1,#0x20
        0x0001c7e8:    bf04        ..      ITT      EQ
        0x0001c7ea:    f89d1000    ....    LDRBEQ   r1,[sp,#0]
        0x0001c7ee:    6001        .`      STREQ    r1,[r0,#0]
        0x0001c7f0:    69b8        .i      LDR      r0,[r7,#0x18]
        0x0001c7f2:    f0100f20    .. .    TST      r0,#0x20
        0x0001c7f6:    d0e7        ..      BEQ      0x1c7c8 ; nonblocking_write_sm + 198
        0x0001c7f8:    9801        ..      LDR      r0,[sp,#4]
        0x0001c7fa:    f7fbfda1    ....    BL       am_hal_interrupt_master_set ; 0x18340
        0x0001c7fe:    6fa0        .o      LDR      r0,[r4,#0x78]
        0x0001c800:    6e61        an      LDR      r1,[r4,#0x64]
        0x0001c802:    6008        .`      STR      r0,[r1,#0]
        0x0001c804:    6fa0        .o      LDR      r0,[r4,#0x78]
        0x0001c806:    6e21        !n      LDR      r1,[r4,#0x60]
        0x0001c808:    4288        .B      CMP      r0,r1
        0x0001c80a:    bf1c        ..      ITT      NE
        0x0001c80c:    b003        ..      ADDNE    sp,sp,#0xc
        0x0001c80e:    bdf0        ..      POPNE    {r4-r7,pc}
        0x0001c810:    f8940054    ..T.    LDRB     r0,[r4,#0x54]
        0x0001c814:    2800        .(      CMP      r0,#0
        0x0001c816:    bf04        ..      ITT      EQ
        0x0001c818:    b003        ..      ADDEQ    sp,sp,#0xc
        0x0001c81a:    bdf0        ..      POPEQ    {r4-r7,pc}
        0x0001c81c:    f8846054    ..T`    STRB     r6,[r4,#0x54]
        0x0001c820:    6ee2        .n      LDR      r2,[r4,#0x6c]
        0x0001c822:    2a00        .*      CMP      r2,#0
        0x0001c824:    bf04        ..      ITT      EQ
        0x0001c826:    b003        ..      ADDEQ    sp,sp,#0xc
        0x0001c828:    bdf0        ..      POPEQ    {r4-r7,pc}
        0x0001c82a:    2000        .       MOVS     r0,#0
        0x0001c82c:    6f21        !o      LDR      r1,[r4,#0x70]
        0x0001c82e:    b003        ..      ADD      sp,sp,#0xc
        0x0001c830:    e8bd40f0    ...@    POP      {r4-r7,lr}
        0x0001c834:    4710        .G      BX       r2
        0x0001c836:    ea4f300c    O..0    LSL      r0,r12,#12
        0x0001c83a:    f1004080    ...@    ADD      r0,r0,#0x40000000
        0x0001c83e:    f50030e0    ...0    ADD      r0,r0,#0x1c000
        0x0001c842:    f8d0c018    ....    LDR      r12,[r0,#0x18]
        0x0001c846:    f01c0f20    .. .    TST      r12,#0x20
        0x0001c84a:    d1a2        ..      BNE      0x1c792 ; nonblocking_write_sm + 144
        0x0001c84c:    f811c003    ....    LDRB     r12,[r1,r3]
        0x0001c850:    f8c0c000    ....    STR      r12,[r0,#0]
        0x0001c854:    1c5b        [.      ADDS     r3,r3,#1
        0x0001c856:    4293        .B      CMP      r3,r2
        0x0001c858:    d3f3        ..      BCC      0x1c842 ; nonblocking_write_sm + 320
        0x0001c85a:    e79a        ..      B        0x1c792 ; nonblocking_write_sm + 144
    i.osal_queue_send
    osal_queue_send
        0x0001c85c:    e92d41f0    -..A    PUSH     {r4-r8,lr}
        0x0001c860:    4606        .F      MOV      r6,r0
        0x0001c862:    460f        .F      MOV      r7,r1
        0x0001c864:    4614        .F      MOV      r4,r2
        0x0001c866:    b914        ..      CBNZ     r4,0x1c86e ; osal_queue_send + 18
        0x0001c868:    4630        0F      MOV      r0,r6
        0x0001c86a:    f7fbff6b    ..k.    BL       _osal_q_lock ; 0x18744
        0x0001c86e:    4639        9F      MOV      r1,r7
        0x0001c870:    1d30        0.      ADDS     r0,r6,#4
        0x0001c872:    f000fdb6    ....    BL       tu_fifo_write ; 0x1d3e2
        0x0001c876:    4605        .F      MOV      r5,r0
        0x0001c878:    b914        ..      CBNZ     r4,0x1c880 ; osal_queue_send + 36
        0x0001c87a:    4630        0F      MOV      r0,r6
        0x0001c87c:    f7fbff6b    ..k.    BL       _osal_q_unlock ; 0x18756
        0x0001c880:    bf00        ..      NOP      
        0x0001c882:    b97d        }.      CBNZ     r5,0x1c8a4 ; osal_queue_send + 72
        0x0001c884:    22bc        ."      MOVS     r2,#0xbc
        0x0001c886:    4909        .I      LDR      r1,[pc,#36] ; [0x1c8ac] = 0x1e518
        0x0001c888:    a009        ..      ADR      r0,{pc}+0x28 ; 0x1c8b0
        0x0001c88a:    f7fefc95    ....    BL       am_util_stdio_printf ; 0x1b1b8
        0x0001c88e:    bf00        ..      NOP      
        0x0001c890:    480d        .H      LDR      r0,[pc,#52] ; [0x1c8c8] = 0xe000edf0
        0x0001c892:    6801        .h      LDR      r1,[r0,#0]
        0x0001c894:    f0010101    ....    AND      r1,r1,#1
        0x0001c898:    b101        ..      CBZ      r1,0x1c89c ; osal_queue_send + 64
        0x0001c89a:    be00        ..      BKPT     #0
        0x0001c89c:    bf00        ..      NOP      
        0x0001c89e:    2000        .       MOVS     r0,#0
        0x0001c8a0:    e8bd81f0    ....    POP      {r4-r8,pc}
        0x0001c8a4:    bf00        ..      NOP      
        0x0001c8a6:    4628        (F      MOV      r0,r5
        0x0001c8a8:    e7fa        ..      B        0x1c8a0 ; osal_queue_send + 68
    $d
        0x0001c8aa:    0000        ..      DCW    0
        0x0001c8ac:    0001e518    ....    DCD    124184
        0x0001c8b0:    25207325    %s %    DCD    622883621
        0x0001c8b4:    41203a64    d: A    DCD    1092631140
        0x0001c8b8:    52455353    SSER    DCD    1380275027
        0x0001c8bc:    41462054    T FA    DCD    1095114836
        0x0001c8c0:    44454c49    ILED    DCD    1145392201
        0x0001c8c4:    00000a0d    ....    DCD    2573
        0x0001c8c8:    e000edf0    ....    DCD    3758157296
    $t
    i.padbuffer
    padbuffer
        0x0001c8cc:    b530        0.      PUSH     {r4,r5,lr}
        0x0001c8ce:    4603        .F      MOV      r3,r0
        0x0001c8d0:    2000        .       MOVS     r0,#0
        0x0001c8d2:    2a00        .*      CMP      r2,#0
        0x0001c8d4:    dc00        ..      BGT      0x1c8d8 ; padbuffer + 12
        0x0001c8d6:    bd30        0.      POP      {r4,r5,pc}
        0x0001c8d8:    e003        ..      B        0x1c8e2 ; padbuffer + 22
        0x0001c8da:    b10b        ..      CBZ      r3,0x1c8e0 ; padbuffer + 20
        0x0001c8dc:    f8031b01    ....    STRB     r1,[r3],#1
        0x0001c8e0:    1c40        @.      ADDS     r0,r0,#1
        0x0001c8e2:    1e14        ..      SUBS     r4,r2,#0
        0x0001c8e4:    f1a20201    ....    SUB      r2,r2,#1
        0x0001c8e8:    d1f7        ..      BNE      0x1c8da ; padbuffer + 14
        0x0001c8ea:    bf00        ..      NOP      
        0x0001c8ec:    e7f3        ..      B        0x1c8d6 ; padbuffer + 10
        0x0001c8ee:    0000        ..      MOVS     r0,r0
    i.process_control_request
    process_control_request
        0x0001c8f0:    e92d43f8    -..C    PUSH     {r3-r9,lr}
        0x0001c8f4:    4680        .F      MOV      r8,r0
        0x0001c8f6:    460c        .F      MOV      r4,r1
        0x0001c8f8:    2000        .       MOVS     r0,#0
        0x0001c8fa:    f001f9ef    ....    BL       usbd_control_set_complete_callback ; 0x1dcdc
        0x0001c8fe:    bf00        ..      NOP      
        0x0001c900:    7820         x      LDRB     r0,[r4,#0]
        0x0001c902:    f3c01041    ..A.    UBFX     r0,r0,#5,#2
        0x0001c906:    2803        .(      CMP      r0,#3
        0x0001c908:    db10        ..      BLT      0x1c92c ; process_control_request + 60
        0x0001c90a:    f240227f    @.."    MOV      r2,#0x27f
        0x0001c90e:    49f4        .I      LDR      r1,[pc,#976] ; [0x1cce0] = 0x1e53a
        0x0001c910:    a0f4        ..      ADR      r0,{pc}+0x3d4 ; 0x1cce4
        0x0001c912:    f7fefc51    ..Q.    BL       am_util_stdio_printf ; 0x1b1b8
        0x0001c916:    bf00        ..      NOP      
        0x0001c918:    48f8        .H      LDR      r0,[pc,#992] ; [0x1ccfc] = 0xe000edf0
        0x0001c91a:    6801        .h      LDR      r1,[r0,#0]
        0x0001c91c:    f0010101    ....    AND      r1,r1,#1
        0x0001c920:    b101        ..      CBZ      r1,0x1c924 ; process_control_request + 52
        0x0001c922:    be00        ..      BKPT     #0
        0x0001c924:    bf00        ..      NOP      
        0x0001c926:    2000        .       MOVS     r0,#0
        0x0001c928:    e8bd83f8    ....    POP      {r3-r9,pc}
        0x0001c92c:    bf00        ..      NOP      
        0x0001c92e:    7820         x      LDRB     r0,[r4,#0]
        0x0001c930:    f3c01041    ..A.    UBFX     r0,r0,#5,#2
        0x0001c934:    2802        .(      CMP      r0,#2
        0x0001c936:    d10e        ..      BNE      0x1c956 ; process_control_request + 102
        0x0001c938:    bf00        ..      NOP      
        0x0001c93a:    48f1        .H      LDR      r0,[pc,#964] ; [0x1cd00] = 0
        0x0001c93c:    b908        ..      CBNZ     r0,0x1c942 ; process_control_request + 82
        0x0001c93e:    2000        .       MOVS     r0,#0
        0x0001c940:    e7f2        ..      B        0x1c928 ; process_control_request + 56
        0x0001c942:    bf00        ..      NOP      
        0x0001c944:    48ee        .H      LDR      r0,[pc,#952] ; [0x1cd00] = 0
        0x0001c946:    f001f9c9    ....    BL       usbd_control_set_complete_callback ; 0x1dcdc
        0x0001c94a:    4622        "F      MOV      r2,r4
        0x0001c94c:    2100        .!      MOVS     r1,#0
        0x0001c94e:    4640        @F      MOV      r0,r8
        0x0001c950:    f3af8000    ....    NOP.W    
        0x0001c954:    e7e8        ..      B        0x1c928 ; process_control_request + 56
        0x0001c956:    7820         x      LDRB     r0,[r4,#0]
        0x0001c958:    f3c01041    ..A.    UBFX     r0,r0,#5,#2
        0x0001c95c:    b978        x.      CBNZ     r0,0x1c97e ; process_control_request + 142
        0x0001c95e:    7860        `x      LDRB     r0,[r4,#1]
        0x0001c960:    280c        .(      CMP      r0,#0xc
        0x0001c962:    dc0c        ..      BGT      0x1c97e ; process_control_request + 142
        0x0001c964:    7860        `x      LDRB     r0,[r4,#1]
        0x0001c966:    4ae7        .J      LDR      r2,[pc,#924] ; [0x1cd04] = 0x1e4d8
        0x0001c968:    f8521020    R. .    LDR      r1,[r2,r0,LSL #2]
        0x0001c96c:    a0e6        ..      ADR      r0,{pc}+0x39c ; 0x1cd08
        0x0001c96e:    f7fefc23    ..#.    BL       am_util_stdio_printf ; 0x1b1b8
        0x0001c972:    7860        `x      LDRB     r0,[r4,#1]
        0x0001c974:    2806        .(      CMP      r0,#6
        0x0001c976:    d002        ..      BEQ      0x1c97e ; process_control_request + 142
        0x0001c978:    a0df        ..      ADR      r0,{pc}+0x380 ; 0x1ccf8
        0x0001c97a:    f7fefc1d    ....    BL       am_util_stdio_printf ; 0x1b1b8
        0x0001c97e:    7820         x      LDRB     r0,[r4,#0]
        0x0001c980:    f000001f    ....    AND      r0,r0,#0x1f
        0x0001c984:    b120         .      CBZ      r0,0x1c990 ; process_control_request + 160
        0x0001c986:    2801        .(      CMP      r0,#1
        0x0001c988:    d07d        }.      BEQ      0x1ca86 ; process_control_request + 406
        0x0001c98a:    2802        .(      CMP      r0,#2
        0x0001c98c:    d17c        |.      BNE      0x1ca88 ; process_control_request + 408
        0x0001c98e:    e12e        ..      B        0x1cbee ; process_control_request + 766
        0x0001c990:    7820         x      LDRB     r0,[r4,#0]
        0x0001c992:    f3c01041    ..A.    UBFX     r0,r0,#5,#2
        0x0001c996:    2801        .(      CMP      r0,#1
        0x0001c998:    d118        ..      BNE      0x1c9cc ; process_control_request + 220
        0x0001c99a:    88a0        ..      LDRH     r0,[r4,#4]
        0x0001c99c:    b2c1        ..      UXTB     r1,r0
        0x0001c99e:    460e        .F      MOV      r6,r1
        0x0001c9a0:    bf00        ..      NOP      
        0x0001c9a2:    2e10        ..      CMP      r6,#0x10
        0x0001c9a4:    d301        ..      BCC      0x1c9aa ; process_control_request + 186
        0x0001c9a6:    2000        .       MOVS     r0,#0
        0x0001c9a8:    e7be        ..      B        0x1c928 ; process_control_request + 56
        0x0001c9aa:    bf00        ..      NOP      
        0x0001c9ac:    49d8        .I      LDR      r1,[pc,#864] ; [0x1cd10] = 0x10000163
        0x0001c9ae:    5d88        .]      LDRB     r0,[r1,r6]
        0x0001c9b0:    f7fffa9e    ....    BL       get_driver ; 0x1bef0
        0x0001c9b4:    4605        .F      MOV      r5,r0
        0x0001c9b6:    bf00        ..      NOP      
        0x0001c9b8:    b90d        ..      CBNZ     r5,0x1c9be ; process_control_request + 206
        0x0001c9ba:    2000        .       MOVS     r0,#0
        0x0001c9bc:    e7b4        ..      B        0x1c928 ; process_control_request + 56
        0x0001c9be:    bf00        ..      NOP      
        0x0001c9c0:    4622        "F      MOV      r2,r4
        0x0001c9c2:    4629        )F      MOV      r1,r5
        0x0001c9c4:    4640        @F      MOV      r0,r8
        0x0001c9c6:    f7fffd6d    ..m.    BL       invoke_class_control ; 0x1c4a4
        0x0001c9ca:    e7ad        ..      B        0x1c928 ; process_control_request + 56
        0x0001c9cc:    7820         x      LDRB     r0,[r4,#0]
        0x0001c9ce:    f3c01041    ..A.    UBFX     r0,r0,#5,#2
        0x0001c9d2:    b148        H.      CBZ      r0,0x1c9e8 ; process_control_request + 248
        0x0001c9d4:    bf00        ..      NOP      
        0x0001c9d6:    48c9        .H      LDR      r0,[pc,#804] ; [0x1ccfc] = 0xe000edf0
        0x0001c9d8:    6801        .h      LDR      r1,[r0,#0]
        0x0001c9da:    f0010101    ....    AND      r1,r1,#1
        0x0001c9de:    b101        ..      CBZ      r1,0x1c9e2 ; process_control_request + 242
        0x0001c9e0:    be00        ..      BKPT     #0
        0x0001c9e2:    bf00        ..      NOP      
        0x0001c9e4:    2000        .       MOVS     r0,#0
        0x0001c9e6:    e79f        ..      B        0x1c928 ; process_control_request + 56
        0x0001c9e8:    7860        `x      LDRB     r0,[r4,#1]
        0x0001c9ea:    280a        .(      CMP      r0,#0xa
        0x0001c9ec:    d272        r.      BCS      0x1cad4 ; process_control_request + 484
        0x0001c9ee:    e8dff000    ....    TBB      [pc,r0]
    $d
        0x0001c9f2:    849b        ..      DCW    33947
        0x0001c9f4:    05b26bb2    .k..    DCD    95579058
        0x0001c9f8:    2116b261    a..!    DCD    555135585
    $t
        0x0001c9fc:    4620         F      MOV      r0,r4
        0x0001c9fe:    f001f973    ..s.    BL       usbd_control_set_request ; 0x1dce8
        0x0001ca02:    78a1        .x      LDRB     r1,[r4,#2]
        0x0001ca04:    4640        @F      MOV      r0,r8
        0x0001ca06:    f7fff88d    ....    BL       dcd_set_address ; 0x1bb24
        0x0001ca0a:    48c1        .H      LDR      r0,[pc,#772] ; [0x1cd10] = 0x10000163
        0x0001ca0c:    1ec0        ..      SUBS     r0,r0,#3
        0x0001ca0e:    7800        .x      LDRB     r0,[r0,#0]
        0x0001ca10:    f0200002     ...    BIC      r0,r0,#2
        0x0001ca14:    1c80        ..      ADDS     r0,r0,#2
        0x0001ca16:    49be        .I      LDR      r1,[pc,#760] ; [0x1cd10] = 0x10000163
        0x0001ca18:    1ec9        ..      SUBS     r1,r1,#3
        0x0001ca1a:    7008        .p      STRB     r0,[r1,#0]
        0x0001ca1c:    e0a5        ..      B        0x1cb6a ; process_control_request + 634
        0x0001ca1e:    48bc        .H      LDR      r0,[pc,#752] ; [0x1cd10] = 0x10000163
        0x0001ca20:    1ec0        ..      SUBS     r0,r0,#3
        0x0001ca22:    7840        @x      LDRB     r0,[r0,#1]
        0x0001ca24:    9000        ..      STR      r0,[sp,#0]
        0x0001ca26:    2301        .#      MOVS     r3,#1
        0x0001ca28:    466a        jF      MOV      r2,sp
        0x0001ca2a:    4621        !F      MOV      r1,r4
        0x0001ca2c:    4640        @F      MOV      r0,r8
        0x0001ca2e:    f000fd13    ....    BL       tud_control_xfer ; 0x1d458
        0x0001ca32:    e09a        ..      B        0x1cb6a ; process_control_request + 634
        0x0001ca34:    78a5        .x      LDRB     r5,[r4,#2]
        0x0001ca36:    48b6        .H      LDR      r0,[pc,#728] ; [0x1cd10] = 0x10000163
        0x0001ca38:    1ec0        ..      SUBS     r0,r0,#3
        0x0001ca3a:    7840        @x      LDRB     r0,[r0,#1]
        0x0001ca3c:    42a8        .B      CMP      r0,r5
        0x0001ca3e:    d031        1.      BEQ      0x1caa4 ; process_control_request + 436
        0x0001ca40:    48b3        .H      LDR      r0,[pc,#716] ; [0x1cd10] = 0x10000163
        0x0001ca42:    1ec0        ..      SUBS     r0,r0,#3
        0x0001ca44:    7840        @x      LDRB     r0,[r0,#1]
        0x0001ca46:    b190        ..      CBZ      r0,0x1ca6e ; process_control_request + 382
        0x0001ca48:    48b1        .H      LDR      r0,[pc,#708] ; [0x1cd10] = 0x10000163
        0x0001ca4a:    1ec0        ..      SUBS     r0,r0,#3
        0x0001ca4c:    7841        Ax      LDRB     r1,[r0,#1]
        0x0001ca4e:    a0b1        ..      ADR      r0,{pc}+0x2c6 ; 0x1cd14
        0x0001ca50:    f7fefbb2    ....    BL       am_util_stdio_printf ; 0x1b1b8
        0x0001ca54:    4640        @F      MOV      r0,r8
        0x0001ca56:    f7fefec1    ....    BL       dcd_edpt_close_all ; 0x1b7dc
        0x0001ca5a:    48ad        .H      LDR      r0,[pc,#692] ; [0x1cd10] = 0x10000163
        0x0001ca5c:    1ec0        ..      SUBS     r0,r0,#3
        0x0001ca5e:    7886        .x      LDRB     r6,[r0,#2]
        0x0001ca60:    4640        @F      MOV      r0,r8
        0x0001ca62:    f7fefe1d    ....    BL       configuration_reset ; 0x1b6a0
        0x0001ca66:    48aa        .H      LDR      r0,[pc,#680] ; [0x1cd10] = 0x10000163
        0x0001ca68:    1ec0        ..      SUBS     r0,r0,#3
        0x0001ca6a:    7086        .p      STRB     r6,[r0,#2]
        0x0001ca6c:    bf00        ..      NOP      
        0x0001ca6e:    b1cd        ..      CBZ      r5,0x1caa4 ; process_control_request + 436
        0x0001ca70:    bf00        ..      NOP      
        0x0001ca72:    4629        )F      MOV      r1,r5
        0x0001ca74:    4640        @F      MOV      r0,r8
        0x0001ca76:    f000faa3    ....    BL       process_set_config ; 0x1cfc0
        0x0001ca7a:    b990        ..      CBNZ     r0,0x1caa2 ; process_control_request + 434
        0x0001ca7c:    f24022d3    @.."    MOV      r2,#0x2d3
        0x0001ca80:    4997        .I      LDR      r1,[pc,#604] ; [0x1cce0] = 0x1e53a
        0x0001ca82:    a098        ..      ADR      r0,{pc}+0x262 ; 0x1cce4
        0x0001ca84:    e001        ..      B        0x1ca8a ; process_control_request + 410
        0x0001ca86:    e072        r.      B        0x1cb6e ; process_control_request + 638
        0x0001ca88:    e17e        ~.      B        0x1cd88 ; process_control_request + 1176
        0x0001ca8a:    f7fefb95    ....    BL       am_util_stdio_printf ; 0x1b1b8
        0x0001ca8e:    bf00        ..      NOP      
        0x0001ca90:    489a        .H      LDR      r0,[pc,#616] ; [0x1ccfc] = 0xe000edf0
        0x0001ca92:    6801        .h      LDR      r1,[r0,#0]
        0x0001ca94:    f0010101    ....    AND      r1,r1,#1
        0x0001ca98:    b101        ..      CBZ      r1,0x1ca9c ; process_control_request + 428
        0x0001ca9a:    be00        ..      BKPT     #0
        0x0001ca9c:    bf00        ..      NOP      
        0x0001ca9e:    2000        .       MOVS     r0,#0
        0x0001caa0:    e742        B.      B        0x1c928 ; process_control_request + 56
        0x0001caa2:    bf00        ..      NOP      
        0x0001caa4:    489a        .H      LDR      r0,[pc,#616] ; [0x1cd10] = 0x10000163
        0x0001caa6:    1ec0        ..      SUBS     r0,r0,#3
        0x0001caa8:    7045        Ep      STRB     r5,[r0,#1]
        0x0001caaa:    4621        !F      MOV      r1,r4
        0x0001caac:    4640        @F      MOV      r0,r8
        0x0001caae:    f000fcbf    ....    BL       tud_control_status ; 0x1d430
        0x0001cab2:    e05a        Z.      B        0x1cb6a ; process_control_request + 634
        0x0001cab4:    bf00        ..      NOP      
        0x0001cab6:    4621        !F      MOV      r1,r4
        0x0001cab8:    4640        @F      MOV      r0,r8
        0x0001caba:    f000f975    ..u.    BL       process_get_descriptor ; 0x1cda8
        0x0001cabe:    b908        ..      CBNZ     r0,0x1cac4 ; process_control_request + 468
        0x0001cac0:    2000        .       MOVS     r0,#0
        0x0001cac2:    e731        1.      B        0x1c928 ; process_control_request + 56
        0x0001cac4:    bf00        ..      NOP      
        0x0001cac6:    e050        P.      B        0x1cb6a ; process_control_request + 634
        0x0001cac8:    bf00        ..      NOP      
        0x0001caca:    8860        `.      LDRH     r0,[r4,#2]
        0x0001cacc:    2801        .(      CMP      r0,#1
        0x0001cace:    d002        ..      BEQ      0x1cad6 ; process_control_request + 486
        0x0001cad0:    2000        .       MOVS     r0,#0
        0x0001cad2:    e729        ).      B        0x1c928 ; process_control_request + 56
        0x0001cad4:    e03f        ?.      B        0x1cb56 ; process_control_request + 614
        0x0001cad6:    bf00        ..      NOP      
        0x0001cad8:    a09c        ..      ADR      r0,{pc}+0x274 ; 0x1cd4c
        0x0001cada:    f7fefb6d    ..m.    BL       am_util_stdio_printf ; 0x1b1b8
        0x0001cade:    488c        .H      LDR      r0,[pc,#560] ; [0x1cd10] = 0x10000163
        0x0001cae0:    1ec0        ..      SUBS     r0,r0,#3
        0x0001cae2:    7800        .x      LDRB     r0,[r0,#0]
        0x0001cae4:    f0200008     ...    BIC      r0,r0,#8
        0x0001cae8:    3008        .0      ADDS     r0,r0,#8
        0x0001caea:    4989        .I      LDR      r1,[pc,#548] ; [0x1cd10] = 0x10000163
        0x0001caec:    1ec9        ..      SUBS     r1,r1,#3
        0x0001caee:    7008        .p      STRB     r0,[r1,#0]
        0x0001caf0:    4621        !F      MOV      r1,r4
        0x0001caf2:    4640        @F      MOV      r0,r8
        0x0001caf4:    f000fc9c    ....    BL       tud_control_status ; 0x1d430
        0x0001caf8:    e037        7.      B        0x1cb6a ; process_control_request + 634
        0x0001cafa:    bf00        ..      NOP      
        0x0001cafc:    8860        `.      LDRH     r0,[r4,#2]
        0x0001cafe:    2801        .(      CMP      r0,#1
        0x0001cb00:    d001        ..      BEQ      0x1cb06 ; process_control_request + 534
        0x0001cb02:    2000        .       MOVS     r0,#0
        0x0001cb04:    e710        ..      B        0x1c928 ; process_control_request + 56
        0x0001cb06:    bf00        ..      NOP      
        0x0001cb08:    a097        ..      ADR      r0,{pc}+0x260 ; 0x1cd68
        0x0001cb0a:    f7fefb55    ..U.    BL       am_util_stdio_printf ; 0x1b1b8
        0x0001cb0e:    4880        .H      LDR      r0,[pc,#512] ; [0x1cd10] = 0x10000163
        0x0001cb10:    1ec0        ..      SUBS     r0,r0,#3
        0x0001cb12:    7800        .x      LDRB     r0,[r0,#0]
        0x0001cb14:    f0200008     ...    BIC      r0,r0,#8
        0x0001cb18:    497d        }I      LDR      r1,[pc,#500] ; [0x1cd10] = 0x10000163
        0x0001cb1a:    1ec9        ..      SUBS     r1,r1,#3
        0x0001cb1c:    7008        .p      STRB     r0,[r1,#0]
        0x0001cb1e:    4621        !F      MOV      r1,r4
        0x0001cb20:    4640        @F      MOV      r0,r8
        0x0001cb22:    f000fc85    ....    BL       tud_control_status ; 0x1d430
        0x0001cb26:    e020         .      B        0x1cb6a ; process_control_request + 634
        0x0001cb28:    4879        yH      LDR      r0,[pc,#484] ; [0x1cd10] = 0x10000163
        0x0001cb2a:    1ec0        ..      SUBS     r0,r0,#3
        0x0001cb2c:    7800        .x      LDRB     r0,[r0,#0]
        0x0001cb2e:    f3c01040    ..@.    UBFX     r0,r0,#5,#1
        0x0001cb32:    4977        wI      LDR      r1,[pc,#476] ; [0x1cd10] = 0x10000163
        0x0001cb34:    1ec9        ..      SUBS     r1,r1,#3
        0x0001cb36:    7809        .x      LDRB     r1,[r1,#0]
        0x0001cb38:    f3c101c0    ....    UBFX     r1,r1,#3,#1
        0x0001cb3c:    b109        ..      CBZ      r1,0x1cb42 ; process_control_request + 594
        0x0001cb3e:    2102        .!      MOVS     r1,#2
        0x0001cb40:    e000        ..      B        0x1cb44 ; process_control_request + 596
        0x0001cb42:    2100        .!      MOVS     r1,#0
        0x0001cb44:    4308        .C      ORRS     r0,r0,r1
        0x0001cb46:    9000        ..      STR      r0,[sp,#0]
        0x0001cb48:    2302        .#      MOVS     r3,#2
        0x0001cb4a:    466a        jF      MOV      r2,sp
        0x0001cb4c:    4621        !F      MOV      r1,r4
        0x0001cb4e:    4640        @F      MOV      r0,r8
        0x0001cb50:    f000fc82    ....    BL       tud_control_xfer ; 0x1d458
        0x0001cb54:    e009        ..      B        0x1cb6a ; process_control_request + 634
        0x0001cb56:    bf00        ..      NOP      
        0x0001cb58:    4868        hH      LDR      r0,[pc,#416] ; [0x1ccfc] = 0xe000edf0
        0x0001cb5a:    6801        .h      LDR      r1,[r0,#0]
        0x0001cb5c:    f0010101    ....    AND      r1,r1,#1
        0x0001cb60:    b101        ..      CBZ      r1,0x1cb64 ; process_control_request + 628
        0x0001cb62:    be00        ..      BKPT     #0
        0x0001cb64:    bf00        ..      NOP      
        0x0001cb66:    2000        .       MOVS     r0,#0
        0x0001cb68:    e6de        ..      B        0x1c928 ; process_control_request + 56
        0x0001cb6a:    bf00        ..      NOP      
        0x0001cb6c:    e116        ..      B        0x1cd9c ; process_control_request + 1196
        0x0001cb6e:    88a0        ..      LDRH     r0,[r4,#4]
        0x0001cb70:    b2c1        ..      UXTB     r1,r0
        0x0001cb72:    460e        .F      MOV      r6,r1
        0x0001cb74:    bf00        ..      NOP      
        0x0001cb76:    2e10        ..      CMP      r6,#0x10
        0x0001cb78:    d301        ..      BCC      0x1cb7e ; process_control_request + 654
        0x0001cb7a:    2000        .       MOVS     r0,#0
        0x0001cb7c:    e6d4        ..      B        0x1c928 ; process_control_request + 56
        0x0001cb7e:    bf00        ..      NOP      
        0x0001cb80:    4963        cI      LDR      r1,[pc,#396] ; [0x1cd10] = 0x10000163
        0x0001cb82:    5d88        .]      LDRB     r0,[r1,r6]
        0x0001cb84:    f7fff9b4    ....    BL       get_driver ; 0x1bef0
        0x0001cb88:    4605        .F      MOV      r5,r0
        0x0001cb8a:    bf00        ..      NOP      
        0x0001cb8c:    b90d        ..      CBNZ     r5,0x1cb92 ; process_control_request + 674
        0x0001cb8e:    2000        .       MOVS     r0,#0
        0x0001cb90:    e6ca        ..      B        0x1c928 ; process_control_request + 56
        0x0001cb92:    bf00        ..      NOP      
        0x0001cb94:    4622        "F      MOV      r2,r4
        0x0001cb96:    4629        )F      MOV      r1,r5
        0x0001cb98:    4640        @F      MOV      r0,r8
        0x0001cb9a:    f7fffc83    ....    BL       invoke_class_control ; 0x1c4a4
        0x0001cb9e:    bb28        (.      CBNZ     r0,0x1cbec ; process_control_request + 764
        0x0001cba0:    bf00        ..      NOP      
        0x0001cba2:    7820         x      LDRB     r0,[r4,#0]
        0x0001cba4:    f3c01041    ..A.    UBFX     r0,r0,#5,#2
        0x0001cba8:    b108        ..      CBZ      r0,0x1cbae ; process_control_request + 702
        0x0001cbaa:    2000        .       MOVS     r0,#0
        0x0001cbac:    e6bc        ..      B        0x1c928 ; process_control_request + 56
        0x0001cbae:    bf00        ..      NOP      
        0x0001cbb0:    7860        `x      LDRB     r0,[r4,#1]
        0x0001cbb2:    280a        .(      CMP      r0,#0xa
        0x0001cbb4:    d002        ..      BEQ      0x1cbbc ; process_control_request + 716
        0x0001cbb6:    280b        .(      CMP      r0,#0xb
        0x0001cbb8:    d115        ..      BNE      0x1cbe6 ; process_control_request + 758
        0x0001cbba:    e000        ..      B        0x1cbbe ; process_control_request + 718
        0x0001cbbc:    bf00        ..      NOP      
        0x0001cbbe:    2000        .       MOVS     r0,#0
        0x0001cbc0:    f001f88c    ....    BL       usbd_control_set_complete_callback ; 0x1dcdc
        0x0001cbc4:    7860        `x      LDRB     r0,[r4,#1]
        0x0001cbc6:    280a        .(      CMP      r0,#0xa
        0x0001cbc8:    d108        ..      BNE      0x1cbdc ; process_control_request + 748
        0x0001cbca:    2000        .       MOVS     r0,#0
        0x0001cbcc:    9000        ..      STR      r0,[sp,#0]
        0x0001cbce:    2301        .#      MOVS     r3,#1
        0x0001cbd0:    466a        jF      MOV      r2,sp
        0x0001cbd2:    4621        !F      MOV      r1,r4
        0x0001cbd4:    4640        @F      MOV      r0,r8
        0x0001cbd6:    f000fc3f    ..?.    BL       tud_control_xfer ; 0x1d458
        0x0001cbda:    e003        ..      B        0x1cbe4 ; process_control_request + 756
        0x0001cbdc:    4621        !F      MOV      r1,r4
        0x0001cbde:    4640        @F      MOV      r0,r8
        0x0001cbe0:    f000fc26    ..&.    BL       tud_control_status ; 0x1d430
        0x0001cbe4:    e001        ..      B        0x1cbea ; process_control_request + 762
        0x0001cbe6:    2000        .       MOVS     r0,#0
        0x0001cbe8:    e69e        ..      B        0x1c928 ; process_control_request + 56
        0x0001cbea:    bf00        ..      NOP      
        0x0001cbec:    e0d6        ..      B        0x1cd9c ; process_control_request + 1196
        0x0001cbee:    88a0        ..      LDRH     r0,[r4,#4]
        0x0001cbf0:    b2c1        ..      UXTB     r1,r0
        0x0001cbf2:    460e        .F      MOV      r6,r1
        0x0001cbf4:    4630        0F      MOV      r0,r6
        0x0001cbf6:    f000fb31    ..1.    BL       tu_edpt_number ; 0x1d25c
        0x0001cbfa:    4607        .F      MOV      r7,r0
        0x0001cbfc:    4630        0F      MOV      r0,r6
        0x0001cbfe:    f000fb29    ..).    BL       tu_edpt_dir ; 0x1d254
        0x0001cc02:    4681        .F      MOV      r9,r0
        0x0001cc04:    bf00        ..      NOP      
        0x0001cc06:    2f08        ./      CMP      r7,#8
        0x0001cc08:    d30f        ..      BCC      0x1cc2a ; process_control_request + 826
        0x0001cc0a:    f2403233    @.32    MOV      r2,#0x333
        0x0001cc0e:    4934        4I      LDR      r1,[pc,#208] ; [0x1cce0] = 0x1e53a
        0x0001cc10:    a034        4.      ADR      r0,{pc}+0xd4 ; 0x1cce4
        0x0001cc12:    f7fefad1    ....    BL       am_util_stdio_printf ; 0x1b1b8
        0x0001cc16:    bf00        ..      NOP      
        0x0001cc18:    4838        8H      LDR      r0,[pc,#224] ; [0x1ccfc] = 0xe000edf0
        0x0001cc1a:    6801        .h      LDR      r1,[r0,#0]
        0x0001cc1c:    f0010101    ....    AND      r1,r1,#1
        0x0001cc20:    b101        ..      CBZ      r1,0x1cc24 ; process_control_request + 820
        0x0001cc22:    be00        ..      BKPT     #0
        0x0001cc24:    bf00        ..      NOP      
        0x0001cc26:    2000        .       MOVS     r0,#0
        0x0001cc28:    e67e        ~.      B        0x1c928 ; process_control_request + 56
        0x0001cc2a:    bf00        ..      NOP      
        0x0001cc2c:    4938        8I      LDR      r1,[pc,#224] ; [0x1cd10] = 0x10000163
        0x0001cc2e:    3110        .1      ADDS     r1,r1,#0x10
        0x0001cc30:    eb010147    ..G.    ADD      r1,r1,r7,LSL #1
        0x0001cc34:    f8110009    ....    LDRB     r0,[r1,r9]
        0x0001cc38:    f7fff95a    ..Z.    BL       get_driver ; 0x1bef0
        0x0001cc3c:    4605        .F      MOV      r5,r0
        0x0001cc3e:    7820         x      LDRB     r0,[r4,#0]
        0x0001cc40:    f3c01041    ..A.    UBFX     r0,r0,#5,#2
        0x0001cc44:    b150        P.      CBZ      r0,0x1cc5c ; process_control_request + 876
        0x0001cc46:    bf00        ..      NOP      
        0x0001cc48:    b90d        ..      CBNZ     r5,0x1cc4e ; process_control_request + 862
        0x0001cc4a:    2000        .       MOVS     r0,#0
        0x0001cc4c:    e66c        l.      B        0x1c928 ; process_control_request + 56
        0x0001cc4e:    bf00        ..      NOP      
        0x0001cc50:    4622        "F      MOV      r2,r4
        0x0001cc52:    4629        )F      MOV      r1,r5
        0x0001cc54:    4640        @F      MOV      r0,r8
        0x0001cc56:    f7fffc25    ..%.    BL       invoke_class_control ; 0x1c4a4
        0x0001cc5a:    e665        e.      B        0x1c928 ; process_control_request + 56
        0x0001cc5c:    7860        `x      LDRB     r0,[r4,#1]
        0x0001cc5e:    b120         .      CBZ      r0,0x1cc6a ; process_control_request + 890
        0x0001cc60:    2801        .(      CMP      r0,#1
        0x0001cc62:    d00e        ..      BEQ      0x1cc82 ; process_control_request + 914
        0x0001cc64:    2803        .(      CMP      r0,#3
        0x0001cc66:    d130        0.      BNE      0x1ccca ; process_control_request + 986
        0x0001cc68:    e00c        ..      B        0x1cc84 ; process_control_request + 916
        0x0001cc6a:    4631        1F      MOV      r1,r6
        0x0001cc6c:    4640        @F      MOV      r0,r8
        0x0001cc6e:    f001f9e5    ....    BL       usbd_edpt_stalled ; 0x1e03c
        0x0001cc72:    9000        ..      STR      r0,[sp,#0]
        0x0001cc74:    2302        .#      MOVS     r3,#2
        0x0001cc76:    466a        jF      MOV      r2,sp
        0x0001cc78:    4621        !F      MOV      r1,r4
        0x0001cc7a:    4640        @F      MOV      r0,r8
        0x0001cc7c:    f000fbec    ....    BL       tud_control_xfer ; 0x1d458
        0x0001cc80:    e080        ..      B        0x1cd84 ; process_control_request + 1172
        0x0001cc82:    bf00        ..      NOP      
        0x0001cc84:    8860        `.      LDRH     r0,[r4,#2]
        0x0001cc86:    b958        X.      CBNZ     r0,0x1cca0 ; process_control_request + 944
        0x0001cc88:    7860        `x      LDRB     r0,[r4,#1]
        0x0001cc8a:    2801        .(      CMP      r0,#1
        0x0001cc8c:    d104        ..      BNE      0x1cc98 ; process_control_request + 936
        0x0001cc8e:    4631        1F      MOV      r1,r6
        0x0001cc90:    4640        @F      MOV      r0,r8
        0x0001cc92:    f001f907    ....    BL       usbd_edpt_clear_stall ; 0x1dea4
        0x0001cc96:    e003        ..      B        0x1cca0 ; process_control_request + 944
        0x0001cc98:    4631        1F      MOV      r1,r6
        0x0001cc9a:    4640        @F      MOV      r0,r8
        0x0001cc9c:    f001f98e    ....    BL       usbd_edpt_stall ; 0x1dfbc
        0x0001cca0:    b195        ..      CBZ      r5,0x1ccc8 ; process_control_request + 984
        0x0001cca2:    4622        "F      MOV      r2,r4
        0x0001cca4:    4629        )F      MOV      r1,r5
        0x0001cca6:    4640        @F      MOV      r0,r8
        0x0001cca8:    f7fffbfc    ....    BL       invoke_class_control ; 0x1c4a4
        0x0001ccac:    2000        .       MOVS     r0,#0
        0x0001ccae:    f001f815    ....    BL       usbd_control_set_complete_callback ; 0x1dcdc
        0x0001ccb2:    4817        .H      LDR      r0,[pc,#92] ; [0x1cd10] = 0x10000163
        0x0001ccb4:    1ec0        ..      SUBS     r0,r0,#3
        0x0001ccb6:    f8900024    ..$.    LDRB     r0,[r0,#0x24]
        0x0001ccba:    f0000001    ....    AND      r0,r0,#1
        0x0001ccbe:    b918        ..      CBNZ     r0,0x1ccc8 ; process_control_request + 984
        0x0001ccc0:    4621        !F      MOV      r1,r4
        0x0001ccc2:    4640        @F      MOV      r0,r8
        0x0001ccc4:    f000fbb4    ....    BL       tud_control_status ; 0x1d430
        0x0001ccc8:    e05c        \.      B        0x1cd84 ; process_control_request + 1172
        0x0001ccca:    bf00        ..      NOP      
        0x0001cccc:    480b        .H      LDR      r0,[pc,#44] ; [0x1ccfc] = 0xe000edf0
        0x0001ccce:    6801        .h      LDR      r1,[r0,#0]
        0x0001ccd0:    f0010101    ....    AND      r1,r1,#1
        0x0001ccd4:    b101        ..      CBZ      r1,0x1ccd8 ; process_control_request + 1000
        0x0001ccd6:    be00        ..      BKPT     #0
        0x0001ccd8:    bf00        ..      NOP      
        0x0001ccda:    2000        .       MOVS     r0,#0
        0x0001ccdc:    e624        $.      B        0x1c928 ; process_control_request + 56
    $d
        0x0001ccde:    0000        ..      DCW    0
        0x0001cce0:    0001e53a    :...    DCD    124218
        0x0001cce4:    25207325    %s %    DCD    622883621
        0x0001cce8:    41203a64    d: A    DCD    1092631140
        0x0001ccec:    52455353    SSER    DCD    1380275027
        0x0001ccf0:    41462054    T FA    DCD    1095114836
        0x0001ccf4:    44454c49    ILED    DCD    1145392201
        0x0001ccf8:    00000a0d    ....    DCD    2573
        0x0001ccfc:    e000edf0    ....    DCD    3758157296
        0x0001cd00:    00000000    ....    DCD    0
        0x0001cd04:    0001e4d8    ....    DCD    124120
        0x0001cd08:    73252020      %s    DCD    1931812896
        0x0001cd0c:    00000000    ....    DCD    0
        0x0001cd10:    10000163    c...    DCD    268435811
        0x0001cd14:    6c432020      Cl    DCD    1816338464
        0x0001cd18:    20726165    ear     DCD    544366949
        0x0001cd1c:    72727563    curr    DCD    1920103779
        0x0001cd20:    20746e65    ent     DCD    544501349
        0x0001cd24:    666e6f43    Conf    DCD    1718513475
        0x0001cd28:    72756769    igur    DCD    1920296809
        0x0001cd2c:    6f697461    atio    DCD    1869182049
        0x0001cd30:    2528206e    n (%    DCD    623386734
        0x0001cd34:    62202975    u) b    DCD    1646274933
        0x0001cd38:    726f6665    efor    DCD    1919903333
        0x0001cd3c:    77732065    e sw    DCD    2004033637
        0x0001cd40:    68637469    itch    DCD    1751348329
        0x0001cd44:    0d676e69    ing.    DCD    224882281
        0x0001cd48:    0000000a    ....    DCD    10
        0x0001cd4c:    20202020            DCD    538976288
        0x0001cd50:    62616e45    Enab    DCD    1650552389
        0x0001cd54:    5220656c    le R    DCD    1377854828
        0x0001cd58:    746f6d65    emot    DCD    1953459557
        0x0001cd5c:    61572065    e Wa    DCD    1633099877
        0x0001cd60:    7075656b    keup    DCD    1886741867
        0x0001cd64:    00000a0d    ....    DCD    2573
        0x0001cd68:    20202020            DCD    538976288
        0x0001cd6c:    61736944    Disa    DCD    1634953540
        0x0001cd70:    20656c62    ble     DCD    543517794
        0x0001cd74:    6f6d6552    Remo    DCD    1869440338
        0x0001cd78:    57206574    te W    DCD    1461740916
        0x0001cd7c:    75656b61    akeu    DCD    1969580897
        0x0001cd80:    000a0d70    p...    DCD    658800
    $t
        0x0001cd84:    bf00        ..      NOP      
        0x0001cd86:    e009        ..      B        0x1cd9c ; process_control_request + 1196
        0x0001cd88:    bf00        ..      NOP      
        0x0001cd8a:    4806        .H      LDR      r0,[pc,#24] ; [0x1cda4] = 0xe000edf0
        0x0001cd8c:    6801        .h      LDR      r1,[r0,#0]
        0x0001cd8e:    f0010101    ....    AND      r1,r1,#1
        0x0001cd92:    b101        ..      CBZ      r1,0x1cd96 ; process_control_request + 1190
        0x0001cd94:    be00        ..      BKPT     #0
        0x0001cd96:    bf00        ..      NOP      
        0x0001cd98:    2000        .       MOVS     r0,#0
        0x0001cd9a:    e5c5        ..      B        0x1c928 ; process_control_request + 56
        0x0001cd9c:    bf00        ..      NOP      
        0x0001cd9e:    2001        .       MOVS     r0,#1
        0x0001cda0:    e5c2        ..      B        0x1c928 ; process_control_request + 56
    $d
        0x0001cda2:    0000        ..      DCW    0
        0x0001cda4:    e000edf0    ....    DCD    3758157296
    $t
    i.process_get_descriptor
    process_get_descriptor
        0x0001cda8:    e92d47f0    -..G    PUSH     {r4-r10,lr}
        0x0001cdac:    4681        .F      MOV      r9,r0
        0x0001cdae:    460d        .F      MOV      r5,r1
        0x0001cdb0:    8868        h.      LDRH     r0,[r5,#2]
        0x0001cdb2:    0a01        ..      LSRS     r1,r0,#8
        0x0001cdb4:    460f        .F      MOV      r7,r1
        0x0001cdb6:    8868        h.      LDRH     r0,[r5,#2]
        0x0001cdb8:    b2c1        ..      UXTB     r1,r0
        0x0001cdba:    4688        .F      MOV      r8,r1
        0x0001cdbc:    2f06        ./      CMP      r7,#6
        0x0001cdbe:    d06e        n.      BEQ      0x1ce9e ; process_get_descriptor + 246
        0x0001cdc0:    dc06        ..      BGT      0x1cdd0 ; process_get_descriptor + 40
        0x0001cdc2:    2f01        ./      CMP      r7,#1
        0x0001cdc4:    d009        ..      BEQ      0x1cdda ; process_get_descriptor + 50
        0x0001cdc6:    2f02        ./      CMP      r7,#2
        0x0001cdc8:    d03e        >.      BEQ      0x1ce48 ; process_get_descriptor + 160
        0x0001cdca:    2f03        ./      CMP      r7,#3
        0x0001cdcc:    d168        h.      BNE      0x1cea0 ; process_get_descriptor + 248
        0x0001cdce:    e074        t.      B        0x1ceba ; process_get_descriptor + 274
        0x0001cdd0:    2f07        ./      CMP      r7,#7
        0x0001cdd2:    d03a        :.      BEQ      0x1ce4a ; process_get_descriptor + 162
        0x0001cdd4:    2f0f        ./      CMP      r7,#0xf
        0x0001cdd6:    d1f9        ..      BNE      0x1cdcc ; process_get_descriptor + 36
        0x0001cdd8:    e00e        ..      B        0x1cdf8 ; process_get_descriptor + 80
        0x0001cdda:    a052        R.      ADR      r0,{pc}+0x14a ; 0x1cf24
        0x0001cddc:    f7fef9ec    ....    BL       am_util_stdio_printf ; 0x1b1b8
        0x0001cde0:    f000fbce    ....    BL       tud_descriptor_device_cb ; 0x1d580
        0x0001cde4:    4604        .F      MOV      r4,r0
        0x0001cde6:    bf00        ..      NOP      
        0x0001cde8:    2312        .#      MOVS     r3,#0x12
        0x0001cdea:    4622        "F      MOV      r2,r4
        0x0001cdec:    4629        )F      MOV      r1,r5
        0x0001cdee:    4648        HF      MOV      r0,r9
        0x0001cdf0:    f000fb32    ..2.    BL       tud_control_xfer ; 0x1d458
        0x0001cdf4:    e8bd87f0    ....    POP      {r4-r10,pc}
        0x0001cdf8:    a04d        M.      ADR      r0,{pc}+0x138 ; 0x1cf30
        0x0001cdfa:    f7fef9dd    ....    BL       am_util_stdio_printf ; 0x1b1b8
        0x0001cdfe:    484e        NH      LDR      r0,[pc,#312] ; [0x1cf38] = 0
        0x0001ce00:    b908        ..      CBNZ     r0,0x1ce06 ; process_get_descriptor + 94
        0x0001ce02:    2000        .       MOVS     r0,#0
        0x0001ce04:    e7f6        ..      B        0x1cdf4 ; process_get_descriptor + 76
        0x0001ce06:    f3af8000    ....    NOP.W    
        0x0001ce0a:    4604        .F      MOV      r4,r0
        0x0001ce0c:    bf00        ..      NOP      
        0x0001ce0e:    b97c        |.      CBNZ     r4,0x1ce30 ; process_get_descriptor + 136
        0x0001ce10:    f24032fd    @..2    MOV      r2,#0x3fd
        0x0001ce14:    4949        II      LDR      r1,[pc,#292] ; [0x1cf3c] = 0x1e565
        0x0001ce16:    a04a        J.      ADR      r0,{pc}+0x12a ; 0x1cf40
        0x0001ce18:    f7fef9ce    ....    BL       am_util_stdio_printf ; 0x1b1b8
        0x0001ce1c:    bf00        ..      NOP      
        0x0001ce1e:    484e        NH      LDR      r0,[pc,#312] ; [0x1cf58] = 0xe000edf0
        0x0001ce20:    6801        .h      LDR      r1,[r0,#0]
        0x0001ce22:    f0010101    ....    AND      r1,r1,#1
        0x0001ce26:    b101        ..      CBZ      r1,0x1ce2a ; process_get_descriptor + 130
        0x0001ce28:    be00        ..      BKPT     #0
        0x0001ce2a:    bf00        ..      NOP      
        0x0001ce2c:    2000        .       MOVS     r0,#0
        0x0001ce2e:    e7e1        ..      B        0x1cdf4 ; process_get_descriptor + 76
        0x0001ce30:    bf00        ..      NOP      
        0x0001ce32:    1ca0        ..      ADDS     r0,r4,#2
        0x0001ce34:    4601        .F      MOV      r1,r0
        0x0001ce36:    880e        ..      LDRH     r6,[r1,#0]
        0x0001ce38:    bf00        ..      NOP      
        0x0001ce3a:    4633        3F      MOV      r3,r6
        0x0001ce3c:    4622        "F      MOV      r2,r4
        0x0001ce3e:    4629        )F      MOV      r1,r5
        0x0001ce40:    4648        HF      MOV      r0,r9
        0x0001ce42:    f000fb09    ....    BL       tud_control_xfer ; 0x1d458
        0x0001ce46:    e7d5        ..      B        0x1cdf4 ; process_get_descriptor + 76
        0x0001ce48:    bf00        ..      NOP      
        0x0001ce4a:    2f02        ./      CMP      r7,#2
        0x0001ce4c:    d108        ..      BNE      0x1ce60 ; process_get_descriptor + 184
        0x0001ce4e:    4641        AF      MOV      r1,r8
        0x0001ce50:    a042        B.      ADR      r0,{pc}+0x10c ; 0x1cf5c
        0x0001ce52:    f7fef9b1    ....    BL       am_util_stdio_printf ; 0x1b1b8
        0x0001ce56:    4640        @F      MOV      r0,r8
        0x0001ce58:    f000fb8c    ....    BL       tud_descriptor_configuration_cb ; 0x1d574
        0x0001ce5c:    4604        .F      MOV      r4,r0
        0x0001ce5e:    e00c        ..      B        0x1ce7a ; process_get_descriptor + 210
        0x0001ce60:    a044        D.      ADR      r0,{pc}+0x114 ; 0x1cf74
        0x0001ce62:    f7fef9a9    ....    BL       am_util_stdio_printf ; 0x1b1b8
        0x0001ce66:    bf00        ..      NOP      
        0x0001ce68:    484a        JH      LDR      r0,[pc,#296] ; [0x1cf94] = 0
        0x0001ce6a:    b908        ..      CBNZ     r0,0x1ce70 ; process_get_descriptor + 200
        0x0001ce6c:    2000        .       MOVS     r0,#0
        0x0001ce6e:    e7c1        ..      B        0x1cdf4 ; process_get_descriptor + 76
        0x0001ce70:    bf00        ..      NOP      
        0x0001ce72:    4640        @F      MOV      r0,r8
        0x0001ce74:    f3af8000    ....    NOP.W    
        0x0001ce78:    4604        .F      MOV      r4,r0
        0x0001ce7a:    bf00        ..      NOP      
        0x0001ce7c:    b98c        ..      CBNZ     r4,0x1cea2 ; process_get_descriptor + 250
        0x0001ce7e:    f2404217    @..B    MOV      r2,#0x417
        0x0001ce82:    492e        .I      LDR      r1,[pc,#184] ; [0x1cf3c] = 0x1e565
        0x0001ce84:    a02e        ..      ADR      r0,{pc}+0xbc ; 0x1cf40
        0x0001ce86:    f7fef997    ....    BL       am_util_stdio_printf ; 0x1b1b8
        0x0001ce8a:    bf00        ..      NOP      
        0x0001ce8c:    4832        2H      LDR      r0,[pc,#200] ; [0x1cf58] = 0xe000edf0
        0x0001ce8e:    6801        .h      LDR      r1,[r0,#0]
        0x0001ce90:    f0010101    ....    AND      r1,r1,#1
        0x0001ce94:    b101        ..      CBZ      r1,0x1ce98 ; process_get_descriptor + 240
        0x0001ce96:    be00        ..      BKPT     #0
        0x0001ce98:    bf00        ..      NOP      
        0x0001ce9a:    2000        .       MOVS     r0,#0
        0x0001ce9c:    e7aa        ..      B        0x1cdf4 ; process_get_descriptor + 76
        0x0001ce9e:    e024        $.      B        0x1ceea ; process_get_descriptor + 322
        0x0001cea0:    e03e        >.      B        0x1cf20 ; process_get_descriptor + 376
        0x0001cea2:    bf00        ..      NOP      
        0x0001cea4:    1ca0        ..      ADDS     r0,r4,#2
        0x0001cea6:    4601        .F      MOV      r1,r0
        0x0001cea8:    880e        ..      LDRH     r6,[r1,#0]
        0x0001ceaa:    bf00        ..      NOP      
        0x0001ceac:    4633        3F      MOV      r3,r6
        0x0001ceae:    4622        "F      MOV      r2,r4
        0x0001ceb0:    4629        )F      MOV      r1,r5
        0x0001ceb2:    4648        HF      MOV      r0,r9
        0x0001ceb4:    f000fad0    ....    BL       tud_control_xfer ; 0x1d458
        0x0001ceb8:    e79c        ..      B        0x1cdf4 ; process_get_descriptor + 76
        0x0001ceba:    4641        AF      MOV      r1,r8
        0x0001cebc:    a036        6.      ADR      r0,{pc}+0xdc ; 0x1cf98
        0x0001cebe:    f7fef97b    ..{.    BL       am_util_stdio_printf ; 0x1b1b8
        0x0001cec2:    88a9        ..      LDRH     r1,[r5,#4]
        0x0001cec4:    4640        @F      MOV      r0,r8
        0x0001cec6:    f000fb5f    .._.    BL       tud_descriptor_string_cb ; 0x1d588
        0x0001ceca:    4604        .F      MOV      r4,r0
        0x0001cecc:    bf00        ..      NOP      
        0x0001cece:    b90c        ..      CBNZ     r4,0x1ced4 ; process_get_descriptor + 300
        0x0001ced0:    2000        .       MOVS     r0,#0
        0x0001ced2:    e78f        ..      B        0x1cdf4 ; process_get_descriptor + 76
        0x0001ced4:    bf00        ..      NOP      
        0x0001ced6:    bf00        ..      NOP      
        0x0001ced8:    7820         x      LDRB     r0,[r4,#0]
        0x0001ceda:    4606        .F      MOV      r6,r0
        0x0001cedc:    4633        3F      MOV      r3,r6
        0x0001cede:    4622        "F      MOV      r2,r4
        0x0001cee0:    4629        )F      MOV      r1,r5
        0x0001cee2:    4648        HF      MOV      r0,r9
        0x0001cee4:    f000fab8    ....    BL       tud_control_xfer ; 0x1d458
        0x0001cee8:    e784        ..      B        0x1cdf4 ; process_get_descriptor + 76
        0x0001ceea:    a02f        /.      ADR      r0,{pc}+0xbe ; 0x1cfa8
        0x0001ceec:    f7fef964    ..d.    BL       am_util_stdio_printf ; 0x1b1b8
        0x0001cef0:    bf00        ..      NOP      
        0x0001cef2:    4832        2H      LDR      r0,[pc,#200] ; [0x1cfbc] = 0
        0x0001cef4:    b908        ..      CBNZ     r0,0x1cefa ; process_get_descriptor + 338
        0x0001cef6:    2000        .       MOVS     r0,#0
        0x0001cef8:    e77c        |.      B        0x1cdf4 ; process_get_descriptor + 76
        0x0001cefa:    bf00        ..      NOP      
        0x0001cefc:    f3af8000    ....    NOP.W    
        0x0001cf00:    4604        .F      MOV      r4,r0
        0x0001cf02:    bf00        ..      NOP      
        0x0001cf04:    b90c        ..      CBNZ     r4,0x1cf0a ; process_get_descriptor + 354
        0x0001cf06:    2000        .       MOVS     r0,#0
        0x0001cf08:    e774        t.      B        0x1cdf4 ; process_get_descriptor + 76
        0x0001cf0a:    bf00        ..      NOP      
        0x0001cf0c:    bf00        ..      NOP      
        0x0001cf0e:    7820         x      LDRB     r0,[r4,#0]
        0x0001cf10:    4606        .F      MOV      r6,r0
        0x0001cf12:    4633        3F      MOV      r3,r6
        0x0001cf14:    4622        "F      MOV      r2,r4
        0x0001cf16:    4629        )F      MOV      r1,r5
        0x0001cf18:    4648        HF      MOV      r0,r9
        0x0001cf1a:    f000fa9d    ....    BL       tud_control_xfer ; 0x1d458
        0x0001cf1e:    e769        i.      B        0x1cdf4 ; process_get_descriptor + 76
        0x0001cf20:    2000        .       MOVS     r0,#0
        0x0001cf22:    e767        g.      B        0x1cdf4 ; process_get_descriptor + 76
    $d
        0x0001cf24:    76654420     Dev    DCD    1986348064
        0x0001cf28:    0d656369    ice.    DCD    224748393
        0x0001cf2c:    0000000a    ....    DCD    10
        0x0001cf30:    534f4220     BOS    DCD    1397703200
        0x0001cf34:    00000a0d    ....    DCD    2573
        0x0001cf38:    00000000    ....    DCD    0
        0x0001cf3c:    0001e565    e...    DCD    124261
        0x0001cf40:    25207325    %s %    DCD    622883621
        0x0001cf44:    41203a64    d: A    DCD    1092631140
        0x0001cf48:    52455353    SSER    DCD    1380275027
        0x0001cf4c:    41462054    T FA    DCD    1095114836
        0x0001cf50:    44454c49    ILED    DCD    1145392201
        0x0001cf54:    00000a0d    ....    DCD    2573
        0x0001cf58:    e000edf0    ....    DCD    3758157296
        0x0001cf5c:    6e6f4320     Con    DCD    1852785440
        0x0001cf60:    75676966    figu    DCD    1969711462
        0x0001cf64:    69746172    rati    DCD    1769234802
        0x0001cf68:    255b6e6f    on[%    DCD    626749039
        0x0001cf6c:    0a0d5d75    u]..    DCD    168648053
        0x0001cf70:    00000000    ....    DCD    0
        0x0001cf74:    68744f20     Oth    DCD    1752452896
        0x0001cf78:    53207265    er S    DCD    1394635365
        0x0001cf7c:    64656570    peed    DCD    1684366704
        0x0001cf80:    6e6f4320     Con    DCD    1852785440
        0x0001cf84:    75676966    figu    DCD    1969711462
        0x0001cf88:    69746172    rati    DCD    1769234802
        0x0001cf8c:    0a0d6e6f    on..    DCD    168652399
        0x0001cf90:    00000000    ....    DCD    0
        0x0001cf94:    00000000    ....    DCD    0
        0x0001cf98:    72745320     Str    DCD    1920226080
        0x0001cf9c:    5b676e69    ing[    DCD    1533505129
        0x0001cfa0:    0d5d7525    %u].    DCD    224228645
        0x0001cfa4:    0000000a    ....    DCD    10
        0x0001cfa8:    76654420     Dev    DCD    1986348064
        0x0001cfac:    20656369    ice     DCD    543515497
        0x0001cfb0:    6c617551    Qual    DCD    1818326353
        0x0001cfb4:    65696669    ifie    DCD    1701406313
        0x0001cfb8:    000a0d72    r...    DCD    658802
        0x0001cfbc:    00000000    ....    DCD    0
    $t
    i.process_set_config
    process_set_config
        0x0001cfc0:    e92d4ff3    -..O    PUSH     {r0,r1,r4-r11,lr}
        0x0001cfc4:    b083        ..      SUB      sp,sp,#0xc
        0x0001cfc6:    9904        ..      LDR      r1,[sp,#0x10]
        0x0001cfc8:    1e49        I.      SUBS     r1,r1,#1
        0x0001cfca:    b2c8        ..      UXTB     r0,r1
        0x0001cfcc:    f000fad2    ....    BL       tud_descriptor_configuration_cb ; 0x1d574
        0x0001cfd0:    4605        .F      MOV      r5,r0
        0x0001cfd2:    bf00        ..      NOP      
        0x0001cfd4:    b115        ..      CBZ      r5,0x1cfdc ; process_set_config + 28
        0x0001cfd6:    7868        hx      LDRB     r0,[r5,#1]
        0x0001cfd8:    2802        .(      CMP      r0,#2
        0x0001cfda:    d011        ..      BEQ      0x1d000 ; process_set_config + 64
        0x0001cfdc:    f240327b    @.{2    MOV      r2,#0x37b
        0x0001cfe0:    4961        aI      LDR      r1,[pc,#388] ; [0x1d168] = 0x1e552
        0x0001cfe2:    a062        b.      ADR      r0,{pc}+0x18a ; 0x1d16c
        0x0001cfe4:    f7fef8e8    ....    BL       am_util_stdio_printf ; 0x1b1b8
        0x0001cfe8:    bf00        ..      NOP      
        0x0001cfea:    4866        fH      LDR      r0,[pc,#408] ; [0x1d184] = 0xe000edf0
        0x0001cfec:    6801        .h      LDR      r1,[r0,#0]
        0x0001cfee:    f0010101    ....    AND      r1,r1,#1
        0x0001cff2:    b101        ..      CBZ      r1,0x1cff6 ; process_set_config + 54
        0x0001cff4:    be00        ..      BKPT     #0
        0x0001cff6:    bf00        ..      NOP      
        0x0001cff8:    2000        .       MOVS     r0,#0
        0x0001cffa:    b005        ..      ADD      sp,sp,#0x14
        0x0001cffc:    e8bd8ff0    ....    POP      {r4-r11,pc}
        0x0001d000:    bf00        ..      NOP      
        0x0001d002:    79e8        .y      LDRB     r0,[r5,#7]
        0x0001d004:    0940        @.      LSRS     r0,r0,#5
        0x0001d006:    4960        `I      LDR      r1,[pc,#384] ; [0x1d188] = 0x10000160
        0x0001d008:    7809        .x      LDRB     r1,[r1,#0]
        0x0001d00a:    f3601104    `...    BFI      r1,r0,#4,#1
        0x0001d00e:    485e        ^H      LDR      r0,[pc,#376] ; [0x1d188] = 0x10000160
        0x0001d010:    7001        .p      STRB     r1,[r0,#0]
        0x0001d012:    79e8        .y      LDRB     r0,[r5,#7]
        0x0001d014:    0980        ..      LSRS     r0,r0,#6
        0x0001d016:    495c        \I      LDR      r1,[pc,#368] ; [0x1d188] = 0x10000160
        0x0001d018:    7809        .x      LDRB     r1,[r1,#0]
        0x0001d01a:    f3601145    `.E.    BFI      r1,r0,#5,#1
        0x0001d01e:    485a        ZH      LDR      r0,[pc,#360] ; [0x1d188] = 0x10000160
        0x0001d020:    7001        .p      STRB     r1,[r0,#0]
        0x0001d022:    f1050409    ....    ADD      r4,r5,#9
        0x0001d026:    8868        h.      LDRH     r0,[r5,#2]
        0x0001d028:    eb000905    ....    ADD      r9,r0,r5
        0x0001d02c:    e093        ..      B        0x1d156 ; process_set_config + 406
        0x0001d02e:    2001        .       MOVS     r0,#1
        0x0001d030:    9002        ..      STR      r0,[sp,#8]
        0x0001d032:    bf00        ..      NOP      
        0x0001d034:    7860        `x      LDRB     r0,[r4,#1]
        0x0001d036:    280b        .(      CMP      r0,#0xb
        0x0001d038:    d108        ..      BNE      0x1d04c ; process_set_config + 140
        0x0001d03a:    46a0        .F      MOV      r8,r4
        0x0001d03c:    f8980003    ....    LDRB     r0,[r8,#3]
        0x0001d040:    9002        ..      STR      r0,[sp,#8]
        0x0001d042:    4620         F      MOV      r0,r4
        0x0001d044:    f000f8c5    ....    BL       tu_desc_next ; 0x1d1d2
        0x0001d048:    4604        .F      MOV      r4,r0
        0x0001d04a:    bf00        ..      NOP      
        0x0001d04c:    bf00        ..      NOP      
        0x0001d04e:    bf00        ..      NOP      
        0x0001d050:    7860        `x      LDRB     r0,[r4,#1]
        0x0001d052:    2804        .(      CMP      r0,#4
        0x0001d054:    d00f        ..      BEQ      0x1d076 ; process_set_config + 182
        0x0001d056:    f2403296    @..2    MOV      r2,#0x396
        0x0001d05a:    4943        CI      LDR      r1,[pc,#268] ; [0x1d168] = 0x1e552
        0x0001d05c:    a043        C.      ADR      r0,{pc}+0x110 ; 0x1d16c
        0x0001d05e:    f7fef8ab    ....    BL       am_util_stdio_printf ; 0x1b1b8
        0x0001d062:    bf00        ..      NOP      
        0x0001d064:    4847        GH      LDR      r0,[pc,#284] ; [0x1d184] = 0xe000edf0
        0x0001d066:    6801        .h      LDR      r1,[r0,#0]
        0x0001d068:    f0010101    ....    AND      r1,r1,#1
        0x0001d06c:    b101        ..      CBZ      r1,0x1d070 ; process_set_config + 176
        0x0001d06e:    be00        ..      BKPT     #0
        0x0001d070:    bf00        ..      NOP      
        0x0001d072:    2000        .       MOVS     r0,#0
        0x0001d074:    e7c1        ..      B        0x1cffa ; process_set_config + 58
        0x0001d076:    bf00        ..      NOP      
        0x0001d078:    4627        'F      MOV      r7,r4
        0x0001d07a:    eba90004    ....    SUB      r0,r9,r4
        0x0001d07e:    fa1ffa80    ....    UXTH     r10,r0
        0x0001d082:    2600        .&      MOVS     r6,#0
        0x0001d084:    e049        I.      B        0x1d11a ; process_set_config + 346
        0x0001d086:    4630        0F      MOV      r0,r6
        0x0001d088:    f7feff32    ..2.    BL       get_driver ; 0x1bef0
        0x0001d08c:    9001        ..      STR      r0,[sp,#4]
        0x0001d08e:    9801        ..      LDR      r0,[sp,#4]
        0x0001d090:    4652        RF      MOV      r2,r10
        0x0001d092:    4639        9F      MOV      r1,r7
        0x0001d094:    68c3        .h      LDR      r3,[r0,#0xc]
        0x0001d096:    9803        ..      LDR      r0,[sp,#0xc]
        0x0001d098:    4798        .G      BLX      r3
        0x0001d09a:    4680        .F      MOV      r8,r0
        0x0001d09c:    f1b80f09    ....    CMP      r8,#9
        0x0001d0a0:    d339        9.      BCC      0x1d116 ; process_set_config + 342
        0x0001d0a2:    45d0        .E      CMP      r8,r10
        0x0001d0a4:    dc37        7.      BGT      0x1d116 ; process_set_config + 342
        0x0001d0a6:    9801        ..      LDR      r0,[sp,#4]
        0x0001d0a8:    6801        .h      LDR      r1,[r0,#0]
        0x0001d0aa:    a038        8.      ADR      r0,{pc}+0xe2 ; 0x1d18c
        0x0001d0ac:    f7fef884    ....    BL       am_util_stdio_printf ; 0x1b1b8
        0x0001d0b0:    f04f0b00    O...    MOV      r11,#0
        0x0001d0b4:    e023        #.      B        0x1d0fe ; process_set_config + 318
        0x0001d0b6:    78b8        .x      LDRB     r0,[r7,#2]
        0x0001d0b8:    4458        XD      ADD      r0,r0,r11
        0x0001d0ba:    b2c0        ..      UXTB     r0,r0
        0x0001d0bc:    9000        ..      STR      r0,[sp,#0]
        0x0001d0be:    bf00        ..      NOP      
        0x0001d0c0:    4831        1H      LDR      r0,[pc,#196] ; [0x1d188] = 0x10000160
        0x0001d0c2:    1cc0        ..      ADDS     r0,r0,#3
        0x0001d0c4:    9900        ..      LDR      r1,[sp,#0]
        0x0001d0c6:    5c40        @\      LDRB     r0,[r0,r1]
        0x0001d0c8:    28ff        .(      CMP      r0,#0xff
        0x0001d0ca:    d00f        ..      BEQ      0x1d0ec ; process_set_config + 300
        0x0001d0cc:    f24032bd    @..2    MOV      r2,#0x3bd
        0x0001d0d0:    4925        %I      LDR      r1,[pc,#148] ; [0x1d168] = 0x1e552
        0x0001d0d2:    a026        &.      ADR      r0,{pc}+0x9a ; 0x1d16c
        0x0001d0d4:    f7fef870    ..p.    BL       am_util_stdio_printf ; 0x1b1b8
        0x0001d0d8:    bf00        ..      NOP      
        0x0001d0da:    482a        *H      LDR      r0,[pc,#168] ; [0x1d184] = 0xe000edf0
        0x0001d0dc:    6801        .h      LDR      r1,[r0,#0]
        0x0001d0de:    f0010101    ....    AND      r1,r1,#1
        0x0001d0e2:    b101        ..      CBZ      r1,0x1d0e6 ; process_set_config + 294
        0x0001d0e4:    be00        ..      BKPT     #0
        0x0001d0e6:    bf00        ..      NOP      
        0x0001d0e8:    2000        .       MOVS     r0,#0
        0x0001d0ea:    e786        ..      B        0x1cffa ; process_set_config + 58
        0x0001d0ec:    bf00        ..      NOP      
        0x0001d0ee:    4826        &H      LDR      r0,[pc,#152] ; [0x1d188] = 0x10000160
        0x0001d0f0:    1cc0        ..      ADDS     r0,r0,#3
        0x0001d0f2:    9900        ..      LDR      r1,[sp,#0]
        0x0001d0f4:    5446        FT      STRB     r6,[r0,r1]
        0x0001d0f6:    f10b0001    ....    ADD      r0,r11,#1
        0x0001d0fa:    f0000bff    ....    AND      r11,r0,#0xff
        0x0001d0fe:    9802        ..      LDR      r0,[sp,#8]
        0x0001d100:    4583        .E      CMP      r11,r0
        0x0001d102:    dbd8        ..      BLT      0x1d0b6 ; process_set_config + 246
        0x0001d104:    4633        3F      MOV      r3,r6
        0x0001d106:    4642        BF      MOV      r2,r8
        0x0001d108:    4639        9F      MOV      r1,r7
        0x0001d10a:    481f        .H      LDR      r0,[pc,#124] ; [0x1d188] = 0x10000160
        0x0001d10c:    3013        .0      ADDS     r0,r0,#0x13
        0x0001d10e:    f000f86b    ..k.    BL       tu_edpt_bind_driver ; 0x1d1e8
        0x0001d112:    4444        DD      ADD      r4,r4,r8
        0x0001d114:    e006        ..      B        0x1d124 ; process_set_config + 356
        0x0001d116:    1c70        p.      ADDS     r0,r6,#1
        0x0001d118:    b2c6        ..      UXTB     r6,r0
        0x0001d11a:    4820         H      LDR      r0,[pc,#128] ; [0x1d19c] = 0x10000034
        0x0001d11c:    7800        .x      LDRB     r0,[r0,#0]
        0x0001d11e:    1c40        @.      ADDS     r0,r0,#1
        0x0001d120:    4286        .B      CMP      r6,r0
        0x0001d122:    dbb0        ..      BLT      0x1d086 ; process_set_config + 198
        0x0001d124:    bf00        ..      NOP      
        0x0001d126:    bf00        ..      NOP      
        0x0001d128:    481c        .H      LDR      r0,[pc,#112] ; [0x1d19c] = 0x10000034
        0x0001d12a:    7800        .x      LDRB     r0,[r0,#0]
        0x0001d12c:    1c40        @.      ADDS     r0,r0,#1
        0x0001d12e:    4286        .B      CMP      r6,r0
        0x0001d130:    db0f        ..      BLT      0x1d152 ; process_set_config + 402
        0x0001d132:    f44f7273    O.sr    MOV      r2,#0x3cc
        0x0001d136:    490c        .I      LDR      r1,[pc,#48] ; [0x1d168] = 0x1e552
        0x0001d138:    a00c        ..      ADR      r0,{pc}+0x34 ; 0x1d16c
        0x0001d13a:    f7fef83d    ..=.    BL       am_util_stdio_printf ; 0x1b1b8
        0x0001d13e:    bf00        ..      NOP      
        0x0001d140:    4810        .H      LDR      r0,[pc,#64] ; [0x1d184] = 0xe000edf0
        0x0001d142:    6801        .h      LDR      r1,[r0,#0]
        0x0001d144:    f0010101    ....    AND      r1,r1,#1
        0x0001d148:    b101        ..      CBZ      r1,0x1d14c ; process_set_config + 396
        0x0001d14a:    be00        ..      BKPT     #0
        0x0001d14c:    bf00        ..      NOP      
        0x0001d14e:    2000        .       MOVS     r0,#0
        0x0001d150:    e753        S.      B        0x1cffa ; process_set_config + 58
        0x0001d152:    bf00        ..      NOP      
        0x0001d154:    bf00        ..      NOP      
        0x0001d156:    454c        LE      CMP      r4,r9
        0x0001d158:    f4ffaf69    ..i.    BCC      0x1d02e ; process_set_config + 110
        0x0001d15c:    4810        .H      LDR      r0,[pc,#64] ; [0x1d1a0] = 0x1d7b1
        0x0001d15e:    b108        ..      CBZ      r0,0x1d164 ; process_set_config + 420
        0x0001d160:    f000fb26    ..&.    BL       tud_mount_cb ; 0x1d7b0
        0x0001d164:    2001        .       MOVS     r0,#1
        0x0001d166:    e748        H.      B        0x1cffa ; process_set_config + 58
    $d
        0x0001d168:    0001e552    R...    DCD    124242
        0x0001d16c:    25207325    %s %    DCD    622883621
        0x0001d170:    41203a64    d: A    DCD    1092631140
        0x0001d174:    52455353    SSER    DCD    1380275027
        0x0001d178:    41462054    T FA    DCD    1095114836
        0x0001d17c:    44454c49    ILED    DCD    1145392201
        0x0001d180:    00000a0d    ....    DCD    2573
        0x0001d184:    e000edf0    ....    DCD    3758157296
        0x0001d188:    10000160    `...    DCD    268435808
        0x0001d18c:    73252020      %s    DCD    1931812896
        0x0001d190:    65706f20     ope    DCD    1701867296
        0x0001d194:    0d64656e    ned.    DCD    224683374
        0x0001d198:    0000000a    ....    DCD    10
        0x0001d19c:    10000034    4...    DCD    268435508
        0x0001d1a0:    0001d7b1    ....    DCD    120753
    $t
    i.revmaj_get
    revmaj_get
        0x0001d1a4:    4601        .F      MOV      r1,r0
        0x0001d1a6:    f3c11203    ....    UBFX     r2,r1,#4,#4
        0x0001d1aa:    f1020040    ..@.    ADD      r0,r2,#0x40
        0x0001d1ae:    4770        pG      BX       lr
    i.simple_strlen
    simple_strlen
        0x0001d1b0:    4601        .F      MOV      r1,r0
        0x0001d1b2:    2000        .       MOVS     r0,#0
        0x0001d1b4:    b901        ..      CBNZ     r1,0x1d1b8 ; simple_strlen + 8
        0x0001d1b6:    4770        pG      BX       lr
        0x0001d1b8:    e000        ..      B        0x1d1bc ; simple_strlen + 12
        0x0001d1ba:    1c40        @.      ADDS     r0,r0,#1
        0x0001d1bc:    f8113b01    ...;    LDRB     r3,[r1],#1
        0x0001d1c0:    2b00        .+      CMP      r3,#0
        0x0001d1c2:    d1fa        ..      BNE      0x1d1ba ; simple_strlen + 10
        0x0001d1c4:    bf00        ..      NOP      
        0x0001d1c6:    e7f6        ..      B        0x1d1b6 ; simple_strlen + 6
    i.tu_desc_next
    tu_desc_next
        0x0001d1c8:    4601        .F      MOV      r1,r0
        0x0001d1ca:    460a        .F      MOV      r2,r1
        0x0001d1cc:    7810        .x      LDRB     r0,[r2,#0]
        0x0001d1ce:    4410        .D      ADD      r0,r0,r2
        0x0001d1d0:    4770        pG      BX       lr
    i.tu_desc_next
    tu_desc_next
        0x0001d1d2:    4601        .F      MOV      r1,r0
        0x0001d1d4:    460a        .F      MOV      r2,r1
        0x0001d1d6:    7810        .x      LDRB     r0,[r2,#0]
        0x0001d1d8:    4410        .D      ADD      r0,r0,r2
        0x0001d1da:    4770        pG      BX       lr
    i.tu_desc_next
    tu_desc_next
        0x0001d1dc:    4601        .F      MOV      r1,r0
        0x0001d1de:    460a        .F      MOV      r2,r1
        0x0001d1e0:    7810        .x      LDRB     r0,[r2,#0]
        0x0001d1e2:    4410        .D      ADD      r0,r0,r2
        0x0001d1e4:    4770        pG      BX       lr
        0x0001d1e6:    0000        ..      MOVS     r0,r0
    i.tu_edpt_bind_driver
    tu_edpt_bind_driver
        0x0001d1e8:    e92d47f0    -..G    PUSH     {r4-r10,lr}
        0x0001d1ec:    4680        .F      MOV      r8,r0
        0x0001d1ee:    460e        .F      MOV      r6,r1
        0x0001d1f0:    4691        .F      MOV      r9,r2
        0x0001d1f2:    461f        .F      MOV      r7,r3
        0x0001d1f4:    4634        4F      MOV      r4,r6
        0x0001d1f6:    eb040a09    ....    ADD      r10,r4,r9
        0x0001d1fa:    e015        ..      B        0x1d228 ; tu_edpt_bind_driver + 64
        0x0001d1fc:    bf00        ..      NOP      
        0x0001d1fe:    7860        `x      LDRB     r0,[r4,#1]
        0x0001d200:    2805        .(      CMP      r0,#5
        0x0001d202:    d10d        ..      BNE      0x1d220 ; tu_edpt_bind_driver + 56
        0x0001d204:    78a5        .x      LDRB     r5,[r4,#2]
        0x0001d206:    463a        :F      MOV      r2,r7
        0x0001d208:    4629        )F      MOV      r1,r5
        0x0001d20a:    a009        ..      ADR      r0,{pc}+0x26 ; 0x1d230
        0x0001d20c:    f7fdffd4    ....    BL       am_util_stdio_printf ; 0x1b1b8
        0x0001d210:    4628        (F      MOV      r0,r5
        0x0001d212:    f0200180     ...    BIC      r1,r0,#0x80
        0x0001d216:    eb080241    ..A.    ADD      r2,r8,r1,LSL #1
        0x0001d21a:    09c1        ..      LSRS     r1,r0,#7
        0x0001d21c:    5457        WT      STRB     r7,[r2,r1]
        0x0001d21e:    bf00        ..      NOP      
        0x0001d220:    4620         F      MOV      r0,r4
        0x0001d222:    f7ffffd1    ....    BL       tu_desc_next ; 0x1d1c8
        0x0001d226:    4604        .F      MOV      r4,r0
        0x0001d228:    4554        TE      CMP      r4,r10
        0x0001d22a:    d3e7        ..      BCC      0x1d1fc ; tu_edpt_bind_driver + 20
        0x0001d22c:    e8bd87f0    ....    POP      {r4-r10,pc}
    $d
        0x0001d230:    69422020      Bi    DCD    1765941280
        0x0001d234:    4520646e    nd E    DCD    1159750766
        0x0001d238:    30252050    P %0    DCD    807739472
        0x0001d23c:    74207832    2x t    DCD    1948284978
        0x0001d240:    7264206f    o dr    DCD    1919164527
        0x0001d244:    72657669    iver    DCD    1919252073
        0x0001d248:    20646920     id     DCD    543451424
        0x0001d24c:    0a0d7525    %u..    DCD    168654117
        0x0001d250:    00000000    ....    DCD    0
    $t
    i.tu_edpt_dir
    tu_edpt_dir
        0x0001d254:    4601        .F      MOV      r1,r0
        0x0001d256:    f3c110c0    ....    UBFX     r0,r1,#7,#1
        0x0001d25a:    4770        pG      BX       lr
    i.tu_edpt_number
    tu_edpt_number
        0x0001d25c:    4601        .F      MOV      r1,r0
        0x0001d25e:    f0210080    !...    BIC      r0,r1,#0x80
        0x0001d262:    4770        pG      BX       lr
    i.tu_edpt_validate
    tu_edpt_validate
        0x0001d264:    e92d41f0    -..A    PUSH     {r4-r8,lr}
        0x0001d268:    4605        .F      MOV      r5,r0
        0x0001d26a:    460e        .F      MOV      r6,r1
        0x0001d26c:    bf00        ..      NOP      
        0x0001d26e:    88a8        ..      LDRH     r0,[r5,#4]
        0x0001d270:    f3c0000a    ....    UBFX     r0,r0,#0,#11
        0x0001d274:    4604        .F      MOV      r4,r0
        0x0001d276:    78a9        .x      LDRB     r1,[r5,#2]
        0x0001d278:    4622        "F      MOV      r2,r4
        0x0001d27a:    a039        9.      ADR      r0,{pc}+0xe6 ; 0x1d360
        0x0001d27c:    f7fdff9c    ....    BL       am_util_stdio_printf ; 0x1b1b8
        0x0001d280:    78e8        .x      LDRB     r0,[r5,#3]
        0x0001d282:    f0000003    ....    AND      r0,r0,#3
        0x0001d286:    2801        .(      CMP      r0,#1
        0x0001d288:    d004        ..      BEQ      0x1d294 ; tu_edpt_validate + 48
        0x0001d28a:    2802        .(      CMP      r0,#2
        0x0001d28c:    d01e        ..      BEQ      0x1d2cc ; tu_edpt_validate + 104
        0x0001d28e:    2803        .(      CMP      r0,#3
        0x0001d290:    d160        `.      BNE      0x1d354 ; tu_edpt_validate + 240
        0x0001d292:    e045        E.      B        0x1d320 ; tu_edpt_validate + 188
        0x0001d294:    2e02        ..      CMP      r6,#2
        0x0001d296:    d101        ..      BNE      0x1d29c ; tu_edpt_validate + 56
        0x0001d298:    0270        p.      LSLS     r0,r6,#9
        0x0001d29a:    e001        ..      B        0x1d2a0 ; tu_edpt_validate + 60
        0x0001d29c:    f24030ff    @..0    MOV      r0,#0x3ff
        0x0001d2a0:    4607        .F      MOV      r7,r0
        0x0001d2a2:    bf00        ..      NOP      
        0x0001d2a4:    42bc        .B      CMP      r4,r7
        0x0001d2a6:    dd0f        ..      BLE      0x1d2c8 ; tu_edpt_validate + 100
        0x0001d2a8:    2251        Q"      MOVS     r2,#0x51
        0x0001d2aa:    4935        5I      LDR      r1,[pc,#212] ; [0x1d380] = 0x1e486
        0x0001d2ac:    a035        5.      ADR      r0,{pc}+0xd8 ; 0x1d384
        0x0001d2ae:    f7fdff83    ....    BL       am_util_stdio_printf ; 0x1b1b8
        0x0001d2b2:    bf00        ..      NOP      
        0x0001d2b4:    4839        9H      LDR      r0,[pc,#228] ; [0x1d39c] = 0xe000edf0
        0x0001d2b6:    6801        .h      LDR      r1,[r0,#0]
        0x0001d2b8:    f0010101    ....    AND      r1,r1,#1
        0x0001d2bc:    b101        ..      CBZ      r1,0x1d2c0 ; tu_edpt_validate + 92
        0x0001d2be:    be00        ..      BKPT     #0
        0x0001d2c0:    bf00        ..      NOP      
        0x0001d2c2:    2000        .       MOVS     r0,#0
        0x0001d2c4:    e8bd81f0    ....    POP      {r4-r8,pc}
        0x0001d2c8:    bf00        ..      NOP      
        0x0001d2ca:    e045        E.      B        0x1d358 ; tu_edpt_validate + 244
        0x0001d2cc:    2e02        ..      CMP      r6,#2
        0x0001d2ce:    d113        ..      BNE      0x1d2f8 ; tu_edpt_validate + 148
        0x0001d2d0:    bf00        ..      NOP      
        0x0001d2d2:    f5b47f00    ....    CMP      r4,#0x200
        0x0001d2d6:    d00e        ..      BEQ      0x1d2f6 ; tu_edpt_validate + 146
        0x0001d2d8:    2259        Y"      MOVS     r2,#0x59
        0x0001d2da:    4929        )I      LDR      r1,[pc,#164] ; [0x1d380] = 0x1e486
        0x0001d2dc:    a029        ).      ADR      r0,{pc}+0xa8 ; 0x1d384
        0x0001d2de:    f7fdff6b    ..k.    BL       am_util_stdio_printf ; 0x1b1b8
        0x0001d2e2:    bf00        ..      NOP      
        0x0001d2e4:    482d        -H      LDR      r0,[pc,#180] ; [0x1d39c] = 0xe000edf0
        0x0001d2e6:    6801        .h      LDR      r1,[r0,#0]
        0x0001d2e8:    f0010101    ....    AND      r1,r1,#1
        0x0001d2ec:    b101        ..      CBZ      r1,0x1d2f0 ; tu_edpt_validate + 140
        0x0001d2ee:    be00        ..      BKPT     #0
        0x0001d2f0:    bf00        ..      NOP      
        0x0001d2f2:    2000        .       MOVS     r0,#0
        0x0001d2f4:    e7e6        ..      B        0x1d2c4 ; tu_edpt_validate + 96
        0x0001d2f6:    e012        ..      B        0x1d31e ; tu_edpt_validate + 186
        0x0001d2f8:    bf00        ..      NOP      
        0x0001d2fa:    2c40        @,      CMP      r4,#0x40
        0x0001d2fc:    dd0e        ..      BLE      0x1d31c ; tu_edpt_validate + 184
        0x0001d2fe:    225d        ]"      MOVS     r2,#0x5d
        0x0001d300:    491f        .I      LDR      r1,[pc,#124] ; [0x1d380] = 0x1e486
        0x0001d302:    a020         .      ADR      r0,{pc}+0x82 ; 0x1d384
        0x0001d304:    f7fdff58    ..X.    BL       am_util_stdio_printf ; 0x1b1b8
        0x0001d308:    bf00        ..      NOP      
        0x0001d30a:    4824        $H      LDR      r0,[pc,#144] ; [0x1d39c] = 0xe000edf0
        0x0001d30c:    6801        .h      LDR      r1,[r0,#0]
        0x0001d30e:    f0010101    ....    AND      r1,r1,#1
        0x0001d312:    b101        ..      CBZ      r1,0x1d316 ; tu_edpt_validate + 178
        0x0001d314:    be00        ..      BKPT     #0
        0x0001d316:    bf00        ..      NOP      
        0x0001d318:    2000        .       MOVS     r0,#0
        0x0001d31a:    e7d3        ..      B        0x1d2c4 ; tu_edpt_validate + 96
        0x0001d31c:    bf00        ..      NOP      
        0x0001d31e:    e01b        ..      B        0x1d358 ; tu_edpt_validate + 244
        0x0001d320:    2e02        ..      CMP      r6,#2
        0x0001d322:    d101        ..      BNE      0x1d328 ; tu_edpt_validate + 196
        0x0001d324:    0270        p.      LSLS     r0,r6,#9
        0x0001d326:    e000        ..      B        0x1d32a ; tu_edpt_validate + 198
        0x0001d328:    2040        @       MOVS     r0,#0x40
        0x0001d32a:    4607        .F      MOV      r7,r0
        0x0001d32c:    bf00        ..      NOP      
        0x0001d32e:    42bc        .B      CMP      r4,r7
        0x0001d330:    dd0e        ..      BLE      0x1d350 ; tu_edpt_validate + 236
        0x0001d332:    2264        d"      MOVS     r2,#0x64
        0x0001d334:    4912        .I      LDR      r1,[pc,#72] ; [0x1d380] = 0x1e486
        0x0001d336:    a013        ..      ADR      r0,{pc}+0x4e ; 0x1d384
        0x0001d338:    f7fdff3e    ..>.    BL       am_util_stdio_printf ; 0x1b1b8
        0x0001d33c:    bf00        ..      NOP      
        0x0001d33e:    4817        .H      LDR      r0,[pc,#92] ; [0x1d39c] = 0xe000edf0
        0x0001d340:    6801        .h      LDR      r1,[r0,#0]
        0x0001d342:    f0010101    ....    AND      r1,r1,#1
        0x0001d346:    b101        ..      CBZ      r1,0x1d34a ; tu_edpt_validate + 230
        0x0001d348:    be00        ..      BKPT     #0
        0x0001d34a:    bf00        ..      NOP      
        0x0001d34c:    2000        .       MOVS     r0,#0
        0x0001d34e:    e7b9        ..      B        0x1d2c4 ; tu_edpt_validate + 96
        0x0001d350:    bf00        ..      NOP      
        0x0001d352:    e001        ..      B        0x1d358 ; tu_edpt_validate + 244
        0x0001d354:    2000        .       MOVS     r0,#0
        0x0001d356:    e7b5        ..      B        0x1d2c4 ; tu_edpt_validate + 96
        0x0001d358:    bf00        ..      NOP      
        0x0001d35a:    2001        .       MOVS     r0,#1
        0x0001d35c:    e7b2        ..      B        0x1d2c4 ; tu_edpt_validate + 96
    $d
        0x0001d35e:    0000        ..      DCW    0
        0x0001d360:    704f2020      Op    DCD    1884233760
        0x0001d364:    45206e65    en E    DCD    1159753317
        0x0001d368:    30252050    P %0    DCD    807739472
        0x0001d36c:    77205832    2X w    DCD    1998608434
        0x0001d370:    20687469    ith     DCD    543716457
        0x0001d374:    657a6953    Size    DCD    1702521171
        0x0001d378:    25203d20     = %    DCD    622869792
        0x0001d37c:    000a0d75    u...    DCD    658805
        0x0001d380:    0001e486    ....    DCD    124038
        0x0001d384:    25207325    %s %    DCD    622883621
        0x0001d388:    41203a64    d: A    DCD    1092631140
        0x0001d38c:    52455353    SSER    DCD    1380275027
        0x0001d390:    41462054    T FA    DCD    1095114836
        0x0001d394:    44454c49    ILED    DCD    1145392201
        0x0001d398:    00000a0d    ....    DCD    2573
        0x0001d39c:    e000edf0    ....    DCD    3758157296
    $t
    i.tu_fifo_clear
    tu_fifo_clear
        0x0001d3a0:    4601        .F      MOV      r1,r0
        0x0001d3a2:    2000        .       MOVS     r0,#0
        0x0001d3a4:    81c8        ..      STRH     r0,[r1,#0xe]
        0x0001d3a6:    8208        ..      STRH     r0,[r1,#0x10]
        0x0001d3a8:    8888        ..      LDRH     r0,[r1,#4]
        0x0001d3aa:    0040        @.      LSLS     r0,r0,#1
        0x0001d3ac:    1e40        @.      SUBS     r0,r0,#1
        0x0001d3ae:    8188        ..      STRH     r0,[r1,#0xc]
        0x0001d3b0:    8988        ..      LDRH     r0,[r1,#0xc]
        0x0001d3b2:    f64f72ff    O..r    MOV      r2,#0xffff
        0x0001d3b6:    1a10        ..      SUBS     r0,r2,r0
        0x0001d3b8:    8148        H.      STRH     r0,[r1,#0xa]
        0x0001d3ba:    2001        .       MOVS     r0,#1
        0x0001d3bc:    4770        pG      BX       lr
    i.tu_fifo_read
    tu_fifo_read
        0x0001d3be:    b570        p.      PUSH     {r4-r6,lr}
        0x0001d3c0:    4604        .F      MOV      r4,r0
        0x0001d3c2:    460e        .F      MOV      r6,r1
        0x0001d3c4:    8a23        #.      LDRH     r3,[r4,#0x10]
        0x0001d3c6:    89e2        ..      LDRH     r2,[r4,#0xe]
        0x0001d3c8:    4631        1F      MOV      r1,r6
        0x0001d3ca:    4620         F      MOV      r0,r4
        0x0001d3cc:    f7fbfa18    ....    BL       _tu_fifo_peek ; 0x18800
        0x0001d3d0:    4605        .F      MOV      r5,r0
        0x0001d3d2:    8a21        !.      LDRH     r1,[r4,#0x10]
        0x0001d3d4:    462a        *F      MOV      r2,r5
        0x0001d3d6:    4620         F      MOV      r0,r4
        0x0001d3d8:    f7fbfa3e    ..>.    BL       advance_pointer ; 0x18858
        0x0001d3dc:    8220         .      STRH     r0,[r4,#0x10]
        0x0001d3de:    4628        (F      MOV      r0,r5
        0x0001d3e0:    bd70        p.      POP      {r4-r6,pc}
    i.tu_fifo_write
    tu_fifo_write
        0x0001d3e2:    e92d41f0    -..A    PUSH     {r4-r8,lr}
        0x0001d3e6:    4604        .F      MOV      r4,r0
        0x0001d3e8:    460e        .F      MOV      r6,r1
        0x0001d3ea:    89e7        ..      LDRH     r7,[r4,#0xe]
        0x0001d3ec:    8a22        ".      LDRH     r2,[r4,#0x10]
        0x0001d3ee:    4639        9F      MOV      r1,r7
        0x0001d3f0:    4620         F      MOV      r0,r4
        0x0001d3f2:    f7fbf9f5    ....    BL       _tu_fifo_full ; 0x187e0
        0x0001d3f6:    b120         .      CBZ      r0,0x1d402 ; tu_fifo_write + 32
        0x0001d3f8:    7a20         z      LDRB     r0,[r4,#8]
        0x0001d3fa:    b910        ..      CBNZ     r0,0x1d402 ; tu_fifo_write + 32
        0x0001d3fc:    2000        .       MOVS     r0,#0
        0x0001d3fe:    e8bd81f0    ....    POP      {r4-r8,pc}
        0x0001d402:    4639        9F      MOV      r1,r7
        0x0001d404:    4620         F      MOV      r0,r4
        0x0001d406:    f7fefd97    ....    BL       get_relative_pointer ; 0x1bf38
        0x0001d40a:    4605        .F      MOV      r5,r0
        0x0001d40c:    bf00        ..      NOP      
        0x0001d40e:    88e3        ..      LDRH     r3,[r4,#6]
        0x0001d410:    6821        !h      LDR      r1,[r4,#0]
        0x0001d412:    fb051003    ....    MLA      r0,r5,r3,r1
        0x0001d416:    461a        .F      MOV      r2,r3
        0x0001d418:    4631        1F      MOV      r1,r6
        0x0001d41a:    f7fbf85d    ..].    BL       __aeabi_memcpy ; 0x184d8
        0x0001d41e:    bf00        ..      NOP      
        0x0001d420:    2201        ."      MOVS     r2,#1
        0x0001d422:    4639        9F      MOV      r1,r7
        0x0001d424:    4620         F      MOV      r0,r4
        0x0001d426:    f7fbfa17    ....    BL       advance_pointer ; 0x18858
        0x0001d42a:    81e0        ..      STRH     r0,[r4,#0xe]
        0x0001d42c:    2001        .       MOVS     r0,#1
        0x0001d42e:    e7e6        ..      B        0x1d3fe ; tu_fifo_write + 28
    i.tud_control_status
    tud_control_status
        0x0001d430:    b570        p.      PUSH     {r4-r6,lr}
        0x0001d432:    4605        .F      MOV      r5,r0
        0x0001d434:    460c        .F      MOV      r4,r1
        0x0001d436:    4807        .H      LDR      r0,[pc,#28] ; [0x1d454] = 0x10000254
        0x0001d438:    6821        !h      LDR      r1,[r4,#0]
        0x0001d43a:    6001        .`      STR      r1,[r0,#0]
        0x0001d43c:    6861        ah      LDR      r1,[r4,#4]
        0x0001d43e:    6041        A`      STR      r1,[r0,#4]
        0x0001d440:    2000        .       MOVS     r0,#0
        0x0001d442:    4904        .I      LDR      r1,[pc,#16] ; [0x1d454] = 0x10000254
        0x0001d444:    6088        .`      STR      r0,[r1,#8]
        0x0001d446:    81c8        ..      STRH     r0,[r1,#0xe]
        0x0001d448:    8188        ..      STRH     r0,[r1,#0xc]
        0x0001d44a:    4621        !F      MOV      r1,r4
        0x0001d44c:    4628        (F      MOV      r0,r5
        0x0001d44e:    f7fbf98b    ....    BL       _status_stage_xact ; 0x18768
        0x0001d452:    bd70        p.      POP      {r4-r6,pc}
    $d
        0x0001d454:    10000254    T...    DCD    268436052
    $t
    i.tud_control_xfer
    tud_control_xfer
        0x0001d458:    e92d41f0    -..A    PUSH     {r4-r8,lr}
        0x0001d45c:    4607        .F      MOV      r7,r0
        0x0001d45e:    460c        .F      MOV      r4,r1
        0x0001d460:    4615        .F      MOV      r5,r2
        0x0001d462:    461e        .F      MOV      r6,r3
        0x0001d464:    482f        /H      LDR      r0,[pc,#188] ; [0x1d524] = 0x10000254
        0x0001d466:    6821        !h      LDR      r1,[r4,#0]
        0x0001d468:    6001        .`      STR      r1,[r0,#0]
        0x0001d46a:    6861        ah      LDR      r1,[r4,#4]
        0x0001d46c:    6041        A`      STR      r1,[r0,#4]
        0x0001d46e:    6085        .`      STR      r5,[r0,#8]
        0x0001d470:    2000        .       MOVS     r0,#0
        0x0001d472:    492c        ,I      LDR      r1,[pc,#176] ; [0x1d524] = 0x10000254
        0x0001d474:    81c8        ..      STRH     r0,[r1,#0xe]
        0x0001d476:    4630        0F      MOV      r0,r6
        0x0001d478:    88e1        ..      LDRH     r1,[r4,#6]
        0x0001d47a:    4288        .B      CMP      r0,r1
        0x0001d47c:    da01        ..      BGE      0x1d482 ; tud_control_xfer + 42
        0x0001d47e:    4602        .F      MOV      r2,r0
        0x0001d480:    e000        ..      B        0x1d484 ; tud_control_xfer + 44
        0x0001d482:    460a        .F      MOV      r2,r1
        0x0001d484:    4827        'H      LDR      r0,[pc,#156] ; [0x1d524] = 0x10000254
        0x0001d486:    8182        ..      STRH     r2,[r0,#0xc]
        0x0001d488:    8980        ..      LDRH     r0,[r0,#0xc]
        0x0001d48a:    4926        &I      LDR      r1,[pc,#152] ; [0x1d524] = 0x10000254
        0x0001d48c:    80c8        ..      STRH     r0,[r1,#6]
        0x0001d48e:    88e0        ..      LDRH     r0,[r4,#6]
        0x0001d490:    2800        .(      CMP      r0,#0
        0x0001d492:    d02f        /.      BEQ      0x1d4f4 ; tud_control_xfer + 156
        0x0001d494:    4608        .F      MOV      r0,r1
        0x0001d496:    8980        ..      LDRH     r0,[r0,#0xc]
        0x0001d498:    b190        ..      CBZ      r0,0x1d4c0 ; tud_control_xfer + 104
        0x0001d49a:    bf00        ..      NOP      
        0x0001d49c:    b97d        }.      CBNZ     r5,0x1d4be ; tud_control_xfer + 102
        0x0001d49e:    2276        v"      MOVS     r2,#0x76
        0x0001d4a0:    4921        !I      LDR      r1,[pc,#132] ; [0x1d528] = 0x1e60e
        0x0001d4a2:    a022        ".      ADR      r0,{pc}+0x8a ; 0x1d52c
        0x0001d4a4:    f7fdfe88    ....    BL       am_util_stdio_printf ; 0x1b1b8
        0x0001d4a8:    bf00        ..      NOP      
        0x0001d4aa:    4826        &H      LDR      r0,[pc,#152] ; [0x1d544] = 0xe000edf0
        0x0001d4ac:    6801        .h      LDR      r1,[r0,#0]
        0x0001d4ae:    f0010101    ....    AND      r1,r1,#1
        0x0001d4b2:    b101        ..      CBZ      r1,0x1d4b6 ; tud_control_xfer + 94
        0x0001d4b4:    be00        ..      BKPT     #0
        0x0001d4b6:    bf00        ..      NOP      
        0x0001d4b8:    2000        .       MOVS     r0,#0
        0x0001d4ba:    e8bd81f0    ....    POP      {r4-r8,pc}
        0x0001d4be:    bf00        ..      NOP      
        0x0001d4c0:    4818        .H      LDR      r0,[pc,#96] ; [0x1d524] = 0x10000254
        0x0001d4c2:    8981        ..      LDRH     r1,[r0,#0xc]
        0x0001d4c4:    a020         .      ADR      r0,{pc}+0x84 ; 0x1d548
        0x0001d4c6:    f7fdfe77    ..w.    BL       am_util_stdio_printf ; 0x1b1b8
        0x0001d4ca:    bf00        ..      NOP      
        0x0001d4cc:    4638        8F      MOV      r0,r7
        0x0001d4ce:    f7fbf909    ....    BL       _data_stage_xact ; 0x186e4
        0x0001d4d2:    b970        p.      CBNZ     r0,0x1d4f2 ; tud_control_xfer + 154
        0x0001d4d4:    227c        |"      MOVS     r2,#0x7c
        0x0001d4d6:    4914        .I      LDR      r1,[pc,#80] ; [0x1d528] = 0x1e60e
        0x0001d4d8:    a014        ..      ADR      r0,{pc}+0x54 ; 0x1d52c
        0x0001d4da:    f7fdfe6d    ..m.    BL       am_util_stdio_printf ; 0x1b1b8
        0x0001d4de:    bf00        ..      NOP      
        0x0001d4e0:    4818        .H      LDR      r0,[pc,#96] ; [0x1d544] = 0xe000edf0
        0x0001d4e2:    6801        .h      LDR      r1,[r0,#0]
        0x0001d4e4:    f0010101    ....    AND      r1,r1,#1
        0x0001d4e8:    b101        ..      CBZ      r1,0x1d4ec ; tud_control_xfer + 148
        0x0001d4ea:    be00        ..      BKPT     #0
        0x0001d4ec:    bf00        ..      NOP      
        0x0001d4ee:    2000        .       MOVS     r0,#0
        0x0001d4f0:    e7e3        ..      B        0x1d4ba ; tud_control_xfer + 98
        0x0001d4f2:    e015        ..      B        0x1d520 ; tud_control_xfer + 200
        0x0001d4f4:    bf00        ..      NOP      
        0x0001d4f6:    4621        !F      MOV      r1,r4
        0x0001d4f8:    4638        8F      MOV      r0,r7
        0x0001d4fa:    f7fbf935    ..5.    BL       _status_stage_xact ; 0x18768
        0x0001d4fe:    b970        p.      CBNZ     r0,0x1d51e ; tud_control_xfer + 198
        0x0001d500:    2281        ."      MOVS     r2,#0x81
        0x0001d502:    4909        .I      LDR      r1,[pc,#36] ; [0x1d528] = 0x1e60e
        0x0001d504:    a009        ..      ADR      r0,{pc}+0x28 ; 0x1d52c
        0x0001d506:    f7fdfe57    ..W.    BL       am_util_stdio_printf ; 0x1b1b8
        0x0001d50a:    bf00        ..      NOP      
        0x0001d50c:    480d        .H      LDR      r0,[pc,#52] ; [0x1d544] = 0xe000edf0
        0x0001d50e:    6801        .h      LDR      r1,[r0,#0]
        0x0001d510:    f0010101    ....    AND      r1,r1,#1
        0x0001d514:    b101        ..      CBZ      r1,0x1d518 ; tud_control_xfer + 192
        0x0001d516:    be00        ..      BKPT     #0
        0x0001d518:    bf00        ..      NOP      
        0x0001d51a:    2000        .       MOVS     r0,#0
        0x0001d51c:    e7cd        ..      B        0x1d4ba ; tud_control_xfer + 98
        0x0001d51e:    bf00        ..      NOP      
        0x0001d520:    2001        .       MOVS     r0,#1
        0x0001d522:    e7ca        ..      B        0x1d4ba ; tud_control_xfer + 98
    $d
        0x0001d524:    10000254    T...    DCD    268436052
        0x0001d528:    0001e60e    ....    DCD    124430
        0x0001d52c:    25207325    %s %    DCD    622883621
        0x0001d530:    41203a64    d: A    DCD    1092631140
        0x0001d534:    52455353    SSER    DCD    1380275027
        0x0001d538:    41462054    T FA    DCD    1095114836
        0x0001d53c:    44454c49    ILED    DCD    1145392201
        0x0001d540:    00000a0d    ....    DCD    2573
        0x0001d544:    e000edf0    ....    DCD    3758157296
        0x0001d548:    6f432020      Co    DCD    1866670112
        0x0001d54c:    6f72746e    ntro    DCD    1869771886
        0x0001d550:    6f74206c    l to    DCD    1869881452
        0x0001d554:    206c6174    tal     DCD    543973748
        0x0001d558:    61746164    data    DCD    1635017060
        0x0001d55c:    6e656c20     len    DCD    1852140576
        0x0001d560:    20687467    gth     DCD    543716455
        0x0001d564:    25207369    is %    DCD    622883689
        0x0001d568:    79622075    u by    DCD    2036473973
        0x0001d56c:    0d736574    tes.    DCD    225666420
        0x0001d570:    0000000a    ....    DCD    10
    $t
    i.tud_descriptor_configuration_cb
    tud_descriptor_configuration_cb
        0x0001d574:    4601        .F      MOV      r1,r0
        0x0001d576:    4801        .H      LDR      r0,[pc,#4] ; [0x1d57c] = 0x1e426
        0x0001d578:    4770        pG      BX       lr
    $d
        0x0001d57a:    0000        ..      DCW    0
        0x0001d57c:    0001e426    &...    DCD    123942
    $t
    i.tud_descriptor_device_cb
    tud_descriptor_device_cb
        0x0001d580:    4800        .H      LDR      r0,[pc,#0] ; [0x1d584] = 0x1e3f2
        0x0001d582:    4770        pG      BX       lr
    $d
        0x0001d584:    0001e3f2    ....    DCD    123890
    $t
    i.tud_descriptor_string_cb
    tud_descriptor_string_cb
        0x0001d588:    e92d41f0    -..A    PUSH     {r4-r8,lr}
        0x0001d58c:    4605        .F      MOV      r5,r0
        0x0001d58e:    460f        .F      MOV      r7,r1
        0x0001d590:    b935        5.      CBNZ     r5,0x1d5a0 ; tud_descriptor_string_cb + 24
        0x0001d592:    4814        .H      LDR      r0,[pc,#80] ; [0x1d5e4] = 0x1000001c
        0x0001d594:    6801        .h      LDR      r1,[r0,#0]
        0x0001d596:    4814        .H      LDR      r0,[pc,#80] ; [0x1d5e8] = 0x10000120
        0x0001d598:    8809        ..      LDRH     r1,[r1,#0]
        0x0001d59a:    8041        A.      STRH     r1,[r0,#2]
        0x0001d59c:    2401        .$      MOVS     r4,#1
        0x0001d59e:    e019        ..      B        0x1d5d4 ; tud_descriptor_string_cb + 76
        0x0001d5a0:    2d04        .-      CMP      r5,#4
        0x0001d5a2:    d302        ..      BCC      0x1d5aa ; tud_descriptor_string_cb + 34
        0x0001d5a4:    2000        .       MOVS     r0,#0
        0x0001d5a6:    e8bd81f0    ....    POP      {r4-r8,pc}
        0x0001d5aa:    480e        .H      LDR      r0,[pc,#56] ; [0x1d5e4] = 0x1000001c
        0x0001d5ac:    f8506025    P.%`    LDR      r6,[r0,r5,LSL #2]
        0x0001d5b0:    4630        0F      MOV      r0,r6
        0x0001d5b2:    f7faff72    ..r.    BL       strlen ; 0x1849a
        0x0001d5b6:    b2c4        ..      UXTB     r4,r0
        0x0001d5b8:    2c1f        .,      CMP      r4,#0x1f
        0x0001d5ba:    dd00        ..      BLE      0x1d5be ; tud_descriptor_string_cb + 54
        0x0001d5bc:    241f        .$      MOVS     r4,#0x1f
        0x0001d5be:    2000        .       MOVS     r0,#0
        0x0001d5c0:    e005        ..      B        0x1d5ce ; tud_descriptor_string_cb + 70
        0x0001d5c2:    5c32        2\      LDRB     r2,[r6,r0]
        0x0001d5c4:    1c41        A.      ADDS     r1,r0,#1
        0x0001d5c6:    4b08        .K      LDR      r3,[pc,#32] ; [0x1d5e8] = 0x10000120
        0x0001d5c8:    f8232011    #..     STRH     r2,[r3,r1,LSL #1]
        0x0001d5cc:    b2c8        ..      UXTB     r0,r1
        0x0001d5ce:    42a0        .B      CMP      r0,r4
        0x0001d5d0:    dbf7        ..      BLT      0x1d5c2 ; tud_descriptor_string_cb + 58
        0x0001d5d2:    bf00        ..      NOP      
        0x0001d5d4:    0060        `.      LSLS     r0,r4,#1
        0x0001d5d6:    1c80        ..      ADDS     r0,r0,#2
        0x0001d5d8:    f4407040    @.@p    ORR      r0,r0,#0x300
        0x0001d5dc:    4902        .I      LDR      r1,[pc,#8] ; [0x1d5e8] = 0x10000120
        0x0001d5de:    8008        ..      STRH     r0,[r1,#0]
        0x0001d5e0:    4608        .F      MOV      r0,r1
        0x0001d5e2:    e7e0        ..      B        0x1d5a6 ; tud_descriptor_string_cb + 30
    $d
        0x0001d5e4:    1000001c    ....    DCD    268435484
        0x0001d5e8:    10000120     ...    DCD    268435744
    $t
    i.tud_hid_descriptor_report_cb
    tud_hid_descriptor_report_cb
        0x0001d5ec:    4601        .F      MOV      r1,r0
        0x0001d5ee:    4801        .H      LDR      r0,[pc,#4] ; [0x1d5f4] = 0x1e404
        0x0001d5f0:    4770        pG      BX       lr
    $d
        0x0001d5f2:    0000        ..      DCW    0
        0x0001d5f4:    0001e404    ....    DCD    123908
    $t
    i.tud_hid_get_report_cb
    tud_hid_get_report_cb
        0x0001d5f8:    b530        0.      PUSH     {r4,r5,lr}
        0x0001d5fa:    4605        .F      MOV      r5,r0
        0x0001d5fc:    9c03        ..      LDR      r4,[sp,#0xc]
        0x0001d5fe:    2000        .       MOVS     r0,#0
        0x0001d600:    bd30        0.      POP      {r4,r5,pc}
        0x0001d602:    0000        ..      MOVS     r0,r0
    i.tud_hid_n_report
    tud_hid_n_report
        0x0001d604:    e92d47f0    -..G    PUSH     {r4-r10,lr}
        0x0001d608:    4607        .F      MOV      r7,r0
        0x0001d60a:    460e        .F      MOV      r6,r1
        0x0001d60c:    4690        .F      MOV      r8,r2
        0x0001d60e:    461c        .F      MOV      r4,r3
        0x0001d610:    f04f0900    O...    MOV      r9,#0
        0x0001d614:    ebc700c7    ....    RSB      r0,r7,r7,LSL #3
        0x0001d618:    eb000080    ....    ADD      r0,r0,r0,LSL #2
        0x0001d61c:    491a        .I      LDR      r1,[pc,#104] ; [0x1d688] = 0x10000268
        0x0001d61e:    eb010580    ....    ADD      r5,r1,r0,LSL #2
        0x0001d622:    bf00        ..      NOP      
        0x0001d624:    7869        ix      LDRB     r1,[r5,#1]
        0x0001d626:    2000        .       MOVS     r0,#0
        0x0001d628:    f000fc0c    ....    BL       usbd_edpt_claim ; 0x1de44
        0x0001d62c:    b910        ..      CBNZ     r0,0x1d634 ; tud_hid_n_report + 48
        0x0001d62e:    2000        .       MOVS     r0,#0
        0x0001d630:    e8bd87f0    ....    POP      {r4-r10,pc}
        0x0001d634:    bf00        ..      NOP      
        0x0001d636:    b18e        ..      CBZ      r6,0x1d65c ; tud_hid_n_report + 88
        0x0001d638:    4620         F      MOV      r0,r4
        0x0001d63a:    213f        ?!      MOVS     r1,#0x3f
        0x0001d63c:    4288        .B      CMP      r0,r1
        0x0001d63e:    da01        ..      BGE      0x1d644 ; tud_hid_n_report + 64
        0x0001d640:    4602        .F      MOV      r2,r0
        0x0001d642:    e000        ..      B        0x1d646 ; tud_hid_n_report + 66
        0x0001d644:    460a        .F      MOV      r2,r1
        0x0001d646:    4614        .F      MOV      r4,r2
        0x0001d648:    722e        .r      STRB     r6,[r5,#8]
        0x0001d64a:    4622        "F      MOV      r2,r4
        0x0001d64c:    4641        AF      MOV      r1,r8
        0x0001d64e:    f1050009    ....    ADD      r0,r5,#9
        0x0001d652:    f7faff41    ..A.    BL       __aeabi_memcpy ; 0x184d8
        0x0001d656:    1c60        `.      ADDS     r0,r4,#1
        0x0001d658:    b2c4        ..      UXTB     r4,r0
        0x0001d65a:    e00d        ..      B        0x1d678 ; tud_hid_n_report + 116
        0x0001d65c:    4620         F      MOV      r0,r4
        0x0001d65e:    2140        @!      MOVS     r1,#0x40
        0x0001d660:    4288        .B      CMP      r0,r1
        0x0001d662:    da01        ..      BGE      0x1d668 ; tud_hid_n_report + 100
        0x0001d664:    4602        .F      MOV      r2,r0
        0x0001d666:    e000        ..      B        0x1d66a ; tud_hid_n_report + 102
        0x0001d668:    460a        .F      MOV      r2,r1
        0x0001d66a:    4614        .F      MOV      r4,r2
        0x0001d66c:    4622        "F      MOV      r2,r4
        0x0001d66e:    4641        AF      MOV      r1,r8
        0x0001d670:    f1050008    ....    ADD      r0,r5,#8
        0x0001d674:    f7faff30    ..0.    BL       __aeabi_memcpy ; 0x184d8
        0x0001d678:    7869        ix      LDRB     r1,[r5,#1]
        0x0001d67a:    4623        #F      MOV      r3,r4
        0x0001d67c:    f1050208    ....    ADD      r2,r5,#8
        0x0001d680:    2000        .       MOVS     r0,#0
        0x0001d682:    f000fcf1    ....    BL       usbd_edpt_xfer ; 0x1e068
        0x0001d686:    e7d3        ..      B        0x1d630 ; tud_hid_n_report + 44
    $d
        0x0001d688:    10000268    h...    DCD    268436072
    $t
    i.tud_hid_set_report_cb
    tud_hid_set_report_cb
        0x0001d68c:    e92d47f0    -..G    PUSH     {r4-r10,lr}
        0x0001d690:    4680        .F      MOV      r8,r0
        0x0001d692:    4689        .F      MOV      r9,r1
        0x0001d694:    4692        .F      MOV      r10,r2
        0x0001d696:    461c        .F      MOV      r4,r3
        0x0001d698:    9f08        ..      LDR      r7,[sp,#0x20]
        0x0001d69a:    2500        .%      MOVS     r5,#0
        0x0001d69c:    b2fe        ..      UXTB     r6,r7
        0x0001d69e:    4633        3F      MOV      r3,r6
        0x0001d6a0:    4622        "F      MOV      r2,r4
        0x0001d6a2:    4629        )F      MOV      r1,r5
        0x0001d6a4:    2000        .       MOVS     r0,#0
        0x0001d6a6:    f7ffffad    ....    BL       tud_hid_n_report ; 0x1d604
        0x0001d6aa:    e8bd87f0    ....    POP      {r4-r10,pc}
        0x0001d6ae:    0000        ..      MOVS     r0,r0
    i.tud_init
    tud_init
        0x0001d6b0:    b570        p.      PUSH     {r4-r6,lr}
        0x0001d6b2:    4606        .F      MOV      r6,r0
        0x0001d6b4:    4826        &H      LDR      r0,[pc,#152] ; [0x1d750] = 0x10000035
        0x0001d6b6:    7800        .x      LDRB     r0,[r0,#0]
        0x0001d6b8:    b110        ..      CBZ      r0,0x1d6c0 ; tud_init + 16
        0x0001d6ba:    4825        %H      LDR      r0,[pc,#148] ; [0x1d750] = 0x10000035
        0x0001d6bc:    7800        .x      LDRB     r0,[r0,#0]
        0x0001d6be:    bd70        p.      POP      {r4-r6,pc}
        0x0001d6c0:    a024        $.      ADR      r0,{pc}+0x94 ; 0x1d754
        0x0001d6c2:    f7fdfd79    ..y.    BL       am_util_stdio_printf ; 0x1b1b8
        0x0001d6c6:    2133        3!      MOVS     r1,#0x33
        0x0001d6c8:    4825        %H      LDR      r0,[pc,#148] ; [0x1d760] = 0x10000160
        0x0001d6ca:    f7faff52    ..R.    BL       __aeabi_memclr ; 0x18572
        0x0001d6ce:    4c25        %L      LDR      r4,[pc,#148] ; [0x1d764] = 0x10000038
        0x0001d6d0:    1d20         .      ADDS     r0,r4,#4
        0x0001d6d2:    f7fffe65    ..e.    BL       tu_fifo_clear ; 0x1d3a0
        0x0001d6d6:    bf00        ..      NOP      
        0x0001d6d8:    4823        #H      LDR      r0,[pc,#140] ; [0x1d768] = 0x10000050
        0x0001d6da:    6004        .`      STR      r4,[r0,#0]
        0x0001d6dc:    bf00        ..      NOP      
        0x0001d6de:    6800        .h      LDR      r0,[r0,#0]
        0x0001d6e0:    b978        x.      CBNZ     r0,0x1d702 ; tud_init + 82
        0x0001d6e2:    f44f72d3    O..r    MOV      r2,#0x1a6
        0x0001d6e6:    4921        !I      LDR      r1,[pc,#132] ; [0x1d76c] = 0x1e528
        0x0001d6e8:    a021        !.      ADR      r0,{pc}+0x88 ; 0x1d770
        0x0001d6ea:    f7fdfd65    ..e.    BL       am_util_stdio_printf ; 0x1b1b8
        0x0001d6ee:    bf00        ..      NOP      
        0x0001d6f0:    4825        %H      LDR      r0,[pc,#148] ; [0x1d788] = 0xe000edf0
        0x0001d6f2:    6801        .h      LDR      r1,[r0,#0]
        0x0001d6f4:    f0010101    ....    AND      r1,r1,#1
        0x0001d6f8:    b101        ..      CBZ      r1,0x1d6fc ; tud_init + 76
        0x0001d6fa:    be00        ..      BKPT     #0
        0x0001d6fc:    bf00        ..      NOP      
        0x0001d6fe:    2000        .       MOVS     r0,#0
        0x0001d700:    e7dd        ..      B        0x1d6be ; tud_init + 14
        0x0001d702:    bf00        ..      NOP      
        0x0001d704:    4821        !H      LDR      r0,[pc,#132] ; [0x1d78c] = 0
        0x0001d706:    b120         .      CBZ      r0,0x1d712 ; tud_init + 98
        0x0001d708:    4821        !H      LDR      r0,[pc,#132] ; [0x1d790] = 0x10000034
        0x0001d70a:    f3af8000    ....    NOP.W    
        0x0001d70e:    4921        !I      LDR      r1,[pc,#132] ; [0x1d794] = 0x10000030
        0x0001d710:    6008        .`      STR      r0,[r1,#0]
        0x0001d712:    2400        .$      MOVS     r4,#0
        0x0001d714:    e00b        ..      B        0x1d72e ; tud_init + 126
        0x0001d716:    4620         F      MOV      r0,r4
        0x0001d718:    f7fefbea    ....    BL       get_driver ; 0x1bef0
        0x0001d71c:    4605        .F      MOV      r5,r0
        0x0001d71e:    a01e        ..      ADR      r0,{pc}+0x7a ; 0x1d798
        0x0001d720:    6829        )h      LDR      r1,[r5,#0]
        0x0001d722:    f7fdfd49    ..I.    BL       am_util_stdio_printf ; 0x1b1b8
        0x0001d726:    6868        hh      LDR      r0,[r5,#4]
        0x0001d728:    4780        .G      BLX      r0
        0x0001d72a:    1c60        `.      ADDS     r0,r4,#1
        0x0001d72c:    b2c4        ..      UXTB     r4,r0
        0x0001d72e:    4818        .H      LDR      r0,[pc,#96] ; [0x1d790] = 0x10000034
        0x0001d730:    7800        .x      LDRB     r0,[r0,#0]
        0x0001d732:    1c40        @.      ADDS     r0,r0,#1
        0x0001d734:    4284        .B      CMP      r4,r0
        0x0001d736:    dbee        ..      BLT      0x1d716 ; tud_init + 102
        0x0001d738:    4630        0F      MOV      r0,r6
        0x0001d73a:    f7fef953    ..S.    BL       dcd_init ; 0x1b9e4
        0x0001d73e:    4630        0F      MOV      r0,r6
        0x0001d740:    f7fef9c6    ....    BL       dcd_int_enable ; 0x1bad0
        0x0001d744:    2001        .       MOVS     r0,#1
        0x0001d746:    4902        .I      LDR      r1,[pc,#8] ; [0x1d750] = 0x10000035
        0x0001d748:    7008        .p      STRB     r0,[r1,#0]
        0x0001d74a:    bf00        ..      NOP      
        0x0001d74c:    e7b7        ..      B        0x1d6be ; tud_init + 14
    $d
        0x0001d74e:    0000        ..      DCW    0
        0x0001d750:    10000035    5...    DCD    268435509
        0x0001d754:    44425355    USBD    DCD    1145197397
        0x0001d758:    696e6920     ini    DCD    1768843552
        0x0001d75c:    000a0d74    t...    DCD    658804
        0x0001d760:    10000160    `...    DCD    268435808
        0x0001d764:    10000038    8...    DCD    268435512
        0x0001d768:    10000050    P...    DCD    268435536
        0x0001d76c:    0001e528    (...    DCD    124200
        0x0001d770:    25207325    %s %    DCD    622883621
        0x0001d774:    41203a64    d: A    DCD    1092631140
        0x0001d778:    52455353    SSER    DCD    1380275027
        0x0001d77c:    41462054    T FA    DCD    1095114836
        0x0001d780:    44454c49    ILED    DCD    1145392201
        0x0001d784:    00000a0d    ....    DCD    2573
        0x0001d788:    e000edf0    ....    DCD    3758157296
        0x0001d78c:    00000000    ....    DCD    0
        0x0001d790:    10000034    4...    DCD    268435508
        0x0001d794:    10000030    0...    DCD    268435504
        0x0001d798:    69207325    %s i    DCD    1763734309
        0x0001d79c:    0d74696e    nit.    DCD    225732974
        0x0001d7a0:    0000000a    ....    DCD    10
    $t
    i.tud_inited
    tud_inited
        0x0001d7a4:    4801        .H      LDR      r0,[pc,#4] ; [0x1d7ac] = 0x10000035
        0x0001d7a6:    7800        .x      LDRB     r0,[r0,#0]
        0x0001d7a8:    4770        pG      BX       lr
    $d
        0x0001d7aa:    0000        ..      DCW    0
        0x0001d7ac:    10000035    5...    DCD    268435509
    $t
    i.tud_mount_cb
    tud_mount_cb
        0x0001d7b0:    f44f707a    O.zp    MOV      r0,#0x3e8
        0x0001d7b4:    4901        .I      LDR      r1,[pc,#4] ; [0x1d7bc] = 0x10000000
        0x0001d7b6:    6008        .`      STR      r0,[r1,#0]
        0x0001d7b8:    4770        pG      BX       lr
    $d
        0x0001d7ba:    0000        ..      DCW    0
        0x0001d7bc:    10000000    ....    DCD    268435456
    $t
    i.tud_resume_cb
    tud_resume_cb
        0x0001d7c0:    f44f707a    O.zp    MOV      r0,#0x3e8
        0x0001d7c4:    4901        .I      LDR      r1,[pc,#4] ; [0x1d7cc] = 0x10000000
        0x0001d7c6:    6008        .`      STR      r0,[r1,#0]
        0x0001d7c8:    4770        pG      BX       lr
    $d
        0x0001d7ca:    0000        ..      DCW    0
        0x0001d7cc:    10000000    ....    DCD    268435456
    $t
    i.tud_suspend_cb
    tud_suspend_cb
        0x0001d7d0:    f64011c4    @...    MOV      r1,#0x9c4
        0x0001d7d4:    4a01        .J      LDR      r2,[pc,#4] ; [0x1d7dc] = 0x10000000
        0x0001d7d6:    6011        .`      STR      r1,[r2,#0]
        0x0001d7d8:    4770        pG      BX       lr
    $d
        0x0001d7da:    0000        ..      DCW    0
        0x0001d7dc:    10000000    ....    DCD    268435456
    $t
    i.tud_task
    tud_task
        0x0001d7e0:    b5fe        ..      PUSH     {r1-r7,lr}
        0x0001d7e2:    f000f9e9    ....    BL       tusb_inited ; 0x1dbb8
        0x0001d7e6:    b900        ..      CBNZ     r0,0x1d7ea ; tud_task + 10
        0x0001d7e8:    bdfe        ..      POP      {r1-r7,pc}
        0x0001d7ea:    e148        H.      B        0x1da7e ; tud_task + 670
        0x0001d7ec:    48a4        .H      LDR      r0,[pc,#656] ; [0x1da80] = 0x10000050
        0x0001d7ee:    466d        mF      MOV      r5,sp
        0x0001d7f0:    6804        .h      LDR      r4,[r0,#0]
        0x0001d7f2:    4620         F      MOV      r0,r4
        0x0001d7f4:    f7faffa6    ....    BL       _osal_q_lock ; 0x18744
        0x0001d7f8:    4629        )F      MOV      r1,r5
        0x0001d7fa:    1d20         .      ADDS     r0,r4,#4
        0x0001d7fc:    f7fffddf    ....    BL       tu_fifo_read ; 0x1d3be
        0x0001d800:    4606        .F      MOV      r6,r0
        0x0001d802:    4620         F      MOV      r0,r4
        0x0001d804:    f7faffa7    ....    BL       _osal_q_unlock ; 0x18756
        0x0001d808:    bf00        ..      NOP      
        0x0001d80a:    b906        ..      CBNZ     r6,0x1d80e ; tud_task + 46
        0x0001d80c:    e7ec        ..      B        0x1d7e8 ; tud_task + 8
        0x0001d80e:    f89d0001    ....    LDRB     r0,[sp,#1]
        0x0001d812:    2806        .(      CMP      r0,#6
        0x0001d814:    d102        ..      BNE      0x1d81c ; tud_task + 60
        0x0001d816:    a09b        ..      ADR      r0,{pc}+0x26e ; 0x1da84
        0x0001d818:    f7fdfcce    ....    BL       am_util_stdio_printf ; 0x1b1b8
        0x0001d81c:    f89d0001    ....    LDRB     r0,[sp,#1]
        0x0001d820:    2809        .(      CMP      r0,#9
        0x0001d822:    da05        ..      BGE      0x1d830 ; tud_task + 80
        0x0001d824:    f89d0001    ....    LDRB     r0,[sp,#1]
        0x0001d828:    4a97        .J      LDR      r2,[pc,#604] ; [0x1da88] = 0x1e4b4
        0x0001d82a:    f8520020    R. .    LDR      r0,[r2,r0,LSL #2]
        0x0001d82e:    e000        ..      B        0x1d832 ; tud_task + 82
        0x0001d830:    a096        ..      ADR      r0,{pc}+0x25c ; 0x1da8c
        0x0001d832:    4601        .F      MOV      r1,r0
        0x0001d834:    a098        ..      ADR      r0,{pc}+0x264 ; 0x1da98
        0x0001d836:    f7fdfcbf    ....    BL       am_util_stdio_printf ; 0x1b1b8
        0x0001d83a:    f89d0001    ....    LDRB     r0,[sp,#1]
        0x0001d83e:    2809        .(      CMP      r0,#9
        0x0001d840:    d276        v.      BCS      0x1d930 ; tud_task + 336
        0x0001d842:    e8dff000    ....    TBB      [pc,r0]
    $d
        0x0001d846:    0575        u.      DCW    1397
        0x0001d848:    dec5f116    ....    DCD    3737514262
        0x0001d84c:    00ef6922    "i..    DCD    15690018
    $t
        0x0001d850:    f89d0004    ....    LDRB     r0,[sp,#4]
        0x0001d854:    4a93        .J      LDR      r2,[pc,#588] ; [0x1daa4] = 0x1e50c
        0x0001d856:    f8521020    R. .    LDR      r1,[r2,r0,LSL #2]
        0x0001d85a:    a093        ..      ADR      r0,{pc}+0x24e ; 0x1daa8
        0x0001d85c:    f7fdfcac    ....    BL       am_util_stdio_printf ; 0x1b1b8
        0x0001d860:    f89d0000    ....    LDRB     r0,[sp,#0]
        0x0001d864:    f000fcf0    ....    BL       usbd_reset ; 0x1e248
        0x0001d868:    f89d0004    ....    LDRB     r0,[sp,#4]
        0x0001d86c:    4992        .I      LDR      r1,[pc,#584] ; [0x1dab8] = 0x10000160
        0x0001d86e:    7088        .p      STRB     r0,[r1,#2]
        0x0001d870:    e103        ..      B        0x1da7a ; tud_task + 666
        0x0001d872:    a084        ..      ADR      r0,{pc}+0x212 ; 0x1da84
        0x0001d874:    f7fdfca0    ....    BL       am_util_stdio_printf ; 0x1b1b8
        0x0001d878:    f89d0000    ....    LDRB     r0,[sp,#0]
        0x0001d87c:    f000fce4    ....    BL       usbd_reset ; 0x1e248
        0x0001d880:    488e        .H      LDR      r0,[pc,#568] ; [0x1dabc] = 0x1db5d
        0x0001d882:    b108        ..      CBZ      r0,0x1d888 ; tud_task + 168
        0x0001d884:    f000f96a    ..j.    BL       tud_umount_cb ; 0x1db5c
        0x0001d888:    e0f7        ..      B        0x1da7a ; tud_task + 666
        0x0001d88a:    ad01        ..      ADD      r5,sp,#4
        0x0001d88c:    2608        .&      MOVS     r6,#8
        0x0001d88e:    2400        .$      MOVS     r4,#0
        0x0001d890:    e004        ..      B        0x1d89c ; tud_task + 188
        0x0001d892:    5d29        )]      LDRB     r1,[r5,r4]
        0x0001d894:    a08a        ..      ADR      r0,{pc}+0x22c ; 0x1dac0
        0x0001d896:    f7fdfc8f    ....    BL       am_util_stdio_printf ; 0x1b1b8
        0x0001d89a:    1c64        d.      ADDS     r4,r4,#1
        0x0001d89c:    42b4        .B      CMP      r4,r6
        0x0001d89e:    d3f8        ..      BCC      0x1d892 ; tud_task + 178
        0x0001d8a0:    bf00        ..      NOP      
        0x0001d8a2:    a078        x.      ADR      r0,{pc}+0x1e2 ; 0x1da84
        0x0001d8a4:    f7fdfc88    ....    BL       am_util_stdio_printf ; 0x1b1b8
        0x0001d8a8:    4883        .H      LDR      r0,[pc,#524] ; [0x1dab8] = 0x10000160
        0x0001d8aa:    7800        .x      LDRB     r0,[r0,#0]
        0x0001d8ac:    f0200001     ...    BIC      r0,r0,#1
        0x0001d8b0:    1c40        @.      ADDS     r0,r0,#1
        0x0001d8b2:    4981        .I      LDR      r1,[pc,#516] ; [0x1dab8] = 0x10000160
        0x0001d8b4:    7008        .p      STRB     r0,[r1,#0]
        0x0001d8b6:    4608        .F      MOV      r0,r1
        0x0001d8b8:    f8900023    ..#.    LDRB     r0,[r0,#0x23]
        0x0001d8bc:    f0200001     ...    BIC      r0,r0,#1
        0x0001d8c0:    f8810023    ..#.    STRB     r0,[r1,#0x23]
        0x0001d8c4:    4608        .F      MOV      r0,r1
        0x0001d8c6:    f8900023    ..#.    LDRB     r0,[r0,#0x23]
        0x0001d8ca:    f0200004     ...    BIC      r0,r0,#4
        0x0001d8ce:    f8810023    ..#.    STRB     r0,[r1,#0x23]
        0x0001d8d2:    4608        .F      MOV      r0,r1
        0x0001d8d4:    f8900024    ..$.    LDRB     r0,[r0,#0x24]
        0x0001d8d8:    f0200101     ...    BIC      r1,r0,#1
        0x0001d8dc:    4876        vH      LDR      r0,[pc,#472] ; [0x1dab8] = 0x10000160
        0x0001d8de:    f8801024    ..$.    STRB     r1,[r0,#0x24]
        0x0001d8e2:    f8900024    ..$.    LDRB     r0,[r0,#0x24]
        0x0001d8e6:    f0200104     ...    BIC      r1,r0,#4
        0x0001d8ea:    4873        sH      LDR      r0,[pc,#460] ; [0x1dab8] = 0x10000160
        0x0001d8ec:    f8801024    ..$.    STRB     r1,[r0,#0x24]
        0x0001d8f0:    f89d0000    ....    LDRB     r0,[sp,#0]
        0x0001d8f4:    a901        ..      ADD      r1,sp,#4
        0x0001d8f6:    f7fefffb    ....    BL       process_control_request ; 0x1c8f0
        0x0001d8fa:    b960        `.      CBNZ     r0,0x1d916 ; tud_task + 310
        0x0001d8fc:    a072        r.      ADR      r0,{pc}+0x1cc ; 0x1dac8
        0x0001d8fe:    f7fdfc5b    ..[.    BL       am_util_stdio_printf ; 0x1b1b8
        0x0001d902:    f89d0000    ....    LDRB     r0,[sp,#0]
        0x0001d906:    2100        .!      MOVS     r1,#0
        0x0001d908:    f7fdff7e    ..~.    BL       dcd_edpt_stall ; 0x1b808
        0x0001d90c:    f89d0000    ....    LDRB     r0,[sp,#0]
        0x0001d910:    2180        .!      MOVS     r1,#0x80
        0x0001d912:    f7fdff79    ..y.    BL       dcd_edpt_stall ; 0x1b808
        0x0001d916:    e0b0        ..      B        0x1da7a ; tud_task + 666
        0x0001d918:    f89d7004    ...p    LDRB     r7,[sp,#4]
        0x0001d91c:    4638        8F      MOV      r0,r7
        0x0001d91e:    f7fffc9d    ....    BL       tu_edpt_number ; 0x1d25c
        0x0001d922:    4604        .F      MOV      r4,r0
        0x0001d924:    4638        8F      MOV      r0,r7
        0x0001d926:    f7fffc95    ....    BL       tu_edpt_dir ; 0x1d254
        0x0001d92a:    4605        .F      MOV      r5,r0
        0x0001d92c:    4639        9F      MOV      r1,r7
        0x0001d92e:    e000        ..      B        0x1d932 ; tud_task + 338
        0x0001d930:    e09a        ..      B        0x1da68 ; tud_task + 648
        0x0001d932:    a069        i.      ADR      r0,{pc}+0x1a6 ; 0x1dad8
        0x0001d934:    9a02        ..      LDR      r2,[sp,#8]
        0x0001d936:    f7fdfc3f    ..?.    BL       am_util_stdio_printf ; 0x1b1b8
        0x0001d93a:    485f        _H      LDR      r0,[pc,#380] ; [0x1dab8] = 0x10000160
        0x0001d93c:    3023        #0      ADDS     r0,r0,#0x23
        0x0001d93e:    eb000044    ..D.    ADD      r0,r0,r4,LSL #1
        0x0001d942:    5d40        @]      LDRB     r0,[r0,r5]
        0x0001d944:    f0200101     ...    BIC      r1,r0,#1
        0x0001d948:    485b        [H      LDR      r0,[pc,#364] ; [0x1dab8] = 0x10000160
        0x0001d94a:    3023        #0      ADDS     r0,r0,#0x23
        0x0001d94c:    eb000044    ..D.    ADD      r0,r0,r4,LSL #1
        0x0001d950:    5541        AU      STRB     r1,[r0,r5]
        0x0001d952:    4859        YH      LDR      r0,[pc,#356] ; [0x1dab8] = 0x10000160
        0x0001d954:    3023        #0      ADDS     r0,r0,#0x23
        0x0001d956:    eb000044    ..D.    ADD      r0,r0,r4,LSL #1
        0x0001d95a:    5d40        @]      LDRB     r0,[r0,r5]
        0x0001d95c:    f0200104     ...    BIC      r1,r0,#4
        0x0001d960:    4855        UH      LDR      r0,[pc,#340] ; [0x1dab8] = 0x10000160
        0x0001d962:    3023        #0      ADDS     r0,r0,#0x23
        0x0001d964:    eb000044    ..D.    ADD      r0,r0,r4,LSL #1
        0x0001d968:    5541        AU      STRB     r1,[r0,r5]
        0x0001d96a:    b944        D.      CBNZ     r4,0x1d97e ; tud_task + 414
        0x0001d96c:    f89d2005    ...     LDRB     r2,[sp,#5]
        0x0001d970:    f89d0000    ....    LDRB     r0,[sp,#0]
        0x0001d974:    4639        9F      MOV      r1,r7
        0x0001d976:    9b02        ..      LDR      r3,[sp,#8]
        0x0001d978:    f000f9c4    ....    BL       usbd_control_xfer_cb ; 0x1dd04
        0x0001d97c:    e027        '.      B        0x1d9ce ; tud_task + 494
        0x0001d97e:    494e        NI      LDR      r1,[pc,#312] ; [0x1dab8] = 0x10000160
        0x0001d980:    3113        .1      ADDS     r1,r1,#0x13
        0x0001d982:    eb010144    ..D.    ADD      r1,r1,r4,LSL #1
        0x0001d986:    5d48        H]      LDRB     r0,[r1,r5]
        0x0001d988:    f7fefab2    ....    BL       get_driver ; 0x1bef0
        0x0001d98c:    4606        .F      MOV      r6,r0
        0x0001d98e:    bf00        ..      NOP      
        0x0001d990:    b976        v.      CBNZ     r6,0x1d9b0 ; tud_task + 464
        0x0001d992:    f2402237    @.7"    MOV      r2,#0x237
        0x0001d996:    4957        WI      LDR      r1,[pc,#348] ; [0x1daf4] = 0x1e531
        0x0001d998:    a057        W.      ADR      r0,{pc}+0x160 ; 0x1daf8
        0x0001d99a:    f7fdfc0d    ....    BL       am_util_stdio_printf ; 0x1b1b8
        0x0001d99e:    bf00        ..      NOP      
        0x0001d9a0:    485b        [H      LDR      r0,[pc,#364] ; [0x1db10] = 0xe000edf0
        0x0001d9a2:    6801        .h      LDR      r1,[r0,#0]
        0x0001d9a4:    f0010101    ....    AND      r1,r1,#1
        0x0001d9a8:    b101        ..      CBZ      r1,0x1d9ac ; tud_task + 460
        0x0001d9aa:    be00        ..      BKPT     #0
        0x0001d9ac:    bf00        ..      NOP      
        0x0001d9ae:    e71b        ..      B        0x1d7e8 ; tud_task + 8
        0x0001d9b0:    bf00        ..      NOP      
        0x0001d9b2:    a058        X.      ADR      r0,{pc}+0x162 ; 0x1db14
        0x0001d9b4:    6831        1h      LDR      r1,[r6,#0]
        0x0001d9b6:    f7fdfbff    ....    BL       am_util_stdio_printf ; 0x1b1b8
        0x0001d9ba:    f89d2005    ...     LDRB     r2,[sp,#5]
        0x0001d9be:    f89d0000    ....    LDRB     r0,[sp,#0]
        0x0001d9c2:    9b02        ..      LDR      r3,[sp,#8]
        0x0001d9c4:    4639        9F      MOV      r1,r7
        0x0001d9c6:    f8d6c014    ....    LDR      r12,[r6,#0x14]
        0x0001d9ca:    47e0        .G      BLX      r12
        0x0001d9cc:    bf00        ..      NOP      
        0x0001d9ce:    e054        T.      B        0x1da7a ; tud_task + 666
        0x0001d9d0:    4839        9H      LDR      r0,[pc,#228] ; [0x1dab8] = 0x10000160
        0x0001d9d2:    7800        .x      LDRB     r0,[r0,#0]
        0x0001d9d4:    f0000001    ....    AND      r0,r0,#1
        0x0001d9d8:    b178        x.      CBZ      r0,0x1d9fa ; tud_task + 538
        0x0001d9da:    4837        7H      LDR      r0,[pc,#220] ; [0x1dab8] = 0x10000160
        0x0001d9dc:    7800        .x      LDRB     r0,[r0,#0]
        0x0001d9de:    f3c001c0    ....    UBFX     r1,r0,#3,#1
        0x0001d9e2:    a052        R.      ADR      r0,{pc}+0x14a ; 0x1db2c
        0x0001d9e4:    f7fdfbe8    ....    BL       am_util_stdio_printf ; 0x1b1b8
        0x0001d9e8:    4856        VH      LDR      r0,[pc,#344] ; [0x1db44] = 0x1d7d1
        0x0001d9ea:    b148        H.      CBZ      r0,0x1da00 ; tud_task + 544
        0x0001d9ec:    4932        2I      LDR      r1,[pc,#200] ; [0x1dab8] = 0x10000160
        0x0001d9ee:    7809        .x      LDRB     r1,[r1,#0]
        0x0001d9f0:    f3c100c0    ....    UBFX     r0,r1,#3,#1
        0x0001d9f4:    f7fffeec    ....    BL       tud_suspend_cb ; 0x1d7d0
        0x0001d9f8:    e002        ..      B        0x1da00 ; tud_task + 544
        0x0001d9fa:    a053        S.      ADR      r0,{pc}+0x14e ; 0x1db48
        0x0001d9fc:    f7fdfbdc    ....    BL       am_util_stdio_printf ; 0x1b1b8
        0x0001da00:    e03b        ;.      B        0x1da7a ; tud_task + 666
        0x0001da02:    482d        -H      LDR      r0,[pc,#180] ; [0x1dab8] = 0x10000160
        0x0001da04:    7800        .x      LDRB     r0,[r0,#0]
        0x0001da06:    f0000001    ....    AND      r0,r0,#1
        0x0001da0a:    b138        8.      CBZ      r0,0x1da1c ; tud_task + 572
        0x0001da0c:    a01d        ..      ADR      r0,{pc}+0x78 ; 0x1da84
        0x0001da0e:    f7fdfbd3    ....    BL       am_util_stdio_printf ; 0x1b1b8
        0x0001da12:    4850        PH      LDR      r0,[pc,#320] ; [0x1db54] = 0x1d7c1
        0x0001da14:    b128        (.      CBZ      r0,0x1da22 ; tud_task + 578
        0x0001da16:    f7fffed3    ....    BL       tud_resume_cb ; 0x1d7c0
        0x0001da1a:    e002        ..      B        0x1da22 ; tud_task + 578
        0x0001da1c:    a04a        J.      ADR      r0,{pc}+0x12c ; 0x1db48
        0x0001da1e:    f7fdfbcb    ....    BL       am_util_stdio_printf ; 0x1b1b8
        0x0001da22:    e02a        *.      B        0x1da7a ; tud_task + 666
        0x0001da24:    e017        ..      B        0x1da56 ; tud_task + 630
        0x0001da26:    e7ff        ..      B        0x1da28 ; tud_task + 584
        0x0001da28:    a016        ..      ADR      r0,{pc}+0x5c ; 0x1da84
        0x0001da2a:    f7fdfbc5    ....    BL       am_util_stdio_printf ; 0x1b1b8
        0x0001da2e:    2400        .$      MOVS     r4,#0
        0x0001da30:    e00b        ..      B        0x1da4a ; tud_task + 618
        0x0001da32:    4620         F      MOV      r0,r4
        0x0001da34:    f7fefa5c    ..\.    BL       get_driver ; 0x1bef0
        0x0001da38:    4605        .F      MOV      r5,r0
        0x0001da3a:    69a8        .i      LDR      r0,[r5,#0x18]
        0x0001da3c:    b118        ..      CBZ      r0,0x1da46 ; tud_task + 614
        0x0001da3e:    f89d0000    ....    LDRB     r0,[sp,#0]
        0x0001da42:    69a9        .i      LDR      r1,[r5,#0x18]
        0x0001da44:    4788        .G      BLX      r1
        0x0001da46:    1c60        `.      ADDS     r0,r4,#1
        0x0001da48:    b2c4        ..      UXTB     r4,r0
        0x0001da4a:    4843        CH      LDR      r0,[pc,#268] ; [0x1db58] = 0x10000034
        0x0001da4c:    7800        .x      LDRB     r0,[r0,#0]
        0x0001da4e:    1c40        @.      ADDS     r0,r0,#1
        0x0001da50:    4284        .B      CMP      r4,r0
        0x0001da52:    dbee        ..      BLT      0x1da32 ; tud_task + 594
        0x0001da54:    e011        ..      B        0x1da7a ; tud_task + 666
        0x0001da56:    a00b        ..      ADR      r0,{pc}+0x2e ; 0x1da84
        0x0001da58:    f7fdfbae    ....    BL       am_util_stdio_printf ; 0x1b1b8
        0x0001da5c:    9801        ..      LDR      r0,[sp,#4]
        0x0001da5e:    b110        ..      CBZ      r0,0x1da66 ; tud_task + 646
        0x0001da60:    e9dd1001    ....    LDRD     r1,r0,[sp,#4]
        0x0001da64:    4788        .G      BLX      r1
        0x0001da66:    e008        ..      B        0x1da7a ; tud_task + 666
        0x0001da68:    bf00        ..      NOP      
        0x0001da6a:    4829        )H      LDR      r0,[pc,#164] ; [0x1db10] = 0xe000edf0
        0x0001da6c:    6801        .h      LDR      r1,[r0,#0]
        0x0001da6e:    f0010101    ....    AND      r1,r1,#1
        0x0001da72:    b101        ..      CBZ      r1,0x1da76 ; tud_task + 662
        0x0001da74:    be00        ..      BKPT     #0
        0x0001da76:    bf00        ..      NOP      
        0x0001da78:    bf00        ..      NOP      
        0x0001da7a:    bf00        ..      NOP      
        0x0001da7c:    bf00        ..      NOP      
        0x0001da7e:    e6b5        ..      B        0x1d7ec ; tud_task + 12
    $d
        0x0001da80:    10000050    P...    DCD    268435536
        0x0001da84:    00000a0d    ....    DCD    2573
        0x0001da88:    0001e4b4    ....    DCD    124084
        0x0001da8c:    52524f43    CORR    DCD    1381125955
        0x0001da90:    45545055    UPTE    DCD    1163153493
        0x0001da94:    00000044    D...    DCD    68
        0x0001da98:    44425355    USBD    DCD    1145197397
        0x0001da9c:    20732520     %s     DCD    544417056
        0x0001daa0:    00000000    ....    DCD    0
        0x0001daa4:    0001e50c    ....    DCD    124172
        0x0001daa8:    7325203a    : %s    DCD    1931812922
        0x0001daac:    65705320     Spe    DCD    1701860128
        0x0001dab0:    0a0d6465    ed..    DCD    168649829
        0x0001dab4:    00000000    ....    DCD    0
        0x0001dab8:    10000160    `...    DCD    268435808
        0x0001dabc:    0001db5d    ]...    DCD    121693
        0x0001dac0:    58323025    %02X    DCD    1479684133
        0x0001dac4:    00000020     ...    DCD    32
        0x0001dac8:    74532020      St    DCD    1951604768
        0x0001dacc:    206c6c61    all     DCD    543976545
        0x0001dad0:    0d305045    EP0.    DCD    221270085
        0x0001dad4:    0000000a    ....    DCD    10
        0x0001dad8:    45206e6f    on E    DCD    1159753327
        0x0001dadc:    30252050    P %0    DCD    807739472
        0x0001dae0:    77205832    2X w    DCD    1998608434
        0x0001dae4:    20687469    ith     DCD    543716457
        0x0001dae8:    62207525    %u b    DCD    1646294309
        0x0001daec:    73657479    ytes    DCD    1936028793
        0x0001daf0:    00000a0d    ....    DCD    2573
        0x0001daf4:    0001e531    1...    DCD    124209
        0x0001daf8:    25207325    %s %    DCD    622883621
        0x0001dafc:    41203a64    d: A    DCD    1092631140
        0x0001db00:    52455353    SSER    DCD    1380275027
        0x0001db04:    41462054    T FA    DCD    1095114836
        0x0001db08:    44454c49    ILED    DCD    1145392201
        0x0001db0c:    00000a0d    ....    DCD    2573
        0x0001db10:    e000edf0    ....    DCD    3758157296
        0x0001db14:    73252020      %s    DCD    1931812896
        0x0001db18:    65667820     xfe    DCD    1701214240
        0x0001db1c:    61632072    r ca    DCD    1633886322
        0x0001db20:    61626c6c    llba    DCD    1633840236
        0x0001db24:    0d326b63    ck2.    DCD    221408099
        0x0001db28:    0000000a    ....    DCD    10
        0x0001db2c:    6552203a    : Re    DCD    1699881018
        0x0001db30:    65746f6d    mote    DCD    1702129517
        0x0001db34:    6b615720     Wak    DCD    1801541408
        0x0001db38:    20707565    eup     DCD    544240997
        0x0001db3c:    7525203d    = %u    DCD    1965367357
        0x0001db40:    00000a0d    ....    DCD    2573
        0x0001db44:    0001d7d1    ....    DCD    120785
        0x0001db48:    696b5320     Ski    DCD    1768641312
        0x0001db4c:    64657070    pped    DCD    1684369520
        0x0001db50:    00000a0d    ....    DCD    2573
        0x0001db54:    0001d7c1    ....    DCD    120769
        0x0001db58:    10000034    4...    DCD    268435508
    $t
    i.tud_umount_cb
    tud_umount_cb
        0x0001db5c:    20fa        .       MOVS     r0,#0xfa
        0x0001db5e:    4901        .I      LDR      r1,[pc,#4] ; [0x1db64] = 0x10000000
        0x0001db60:    6008        .`      STR      r0,[r1,#0]
        0x0001db62:    4770        pG      BX       lr
    $d
        0x0001db64:    10000000    ....    DCD    268435456
    $t
    i.tusb_init
    tusb_init
        0x0001db68:    b510        ..      PUSH     {r4,lr}
        0x0001db6a:    bf00        ..      NOP      
        0x0001db6c:    2000        .       MOVS     r0,#0
        0x0001db6e:    f7fffd9f    ....    BL       tud_init ; 0x1d6b0
        0x0001db72:    b970        p.      CBNZ     r0,0x1db92 ; tusb_init + 42
        0x0001db74:    222a        *"      MOVS     r2,#0x2a
        0x0001db76:    4908        .I      LDR      r1,[pc,#32] ; [0x1db98] = 0x1e47c
        0x0001db78:    a008        ..      ADR      r0,{pc}+0x24 ; 0x1db9c
        0x0001db7a:    f7fdfb1d    ....    BL       am_util_stdio_printf ; 0x1b1b8
        0x0001db7e:    bf00        ..      NOP      
        0x0001db80:    480c        .H      LDR      r0,[pc,#48] ; [0x1dbb4] = 0xe000edf0
        0x0001db82:    6801        .h      LDR      r1,[r0,#0]
        0x0001db84:    f0010101    ....    AND      r1,r1,#1
        0x0001db88:    b101        ..      CBZ      r1,0x1db8c ; tusb_init + 36
        0x0001db8a:    be00        ..      BKPT     #0
        0x0001db8c:    bf00        ..      NOP      
        0x0001db8e:    2000        .       MOVS     r0,#0
        0x0001db90:    bd10        ..      POP      {r4,pc}
        0x0001db92:    bf00        ..      NOP      
        0x0001db94:    2001        .       MOVS     r0,#1
        0x0001db96:    e7fb        ..      B        0x1db90 ; tusb_init + 40
    $d
        0x0001db98:    0001e47c    |...    DCD    124028
        0x0001db9c:    25207325    %s %    DCD    622883621
        0x0001dba0:    41203a64    d: A    DCD    1092631140
        0x0001dba4:    52455353    SSER    DCD    1380275027
        0x0001dba8:    41462054    T FA    DCD    1095114836
        0x0001dbac:    44454c49    ILED    DCD    1145392201
        0x0001dbb0:    00000a0d    ....    DCD    2573
        0x0001dbb4:    e000edf0    ....    DCD    3758157296
    $t
    i.tusb_inited
    tusb_inited
        0x0001dbb8:    b510        ..      PUSH     {r4,lr}
        0x0001dbba:    2400        .$      MOVS     r4,#0
        0x0001dbbc:    b914        ..      CBNZ     r4,0x1dbc4 ; tusb_inited + 12
        0x0001dbbe:    f7fffdf1    ....    BL       tud_inited ; 0x1d7a4
        0x0001dbc2:    b108        ..      CBZ      r0,0x1dbc8 ; tusb_inited + 16
        0x0001dbc4:    2001        .       MOVS     r0,#1
        0x0001dbc6:    e000        ..      B        0x1dbca ; tusb_inited + 18
        0x0001dbc8:    2000        .       MOVS     r0,#0
        0x0001dbca:    4604        .F      MOV      r4,r0
        0x0001dbcc:    4620         F      MOV      r0,r4
        0x0001dbce:    bd10        ..      POP      {r4,pc}
    i.uint64_to_hexstr
    uint64_to_hexstr
        0x0001dbd0:    e92d41f0    -..A    PUSH     {r4-r8,lr}
        0x0001dbd4:    b085        ..      SUB      sp,sp,#0x14
        0x0001dbd6:    4604        .F      MOV      r4,r0
        0x0001dbd8:    460d        .F      MOV      r5,r1
        0x0001dbda:    461e        .F      MOV      r6,r3
        0x0001dbdc:    2100        .!      MOVS     r1,#0
        0x0001dbde:    468c        .F      MOV      r12,r1
        0x0001dbe0:    ea84070c    ....    EOR      r7,r4,r12
        0x0001dbe4:    ea850c0c    ....    EOR      r12,r5,r12
        0x0001dbe8:    ea57070c    W...    ORRS     r7,r7,r12
        0x0001dbec:    d105        ..      BNE      0x1dbfa ; uint64_to_hexstr + 42
        0x0001dbee:    f04f0830    O.0.    MOV      r8,#0x30
        0x0001dbf2:    460f        .F      MOV      r7,r1
        0x0001dbf4:    1c49        I.      ADDS     r1,r1,#1
        0x0001dbf6:    f80d8007    ....    STRB     r8,[sp,r7]
        0x0001dbfa:    e016        ..      B        0x1dc2a ; uint64_to_hexstr + 90
        0x0001dbfc:    270f        .'      MOVS     r7,#0xf
        0x0001dbfe:    4027        '@      ANDS     r7,r7,r4
        0x0001dc00:    b2fb        ..      UXTB     r3,r7
        0x0001dc02:    2b09        .+      CMP      r3,#9
        0x0001dc04:    dd05        ..      BLE      0x1dc12 ; uint64_to_hexstr + 66
        0x0001dc06:    b10e        ..      CBZ      r6,0x1dc0c ; uint64_to_hexstr + 60
        0x0001dc08:    2727        ''      MOVS     r7,#0x27
        0x0001dc0a:    e000        ..      B        0x1dc0e ; uint64_to_hexstr + 62
        0x0001dc0c:    2707        .'      MOVS     r7,#7
        0x0001dc0e:    441f        .D      ADD      r7,r7,r3
        0x0001dc10:    b2fb        ..      UXTB     r3,r7
        0x0001dc12:    f1030730    ..0.    ADD      r7,r3,#0x30
        0x0001dc16:    f00708ff    ....    AND      r8,r7,#0xff
        0x0001dc1a:    460f        .F      MOV      r7,r1
        0x0001dc1c:    1c49        I.      ADDS     r1,r1,#1
        0x0001dc1e:    f80d8007    ....    STRB     r8,[sp,r7]
        0x0001dc22:    0927        '.      LSRS     r7,r4,#4
        0x0001dc24:    ea477405    G..t    ORR      r4,r7,r5,LSL #28
        0x0001dc28:    092d        -.      LSRS     r5,r5,#4
        0x0001dc2a:    f04f0c00    O...    MOV      r12,#0
        0x0001dc2e:    ea84070c    ....    EOR      r7,r4,r12
        0x0001dc32:    ea850c0c    ....    EOR      r12,r5,r12
        0x0001dc36:    ea57070c    W...    ORRS     r7,r7,r12
        0x0001dc3a:    d1df        ..      BNE      0x1dbfc ; uint64_to_hexstr + 44
        0x0001dc3c:    4608        .F      MOV      r0,r1
        0x0001dc3e:    b14a        J.      CBZ      r2,0x1dc54 ; uint64_to_hexstr + 132
        0x0001dc40:    e003        ..      B        0x1dc4a ; uint64_to_hexstr + 122
        0x0001dc42:    f81d7001    ...p    LDRB     r7,[sp,r1]
        0x0001dc46:    f8027b01    ...{    STRB     r7,[r2],#1
        0x0001dc4a:    1e0f        ..      SUBS     r7,r1,#0
        0x0001dc4c:    f1a10101    ....    SUB      r1,r1,#1
        0x0001dc50:    d1f7        ..      BNE      0x1dc42 ; uint64_to_hexstr + 114
        0x0001dc52:    7017        .p      STRB     r7,[r2,#0]
        0x0001dc54:    b005        ..      ADD      sp,sp,#0x14
        0x0001dc56:    e8bd81f0    ....    POP      {r4-r8,pc}
    i.uint64_to_str
    uint64_to_str
        0x0001dc5a:    e92d4ff0    -..O    PUSH     {r4-r11,lr}
        0x0001dc5e:    b087        ..      SUB      sp,sp,#0x1c
        0x0001dc60:    4607        .F      MOV      r7,r0
        0x0001dc62:    4688        .F      MOV      r8,r1
        0x0001dc64:    4616        .F      MOV      r6,r2
        0x0001dc66:    f04f0900    O...    MOV      r9,#0
        0x0001dc6a:    46cb        .F      MOV      r11,r9
        0x0001dc6c:    bf00        ..      NOP      
        0x0001dc6e:    4638        8F      MOV      r0,r7
        0x0001dc70:    4641        AF      MOV      r1,r8
        0x0001dc72:    f7fef81a    ....    BL       divu64_10 ; 0x1bcaa
        0x0001dc76:    4604        .F      MOV      r4,r0
        0x0001dc78:    460d        .F      MOV      r5,r1
        0x0001dc7a:    210a        .!      MOVS     r1,#0xa
        0x0001dc7c:    fba40101    ....    UMULL    r0,r1,r4,r1
        0x0001dc80:    ebb70a00    ....    SUBS     r10,r7,r0
        0x0001dc84:    f10a0030    ..0.    ADD      r0,r10,#0x30
        0x0001dc88:    b2c2        ..      UXTB     r2,r0
        0x0001dc8a:    4648        HF      MOV      r0,r9
        0x0001dc8c:    f1090901    ....    ADD      r9,r9,#1
        0x0001dc90:    f80d2000    ...     STRB     r2,[sp,r0]
        0x0001dc94:    4627        'F      MOV      r7,r4
        0x0001dc96:    46a8        .F      MOV      r8,r5
        0x0001dc98:    f04f0200    O...    MOV      r2,#0
        0x0001dc9c:    ea870002    ....    EOR      r0,r7,r2
        0x0001dca0:    ea880102    ....    EOR      r1,r8,r2
        0x0001dca4:    4308        .C      ORRS     r0,r0,r1
        0x0001dca6:    d1e2        ..      BNE      0x1dc6e ; uint64_to_str + 20
        0x0001dca8:    46cb        .F      MOV      r11,r9
        0x0001dcaa:    b156        V.      CBZ      r6,0x1dcc2 ; uint64_to_str + 104
        0x0001dcac:    e003        ..      B        0x1dcb6 ; uint64_to_str + 92
        0x0001dcae:    f81d0009    ....    LDRB     r0,[sp,r9]
        0x0001dcb2:    f8060b01    ....    STRB     r0,[r6],#1
        0x0001dcb6:    f1b90000    ....    SUBS     r0,r9,#0
        0x0001dcba:    f1a90901    ....    SUB      r9,r9,#1
        0x0001dcbe:    d1f6        ..      BNE      0x1dcae ; uint64_to_str + 84
        0x0001dcc0:    7030        0p      STRB     r0,[r6,#0]
        0x0001dcc2:    4658        XF      MOV      r0,r11
        0x0001dcc4:    b007        ..      ADD      sp,sp,#0x1c
        0x0001dcc6:    e8bd8ff0    ....    POP      {r4-r11,pc}
        0x0001dcca:    0000        ..      MOVS     r0,r0
    i.usbd_control_reset
    usbd_control_reset
        0x0001dccc:    b510        ..      PUSH     {r4,lr}
        0x0001dcce:    2114        .!      MOVS     r1,#0x14
        0x0001dcd0:    4801        .H      LDR      r0,[pc,#4] ; [0x1dcd8] = 0x10000254
        0x0001dcd2:    f7fafc70    ..p.    BL       __aeabi_memclr4 ; 0x185b6
        0x0001dcd6:    bd10        ..      POP      {r4,pc}
    $d
        0x0001dcd8:    10000254    T...    DCD    268436052
    $t
    i.usbd_control_set_complete_callback
    usbd_control_set_complete_callback
        0x0001dcdc:    4901        .I      LDR      r1,[pc,#4] ; [0x1dce4] = 0x10000254
        0x0001dcde:    6108        .a      STR      r0,[r1,#0x10]
        0x0001dce0:    4770        pG      BX       lr
    $d
        0x0001dce2:    0000        ..      DCW    0
        0x0001dce4:    10000254    T...    DCD    268436052
    $t
    i.usbd_control_set_request
    usbd_control_set_request
        0x0001dce8:    4905        .I      LDR      r1,[pc,#20] ; [0x1dd00] = 0x10000254
        0x0001dcea:    6802        .h      LDR      r2,[r0,#0]
        0x0001dcec:    600a        .`      STR      r2,[r1,#0]
        0x0001dcee:    6842        Bh      LDR      r2,[r0,#4]
        0x0001dcf0:    604a        J`      STR      r2,[r1,#4]
        0x0001dcf2:    2100        .!      MOVS     r1,#0
        0x0001dcf4:    4a02        .J      LDR      r2,[pc,#8] ; [0x1dd00] = 0x10000254
        0x0001dcf6:    6091        .`      STR      r1,[r2,#8]
        0x0001dcf8:    81d1        ..      STRH     r1,[r2,#0xe]
        0x0001dcfa:    8191        ..      STRH     r1,[r2,#0xc]
        0x0001dcfc:    4770        pG      BX       lr
    $d
        0x0001dcfe:    0000        ..      DCW    0
        0x0001dd00:    10000254    T...    DCD    268436052
    $t
    i.usbd_control_xfer_cb
    usbd_control_xfer_cb
        0x0001dd04:    e92d41f0    -..A    PUSH     {r4-r8,lr}
        0x0001dd08:    4606        .F      MOV      r6,r0
        0x0001dd0a:    460d        .F      MOV      r5,r1
        0x0001dd0c:    4690        .F      MOV      r8,r2
        0x0001dd0e:    461c        .F      MOV      r4,r3
        0x0001dd10:    bf00        ..      NOP      
        0x0001dd12:    f3c510c0    ....    UBFX     r0,r5,#7,#1
        0x0001dd16:    492d        -I      LDR      r1,[pc,#180] ; [0x1ddcc] = 0x10000254
        0x0001dd18:    7809        .x      LDRB     r1,[r1,#0]
        0x0001dd1a:    ebb01fd1    ....    CMP      r0,r1,LSR #7
        0x0001dd1e:    d023        #.      BEQ      0x1dd68 ; usbd_control_xfer_cb + 100
        0x0001dd20:    bf00        ..      NOP      
        0x0001dd22:    b17c        |.      CBZ      r4,0x1dd44 ; usbd_control_xfer_cb + 64
        0x0001dd24:    22b1        ."      MOVS     r2,#0xb1
        0x0001dd26:    492a        *I      LDR      r1,[pc,#168] ; [0x1ddd0] = 0x1e61f
        0x0001dd28:    a02a        *.      ADR      r0,{pc}+0xac ; 0x1ddd4
        0x0001dd2a:    f7fdfa45    ..E.    BL       am_util_stdio_printf ; 0x1b1b8
        0x0001dd2e:    bf00        ..      NOP      
        0x0001dd30:    482e        .H      LDR      r0,[pc,#184] ; [0x1ddec] = 0xe000edf0
        0x0001dd32:    6801        .h      LDR      r1,[r0,#0]
        0x0001dd34:    f0010101    ....    AND      r1,r1,#1
        0x0001dd38:    b101        ..      CBZ      r1,0x1dd3c ; usbd_control_xfer_cb + 56
        0x0001dd3a:    be00        ..      BKPT     #0
        0x0001dd3c:    bf00        ..      NOP      
        0x0001dd3e:    2000        .       MOVS     r0,#0
        0x0001dd40:    e8bd81f0    ....    POP      {r4-r8,pc}
        0x0001dd44:    bf00        ..      NOP      
        0x0001dd46:    482a        *H      LDR      r0,[pc,#168] ; [0x1ddf0] = 0
        0x0001dd48:    b118        ..      CBZ      r0,0x1dd52 ; usbd_control_xfer_cb + 78
        0x0001dd4a:    4920         I      LDR      r1,[pc,#128] ; [0x1ddcc] = 0x10000254
        0x0001dd4c:    4630        0F      MOV      r0,r6
        0x0001dd4e:    f3af8000    ....    NOP.W    
        0x0001dd52:    481e        .H      LDR      r0,[pc,#120] ; [0x1ddcc] = 0x10000254
        0x0001dd54:    6900        .i      LDR      r0,[r0,#0x10]
        0x0001dd56:    b128        (.      CBZ      r0,0x1dd64 ; usbd_control_xfer_cb + 96
        0x0001dd58:    481c        .H      LDR      r0,[pc,#112] ; [0x1ddcc] = 0x10000254
        0x0001dd5a:    4602        .F      MOV      r2,r0
        0x0001dd5c:    2102        .!      MOVS     r1,#2
        0x0001dd5e:    6903        .i      LDR      r3,[r0,#0x10]
        0x0001dd60:    4630        0F      MOV      r0,r6
        0x0001dd62:    4798        .G      BLX      r3
        0x0001dd64:    2001        .       MOVS     r0,#1
        0x0001dd66:    e7eb        ..      B        0x1dd40 ; usbd_control_xfer_cb + 60
        0x0001dd68:    4818        .H      LDR      r0,[pc,#96] ; [0x1ddcc] = 0x10000254
        0x0001dd6a:    89c0        ..      LDRH     r0,[r0,#0xe]
        0x0001dd6c:    4420         D      ADD      r0,r0,r4
        0x0001dd6e:    4917        .I      LDR      r1,[pc,#92] ; [0x1ddcc] = 0x10000254
        0x0001dd70:    81c8        ..      STRH     r0,[r1,#0xe]
        0x0001dd72:    4608        .F      MOV      r0,r1
        0x0001dd74:    6880        .h      LDR      r0,[r0,#8]
        0x0001dd76:    4420         D      ADD      r0,r0,r4
        0x0001dd78:    6088        .`      STR      r0,[r1,#8]
        0x0001dd7a:    4608        .F      MOV      r0,r1
        0x0001dd7c:    88c0        ..      LDRH     r0,[r0,#6]
        0x0001dd7e:    89c9        ..      LDRH     r1,[r1,#0xe]
        0x0001dd80:    4288        .B      CMP      r0,r1
        0x0001dd82:    d118        ..      BNE      0x1ddb6 ; usbd_control_xfer_cb + 178
        0x0001dd84:    2701        .'      MOVS     r7,#1
        0x0001dd86:    4811        .H      LDR      r0,[pc,#68] ; [0x1ddcc] = 0x10000254
        0x0001dd88:    6900        .i      LDR      r0,[r0,#0x10]
        0x0001dd8a:    b150        P.      CBZ      r0,0x1dda2 ; usbd_control_xfer_cb + 158
        0x0001dd8c:    490f        .I      LDR      r1,[pc,#60] ; [0x1ddcc] = 0x10000254
        0x0001dd8e:    6908        .i      LDR      r0,[r1,#0x10]
        0x0001dd90:    f000f830    ..0.    BL       usbd_driver_print_control_complete_name ; 0x1ddf4
        0x0001dd94:    480d        .H      LDR      r0,[pc,#52] ; [0x1ddcc] = 0x10000254
        0x0001dd96:    4602        .F      MOV      r2,r0
        0x0001dd98:    2101        .!      MOVS     r1,#1
        0x0001dd9a:    6903        .i      LDR      r3,[r0,#0x10]
        0x0001dd9c:    4630        0F      MOV      r0,r6
        0x0001dd9e:    4798        .G      BLX      r3
        0x0001dda0:    4607        .F      MOV      r7,r0
        0x0001dda2:    b93f        ?.      CBNZ     r7,0x1ddb4 ; usbd_control_xfer_cb + 176
        0x0001dda4:    2100        .!      MOVS     r1,#0
        0x0001dda6:    4630        0F      MOV      r0,r6
        0x0001dda8:    f7fdfd2e    ....    BL       dcd_edpt_stall ; 0x1b808
        0x0001ddac:    2180        .!      MOVS     r1,#0x80
        0x0001ddae:    4630        0F      MOV      r0,r6
        0x0001ddb0:    f7fdfd2a    ..*.    BL       dcd_edpt_stall ; 0x1b808
        0x0001ddb4:    e007        ..      B        0x1ddc6 ; usbd_control_xfer_cb + 194
        0x0001ddb6:    2100        .!      MOVS     r1,#0
        0x0001ddb8:    4630        0F      MOV      r0,r6
        0x0001ddba:    f7fdfd25    ..%.    BL       dcd_edpt_stall ; 0x1b808
        0x0001ddbe:    2180        .!      MOVS     r1,#0x80
        0x0001ddc0:    4630        0F      MOV      r0,r6
        0x0001ddc2:    f7fdfd21    ..!.    BL       dcd_edpt_stall ; 0x1b808
        0x0001ddc6:    2001        .       MOVS     r0,#1
        0x0001ddc8:    e7ba        ..      B        0x1dd40 ; usbd_control_xfer_cb + 60
    $d
        0x0001ddca:    0000        ..      DCW    0
        0x0001ddcc:    10000254    T...    DCD    268436052
        0x0001ddd0:    0001e61f    ....    DCD    124447
        0x0001ddd4:    25207325    %s %    DCD    622883621
        0x0001ddd8:    41203a64    d: A    DCD    1092631140
        0x0001dddc:    52455353    SSER    DCD    1380275027
        0x0001dde0:    41462054    T FA    DCD    1095114836
        0x0001dde4:    44454c49    ILED    DCD    1145392201
        0x0001dde8:    00000a0d    ....    DCD    2573
        0x0001ddec:    e000edf0    ....    DCD    3758157296
        0x0001ddf0:    00000000    ....    DCD    0
    $t
    i.usbd_driver_print_control_complete_name
    usbd_driver_print_control_complete_name
        0x0001ddf4:    b570        p.      PUSH     {r4-r6,lr}
        0x0001ddf6:    4605        .F      MOV      r5,r0
        0x0001ddf8:    2400        .$      MOVS     r4,#0
        0x0001ddfa:    e00d        ..      B        0x1de18 ; usbd_driver_print_control_complete_name + 36
        0x0001ddfc:    4620         F      MOV      r0,r4
        0x0001ddfe:    f7fef877    ..w.    BL       get_driver ; 0x1bef0
        0x0001de02:    4606        .F      MOV      r6,r0
        0x0001de04:    6930        0i      LDR      r0,[r6,#0x10]
        0x0001de06:    42a8        .B      CMP      r0,r5
        0x0001de08:    d104        ..      BNE      0x1de14 ; usbd_driver_print_control_complete_name + 32
        0x0001de0a:    a007        ..      ADR      r0,{pc}+0x1e ; 0x1de28
        0x0001de0c:    6831        1h      LDR      r1,[r6,#0]
        0x0001de0e:    f7fdf9d3    ....    BL       am_util_stdio_printf ; 0x1b1b8
        0x0001de12:    bd70        p.      POP      {r4-r6,pc}
        0x0001de14:    1c60        `.      ADDS     r0,r4,#1
        0x0001de16:    b2c4        ..      UXTB     r4,r0
        0x0001de18:    4809        .H      LDR      r0,[pc,#36] ; [0x1de40] = 0x10000034
        0x0001de1a:    7800        .x      LDRB     r0,[r0,#0]
        0x0001de1c:    1c40        @.      ADDS     r0,r0,#1
        0x0001de1e:    4284        .B      CMP      r4,r0
        0x0001de20:    dbec        ..      BLT      0x1ddfc ; usbd_driver_print_control_complete_name + 8
        0x0001de22:    bf00        ..      NOP      
        0x0001de24:    e7f5        ..      B        0x1de12 ; usbd_driver_print_control_complete_name + 30
    $d
        0x0001de26:    0000        ..      DCW    0
        0x0001de28:    73252020      %s    DCD    1931812896
        0x0001de2c:    6e6f6320     con    DCD    1852793632
        0x0001de30:    6c6f7274    trol    DCD    1819243124
        0x0001de34:    6d6f6320     com    DCD    1836016416
        0x0001de38:    74656c70    plet    DCD    1952803952
        0x0001de3c:    000a0d65    e...    DCD    658789
        0x0001de40:    10000034    4...    DCD    268435508
    $t
    i.usbd_edpt_claim
    usbd_edpt_claim
        0x0001de44:    e92d41f0    -..A    PUSH     {r4-r8,lr}
        0x0001de48:    4680        .F      MOV      r8,r0
        0x0001de4a:    460e        .F      MOV      r6,r1
        0x0001de4c:    4630        0F      MOV      r0,r6
        0x0001de4e:    f7fffa05    ....    BL       tu_edpt_number ; 0x1d25c
        0x0001de52:    4604        .F      MOV      r4,r0
        0x0001de54:    4630        0F      MOV      r0,r6
        0x0001de56:    f7fff9fd    ....    BL       tu_edpt_dir ; 0x1d254
        0x0001de5a:    4605        .F      MOV      r5,r0
        0x0001de5c:    4810        .H      LDR      r0,[pc,#64] ; [0x1dea0] = 0x10000183
        0x0001de5e:    eb000044    ..D.    ADD      r0,r0,r4,LSL #1
        0x0001de62:    5d40        @]      LDRB     r0,[r0,r5]
        0x0001de64:    f0000001    ....    AND      r0,r0,#1
        0x0001de68:    b940        @.      CBNZ     r0,0x1de7c ; usbd_edpt_claim + 56
        0x0001de6a:    480d        .H      LDR      r0,[pc,#52] ; [0x1dea0] = 0x10000183
        0x0001de6c:    eb000044    ..D.    ADD      r0,r0,r4,LSL #1
        0x0001de70:    5d40        @]      LDRB     r0,[r0,r5]
        0x0001de72:    f3c00080    ....    UBFX     r0,r0,#2,#1
        0x0001de76:    b908        ..      CBNZ     r0,0x1de7c ; usbd_edpt_claim + 56
        0x0001de78:    2001        .       MOVS     r0,#1
        0x0001de7a:    e000        ..      B        0x1de7e ; usbd_edpt_claim + 58
        0x0001de7c:    2000        .       MOVS     r0,#0
        0x0001de7e:    4607        .F      MOV      r7,r0
        0x0001de80:    b157        W.      CBZ      r7,0x1de98 ; usbd_edpt_claim + 84
        0x0001de82:    4807        .H      LDR      r0,[pc,#28] ; [0x1dea0] = 0x10000183
        0x0001de84:    eb000044    ..D.    ADD      r0,r0,r4,LSL #1
        0x0001de88:    5d40        @]      LDRB     r0,[r0,r5]
        0x0001de8a:    f0200004     ...    BIC      r0,r0,#4
        0x0001de8e:    1d00        ..      ADDS     r0,r0,#4
        0x0001de90:    4903        .I      LDR      r1,[pc,#12] ; [0x1dea0] = 0x10000183
        0x0001de92:    eb010144    ..D.    ADD      r1,r1,r4,LSL #1
        0x0001de96:    5548        HU      STRB     r0,[r1,r5]
        0x0001de98:    4638        8F      MOV      r0,r7
        0x0001de9a:    e8bd81f0    ....    POP      {r4-r8,pc}
    $d
        0x0001de9e:    0000        ..      DCW    0
        0x0001dea0:    10000183    ....    DCD    268435843
    $t
    i.usbd_edpt_clear_stall
    usbd_edpt_clear_stall
        0x0001dea4:    e92d41f0    -..A    PUSH     {r4-r8,lr}
        0x0001dea8:    4607        .F      MOV      r7,r0
        0x0001deaa:    460e        .F      MOV      r6,r1
        0x0001deac:    4630        0F      MOV      r0,r6
        0x0001deae:    f7fff9d5    ....    BL       tu_edpt_number ; 0x1d25c
        0x0001deb2:    4604        .F      MOV      r4,r0
        0x0001deb4:    4630        0F      MOV      r0,r6
        0x0001deb6:    f7fff9cd    ....    BL       tu_edpt_dir ; 0x1d254
        0x0001deba:    4605        .F      MOV      r5,r0
        0x0001debc:    4812        .H      LDR      r0,[pc,#72] ; [0x1df08] = 0x10000183
        0x0001debe:    eb000044    ..D.    ADD      r0,r0,r4,LSL #1
        0x0001dec2:    5d40        @]      LDRB     r0,[r0,r5]
        0x0001dec4:    f3c00040    ..@.    UBFX     r0,r0,#1,#1
        0x0001dec8:    b1d8        ..      CBZ      r0,0x1df02 ; usbd_edpt_clear_stall + 94
        0x0001deca:    4631        1F      MOV      r1,r6
        0x0001decc:    a00f        ..      ADR      r0,{pc}+0x40 ; 0x1df0c
        0x0001dece:    f7fdf973    ..s.    BL       am_util_stdio_printf ; 0x1b1b8
        0x0001ded2:    4631        1F      MOV      r1,r6
        0x0001ded4:    4638        8F      MOV      r0,r7
        0x0001ded6:    f7fdfc75    ..u.    BL       dcd_edpt_clear_stall ; 0x1b7c4
        0x0001deda:    480b        .H      LDR      r0,[pc,#44] ; [0x1df08] = 0x10000183
        0x0001dedc:    eb000044    ..D.    ADD      r0,r0,r4,LSL #1
        0x0001dee0:    5d40        @]      LDRB     r0,[r0,r5]
        0x0001dee2:    f0200102     ...    BIC      r1,r0,#2
        0x0001dee6:    4808        .H      LDR      r0,[pc,#32] ; [0x1df08] = 0x10000183
        0x0001dee8:    eb000044    ..D.    ADD      r0,r0,r4,LSL #1
        0x0001deec:    5541        AU      STRB     r1,[r0,r5]
        0x0001deee:    4806        .H      LDR      r0,[pc,#24] ; [0x1df08] = 0x10000183
        0x0001def0:    eb000044    ..D.    ADD      r0,r0,r4,LSL #1
        0x0001def4:    5d40        @]      LDRB     r0,[r0,r5]
        0x0001def6:    f0200101     ...    BIC      r1,r0,#1
        0x0001defa:    4803        .H      LDR      r0,[pc,#12] ; [0x1df08] = 0x10000183
        0x0001defc:    eb000044    ..D.    ADD      r0,r0,r4,LSL #1
        0x0001df00:    5541        AU      STRB     r1,[r0,r5]
        0x0001df02:    e8bd81f0    ....    POP      {r4-r8,pc}
    $d
        0x0001df06:    0000        ..      DCW    0
        0x0001df08:    10000183    ....    DCD    268435843
        0x0001df0c:    20202020            DCD    538976288
        0x0001df10:    61656c43    Clea    DCD    1634036803
        0x0001df14:    74532072    r St    DCD    1951604850
        0x0001df18:    206c6c61    all     DCD    543976545
        0x0001df1c:    25205045    EP %    DCD    622874693
        0x0001df20:    0d583230    02X.    DCD    223883824
        0x0001df24:    0000000a    ....    DCD    10
    $t
    i.usbd_edpt_open
    usbd_edpt_open
        0x0001df28:    b570        p.      PUSH     {r4-r6,lr}
        0x0001df2a:    4605        .F      MOV      r5,r0
        0x0001df2c:    460c        .F      MOV      r4,r1
        0x0001df2e:    bf00        ..      NOP      
        0x0001df30:    78a0        .x      LDRB     r0,[r4,#2]
        0x0001df32:    f7fff993    ....    BL       tu_edpt_number ; 0x1d25c
        0x0001df36:    2808        .(      CMP      r0,#8
        0x0001df38:    db0f        ..      BLT      0x1df5a ; usbd_edpt_open + 50
        0x0001df3a:    f24042c5    @..B    MOV      r2,#0x4c5
        0x0001df3e:    4916        .I      LDR      r1,[pc,#88] ; [0x1df98] = 0x1e5cc
        0x0001df40:    a016        ..      ADR      r0,{pc}+0x5c ; 0x1df9c
        0x0001df42:    f7fdf939    ..9.    BL       am_util_stdio_printf ; 0x1b1b8
        0x0001df46:    bf00        ..      NOP      
        0x0001df48:    481a        .H      LDR      r0,[pc,#104] ; [0x1dfb4] = 0xe000edf0
        0x0001df4a:    6801        .h      LDR      r1,[r0,#0]
        0x0001df4c:    f0010101    ....    AND      r1,r1,#1
        0x0001df50:    b101        ..      CBZ      r1,0x1df54 ; usbd_edpt_open + 44
        0x0001df52:    be00        ..      BKPT     #0
        0x0001df54:    bf00        ..      NOP      
        0x0001df56:    2000        .       MOVS     r0,#0
        0x0001df58:    bd70        p.      POP      {r4-r6,pc}
        0x0001df5a:    bf00        ..      NOP      
        0x0001df5c:    bf00        ..      NOP      
        0x0001df5e:    4816        .H      LDR      r0,[pc,#88] ; [0x1dfb8] = 0x10000160
        0x0001df60:    7881        .x      LDRB     r1,[r0,#2]
        0x0001df62:    4620         F      MOV      r0,r4
        0x0001df64:    f7fff97e    ..~.    BL       tu_edpt_validate ; 0x1d264
        0x0001df68:    b978        x.      CBNZ     r0,0x1df8a ; usbd_edpt_open + 98
        0x0001df6a:    f24042c6    @..B    MOV      r2,#0x4c6
        0x0001df6e:    490a        .I      LDR      r1,[pc,#40] ; [0x1df98] = 0x1e5cc
        0x0001df70:    a00a        ..      ADR      r0,{pc}+0x2c ; 0x1df9c
        0x0001df72:    f7fdf921    ..!.    BL       am_util_stdio_printf ; 0x1b1b8
        0x0001df76:    bf00        ..      NOP      
        0x0001df78:    480e        .H      LDR      r0,[pc,#56] ; [0x1dfb4] = 0xe000edf0
        0x0001df7a:    6801        .h      LDR      r1,[r0,#0]
        0x0001df7c:    f0010101    ....    AND      r1,r1,#1
        0x0001df80:    b101        ..      CBZ      r1,0x1df84 ; usbd_edpt_open + 92
        0x0001df82:    be00        ..      BKPT     #0
        0x0001df84:    bf00        ..      NOP      
        0x0001df86:    2000        .       MOVS     r0,#0
        0x0001df88:    e7e6        ..      B        0x1df58 ; usbd_edpt_open + 48
        0x0001df8a:    bf00        ..      NOP      
        0x0001df8c:    4621        !F      MOV      r1,r4
        0x0001df8e:    4628        (F      MOV      r0,r5
        0x0001df90:    f7fdfc26    ..&.    BL       dcd_edpt_open ; 0x1b7e0
        0x0001df94:    e7e0        ..      B        0x1df58 ; usbd_edpt_open + 48
    $d
        0x0001df96:    0000        ..      DCW    0
        0x0001df98:    0001e5cc    ....    DCD    124364
        0x0001df9c:    25207325    %s %    DCD    622883621
        0x0001dfa0:    41203a64    d: A    DCD    1092631140
        0x0001dfa4:    52455353    SSER    DCD    1380275027
        0x0001dfa8:    41462054    T FA    DCD    1095114836
        0x0001dfac:    44454c49    ILED    DCD    1145392201
        0x0001dfb0:    00000a0d    ....    DCD    2573
        0x0001dfb4:    e000edf0    ....    DCD    3758157296
        0x0001dfb8:    10000160    `...    DCD    268435808
    $t
    i.usbd_edpt_stall
    usbd_edpt_stall
        0x0001dfbc:    e92d41f0    -..A    PUSH     {r4-r8,lr}
        0x0001dfc0:    4607        .F      MOV      r7,r0
        0x0001dfc2:    460e        .F      MOV      r6,r1
        0x0001dfc4:    4630        0F      MOV      r0,r6
        0x0001dfc6:    f7fff949    ..I.    BL       tu_edpt_number ; 0x1d25c
        0x0001dfca:    4604        .F      MOV      r4,r0
        0x0001dfcc:    4630        0F      MOV      r0,r6
        0x0001dfce:    f7fff941    ..A.    BL       tu_edpt_dir ; 0x1d254
        0x0001dfd2:    4605        .F      MOV      r5,r0
        0x0001dfd4:    4813        .H      LDR      r0,[pc,#76] ; [0x1e024] = 0x10000183
        0x0001dfd6:    eb000044    ..D.    ADD      r0,r0,r4,LSL #1
        0x0001dfda:    5d40        @]      LDRB     r0,[r0,r5]
        0x0001dfdc:    f3c00040    ..@.    UBFX     r0,r0,#1,#1
        0x0001dfe0:    b9e8        ..      CBNZ     r0,0x1e01e ; usbd_edpt_stall + 98
        0x0001dfe2:    4631        1F      MOV      r1,r6
        0x0001dfe4:    a010        ..      ADR      r0,{pc}+0x44 ; 0x1e028
        0x0001dfe6:    f7fdf8e7    ....    BL       am_util_stdio_printf ; 0x1b1b8
        0x0001dfea:    4631        1F      MOV      r1,r6
        0x0001dfec:    4638        8F      MOV      r0,r7
        0x0001dfee:    f7fdfc0b    ....    BL       dcd_edpt_stall ; 0x1b808
        0x0001dff2:    480c        .H      LDR      r0,[pc,#48] ; [0x1e024] = 0x10000183
        0x0001dff4:    eb000044    ..D.    ADD      r0,r0,r4,LSL #1
        0x0001dff8:    5d40        @]      LDRB     r0,[r0,r5]
        0x0001dffa:    f0200002     ...    BIC      r0,r0,#2
        0x0001dffe:    1c80        ..      ADDS     r0,r0,#2
        0x0001e000:    4908        .I      LDR      r1,[pc,#32] ; [0x1e024] = 0x10000183
        0x0001e002:    eb010144    ..D.    ADD      r1,r1,r4,LSL #1
        0x0001e006:    5548        HU      STRB     r0,[r1,r5]
        0x0001e008:    4806        .H      LDR      r0,[pc,#24] ; [0x1e024] = 0x10000183
        0x0001e00a:    eb000044    ..D.    ADD      r0,r0,r4,LSL #1
        0x0001e00e:    5d40        @]      LDRB     r0,[r0,r5]
        0x0001e010:    f0200001     ...    BIC      r0,r0,#1
        0x0001e014:    1c40        @.      ADDS     r0,r0,#1
        0x0001e016:    4903        .I      LDR      r1,[pc,#12] ; [0x1e024] = 0x10000183
        0x0001e018:    eb010144    ..D.    ADD      r1,r1,r4,LSL #1
        0x0001e01c:    5548        HU      STRB     r0,[r1,r5]
        0x0001e01e:    e8bd81f0    ....    POP      {r4-r8,pc}
    $d
        0x0001e022:    0000        ..      DCW    0
        0x0001e024:    10000183    ....    DCD    268435843
        0x0001e028:    20202020            DCD    538976288
        0x0001e02c:    6c617453    Stal    DCD    1818326099
        0x0001e030:    5045206c    l EP    DCD    1346707564
        0x0001e034:    32302520     %02    DCD    842016032
        0x0001e038:    000a0d58    X...    DCD    658776
    $t
    i.usbd_edpt_stalled
    usbd_edpt_stalled
        0x0001e03c:    e92d41f0    -..A    PUSH     {r4-r8,lr}
        0x0001e040:    4607        .F      MOV      r7,r0
        0x0001e042:    460c        .F      MOV      r4,r1
        0x0001e044:    4620         F      MOV      r0,r4
        0x0001e046:    f7fff909    ....    BL       tu_edpt_number ; 0x1d25c
        0x0001e04a:    4605        .F      MOV      r5,r0
        0x0001e04c:    4620         F      MOV      r0,r4
        0x0001e04e:    f7fff901    ....    BL       tu_edpt_dir ; 0x1d254
        0x0001e052:    4606        .F      MOV      r6,r0
        0x0001e054:    4803        .H      LDR      r0,[pc,#12] ; [0x1e064] = 0x10000183
        0x0001e056:    eb000045    ..E.    ADD      r0,r0,r5,LSL #1
        0x0001e05a:    5d80        .]      LDRB     r0,[r0,r6]
        0x0001e05c:    f3c00040    ..@.    UBFX     r0,r0,#1,#1
        0x0001e060:    e8bd81f0    ....    POP      {r4-r8,pc}
    $d
        0x0001e064:    10000183    ....    DCD    268435843
    $t
    i.usbd_edpt_xfer
    usbd_edpt_xfer
        0x0001e068:    e92d47f0    -..G    PUSH     {r4-r10,lr}
        0x0001e06c:    4680        .F      MOV      r8,r0
        0x0001e06e:    460e        .F      MOV      r6,r1
        0x0001e070:    4691        .F      MOV      r9,r2
        0x0001e072:    461f        .F      MOV      r7,r3
        0x0001e074:    4630        0F      MOV      r0,r6
        0x0001e076:    f7fff8f1    ....    BL       tu_edpt_number ; 0x1d25c
        0x0001e07a:    4604        .F      MOV      r4,r0
        0x0001e07c:    4630        0F      MOV      r0,r6
        0x0001e07e:    f7fff8e9    ....    BL       tu_edpt_dir ; 0x1d254
        0x0001e082:    4605        .F      MOV      r5,r0
        0x0001e084:    463a        :F      MOV      r2,r7
        0x0001e086:    4631        1F      MOV      r1,r6
        0x0001e088:    a028        (.      ADR      r0,{pc}+0xa4 ; 0x1e12c
        0x0001e08a:    f7fdf895    ....    BL       am_util_stdio_printf ; 0x1b1b8
        0x0001e08e:    bf00        ..      NOP      
        0x0001e090:    482f        /H      LDR      r0,[pc,#188] ; [0x1e150] = 0x10000183
        0x0001e092:    eb000044    ..D.    ADD      r0,r0,r4,LSL #1
        0x0001e096:    5d40        @]      LDRB     r0,[r0,r5]
        0x0001e098:    f0000001    ....    AND      r0,r0,#1
        0x0001e09c:    b180        ..      CBZ      r0,0x1e0c0 ; usbd_edpt_xfer + 88
        0x0001e09e:    f240520d    @..R    MOV      r2,#0x50d
        0x0001e0a2:    492c        ,I      LDR      r1,[pc,#176] ; [0x1e154] = 0x1e5db
        0x0001e0a4:    a02c        ,.      ADR      r0,{pc}+0xb4 ; 0x1e158
        0x0001e0a6:    f7fdf887    ....    BL       am_util_stdio_printf ; 0x1b1b8
        0x0001e0aa:    bf00        ..      NOP      
        0x0001e0ac:    4830        0H      LDR      r0,[pc,#192] ; [0x1e170] = 0xe000edf0
        0x0001e0ae:    6801        .h      LDR      r1,[r0,#0]
        0x0001e0b0:    f0010101    ....    AND      r1,r1,#1
        0x0001e0b4:    b101        ..      CBZ      r1,0x1e0b8 ; usbd_edpt_xfer + 80
        0x0001e0b6:    be00        ..      BKPT     #0
        0x0001e0b8:    bf00        ..      NOP      
        0x0001e0ba:    2000        .       MOVS     r0,#0
        0x0001e0bc:    e8bd87f0    ....    POP      {r4-r10,pc}
        0x0001e0c0:    bf00        ..      NOP      
        0x0001e0c2:    4823        #H      LDR      r0,[pc,#140] ; [0x1e150] = 0x10000183
        0x0001e0c4:    eb000044    ..D.    ADD      r0,r0,r4,LSL #1
        0x0001e0c8:    5d40        @]      LDRB     r0,[r0,r5]
        0x0001e0ca:    f0200001     ...    BIC      r0,r0,#1
        0x0001e0ce:    1c40        @.      ADDS     r0,r0,#1
        0x0001e0d0:    491f        .I      LDR      r1,[pc,#124] ; [0x1e150] = 0x10000183
        0x0001e0d2:    eb010144    ..D.    ADD      r1,r1,r4,LSL #1
        0x0001e0d6:    5548        HU      STRB     r0,[r1,r5]
        0x0001e0d8:    463b        ;F      MOV      r3,r7
        0x0001e0da:    464a        JF      MOV      r2,r9
        0x0001e0dc:    4631        1F      MOV      r1,r6
        0x0001e0de:    4640        @F      MOV      r0,r8
        0x0001e0e0:    f7fdfb9e    ....    BL       dcd_edpt_xfer ; 0x1b820
        0x0001e0e4:    b108        ..      CBZ      r0,0x1e0ea ; usbd_edpt_xfer + 130
        0x0001e0e6:    2001        .       MOVS     r0,#1
        0x0001e0e8:    e7e8        ..      B        0x1e0bc ; usbd_edpt_xfer + 84
        0x0001e0ea:    4819        .H      LDR      r0,[pc,#100] ; [0x1e150] = 0x10000183
        0x0001e0ec:    eb000044    ..D.    ADD      r0,r0,r4,LSL #1
        0x0001e0f0:    5d40        @]      LDRB     r0,[r0,r5]
        0x0001e0f2:    f0200101     ...    BIC      r1,r0,#1
        0x0001e0f6:    4816        .H      LDR      r0,[pc,#88] ; [0x1e150] = 0x10000183
        0x0001e0f8:    eb000044    ..D.    ADD      r0,r0,r4,LSL #1
        0x0001e0fc:    5541        AU      STRB     r1,[r0,r5]
        0x0001e0fe:    4814        .H      LDR      r0,[pc,#80] ; [0x1e150] = 0x10000183
        0x0001e100:    eb000044    ..D.    ADD      r0,r0,r4,LSL #1
        0x0001e104:    5d40        @]      LDRB     r0,[r0,r5]
        0x0001e106:    f0200104     ...    BIC      r1,r0,#4
        0x0001e10a:    4811        .H      LDR      r0,[pc,#68] ; [0x1e150] = 0x10000183
        0x0001e10c:    eb000044    ..D.    ADD      r0,r0,r4,LSL #1
        0x0001e110:    5541        AU      STRB     r1,[r0,r5]
        0x0001e112:    a018        ..      ADR      r0,{pc}+0x62 ; 0x1e174
        0x0001e114:    f7fdf850    ..P.    BL       am_util_stdio_printf ; 0x1b1b8
        0x0001e118:    bf00        ..      NOP      
        0x0001e11a:    4815        .H      LDR      r0,[pc,#84] ; [0x1e170] = 0xe000edf0
        0x0001e11c:    6801        .h      LDR      r1,[r0,#0]
        0x0001e11e:    f0010101    ....    AND      r1,r1,#1
        0x0001e122:    b101        ..      CBZ      r1,0x1e126 ; usbd_edpt_xfer + 190
        0x0001e124:    be00        ..      BKPT     #0
        0x0001e126:    bf00        ..      NOP      
        0x0001e128:    2000        .       MOVS     r0,#0
        0x0001e12a:    e7c7        ..      B        0x1e0bc ; usbd_edpt_xfer + 84
    $d
        0x0001e12c:    75512020      Qu    DCD    1968250912
        0x0001e130:    20657565    eue     DCD    543520101
        0x0001e134:    25205045    EP %    DCD    622874693
        0x0001e138:    20583230    02X     DCD    542650928
        0x0001e13c:    68746977    with    DCD    1752459639
        0x0001e140:    20752520     %u     DCD    544548128
        0x0001e144:    65747962    byte    DCD    1702132066
        0x0001e148:    2e2e2073    s ..    DCD    774774899
        0x0001e14c:    000a0d2e    ....    DCD    658734
        0x0001e150:    10000183    ....    DCD    268435843
        0x0001e154:    0001e5db    ....    DCD    124379
        0x0001e158:    25207325    %s %    DCD    622883621
        0x0001e15c:    41203a64    d: A    DCD    1092631140
        0x0001e160:    52455353    SSER    DCD    1380275027
        0x0001e164:    41462054    T FA    DCD    1095114836
        0x0001e168:    44454c49    ILED    DCD    1145392201
        0x0001e16c:    00000a0d    ....    DCD    2573
        0x0001e170:    e000edf0    ....    DCD    3758157296
        0x0001e174:    4c494146    FAIL    DCD    1279869254
        0x0001e178:    0a0d4445    ED..    DCD    168641605
        0x0001e17c:    00000000    ....    DCD    0
    $t
    i.usbd_open_edpt_pair
    usbd_open_edpt_pair
        0x0001e180:    e92d5ff0    -.._    PUSH     {r4-r12,lr}
        0x0001e184:    4681        .F      MOV      r9,r0
        0x0001e186:    460d        .F      MOV      r5,r1
        0x0001e188:    4616        .F      MOV      r6,r2
        0x0001e18a:    461f        .F      MOV      r7,r3
        0x0001e18c:    e9ddab0a    ....    LDRD     r10,r11,[sp,#0x28]
        0x0001e190:    f04f0800    O...    MOV      r8,#0
        0x0001e194:    e044        D.      B        0x1e220 ; usbd_open_edpt_pair + 160
        0x0001e196:    462c        ,F      MOV      r4,r5
        0x0001e198:    bf00        ..      NOP      
        0x0001e19a:    7860        `x      LDRB     r0,[r4,#1]
        0x0001e19c:    2805        .(      CMP      r0,#5
        0x0001e19e:    d104        ..      BNE      0x1e1aa ; usbd_open_edpt_pair + 42
        0x0001e1a0:    78e0        .x      LDRB     r0,[r4,#3]
        0x0001e1a2:    f0000003    ....    AND      r0,r0,#3
        0x0001e1a6:    42b8        .B      CMP      r0,r7
        0x0001e1a8:    d010        ..      BEQ      0x1e1cc ; usbd_open_edpt_pair + 76
        0x0001e1aa:    f240429f    @..B    MOV      r2,#0x49f
        0x0001e1ae:    491e        .I      LDR      r1,[pc,#120] ; [0x1e228] = 0x1e5ac
        0x0001e1b0:    a01e        ..      ADR      r0,{pc}+0x7c ; 0x1e22c
        0x0001e1b2:    f7fdf801    ....    BL       am_util_stdio_printf ; 0x1b1b8
        0x0001e1b6:    bf00        ..      NOP      
        0x0001e1b8:    4822        "H      LDR      r0,[pc,#136] ; [0x1e244] = 0xe000edf0
        0x0001e1ba:    6801        .h      LDR      r1,[r0,#0]
        0x0001e1bc:    f0010101    ....    AND      r1,r1,#1
        0x0001e1c0:    b101        ..      CBZ      r1,0x1e1c4 ; usbd_open_edpt_pair + 68
        0x0001e1c2:    be00        ..      BKPT     #0
        0x0001e1c4:    bf00        ..      NOP      
        0x0001e1c6:    2000        .       MOVS     r0,#0
        0x0001e1c8:    e8bd9ff0    ....    POP      {r4-r12,pc}
        0x0001e1cc:    bf00        ..      NOP      
        0x0001e1ce:    bf00        ..      NOP      
        0x0001e1d0:    4621        !F      MOV      r1,r4
        0x0001e1d2:    4648        HF      MOV      r0,r9
        0x0001e1d4:    f7fffea8    ....    BL       usbd_edpt_open ; 0x1df28
        0x0001e1d8:    b978        x.      CBNZ     r0,0x1e1fa ; usbd_open_edpt_pair + 122
        0x0001e1da:    f44f6294    O..b    MOV      r2,#0x4a0
        0x0001e1de:    4912        .I      LDR      r1,[pc,#72] ; [0x1e228] = 0x1e5ac
        0x0001e1e0:    a012        ..      ADR      r0,{pc}+0x4c ; 0x1e22c
        0x0001e1e2:    f7fcffe9    ....    BL       am_util_stdio_printf ; 0x1b1b8
        0x0001e1e6:    bf00        ..      NOP      
        0x0001e1e8:    4816        .H      LDR      r0,[pc,#88] ; [0x1e244] = 0xe000edf0
        0x0001e1ea:    6801        .h      LDR      r1,[r0,#0]
        0x0001e1ec:    f0010101    ....    AND      r1,r1,#1
        0x0001e1f0:    b101        ..      CBZ      r1,0x1e1f4 ; usbd_open_edpt_pair + 116
        0x0001e1f2:    be00        ..      BKPT     #0
        0x0001e1f4:    bf00        ..      NOP      
        0x0001e1f6:    2000        .       MOVS     r0,#0
        0x0001e1f8:    e7e6        ..      B        0x1e1c8 ; usbd_open_edpt_pair + 72
        0x0001e1fa:    bf00        ..      NOP      
        0x0001e1fc:    78a0        .x      LDRB     r0,[r4,#2]
        0x0001e1fe:    f7fff829    ..).    BL       tu_edpt_dir ; 0x1d254
        0x0001e202:    2801        .(      CMP      r0,#1
        0x0001e204:    d103        ..      BNE      0x1e20e ; usbd_open_edpt_pair + 142
        0x0001e206:    78a0        .x      LDRB     r0,[r4,#2]
        0x0001e208:    f88b0000    ....    STRB     r0,[r11,#0]
        0x0001e20c:    e002        ..      B        0x1e214 ; usbd_open_edpt_pair + 148
        0x0001e20e:    78a0        .x      LDRB     r0,[r4,#2]
        0x0001e210:    f88a0000    ....    STRB     r0,[r10,#0]
        0x0001e214:    4628        (F      MOV      r0,r5
        0x0001e216:    f7feffdc    ....    BL       tu_desc_next ; 0x1d1d2
        0x0001e21a:    4605        .F      MOV      r5,r0
        0x0001e21c:    f1080801    ....    ADD      r8,r8,#1
        0x0001e220:    45b0        .E      CMP      r8,r6
        0x0001e222:    dbb8        ..      BLT      0x1e196 ; usbd_open_edpt_pair + 22
        0x0001e224:    2001        .       MOVS     r0,#1
        0x0001e226:    e7cf        ..      B        0x1e1c8 ; usbd_open_edpt_pair + 72
    $d
        0x0001e228:    0001e5ac    ....    DCD    124332
        0x0001e22c:    25207325    %s %    DCD    622883621
        0x0001e230:    41203a64    d: A    DCD    1092631140
        0x0001e234:    52455353    SSER    DCD    1380275027
        0x0001e238:    41462054    T FA    DCD    1095114836
        0x0001e23c:    44454c49    ILED    DCD    1145392201
        0x0001e240:    00000a0d    ....    DCD    2573
        0x0001e244:    e000edf0    ....    DCD    3758157296
    $t
    i.usbd_reset
    usbd_reset
        0x0001e248:    b510        ..      PUSH     {r4,lr}
        0x0001e24a:    4604        .F      MOV      r4,r0
        0x0001e24c:    4620         F      MOV      r0,r4
        0x0001e24e:    f7fdfa27    ..'.    BL       configuration_reset ; 0x1b6a0
        0x0001e252:    f7fffd3b    ..;.    BL       usbd_control_reset ; 0x1dccc
        0x0001e256:    bd10        ..      POP      {r4,pc}
    x$fpl$d2f
    $v0
    __aeabi_d2f
    _d2f
        0x0001e258:    f0214200    !..B    BIC      r2,r1,#0x80000000
        0x0001e25c:    f1a25260    ..`R    SUB      r2,r2,#0x38000000
        0x0001e260:    f5b21f80    ....    CMP      r2,#0x100000
        0x0001e264:    f0014300    ...C    AND      r3,r1,#0x80000000
        0x0001e268:    bf28        (.      IT       CS
        0x0001e26a:    f1d26c7f    ...l    RSBSCS   r12,r2,#0xff00000
        0x0001e26e:    d90b        ..      BLS      0x1e288 ; __aeabi_d2f + 48
        0x0001e270:    ea5f1c00    _...    LSLS     r12,r0,#4
        0x0001e274:    ea4302c2    C...    ORR      r2,r3,r2,LSL #3
        0x0001e278:    eb427050    B.Pp    ADC      r0,r2,r0,LSR #29
        0x0001e27c:    bf18        ..      IT       NE
        0x0001e27e:    4770        pG      BXNE     lr
        0x0001e280:    bf28        (.      IT       CS
        0x0001e282:    f0200001     ...    BICCS    r0,r0,#1
        0x0001e286:    4770        pG      BX       lr
        0x0001e288:    f5b21f80    ....    CMP      r2,#0x100000
        0x0001e28c:    bfbc        ..      ITT      LT
        0x0001e28e:    4618        .F      MOVLT    r0,r3
        0x0001e290:    4770        pG      BXLT     lr
        0x0001e292:    ea4f0c41    O.A.    LSL      r12,r1,#1
        0x0001e296:    f51c1f00    ....    CMN      r12,#0x200000
        0x0001e29a:    d202        ..      BCS      0x1e2a2 ; __aeabi_d2f + 74
        0x0001e29c:    4608        .F      MOV      r0,r1
        0x0001e29e:    f000b85f    .._.    B.W      __fpl_fretinf ; 0x1e360
        0x0001e2a2:    b570        p.      PUSH     {r4-r6,lr}
        0x0001e2a4:    f000f809    ....    BL       __fpl_dnaninf ; 0x1e2ba
    $d
        0x0001e2a8:    89000000    ....    DCD    2298478592
    $t
        0x0001e2ac:    f7ffbff6    ....    B.W      0x1e29c ; __aeabi_d2f + 68
        0x0001e2b0:    f04f4000    O..@    MOV      r0,#0x80000000
        0x0001e2b4:    f5a00080    ....    SUB      r0,r0,#0x400000
        0x0001e2b8:    4770        pG      BX       lr
    x$fpl$dnaninf
    $v0
    __fpl_dnaninf
        0x0001e2ba:    f10e0e02    ....    ADD      lr,lr,#2
        0x0001e2be:    f02e0e03    ....    BIC      lr,lr,#3
        0x0001e2c2:    f85e6b04    ^..k    LDR      r6,[lr],#4
        0x0001e2c6:    4236        6B      TST      r6,r6
        0x0001e2c8:    d405        ..      BMI      0x1e2d6 ; __fpl_dnaninf + 28
        0x0001e2ca:    2a01        .*      CMP      r2,#1
        0x0001e2cc:    eb430503    C...    ADC      r5,r3,r3
        0x0001e2d0:    f5151f00    ....    CMN      r5,#0x200000
        0x0001e2d4:    d812        ..      BHI      0x1e2fc ; __fpl_dnaninf + 66
        0x0001e2d6:    2801        .(      CMP      r0,#1
        0x0001e2d8:    eb410c01    A...    ADC      r12,r1,r1
        0x0001e2dc:    f51c1f00    ....    CMN      r12,#0x200000
        0x0001e2e0:    d80c        ..      BHI      0x1e2fc ; __fpl_dnaninf + 66
        0x0001e2e2:    d10e        ..      BNE      0x1e302 ; __fpl_dnaninf + 72
        0x0001e2e4:    ea4f7cd1    O..|    LSR      r12,r1,#31
        0x0001e2e8:    f5151f00    ....    CMN      r5,#0x200000
        0x0001e2ec:    eb0c0c4c    ..L.    ADD      r12,r12,r12,LSL #1
        0x0001e2f0:    f10c0c02    ....    ADD      r12,r12,#2
        0x0001e2f4:    bf08        ..      IT       EQ
        0x0001e2f6:    eb4c7cd3    L..|    ADCEQ    r12,r12,r3,LSR #31
        0x0001e2fa:    e004        ..      B        0x1e306 ; __fpl_dnaninf + 76
        0x0001e2fc:    f04f0c08    O...    MOV      r12,#8
        0x0001e300:    e001        ..      B        0x1e306 ; __fpl_dnaninf + 76
        0x0001e302:    ea4f7cd3    O..|    LSR      r12,r3,#31
        0x0001e306:    eb0c054c    ..L.    ADD      r5,r12,r12,LSL #1
        0x0001e30a:    fa26f605    &...    LSR      r6,r6,r5
        0x0001e30e:    f0060607    ....    AND      r6,r6,#7
        0x0001e312:    f1b60c04    ....    SUBS     r12,r6,#4
        0x0001e316:    d206        ..      BCS      0x1e326 ; __fpl_dnaninf + 108
        0x0001e318:    eb0e0c86    ....    ADD      r12,lr,r6,LSL #2
        0x0001e31c:    e8bd4070    ..p@    POP      {r4-r6,lr}
        0x0001e320:    f04c0c01    L...    ORR      r12,r12,#1
        0x0001e324:    4760        `G      BX       r12
        0x0001e326:    e8dff00c    ....    TBB      [pc,r12]
    $d
        0x0001e32a:    0b09        ..      DCW    2825
        0x0001e32c:    0202        ..      DCW    514
    $t
        0x0001e32e:    f04f4100    O..A    MOV      r1,#0x80000000
        0x0001e332:    f04f0000    O...    MOV      r0,#0
        0x0001e336:    f5a12100    ...!    SUB      r1,r1,#0x80000
        0x0001e33a:    bd70        p.      POP      {r4-r6,pc}
        0x0001e33c:    4619        .F      MOV      r1,r3
        0x0001e33e:    4610        .F      MOV      r0,r2
        0x0001e340:    2801        .(      CMP      r0,#1
        0x0001e342:    eb510401    Q...    ADCS     r4,r1,r1
        0x0001e346:    bf18        ..      IT       NE
        0x0001e348:    f5d41400    ....    RSBSNE   r4,r4,#0x200000
        0x0001e34c:    bf84        ..      ITT      HI
        0x0001e34e:    2000        .       MOVHI    r0,#0
        0x0001e350:    f0014100    ...A    ANDHI    r1,r1,#0x80000000
        0x0001e354:    bd70        p.      POP      {r4-r6,pc}
    x$fpl$fpinit
    $v0
    _fp_init
        0x0001e356:    f04f7040    O.@p    MOV      r0,#0x3000000
        0x0001e35a:    eee10a10    ....    VMSR     FPSCR,r0
    __fplib_config_fpu_vfp
    __fplib_config_pureend_doubles
        0x0001e35e:    4770        pG      BX       lr
    x$fpl$fretinf
    $v0
    __fpl_fretinf
        0x0001e360:    21ff        .!      MOVS     r1,#0xff
        0x0001e362:    ea4150d0    A..P    ORR      r0,r1,r0,LSR #23
        0x0001e366:    05c0        ..      LSLS     r0,r0,#23
        0x0001e368:    4770        pG      BX       lr
    x$fpl$usenofp
    __I$use$fp
        0x0001e36a:    0000        ..      MOVS     r0,r0
    $d.realdata
    .constdata
    ui32I2sWordLength
        0x0001e36c:    00000008    ....    DCD    8
        0x0001e370:    00000000    ....    DCD    0
        0x0001e374:    00000010    ....    DCD    16
        0x0001e378:    00000000    ....    DCD    0
        0x0001e37c:    00000018    ....    DCD    24
        0x0001e380:    00000020     ...    DCD    32
    __tagsym$$used
    ui32MCUAllowed
        0x0001e384:    00000000    ....    DCD    0
        0x0001e388:    00000000    ....    DCD    0
        0x0001e38c:    00000000    ....    DCD    0
        0x0001e390:    00000000    ....    DCD    0
        0x0001e394:    00000000    ....    DCD    0
    __tagsym$$used
    ui32DSP0Allowed
        0x0001e398:    00000000    ....    DCD    0
        0x0001e39c:    00000000    ....    DCD    0
        0x0001e3a0:    00000000    ....    DCD    0
        0x0001e3a4:    00000000    ....    DCD    0
        0x0001e3a8:    00000000    ....    DCD    0
    __tagsym$$used
    ui32DSP1Allowed
        0x0001e3ac:    00000000    ....    DCD    0
        0x0001e3b0:    00000000    ....    DCD    0
        0x0001e3b4:    00000000    ....    DCD    0
        0x0001e3b8:    00000000    ....    DCD    0
        0x0001e3bc:    00000000    ....    DCD    0
    __tagsym$$used
    ui32SharedAccess
        0x0001e3c0:    00000000    ....    DCD    0
        0x0001e3c4:    00000000    ....    DCD    0
        0x0001e3c8:    00000000    ....    DCD    0
        0x0001e3cc:    00000000    ....    DCD    0
        0x0001e3d0:    00000000    ....    DCD    0
    __tagsym$$used
    sGlobalAccess
        0x0001e3d4:    0001e3c0    ....    DCD    123840
        0x0001e3d8:    0001e384    ....    DCD    123780
        0x0001e3dc:    0001e398    ....    DCD    123800
        0x0001e3e0:    0001e3ac    ....    DCD    123820
        0x0001e3e4:    10060004    ....    DCD    268828676
        0x0001e3e8:    10060018    ....    DCD    268828696
        0x0001e3ec:    1006002c    ,...    DCD    268828716
    .constdata
    <Data1>
        0x0001e3f0:    0409        ..      DCW    1033
    desc_device
        0x0001e3f2:    0112        ..      DCW    274
        0x0001e3f4:    00000200    ....    DCD    512
        0x0001e3f8:    cafe4000    .@..    DCD    3405660160
        0x0001e3fc:    01004004    .@..    DCD    16793604
        0x0001e400:    01030201    ....    DCD    16974337
    desc_hid_report
        0x0001e404:    09ff0006    ....    DCD    167706630
        0x0001e408:    0901a101    ....    DCD    151101697
        0x0001e40c:    26001502    ...&    DCD    637539586
        0x0001e410:    087500ff    ..u.    DCD    141885695
        0x0001e414:    02814095    .@..    DCD    42025109
        0x0001e418:    00150309    ....    DCD    1377033
        0x0001e41c:    7500ff26    &..u    DCD    1962999590
        0x0001e420:    91409508    ..@.    DCD    2436928776
        0x0001e424:    c002        ..      DCW    49154
    desc_configuration
        0x0001e426:    0209        ..      DCW    521
        0x0001e428:    01010029    )...    DCD    16842793
        0x0001e42c:    09328000    ..2.    DCD    154304512
        0x0001e430:    02000004    ....    DCD    33554436
        0x0001e434:    00000003    ....    DCD    3
        0x0001e438:    01112109    .!..    DCD    17899785
        0x0001e43c:    22220100    ..""    DCD    572653824
        0x0001e440:    01050700    ....    DCD    17106688
        0x0001e444:    0a004003    .@..    DCD    167788547
        0x0001e448:    03810507    ....    DCD    58787079
        0x0001e44c:    000a0040    @...    DCD    655424
    .constdata
    tusb_strerr
        0x0001e450:    0001eb3c    <...    DCD    125756
        0x0001e454:    0001ea8c    ....    DCD    125580
        0x0001e458:    0001eb64    d...    DCD    125796
        0x0001e45c:    0001eba0    ....    DCD    125856
        0x0001e460:    0001eaa4    ....    DCD    125604
        0x0001e464:    0001eb4c    L...    DCD    125772
        0x0001e468:    0001ead8    ....    DCD    125656
        0x0001e46c:    0001eafc    ....    DCD    125692
        0x0001e470:    0001eb20     ...    DCD    125728
        0x0001e474:    0001eb80    ....    DCD    125824
        0x0001e478:    0001eac4    ....    DCD    125636
    __func__
        0x0001e47c:    62737574    tusb    DCD    1651733876
        0x0001e480:    696e695f    _ini    DCD    1768843615
        0x0001e484:    0074        t.      DCW    116
    __func__
        0x0001e486:    7574        tu      DCW    30068
        0x0001e488:    7064655f    _edp    DCD    1885627743
        0x0001e48c:    61765f74    t_va    DCD    1635147636
        0x0001e490:    6164696c    lida    DCD    1633970540
        0x0001e494:    00006574    te..    DCD    25972
    .constdata
    _usbd_driver
        0x0001e498:    0001ebc0    ....    DCD    125888
        0x0001e49c:    0001c1ed    ....    DCD    115181
        0x0001e4a0:    0001c39d    ....    DCD    115613
        0x0001e4a4:    0001c1f9    ....    DCD    115193
        0x0001e4a8:    0001bf51    Q...    DCD    114513
        0x0001e4ac:    0001c3b1    ....    DCD    115633
        0x0001e4b0:    00000000    ....    DCD    0
    _usbd_event_str
        0x0001e4b4:    0001ebf0    ....    DCD    125936
        0x0001e4b8:    0001ecdc    ....    DCD    126172
        0x0001e4bc:    0001ebc8    ....    DCD    125896
        0x0001e4c0:    0001ebc4    ....    DCD    125892
        0x0001e4c4:    0001ebf8    ....    DCD    125944
        0x0001e4c8:    0001ec2c    ,...    DCD    125996
        0x0001e4cc:    0001ebd4    ....    DCD    125908
        0x0001e4d0:    0001ec50    P...    DCD    126032
        0x0001e4d4:    0001ec68    h...    DCD    126056
    _tusb_std_request_str
        0x0001e4d8:    0001ecd0    ....    DCD    126160
        0x0001e4dc:    0001ec34    4...    DCD    126004
        0x0001e4e0:    0001ebe4    ....    DCD    125924
        0x0001e4e4:    0001ec44    D...    DCD    126020
        0x0001e4e8:    0001ebe4    ....    DCD    125924
        0x0001e4ec:    0001ecc4    ....    DCD    126148
        0x0001e4f0:    0001eca4    ....    DCD    126116
        0x0001e4f4:    0001ecb4    ....    DCD    126132
        0x0001e4f8:    0001ec7c    |...    DCD    126076
        0x0001e4fc:    0001ec90    ....    DCD    126096
        0x0001e500:    0001ec00    ....    DCD    125952
        0x0001e504:    0001ec10    ....    DCD    125968
        0x0001e508:    0001ec20     ...    DCD    125984
    _tusb_speed_str
        0x0001e50c:    0001ec74    t...    DCD    126068
        0x0001e510:    0001ece8    ....    DCD    126184
        0x0001e514:    0001ec60    `...    DCD    126048
    __func__
        0x0001e518:    6c61736f    osal    DCD    1818325871
        0x0001e51c:    6575715f    _que    DCD    1702195551
        0x0001e520:    735f6575    ue_s    DCD    1935631733
        0x0001e524:    00646e65    end.    DCD    6581861
    __func__
        0x0001e528:    5f647574    tud_    DCD    1600419188
        0x0001e52c:    74696e69    init    DCD    1953066601
        0x0001e530:    00          .       DCB    0
    __func__
        0x0001e531:    747564      tud     DCB    116,117,100
        0x0001e534:    7361745f    _tas    DCD    1935766623
        0x0001e538:    006b        k.      DCW    107
    __func__
        0x0001e53a:    7270        pr      DCW    29296
        0x0001e53c:    7365636f    oces    DCD    1936024431
        0x0001e540:    6f635f73    s_co    DCD    1868783475
        0x0001e544:    6f72746e    ntro    DCD    1869771886
        0x0001e548:    65725f6c    l_re    DCD    1701994348
        0x0001e54c:    73657571    ques    DCD    1936029041
        0x0001e550:    0074        t.      DCW    116
    __func__
        0x0001e552:    7270        pr      DCW    29296
        0x0001e554:    7365636f    oces    DCD    1936024431
        0x0001e558:    65735f73    s_se    DCD    1702059891
        0x0001e55c:    6f635f74    t_co    DCD    1868783476
        0x0001e560:    6769666e    nfig    DCD    1734960750
        0x0001e564:    00          .       DCB    0
    __func__
        0x0001e565:    70726f      pro     DCB    112,114,111
        0x0001e568:    73736563    cess    DCD    1936942435
        0x0001e56c:    7465675f    _get    DCD    1952802655
        0x0001e570:    7365645f    _des    DCD    1936024671
        0x0001e574:    70697263    crip    DCD    1885958755
        0x0001e578:    00726f74    tor.    DCD    7499636
        0x0001e57c:    00000500    ....    DCD    1280
        0x0001e580:    00000000    ....    DCD    0
        0x0001e584:    00000000    ....    DCD    0
        0x0001e588:    00000100    ....    DCD    256
        0x0001e58c:    00000000    ....    DCD    0
        0x0001e590:    00000000    ....    DCD    0
        0x0001e594:    00000600    ....    DCD    1536
        0x0001e598:    00000000    ....    DCD    0
        0x0001e59c:    00000000    ....    DCD    0
        0x0001e5a0:    00000700    ....    DCD    1792
        0x0001e5a4:    00000000    ....    DCD    0
        0x0001e5a8:    00000000    ....    DCD    0
    __func__
        0x0001e5ac:    64627375    usbd    DCD    1684173685
        0x0001e5b0:    65706f5f    _ope    DCD    1701867359
        0x0001e5b4:    64655f6e    n_ed    DCD    1684365166
        0x0001e5b8:    705f7470    pt_p    DCD    1885303920
        0x0001e5bc:    00726961    air.    DCD    7498081
        0x0001e5c0:    00000800    ....    DCD    2048
        0x0001e5c4:    00000000    ....    DCD    0
        0x0001e5c8:    00000000    ....    DCD    0
    __func__
        0x0001e5cc:    64627375    usbd    DCD    1684173685
        0x0001e5d0:    7064655f    _edp    DCD    1885627743
        0x0001e5d4:    706f5f74    t_op    DCD    1886347124
        0x0001e5d8:    6e65        en      DCW    28261
        0x0001e5da:    00          .       DCB    0
    __func__
        0x0001e5db:    75          u       DCB    117
        0x0001e5dc:    5f646273    sbd_    DCD    1600414323
        0x0001e5e0:    74706465    edpt    DCD    1953522789
        0x0001e5e4:    6566785f    _xfe    DCD    1701214303
        0x0001e5e8:    0072        r.      DCW    114
    __func__
        0x0001e5ea:    7375        us      DCW    29557
        0x0001e5ec:    655f6462    bd_e    DCD    1700750434
        0x0001e5f0:    5f747064    dpt_    DCD    1601466468
        0x0001e5f4:    72656678    xfer    DCD    1919247992
        0x0001e5f8:    6669665f    _fif    DCD    1718183519
        0x0001e5fc:    006f        o.      DCW    111
    __func__
        0x0001e5fe:    7375        us      DCW    29557
        0x0001e600:    655f6462    bd_e    DCD    1700750434
        0x0001e604:    5f747064    dpt_    DCD    1601466468
        0x0001e608:    736f6c63    clos    DCD    1936682083
        0x0001e60c:    0065        e.      DCW    101
    .constdata
    __func__
        0x0001e60e:    7574        tu      DCW    30068
        0x0001e610:    6f635f64    d_co    DCD    1868783460
        0x0001e614:    6f72746e    ntro    DCD    1869771886
        0x0001e618:    66785f6c    l_xf    DCD    1719164780
        0x0001e61c:    7265        er      DCW    29285
        0x0001e61e:    00          .       DCB    0
    __func__
        0x0001e61f:    75          u       DCB    117
        0x0001e620:    5f646273    sbd_    DCD    1600414323
        0x0001e624:    746e6f63    cont    DCD    1953394531
        0x0001e628:    5f6c6f72    rol_    DCD    1600941938
        0x0001e62c:    72656678    xfer    DCD    1919247992
        0x0001e630:    0062635f    _cb.    DCD    6447967
    .constdata
    __func__
        0x0001e634:    64646968    hidd    DCD    1684302184
        0x0001e638:    65706f5f    _ope    DCD    1701867359
        0x0001e63c:    006e        n.      DCW    110
    __PRETTY_FUNCTION__
        0x0001e63e:    6e75        un      DCW    28277
        0x0001e640:    6e676973    sign    DCD    1852270963
        0x0001e644:    73206465    ed s    DCD    1931502693
        0x0001e648:    74726f68    hort    DCD    1953656680
        0x0001e64c:    64696820     hid    DCD    1684629536
        0x0001e650:    706f5f64    d_op    DCD    1886347108
        0x0001e654:    75286e65    en(u    DCD    1965583973
        0x0001e658:    6769736e    nsig    DCD    1734964078
        0x0001e65c:    2064656e    ned     DCD    543450478
        0x0001e660:    72616863    char    DCD    1918986339
        0x0001e664:    6f63202c    , co    DCD    1868767276
        0x0001e668:    2074736e    nst     DCD    544502638
        0x0001e66c:    75727473    stru    DCD    1970435187
        0x0001e670:    3c207463    ct <    DCD    1008759907
        0x0001e674:    616e6e75    unna    DCD    1634627189
        0x0001e678:    3e64656d    med>    DCD    1046766957
        0x0001e67c:    202c2a20     *,     DCD    539765280
        0x0001e680:    69736e75    unsi    DCD    1769172597
        0x0001e684:    64656e67    gned    DCD    1684368999
        0x0001e688:    6f687320     sho    DCD    1869116192
        0x0001e68c:    00297472    rt).    DCD    2716786
    __func__
        0x0001e690:    64646968    hidd    DCD    1684302184
        0x0001e694:    6e6f635f    _con    DCD    1852793695
        0x0001e698:    6c6f7274    trol    DCD    1819243124
        0x0001e69c:    6566785f    _xfe    DCD    1701214303
        0x0001e6a0:    62635f72    r_cb    DCD    1650679666
        0x0001e6a4:    00          .       DCB    0
    __func__
        0x0001e6a5:    686964      hid     DCB    104,105,100
        0x0001e6a8:    66785f64    d_xf    DCD    1719164772
        0x0001e6ac:    635f7265    er_c    DCD    1667199589
        0x0001e6b0:    00000062    b...    DCD    98
    .constdata
    ui32I2sWordLength
        0x0001e6b4:    00000008    ....    DCD    8
        0x0001e6b8:    00000000    ....    DCD    0
        0x0001e6bc:    00000010    ....    DCD    16
        0x0001e6c0:    00000000    ....    DCD    0
        0x0001e6c4:    00000018    ....    DCD    24
        0x0001e6c8:    00000020     ...    DCD    32
    g_DeviceNameApollo4p
        0x0001e6cc:    6c6f7041    Apol    DCD    1819242561
        0x0001e6d0:    20346f6c    lo4     DCD    540307308
        0x0001e6d4:    73756c50    Plus    DCD    1937075280
        0x0001e6d8:    00          .       DCB    0
    g_DeviceNameApollo4p_blue
        0x0001e6d9:    41706f      Apo     DCB    65,112,111
        0x0001e6dc:    346f6c6c    llo4    DCD    879717484
        0x0001e6e0:    756c4220     Blu    DCD    1970029088
        0x0001e6e4:    6c502065    e Pl    DCD    1817190501
        0x0001e6e8:    7375        us      DCW    29557
        0x0001e6ea:    00          .       DCB    0
    g_PackageType
        0x0001e6eb:    53          S       DCB    83
        0x0001e6ec:    53005049    IP.S    DCD    1392529481
        0x0001e6f0:    42325049    IP2B    DCD    1110593609
        0x0001e6f4:    43004147    GA.C    DCD    1124090183
        0x0001e6f8:    5053        SP      DCW    20563
        0x0001e6fa:    00          .       DCB    0
    g_TempRange
        0x0001e6fb:    43          C       DCB    67
        0x0001e6fc:    656d6d6f    omme    DCD    1701670255
        0x0001e700:    61696372    rcia    DCD    1634296690
        0x0001e704:    694d006c    l.Mi    DCD    1766654060
        0x0001e708:    6174696c    lita    DCD    1635019116
        0x0001e70c:    00007972    ry..    DCD    31090
        0x0001e710:    74754100    .Aut    DCD    1953841408
        0x0001e714:    746f6d6f    omot    DCD    1953459567
        0x0001e718:    00657669    ive.    DCD    6649449
        0x0001e71c:    75646e49    Indu    DCD    1969516105
        0x0001e720:    69727473    stri    DCD    1769108595
        0x0001e724:    6c61        al      DCW    27745
        0x0001e726:    00          .       DCB    0
    g_ui8VendorNameAmbq
        0x0001e727:    41          A       DCB    65
        0x0001e728:    0051424d    MBQ.    DCD    5325389
    g_ui8VendorNameUnknown
        0x0001e72c:    3f3f3f3f    ????    DCD    1061109567
        0x0001e730:    00          .       DCB    0
    g_ui8DeviceNameUnknown
        0x0001e731:    556e6b      Unk     DCB    85,110,107
        0x0001e734:    6e776f6e    nown    DCD    1853321070
        0x0001e738:    76656420     dev    DCD    1986356256
        0x0001e73c:    00656369    ice.    DCD    6644585
    .constdata
    g_sBspUartConfig
        0x0001e740:    0001c200    ....    DCD    115200
        0x0001e744:    00000203    ....    DCD    515
        0x0001e748:    02020000    ....    DCD    33685504
        0x0001e74c:    00000000    ....    DCD    0
        0x0001e750:    00000000    ....    DCD    0
        0x0001e754:    00000000    ....    DCD    0
        0x0001e758:    00000000    ....    DCD    0
        0x0001e75c:    ffffffff    ....    DCD    4294967295
        0x0001e760:    00000000    ....    DCD    0
        0x0001e764:    00000000    ....    DCD    0
        0x0001e768:    00000000    ....    DCD    0
    .constdata
    am_hal_cachectrl_defaults
        0x0001e76c:    0000030e    ....    DCD    782
    .constdata
    g_am_hal_mcuctrl_sku_mram_size
        0x0001e770:    04000200    ....    DCD    67109376
        0x0001e774:    08000600    ....    DCD    134219264
    g_am_hal_mcuctrl_sku_ssram_size
        0x0001e778:    01800400    ....    DCD    25166848
        0x0001e77c:    01800800    ....    DCD    25167872
        0x0001e780:    01800400    ....    DCD    25166848
        0x0001e784:    01800800    ....    DCD    25167872
    .constdata
    g_amHalMcuctrlArgDefault
        0x0001e788:    00200000    .. .    DCD    2097152
        0x0001e78c:    00000001    ....    DCD    1
    .constdata
    g_am_hal_bootrom_helper
        0x0001e790:    0800004d    M...    DCD    134217805
        0x0001e794:    08000051    Q...    DCD    134217809
        0x0001e798:    08000055    U...    DCD    134217813
        0x0001e79c:    08000059    Y...    DCD    134217817
        0x0001e7a0:    0800006d    m...    DCD    134217837
        0x0001e7a4:    08000075    u...    DCD    134217845
        0x0001e7a8:    08000079    y...    DCD    134217849
        0x0001e7ac:    08000081    ....    DCD    134217857
        0x0001e7b0:    08000099    ....    DCD    134217881
        0x0001e7b4:    0800009d    ....    DCD    134217885
    .constdata
    g_ui32DSpintbl
        0x0001e7b8:    8fc007e0    ....    DCD    2411726816
        0x0001e7bc:    e3fbffff    ....    DCD    3824943103
        0x0001e7c0:    01ffffff    ....    DCD    33554431
        0x0001e7c4:    00000000    ....    DCD    0
    .constdata
    g_DefaultMcuMemCfg
        0x0001e7c8:    07070102    ....    DCD    117899522
        0x0001e7cc:    0001        ..      DCW    1
    g_DefaultSRAMCfg
        0x0001e7ce:    0003        ..      DCW    3
        0x0001e7d0:    03000000    ....    DCD    50331648
    am_hal_pwrctrl_peripheral_control
        0x0001e7d4:    40021004    ...@    DCD    1073876996
        0x0001e7d8:    00000001    ....    DCD    1
        0x0001e7dc:    40021008    ...@    DCD    1073877000
        0x0001e7e0:    00000001    ....    DCD    1
        0x0001e7e4:    40021004    ...@    DCD    1073876996
        0x0001e7e8:    00000002    ....    DCD    2
        0x0001e7ec:    40021008    ...@    DCD    1073877000
        0x0001e7f0:    0000001e    ....    DCD    30
        0x0001e7f4:    40021004    ...@    DCD    1073876996
        0x0001e7f8:    00000004    ....    DCD    4
        0x0001e7fc:    40021008    ...@    DCD    1073877000
        0x0001e800:    0000001e    ....    DCD    30
        0x0001e804:    40021004    ...@    DCD    1073876996
        0x0001e808:    00000008    ....    DCD    8
        0x0001e80c:    40021008    ...@    DCD    1073877000
        0x0001e810:    0000001e    ....    DCD    30
        0x0001e814:    40021004    ...@    DCD    1073876996
        0x0001e818:    00000010    ....    DCD    16
        0x0001e81c:    40021008    ...@    DCD    1073877000
        0x0001e820:    0000001e    ....    DCD    30
        0x0001e824:    40021004    ...@    DCD    1073876996
        0x0001e828:    00000020     ...    DCD    32
        0x0001e82c:    40021008    ...@    DCD    1073877000
        0x0001e830:    000001e0    ....    DCD    480
        0x0001e834:    40021004    ...@    DCD    1073876996
        0x0001e838:    00000040    @...    DCD    64
        0x0001e83c:    40021008    ...@    DCD    1073877000
        0x0001e840:    000001e0    ....    DCD    480
        0x0001e844:    40021004    ...@    DCD    1073876996
        0x0001e848:    00000080    ....    DCD    128
        0x0001e84c:    40021008    ...@    DCD    1073877000
        0x0001e850:    000001e0    ....    DCD    480
        0x0001e854:    40021004    ...@    DCD    1073876996
        0x0001e858:    00000100    ....    DCD    256
        0x0001e85c:    40021008    ...@    DCD    1073877000
        0x0001e860:    000001e0    ....    DCD    480
        0x0001e864:    40021004    ...@    DCD    1073876996
        0x0001e868:    00000200    ....    DCD    512
        0x0001e86c:    40021008    ...@    DCD    1073877000
        0x0001e870:    00001e00    ....    DCD    7680
        0x0001e874:    40021004    ...@    DCD    1073876996
        0x0001e878:    00000400    ....    DCD    1024
        0x0001e87c:    40021008    ...@    DCD    1073877000
        0x0001e880:    00001e00    ....    DCD    7680
        0x0001e884:    40021004    ...@    DCD    1073876996
        0x0001e888:    00000800    ....    DCD    2048
        0x0001e88c:    40021008    ...@    DCD    1073877000
        0x0001e890:    00001e00    ....    DCD    7680
        0x0001e894:    40021004    ...@    DCD    1073876996
        0x0001e898:    00001000    ....    DCD    4096
        0x0001e89c:    40021008    ...@    DCD    1073877000
        0x0001e8a0:    00001e00    ....    DCD    7680
        0x0001e8a4:    40021004    ...@    DCD    1073876996
        0x0001e8a8:    00002000    . ..    DCD    8192
        0x0001e8ac:    40021008    ...@    DCD    1073877000
        0x0001e8b0:    00002000    . ..    DCD    8192
        0x0001e8b4:    40021004    ...@    DCD    1073876996
        0x0001e8b8:    00004000    .@..    DCD    16384
        0x0001e8bc:    40021008    ...@    DCD    1073877000
        0x0001e8c0:    0001c000    ....    DCD    114688
        0x0001e8c4:    40021004    ...@    DCD    1073876996
        0x0001e8c8:    00008000    ....    DCD    32768
        0x0001e8cc:    40021008    ...@    DCD    1073877000
        0x0001e8d0:    0001c000    ....    DCD    114688
        0x0001e8d4:    40021004    ...@    DCD    1073876996
        0x0001e8d8:    00010000    ....    DCD    65536
        0x0001e8dc:    40021008    ...@    DCD    1073877000
        0x0001e8e0:    0001c000    ....    DCD    114688
        0x0001e8e4:    40021004    ...@    DCD    1073876996
        0x0001e8e8:    00020000    ....    DCD    131072
        0x0001e8ec:    40021008    ...@    DCD    1073877000
        0x0001e8f0:    00020000    ....    DCD    131072
        0x0001e8f4:    40021004    ...@    DCD    1073876996
        0x0001e8f8:    00040000    ....    DCD    262144
        0x0001e8fc:    40021008    ...@    DCD    1073877000
        0x0001e900:    00040000    ....    DCD    262144
        0x0001e904:    40021004    ...@    DCD    1073876996
        0x0001e908:    00080000    ....    DCD    524288
        0x0001e90c:    40021008    ...@    DCD    1073877000
        0x0001e910:    00080000    ....    DCD    524288
        0x0001e914:    40021004    ...@    DCD    1073876996
        0x0001e918:    00100000    ....    DCD    1048576
        0x0001e91c:    40021008    ...@    DCD    1073877000
        0x0001e920:    00100000    ....    DCD    1048576
        0x0001e924:    40021004    ...@    DCD    1073876996
        0x0001e928:    00200000    .. .    DCD    2097152
        0x0001e92c:    40021008    ...@    DCD    1073877000
        0x0001e930:    00200000    .. .    DCD    2097152
        0x0001e934:    40021004    ...@    DCD    1073876996
        0x0001e938:    00400000    ..@.    DCD    4194304
        0x0001e93c:    40021008    ...@    DCD    1073877000
        0x0001e940:    00400000    ..@.    DCD    4194304
        0x0001e944:    40021004    ...@    DCD    1073876996
        0x0001e948:    00800000    ....    DCD    8388608
        0x0001e94c:    40021008    ...@    DCD    1073877000
        0x0001e950:    00800000    ....    DCD    8388608
        0x0001e954:    40021004    ...@    DCD    1073876996
        0x0001e958:    01000000    ....    DCD    16777216
        0x0001e95c:    40021008    ...@    DCD    1073877000
        0x0001e960:    01000000    ....    DCD    16777216
        0x0001e964:    4002100c    ...@    DCD    1073877004
        0x0001e968:    00000001    ....    DCD    1
        0x0001e96c:    40021010    ...@    DCD    1073877008
        0x0001e970:    000000ff    ....    DCD    255
        0x0001e974:    4002100c    ...@    DCD    1073877004
        0x0001e978:    00000002    ....    DCD    2
        0x0001e97c:    40021010    ...@    DCD    1073877008
        0x0001e980:    000000ff    ....    DCD    255
        0x0001e984:    4002100c    ...@    DCD    1073877004
        0x0001e988:    00000004    ....    DCD    4
        0x0001e98c:    40021010    ...@    DCD    1073877008
        0x0001e990:    000000ff    ....    DCD    255
        0x0001e994:    4002100c    ...@    DCD    1073877004
        0x0001e998:    00000008    ....    DCD    8
        0x0001e99c:    40021010    ...@    DCD    1073877008
        0x0001e9a0:    000000ff    ....    DCD    255
        0x0001e9a4:    4002100c    ...@    DCD    1073877004
        0x0001e9a8:    00000010    ....    DCD    16
        0x0001e9ac:    40021010    ...@    DCD    1073877008
        0x0001e9b0:    000000ff    ....    DCD    255
        0x0001e9b4:    4002100c    ...@    DCD    1073877004
        0x0001e9b8:    00000020     ...    DCD    32
        0x0001e9bc:    40021010    ...@    DCD    1073877008
        0x0001e9c0:    000000ff    ....    DCD    255
        0x0001e9c4:    4002100c    ...@    DCD    1073877004
        0x0001e9c8:    00000040    @...    DCD    64
        0x0001e9cc:    40021010    ...@    DCD    1073877008
        0x0001e9d0:    000000ff    ....    DCD    255
        0x0001e9d4:    4002100c    ...@    DCD    1073877004
        0x0001e9d8:    00000080    ....    DCD    128
        0x0001e9dc:    40021010    ...@    DCD    1073877008
        0x0001e9e0:    000000ff    ....    DCD    255
        0x0001e9e4:    4002100c    ...@    DCD    1073877004
        0x0001e9e8:    00000400    ....    DCD    1024
        0x0001e9ec:    40021010    ...@    DCD    1073877008
        0x0001e9f0:    00000400    ....    DCD    1024
    g_VDDC_trimstbl
        0x0001e9f4:    3c003cec    .<.<    DCD    1006648556
        0x0001e9f8:    7f7ff05a    Z...    DCD    2139091034
        0x0001e9fc:    00          .       DCB    0
    g_VDDF_trimstbl
        0x0001e9fd:    ecf500      ...     DCB    236,245,0
        0x0001ea00:    fefffef5    ....    DCD    4278189813
        0x0001ea04:    1108fe08    ....    DCD    285801992
        0x0001ea08:    fc1a11fd    ....    DCD    4229566973
        0x0001ea0c:    23fb231a    .#.#    DCD    603661082
        0x0001ea10:    352cfa2c    ,.,5    DCD    892140076
        0x0001ea14:    f83c35f9    .5<.    DCD    4164695545
        0x0001ea18:    7ff75a3c    <Z..    DCD    2146916924
        0x0001ea1c:    007f        ..      DCW    127
    g_VDDFLP_trimstbl
        0x0001ea1e:    f5ec        ..      DCW    62956
        0x0001ea20:    fffef500    ....    DCD    4294898944
        0x0001ea24:    08fe08fe    ....    DCD    150866174
        0x0001ea28:    1a11fd11    ....    DCD    437386513
        0x0001ea2c:    fb231afc    ..#.    DCD    4213381884
        0x0001ea30:    2cfa2c23    #,.,    DCD    754592803
        0x0001ea34:    3c35f935    5.5<    DCD    1010170165
        0x0001ea38:    f75a3cf8    .<Z.    DCD    4149886200
        0x0001ea3c:    7f7f        ..      DCW    32639
        0x0001ea3e:    00          .       DCB    0
    g_memlpldo_trimstbl
        0x0001ea3f:    ee          .       DCB    238
        0x0001ea40:    f6f208f2    ....    DCD    4143057138
        0x0001ea44:    06faf607    ....    DCD    117110279
        0x0001ea48:    fe05fefa    ....    DCD    4261805818
        0x0001ea4c:    06020402    ....    DCD    100795394
        0x0001ea50:    020a0603    ....    DCD    34211331
        0x0001ea54:    0e010e0a    ....    DCD    234950154
        0x0001ea58:    16120012    ....    DCD    370278418
        0x0001ea5c:    fe1a16ff    ....    DCD    4263122687
        0x0001ea60:    2afd2a1a    .*.*    DCD    721234458
        0x0001ea64:    5a3cfc3c    <.<Z    DCD    1513946172
        0x0001ea68:    007f7ffb    ....    DCD    8355835
    .conststring
        0x0001ea6c:    34333231    1234    DCD    875770417
        0x0001ea70:    00003635    56..    DCD    13877
        0x0001ea74:    796e6954    Tiny    DCD    2037279060
        0x0001ea78:    00425355    USB.    DCD    4346709
        0x0001ea7c:    796e6954    Tiny    DCD    2037279060
        0x0001ea80:    20425355    USB     DCD    541217621
        0x0001ea84:    69766544    Devi    DCD    1769366852
        0x0001ea88:    00006563    ce..    DCD    25955
    .conststring
        0x0001ea8c:    42535554    TUSB    DCD    1112757588
        0x0001ea90:    5252455f    _ERR    DCD    1381123423
        0x0001ea94:    495f524f    OR_I    DCD    1230983759
        0x0001ea98:    4c41564e    NVAL    DCD    1279350350
        0x0001ea9c:    505f4449    ID_P    DCD    1348420681
        0x0001eaa0:    00415241    ARA.    DCD    4280897
        0x0001eaa4:    42535554    TUSB    DCD    1112757588
        0x0001eaa8:    5252455f    _ERR    DCD    1381123423
        0x0001eaac:    485f524f    OR_H    DCD    1214206543
        0x0001eab0:    4f5f4443    CD_O    DCD    1331643459
        0x0001eab4:    5f4e4550    PEN_    DCD    1598965072
        0x0001eab8:    45504950    PIPE    DCD    1162889552
        0x0001eabc:    4941465f    _FAI    DCD    1229014623
        0x0001eac0:    0044454c    LED.    DCD    4474188
        0x0001eac4:    42535554    TUSB    DCD    1112757588
        0x0001eac8:    5252455f    _ERR    DCD    1381123423
        0x0001eacc:    465f524f    OR_F    DCD    1180652111
        0x0001ead0:    454c4941    AILE    DCD    1162627393
        0x0001ead4:    00000044    D...    DCD    68
        0x0001ead8:    42535554    TUSB    DCD    1112757588
        0x0001eadc:    5252455f    _ERR    DCD    1381123423
        0x0001eae0:    435f524f    OR_C    DCD    1130320463
        0x0001eae4:    5f484344    DCH_    DCD    1598571332
        0x0001eae8:    49564544    DEVI    DCD    1230390596
        0x0001eaec:    4e5f4543    CE_N    DCD    1314866499
        0x0001eaf0:    4d5f544f    OT_M    DCD    1298093135
        0x0001eaf4:    544e554f    OUNT    DCD    1414419791
        0x0001eaf8:    00004445    ED..    DCD    17477
        0x0001eafc:    42535554    TUSB    DCD    1112757588
        0x0001eb00:    5252455f    _ERR    DCD    1381123423
        0x0001eb04:    4d5f524f    OR_M    DCD    1298092623
        0x0001eb08:    5f484353    SCH_    DCD    1598571347
        0x0001eb0c:    49564544    DEVI    DCD    1230390596
        0x0001eb10:    4e5f4543    CE_N    DCD    1314866499
        0x0001eb14:    4d5f544f    OT_M    DCD    1298093135
        0x0001eb18:    544e554f    OUNT    DCD    1414419791
        0x0001eb1c:    00004445    ED..    DCD    17477
        0x0001eb20:    42535554    TUSB    DCD    1112757588
        0x0001eb24:    5252455f    _ERR    DCD    1381123423
        0x0001eb28:    4e5f524f    OR_N    DCD    1314869839
        0x0001eb2c:    535f544f    OT_S    DCD    1398756431
        0x0001eb30:    4f505055    UPPO    DCD    1330663509
        0x0001eb34:    44455452    RTED    DCD    1145394258
        0x0001eb38:    00000000    ....    DCD    0
        0x0001eb3c:    42535554    TUSB    DCD    1112757588
        0x0001eb40:    5252455f    _ERR    DCD    1381123423
        0x0001eb44:    4e5f524f    OR_N    DCD    1314869839
        0x0001eb48:    00454e4f    ONE.    DCD    4542031
        0x0001eb4c:    42535554    TUSB    DCD    1112757588
        0x0001eb50:    5252455f    _ERR    DCD    1381123423
        0x0001eb54:    4f5f524f    OR_O    DCD    1331647055
        0x0001eb58:    5f4c4153    SAL_    DCD    1598832979
        0x0001eb5c:    454d4954    TIME    DCD    1162692948
        0x0001eb60:    0054554f    OUT.    DCD    5526863
        0x0001eb64:    42535554    TUSB    DCD    1112757588
        0x0001eb68:    5252455f    _ERR    DCD    1381123423
        0x0001eb6c:    445f524f    OR_D    DCD    1147097679
        0x0001eb70:    43495645    EVIC    DCD    1128879685
        0x0001eb74:    4f4e5f45    E_NO    DCD    1330536261
        0x0001eb78:    45525f54    T_RE    DCD    1163026260
        0x0001eb7c:    00594441    ADY.    DCD    5850177
        0x0001eb80:    42535554    TUSB    DCD    1112757588
        0x0001eb84:    5252455f    _ERR    DCD    1381123423
        0x0001eb88:    4e5f524f    OR_N    DCD    1314869839
        0x0001eb8c:    455f544f    OT_E    DCD    1163875407
        0x0001eb90:    47554f4e    NOUG    DCD    1196773198
        0x0001eb94:    454d5f48    H_ME    DCD    1162698568
        0x0001eb98:    59524f4d    MORY    DCD    1498566477
        0x0001eb9c:    00000000    ....    DCD    0
        0x0001eba0:    42535554    TUSB    DCD    1112757588
        0x0001eba4:    5252455f    _ERR    DCD    1381123423
        0x0001eba8:    495f524f    OR_I    DCD    1230983759
        0x0001ebac:    5245544e    NTER    DCD    1380275278
        0x0001ebb0:    45434146    FACE    DCD    1162035526
        0x0001ebb4:    5f53495f    _IS_    DCD    1599293791
        0x0001ebb8:    59535542    BUSY    DCD    1498633538
        0x0001ebbc:    00000000    ....    DCD    0
    .conststring
        0x0001ebc0:    00444948    HID.    DCD    4475208
        0x0001ebc4:    00464f53    SOF.    DCD    4607827
        0x0001ebc8:    6c706e55    Unpl    DCD    1819307605
        0x0001ebcc:    65676775    ugge    DCD    1701275509
        0x0001ebd0:    00000064    d...    DCD    100
        0x0001ebd4:    75746553    Setu    DCD    1970562387
        0x0001ebd8:    65522070    p Re    DCD    1699881072
        0x0001ebdc:    76696563    ceiv    DCD    1986618723
        0x0001ebe0:    00006465    ed..    DCD    25701
        0x0001ebe4:    65736552    Rese    DCD    1702061394
        0x0001ebe8:    64657672    rved    DCD    1684371058
        0x0001ebec:    00000000    ....    DCD    0
        0x0001ebf0:    61766e49    Inva    DCD    1635151433
        0x0001ebf4:    0064696c    lid.    DCD    6580588
        0x0001ebf8:    70737553    Susp    DCD    1886614867
        0x0001ebfc:    00646e65    end.    DCD    6581861
        0x0001ec00:    20746547    Get     DCD    544499015
        0x0001ec04:    65746e49    Inte    DCD    1702129225
        0x0001ec08:    63616672    rfac    DCD    1667327602
        0x0001ec0c:    00000065    e...    DCD    101
        0x0001ec10:    20746553    Set     DCD    544499027
        0x0001ec14:    65746e49    Inte    DCD    1702129225
        0x0001ec18:    63616672    rfac    DCD    1667327602
        0x0001ec1c:    00000065    e...    DCD    101
        0x0001ec20:    636e7953    Sync    DCD    1668184403
        0x0001ec24:    72462068    h Fr    DCD    1917198440
        0x0001ec28:    00656d61    ame.    DCD    6647137
        0x0001ec2c:    75736552    Resu    DCD    1970496850
        0x0001ec30:    0000656d    me..    DCD    25965
        0x0001ec34:    61656c43    Clea    DCD    1634036803
        0x0001ec38:    65462072    r Fe    DCD    1699094642
        0x0001ec3c:    72757461    atur    DCD    1920300129
        0x0001ec40:    00000065    e...    DCD    101
        0x0001ec44:    20746553    Set     DCD    544499027
        0x0001ec48:    74616546    Feat    DCD    1952539974
        0x0001ec4c:    00657275    ure.    DCD    6648437
        0x0001ec50:    72656658    Xfer    DCD    1919247960
        0x0001ec54:    6d6f4320     Com    DCD    1836008224
        0x0001ec58:    74656c70    plet    DCD    1952803952
        0x0001ec5c:    00000065    e...    DCD    101
        0x0001ec60:    68676948    High    DCD    1751607624
        0x0001ec64:    00000000    ....    DCD    0
        0x0001ec68:    636e7546    Func    DCD    1668183366
        0x0001ec6c:    6c614320     Cal    DCD    1818313504
        0x0001ec70:    0000006c    l...    DCD    108
        0x0001ec74:    6c6c7546    Full    DCD    1819047238
        0x0001ec78:    00000000    ....    DCD    0
        0x0001ec7c:    20746547    Get     DCD    544499015
        0x0001ec80:    666e6f43    Conf    DCD    1718513475
        0x0001ec84:    72756769    igur    DCD    1920296809
        0x0001ec88:    6f697461    atio    DCD    1869182049
        0x0001ec8c:    0000006e    n...    DCD    110
        0x0001ec90:    20746553    Set     DCD    544499027
        0x0001ec94:    666e6f43    Conf    DCD    1718513475
        0x0001ec98:    72756769    igur    DCD    1920296809
        0x0001ec9c:    6f697461    atio    DCD    1869182049
        0x0001eca0:    0000006e    n...    DCD    110
        0x0001eca4:    20746547    Get     DCD    544499015
        0x0001eca8:    63736544    Desc    DCD    1668506948
        0x0001ecac:    74706972    ript    DCD    1953524082
        0x0001ecb0:    0000726f    or..    DCD    29295
        0x0001ecb4:    20746553    Set     DCD    544499027
        0x0001ecb8:    63736544    Desc    DCD    1668506948
        0x0001ecbc:    74706972    ript    DCD    1953524082
        0x0001ecc0:    0000726f    or..    DCD    29295
        0x0001ecc4:    20746553    Set     DCD    544499027
        0x0001ecc8:    72646441    Addr    DCD    1919181889
        0x0001eccc:    00737365    ess.    DCD    7566181
        0x0001ecd0:    20746547    Get     DCD    544499015
        0x0001ecd4:    74617453    Stat    DCD    1952543827
        0x0001ecd8:    00007375    us..    DCD    29557
        0x0001ecdc:    20737542    Bus     DCD    544437570
        0x0001ece0:    65736552    Rese    DCD    1702061394
        0x0001ece4:    00000074    t...    DCD    116
        0x0001ece8:    00776f4c    Low.    DCD    7827276
    Region$$Table$$Base
        0x0001ecec:    0001ed1c    ....    DCD    126236
        0x0001ecf0:    10000000    ....    DCD    268435456
        0x0001ecf4:    00000120     ...    DCD    288
        0x0001ecf8:    000182cc    ....    DCD    99020
        0x0001ecfc:    0001ee3c    <...    DCD    126524
        0x0001ed00:    10060000    ....    DCD    268828672
        0x0001ed04:    00000040    @...    DCD    64
        0x0001ed08:    000182cc    ....    DCD    99020
        0x0001ed0c:    0001ee3c    <...    DCD    126524
        0x0001ed10:    10000120     ...    DCD    268435744
        0x0001ed14:    00003d28    (=..    DCD    15656
        0x0001ed18:    000182e8    ....    DCD    99048
    Region$$Table$$Limit

** Section #2 'MCU_TCM' (SHT_PROGBITS) [SHF_ALLOC + SHF_WRITE]
    Size   : 288 bytes (alignment 8)
    Address: 0x10000000

    0x10000000:   fa 00 00 00 b1 d7 01 00 5d db 01 00 d1 d7 01 00    ........].......
    0x10000010:   c1 d7 01 00 00 00 00 00 00 00 00 00 f0 e3 01 00    ................
    0x10000020:   74 ea 01 00 7c ea 01 00 6c ea 01 00 00 00 00 00    t...|...l.......
    0x10000030:   00 00 00 00 00 00 00 00 01 00 00 00 93 01 00 10    ................
    0x10000040:   10 00 0c 00 00 00 e0 ff 1f 00 00 00 00 00 00 00    ................
    0x10000050:   00 00 00 00 00 00 00 00 00 00 00 00 00 00 00 00    ................
    0x10000060:   00 00 00 00 02 00 0e 00 00 00 86 01 86 01 06 08    ................
    0x10000070:   01 00 02 00 57 00 00 00 2c 00 00 00 04 00 00 00    ....W...,.......
    0x10000080:   00 48 e8 01 08 00 00 00 10 00 00 00 20 00 00 00    .H.......... ...
    0x10000090:   40 00 00 00 80 00 00 00 00 01 00 00 00 02 00 00    @...............
    0x100000a0:   00 04 00 00 00 08 00 00 00 10 00 00 04 04 00 00    ................
    0x100000b0:   04 00 00 00 03 05 00 00 03 05 00 00 00 04 00 00    ................
    0x100000c0:   00 00 00 00 08 1e 0c 40 18 1e 0c 40 00 00 00 00    .......@...@....
    0x100000d0:   6d db 02 40 d1 02 00 00 92 24 01 80 20 01 00 00    m..@.....$.. ...
    0x100000e0:   01 00 00 00 00 00 00 00 ff ff ff ff ff ff ff ff    ................
    0x100000f0:   00 00 00 00 00 00 00 00 00 00 00 00 00 00 00 00    ................
    0x10000100:   00 00 00 00 00 00 00 00 00 00 00 00 00 00 00 00    ................
    0x10000110:   00 00 00 00 00 00 00 00 00 00 00 00 00 00 00 00    ................


** Section #3 'MCU_TCM' (SHT_NOBITS) [SHF_ALLOC + SHF_WRITE]
    Size   : 15656 bytes (alignment 8)
    Address: 0x10000120


** Section #4 'SHARED_SRAM' (SHT_PROGBITS) [SHF_ALLOC + SHF_WRITE]
    Size   : 64 bytes (alignment 4)
    Address: 0x10060000

    0x10060000:   d4 e3 01 00 00 00 00 00 00 00 00 00 00 00 00 00    ................
    0x10060010:   00 00 00 00 00 00 00 00 00 00 00 00 00 00 00 00    ................
    0x10060020:   00 00 00 00 00 00 00 00 00 00 00 00 00 00 00 00    ................
    0x10060030:   00 00 00 00 00 00 00 00 00 00 00 00 00 00 00 00    ................


** Section #5 '.debug_abbrev' (SHT_PROGBITS)
    Size   : 1476 bytes


** Section #6 '.debug_frame' (SHT_PROGBITS)
    Size   : 6756 bytes


** Section #7 '.debug_info' (SHT_PROGBITS)
    Size   : 1211504 bytes


** Section #8 '.debug_line' (SHT_PROGBITS)
    Size   : 28848 bytes


** Section #9 '.debug_loc' (SHT_PROGBITS)
    Size   : 13532 bytes


** Section #10 '.debug_macinfo' (SHT_PROGBITS)
    Size   : 825932 bytes


** Section #11 '.debug_pubnames' (SHT_PROGBITS)
    Size   : 3331 bytes


** Section #12 '.symtab' (SHT_SYMTAB)
    Size   : 18368 bytes (alignment 4)
    String table #13 '.strtab'
    Last local symbol no. 807

    Symbol table .symtab (1147 symbols, 807 local)

      #  Symbol Name                Value      Bind  Sec  Type  Vis  Size
    ========================================================================

      1  $d                         0x00018000   Lc    1   --   De 
      2  $t                         0x00018200   Lc    1   --   De 
      3  $d                         0x00018230   Lc    1   --   De 
      4  $t                         0x00018234   Lc    1   --   De 
      5  $d                         0x00018268   Lc    1   --   De 
      6  $t                         0x00018270   Lc    1   --   De 
      7  $d                         0x00018352   Lc    1   --   De 
      8  $t                         0x00018360   Lc    1   --   De 
      9  $d                         0x00018674   Lc    1   --   De 
     10  $t                         0x00018678   Lc    1   --   De 
     11  $d                         0x000186dc   Lc    1   --   De 
     12  $t                         0x000186e0   Lc    1   --   De 
     13  $d                         0x00018720   Lc    1   --   De 
     14  $t                         0x00018744   Lc    1   --   De 
     15  $d                         0x00018792   Lc    1   --   De 
     16  $t                         0x000187b8   Lc    1   --   De 
     17  $d                         0x000189be   Lc    1   --   De 
     18  $t                         0x000189f4   Lc    1   --   De 
     19  $d                         0x00018a10   Lc    1   --   De 
     20  $t                         0x00018a14   Lc    1   --   De 
     21  $d                         0x00018a30   Lc    1   --   De 
     22  $t                         0x00018a34   Lc    1   --   De 
     23  $d                         0x00018a76   Lc    1   --   De 
     24  $t                         0x00018a80   Lc    1   --   De 
     25  $d                         0x00018aec   Lc    1   --   De 
     26  $t                         0x00018b0c   Lc    1   --   De 
     27  $d                         0x00018d30   Lc    1   --   De 
     28  $t                         0x00018d3c   Lc    1   --   De 
     29  $d                         0x00018dc0   Lc    1   --   De 
     30  $t                         0x00018dcc   Lc    1   --   De 
     31  $d                         0x00018ea2   Lc    1   --   De 
     32  $t                         0x00018eb0   Lc    1   --   De 
     33  $d                         0x00018ed2   Lc    1   --   De 
     34  $t                         0x00018edc   Lc    1   --   De 
     35  $d                         0x00018f2c   Lc    1   --   De 
     36  $t                         0x00018f34   Lc    1   --   De 
     37  $d                         0x00018f90   Lc    1   --   De 
     38  $t                         0x00018f98   Lc    1   --   De 
     39  $d                         0x00018fe4   Lc    1   --   De 
     40  $t                         0x00018fec   Lc    1   --   De 
     41  $d                         0x0001900e   Lc    1   --   De 
     42  $t                         0x00019014   Lc    1   --   De 
     43  $d                         0x0001908c   Lc    1   --   De 
     44  $t                         0x000190a8   Lc    1   --   De 
     45  $d                         0x000190fe   Lc    1   --   De 
     46  $t                         0x00019104   Lc    1   --   De 
     47  $d                         0x000193a6   Lc    1   --   De 
     48  $t                         0x000193b8   Lc    1   --   De 
     49  $d                         0x000194c4   Lc    1   --   De 
     50  $t                         0x000194e8   Lc    1   --   De 
     51  $d                         0x000195fa   Lc    1   --   De 
     52  $t                         0x00019614   Lc    1   --   De 
     53  $d                         0x000196ba   Lc    1   --   De 
     54  $t                         0x000196c8   Lc    1   --   De 
     55  $d                         0x000197da   Lc    1   --   De 
     56  $t                         0x000197f4   Lc    1   --   De 
     57  $d                         0x00019864   Lc    1   --   De 
     58  $t                         0x00019868   Lc    1   --   De 
     59  $d                         0x000198de   Lc    1   --   De 
     60  $t                         0x000198e4   Lc    1   --   De 
     61  $d                         0x000199dc   Lc    1   --   De 
     62  $t                         0x00019a00   Lc    1   --   De 
     63  $d                         0x00019a78   Lc    1   --   De 
     64  $t                         0x00019a80   Lc    1   --   De 
     65  $d                         0x00019b62   Lc    1   --   De 
     66  $t                         0x00019b68   Lc    1   --   De 
     67  $d                         0x00019dda   Lc    1   --   De 
     68  $t                         0x00019de4   Lc    1   --   De 
     69  $d                         0x00019e0c   Lc    1   --   De 
     70  $t                         0x00019e14   Lc    1   --   De 
     71  $d                         0x00019e4c   Lc    1   --   De 
     72  $t                         0x00019e52   Lc    1   --   De 
     73  $d                         0x00019ed2   Lc    1   --   De 
     74  $t                         0x00019ee0   Lc    1   --   De 
     75  $d                         0x00019ffc   Lc    1   --   De 
     76  $t                         0x0001a004   Lc    1   --   De 
     77  $d                         0x0001a1c2   Lc    1   --   De 
     78  $t                         0x0001a1d0   Lc    1   --   De 
     79  $d                         0x0001a258   Lc    1   --   De 
     80  $t                         0x0001a260   Lc    1   --   De 
     81  $d                         0x0001a446   Lc    1   --   De 
     82  $t                         0x0001a450   Lc    1   --   De 
     83  $d                         0x0001a4fa   Lc    1   --   De 
     84  $t                         0x0001a504   Lc    1   --   De 
     85  $d                         0x0001a682   Lc    1   --   De 
     86  $t                         0x0001a688   Lc    1   --   De 
     87  $d                         0x0001a91c   Lc    1   --   De 
     88  $t                         0x0001a928   Lc    1   --   De 
     89  $d                         0x0001ac64   Lc    1   --   De 
     90  $t                         0x0001ac68   Lc    1   --   De 
     91  $d                         0x0001aca6   Lc    1   --   De 
     92  $t                         0x0001acb0   Lc    1   --   De 
     93  $d                         0x0001ace4   Lc    1   --   De 
     94  $t                         0x0001acec   Lc    1   --   De 
     95  $d                         0x0001af3e   Lc    1   --   De 
     96  $t                         0x0001af4c   Lc    1   --   De 
     97  $d                         0x0001af74   Lc    1   --   De 
     98  $t                         0x0001af78   Lc    1   --   De 
     99  $d                         0x0001afa0   Lc    1   --   De 
    100  $t                         0x0001afa4   Lc    1   --   De 
    101  $d                         0x0001afcc   Lc    1   --   De 
    102  $t                         0x0001afd0   Lc    1   --   De 
    103  $d                         0x0001affe   Lc    1   --   De 
    104  $t                         0x0001b008   Lc    1   --   De 
    105  $d                         0x0001b072   Lc    1   --   De 
    106  $t                         0x0001b080   Lc    1   --   De 
    107  $d                         0x0001b0b2   Lc    1   --   De 
    108  $t                         0x0001b0b8   Lc    1   --   De 
    109  $d                         0x0001b0d6   Lc    1   --   De 
    110  $t                         0x0001b0dc   Lc    1   --   De 
    111  $d                         0x0001b196   Lc    1   --   De 
    112  $t                         0x0001b1b8   Lc    1   --   De 
    113  $d                         0x0001b1ea   Lc    1   --   De 
    114  $t                         0x0001b1f4   Lc    1   --   De 
    115  $d                         0x0001b1fa   Lc    1   --   De 
    116  $t                         0x0001b200   Lc    1   --   De 
    117  $d                         0x0001b20a   Lc    1   --   De 
    118  $t                         0x0001b220   Lc    1   --   De 
    119  $d                         0x0001b5c4   Lc    1   --   De 
    120  $t                         0x0001b5d4   Lc    1   --   De 
    121  $d                         0x0001b636   Lc    1   --   De 
    122  $t                         0x0001b678   Lc    1   --   De 
    123  $d                         0x0001b6e4   Lc    1   --   De 
    124  $t                         0x0001b6ec   Lc    1   --   De 
    125  $d                         0x0001b7ba   Lc    1   --   De 
    126  $t                         0x0001b7c4   Lc    1   --   De 
    127  $d                         0x0001b7d6   Lc    1   --   De 
    128  $t                         0x0001b7dc   Lc    1   --   De 
    129  $d                         0x0001b802   Lc    1   --   De 
    130  $t                         0x0001b808   Lc    1   --   De 
    131  $d                         0x0001b81a   Lc    1   --   De 
    132  $t                         0x0001b820   Lc    1   --   De 
    133  $d                         0x0001b846   Lc    1   --   De 
    134  $t                         0x0001b84c   Lc    1   --   De 
    135  $d                         0x0001b86e   Lc    1   --   De 
    136  $t                         0x0001b874   Lc    1   --   De 
    137  $d                         0x0001b974   Lc    1   --   De 
    138  $t                         0x0001b980   Lc    1   --   De 
    139  $d                         0x0001b9a6   Lc    1   --   De 
    140  $t                         0x0001b9ac   Lc    1   --   De 
    141  $d                         0x0001b9de   Lc    1   --   De 
    142  $t                         0x0001b9e4   Lc    1   --   De 
    143  $d                         0x0001ba8c   Lc    1   --   De 
    144  $t                         0x0001baa4   Lc    1   --   De 
    145  $d                         0x0001baca   Lc    1   --   De 
    146  $t                         0x0001bad0   Lc    1   --   De 
    147  $d                         0x0001bb1c   Lc    1   --   De 
    148  $t                         0x0001bb24   Lc    1   --   De 
    149  $d                         0x0001bb5c   Lc    1   --   De 
    150  $t                         0x0001bb60   Lc    1   --   De 
    151  $d                         0x0001bbe2   Lc    1   --   De 
    152  $t                         0x0001bbe8   Lc    1   --   De 
    153  $d                         0x0001bc0a   Lc    1   --   De 
    154  $t                         0x0001bc12   Lc    1   --   De 
    155  $d                         0x0001beea   Lc    1   --   De 
    156  $t                         0x0001bef0   Lc    1   --   De 
    157  $d                         0x0001bf28   Lc    1   --   De 
    158  $t                         0x0001bf38   Lc    1   --   De 
    159  $d                         0x0001c032   Lc    1   --   De 
    160  $t                         0x0001c03e   Lc    1   --   De 
    161  $d                         0x0001c1be   Lc    1   --   De 
    162  $t                         0x0001c1ec   Lc    1   --   De 
    163  $d                         0x0001c35e   Lc    1   --   De 
    164  $t                         0x0001c39c   Lc    1   --   De 
    165  $d                         0x0001c3aa   Lc    1   --   De 
    166  $t                         0x0001c3b0   Lc    1   --   De 
    167  $d                         0x0001c47c   Lc    1   --   De 
    168  $t                         0x0001c4a4   Lc    1   --   De 
    169  $d                         0x0001c4c6   Lc    1   --   De 
    170  $t                         0x0001c4e0   Lc    1   --   De 
    171  $d                         0x0001c51c   Lc    1   --   De 
    172  $t                         0x0001c528   Lc    1   --   De 
    173  $d                         0x0001c8aa   Lc    1   --   De 
    174  $t                         0x0001c8cc   Lc    1   --   De 
    175  $d                         0x0001c9f2   Lc    1   --   De 
    176  $t                         0x0001c9fc   Lc    1   --   De 
    177  $d                         0x0001ccde   Lc    1   --   De 
    178  $t                         0x0001cd84   Lc    1   --   De 
    179  $d                         0x0001cda2   Lc    1   --   De 
    180  $t                         0x0001cda8   Lc    1   --   De 
    181  $d                         0x0001cf24   Lc    1   --   De 
    182  $t                         0x0001cfc0   Lc    1   --   De 
    183  $d                         0x0001d168   Lc    1   --   De 
    184  $t                         0x0001d1a4   Lc    1   --   De 
    185  $d                         0x0001d230   Lc    1   --   De 
    186  $t                         0x0001d254   Lc    1   --   De 
    187  $d                         0x0001d35e   Lc    1   --   De 
    188  $t                         0x0001d3a0   Lc    1   --   De 
    189  $d                         0x0001d454   Lc    1   --   De 
    190  $t                         0x0001d458   Lc    1   --   De 
    191  $d                         0x0001d524   Lc    1   --   De 
    192  $t                         0x0001d574   Lc    1   --   De 
    193  $d                         0x0001d57a   Lc    1   --   De 
    194  $t                         0x0001d580   Lc    1   --   De 
    195  $d                         0x0001d584   Lc    1   --   De 
    196  $t                         0x0001d588   Lc    1   --   De 
    197  $d                         0x0001d5e4   Lc    1   --   De 
    198  $t                         0x0001d5ec   Lc    1   --   De 
    199  $d                         0x0001d5f2   Lc    1   --   De 
    200  $t                         0x0001d5f8   Lc    1   --   De 
    201  $d                         0x0001d688   Lc    1   --   De 
    202  $t                         0x0001d68c   Lc    1   --   De 
    203  $d                         0x0001d74e   Lc    1   --   De 
    204  $t                         0x0001d7a4   Lc    1   --   De 
    205  $d                         0x0001d7aa   Lc    1   --   De 
    206  $t                         0x0001d7b0   Lc    1   --   De 
    207  $d                         0x0001d7ba   Lc    1   --   De 
    208  $t                         0x0001d7c0   Lc    1   --   De 
    209  $d                         0x0001d7ca   Lc    1   --   De 
    210  $t                         0x0001d7d0   Lc    1   --   De 
    211  $d                         0x0001d7da   Lc    1   --   De 
    212  $t                         0x0001d7e0   Lc    1   --   De 
    213  $d                         0x0001d846   Lc    1   --   De 
    214  $t                         0x0001d850   Lc    1   --   De 
    215  $d                         0x0001da80   Lc    1   --   De 
    216  $t                         0x0001db5c   Lc    1   --   De 
    217  $d                         0x0001db64   Lc    1   --   De 
    218  $t                         0x0001db68   Lc    1   --   De 
    219  $d                         0x0001db98   Lc    1   --   De 
    220  $t                         0x0001dbb8   Lc    1   --   De 
    221  $d                         0x0001dcd8   Lc    1   --   De 
    222  $t                         0x0001dcdc   Lc    1   --   De 
    223  $d                         0x0001dce2   Lc    1   --   De 
    224  $t                         0x0001dce8   Lc    1   --   De 
    225  $d                         0x0001dcfe   Lc    1   --   De 
    226  $t                         0x0001dd04   Lc    1   --   De 
    227  $d                         0x0001ddca   Lc    1   --   De 
    228  $t                         0x0001ddf4   Lc    1   --   De 
    229  $d                         0x0001de26   Lc    1   --   De 
    230  $t                         0x0001de44   Lc    1   --   De 
    231  $d                         0x0001de9e   Lc    1   --   De 
    232  $t                         0x0001dea4   Lc    1   --   De 
    233  $d                         0x0001df06   Lc    1   --   De 
    234  $t                         0x0001df28   Lc    1   --   De 
    235  $d                         0x0001df96   Lc    1   --   De 
    236  $t                         0x0001dfbc   Lc    1   --   De 
    237  $d                         0x0001e022   Lc    1   --   De 
    238  $t                         0x0001e03c   Lc    1   --   De 
    239  $d                         0x0001e064   Lc    1   --   De 
    240  $t                         0x0001e068   Lc    1   --   De 
    241  $d                         0x0001e12c   Lc    1   --   De 
    242  $t                         0x0001e180   Lc    1   --   De 
    243  $d                         0x0001e228   Lc    1   --   De 
    244  $t                         0x0001e248   Lc    1   --   De 
    245  $d                         0x0001e2a8   Lc    1   --   De 
    246  $t                         0x0001e2ac   Lc    1   --   De 
    247  $d                         0x0001e32a   Lc    1   --   De 
    248  $t                         0x0001e32e   Lc    1   --   De 
    249  $d.realdata                0x0001e36c   Lc    1   --   De 
    250  $d.realdata                0x10000000   Lc    2   --   De 
    251  $d.realdata                0x10060000   Lc    4   --   De 
    252  ..\..\..\..\..\..\third_party\tinyusb\source\src\common\tusb_fifo.c
                                    0x00000000   Lc  Abs  File  De 
    253  ../../../../../../third_party/tinyusb/source/src/common/tusb_fifo.c
                                    0x00000000   Lc  Abs  File  De 
    254  i._tu_fifo_correct_read_pointer
                                    0x000187b8   Lc    1  Sect  De 
    255  _tu_fifo_correct_read_pointer
                                    0x000187b9   Lc    1  Code  De   0x14
    256  i._tu_fifo_count           0x000187cc   Lc    1  Sect  De 
    257  _tu_fifo_count             0x000187cd   Lc    1  Code  De   0x14
    258  i._tu_fifo_full            0x000187e0   Lc    1  Sect  De 
    259  _tu_fifo_full              0x000187e1   Lc    1  Code  De   0x20
    260  i._tu_fifo_peek            0x00018800   Lc    1  Sect  De 
    261  _tu_fifo_peek              0x00018801   Lc    1  Code  De   0x58
    262  i.advance_pointer          0x00018858   Lc    1  Sect  De 
    263  advance_pointer            0x00018859   Lc    1  Code  De   0x28
    264  i.backward_pointer         0x0001b5d4   Lc    1  Sect  De 
    265  backward_pointer           0x0001b5d5   Lc    1  Code  De   0x28
    266  i.get_relative_pointer     0x0001bf38   Lc    1  Sect  De 
    267  get_relative_pointer       0x0001bf39   Lc    1  Code  De   0x16
    268  i.tu_fifo_clear            0x0001d3a0   Lc    1  Sect  De 
    269  i.tu_fifo_read             0x0001d3be   Lc    1  Sect  De 
    270  i.tu_fifo_write            0x0001d3e2   Lc    1  Sect  De 
    271  ..\src\am_resources.c      0x00000000   Lc  Abs  File  De 
    272  ../src/am_resources.c      0x00000000   Lc  Abs  File  De 
    273  .constdata                 0x0001e36c   Lc    1  Sect  De   0x84
    274  ui32I2sWordLength          0x0001e36c   Lc    1  Data  De   0x18
    275  __tagsym$$used             0x0001e384   Lc    1   --   De 
    276  __tagsym$$used             0x0001e398   Lc    1   --   De 
    277  __tagsym$$used             0x0001e3ac   Lc    1   --   De 
    278  __tagsym$$used             0x0001e3c0   Lc    1   --   De 
    279  __tagsym$$used             0x0001e3d4   Lc    1   --   De 
    280  RESOURCE_TABLE             0x10060000   Lc    4  Sect  De   0x4
    281  __tagsym$$used             0x10060000   Lc    4   --   De 
    282  SHARED_RW                  0x10060004   Lc    4  Sect  De   0x3c
    283  __tagsym$$used             0x10060004   Lc    4   --   De 
    284  __tagsym$$used             0x10060018   Lc    4   --   De 
    285  __tagsym$$used             0x1006002c   Lc    4   --   De 
    286  ..\src\apollo4_board.c     0x00000000   Lc  Abs  File  De 
    287  ../src/apollo4_board.c     0x00000000   Lc  Abs  File  De 
    288  i.board_init               0x0001b5fc   Lc    1  Sect  De 
    289  i.board_led_write          0x0001b678   Lc    1  Sect  De 
    290  i.board_millis             0x0001b67a   Lc    1  Sect  De 
    291  ..\src\tinyusb_hid_generic.c
                                    0x00000000   Lc  Abs  File  De 
    292  ../src/tinyusb_hid_generic.c
                                    0x00000000   Lc  Abs  File  De 
    293  i.led_blinking_task        0x0001c4e0   Lc    1  Sect  De 
    294  i.main                     0x0001c528   Lc    1  Sect  De 
    295  i.tud_hid_get_report_cb    0x0001d5f8   Lc    1  Sect  De 
    296  i.tud_hid_set_report_cb    0x0001d68c   Lc    1  Sect  De 
    297  i.tud_mount_cb             0x0001d7b0   Lc    1  Sect  De 
    298  i.tud_resume_cb            0x0001d7c0   Lc    1  Sect  De 
    299  i.tud_suspend_cb           0x0001d7d0   Lc    1  Sect  De 
    300  i.tud_umount_cb            0x0001db5c   Lc    1  Sect  De 
    301  .data                      0x10000000   Lc    2  Sect  De   0x19
    302  blink_interval_ms          0x10000000   Lc    2  Data  De   0x4
    303  start_ms                   0x10000014   Lc    2  Data  De   0x4
    304  led_state                  0x10000018   Lc    2  Data  De   0x1
    305  ..\src\usb_descriptors.c   0x00000000   Lc  Abs  File  De 
    306  ../src/usb_descriptors.c   0x00000000   Lc  Abs  File  De 
    307  i.tud_descriptor_configuration_cb
                                    0x0001d574   Lc    1  Sect  De 
    308  i.tud_descriptor_device_cb 0x0001d580   Lc    1  Sect  De 
    309  i.tud_descriptor_string_cb 0x0001d588   Lc    1  Sect  De 
    310  i.tud_hid_descriptor_report_cb
                                    0x0001d5ec   Lc    1  Sect  De 
    311  .bss                       0x10000120   Lc    3  Sect  De   0x40
    312  _desc_str                  0x10000120   Lc    3  Data  De   0x40
    313  .constdata                 0x0001e3f0   Lc    1  Sect  De   0x5f
    314  <Data1>                    0x0001e3f0   Lc    1  Data  De   0x2
    315  .conststring               0x0001ea6c   Lc    1  Sect  De   0x1f
    316  .data                      0x1000001c   Lc    2  Sect  De   0x10
    317  ..\..\..\..\..\..\third_party\tinyusb\ambiq_port\apollo4\dcd_apollo4.c
                                    0x00000000   Lc  Abs  File  De 
    318  ../../../../../../third_party/tinyusb/ambiq_port/apollo4/dcd_apollo4.c
                                    0x00000000   Lc  Abs  File  De 
    319  i.am_usb_isr               0x0001b0b8   Lc    1  Sect  De 
    320  i.dcd_edpt_clear_stall     0x0001b7c4   Lc    1  Sect  De 
    321  i.dcd_edpt_close_all       0x0001b7dc   Lc    1  Sect  De 
    322  i.dcd_edpt_open            0x0001b7e0   Lc    1  Sect  De 
    323  i.dcd_edpt_stall           0x0001b808   Lc    1  Sect  De 
    324  i.dcd_edpt_xfer            0x0001b820   Lc    1  Sect  De 
    325  i.dcd_init                 0x0001b9e4   Lc    1  Sect  De 
    326  i.dcd_int_disable          0x0001baa4   Lc    1  Sect  De 
    327  i.dcd_int_enable           0x0001bad0   Lc    1  Sect  De 
    328  i.dcd_set_address          0x0001bb24   Lc    1  Sect  De 
    329  i.dcd_usb_dev_evt_callback 0x0001bb60   Lc    1  Sect  De 
    330  dcd_usb_dev_evt_callback   0x0001bb61   Lc    1  Code  De   0x82
    331  i.dcd_usb_ep0_setup_callback
                                    0x0001bbe8   Lc    1  Sect  De 
    332  dcd_usb_ep0_setup_callback 0x0001bbe9   Lc    1  Code  De   0x10
    333  i.dcd_usb_ep_xfer_complete_callback
                                    0x0001bbf8   Lc    1  Sect  De 
    334  dcd_usb_ep_xfer_complete_callback
                                    0x0001bbf9   Lc    1  Code  De   0x60
    335  i.dcd_usb_setHFCR2         0x0001bc58   Lc    1  Sect  De 
    336  dcd_usb_setHFCR2           0x0001bc59   Lc    1  Code  De   0x10
    337  .data                      0x1000002c   Lc    2  Sect  De   0x4
    338  pUSBHandle                 0x1000002c   Lc    2  Data  De   0x4
    339  ..\..\..\..\..\..\third_party\tinyusb\source\src\tusb.c
                                    0x00000000   Lc  Abs  File  De 
    340  ../../../../../../third_party/tinyusb/source/src/tusb.c
                                    0x00000000   Lc  Abs  File  De 
    341  i.tu_desc_next             0x0001d1c8   Lc    1  Sect  De 
    342  tu_desc_next               0x0001d1c9   Lc    1  Code  De   0xa
    343  i.tu_edpt_bind_driver      0x0001d1e8   Lc    1  Sect  De 
    344  i.tu_edpt_validate         0x0001d264   Lc    1  Sect  De 
    345  i.tusb_init                0x0001db68   Lc    1  Sect  De 
    346  i.tusb_inited              0x0001dbb8   Lc    1  Sect  De 
    347  .constdata                 0x0001e450   Lc    1  Sect  De   0x47
    348  __func__                   0x0001e47c   Lc    1  Data  De   0xa
    349  __func__                   0x0001e486   Lc    1  Data  De   0x11
    350  .conststring               0x0001ea8c   Lc    1  Sect  De   0x131
    351  ..\..\..\..\..\..\third_party\tinyusb\source\src\device\usbd.c
                                    0x00000000   Lc  Abs  File  De 
    352  ../../../../../../third_party/tinyusb/source/src/device/usbd.c
                                    0x00000000   Lc  Abs  File  De 
    353  i._osal_q_lock             0x00018744   Lc    1  Sect  De 
    354  _osal_q_lock               0x00018745   Lc    1  Code  De   0x12
    355  i._osal_q_unlock           0x00018756   Lc    1  Sect  De 
    356  _osal_q_unlock             0x00018757   Lc    1  Code  De   0x12
    357  i.configuration_reset      0x0001b6a0   Lc    1  Sect  De 
    358  configuration_reset        0x0001b6a1   Lc    1  Code  De   0x44
    359  i.dcd_event_bus_reset      0x0001b84c   Lc    1  Sect  De 
    360  i.dcd_event_bus_signal     0x0001b874   Lc    1  Sect  De 
    361  i.dcd_event_handler        0x0001b898   Lc    1  Sect  De 
    362  i.dcd_event_setup_received 0x0001b980   Lc    1  Sect  De 
    363  i.dcd_event_xfer_complete  0x0001b9ac   Lc    1  Sect  De 
    364  i.get_driver               0x0001bef0   Lc    1  Sect  De 
    365  get_driver                 0x0001bef1   Lc    1  Code  De   0x38
    366  i.invoke_class_control     0x0001c4a4   Lc    1  Sect  De 
    367  invoke_class_control       0x0001c4a5   Lc    1  Code  De   0x22
    368  i.osal_queue_send          0x0001c85c   Lc    1  Sect  De 
    369  osal_queue_send            0x0001c85d   Lc    1  Code  De   0x4e
    370  i.process_control_request  0x0001c8f0   Lc    1  Sect  De 
    371  process_control_request    0x0001c8f1   Lc    1  Code  De   0x4b2
    372  i.process_get_descriptor   0x0001cda8   Lc    1  Sect  De 
    373  process_get_descriptor     0x0001cda9   Lc    1  Code  De   0x17c
    374  i.process_set_config       0x0001cfc0   Lc    1  Sect  De 
    375  process_set_config         0x0001cfc1   Lc    1  Code  De   0x1a8
    376  i.tu_desc_next             0x0001d1d2   Lc    1  Sect  De 
    377  tu_desc_next               0x0001d1d3   Lc    1  Code  De   0xa
    378  i.tu_edpt_dir              0x0001d254   Lc    1  Sect  De 
    379  tu_edpt_dir                0x0001d255   Lc    1  Code  De   0x8
    380  i.tu_edpt_number           0x0001d25c   Lc    1  Sect  De 
    381  tu_edpt_number             0x0001d25d   Lc    1  Code  De   0x8
    382  i.tud_init                 0x0001d6b0   Lc    1  Sect  De 
    383  i.tud_inited               0x0001d7a4   Lc    1  Sect  De 
    384  i.tud_task                 0x0001d7e0   Lc    1  Sect  De 
    385  i.usbd_driver_print_control_complete_name
                                    0x0001ddf4   Lc    1  Sect  De 
    386  i.usbd_edpt_claim          0x0001de44   Lc    1  Sect  De 
    387  i.usbd_edpt_clear_stall    0x0001dea4   Lc    1  Sect  De 
    388  i.usbd_edpt_open           0x0001df28   Lc    1  Sect  De 
    389  i.usbd_edpt_stall          0x0001dfbc   Lc    1  Sect  De 
    390  i.usbd_edpt_stalled        0x0001e03c   Lc    1  Sect  De 
    391  i.usbd_edpt_xfer           0x0001e068   Lc    1  Sect  De 
    392  i.usbd_open_edpt_pair      0x0001e180   Lc    1  Sect  De 
    393  i.usbd_reset               0x0001e248   Lc    1  Sect  De 
    394  usbd_reset                 0x0001e249   Lc    1  Code  De   0x10
    395  .bss                       0x10000160   Lc    3  Sect  De   0xf3
    396  _usbd_dev                  0x10000160   Lc    3  Data  De   0x33
    397  .constdata                 0x0001e498   Lc    1  Sect  De   0x176
    398  _usbd_driver               0x0001e498   Lc    1  Data  De   0x1c
    399  _usbd_event_str            0x0001e4b4   Lc    1  Data  De   0x24
    400  _tusb_std_request_str      0x0001e4d8   Lc    1  Data  De   0x34
    401  _tusb_speed_str            0x0001e50c   Lc    1  Data  De   0xc
    402  __func__                   0x0001e518   Lc    1  Data  De   0x10
    403  __func__                   0x0001e528   Lc    1  Data  De   0x9
    404  __func__                   0x0001e531   Lc    1  Data  De   0x9
    405  __func__                   0x0001e53a   Lc    1  Data  De   0x18
    406  __func__                   0x0001e552   Lc    1  Data  De   0x13
    407  __func__                   0x0001e565   Lc    1  Data  De   0x17
    408  __func__                   0x0001e5ac   Lc    1  Data  De   0x14
    409  __func__                   0x0001e5cc   Lc    1  Data  De   0xf
    410  __func__                   0x0001e5db   Lc    1  Data  De   0xf
    411  __func__                   0x0001e5ea   Lc    1  Data  De   0x14
    412  __func__                   0x0001e5fe   Lc    1  Data  De   0x10
    413  .conststring               0x0001ebc0   Lc    1  Sect  De   0x12c
    414  .data                      0x10000030   Lc    2  Sect  De   0x24
    415  _app_driver                0x10000030   Lc    2  Data  De   0x4
    416  _app_driver_count          0x10000034   Lc    2  Data  De   0x1
    417  _usbd_initialized          0x10000035   Lc    2  Data  De   0x1
    418  _usbd_q                    0x10000050   Lc    2  Data  De   0x4
    419  ..\..\..\..\..\..\third_party\tinyusb\source\src\device\usbd_control.c
                                    0x00000000   Lc  Abs  File  De 
    420  ../../../../../../third_party/tinyusb/source/src/device/usbd_control.c
                                    0x00000000   Lc  Abs  File  De 
    421  i._data_stage_xact         0x000186e4   Lc    1  Sect  De 
    422  _data_stage_xact           0x000186e5   Lc    1  Code  De   0x3c
    423  i._status_stage_xact       0x00018768   Lc    1  Sect  De 
    424  _status_stage_xact         0x00018769   Lc    1  Code  De   0x2a
    425  i.tud_control_status       0x0001d430   Lc    1  Sect  De 
    426  i.tud_control_xfer         0x0001d458   Lc    1  Sect  De 
    427  i.usbd_control_reset       0x0001dccc   Lc    1  Sect  De 
    428  i.usbd_control_set_complete_callback
                                    0x0001dcdc   Lc    1  Sect  De 
    429  i.usbd_control_set_request 0x0001dce8   Lc    1  Sect  De 
    430  i.usbd_control_xfer_cb     0x0001dd04   Lc    1  Sect  De 
    431  .bss                       0x10000254   Lc    3  Sect  De   0x14
    432  _ctrl_xfer                 0x10000254   Lc    3  Data  De   0x14
    433  .constdata                 0x0001e60e   Lc    1  Sect  De   0x26
    434  __func__                   0x0001e60e   Lc    1  Data  De   0x11
    435  __func__                   0x0001e61f   Lc    1  Data  De   0x15
    436  ..\..\..\..\..\..\third_party\tinyusb\source\src\class\hid\hid_device.c
                                    0x00000000   Lc  Abs  File  De 
    437  ../../../../../../third_party/tinyusb/source/src/class/hid/hid_device.c
                                    0x00000000   Lc  Abs  File  De 
    438  i.hidd_control_xfer_cb     0x0001bf50   Lc    1  Sect  De 
    439  i.hidd_init                0x0001c1ec   Lc    1  Sect  De 
    440  i.hidd_open                0x0001c1f8   Lc    1  Sect  De 
    441  i.hidd_reset               0x0001c39c   Lc    1  Sect  De 
    442  i.hidd_xfer_cb             0x0001c3b0   Lc    1  Sect  De 
    443  i.tu_desc_next             0x0001d1dc   Lc    1  Sect  De 
    444  tu_desc_next               0x0001d1dd   Lc    1  Code  De   0xa
    445  i.tud_hid_n_report         0x0001d604   Lc    1  Sect  De 
    446  .bss                       0x10000268   Lc    3  Sect  De   0x8c
    447  _hidd_itf                  0x10000268   Lc    3  Data  De   0x8c
    448  .constdata                 0x0001e634   Lc    1  Sect  De   0x7e
    449  __func__                   0x0001e634   Lc    1  Data  De   0xa
    450  __PRETTY_FUNCTION__        0x0001e63e   Lc    1  Data  De   0x52
    451  __func__                   0x0001e690   Lc    1  Data  De   0x15
    452  __func__                   0x0001e6a5   Lc    1  Data  De   0xd
    453  ..\..\..\..\..\..\utils\am_util_delay.c
                                    0x00000000   Lc  Abs  File  De 
    454  ../../../../../../utils/am_util_delay.c
                                    0x00000000   Lc  Abs  File  De 
    455  i.am_util_delay_ms         0x0001b0dc   Lc    1  Sect  De 
    456  ..\..\..\..\..\..\utils\am_util_id.c
                                    0x00000000   Lc  Abs  File  De 
    457  ../../../../../../utils/am_util_id.c
                                    0x00000000   Lc  Abs  File  De 
    458  i.am_util_id_device        0x0001b0f0   Lc    1  Sect  De 
    459  i.chiprev_set              0x0001b67e   Lc    1  Sect  De 
    460  chiprev_set                0x0001b67f   Lc    1  Code  De   0x22
    461  i.revmaj_get               0x0001d1a4   Lc    1  Sect  De 
    462  revmaj_get                 0x0001d1a5   Lc    1  Code  De   0xc
    463  .constdata                 0x0001e6b4   Lc    1  Sect  De   0x8c
    464  ui32I2sWordLength          0x0001e6b4   Lc    1  Data  De   0x18
    465  g_DeviceNameApollo4p       0x0001e6cc   Lc    1  Data  De   0xd
    466  g_DeviceNameApollo4p_blue  0x0001e6d9   Lc    1  Data  De   0x12
    467  g_PackageType              0x0001e6eb   Lc    1  Data  De   0x10
    468  g_TempRange                0x0001e6fb   Lc    1  Data  De   0x2c
    469  g_ui8VendorNameAmbq        0x0001e727   Lc    1  Data  De   0x5
    470  g_ui8VendorNameUnknown     0x0001e72c   Lc    1  Data  De   0x5
    471  g_ui8DeviceNameUnknown     0x0001e731   Lc    1  Data  De   0xf
    472  ../../../../../../utils/am_util_stdio.c
                                    0x00000000   Lc  Abs  File  De 
    473  i.am_util_stdio_printf     0x0001b1b8   Lc    1  Sect  De 
    474  i.am_util_stdio_printf_init
                                    0x0001b1f4   Lc    1  Sect  De 
    475  i.am_util_stdio_terminal_clear
                                    0x0001b200   Lc    1  Sect  De 
    476  i.am_util_stdio_vsprintf   0x0001b220   Lc    1  Sect  De 
    477  i.decstr_to_int            0x0001bc68   Lc    1  Sect  De 
    478  decstr_to_int              0x0001bc69   Lc    1  Code  De   0x42
    479  i.divu64_10                0x0001bcaa   Lc    1  Sect  De 
    480  divu64_10                  0x0001bcab   Lc    1  Code  De   0xcc
    481  i.ftoa                     0x0001bd78   Lc    1  Sect  De 
    482  ftoa                       0x0001bd79   Lc    1  Code  De   0x172
    483  i.ndigits_in_hex           0x0001c53c   Lc    1  Sect  De 
    484  ndigits_in_hex             0x0001c53d   Lc    1  Code  De   0x34
    485  i.ndigits_in_i64           0x0001c570   Lc    1  Sect  De 
    486  ndigits_in_i64             0x0001c571   Lc    1  Code  De   0x24
    487  i.ndigits_in_u64           0x0001c594   Lc    1  Sect  De 
    488  ndigits_in_u64             0x0001c595   Lc    1  Code  De   0x3a
    489  i.padbuffer                0x0001c8cc   Lc    1  Sect  De 
    490  padbuffer                  0x0001c8cd   Lc    1  Code  De   0x22
    491  i.simple_strlen            0x0001d1b0   Lc    1  Sect  De 
    492  simple_strlen              0x0001d1b1   Lc    1  Code  De   0x18
    493  i.uint64_to_hexstr         0x0001dbd0   Lc    1  Sect  De 
    494  uint64_to_hexstr           0x0001dbd1   Lc    1  Code  De   0x8a
    495  i.uint64_to_str            0x0001dc5a   Lc    1  Sect  De 
    496  uint64_to_str              0x0001dc5b   Lc    1  Code  De   0x70
    497  .bss                       0x100002f4   Lc    3  Sect  De   0x400
    498  g_prfbuf                   0x100002f4   Lc    3  Data  De   0x400
    499  .data                      0x10000054   Lc    2  Sect  De   0x5
    500  g_bTxtXlate                0x10000058   Lc    2  Data  De   0x1
    501  ../keil/startup_keil.s     0x00000000   Lc  Abs  File  De 
    502  STACK                      0x10001348   Lc    3  Sect  De   0x2b00
    503  StackMem                   0x10001348   Lc    3  Data  De 
    504  HEAP                       0x10001348   Lc    3  Sect  De 
    505  HeapMem                    0x10001348   Lc    3  Data  De 
    506  RESET                      0x00018000   Lc    1  Sect  De   0x234
    507  $v0                        0x00018200   Lc    1   --   De 
    508  am_cryptosec_isr           0x0001822f   Lc    1  Code  De 
    509  am_default_isr             0x0001822f   Lc    1  Code  De   0x2
    510  .text                      0x00018348   Lc    1  Sect  De   0x18
    511  $v0                        0x00018348   Lc    1   --   De 
    512  ..\am_bsp.c                0x00000000   Lc  Abs  File  De 
    513  ../am_bsp.c                0x00000000   Lc  Abs  File  De 
    514  i.am_bsp_debug_printf_enable
                                    0x00018880   Lc    1  Sect  De 
    515  i.am_bsp_external_vddusb0p9_switch
                                    0x000189f4   Lc    1  Sect  De 
    516  i.am_bsp_external_vddusb33_switch
                                    0x00018a14   Lc    1  Sect  De 
    517  i.am_bsp_uart_string_print 0x00018a34   Lc    1  Sect  De 
    518  .bss                       0x100006f4   Lc    3  Sect  De   0x800
    519  pui8UartTxBuffer           0x100006f4   Lc    3  Data  De   0x400
    520  pui8UartRxBuffer           0x10000af4   Lc    3  Data  De   0x400
    521  .constdata                 0x0001e740   Lc    1  Sect  De   0x2c
    522  g_sBspUartConfig           0x0001e740   Lc    1  Data  De   0xc
    523  .data                      0x1000005c   Lc    2  Sect  De   0x1a
    524  g_ePrintInterface          0x1000005c   Lc    2  Data  De   0x1
    525  g_sCOMUART                 0x10000060   Lc    2  Data  De   0x4
    526  ..\..\..\..\..\mcu\apollo4p\hal\mcu\am_hal_cachectrl.c
                                    0x00000000   Lc  Abs  File  De 
    527  ../../../../../mcu/apollo4p/hal/mcu/am_hal_cachectrl.c
                                    0x00000000   Lc  Abs  File  De 
    528  i.am_hal_cachectrl_config  0x00018a80   Lc    1  Sect  De 
    529  i.am_hal_cachectrl_enable  0x00018ac8   Lc    1  Sect  De 
    530  .constdata                 0x0001e76c   Lc    1  Sect  De   0x3
    531  ..\..\..\..\..\mcu\apollo4p\hal\mcu\am_hal_interrupt.c
                                    0x00000000   Lc  Abs  File  De 
    532  .emb_text                  0x00018330   Lc    1  Sect  De   0x16
    533  $v0                        0x00018330   Lc    1   --   De 
    534  ../../../../../mcu/apollo4p/hal/mcu/am_hal_interrupt.c
                                    0x00000000   Lc  Abs  File  De 
    535  ..\..\..\..\..\mcu\apollo4p\hal\mcu\am_hal_mcuctrl.c
                                    0x00000000   Lc  Abs  File  De 
    536  ../../../../../mcu/apollo4p/hal/mcu/am_hal_mcuctrl.c
                                    0x00000000   Lc  Abs  File  De 
    537  i.am_hal_mcuctrl_control   0x000190d8   Lc    1  Sect  De 
    538  i.am_hal_mcuctrl_info_get  0x000193b8   Lc    1  Sect  De 
    539  .bss                       0x10000ef4   Lc    3  Sect  De   0xc
    540  .constdata                 0x0001e770   Lc    1  Sect  De   0x18
    541  g_am_hal_mcuctrl_sku_mram_size
                                    0x0001e770   Lc    1  Data  De   0x8
    542  g_am_hal_mcuctrl_sku_ssram_size
                                    0x0001e778   Lc    1  Data  De   0x10
    543  .constdata                 0x0001e788   Lc    1  Sect  De   0x8
    544  .data                      0x10000078   Lc    2  Sect  De   0x8
    545  ..\..\..\..\..\mcu\apollo4p\hal\mcu\am_hal_utils.c
                                    0x00000000   Lc  Abs  File  De 
    546  ../../../../../mcu/apollo4p/hal/mcu/am_hal_utils.c
                                    0x00000000   Lc  Abs  File  De 
    547  i.am_hal_delay_us          0x00018eb0   Lc    1  Sect  De 
    548  i.am_hal_delay_us_status_change
                                    0x00018edc   Lc    1  Sect  De 
    549  i.am_hal_delay_us_status_check
                                    0x00018f34   Lc    1  Sect  De 
    550  ..\..\..\..\..\mcu\apollo4p\hal\am_hal_usb.c
                                    0x00000000   Lc  Abs  File  De 
    551  ../../../../../mcu/apollo4p/hal/am_hal_usb.c
                                    0x00000000   Lc  Abs  File  De 
    552  i.am_hal_usb_attach        0x00019de4   Lc    1  Sect  De 
    553  i.am_hal_usb_control       0x00019e14   Lc    1  Sect  De 
    554  i.am_hal_usb_ep0_handle_setup_req
                                    0x00019ee0   Lc    1  Sect  De 
    555  am_hal_usb_ep0_handle_setup_req
                                    0x00019ee1   Lc    1  Code  De   0x8c
    556  i.am_hal_usb_ep_clear_stall
                                    0x00019f6c   Lc    1  Sect  De 
    557  i.am_hal_usb_ep_init       0x0001a004   Lc    1  Sect  De 
    558  i.am_hal_usb_ep_stall      0x0001a1d0   Lc    1  Sect  De 
    559  i.am_hal_usb_ep_xfer       0x0001a260   Lc    1  Sect  De 
    560  i.am_hal_usb_fifo_loading  0x0001a450   Lc    1  Sect  De 
    561  am_hal_usb_fifo_loading    0x0001a451   Lc    1  Code  De   0x70
    562  i.am_hal_usb_initialize    0x0001a4c0   Lc    1  Sect  De 
    563  i.am_hal_usb_interrupt_service
                                    0x0001a504   Lc    1  Sect  De 
    564  i.am_hal_usb_intr_status_get
                                    0x0001ac68   Lc    1  Sect  De 
    565  i.am_hal_usb_intr_usb_enable
                                    0x0001acb0   Lc    1  Sect  De 
    566  i.am_hal_usb_power_control 0x0001acec   Lc    1  Sect  De 
    567  i.am_hal_usb_register_dev_evt_callback
                                    0x0001af4c   Lc    1  Sect  De 
    568  i.am_hal_usb_register_ep0_setup_received_callback
                                    0x0001af78   Lc    1  Sect  De 
    569  i.am_hal_usb_register_ep_xfer_complete_callback
                                    0x0001afa4   Lc    1  Sect  De 
    570  i.am_hal_usb_set_addr      0x0001afd0   Lc    1  Sect  De 
    571  i.am_hal_usb_set_dev_speed 0x0001b008   Lc    1  Sect  De 
    572  i.am_hal_usb_set_dev_state 0x0001b080   Lc    1  Sect  De 
    573  .bss                       0x10000f00   Lc    3  Sect  De   0x108
    574  g_am_hal_usb_states        0x10000f00   Lc    3  Data  De   0x108
    575  .data                      0x10000080   Lc    2  Sect  De   0x2c
    576  g_ui32XtalFreq             0x10000080   Lc    2  Data  De   0x4
    577  ui32SizeMapping            0x10000084   Lc    2  Data  De   0x28
    578  ..\am_bsp_pins.c           0x00000000   Lc  Abs  File  De 
    579  ../am_bsp_pins.c           0x00000000   Lc  Abs  File  De 
    580  .data                      0x100000ac   Lc    2  Sect  De   0x4
    581  .data                      0x100000b0   Lc    2  Sect  De   0x4
    582  .data                      0x100000b4   Lc    2  Sect  De   0x4
    583  .data                      0x100000b8   Lc    2  Sect  De   0x4
    584  .data                      0x100000bc   Lc    2  Sect  De   0x4
    585  ..\..\..\..\..\mcu\apollo4p\hal\mcu\am_hal_bootrom_helper.c
                                    0x00000000   Lc  Abs  File  De 
    586  ../../../../../mcu/apollo4p/hal/mcu/am_hal_bootrom_helper.c
                                    0x00000000   Lc  Abs  File  De 
    587  .constdata                 0x0001e790   Lc    1  Sect  De   0x28
    588  ..\..\..\..\..\mcu\apollo4p\hal\mcu\am_hal_clkgen.c
                                    0x00000000   Lc  Abs  File  De 
    589  ../../../../../mcu/apollo4p/hal/mcu/am_hal_clkgen.c
                                    0x00000000   Lc  Abs  File  De 
    590  i.am_hal_clkgen_control    0x00018ae0   Lc    1  Sect  De 
    591  ..\..\..\..\..\mcu\apollo4p\hal\mcu\am_hal_itm.c
                                    0x00000000   Lc  Abs  File  De 
    592  ../../../../../mcu/apollo4p/hal/mcu/am_hal_itm.c
                                    0x00000000   Lc  Abs  File  De 
    593  i.am_hal_itm_enable        0x00019060   Lc    1  Sect  De 
    594  i.am_hal_itm_print         0x000190a8   Lc    1  Sect  De 
    595  ..\..\..\..\..\mcu\apollo4p\hal\mcu\am_hal_rtc.c
                                    0x00000000   Lc  Abs  File  De 
    596  ../../../../../mcu/apollo4p/hal/mcu/am_hal_rtc.c
                                    0x00000000   Lc  Abs  File  De 
    597  ..\..\..\..\..\mcu\apollo4p\hal\mcu\am_hal_tpiu.c
                                    0x00000000   Lc  Abs  File  De 
    598  ../../../../../mcu/apollo4p/hal/mcu/am_hal_tpiu.c
                                    0x00000000   Lc  Abs  File  De 
    599  i.am_hal_tpiu_enable       0x00019788   Lc    1  Sect  De 
    600  ..\..\..\..\..\mcu\apollo4p\hal\mcu\am_hal_uart.c
                                    0x00000000   Lc  Abs  File  De 
    601  ../../../../../mcu/apollo4p/hal/mcu/am_hal_uart.c
                                    0x00000000   Lc  Abs  File  De 
    602  i.am_hal_uart_buffer_configure
                                    0x000197f4   Lc    1  Sect  De 
    603  i.am_hal_uart_configure    0x00019868   Lc    1  Sect  De 
    604  i.am_hal_uart_initialize   0x00019a00   Lc    1  Sect  De 
    605  i.am_hal_uart_power_control
                                    0x00019a80   Lc    1  Sect  De 
    606  i.am_hal_uart_transfer     0x00019b68   Lc    1  Sect  De 
    607  i.nonblocking_read_sm      0x0001c5ce   Lc    1  Sect  De 
    608  nonblocking_read_sm        0x0001c5cf   Lc    1  Code  De   0x134
    609  i.nonblocking_write_sm     0x0001c702   Lc    1  Sect  De 
    610  nonblocking_write_sm       0x0001c703   Lc    1  Code  De   0x15a
    611  .bss                       0x10001008   Lc    3  Sect  De   0x2e0
    612  ..\..\..\..\..\mcu\apollo4p\hal\am_hal_dcu.c
                                    0x00000000   Lc  Abs  File  De 
    613  ../../../../../mcu/apollo4p/hal/am_hal_dcu.c
                                    0x00000000   Lc  Abs  File  De 
    614  i.am_hal_dcu_get           0x00018d3c   Lc    1  Sect  De 
    615  i.am_hal_dcu_update        0x00018dcc   Lc    1  Sect  De 
    616  i.copy_words               0x0001b6ec   Lc    1  Sect  De 
    617  copy_words                 0x0001b6ed   Lc    1  Code  De   0x28
    618  .data                      0x100000c0   Lc    2  Sect  De   0x20
    619  ..\..\..\..\..\mcu\apollo4p\hal\am_hal_gpio.c
                                    0x00000000   Lc  Abs  File  De 
    620  ../../../../../mcu/apollo4p/hal/am_hal_gpio.c
                                    0x00000000   Lc  Abs  File  De 
    621  i.am_hal_gpio_pinconfig    0x00018f98   Lc    1  Sect  De 
    622  i.am_hal_gpio_state_write  0x00018fec   Lc    1  Sect  De 
    623  .constdata                 0x0001e7b8   Lc    1  Sect  De   0x10
    624  g_ui32DSpintbl             0x0001e7b8   Lc    1  Data  De   0x10
    625  ..\..\..\..\..\mcu\apollo4p\hal\am_hal_pwrctrl.c
                                    0x00000000   Lc  Abs  File  De 
    626  ../../../../../mcu/apollo4p/hal/am_hal_pwrctrl.c
                                    0x00000000   Lc  Abs  File  De 
    627  i.am_hal_pwrctrl_periph_disable
                                    0x000194e8   Lc    1  Sect  De 
    628  i.am_hal_pwrctrl_periph_enable
                                    0x00019614   Lc    1  Sect  De 
    629  i.crypto_boost_trims       0x0001b714   Lc    1  Sect  De 
    630  .constdata                 0x0001e7c8   Lc    1  Sect  De   0x2a4
    631  g_VDDC_trimstbl            0x0001e9f4   Lc    1  Data  De   0x9
    632  g_VDDF_trimstbl            0x0001e9fd   Lc    1  Data  De   0x21
    633  g_VDDFLP_trimstbl          0x0001ea1e   Lc    1  Data  De   0x21
    634  g_memlpldo_trimstbl        0x0001ea3f   Lc    1  Data  De   0x2d
    635  .data                      0x100000e0   Lc    2  Sect  De   0x40
    636  g_bOrigTrimsStored         0x100000e1   Lc    2  Data  De   0x1
    637  g_bBoostForCryptoApplied   0x100000e2   Lc    2  Data  De   0x1
    638  g_bTempcoValid             0x100000e3   Lc    2  Data  De   0x1
    639  g_ui16TempcoTEMP_code      0x100000e4   Lc    2  Data  De   0x2
    640  g_orig_ACTTRIMVDDF         0x100000f0   Lc    2  Data  De   0x4
    641  g_orig_MEMLDOACTIVETRIM    0x100000f4   Lc    2  Data  De   0x4
    642  g_orig_LPTRIMVDDF          0x100000f8   Lc    2  Data  De   0x4
    643  g_orig_MEMLPLDOTRIM        0x100000fc   Lc    2  Data  De   0x4
    644  g_orig_TVRGVREFTRIM        0x10000100   Lc    2  Data  De   0x4
    645  g_orig_CORELDOACTIVETRIM   0x10000104   Lc    2  Data  De   0x4
    646  g_ui32VDDFAdjustCodes      0x10000108   Lc    2  Data  De   0x4
    647  g_i32LatestVddfActTrim     0x1000010c   Lc    2  Data  De   0x4
    648  g_i32LatestLDOActTrim      0x10000110   Lc    2  Data  De   0x4
    649  g_TempcoADCHandle          0x10000114   Lc    2  Data  De   0x4
    650  g_ui32TempcoADCslot        0x10000118   Lc    2  Data  De   0x4
    651  g_pfTempMeasured           0x1000011c   Lc    2  Data  De   0x4
    652  ..\..\..\..\..\mcu\apollo4p\hal\mcu\am_hal_mram.c
                                    0x00000000   Lc  Abs  File  De 
    653  ../../../../../mcu/apollo4p/hal/mcu/am_hal_mram.c
                                    0x00000000   Lc  Abs  File  De 
    654  ..\..\..\..\..\mcu\apollo4p\hal\am_hal_adc.c
                                    0x00000000   Lc  Abs  File  De 
    655  ../../../../../mcu/apollo4p/hal/am_hal_adc.c
                                    0x00000000   Lc  Abs  File  De 
    656  ..\..\..\..\..\mcu\apollo4p\hal\am_hal_pin.c
                                    0x00000000   Lc  Abs  File  De 
    657  ../../../../../mcu/apollo4p/hal/am_hal_pin.c
                                    0x00000000   Lc  Abs  File  De 
    658  ..\..\..\..\..\mcu\apollo4p\hal\am_hal_queue.c
                                    0x00000000   Lc  Abs  File  De 
    659  ../../../../../mcu/apollo4p/hal/am_hal_queue.c
                                    0x00000000   Lc  Abs  File  De 
    660  i.am_hal_queue_init        0x000196c8   Lc    1  Sect  De 
    661  i.am_hal_queue_item_add    0x000196e0   Lc    1  Sect  De 
    662  i.am_hal_queue_item_get    0x00019736   Lc    1  Sect  De 
    663  dc.s                       0x00000000   Lc  Abs  File  De 
    664  ../clib/angel/rt.s         0x00000000   Lc  Abs  File  De 
    665  ../clib/longlong.s         0x00000000   Lc  Abs  File  De 
    666  .text                      0x00018360   Lc    1  Sect  De   0xee
    667  ../clib/longlong.s         0x00000000   Lc  Abs  File  De 
    668  .text                      0x0001844e   Lc    1  Sect  De   0x26
    669  ../clib/longlong.s         0x00000000   Lc  Abs  File  De 
    670  .text                      0x00018474   Lc    1  Sect  De   0x26
    671  ../clib/string.c           0x00000000   Lc  Abs  File  De 
    672  .text                      0x0001849a   Lc    1  Sect  De 
    673  ../clib/memcpset.s         0x00000000   Lc  Abs  File  De 
    674  .text                      0x000184d8   Lc    1  Sect  De   0x8a
    675  ../clib/memcpset.s         0x00000000   Lc  Abs  File  De 
    676  .text                      0x00018562   Lc    1  Sect  De   0x10
    677  ../clib/memcpset.s         0x00000000   Lc  Abs  File  De 
    678  .text                      0x00018572   Lc    1  Sect  De   0x44
    679  ../clib/memcpset.s         0x00000000   Lc  Abs  File  De 
    680  .text                      0x000185b6   Lc    1  Sect  De   0x4e
    681  ../clib/heapaux.c          0x00000000   Lc  Abs  File  De 
    682  .text                      0x00018604   Lc    1  Sect  De 
    683  ../clib/angel/startup.s    0x00000000   Lc  Abs  File  De 
    684  !!!main                    0x00018234   Lc    1  Sect  De   0x8
    685  ../clib/angel/handlers.s   0x00000000   Lc  Abs  File  De 
    686  !!handler_copy             0x000182cc   Lc    1  Sect  De   0x1a
    687  ../fplib/d2f.s             0x00000000   Lc  Abs  File  De 
    688  x$fpl$d2f                  0x0001e258   Lc    1  Sect  De   0x62
    689  $v0                        0x0001e258   Lc    1   --   De 
    690  ../clib/angel/kernel.s     0x00000000   Lc  Abs  File  De 
    691  .ARM.Collect$$rtentry$$00000000
                                    0x00018310   Lc    1  Sect  De 
    692  ../clib/angel/rt.s         0x00000000   Lc  Abs  File  De 
    693  ../clib/angel/rt.s         0x00000000   Lc  Abs  File  De 
    694  ../clib/angel/rt.s         0x00000000   Lc  Abs  File  De 
    695  ../clib/angel/rt.s         0x00000000   Lc  Abs  File  De 
    696  ../clib/locale.s           0x00000000   Lc  Abs  File  De 
    697  ../clib/memcpset.s         0x00000000   Lc  Abs  File  De 
    698  .text                      0x0001860a   Lc    1  Sect  De   0x64
    699  ../fplib/dnaninf.s         0x00000000   Lc  Abs  File  De 
    700  x$fpl$dnaninf              0x0001e2ba   Lc    1  Sect  De   0x9c
    701  $v0                        0x0001e2ba   Lc    1   --   De 
    702  ../fplib/fretinf.s         0x00000000   Lc  Abs  File  De 
    703  x$fpl$fretinf              0x0001e360   Lc    1  Sect  De   0xa
    704  $v0                        0x0001e360   Lc    1   --   De 
    705  ../fplib/usenofp.s         0x00000000   Lc  Abs  File  De 
    706  x$fpl$usenofp              0x0001e36a   Lc    1  Sect  De 
    707  ../clib/angel/sys.s        0x00000000   Lc  Abs  File  De 
    708  .text                      0x00018670   Lc    1  Sect  De   0x8
    709  .bss                       0x100012e8   Lc    3  Sect  De   0x60
    710  ../clib/angel/kernel.s     0x00000000   Lc  Abs  File  De 
    711  .ARM.Collect$$rtentry$$00000002
                                    0x00018310   Lc    1  Sect  De 
    712  .ARM.Collect$$rtentry$$00000009
                                    0x00018316   Lc    1  Sect  De 
    713  .ARM.Collect$$rtentry$$0000000A
                                    0x00018316   Lc    1  Sect  De   0x4
    714  .ARM.Collect$$rtentry$$0000000C
                                    0x0001831a   Lc    1  Sect  De 
    715  .ARM.Collect$$rtentry$$0000000D
                                    0x0001831a   Lc    1  Sect  De   0x8
    716  ../clib/angel/kernel.s     0x00000000   Lc  Abs  File  De 
    717  .ARM.Collect$$rtentry$$00000004
                                    0x00018310   Lc    1  Sect  De   0x6
    718  ../clib/angel/rt.s         0x00000000   Lc  Abs  File  De 
    719  ../clib/memcpset.s         0x00000000   Lc  Abs  File  De 
    720  ../clib/libinit.s          0x00000000   Lc  Abs  File  De 
    721  .ARM.Collect$$libinit$$00000001
                                    0x00018306   Lc    1  Sect  De   0x4
    722  .ARM.Collect$$libinit$$00000004
                                    0x0001830a   Lc    1  Sect  De 
    723  .ARM.Collect$$libinit$$0000000A
                                    0x0001830a   Lc    1  Sect  De 
    724  .ARM.Collect$$libinit$$0000000C
                                    0x0001830a   Lc    1  Sect  De 
    725  .ARM.Collect$$libinit$$0000000E
                                    0x0001830a   Lc    1  Sect  De 
    726  .ARM.Collect$$libinit$$00000011
                                    0x0001830a   Lc    1  Sect  De 
    727  .ARM.Collect$$libinit$$00000013
                                    0x0001830a   Lc    1  Sect  De 
    728  .ARM.Collect$$libinit$$00000015
                                    0x0001830a   Lc    1  Sect  De 
    729  .ARM.Collect$$libinit$$00000017
                                    0x0001830a   Lc    1  Sect  De 
    730  .ARM.Collect$$libinit$$00000019
                                    0x0001830a   Lc    1  Sect  De 
    731  .ARM.Collect$$libinit$$0000001B
                                    0x0001830a   Lc    1  Sect  De 
    732  .ARM.Collect$$libinit$$0000001D
                                    0x0001830a   Lc    1  Sect  De 
    733  .ARM.Collect$$libinit$$0000001F
                                    0x0001830a   Lc    1  Sect  De 
    734  .ARM.Collect$$libinit$$00000021
                                    0x0001830a   Lc    1  Sect  De 
    735  .ARM.Collect$$libinit$$00000023
                                    0x0001830a   Lc    1  Sect  De 
    736  .ARM.Collect$$libinit$$00000025
                                    0x0001830a   Lc    1  Sect  De 
    737  .ARM.Collect$$libinit$$0000002C
                                    0x0001830a   Lc    1  Sect  De 
    738  .ARM.Collect$$libinit$$0000002E
                                    0x0001830a   Lc    1  Sect  De 
    739  .ARM.Collect$$libinit$$00000030
                                    0x0001830a   Lc    1  Sect  De 
    740  .ARM.Collect$$libinit$$00000032
                                    0x0001830a   Lc    1  Sect  De 
    741  .ARM.Collect$$libinit$$00000033
                                    0x0001830a   Lc    1  Sect  De   0x2
    742  ../clib/angel/sys.s        0x00000000   Lc  Abs  File  De 
    743  .text                      0x00018678   Lc    1  Sect  De   0x4a
    744  ../clib/stdlib.c           0x00000000   Lc  Abs  File  De 
    745  .text                      0x000186c2   Lc    1  Sect  De 
    746  ../clib/signal.c           0x00000000   Lc  Abs  File  De 
    747  ../clib/signal.c           0x00000000   Lc  Abs  File  De 
    748  ../clib/angel/boardlib.s   0x00000000   Lc  Abs  File  De 
    749  ../clib/angel/boardlib.s   0x00000000   Lc  Abs  File  De 
    750  ../clib/angel/boardlib.s   0x00000000   Lc  Abs  File  De 
    751  ../clib/armsys.c           0x00000000   Lc  Abs  File  De 
    752  ../clib/armsys.c           0x00000000   Lc  Abs  File  De 
    753  ../clib/libinit.s          0x00000000   Lc  Abs  File  De 
    754  .ARM.Collect$$libinit$$00000000
                                    0x00018304   Lc    1  Sect  De   0x2
    755  ../fplib/fpinit.s          0x00000000   Lc  Abs  File  De 
    756  x$fpl$fpinit               0x0001e356   Lc    1  Sect  De   0xa
    757  $v0                        0x0001e356   Lc    1   --   De 
    758  ../clib/angel/kernel.s     0x00000000   Lc  Abs  File  De 
    759  .ARM.Collect$$rtexit$$00000000
                                    0x00018322   Lc    1  Sect  De   0x2
    760  ../clib/angel/rt.s         0x00000000   Lc  Abs  File  De 
    761  ../clib/signal.c           0x00000000   Lc  Abs  File  De 
    762  ../clib/signal.c           0x00000000   Lc  Abs  File  De 
    763  ../clib/armsys.c           0x00000000   Lc  Abs  File  De 
    764  ../clib/armsys.c           0x00000000   Lc  Abs  File  De 
    765  ../clib/angel/sysapp.c     0x00000000   Lc  Abs  File  De 
    766  ../clib/angel/sysapp.c     0x00000000   Lc  Abs  File  De 
    767  .text                      0x000186d4   Lc    1  Sect  De 
    768  ../clib/angel/kernel.s     0x00000000   Lc  Abs  File  De 
    769  .ARM.Collect$$rtexit$$00000002
                                    0x00018324   Lc    1  Sect  De 
    770  .ARM.Collect$$rtexit$$00000003
                                    0x00018324   Lc    1  Sect  De   0x4
    771  .ARM.Collect$$rtexit$$00000004
                                    0x00018328   Lc    1  Sect  De   0x6
    772  ../clib/heapalloc.c        0x00000000   Lc  Abs  File  De 
    773  ../clib/signal.c           0x00000000   Lc  Abs  File  De 
    774  ../clib/signal.c           0x00000000   Lc  Abs  File  De 
    775  ../clib/signal.c           0x00000000   Lc  Abs  File  De 
    776  ../clib/signal.c           0x00000000   Lc  Abs  File  De 
    777  ../clib/angel/sysapp.c     0x00000000   Lc  Abs  File  De 
    778  ../clib/angel/sys.s        0x00000000   Lc  Abs  File  De 
    779  .text                      0x000186e0   Lc    1  Sect  De   0x2
    780  ../clib/angel/sys.s        0x00000000   Lc  Abs  File  De 
    781  .text                      0x000186e2   Lc    1  Sect  De 
    782  ../clib/signal.c           0x00000000   Lc  Abs  File  De 
    783  ../clib/signal.s           0x00000000   Lc  Abs  File  De 
    784  ../clib/angel/boardlib.s   0x00000000   Lc  Abs  File  De 
    785  ../clib/libinit.s          0x00000000   Lc  Abs  File  De 
    786  .ARM.Collect$$libshutdown$$00000000
                                    0x0001830c   Lc    1  Sect  De   0x2
    787  ../clib/signal.c           0x00000000   Lc  Abs  File  De 
    788  ../clib/signal.c           0x00000000   Lc  Abs  File  De 
    789  ../clib/signal.c           0x00000000   Lc  Abs  File  De 
    790  ../clib/signal.c           0x00000000   Lc  Abs  File  De 
    791  ../clib/signal.c           0x00000000   Lc  Abs  File  De 
    792  ../clib/signal.c           0x00000000   Lc  Abs  File  De 
    793  ../clib/signal.c           0x00000000   Lc  Abs  File  De 
    794  ../clib/libinit.s          0x00000000   Lc  Abs  File  De 
    795  .ARM.Collect$$libshutdown$$00000002
                                    0x0001830e   Lc    1  Sect  De 
    796  .ARM.Collect$$libshutdown$$00000004
                                    0x0001830e   Lc    1  Sect  De 
    797  .ARM.Collect$$libshutdown$$00000007
                                    0x0001830e   Lc    1  Sect  De 
    798  .ARM.Collect$$libshutdown$$0000000A
                                    0x0001830e   Lc    1  Sect  De 
    799  .ARM.Collect$$libshutdown$$0000000C
                                    0x0001830e   Lc    1  Sect  De 
    800  .ARM.Collect$$libshutdown$$0000000F
                                    0x0001830e   Lc    1  Sect  De 
    801  .ARM.Collect$$libshutdown$$00000010
                                    0x0001830e   Lc    1  Sect  De   0x2
    802  ../clib/angel/dczerorl2.s  0x00000000   Lc  Abs  File  De 
    803  !!dczerorl2                0x00018270   Lc    1  Sect  De   0x5a
    804  ../clib/angel/scatter.s    0x00000000   Lc  Abs  File  De 
    805  !!!scatter                 0x0001823c   Lc    1  Sect  De   0x34
    806  ../clib/angel/handlers.s   0x00000000   Lc  Abs  File  De 
    807  !!handler_zi               0x000182e8   Lc    1  Sect  De   0x1c
    808  BuildAttributes$$THM_ISAv4$E$P$D$K$B$S$7EM$VFPi3$EXTD16$VFPS$VFMA$PE$A:L22UL41UL21$X:L11$S22US41US21$IEEE1$IW$USESV6$~STKCKD$USESV7$~SHL$OTIME$ROPI$EBA8$UX$STANDARDLIB$REQ8$PRES8$EABIv2
                                    0x00000000   Gb  Abs   --   Hi 
    809  __ARM_use_no_argv          0x00000000   Gb  Abs   --   Hi 
    810  __Vectors                  0x00018000   Gb    1  Data  Hi 
    811  __Patchable                0x00018190   Gb    1  Data  Hi 
    812  Reset_Handler              0x00018201   Wk    1  Code  Hi   0x1c
    813  HardFault_Handler          0x0001821d   Wk    1  Code  Hi   0x2
    814  NMI_Handler                0x0001821f   Wk    1  Code  Hi   0x2
    815  MemManage_Handler          0x00018221   Wk    1  Code  Hi   0x2
    816  BusFault_Handler           0x00018223   Wk    1  Code  Hi   0x2
    817  UsageFault_Handler         0x00018225   Wk    1  Code  Hi   0x2
    818  SVC_Handler                0x00018227   Wk    1  Code  Hi   0x2
    819  DebugMon_Handler           0x00018229   Wk    1  Code  Hi   0x2
    820  PendSV_Handler             0x0001822b   Wk    1  Code  Hi   0x2
    821  SysTick_Handler            0x0001822d   Wk    1  Code  Hi   0x2
    822  am_adc_isr                 0x0001822f   Wk    1  Code  Hi 
    823  am_audadc0_isr             0x0001822f   Wk    1  Code  Hi 
    824  am_brownout_isr            0x0001822f   Wk    1  Code  Hi 
    825  am_cachecpu_isr            0x0001822f   Wk    1  Code  Hi 
    826  am_clkgen_isr              0x0001822f   Wk    1  Code  Hi 
    827  am_ctimer_isr              0x0001822f   Wk    1  Code  Hi 
    828  am_disp_isr                0x0001822f   Wk    1  Code  Hi 
    829  am_dsi_isr                 0x0001822f   Wk    1  Code  Hi 
    830  am_dspi2s0_isr             0x0001822f   Wk    1  Code  Hi 
    831  am_dspi2s1_isr             0x0001822f   Wk    1  Code  Hi 
    832  am_dspi2s2_isr             0x0001822f   Wk    1  Code  Hi 
    833  am_dspi2s3_isr             0x0001822f   Wk    1  Code  Hi 
    834  am_gpio0_001f_isr          0x0001822f   Wk    1  Code  Hi 
    835  am_gpio0_203f_isr          0x0001822f   Wk    1  Code  Hi 
    836  am_gpio0_405f_isr          0x0001822f   Wk    1  Code  Hi 
    837  am_gpio0_607f_isr          0x0001822f   Wk    1  Code  Hi 
    838  am_gpio1_001f_isr          0x0001822f   Wk    1  Code  Hi 
    839  am_gpio1_203f_isr          0x0001822f   Wk    1  Code  Hi 
    840  am_gpio1_405f_isr          0x0001822f   Wk    1  Code  Hi 
    841  am_gpio1_607f_isr          0x0001822f   Wk    1  Code  Hi 
    842  am_gpu_isr                 0x0001822f   Wk    1  Code  Hi 
    843  am_iomaster0_isr           0x0001822f   Wk    1  Code  Hi 
    844  am_iomaster1_isr           0x0001822f   Wk    1  Code  Hi 
    845  am_iomaster2_isr           0x0001822f   Wk    1  Code  Hi 
    846  am_iomaster3_isr           0x0001822f   Wk    1  Code  Hi 
    847  am_iomaster4_isr           0x0001822f   Wk    1  Code  Hi 
    848  am_iomaster5_isr           0x0001822f   Wk    1  Code  Hi 
    849  am_iomaster6_isr           0x0001822f   Wk    1  Code  Hi 
    850  am_iomaster7_isr           0x0001822f   Wk    1  Code  Hi 
    851  am_ioslave_acc_isr         0x0001822f   Wk    1  Code  Hi 
    852  am_ioslave_ios_isr         0x0001822f   Wk    1  Code  Hi 
    853  am_mspi0_isr               0x0001822f   Wk    1  Code  Hi 
    854  am_mspi1_isr               0x0001822f   Wk    1  Code  Hi 
    855  am_mspi2_isr               0x0001822f   Wk    1  Code  Hi 
    856  am_pdm0_isr                0x0001822f   Wk    1  Code  Hi 
    857  am_pdm1_isr                0x0001822f   Wk    1  Code  Hi 
    858  am_pdm2_isr                0x0001822f   Wk    1  Code  Hi 
    859  am_pdm3_isr                0x0001822f   Wk    1  Code  Hi 
    860  am_rtc_isr                 0x0001822f   Wk    1  Code  Hi 
    861  am_sdio_isr                0x0001822f   Wk    1  Code  Hi 
    862  am_stimer_cmpr0_isr        0x0001822f   Wk    1  Code  Hi 
    863  am_stimer_cmpr1_isr        0x0001822f   Wk    1  Code  Hi 
    864  am_stimer_cmpr2_isr        0x0001822f   Wk    1  Code  Hi 
    865  am_stimer_cmpr3_isr        0x0001822f   Wk    1  Code  Hi 
    866  am_stimer_cmpr4_isr        0x0001822f   Wk    1  Code  Hi 
    867  am_stimer_cmpr5_isr        0x0001822f   Wk    1  Code  Hi 
    868  am_stimer_cmpr6_isr        0x0001822f   Wk    1  Code  Hi 
    869  am_stimer_cmpr7_isr        0x0001822f   Wk    1  Code  Hi 
    870  am_stimerof_isr            0x0001822f   Wk    1  Code  Hi 
    871  am_timer00_isr             0x0001822f   Wk    1  Code  Hi 
    872  am_timer01_isr             0x0001822f   Wk    1  Code  Hi 
    873  am_timer02_isr             0x0001822f   Wk    1  Code  Hi 
    874  am_timer03_isr             0x0001822f   Wk    1  Code  Hi 
    875  am_timer04_isr             0x0001822f   Wk    1  Code  Hi 
    876  am_timer05_isr             0x0001822f   Wk    1  Code  Hi 
    877  am_timer06_isr             0x0001822f   Wk    1  Code  Hi 
    878  am_timer07_isr             0x0001822f   Wk    1  Code  Hi 
    879  am_timer08_isr             0x0001822f   Wk    1  Code  Hi 
    880  am_timer09_isr             0x0001822f   Wk    1  Code  Hi 
    881  am_timer10_isr             0x0001822f   Wk    1  Code  Hi 
    882  am_timer11_isr             0x0001822f   Wk    1  Code  Hi 
    883  am_timer12_isr             0x0001822f   Wk    1  Code  Hi 
    884  am_timer13_isr             0x0001822f   Wk    1  Code  Hi 
    885  am_timer14_isr             0x0001822f   Wk    1  Code  Hi 
    886  am_timer15_isr             0x0001822f   Wk    1  Code  Hi 
    887  am_uart1_isr               0x0001822f   Wk    1  Code  Hi 
    888  am_uart2_isr               0x0001822f   Wk    1  Code  Hi 
    889  am_uart3_isr               0x0001822f   Wk    1  Code  Hi 
    890  am_uart_isr                0x0001822f   Wk    1  Code  Hi 
    891  am_vcomp_isr               0x0001822f   Wk    1  Code  Hi 
    892  am_watchdog_isr            0x0001822f   Wk    1  Code  Hi 
    893  __main                     0x00018235   Gb    1  Code  Hi   0x8
    894  __scatterload              0x0001823d   Gb    1  Code  Hi 
    895  __scatterload_rt2          0x0001823d   Gb    1  Code  Hi   0x2c
    896  __scatterload_rt2_thumb_only
                                    0x0001823d   Gb    1  Code  Hi 
    897  __scatterload_null         0x0001824b   Gb    1  Code  Hi 
    898  __decompress               0x00018271   Gb    1  Code  Hi   0x5a
    899  __decompress1              0x00018271   Gb    1  Code  Hi 
    900  __scatterload_copy         0x000182cd   Gb    1  Code  Hi   0x1a
    901  __scatterload_zeroinit     0x000182e9   Gb    1  Code  Hi   0x1c
    902  __rt_lib_init              0x00018305   Gb    1  Code  De 
    903  __rt_lib_init_fp_1         0x00018307   Gb    1  Code  Hi 
    904  __rt_lib_init_alloca_1     0x0001830b   Gb    1  Code  Hi 
    905  __rt_lib_init_argv_1       0x0001830b   Gb    1  Code  Hi 
    906  __rt_lib_init_atexit_1     0x0001830b   Gb    1  Code  Hi 
    907  __rt_lib_init_clock_1      0x0001830b   Gb    1  Code  Hi 
    908  __rt_lib_init_cpp_1        0x0001830b   Gb    1  Code  Hi 
    909  __rt_lib_init_exceptions_1 0x0001830b   Gb    1  Code  Hi 
    910  __rt_lib_init_fp_trap_1    0x0001830b   Gb    1  Code  Hi 
    911  __rt_lib_init_getenv_1     0x0001830b   Gb    1  Code  Hi 
    912  __rt_lib_init_heap_1       0x0001830b   Gb    1  Code  Hi 
    913  __rt_lib_init_lc_collate_1 0x0001830b   Gb    1  Code  Hi 
    914  __rt_lib_init_lc_ctype_1   0x0001830b   Gb    1  Code  Hi 
    915  __rt_lib_init_lc_monetary_1
                                    0x0001830b   Gb    1  Code  Hi 
    916  __rt_lib_init_lc_numeric_1 0x0001830b   Gb    1  Code  Hi 
    917  __rt_lib_init_lc_time_1    0x0001830b   Gb    1  Code  Hi 
    918  __rt_lib_init_preinit_1    0x0001830b   Gb    1  Code  Hi 
    919  __rt_lib_init_rand_1       0x0001830b   Gb    1  Code  Hi 
    920  __rt_lib_init_return       0x0001830b   Gb    1  Code  Hi 
    921  __rt_lib_init_signal_1     0x0001830b   Gb    1  Code  Hi 
    922  __rt_lib_init_stdio_1      0x0001830b   Gb    1  Code  Hi 
    923  __rt_lib_init_user_alloc_1 0x0001830b   Gb    1  Code  Hi 
    924  __rt_lib_shutdown          0x0001830d   Gb    1  Code  De 
    925  __rt_lib_shutdown_cpp_1    0x0001830f   Gb    1  Code  Hi 
    926  __rt_lib_shutdown_fp_trap_1
                                    0x0001830f   Gb    1  Code  Hi 
    927  __rt_lib_shutdown_heap_1   0x0001830f   Gb    1  Code  Hi 
    928  __rt_lib_shutdown_return   0x0001830f   Gb    1  Code  Hi 
    929  __rt_lib_shutdown_signal_1 0x0001830f   Gb    1  Code  Hi 
    930  __rt_lib_shutdown_stdio_1  0x0001830f   Gb    1  Code  Hi 
    931  __rt_lib_shutdown_user_alloc_1
                                    0x0001830f   Gb    1  Code  Hi 
    932  __rt_entry                 0x00018311   Gb    1  Code  Hi 
    933  __rt_entry_presh_1         0x00018311   Gb    1  Code  Hi 
    934  __rt_entry_sh              0x00018311   Gb    1  Code  Hi 
    935  __rt_entry_li              0x00018317   Gb    1  Code  Hi 
    936  __rt_entry_postsh_1        0x00018317   Gb    1  Code  Hi 
    937  __rt_entry_main            0x0001831b   Gb    1  Code  Hi 
    938  __rt_entry_postli_1        0x0001831b   Gb    1  Code  Hi 
    939  __rt_exit                  0x00018323   Gb    1  Code  De 
    940  __rt_exit_ls               0x00018325   Gb    1  Code  Hi 
    941  __rt_exit_prels_1          0x00018325   Gb    1  Code  Hi 
    942  __rt_exit_exit             0x00018329   Gb    1  Code  Hi 
    943  am_hal_interrupt_master_enable
                                    0x00018331   Gb    1  Code  Hi   0x8
    944  am_hal_interrupt_master_disable
                                    0x00018339   Gb    1  Code  Hi   0x8
    945  am_hal_interrupt_master_set
                                    0x00018341   Gb    1  Code  Hi   0x6
    946  __user_initial_stackheap   0x00018349   Gb    1  Code  Hi   0xa
    947  __aeabi_uldivmod           0x00018361   Gb    1  Code  Hi 
    948  _ll_udiv                   0x00018361   Gb    1  Code  De   0xee
    949  __aeabi_llsl               0x0001844f   Gb    1  Code  Hi 
    950  _ll_shift_l                0x0001844f   Gb    1  Code  De   0x26
    951  __aeabi_llsr               0x00018475   Gb    1  Code  Hi 
    952  _ll_ushift_r               0x00018475   Gb    1  Code  De   0x26
    953  strlen                     0x0001849b   Gb    1  Code  Hi   0x3e
    954  __aeabi_memcpy             0x000184d9   Gb    1  Code  Hi 
    955  __rt_memcpy                0x000184d9   Gb    1  Code  De   0x8a
    956  _memcpy_lastbytes          0x0001853f   Gb    1  Code  De 
    957  __aeabi_memset             0x00018563   Gb    1  Code  Hi   0x10
    958  __aeabi_memclr             0x00018573   Gb    1  Code  Hi 
    959  __rt_memclr                0x00018573   Gb    1  Code  De   0x44
    960  _memset                    0x00018577   Gb    1  Code  De 
    961  __aeabi_memclr4            0x000185b7   Gb    1  Code  Hi 
    962  __aeabi_memclr8            0x000185b7   Gb    1  Code  De 
    963  __rt_memclr_w              0x000185b7   Gb    1  Code  De   0x4e
    964  _memset_w                  0x000185bb   Gb    1  Code  De 
    965  __use_two_region_memory    0x00018605   Gb    1  Code  Hi   0x2
    966  __rt_heap_escrow$2region   0x00018607   Gb    1  Code  De   0x2
    967  __rt_heap_expand$2region   0x00018609   Gb    1  Code  De   0x2
    968  __aeabi_memcpy4            0x0001860b   Gb    1  Code  De 
    969  __aeabi_memcpy8            0x0001860b   Gb    1  Code  De 
    970  __rt_memcpy_w              0x0001860b   Gb    1  Code  De   0x64
    971  _memcpy_lastbytes_aligned  0x00018653   Gb    1  Code  De 
    972  __user_libspace            0x00018671   Wk    1  Code  De   0x8
    973  __user_perproc_libspace    0x00018671   Wk    1  Code  De 
    974  __user_perthread_libspace  0x00018671   Wk    1  Code  De 
    975  __user_setup_stackheap     0x00018679   Gb    1  Code  De   0x4a
    976  exit                       0x000186c3   Gb    1  Code  De   0x12
    977  _sys_exit                  0x000186d5   Gb    1  Code  De   0x8
    978  __I$use$semihosting        0x000186e1   Gb    1  Code  Hi 
    979  __use_no_semihosting_swi   0x000186e1   Gb    1  Code  Hi   0x2
    980  __semihosting_library_function
                                    0x000186e3   Gb    1  Code  Hi 
    981  am_bsp_debug_printf_enable 0x00018881   Gb    1  Code  Hi   0x13e
    982  am_bsp_external_vddusb0p9_switch
                                    0x000189f5   Gb    1  Code  Hi   0x1c
    983  am_bsp_external_vddusb33_switch
                                    0x00018a15   Gb    1  Code  Hi   0x1c
    984  am_bsp_uart_string_print   0x00018a35   Gb    1  Code  Hi   0x42
    985  am_hal_cachectrl_config    0x00018a81   Gb    1  Code  Hi   0x48
    986  am_hal_cachectrl_enable    0x00018ac9   Gb    1  Code  Hi   0x18
    987  am_hal_clkgen_control      0x00018ae1   Gb    1  Code  Hi   0x250
    988  am_hal_dcu_get             0x00018d3d   Gb    1  Code  Hi   0x84
    989  am_hal_dcu_update          0x00018dcd   Gb    1  Code  Hi   0xd6
    990  am_hal_delay_us            0x00018eb1   Gb    1  Code  Hi   0x22
    991  am_hal_delay_us_status_change
                                    0x00018edd   Gb    1  Code  Hi   0x50
    992  am_hal_delay_us_status_check
                                    0x00018f35   Gb    1  Code  Hi   0x5c
    993  am_hal_gpio_pinconfig      0x00018f99   Gb    1  Code  Hi   0x4c
    994  am_hal_gpio_state_write    0x00018fed   Gb    1  Code  Hi   0x72
    995  am_hal_itm_enable          0x00019061   Gb    1  Code  Hi   0x2c
    996  am_hal_itm_print           0x000190a9   Gb    1  Code  Hi   0x30
    997  am_hal_mcuctrl_control     0x000190d9   Gb    1  Code  Hi   0x2ce
    998  am_hal_mcuctrl_info_get    0x000193b9   Gb    1  Code  Hi   0x10c
    999  am_hal_pwrctrl_periph_disable
                                    0x000194e9   Gb    1  Code  Hi   0x112
    1000  am_hal_pwrctrl_periph_enable
                                    0x00019615   Gb    1  Code  Hi   0xa6
    1001  am_hal_queue_init          0x000196c9   Gb    1  Code  Hi   0x18
    1002  am_hal_queue_item_add      0x000196e1   Gb    1  Code  Hi   0x56
    1003  am_hal_queue_item_get      0x00019737   Gb    1  Code  Hi   0x52
    1004  am_hal_tpiu_enable         0x00019789   Gb    1  Code  Hi   0x52
    1005  am_hal_uart_buffer_configure
                                    0x000197f5   Gb    1  Code  Hi   0x70
    1006  am_hal_uart_configure      0x00019869   Gb    1  Code  Hi   0x174
    1007  am_hal_uart_initialize     0x00019a01   Gb    1  Code  Hi   0x78
    1008  am_hal_uart_power_control  0x00019a81   Gb    1  Code  Hi   0xe2
    1009  am_hal_uart_transfer       0x00019b69   Gb    1  Code  Hi   0x272
    1010  am_hal_usb_attach          0x00019de5   Gb    1  Code  Hi   0x28
    1011  am_hal_usb_control         0x00019e15   Gb    1  Code  Hi   0xbe
    1012  am_hal_usb_ep_clear_stall  0x00019f6d   Gb    1  Code  Hi   0x90
    1013  am_hal_usb_ep_init         0x0001a005   Gb    1  Code  Hi   0x1be
    1014  am_hal_usb_ep_stall        0x0001a1d1   Gb    1  Code  Hi   0x88
    1015  am_hal_usb_ep_xfer         0x0001a261   Gb    1  Code  Hi   0x1e6
    1016  am_hal_usb_initialize      0x0001a4c1   Gb    1  Code  Hi   0x3a
    1017  am_hal_usb_interrupt_service
                                    0x0001a505   Gb    1  Code  Hi   0x760
    1018  am_hal_usb_intr_status_get 0x0001ac69   Gb    1  Code  Hi   0x3e
    1019  am_hal_usb_intr_usb_enable 0x0001acb1   Gb    1  Code  Hi   0x34
    1020  am_hal_usb_power_control   0x0001aced   Gb    1  Code  Hi   0x252
    1021  am_hal_usb_register_dev_evt_callback
                                    0x0001af4d   Gb    1  Code  Hi   0x28
    1022  am_hal_usb_register_ep0_setup_received_callback
                                    0x0001af79   Gb    1  Code  Hi   0x28
    1023  am_hal_usb_register_ep_xfer_complete_callback
                                    0x0001afa5   Gb    1  Code  Hi   0x28
    1024  am_hal_usb_set_addr        0x0001afd1   Gb    1  Code  Hi   0x2e
    1025  am_hal_usb_set_dev_speed   0x0001b009   Gb    1  Code  Hi   0x6a
    1026  am_hal_usb_set_dev_state   0x0001b081   Gb    1  Code  Hi   0x32
    1027  am_usb_isr                 0x0001b0b9   Gb    1  Code  Hi   0x1e
    1028  am_util_delay_ms           0x0001b0dd   Gb    1  Code  Hi   0x12
    1029  am_util_id_device          0x0001b0f1   Gb    1  Code  Hi   0xa6
    1030  am_util_stdio_printf       0x0001b1b9   Gb    1  Code  Hi   0x32
    1031  am_util_stdio_printf_init  0x0001b1f5   Gb    1  Code  Hi   0x6
    1032  am_util_stdio_terminal_clear
                                    0x0001b201   Gb    1  Code  Hi   0xa
    1033  am_util_stdio_vsprintf     0x0001b221   Gb    1  Code  Hi   0x3a4
    1034  board_init                 0x0001b5fd   Gb    1  Code  Hi   0x3a
    1035  board_led_write            0x0001b679   Gb    1  Code  Hi   0x2
    1036  board_millis               0x0001b67b   Gb    1  Code  Hi   0x4
    1037  crypto_boost_trims         0x0001b715   Gb    1  Code  Hi   0xa6
    1038  dcd_edpt_clear_stall       0x0001b7c5   Gb    1  Code  Hi   0x12
    1039  dcd_edpt_close_all         0x0001b7dd   Gb    1  Code  Hi   0x2
    1040  dcd_edpt_open              0x0001b7e1   Gb    1  Code  Hi   0x22
    1041  dcd_edpt_stall             0x0001b809   Gb    1  Code  Hi   0x12
    1042  dcd_edpt_xfer              0x0001b821   Gb    1  Code  Hi   0x26
    1043  dcd_event_bus_reset        0x0001b84d   Gb    1  Code  Hi   0x22
    1044  dcd_event_bus_signal       0x0001b875   Gb    1  Code  Hi   0x22
    1045  dcd_event_handler          0x0001b899   Gb    1  Code  Hi   0xdc
    1046  dcd_event_setup_received   0x0001b981   Gb    1  Code  Hi   0x26
    1047  dcd_event_xfer_complete    0x0001b9ad   Gb    1  Code  Hi   0x32
    1048  dcd_init                   0x0001b9e5   Gb    1  Code  Hi   0xa8
    1049  dcd_int_disable            0x0001baa5   Gb    1  Code  Hi   0x26
    1050  dcd_int_enable             0x0001bad1   Gb    1  Code  Hi   0x4c
    1051  dcd_set_address            0x0001bb25   Gb    1  Code  Hi   0x38
    1052  hidd_control_xfer_cb       0x0001bf51   Gb    1  Code  Hi   0x26e
    1053  hidd_init                  0x0001c1ed   Gb    1  Code  Hi   0xa
    1054  hidd_open                  0x0001c1f9   Gb    1  Code  Hi   0x166
    1055  hidd_reset                 0x0001c39d   Gb    1  Code  Hi   0xe
    1056  hidd_xfer_cb               0x0001c3b1   Gb    1  Code  Hi   0xcc
    1057  led_blinking_task          0x0001c4e1   Gb    1  Code  Hi   0x3c
    1058  main                       0x0001c529   Gb    1  Code  Hi   0x14
    1059  tu_edpt_bind_driver        0x0001d1e9   Gb    1  Code  Hi   0x48
    1060  tu_edpt_validate           0x0001d265   Gb    1  Code  Hi   0xfa
    1061  tu_fifo_clear              0x0001d3a1   Gb    1  Code  Hi   0x1e
    1062  tu_fifo_read               0x0001d3bf   Gb    1  Code  Hi   0x24
    1063  tu_fifo_write              0x0001d3e3   Gb    1  Code  Hi   0x4e
    1064  tud_control_status         0x0001d431   Gb    1  Code  Hi   0x24
    1065  tud_control_xfer           0x0001d459   Gb    1  Code  Hi   0xcc
    1066  tud_descriptor_configuration_cb
                                    0x0001d575   Gb    1  Code  Hi   0x6
    1067  tud_descriptor_device_cb   0x0001d581   Gb    1  Code  Hi   0x4
    1068  tud_descriptor_string_cb   0x0001d589   Gb    1  Code  Hi   0x5c
    1069  tud_hid_descriptor_report_cb
                                    0x0001d5ed   Gb    1  Code  Hi   0x6
    1070  tud_hid_get_report_cb      0x0001d5f9   Gb    1  Code  Hi   0xa
    1071  tud_hid_n_report           0x0001d605   Gb    1  Code  Hi   0x84
    1072  tud_hid_set_report_cb      0x0001d68d   Gb    1  Code  Hi   0x22
    1073  tud_init                   0x0001d6b1   Gb    1  Code  Hi   0x9e
    1074  tud_inited                 0x0001d7a5   Gb    1  Code  Hi   0x6
    1075  tud_mount_cb               0x0001d7b1   Wk    1  Code  Hi   0xa
    1076  tud_resume_cb              0x0001d7c1   Wk    1  Code  Hi   0xa
    1077  tud_suspend_cb             0x0001d7d1   Wk    1  Code  Hi   0xa
    1078  tud_task                   0x0001d7e1   Gb    1  Code  Hi   0x2a0
    1079  tud_umount_cb              0x0001db5d   Wk    1  Code  Hi   0x8
    1080  tusb_init                  0x0001db69   Gb    1  Code  Hi   0x30
    1081  tusb_inited                0x0001dbb9   Gb    1  Code  Hi   0x18
    1082  usbd_control_reset         0x0001dccd   Gb    1  Code  Hi   0xc
    1083  usbd_control_set_complete_callback
                                    0x0001dcdd   Gb    1  Code  Hi   0x6
    1084  usbd_control_set_request   0x0001dce9   Gb    1  Code  Hi   0x16
    1085  usbd_control_xfer_cb       0x0001dd05   Gb    1  Code  Hi   0xc6
    1086  usbd_driver_print_control_complete_name
                                    0x0001ddf5   Gb    1  Code  Hi   0x32
    1087  usbd_edpt_claim            0x0001de45   Gb    1  Code  Hi   0x5a
    1088  usbd_edpt_clear_stall      0x0001dea5   Gb    1  Code  Hi   0x62
    1089  usbd_edpt_open             0x0001df29   Gb    1  Code  Hi   0x6e
    1090  usbd_edpt_stall            0x0001dfbd   Gb    1  Code  Hi   0x66
    1091  usbd_edpt_stalled          0x0001e03d   Gb    1  Code  Hi   0x28
    1092  usbd_edpt_xfer             0x0001e069   Gb    1  Code  Hi   0xc4
    1093  usbd_open_edpt_pair        0x0001e181   Gb    1  Code  Hi   0xa8
    1094  __aeabi_d2f                0x0001e259   Gb    1  Code  Hi 
    1095  _d2f                       0x0001e259   Gb    1  Code  De   0x62
    1096  __fpl_dnaninf              0x0001e2bb   Gb    1  Code  De   0x9c
    1097  _fp_init                   0x0001e357   Gb    1  Code  De   0xa
    1098  __fplib_config_fpu_vfp     0x0001e35f   Gb    1  Code  De 
    1099  __fplib_config_pureend_doubles
                                    0x0001e35f   Gb    1  Code  De 
    1100  __fpl_fretinf              0x0001e361   Gb    1  Code  De   0xa
    1101  __I$use$fp                 0x0001e36a   Gb    1   --   De 
    1102  ui32MCUAllowed             0x0001e384   Gb    1  Data  Hi   0x14
    1103  ui32DSP0Allowed            0x0001e398   Gb    1  Data  Hi   0x14
    1104  ui32DSP1Allowed            0x0001e3ac   Gb    1  Data  Hi   0x14
    1105  ui32SharedAccess           0x0001e3c0   Gb    1  Data  Hi   0x14
    1106  sGlobalAccess              0x0001e3d4   Gb    1  Data  Hi   0x1c
    1107  desc_device                0x0001e3f2   Gb    1  Data  Hi   0x12
    1108  desc_hid_report            0x0001e404   Gb    1  Data  Hi   0x22
    1109  desc_configuration         0x0001e426   Gb    1  Data  Hi   0x29
    1110  tusb_strerr                0x0001e450   Gb    1  Data  Hi   0x2c
    1111  am_hal_cachectrl_defaults  0x0001e76c   Gb    1  Data  Hi   0x3
    1112  g_amHalMcuctrlArgDefault   0x0001e788   Gb    1  Data  Hi   0x8
    1113  g_am_hal_bootrom_helper    0x0001e790   Gb    1  Data  Hi   0x28
    1114  g_DefaultMcuMemCfg         0x0001e7c8   Gb    1  Data  Hi   0x6
    1115  g_DefaultSRAMCfg           0x0001e7ce   Gb    1  Data  Hi   0x6
    1116  am_hal_pwrctrl_peripheral_control
                                    0x0001e7d4   Gb    1  Data  Hi   0x220
    1117  Region$$Table$$Base        0x0001ecec   Gb    1   --   Hi 
    1118  Region$$Table$$Limit       0x0001ed1c   Gb    1   --   Hi 
    1119  pTUSB_WeakFcnPointers      0x10000004   Gb    2  Data  Hi   0x10
    1120  string_desc_arr            0x1000001c   Gb    2  Data  Hi   0x10
    1121  _usbd_qdef                 0x10000038   Gb    2  Data  Hi   0x18
    1122  g_pfnCharPrint             0x10000054   Gb    2  Data  Hi   0x4
    1123  g_sDispCfg                 0x10000064   Gb    2  Data  Hi   0x12
    1124  g_ui32xtalhscap2trim       0x10000078   Gb    2  Data  Hi   0x4
    1125  g_ui32xtalhscaptrim        0x1000007c   Gb    2  Data  Hi   0x4
    1126  g_AM_BSP_GPIO_COM_UART_TX  0x100000ac   Gb    2  Data  Hi   0x4
    1127  g_AM_BSP_GPIO_COM_UART_RX  0x100000b0   Gb    2  Data  Hi   0x4
    1128  g_AM_BSP_GPIO_VDDUSB33_SWITCH
                                    0x100000b4   Gb    2  Data  Hi   0x4
    1129  g_AM_BSP_GPIO_VDDUSB0P9_SWITCH
                                    0x100000b8   Gb    2  Data  Hi   0x4
    1130  g_AM_BSP_GPIO_ITM_SWO      0x100000bc   Gb    2  Data  Hi   0x4
    1131  gStartOff                  0x100000c0   Gb    2  Data  Hi   0x4
    1132  gpDcuEnable                0x100000c4   Gb    2  Data  Hi   0x4
    1133  gpDcuLock                  0x100000c8   Gb    2  Data  Hi   0x4
    1134  gDcuEnable                 0x100000d0   Gb    2  Data  Hi   0x8
    1135  gDcuDisable                0x100000d8   Gb    2  Data  Hi   0x8
    1136  g_eCurrPwrMode             0x100000e0   Gb    2  Data  Hi   0x1
    1137  g_ui32TrimVer              0x100000e8   Gb    2  Data  Hi   0x4
    1138  g_ui32origSimobuckVDDStrim 0x100000ec   Gb    2  Data  Hi   0x4
    1139  _usbd_qdef_buf             0x10000193   Gb    3  Data  Hi   0xc0
    1140  am_hal_xtal_users          0x10000ef4   Gb    3  Data  Hi   0xc
    1141  g_am_hal_uart_states       0x10001008   Gb    3  Data  Hi   0x2e0
    1142  __libspace_start           0x100012e8   Gb    3  Data  De   0x60
    1143  __temporary_stack_top$libspace
                                    0x10001348   Gb    3  Data  De 
    1144  psGlobalAccessPtr          0x10060000   Gb    4  Data  Hi   0x4
    1145  ui32MCUClaimed             0x10060004   Gb    4  Data  Hi   0x14
    1146  ui32DSP0Claimed            0x10060018   Gb    4  Data  Hi   0x14
    1147  ui32DSP1Claimed            0x1006002c   Gb    4  Data  Hi   0x14


** Section #13 '.strtab' (SHT_STRTAB)
    Size   : 16868 bytes

            #  Offset String
        ====================================

            1      1: $d
            2      4: $t
            3      7: $d.realdata
            4     19: ..\..\..\..\..\..\third_party\tinyusb\source\src\common\tusb_fifo.c
            5     87: ../../../../../../third_party/tinyusb/source/src/common/tusb_fifo.c
            6    155: i._tu_fifo_correct_read_pointer
            7    187: _tu_fifo_correct_read_pointer
            8    217: i._tu_fifo_count
            9    234: _tu_fifo_count
           10    249: i._tu_fifo_full
           11    265: _tu_fifo_full
           12    279: i._tu_fifo_peek
           13    295: _tu_fifo_peek
           14    309: i.advance_pointer
           15    327: advance_pointer
           16    343: i.backward_pointer
           17    362: backward_pointer
           18    379: i.get_relative_pointer
           19    402: get_relative_pointer
           20    423: i.tu_fifo_clear
           21    439: i.tu_fifo_read
           22    454: i.tu_fifo_write
           23    470: ..\src\am_resources.c
           24    492: ../src/am_resources.c
           25    514: .constdata
           26    525: ui32I2sWordLength
           27    543: __tagsym$$used
           28    558: RESOURCE_TABLE
           29    573: SHARED_RW
           30    583: ..\src\apollo4_board.c
           31    606: ../src/apollo4_board.c
           32    629: i.board_init
           33    642: i.board_led_write
           34    660: i.board_millis
           35    675: ..\src\tinyusb_hid_generic.c
           36    704: ../src/tinyusb_hid_generic.c
           37    733: i.led_blinking_task
           38    753: i.main
           39    760: i.tud_hid_get_report_cb
           40    784: i.tud_hid_set_report_cb
           41    808: i.tud_mount_cb
           42    823: i.tud_resume_cb
           43    839: i.tud_suspend_cb
           44    856: i.tud_umount_cb
           45    872: .data
           46    878: blink_interval_ms
           47    896: start_ms
           48    905: led_state
           49    915: ..\src\usb_descriptors.c
           50    940: ../src/usb_descriptors.c
           51    965: i.tud_descriptor_configuration_cb
           52    999: i.tud_descriptor_device_cb
           53   1026: i.tud_descriptor_string_cb
           54   1053: i.tud_hid_descriptor_report_cb
           55   1084: .bss
           56   1089: _desc_str
           57   1099: <Data1>
           58   1107: .conststring
           59   1120: ..\..\..\..\..\..\third_party\tinyusb\ambiq_port\apollo4\dcd_apollo4.c
           60   1191: ../../../../../../third_party/tinyusb/ambiq_port/apollo4/dcd_apollo4.c
           61   1262: i.am_usb_isr
           62   1275: i.dcd_edpt_clear_stall
           63   1298: i.dcd_edpt_close_all
           64   1319: i.dcd_edpt_open
           65   1335: i.dcd_edpt_stall
           66   1352: i.dcd_edpt_xfer
           67   1368: i.dcd_init
           68   1379: i.dcd_int_disable
           69   1397: i.dcd_int_enable
           70   1414: i.dcd_set_address
           71   1432: i.dcd_usb_dev_evt_callback
           72   1459: dcd_usb_dev_evt_callback
           73   1484: i.dcd_usb_ep0_setup_callback
           74   1513: dcd_usb_ep0_setup_callback
           75   1540: i.dcd_usb_ep_xfer_complete_callback
           76   1576: dcd_usb_ep_xfer_complete_callback
           77   1610: i.dcd_usb_setHFCR2
           78   1629: dcd_usb_setHFCR2
           79   1646: pUSBHandle
           80   1657: ..\..\..\..\..\..\third_party\tinyusb\source\src\tusb.c
           81   1713: ../../../../../../third_party/tinyusb/source/src/tusb.c
           82   1769: i.tu_desc_next
           83   1784: tu_desc_next
           84   1797: i.tu_edpt_bind_driver
           85   1819: i.tu_edpt_validate
           86   1838: i.tusb_init
           87   1850: i.tusb_inited
           88   1864: __func__
           89   1873: ..\..\..\..\..\..\third_party\tinyusb\source\src\device\usbd.c
           90   1936: ../../../../../../third_party/tinyusb/source/src/device/usbd.c
           91   1999: i._osal_q_lock
           92   2014: _osal_q_lock
           93   2027: i._osal_q_unlock
           94   2044: _osal_q_unlock
           95   2059: i.configuration_reset
           96   2081: configuration_reset
           97   2101: i.dcd_event_bus_reset
           98   2123: i.dcd_event_bus_signal
           99   2146: i.dcd_event_handler
          100   2166: i.dcd_event_setup_received
          101   2193: i.dcd_event_xfer_complete
          102   2219: i.get_driver
          103   2232: get_driver
          104   2243: i.invoke_class_control
          105   2266: invoke_class_control
          106   2287: i.osal_queue_send
          107   2305: osal_queue_send
          108   2321: i.process_control_request
          109   2347: process_control_request
          110   2371: i.process_get_descriptor
          111   2396: process_get_descriptor
          112   2419: i.process_set_config
          113   2440: process_set_config
          114   2459: i.tu_edpt_dir
          115   2473: tu_edpt_dir
          116   2485: i.tu_edpt_number
          117   2502: tu_edpt_number
          118   2517: i.tud_init
          119   2528: i.tud_inited
          120   2541: i.tud_task
          121   2552: i.usbd_driver_print_control_complete_name
          122   2594: i.usbd_edpt_claim
          123   2612: i.usbd_edpt_clear_stall
          124   2636: i.usbd_edpt_open
          125   2653: i.usbd_edpt_stall
          126   2671: i.usbd_edpt_stalled
          127   2691: i.usbd_edpt_xfer
          128   2708: i.usbd_open_edpt_pair
          129   2730: i.usbd_reset
          130   2743: usbd_reset
          131   2754: _usbd_dev
          132   2764: _usbd_driver
          133   2777: _usbd_event_str
          134   2793: _tusb_std_request_str
          135   2815: _tusb_speed_str
          136   2831: _app_driver
          137   2843: _app_driver_count
          138   2861: _usbd_initialized
          139   2879: _usbd_q
          140   2887: ..\..\..\..\..\..\third_party\tinyusb\source\src\device\usbd_control.c
          141   2958: ../../../../../../third_party/tinyusb/source/src/device/usbd_control.c
          142   3029: i._data_stage_xact
          143   3048: _data_stage_xact
          144   3065: i._status_stage_xact
          145   3086: _status_stage_xact
          146   3105: i.tud_control_status
          147   3126: i.tud_control_xfer
          148   3145: i.usbd_control_reset
          149   3166: i.usbd_control_set_complete_callback
          150   3203: i.usbd_control_set_request
          151   3230: i.usbd_control_xfer_cb
          152   3253: _ctrl_xfer
          153   3264: ..\..\..\..\..\..\third_party\tinyusb\source\src\class\hid\hid_device.c
          154   3336: ../../../../../../third_party/tinyusb/source/src/class/hid/hid_device.c
          155   3408: i.hidd_control_xfer_cb
          156   3431: i.hidd_init
          157   3443: i.hidd_open
          158   3455: i.hidd_reset
          159   3468: i.hidd_xfer_cb
          160   3483: i.tud_hid_n_report
          161   3502: _hidd_itf
          162   3512: __PRETTY_FUNCTION__
          163   3532: ..\..\..\..\..\..\utils\am_util_delay.c
          164   3572: ../../../../../../utils/am_util_delay.c
          165   3612: i.am_util_delay_ms
          166   3631: ..\..\..\..\..\..\utils\am_util_id.c
          167   3668: ../../../../../../utils/am_util_id.c
          168   3705: i.am_util_id_device
          169   3725: i.chiprev_set
          170   3739: chiprev_set
          171   3751: i.revmaj_get
          172   3764: revmaj_get
          173   3775: g_DeviceNameApollo4p
          174   3796: g_DeviceNameApollo4p_blue
          175   3822: g_PackageType
          176   3836: g_TempRange
          177   3848: g_ui8VendorNameAmbq
          178   3868: g_ui8VendorNameUnknown
          179   3891: g_ui8DeviceNameUnknown
          180   3914: ../../../../../../utils/am_util_stdio.c
          181   3954: i.am_util_stdio_printf
          182   3977: i.am_util_stdio_printf_init
          183   4005: i.am_util_stdio_terminal_clear
          184   4036: i.am_util_stdio_vsprintf
          185   4061: i.decstr_to_int
          186   4077: decstr_to_int
          187   4091: i.divu64_10
          188   4103: divu64_10
          189   4113: i.ftoa
          190   4120: ftoa
          191   4125: i.ndigits_in_hex
          192   4142: ndigits_in_hex
          193   4157: i.ndigits_in_i64
          194   4174: ndigits_in_i64
          195   4189: i.ndigits_in_u64
          196   4206: ndigits_in_u64
          197   4221: i.padbuffer
          198   4233: padbuffer
          199   4243: i.simple_strlen
          200   4259: simple_strlen
          201   4273: i.uint64_to_hexstr
          202   4292: uint64_to_hexstr
          203   4309: i.uint64_to_str
          204   4325: uint64_to_str
          205   4339: g_prfbuf
          206   4348: g_bTxtXlate
          207   4360: ../keil/startup_keil.s
          208   4383: STACK
          209   4389: StackMem
          210   4398: HEAP
          211   4403: HeapMem
          212   4411: RESET
          213   4417: $v0
          214   4421: am_cryptosec_isr
          215   4438: am_default_isr
          216   4453: .text
          217   4459: ..\am_bsp.c
          218   4471: ../am_bsp.c
          219   4483: i.am_bsp_debug_printf_enable
          220   4512: i.am_bsp_external_vddusb0p9_switch
          221   4547: i.am_bsp_external_vddusb33_switch
          222   4581: i.am_bsp_uart_string_print
          223   4608: pui8UartTxBuffer
          224   4625: pui8UartRxBuffer
          225   4642: g_sBspUartConfig
          226   4659: g_ePrintInterface
          227   4677: g_sCOMUART
          228   4688: ..\..\..\..\..\mcu\apollo4p\hal\mcu\am_hal_cachectrl.c
          229   4743: ../../../../../mcu/apollo4p/hal/mcu/am_hal_cachectrl.c
          230   4798: i.am_hal_cachectrl_config
          231   4824: i.am_hal_cachectrl_enable
          232   4850: ..\..\..\..\..\mcu\apollo4p\hal\mcu\am_hal_interrupt.c
          233   4905: .emb_text
          234   4915: ../../../../../mcu/apollo4p/hal/mcu/am_hal_interrupt.c
          235   4970: ..\..\..\..\..\mcu\apollo4p\hal\mcu\am_hal_mcuctrl.c
          236   5023: ../../../../../mcu/apollo4p/hal/mcu/am_hal_mcuctrl.c
          237   5076: i.am_hal_mcuctrl_control
          238   5101: i.am_hal_mcuctrl_info_get
          239   5127: g_am_hal_mcuctrl_sku_mram_size
          240   5158: g_am_hal_mcuctrl_sku_ssram_size
          241   5190: ..\..\..\..\..\mcu\apollo4p\hal\mcu\am_hal_utils.c
          242   5241: ../../../../../mcu/apollo4p/hal/mcu/am_hal_utils.c
          243   5292: i.am_hal_delay_us
          244   5310: i.am_hal_delay_us_status_change
          245   5342: i.am_hal_delay_us_status_check
          246   5373: ..\..\..\..\..\mcu\apollo4p\hal\am_hal_usb.c
          247   5418: ../../../../../mcu/apollo4p/hal/am_hal_usb.c
          248   5463: i.am_hal_usb_attach
          249   5483: i.am_hal_usb_control
          250   5504: i.am_hal_usb_ep0_handle_setup_req
          251   5538: am_hal_usb_ep0_handle_setup_req
          252   5570: i.am_hal_usb_ep_clear_stall
          253   5598: i.am_hal_usb_ep_init
          254   5619: i.am_hal_usb_ep_stall
          255   5641: i.am_hal_usb_ep_xfer
          256   5662: i.am_hal_usb_fifo_loading
          257   5688: am_hal_usb_fifo_loading
          258   5712: i.am_hal_usb_initialize
          259   5736: i.am_hal_usb_interrupt_service
          260   5767: i.am_hal_usb_intr_status_get
          261   5796: i.am_hal_usb_intr_usb_enable
          262   5825: i.am_hal_usb_power_control
          263   5852: i.am_hal_usb_register_dev_evt_callback
          264   5891: i.am_hal_usb_register_ep0_setup_received_callback
          265   5941: i.am_hal_usb_register_ep_xfer_complete_callback
          266   5989: i.am_hal_usb_set_addr
          267   6011: i.am_hal_usb_set_dev_speed
          268   6038: i.am_hal_usb_set_dev_state
          269   6065: g_am_hal_usb_states
          270   6085: g_ui32XtalFreq
          271   6100: ui32SizeMapping
          272   6116: ..\am_bsp_pins.c
          273   6133: ../am_bsp_pins.c
          274   6150: ..\..\..\..\..\mcu\apollo4p\hal\mcu\am_hal_bootrom_helper.c
          275   6210: ../../../../../mcu/apollo4p/hal/mcu/am_hal_bootrom_helper.c
          276   6270: ..\..\..\..\..\mcu\apollo4p\hal\mcu\am_hal_clkgen.c
          277   6322: ../../../../../mcu/apollo4p/hal/mcu/am_hal_clkgen.c
          278   6374: i.am_hal_clkgen_control
          279   6398: ..\..\..\..\..\mcu\apollo4p\hal\mcu\am_hal_itm.c
          280   6447: ../../../../../mcu/apollo4p/hal/mcu/am_hal_itm.c
          281   6496: i.am_hal_itm_enable
          282   6516: i.am_hal_itm_print
          283   6535: ..\..\..\..\..\mcu\apollo4p\hal\mcu\am_hal_rtc.c
          284   6584: ../../../../../mcu/apollo4p/hal/mcu/am_hal_rtc.c
          285   6633: ..\..\..\..\..\mcu\apollo4p\hal\mcu\am_hal_tpiu.c
          286   6683: ../../../../../mcu/apollo4p/hal/mcu/am_hal_tpiu.c
          287   6733: i.am_hal_tpiu_enable
          288   6754: ..\..\..\..\..\mcu\apollo4p\hal\mcu\am_hal_uart.c
          289   6804: ../../../../../mcu/apollo4p/hal/mcu/am_hal_uart.c
          290   6854: i.am_hal_uart_buffer_configure
          291   6885: i.am_hal_uart_configure
          292   6909: i.am_hal_uart_initialize
          293   6934: i.am_hal_uart_power_control
          294   6962: i.am_hal_uart_transfer
          295   6985: i.nonblocking_read_sm
          296   7007: nonblocking_read_sm
          297   7027: i.nonblocking_write_sm
          298   7050: nonblocking_write_sm
          299   7071: ..\..\..\..\..\mcu\apollo4p\hal\am_hal_dcu.c
          300   7116: ../../../../../mcu/apollo4p/hal/am_hal_dcu.c
          301   7161: i.am_hal_dcu_get
          302   7178: i.am_hal_dcu_update
          303   7198: i.copy_words
          304   7211: copy_words
          305   7222: ..\..\..\..\..\mcu\apollo4p\hal\am_hal_gpio.c
          306   7268: ../../../../../mcu/apollo4p/hal/am_hal_gpio.c
          307   7314: i.am_hal_gpio_pinconfig
          308   7338: i.am_hal_gpio_state_write
          309   7364: g_ui32DSpintbl
          310   7379: ..\..\..\..\..\mcu\apollo4p\hal\am_hal_pwrctrl.c
          311   7428: ../../../../../mcu/apollo4p/hal/am_hal_pwrctrl.c
          312   7477: i.am_hal_pwrctrl_periph_disable
          313   7509: i.am_hal_pwrctrl_periph_enable
          314   7540: i.crypto_boost_trims
          315   7561: g_VDDC_trimstbl
          316   7577: g_VDDF_trimstbl
          317   7593: g_VDDFLP_trimstbl
          318   7611: g_memlpldo_trimstbl
          319   7631: g_bOrigTrimsStored
          320   7650: g_bBoostForCryptoApplied
          321   7675: g_bTempcoValid
          322   7690: g_ui16TempcoTEMP_code
          323   7712: g_orig_ACTTRIMVDDF
          324   7731: g_orig_MEMLDOACTIVETRIM
          325   7755: g_orig_LPTRIMVDDF
          326   7773: g_orig_MEMLPLDOTRIM
          327   7793: g_orig_TVRGVREFTRIM
          328   7813: g_orig_CORELDOACTIVETRIM
          329   7838: g_ui32VDDFAdjustCodes
          330   7860: g_i32LatestVddfActTrim
          331   7883: g_i32LatestLDOActTrim
          332   7905: g_TempcoADCHandle
          333   7923: g_ui32TempcoADCslot
          334   7943: g_pfTempMeasured
          335   7960: ..\..\..\..\..\mcu\apollo4p\hal\mcu\am_hal_mram.c
          336   8010: ../../../../../mcu/apollo4p/hal/mcu/am_hal_mram.c
          337   8060: ..\..\..\..\..\mcu\apollo4p\hal\am_hal_adc.c
          338   8105: ../../../../../mcu/apollo4p/hal/am_hal_adc.c
          339   8150: ..\..\..\..\..\mcu\apollo4p\hal\am_hal_pin.c
          340   8195: ../../../../../mcu/apollo4p/hal/am_hal_pin.c
          341   8240: ..\..\..\..\..\mcu\apollo4p\hal\am_hal_queue.c
          342   8287: ../../../../../mcu/apollo4p/hal/am_hal_queue.c
          343   8334: i.am_hal_queue_init
          344   8354: i.am_hal_queue_item_add
          345   8378: i.am_hal_queue_item_get
          346   8402: dc.s
          347   8407: ../clib/angel/rt.s
          348   8426: ../clib/longlong.s
          349   8445: ../clib/string.c
          350   8462: ../clib/memcpset.s
          351   8481: ../clib/heapaux.c
          352   8499: ../clib/angel/startup.s
          353   8523: !!!main
          354   8531: ../clib/angel/handlers.s
          355   8556: !!handler_copy
          356   8571: ../fplib/d2f.s
          357   8586: x$fpl$d2f
          358   8596: ../clib/angel/kernel.s
          359   8619: .ARM.Collect$$rtentry$$00000000
          360   8651: ../clib/locale.s
          361   8668: ../fplib/dnaninf.s
          362   8687: x$fpl$dnaninf
          363   8701: ../fplib/fretinf.s
          364   8720: x$fpl$fretinf
          365   8734: ../fplib/usenofp.s
          366   8753: x$fpl$usenofp
          367   8767: ../clib/angel/sys.s
          368   8787: .ARM.Collect$$rtentry$$00000002
          369   8819: .ARM.Collect$$rtentry$$00000009
          370   8851: .ARM.Collect$$rtentry$$0000000A
          371   8883: .ARM.Collect$$rtentry$$0000000C
          372   8915: .ARM.Collect$$rtentry$$0000000D
          373   8947: .ARM.Collect$$rtentry$$00000004
          374   8979: ../clib/libinit.s
          375   8997: .ARM.Collect$$libinit$$00000001
          376   9029: .ARM.Collect$$libinit$$00000004
          377   9061: .ARM.Collect$$libinit$$0000000A
          378   9093: .ARM.Collect$$libinit$$0000000C
          379   9125: .ARM.Collect$$libinit$$0000000E
          380   9157: .ARM.Collect$$libinit$$00000011
          381   9189: .ARM.Collect$$libinit$$00000013
          382   9221: .ARM.Collect$$libinit$$00000015
          383   9253: .ARM.Collect$$libinit$$00000017
          384   9285: .ARM.Collect$$libinit$$00000019
          385   9317: .ARM.Collect$$libinit$$0000001B
          386   9349: .ARM.Collect$$libinit$$0000001D
          387   9381: .ARM.Collect$$libinit$$0000001F
          388   9413: .ARM.Collect$$libinit$$00000021
          389   9445: .ARM.Collect$$libinit$$00000023
          390   9477: .ARM.Collect$$libinit$$00000025
          391   9509: .ARM.Collect$$libinit$$0000002C
          392   9541: .ARM.Collect$$libinit$$0000002E
          393   9573: .ARM.Collect$$libinit$$00000030
          394   9605: .ARM.Collect$$libinit$$00000032
          395   9637: .ARM.Collect$$libinit$$00000033
          396   9669: ../clib/stdlib.c
          397   9686: ../clib/signal.c
          398   9703: ../clib/angel/boardlib.s
          399   9728: ../clib/armsys.c
          400   9745: .ARM.Collect$$libinit$$00000000
          401   9777: ../fplib/fpinit.s
          402   9795: x$fpl$fpinit
          403   9808: .ARM.Collect$$rtexit$$00000000
          404   9839: ../clib/angel/sysapp.c
          405   9862: .ARM.Collect$$rtexit$$00000002
          406   9893: .ARM.Collect$$rtexit$$00000003
          407   9924: .ARM.Collect$$rtexit$$00000004
          408   9955: ../clib/heapalloc.c
          409   9975: ../clib/signal.s
          410   9992: .ARM.Collect$$libshutdown$$00000000
          411  10028: .ARM.Collect$$libshutdown$$00000002
          412  10064: .ARM.Collect$$libshutdown$$00000004
          413  10100: .ARM.Collect$$libshutdown$$00000007
          414  10136: .ARM.Collect$$libshutdown$$0000000A
          415  10172: .ARM.Collect$$libshutdown$$0000000C
          416  10208: .ARM.Collect$$libshutdown$$0000000F
          417  10244: .ARM.Collect$$libshutdown$$00000010
          418  10280: ../clib/angel/dczerorl2.s
          419  10306: !!dczerorl2
          420  10318: ../clib/angel/scatter.s
          421  10342: !!!scatter
          422  10353: !!handler_zi
          423  10366: BuildAttributes$$THM_ISAv4$E$P$D$K$B$S$7EM$VFPi3$EXTD16$VFPS$VFMA$PE$A:L22UL41UL21$X:L11$S22US41US21$IEEE1$IW$USESV6$~STKCKD$USESV7$~SHL$OTIME$ROPI$EBA8$UX$STANDARDLIB$REQ8$PRES8$EABIv2
          424  10552: __ARM_use_no_argv
          425  10570: __Vectors
          426  10580: __Patchable
          427  10592: Reset_Handler
          428  10606: HardFault_Handler
          429  10624: NMI_Handler
          430  10636: MemManage_Handler
          431  10654: BusFault_Handler
          432  10671: UsageFault_Handler
          433  10690: SVC_Handler
          434  10702: DebugMon_Handler
          435  10719: PendSV_Handler
          436  10734: SysTick_Handler
          437  10750: am_adc_isr
          438  10761: am_audadc0_isr
          439  10776: am_brownout_isr
          440  10792: am_cachecpu_isr
          441  10808: am_clkgen_isr
          442  10822: am_ctimer_isr
          443  10836: am_disp_isr
          444  10848: am_dsi_isr
          445  10859: am_dspi2s0_isr
          446  10874: am_dspi2s1_isr
          447  10889: am_dspi2s2_isr
          448  10904: am_dspi2s3_isr
          449  10919: am_gpio0_001f_isr
          450  10937: am_gpio0_203f_isr
          451  10955: am_gpio0_405f_isr
          452  10973: am_gpio0_607f_isr
          453  10991: am_gpio1_001f_isr
          454  11009: am_gpio1_203f_isr
          455  11027: am_gpio1_405f_isr
          456  11045: am_gpio1_607f_isr
          457  11063: am_gpu_isr
          458  11074: am_iomaster0_isr
          459  11091: am_iomaster1_isr
          460  11108: am_iomaster2_isr
          461  11125: am_iomaster3_isr
          462  11142: am_iomaster4_isr
          463  11159: am_iomaster5_isr
          464  11176: am_iomaster6_isr
          465  11193: am_iomaster7_isr
          466  11210: am_ioslave_acc_isr
          467  11229: am_ioslave_ios_isr
          468  11248: am_mspi0_isr
          469  11261: am_mspi1_isr
          470  11274: am_mspi2_isr
          471  11287: am_pdm0_isr
          472  11299: am_pdm1_isr
          473  11311: am_pdm2_isr
          474  11323: am_pdm3_isr
          475  11335: am_rtc_isr
          476  11346: am_sdio_isr
          477  11358: am_stimer_cmpr0_isr
          478  11378: am_stimer_cmpr1_isr
          479  11398: am_stimer_cmpr2_isr
          480  11418: am_stimer_cmpr3_isr
          481  11438: am_stimer_cmpr4_isr
          482  11458: am_stimer_cmpr5_isr
          483  11478: am_stimer_cmpr6_isr
          484  11498: am_stimer_cmpr7_isr
          485  11518: am_stimerof_isr
          486  11534: am_timer00_isr
          487  11549: am_timer01_isr
          488  11564: am_timer02_isr
          489  11579: am_timer03_isr
          490  11594: am_timer04_isr
          491  11609: am_timer05_isr
          492  11624: am_timer06_isr
          493  11639: am_timer07_isr
          494  11654: am_timer08_isr
          495  11669: am_timer09_isr
          496  11684: am_timer10_isr
          497  11699: am_timer11_isr
          498  11714: am_timer12_isr
          499  11729: am_timer13_isr
          500  11744: am_timer14_isr
          501  11759: am_timer15_isr
          502  11774: am_uart1_isr
          503  11787: am_uart2_isr
          504  11800: am_uart3_isr
          505  11813: am_uart_isr
          506  11825: am_vcomp_isr
          507  11838: am_watchdog_isr
          508  11854: __main
          509  11861: __scatterload
          510  11875: __scatterload_rt2
          511  11893: __scatterload_rt2_thumb_only
          512  11922: __scatterload_null
          513  11941: __decompress
          514  11954: __decompress1
          515  11968: __scatterload_copy
          516  11987: __scatterload_zeroinit
          517  12010: __rt_lib_init
          518  12024: __rt_lib_init_fp_1
          519  12043: __rt_lib_init_alloca_1
          520  12066: __rt_lib_init_argv_1
          521  12087: __rt_lib_init_atexit_1
          522  12110: __rt_lib_init_clock_1
          523  12132: __rt_lib_init_cpp_1
          524  12152: __rt_lib_init_exceptions_1
          525  12179: __rt_lib_init_fp_trap_1
          526  12203: __rt_lib_init_getenv_1
          527  12226: __rt_lib_init_heap_1
          528  12247: __rt_lib_init_lc_collate_1
          529  12274: __rt_lib_init_lc_ctype_1
          530  12299: __rt_lib_init_lc_monetary_1
          531  12327: __rt_lib_init_lc_numeric_1
          532  12354: __rt_lib_init_lc_time_1
          533  12378: __rt_lib_init_preinit_1
          534  12402: __rt_lib_init_rand_1
          535  12423: __rt_lib_init_return
          536  12444: __rt_lib_init_signal_1
          537  12467: __rt_lib_init_stdio_1
          538  12489: __rt_lib_init_user_alloc_1
          539  12516: __rt_lib_shutdown
          540  12534: __rt_lib_shutdown_cpp_1
          541  12558: __rt_lib_shutdown_fp_trap_1
          542  12586: __rt_lib_shutdown_heap_1
          543  12611: __rt_lib_shutdown_return
          544  12636: __rt_lib_shutdown_signal_1
          545  12663: __rt_lib_shutdown_stdio_1
          546  12689: __rt_lib_shutdown_user_alloc_1
          547  12720: __rt_entry
          548  12731: __rt_entry_presh_1
          549  12750: __rt_entry_sh
          550  12764: __rt_entry_li
          551  12778: __rt_entry_postsh_1
          552  12798: __rt_entry_main
          553  12814: __rt_entry_postli_1
          554  12834: __rt_exit
          555  12844: __rt_exit_ls
          556  12857: __rt_exit_prels_1
          557  12875: __rt_exit_exit
          558  12890: am_hal_interrupt_master_enable
          559  12921: am_hal_interrupt_master_disable
          560  12953: am_hal_interrupt_master_set
          561  12981: __user_initial_stackheap
          562  13006: __aeabi_uldivmod
          563  13023: _ll_udiv
          564  13032: __aeabi_llsl
          565  13045: _ll_shift_l
          566  13057: __aeabi_llsr
          567  13070: _ll_ushift_r
          568  13083: strlen
          569  13090: __aeabi_memcpy
          570  13105: __rt_memcpy
          571  13117: _memcpy_lastbytes
          572  13135: __aeabi_memset
          573  13150: __aeabi_memclr
          574  13165: __rt_memclr
          575  13177: _memset
          576  13185: __aeabi_memclr4
          577  13201: __aeabi_memclr8
          578  13217: __rt_memclr_w
          579  13231: _memset_w
          580  13241: __use_two_region_memory
          581  13265: __rt_heap_escrow$2region
          582  13290: __rt_heap_expand$2region
          583  13315: __aeabi_memcpy4
          584  13331: __aeabi_memcpy8
          585  13347: __rt_memcpy_w
          586  13361: _memcpy_lastbytes_aligned
          587  13387: __user_libspace
          588  13403: __user_perproc_libspace
          589  13427: __user_perthread_libspace
          590  13453: __user_setup_stackheap
          591  13476: exit
          592  13481: _sys_exit
          593  13491: __I$use$semihosting
          594  13511: __use_no_semihosting_swi
          595  13536: __semihosting_library_function
          596  13567: am_bsp_debug_printf_enable
          597  13594: am_bsp_external_vddusb0p9_switch
          598  13627: am_bsp_external_vddusb33_switch
          599  13659: am_bsp_uart_string_print
          600  13684: am_hal_cachectrl_config
          601  13708: am_hal_cachectrl_enable
          602  13732: am_hal_clkgen_control
          603  13754: am_hal_dcu_get
          604  13769: am_hal_dcu_update
          605  13787: am_hal_delay_us
          606  13803: am_hal_delay_us_status_change
          607  13833: am_hal_delay_us_status_check
          608  13862: am_hal_gpio_pinconfig
          609  13884: am_hal_gpio_state_write
          610  13908: am_hal_itm_enable
          611  13926: am_hal_itm_print
          612  13943: am_hal_mcuctrl_control
          613  13966: am_hal_mcuctrl_info_get
          614  13990: am_hal_pwrctrl_periph_disable
          615  14020: am_hal_pwrctrl_periph_enable
          616  14049: am_hal_queue_init
          617  14067: am_hal_queue_item_add
          618  14089: am_hal_queue_item_get
          619  14111: am_hal_tpiu_enable
          620  14130: am_hal_uart_buffer_configure
          621  14159: am_hal_uart_configure
          622  14181: am_hal_uart_initialize
          623  14204: am_hal_uart_power_control
          624  14230: am_hal_uart_transfer
          625  14251: am_hal_usb_attach
          626  14269: am_hal_usb_control
          627  14288: am_hal_usb_ep_clear_stall
          628  14314: am_hal_usb_ep_init
          629  14333: am_hal_usb_ep_stall
          630  14353: am_hal_usb_ep_xfer
          631  14372: am_hal_usb_initialize
          632  14394: am_hal_usb_interrupt_service
          633  14423: am_hal_usb_intr_status_get
          634  14450: am_hal_usb_intr_usb_enable
          635  14477: am_hal_usb_power_control
          636  14502: am_hal_usb_register_dev_evt_callback
          637  14539: am_hal_usb_register_ep0_setup_received_callback
          638  14587: am_hal_usb_register_ep_xfer_complete_callback
          639  14633: am_hal_usb_set_addr
          640  14653: am_hal_usb_set_dev_speed
          641  14678: am_hal_usb_set_dev_state
          642  14703: am_usb_isr
          643  14714: am_util_delay_ms
          644  14731: am_util_id_device
          645  14749: am_util_stdio_printf
          646  14770: am_util_stdio_printf_init
          647  14796: am_util_stdio_terminal_clear
          648  14825: am_util_stdio_vsprintf
          649  14848: board_init
          650  14859: board_led_write
          651  14875: board_millis
          652  14888: crypto_boost_trims
          653  14907: dcd_edpt_clear_stall
          654  14928: dcd_edpt_close_all
          655  14947: dcd_edpt_open
          656  14961: dcd_edpt_stall
          657  14976: dcd_edpt_xfer
          658  14990: dcd_event_bus_reset
          659  15010: dcd_event_bus_signal
          660  15031: dcd_event_handler
          661  15049: dcd_event_setup_received
          662  15074: dcd_event_xfer_complete
          663  15098: dcd_init
          664  15107: dcd_int_disable
          665  15123: dcd_int_enable
          666  15138: dcd_set_address
          667  15154: hidd_control_xfer_cb
          668  15175: hidd_init
          669  15185: hidd_open
          670  15195: hidd_reset
          671  15206: hidd_xfer_cb
          672  15219: led_blinking_task
          673  15237: main
          674  15242: tu_edpt_bind_driver
          675  15262: tu_edpt_validate
          676  15279: tu_fifo_clear
          677  15293: tu_fifo_read
          678  15306: tu_fifo_write
          679  15320: tud_control_status
          680  15339: tud_control_xfer
          681  15356: tud_descriptor_configuration_cb
          682  15388: tud_descriptor_device_cb
          683  15413: tud_descriptor_string_cb
          684  15438: tud_hid_descriptor_report_cb
          685  15467: tud_hid_get_report_cb
          686  15489: tud_hid_n_report
          687  15506: tud_hid_set_report_cb
          688  15528: tud_init
          689  15537: tud_inited
          690  15548: tud_mount_cb
          691  15561: tud_resume_cb
          692  15575: tud_suspend_cb
          693  15590: tud_task
          694  15599: tud_umount_cb
          695  15613: tusb_init
          696  15623: tusb_inited
          697  15635: usbd_control_reset
          698  15654: usbd_control_set_complete_callback
          699  15689: usbd_control_set_request
          700  15714: usbd_control_xfer_cb
          701  15735: usbd_driver_print_control_complete_name
          702  15775: usbd_edpt_claim
          703  15791: usbd_edpt_clear_stall
          704  15813: usbd_edpt_open
          705  15828: usbd_edpt_stall
          706  15844: usbd_edpt_stalled
          707  15862: usbd_edpt_xfer
          708  15877: usbd_open_edpt_pair
          709  15897: __aeabi_d2f
          710  15909: _d2f
          711  15914: __fpl_dnaninf
          712  15928: _fp_init
          713  15937: __fplib_config_fpu_vfp
          714  15960: __fplib_config_pureend_doubles
          715  15991: __fpl_fretinf
          716  16005: __I$use$fp
          717  16016: ui32MCUAllowed
          718  16031: ui32DSP0Allowed
          719  16047: ui32DSP1Allowed
          720  16063: ui32SharedAccess
          721  16080: sGlobalAccess
          722  16094: desc_device
          723  16106: desc_hid_report
          724  16122: desc_configuration
          725  16141: tusb_strerr
          726  16153: am_hal_cachectrl_defaults
          727  16179: g_amHalMcuctrlArgDefault
          728  16204: g_am_hal_bootrom_helper
          729  16228: g_DefaultMcuMemCfg
          730  16247: g_DefaultSRAMCfg
          731  16264: am_hal_pwrctrl_peripheral_control
          732  16298: Region$$Table$$Base
          733  16318: Region$$Table$$Limit
          734  16339: pTUSB_WeakFcnPointers
          735  16361: string_desc_arr
          736  16377: _usbd_qdef
          737  16388: g_pfnCharPrint
          738  16403: g_sDispCfg
          739  16414: g_ui32xtalhscap2trim
          740  16435: g_ui32xtalhscaptrim
          741  16455: g_AM_BSP_GPIO_COM_UART_TX
          742  16481: g_AM_BSP_GPIO_COM_UART_RX
          743  16507: g_AM_BSP_GPIO_VDDUSB33_SWITCH
          744  16537: g_AM_BSP_GPIO_VDDUSB0P9_SWITCH
          745  16568: g_AM_BSP_GPIO_ITM_SWO
          746  16590: gStartOff
          747  16600: gpDcuEnable
          748  16612: gpDcuLock
          749  16622: gDcuEnable
          750  16633: gDcuDisable
          751  16645: g_eCurrPwrMode
          752  16660: g_ui32TrimVer
          753  16674: g_ui32origSimobuckVDDStrim
          754  16701: _usbd_qdef_buf
          755  16716: am_hal_xtal_users
          756  16734: g_am_hal_uart_states
          757  16755: __libspace_start
          758  16772: __temporary_stack_top$libspace
          759  16803: psGlobalAccessPtr
          760  16821: ui32MCUClaimed
          761  16836: ui32DSP0Claimed
          762  16852: ui32DSP1Claimed


** Section #14 '.note' (SHT_NOTE)
    Size   : 32 bytes (alignment 4)


** Section #15 '.comment' (SHT_PROGBITS)
    Size   : 47596 bytes


** Section #16 '.shstrtab' (SHT_STRTAB)
    Size   : 164 bytes

            #  Offset String
        ====================================

            1      1: MCU_MRAM
            2     10: MCU_TCM
            3     18: SHARED_SRAM
            4     30: .debug_abbrev
            5     44: .debug_frame
            6     57: .debug_info
            7     69: .debug_line
            8     81: .debug_loc
            9     92: .debug_macinfo
           10    107: .debug_pubnames
           11    123: .symtab
           12    131: .strtab
           13    139: .note
           14    145: .comment
           15    154: .shstrtab


