
========================================================================

** ELF Header Information

    File Name: bin\deepsleep.axf

    Machine class: ELFCLASS32 (32-bit)
    Data encoding: ELFDATA2LSB (Little endian)
    Header version: EV_CURRENT (Current version)
    Operating System ABI: none
    ABI Version: 0
    File Type: ET_EXEC (Executable) (2)
    Machine: EM_ARM (ARM)

    Image Entry point: 0x00018235
    Flags: EF_ARM_HASENTRY + EF_ARM_ABI_FLOAT_HARD (0x05000402)

    ARM ELF revision: 5 (ABI version 2)

    Conforms to Hard float procedure-call standard

    Built with
    Component: ARM Compiler 5.06 update 6 (build 750) Tool: armasm [4d35ec]
    Component: ARM Compiler 5.06 update 6 (build 750) Tool: armlink [4d35ed]

    Header size: 52 bytes (0x34)
    Program header entry size: 32 bytes (0x20)
    Section header entry size: 40 bytes (0x28)

    Program header entries: 1
    Section header entries: 17

    Program header offset: 93788 (0x00016e5c)
    Section header offset: 93820 (0x00016e7c)

    Section header string table index: 16

========================================================================

** Program header #0 (PT_LOAD) [PF_X + PF_W + PF_R + PF_ARM_ENTRY]
    Size : 12916 bytes (10800 bytes in file)
    Virtual address: 0x00018000 (Alignment 8)


========================================================================

** Section #1 'MCU_MRAM' (SHT_PROGBITS) [SHF_ALLOC + SHF_EXECINSTR]
    Size   : 10620 bytes (alignment 4)
    Address: 0x00018000

    $d
    RESET
    __Vectors
        0x00018000:    100008b8    ....    DCD    268437688
        0x00018004:    00018201    ....    DCD    98817
        0x00018008:    0001821f    ....    DCD    98847
        0x0001800c:    0001821d    ....    DCD    98845
        0x00018010:    00018221    !...    DCD    98849
        0x00018014:    00018223    #...    DCD    98851
        0x00018018:    00018225    %...    DCD    98853
        0x0001801c:    00000000    ....    DCD    0
        0x00018020:    00000000    ....    DCD    0
        0x00018024:    00000000    ....    DCD    0
        0x00018028:    00000000    ....    DCD    0
        0x0001802c:    00018227    '...    DCD    98855
        0x00018030:    00018229    )...    DCD    98857
        0x00018034:    00000000    ....    DCD    0
        0x00018038:    0001822b    +...    DCD    98859
        0x0001803c:    0001822d    -...    DCD    98861
        0x00018040:    0001822f    /...    DCD    98863
        0x00018044:    0001822f    /...    DCD    98863
        0x00018048:    0001822f    /...    DCD    98863
        0x0001804c:    0001822f    /...    DCD    98863
        0x00018050:    0001822f    /...    DCD    98863
        0x00018054:    0001822f    /...    DCD    98863
        0x00018058:    0001822f    /...    DCD    98863
        0x0001805c:    0001822f    /...    DCD    98863
        0x00018060:    0001822f    /...    DCD    98863
        0x00018064:    0001822f    /...    DCD    98863
        0x00018068:    0001822f    /...    DCD    98863
        0x0001806c:    0001822f    /...    DCD    98863
        0x00018070:    0001822f    /...    DCD    98863
        0x00018074:    0001822f    /...    DCD    98863
        0x00018078:    0001822f    /...    DCD    98863
        0x0001807c:    0001822f    /...    DCD    98863
        0x00018080:    0001822f    /...    DCD    98863
        0x00018084:    0001822f    /...    DCD    98863
        0x00018088:    0001822f    /...    DCD    98863
        0x0001808c:    0001822f    /...    DCD    98863
        0x00018090:    0001822f    /...    DCD    98863
        0x00018094:    0001822f    /...    DCD    98863
        0x00018098:    0001822f    /...    DCD    98863
        0x0001809c:    0001822f    /...    DCD    98863
        0x000180a0:    0001822f    /...    DCD    98863
        0x000180a4:    0001822f    /...    DCD    98863
        0x000180a8:    0001822f    /...    DCD    98863
        0x000180ac:    0001822f    /...    DCD    98863
        0x000180b0:    0001822f    /...    DCD    98863
        0x000180b4:    0001822f    /...    DCD    98863
        0x000180b8:    0001822f    /...    DCD    98863
        0x000180bc:    0001822f    /...    DCD    98863
        0x000180c0:    0001822f    /...    DCD    98863
        0x000180c4:    0001822f    /...    DCD    98863
        0x000180c8:    0001822f    /...    DCD    98863
        0x000180cc:    0001822f    /...    DCD    98863
        0x000180d0:    0001822f    /...    DCD    98863
        0x000180d4:    0001822f    /...    DCD    98863
        0x000180d8:    0001822f    /...    DCD    98863
        0x000180dc:    0001822f    /...    DCD    98863
        0x000180e0:    0001822f    /...    DCD    98863
        0x000180e4:    0001822f    /...    DCD    98863
        0x000180e8:    0001822f    /...    DCD    98863
        0x000180ec:    0001822f    /...    DCD    98863
        0x000180f0:    0001822f    /...    DCD    98863
        0x000180f4:    0001822f    /...    DCD    98863
        0x000180f8:    0001822f    /...    DCD    98863
        0x000180fc:    0001822f    /...    DCD    98863
        0x00018100:    0001822f    /...    DCD    98863
        0x00018104:    0001822f    /...    DCD    98863
        0x00018108:    0001822f    /...    DCD    98863
        0x0001810c:    0001822f    /...    DCD    98863
        0x00018110:    0001822f    /...    DCD    98863
        0x00018114:    0001822f    /...    DCD    98863
        0x00018118:    0001822f    /...    DCD    98863
        0x0001811c:    0001822f    /...    DCD    98863
        0x00018120:    0001822f    /...    DCD    98863
        0x00018124:    0001822f    /...    DCD    98863
        0x00018128:    0001822f    /...    DCD    98863
        0x0001812c:    0001822f    /...    DCD    98863
        0x00018130:    0001822f    /...    DCD    98863
        0x00018134:    0001822f    /...    DCD    98863
        0x00018138:    0001822f    /...    DCD    98863
        0x0001813c:    0001822f    /...    DCD    98863
        0x00018140:    0001822f    /...    DCD    98863
        0x00018144:    0001822f    /...    DCD    98863
        0x00018148:    0001822f    /...    DCD    98863
        0x0001814c:    0001822f    /...    DCD    98863
        0x00018150:    0001822f    /...    DCD    98863
        0x00018154:    0001822f    /...    DCD    98863
        0x00018158:    0001822f    /...    DCD    98863
        0x0001815c:    0001822f    /...    DCD    98863
        0x00018160:    0001822f    /...    DCD    98863
        0x00018164:    0001822f    /...    DCD    98863
        0x00018168:    0001822f    /...    DCD    98863
        0x0001816c:    0001822f    /...    DCD    98863
        0x00018170:    0001822f    /...    DCD    98863
        0x00018174:    0001822f    /...    DCD    98863
        0x00018178:    0001822f    /...    DCD    98863
        0x0001817c:    0001822f    /...    DCD    98863
        0x00018180:    0001822f    /...    DCD    98863
        0x00018184:    0001822f    /...    DCD    98863
        0x00018188:    0001822f    /...    DCD    98863
        0x0001818c:    0001822f    /...    DCD    98863
    __Patchable
        0x00018190:    00000000    ....    DCD    0
        0x00018194:    00000000    ....    DCD    0
        0x00018198:    00000000    ....    DCD    0
        0x0001819c:    00000000    ....    DCD    0
        0x000181a0:    00000000    ....    DCD    0
        0x000181a4:    00000000    ....    DCD    0
        0x000181a8:    00000000    ....    DCD    0
        0x000181ac:    00000000    ....    DCD    0
        0x000181b0:    00000000    ....    DCD    0
        0x000181b4:    00000000    ....    DCD    0
        0x000181b8:    00000000    ....    DCD    0
        0x000181bc:    00000000    ....    DCD    0
        0x000181c0:    00000000    ....    DCD    0
        0x000181c4:    00000000    ....    DCD    0
        0x000181c8:    00000000    ....    DCD    0
        0x000181cc:    00000000    ....    DCD    0
        0x000181d0:    00000000    ....    DCD    0
        0x000181d4:    00000000    ....    DCD    0
        0x000181d8:    00000000    ....    DCD    0
        0x000181dc:    00000000    ....    DCD    0
        0x000181e0:    00000000    ....    DCD    0
        0x000181e4:    00000000    ....    DCD    0
        0x000181e8:    00000000    ....    DCD    0
        0x000181ec:    00000000    ....    DCD    0
        0x000181f0:    00000000    ....    DCD    0
        0x000181f4:    00000000    ....    DCD    0
        0x000181f8:    00000000    ....    DCD    0
        0x000181fc:    00000000    ....    DCD    0
    $t
    $v0
    Reset_Handler
        0x00018200:    f64e5088    N..P    MOV      r0,#0xed88
        0x00018204:    f2ce0000    ....    MOVT     r0,#0xe000
        0x00018208:    6801        .h      LDR      r1,[r0,#0]
        0x0001820a:    f4410170    A.p.    ORR      r1,r1,#0xf00000
        0x0001820e:    6001        .`      STR      r1,[r0,#0]
        0x00018210:    f3bf8f4f    ..O.    DSB      
        0x00018214:    f3bf8f6f    ..o.    ISB      
        0x00018218:    4805        .H      LDR      r0,[pc,#20] ; [0x18230] = 0x18235
        0x0001821a:    4700        .G      BX       r0
    HardFault_Handler
        0x0001821c:    e7fe        ..      B        HardFault_Handler ; 0x1821c
    NMI_Handler
        0x0001821e:    e7fe        ..      B        NMI_Handler ; 0x1821e
    MemManage_Handler
        0x00018220:    e7fe        ..      B        MemManage_Handler ; 0x18220
    BusFault_Handler
        0x00018222:    e7fe        ..      B        BusFault_Handler ; 0x18222
    UsageFault_Handler
        0x00018224:    e7fe        ..      B        UsageFault_Handler ; 0x18224
    SVC_Handler
        0x00018226:    e7fe        ..      B        SVC_Handler ; 0x18226
    DebugMon_Handler
        0x00018228:    e7fe        ..      B        DebugMon_Handler ; 0x18228
    PendSV_Handler
        0x0001822a:    e7fe        ..      B        PendSV_Handler ; 0x1822a
    SysTick_Handler
        0x0001822c:    e7fe        ..      B        SysTick_Handler ; 0x1822c
    am_cryptosec_isr
    am_default_isr
    am_adc_isr
    am_audadc0_isr
    am_brownout_isr
    am_cachecpu_isr
    am_clkgen_isr
    am_ctimer_isr
    am_disp_isr
    am_dsi_isr
    am_dspi2s0_isr
    am_dspi2s1_isr
    am_dspi2s2_isr
    am_dspi2s3_isr
    am_gpio0_001f_isr
    am_gpio0_203f_isr
    am_gpio0_405f_isr
    am_gpio0_607f_isr
    am_gpio1_001f_isr
    am_gpio1_203f_isr
    am_gpio1_405f_isr
    am_gpio1_607f_isr
    am_gpu_isr
    am_iomaster0_isr
    am_iomaster1_isr
    am_iomaster2_isr
    am_iomaster3_isr
    am_iomaster4_isr
    am_iomaster5_isr
    am_iomaster6_isr
    am_iomaster7_isr
    am_ioslave_acc_isr
    am_ioslave_ios_isr
    am_mspi0_isr
    am_mspi1_isr
    am_mspi2_isr
    am_pdm0_isr
    am_pdm1_isr
    am_pdm2_isr
    am_pdm3_isr
    am_rtc_isr
    am_sdio_isr
    am_stimer_cmpr0_isr
    am_stimer_cmpr1_isr
    am_stimer_cmpr2_isr
    am_stimer_cmpr3_isr
    am_stimer_cmpr4_isr
    am_stimer_cmpr5_isr
    am_stimer_cmpr6_isr
    am_stimer_cmpr7_isr
    am_stimerof_isr
    am_timer00_isr
    am_timer01_isr
    am_timer02_isr
    am_timer03_isr
    am_timer04_isr
    am_timer05_isr
    am_timer06_isr
    am_timer07_isr
    am_timer08_isr
    am_timer09_isr
    am_timer10_isr
    am_timer11_isr
    am_timer12_isr
    am_timer13_isr
    am_timer14_isr
    am_timer15_isr
    am_uart1_isr
    am_uart2_isr
    am_uart3_isr
    am_uart_isr
    am_usb_isr
    am_vcomp_isr
    am_watchdog_isr
        0x0001822e:    e7fe        ..      B        am_cryptosec_isr ; 0x1822e
    $d
        0x00018230:    00018235    5...    DCD    98869
    $t
    !!!main
    __main
        0x00018234:    f000f802    ....    BL       __scatterload ; 0x1823c
        0x00018238:    f000f83c    ..<.    BL       __rt_entry ; 0x182b4
    !!!scatter
    __scatterload
    __scatterload_rt2
    __scatterload_rt2_thumb_only
        0x0001823c:    a00a        ..      ADR      r0,{pc}+0x2c ; 0x18268
        0x0001823e:    e8900c00    ....    LDM      r0,{r10,r11}
        0x00018242:    4482        .D      ADD      r10,r10,r0
        0x00018244:    4483        .D      ADD      r11,r11,r0
        0x00018246:    f1aa0701    ....    SUB      r7,r10,#1
    __scatterload_null
        0x0001824a:    45da        .E      CMP      r10,r11
        0x0001824c:    d101        ..      BNE      0x18252 ; __scatterload_null + 8
        0x0001824e:    f000f831    ..1.    BL       __rt_entry ; 0x182b4
        0x00018252:    f2af0e09    ....    ADR      lr,{pc}-7 ; 0x1824b
        0x00018256:    e8ba000f    ....    LDM      r10!,{r0-r3}
        0x0001825a:    f0130f01    ....    TST      r3,#1
        0x0001825e:    bf18        ..      IT       NE
        0x00018260:    1afb        ..      SUBNE    r3,r7,r3
        0x00018262:    f0430301    C...    ORR      r3,r3,#1
        0x00018266:    4718        .G      BX       r3
    $d
        0x00018268:    000026e4    .&..    DCD    9956
        0x0001826c:    00002714    .'..    DCD    10004
    $t
    !!handler_copy
    __scatterload_copy
        0x00018270:    3a10        .:      SUBS     r2,r2,#0x10
        0x00018272:    bf24        $.      ITT      CS
        0x00018274:    c878        x.      LDMCS    r0!,{r3-r6}
        0x00018276:    c178        x.      STMCS    r1!,{r3-r6}
        0x00018278:    d8fa        ..      BHI      __scatterload_copy ; 0x18270
        0x0001827a:    0752        R.      LSLS     r2,r2,#29
        0x0001827c:    bf24        $.      ITT      CS
        0x0001827e:    c830        0.      LDMCS    r0!,{r4,r5}
        0x00018280:    c130        0.      STMCS    r1!,{r4,r5}
        0x00018282:    bf44        D.      ITT      MI
        0x00018284:    6804        .h      LDRMI    r4,[r0,#0]
        0x00018286:    600c        .`      STRMI    r4,[r1,#0]
        0x00018288:    4770        pG      BX       lr
        0x0001828a:    0000        ..      MOVS     r0,r0
    !!handler_zi
    __scatterload_zeroinit
        0x0001828c:    2300        .#      MOVS     r3,#0
        0x0001828e:    2400        .$      MOVS     r4,#0
        0x00018290:    2500        .%      MOVS     r5,#0
        0x00018292:    2600        .&      MOVS     r6,#0
        0x00018294:    3a10        .:      SUBS     r2,r2,#0x10
        0x00018296:    bf28        (.      IT       CS
        0x00018298:    c178        x.      STMCS    r1!,{r3-r6}
        0x0001829a:    d8fb        ..      BHI      0x18294 ; __scatterload_zeroinit + 8
        0x0001829c:    0752        R.      LSLS     r2,r2,#29
        0x0001829e:    bf28        (.      IT       CS
        0x000182a0:    c130        0.      STMCS    r1!,{r4,r5}
        0x000182a2:    bf48        H.      IT       MI
        0x000182a4:    600b        .`      STRMI    r3,[r1,#0]
        0x000182a6:    4770        pG      BX       lr
    .ARM.Collect$$libinit$$00000000
    __rt_lib_init
        0x000182a8:    b51f        ..      PUSH     {r0-r4,lr}
    .ARM.Collect$$libinit$$00000001
    __rt_lib_init_fp_1
        0x000182aa:    f002f966    ..f.    BL       _fp_init ; 0x1a57a
    .ARM.Collect$$libinit$$00000004
    .ARM.Collect$$libinit$$0000000A
    .ARM.Collect$$libinit$$0000000C
    .ARM.Collect$$libinit$$0000000E
    .ARM.Collect$$libinit$$00000011
    .ARM.Collect$$libinit$$00000013
    .ARM.Collect$$libinit$$00000015
    .ARM.Collect$$libinit$$00000017
    .ARM.Collect$$libinit$$00000019
    .ARM.Collect$$libinit$$0000001B
    .ARM.Collect$$libinit$$0000001D
    .ARM.Collect$$libinit$$0000001F
    .ARM.Collect$$libinit$$00000021
    .ARM.Collect$$libinit$$00000023
    .ARM.Collect$$libinit$$00000025
    .ARM.Collect$$libinit$$0000002C
    .ARM.Collect$$libinit$$0000002E
    .ARM.Collect$$libinit$$00000030
    .ARM.Collect$$libinit$$00000032
    .ARM.Collect$$libinit$$00000033
    __rt_lib_init_alloca_1
    __rt_lib_init_argv_1
    __rt_lib_init_atexit_1
    __rt_lib_init_clock_1
    __rt_lib_init_cpp_1
    __rt_lib_init_exceptions_1
    __rt_lib_init_fp_trap_1
    __rt_lib_init_getenv_1
    __rt_lib_init_heap_1
    __rt_lib_init_lc_collate_1
    __rt_lib_init_lc_ctype_1
    __rt_lib_init_lc_monetary_1
    __rt_lib_init_lc_numeric_1
    __rt_lib_init_lc_time_1
    __rt_lib_init_preinit_1
    __rt_lib_init_rand_1
    __rt_lib_init_return
    __rt_lib_init_signal_1
    __rt_lib_init_stdio_1
    __rt_lib_init_user_alloc_1
        0x000182ae:    bd1f        ..      POP      {r0-r4,pc}
    .ARM.Collect$$libshutdown$$00000000
    __rt_lib_shutdown
        0x000182b0:    b510        ..      PUSH     {r4,lr}
    .ARM.Collect$$libshutdown$$00000002
    .ARM.Collect$$libshutdown$$00000004
    .ARM.Collect$$libshutdown$$00000007
    .ARM.Collect$$libshutdown$$0000000A
    .ARM.Collect$$libshutdown$$0000000C
    .ARM.Collect$$libshutdown$$0000000F
    .ARM.Collect$$libshutdown$$00000010
    __rt_lib_shutdown_cpp_1
    __rt_lib_shutdown_fp_trap_1
    __rt_lib_shutdown_heap_1
    __rt_lib_shutdown_return
    __rt_lib_shutdown_signal_1
    __rt_lib_shutdown_stdio_1
    __rt_lib_shutdown_user_alloc_1
        0x000182b2:    bd10        ..      POP      {r4,pc}
    .ARM.Collect$$rtentry$$00000000
    .ARM.Collect$$rtentry$$00000002
    .ARM.Collect$$rtentry$$00000004
    __rt_entry
    __rt_entry_presh_1
    __rt_entry_sh
        0x000182b4:    f000f829    ..).    BL       __user_setup_stackheap ; 0x1830a
        0x000182b8:    4611        .F      MOV      r1,r2
    .ARM.Collect$$rtentry$$00000009
    .ARM.Collect$$rtentry$$0000000A
    __rt_entry_li
    __rt_entry_postsh_1
        0x000182ba:    f7fffff5    ....    BL       __rt_lib_init ; 0x182a8
    .ARM.Collect$$rtentry$$0000000C
    .ARM.Collect$$rtentry$$0000000D
    __rt_entry_main
    __rt_entry_postli_1
        0x000182be:    f001fe6b    ..k.    BL       main ; 0x19f98
        0x000182c2:    f000f847    ..G.    BL       exit ; 0x18354
    .ARM.Collect$$rtexit$$00000000
    __rt_exit
        0x000182c6:    b403        ..      PUSH     {r0,r1}
    .ARM.Collect$$rtexit$$00000002
    .ARM.Collect$$rtexit$$00000003
    __rt_exit_ls
    __rt_exit_prels_1
        0x000182c8:    f7fffff2    ....    BL       __rt_lib_shutdown ; 0x182b0
    .ARM.Collect$$rtexit$$00000004
    __rt_exit_exit
        0x000182cc:    bc03        ..      POP      {r0,r1}
        0x000182ce:    f000f84f    ..O.    BL       _sys_exit ; 0x18370
        0x000182d2:    0000        ..      MOVS     r0,r0
    .emb_text
    $v0
    am_hal_interrupt_master_enable
        0x000182d4:    f3ef8010    ....    MRS      r0,PRIMASK
        0x000182d8:    b662        b.      CPSIE    i
        0x000182da:    4770        pG      BX       lr
    am_hal_interrupt_master_disable
        0x000182dc:    f3ef8010    ....    MRS      r0,PRIMASK
        0x000182e0:    b672        r.      CPSID    i
        0x000182e2:    4770        pG      BX       lr
    am_hal_interrupt_master_set
        0x000182e4:    f3808810    ....    MSR      PRIMASK,r0
        0x000182e8:    4770        pG      BX       lr
        0x000182ea:    0000        ..      MOVS     r0,r0
    .text
    $v0
    __user_initial_stackheap
        0x000182ec:    4802        .H      LDR      r0,[pc,#8] ; [0x182f8] = 0x100004b8
        0x000182ee:    4903        .I      LDR      r1,[pc,#12] ; [0x182fc] = 0x100008b8
        0x000182f0:    4a01        .J      LDR      r2,[pc,#4] ; [0x182f8] = 0x100004b8
        0x000182f2:    4b03        .K      LDR      r3,[pc,#12] ; [0x18300] = 0x100004b8
        0x000182f4:    4770        pG      BX       lr
    $d
        0x000182f6:    0000        ..      DCW    0
        0x000182f8:    100004b8    ....    DCD    268436664
        0x000182fc:    100008b8    ....    DCD    268437688
        0x00018300:    100004b8    ....    DCD    268436664
    $t
    .text
    __use_two_region_memory
        0x00018304:    4770        pG      BX       lr
    __rt_heap_escrow$2region
        0x00018306:    4770        pG      BX       lr
    __rt_heap_expand$2region
        0x00018308:    4770        pG      BX       lr
    .text
    __user_setup_stackheap
        0x0001830a:    4675        uF      MOV      r5,lr
        0x0001830c:    f000f82c    ..,.    BL       __user_libspace ; 0x18368
        0x00018310:    46ae        .F      MOV      lr,r5
        0x00018312:    0005        ..      MOVS     r5,r0
        0x00018314:    4669        iF      MOV      r1,sp
        0x00018316:    4653        SF      MOV      r3,r10
        0x00018318:    f0200007     ...    BIC      r0,r0,#7
        0x0001831c:    4685        .F      MOV      sp,r0
        0x0001831e:    b018        ..      ADD      sp,sp,#0x60
        0x00018320:    b520         .      PUSH     {r5,lr}
        0x00018322:    f7ffffe3    ....    BL       __user_initial_stackheap ; 0x182ec
        0x00018326:    e8bd4020    .. @    POP      {r5,lr}
        0x0001832a:    f04f0600    O...    MOV      r6,#0
        0x0001832e:    f04f0700    O...    MOV      r7,#0
        0x00018332:    f04f0800    O...    MOV      r8,#0
        0x00018336:    f04f0b00    O...    MOV      r11,#0
        0x0001833a:    f0210107    !...    BIC      r1,r1,#7
        0x0001833e:    46ac        .F      MOV      r12,r5
        0x00018340:    e8ac09c0    ....    STM      r12!,{r6-r8,r11}
        0x00018344:    e8ac09c0    ....    STM      r12!,{r6-r8,r11}
        0x00018348:    e8ac09c0    ....    STM      r12!,{r6-r8,r11}
        0x0001834c:    e8ac09c0    ....    STM      r12!,{r6-r8,r11}
        0x00018350:    468d        .F      MOV      sp,r1
        0x00018352:    4770        pG      BX       lr
    .text
    exit
        0x00018354:    b510        ..      PUSH     {r4,lr}
        0x00018356:    4604        .F      MOV      r4,r0
        0x00018358:    f3af8000    ....    NOP.W    
        0x0001835c:    4620         F      MOV      r0,r4
        0x0001835e:    e8bd4010    ...@    POP      {r4,lr}
        0x00018362:    f7ffbfb0    ....    B.W      __rt_exit ; 0x182c6
        0x00018366:    0000        ..      MOVS     r0,r0
    .text
    __user_libspace
    __user_perproc_libspace
    __user_perthread_libspace
        0x00018368:    4800        .H      LDR      r0,[pc,#0] ; [0x1836c] = 0x10000454
        0x0001836a:    4770        pG      BX       lr
    $d
        0x0001836c:    10000454    T...    DCD    268436564
    $t
    .text
    _sys_exit
        0x00018370:    4901        .I      LDR      r1,[pc,#4] ; [0x18378] = 0x20026
        0x00018372:    2018        .       MOVS     r0,#0x18
        0x00018374:    beab        ..      BKPT     #0xab
        0x00018376:    e7fe        ..      B        0x18376 ; _sys_exit + 6
    $d
        0x00018378:    00020026    &...    DCD    131110
    $t
    .text
    __I$use$semihosting
    __use_no_semihosting_swi
        0x0001837c:    4770        pG      BX       lr
    i.__ARM_common_memcpy4_5
    .text
    __ARM_common_memcpy4_5
    __semihosting_library_function
        0x0001837e:    680a        .h      LDR      r2,[r1,#0]
        0x00018380:    6002        .`      STR      r2,[r0,#0]
        0x00018382:    790b        .y      LDRB     r3,[r1,#4]
        0x00018384:    7103        .q      STRB     r3,[r0,#4]
        0x00018386:    4770        pG      BX       lr
    i.am_bsp_low_power_init
    am_bsp_low_power_init
        0x00018388:    b510        ..      PUSH     {r4,lr}
        0x0001838a:    f000fbe9    ....    BL       am_hal_pwrctrl_low_power_init ; 0x18b60
        0x0001838e:    2100        .!      MOVS     r1,#0
        0x00018390:    4608        .F      MOV      r0,r1
        0x00018392:    f000fa23    ..#.    BL       am_hal_pwrctrl_control ; 0x187dc
        0x00018396:    e8bd4010    ...@    POP      {r4,lr}
        0x0001839a:    f000be9d    ....    B.W      am_hal_rtc_osc_disable ; 0x190d8
        0x0001839e:    0000        ..      MOVS     r0,r0
    i.am_bsp_uart_printf_disable
    am_bsp_uart_printf_disable
        0x000183a0:    b538        8.      PUSH     {r3-r5,lr}
        0x000183a2:    4c10        .L      LDR      r4,[pc,#64] ; [0x183e4] = 0x10000008
        0x000183a4:    7820         x      LDRB     r0,[r4,#0]
        0x000183a6:    2802        .(      CMP      r0,#2
        0x000183a8:    bf18        ..      IT       NE
        0x000183aa:    bd38        8.      POPNE    {r3-r5,pc}
        0x000183ac:    6860        `h      LDR      r0,[r4,#4]
        0x000183ae:    f001f9e7    ....    BL       am_hal_uart_tx_flush ; 0x19780
        0x000183b2:    2000        .       MOVS     r0,#0
        0x000183b4:    f001fa54    ..T.    BL       am_util_stdio_printf_init ; 0x19860
        0x000183b8:    2200        ."      MOVS     r2,#0
        0x000183ba:    2102        .!      MOVS     r1,#2
        0x000183bc:    6860        `h      LDR      r0,[r4,#4]
        0x000183be:    f001f82d    ..-.    BL       am_hal_uart_power_control ; 0x1941c
        0x000183c2:    6860        `h      LDR      r0,[r4,#4]
        0x000183c4:    f000ffd2    ....    BL       am_hal_uart_deinitialize ; 0x1936c
        0x000183c8:    4d07        .M      LDR      r5,[pc,#28] ; [0x183e8] = 0x1a664
        0x000183ca:    6829        )h      LDR      r1,[r5,#0]
        0x000183cc:    9100        ..      STR      r1,[sp,#0]
        0x000183ce:    203c        <       MOVS     r0,#0x3c
        0x000183d0:    f000f968    ..h.    BL       am_hal_gpio_pinconfig ; 0x186a4
        0x000183d4:    6829        )h      LDR      r1,[r5,#0]
        0x000183d6:    9100        ..      STR      r1,[sp,#0]
        0x000183d8:    202f        /       MOVS     r0,#0x2f
        0x000183da:    f000f963    ..c.    BL       am_hal_gpio_pinconfig ; 0x186a4
        0x000183de:    2000        .       MOVS     r0,#0
        0x000183e0:    7020         p      STRB     r0,[r4,#0]
        0x000183e2:    bd38        8.      POP      {r3-r5,pc}
    $d
        0x000183e4:    10000008    ....    DCD    268435464
        0x000183e8:    0001a664    d...    DCD    108132
    $t
    i.am_bsp_uart_printf_enable
    am_bsp_uart_printf_enable
        0x000183ec:    b538        8.      PUSH     {r3-r5,lr}
        0x000183ee:    4914        .I      LDR      r1,[pc,#80] ; [0x18440] = 0x1000000c
        0x000183f0:    2000        .       MOVS     r0,#0
        0x000183f2:    f000ffd3    ....    BL       am_hal_uart_initialize ; 0x1939c
        0x000183f6:    b9c8        ..      CBNZ     r0,0x1842c ; am_bsp_uart_printf_enable + 64
        0x000183f8:    4c12        .L      LDR      r4,[pc,#72] ; [0x18444] = 0x10000008
        0x000183fa:    2200        ."      MOVS     r2,#0
        0x000183fc:    4611        .F      MOV      r1,r2
        0x000183fe:    6860        `h      LDR      r0,[r4,#4]
        0x00018400:    f001f80c    ....    BL       am_hal_uart_power_control ; 0x1941c
        0x00018404:    b990        ..      CBNZ     r0,0x1842c ; am_bsp_uart_printf_enable + 64
        0x00018406:    4910        .I      LDR      r1,[pc,#64] ; [0x18448] = 0x1a634
        0x00018408:    6860        `h      LDR      r0,[r4,#4]
        0x0001840a:    f000fee3    ....    BL       am_hal_uart_configure ; 0x191d4
        0x0001840e:    b968        h.      CBNZ     r0,0x1842c ; am_bsp_uart_printf_enable + 64
        0x00018410:    480e        .H      LDR      r0,[pc,#56] ; [0x1844c] = 0x10000064
        0x00018412:    6801        .h      LDR      r1,[r0,#0]
        0x00018414:    9100        ..      STR      r1,[sp,#0]
        0x00018416:    203c        <       MOVS     r0,#0x3c
        0x00018418:    f000f944    ..D.    BL       am_hal_gpio_pinconfig ; 0x186a4
        0x0001841c:    b930        0.      CBNZ     r0,0x1842c ; am_bsp_uart_printf_enable + 64
        0x0001841e:    480c        .H      LDR      r0,[pc,#48] ; [0x18450] = 0x10000068
        0x00018420:    6801        .h      LDR      r1,[r0,#0]
        0x00018422:    9100        ..      STR      r1,[sp,#0]
        0x00018424:    202f        /       MOVS     r0,#0x2f
        0x00018426:    f000f93d    ..=.    BL       am_hal_gpio_pinconfig ; 0x186a4
        0x0001842a:    b110        ..      CBZ      r0,0x18432 ; am_bsp_uart_printf_enable + 70
        0x0001842c:    f04f30ff    O..0    MOV      r0,#0xffffffff
        0x00018430:    bd38        8.      POP      {r3-r5,pc}
        0x00018432:    2002        .       MOVS     r0,#2
        0x00018434:    7020         p      STRB     r0,[r4,#0]
        0x00018436:    4807        .H      LDR      r0,[pc,#28] ; [0x18454] = 0x18459
        0x00018438:    f001fa12    ....    BL       am_util_stdio_printf_init ; 0x19860
        0x0001843c:    2000        .       MOVS     r0,#0
        0x0001843e:    bd38        8.      POP      {r3-r5,pc}
    $d
        0x00018440:    1000000c    ....    DCD    268435468
        0x00018444:    10000008    ....    DCD    268435464
        0x00018448:    0001a634    4...    DCD    108084
        0x0001844c:    10000064    d...    DCD    268435556
        0x00018450:    10000068    h...    DCD    268435560
        0x00018454:    00018459    Y...    DCD    99417
    $t
    i.am_bsp_uart_string_print
    am_bsp_uart_string_print
        0x00018458:    b530        0.      PUSH     {r4,r5,lr}
        0x0001845a:    b08b        ..      SUB      sp,sp,#0x2c
        0x0001845c:    2400        .$      MOVS     r4,#0
        0x0001845e:    9401        ..      STR      r4,[sp,#4]
        0x00018460:    7801        .x      LDRB     r1,[r0,#0]
        0x00018462:    b119        ..      CBZ      r1,0x1846c ; am_bsp_uart_string_print + 20
        0x00018464:    1c64        d.      ADDS     r4,r4,#1
        0x00018466:    5d01        .]      LDRB     r1,[r0,r4]
        0x00018468:    2900        .)      CMP      r1,#0
        0x0001846a:    d1fb        ..      BNE      0x18464 ; am_bsp_uart_string_print + 12
        0x0001846c:    490b        .I      LDR      r1,[pc,#44] ; [0x1849c] = 0x1a634
        0x0001846e:    68ca        .h      LDR      r2,[r1,#0xc]
        0x00018470:    311c        .1      ADDS     r1,r1,#0x1c
        0x00018472:    e891102a    ..*.    LDM      r1,{r1,r3,r5,r12}
        0x00018476:    e9cd2002    ...     STRD     r2,r0,[sp,#8]
        0x0001847a:    aa05        ..      ADD      r2,sp,#0x14
        0x0001847c:    9404        ..      STR      r4,[sp,#0x10]
        0x0001847e:    a801        ..      ADD      r0,sp,#4
        0x00018480:    e882102b    ..+.    STM      r2,{r0,r1,r3,r5,r12}
        0x00018484:    4806        .H      LDR      r0,[pc,#24] ; [0x184a0] = 0x10000008
        0x00018486:    a902        ..      ADD      r1,sp,#8
        0x00018488:    6840        @h      LDR      r0,[r0,#4]
        0x0001848a:    f001f83b    ..;.    BL       am_hal_uart_transfer ; 0x19504
        0x0001848e:    9801        ..      LDR      r0,[sp,#4]
        0x00018490:    42a0        .B      CMP      r0,r4
        0x00018492:    bf04        ..      ITT      EQ
        0x00018494:    b00b        ..      ADDEQ    sp,sp,#0x2c
        0x00018496:    bd30        0.      POPEQ    {r4,r5,pc}
        0x00018498:    e7fe        ..      B        0x18498 ; am_bsp_uart_string_print + 64
    $d
        0x0001849a:    0000        ..      DCW    0
        0x0001849c:    0001a634    4...    DCD    108084
        0x000184a0:    10000008    ....    DCD    268435464
    $t
    i.am_hal_daxi_config
    am_hal_daxi_config
        0x000184a4:    b570        p.      PUSH     {r4-r6,lr}
        0x000184a6:    b082        ..      SUB      sp,sp,#8
        0x000184a8:    4605        .F      MOV      r5,r0
        0x000184aa:    f7ffff17    ....    BL       am_hal_interrupt_master_disable ; 0x182dc
        0x000184ae:    9000        ..      STR      r0,[sp,#0]
        0x000184b0:    f7ffff14    ....    BL       am_hal_interrupt_master_disable ; 0x182dc
        0x000184b4:    f04f4490    O..D    MOV      r4,#0x48000000
        0x000184b8:    9001        ..      STR      r0,[sp,#4]
        0x000184ba:    6d20         m      LDR      r0,[r4,#0x50]
        0x000184bc:    4e1d        .N      LDR      r6,[pc,#116] ; [0x18534] = 0x47ff0000
        0x000184be:    f0100f04    ....    TST      r0,#4
        0x000184c2:    d10b        ..      BNE      0x184dc ; am_hal_daxi_config + 56
        0x000184c4:    f3bf8f4f    ..O.    DSB      
        0x000184c8:    6d60        `m      LDR      r0,[r4,#0x54]
        0x000184ca:    f0400001    @...    ORR      r0,r0,#1
        0x000184ce:    6560        `e      STR      r0,[r4,#0x54]
        0x000184d0:    6830        0h      LDR      r0,[r6,#0]
        0x000184d2:    6d60        `m      LDR      r0,[r4,#0x54]
        0x000184d4:    f0400002    @...    ORR      r0,r0,#2
        0x000184d8:    6560        `e      STR      r0,[r4,#0x54]
        0x000184da:    6830        0h      LDR      r0,[r6,#0]
        0x000184dc:    6d60        `m      LDR      r0,[r4,#0x54]
        0x000184de:    f0100f04    ....    TST      r0,#4
        0x000184e2:    d0fb        ..      BEQ      0x184dc ; am_hal_daxi_config + 56
        0x000184e4:    9801        ..      LDR      r0,[sp,#4]
        0x000184e6:    f7fffefd    ....    BL       am_hal_interrupt_master_set ; 0x182e4
        0x000184ea:    2d00        .-      CMP      r5,#0
        0x000184ec:    bf04        ..      ITT      EQ
        0x000184ee:    2006        .       MOVEQ    r0,#6
        0x000184f0:    6520         e      STREQ    r0,[r4,#0x50]
        0x000184f2:    d018        ..      BEQ      0x18526 ; am_hal_daxi_config + 130
        0x000184f4:    7928        (y      LDRB     r0,[r5,#4]
        0x000184f6:    7869        ix      LDRB     r1,[r5,#1]
        0x000184f8:    2202        ."      MOVS     r2,#2
        0x000184fa:    f0000001    ....    AND      r0,r0,#1
        0x000184fe:    ea020141    ..A.    AND      r1,r2,r1,LSL #1
        0x00018502:    4308        .C      ORRS     r0,r0,r1
        0x00018504:    78e9        .x      LDRB     r1,[r5,#3]
        0x00018506:    f44f6270    O.pb    MOV      r2,#0xf00
        0x0001850a:    ea022101    ...!    AND      r1,r2,r1,LSL #8
        0x0001850e:    4308        .C      ORRS     r0,r0,r1
        0x00018510:    78a9        .x      LDRB     r1,[r5,#2]
        0x00018512:    f44f12f8    O...    MOV      r2,#0x1f0000
        0x00018516:    ea024101    ...A    AND      r1,r2,r1,LSL #16
        0x0001851a:    4308        .C      ORRS     r0,r0,r1
        0x0001851c:    6520         e      STR      r0,[r4,#0x50]
        0x0001851e:    4629        )F      MOV      r1,r5
        0x00018520:    4805        .H      LDR      r0,[pc,#20] ; [0x18538] = 0x1000006c
        0x00018522:    f7ffff2c    ..,.    BL       __ARM_common_memcpy4_5 ; 0x1837e
        0x00018526:    6830        0h      LDR      r0,[r6,#0]
        0x00018528:    9800        ..      LDR      r0,[sp,#0]
        0x0001852a:    f7fffedb    ....    BL       am_hal_interrupt_master_set ; 0x182e4
        0x0001852e:    b002        ..      ADD      sp,sp,#8
        0x00018530:    2000        .       MOVS     r0,#0
        0x00018532:    bd70        p.      POP      {r4-r6,pc}
    $d
        0x00018534:    47ff0000    ...G    DCD    1207894016
        0x00018538:    1000006c    l...    DCD    268435564
    $t
    i.am_hal_daxi_control
    am_hal_daxi_control
        0x0001853c:    b538        8.      PUSH     {r3-r5,lr}
        0x0001853e:    4d1d        .M      LDR      r5,[pc,#116] ; [0x185b4] = 0x47ff0000
        0x00018540:    f04f4490    O..D    MOV      r4,#0x48000000
        0x00018544:    b348        H.      CBZ      r0,0x1859a ; am_hal_daxi_control + 94
        0x00018546:    2801        .(      CMP      r0,#1
        0x00018548:    d00c        ..      BEQ      0x18564 ; am_hal_daxi_control + 40
        0x0001854a:    2802        .(      CMP      r0,#2
        0x0001854c:    bf08        ..      IT       EQ
        0x0001854e:    2000        .       MOVEQ    r0,#0
        0x00018550:    d004        ..      BEQ      0x1855c ; am_hal_daxi_control + 32
        0x00018552:    2803        .(      CMP      r0,#3
        0x00018554:    bf16        ..      ITET     NE
        0x00018556:    2006        .       MOVNE    r0,#6
        0x00018558:    4817        .H      LDREQ    r0,[pc,#92] ; [0x185b8] = 0x1000006c
        0x0001855a:    bd38        8.      POPNE    {r3-r5,pc}
        0x0001855c:    f7ffffa2    ....    BL       am_hal_daxi_config ; 0x184a4
        0x00018560:    2000        .       MOVS     r0,#0
        0x00018562:    bd38        8.      POP      {r3-r5,pc}
        0x00018564:    f7fffeba    ....    BL       am_hal_interrupt_master_disable ; 0x182dc
        0x00018568:    9000        ..      STR      r0,[sp,#0]
        0x0001856a:    6d20         m      LDR      r0,[r4,#0x50]
        0x0001856c:    f0100f04    ....    TST      r0,#4
        0x00018570:    d10b        ..      BNE      0x1858a ; am_hal_daxi_control + 78
        0x00018572:    f3bf8f4f    ..O.    DSB      
        0x00018576:    6d60        `m      LDR      r0,[r4,#0x54]
        0x00018578:    f0400001    @...    ORR      r0,r0,#1
        0x0001857c:    6560        `e      STR      r0,[r4,#0x54]
        0x0001857e:    6828        (h      LDR      r0,[r5,#0]
        0x00018580:    6d60        `m      LDR      r0,[r4,#0x54]
        0x00018582:    f0400002    @...    ORR      r0,r0,#2
        0x00018586:    6560        `e      STR      r0,[r4,#0x54]
        0x00018588:    6828        (h      LDR      r0,[r5,#0]
        0x0001858a:    6d60        `m      LDR      r0,[r4,#0x54]
        0x0001858c:    f0100f04    ....    TST      r0,#4
        0x00018590:    d0fb        ..      BEQ      0x1858a ; am_hal_daxi_control + 78
        0x00018592:    9800        ..      LDR      r0,[sp,#0]
        0x00018594:    f7fffea6    ....    BL       am_hal_interrupt_master_set ; 0x182e4
        0x00018598:    e7e2        ..      B        0x18560 ; am_hal_daxi_control + 36
        0x0001859a:    6d20         m      LDR      r0,[r4,#0x50]
        0x0001859c:    f0100f04    ....    TST      r0,#4
        0x000185a0:    d1de        ..      BNE      0x18560 ; am_hal_daxi_control + 36
        0x000185a2:    f3bf8f4f    ..O.    DSB      
        0x000185a6:    6d60        `m      LDR      r0,[r4,#0x54]
        0x000185a8:    f0400002    @...    ORR      r0,r0,#2
        0x000185ac:    6560        `e      STR      r0,[r4,#0x54]
        0x000185ae:    6828        (h      LDR      r0,[r5,#0]
        0x000185b0:    e7d6        ..      B        0x18560 ; am_hal_daxi_control + 36
    $d
        0x000185b2:    0000        ..      DCW    0
        0x000185b4:    47ff0000    ...G    DCD    1207894016
        0x000185b8:    1000006c    l...    DCD    268435564
    $t
    i.am_hal_delay_us
    am_hal_delay_us
        0x000185bc:    4908        .I      LDR      r1,[pc,#32] ; [0x185e0] = 0x40021000
        0x000185be:    0140        @.      LSLS     r0,r0,#5
        0x000185c0:    6809        .h      LDR      r1,[r1,#0]
        0x000185c2:    f3c101c1    ....    UBFX     r1,r1,#3,#2
        0x000185c6:    2902        .)      CMP      r1,#2
        0x000185c8:    bf06        ..      ITTE     EQ
        0x000185ca:    0040        @.      LSLEQ    r0,r0,#1
        0x000185cc:    2115        .!      MOVEQ    r1,#0x15
        0x000185ce:    210f        .!      MOVNE    r1,#0xf
        0x000185d0:    4288        .B      CMP      r0,r1
        0x000185d2:    bf98        ..      IT       LS
        0x000185d4:    4770        pG      BXLS     lr
        0x000185d6:    1a40        @.      SUBS     r0,r0,r1
        0x000185d8:    4902        .I      LDR      r1,[pc,#8] ; [0x185e4] = 0x1a91c
        0x000185da:    6a49        Ij      LDR      r1,[r1,#0x24]
        0x000185dc:    4708        .G      BX       r1
    $d
        0x000185de:    0000        ..      DCW    0
        0x000185e0:    40021000    ...@    DCD    1073876992
        0x000185e4:    0001a91c    ....    DCD    108828
    $t
    i.am_hal_delay_us_status_change
    am_hal_delay_us_status_change
        0x000185e8:    e92d47f0    -..G    PUSH     {r4-r10,lr}
        0x000185ec:    f8df8048    ..H.    LDR      r8,[pc,#72] ; [0x18638] = 0x40021000
        0x000185f0:    f8df9048    ..H.    LDR      r9,[pc,#72] ; [0x1863c] = 0x1a91c
        0x000185f4:    461d        .F      MOV      r5,r3
        0x000185f6:    4616        .F      MOV      r6,r2
        0x000185f8:    460f        .F      MOV      r7,r1
        0x000185fa:    4604        .F      MOV      r4,r0
        0x000185fc:    6838        8h      LDR      r0,[r7,#0]
        0x000185fe:    4030        0@      ANDS     r0,r0,r6
        0x00018600:    42a8        .B      CMP      r0,r5
        0x00018602:    d102        ..      BNE      0x1860a ; am_hal_delay_us_status_change + 34
        0x00018604:    2000        .       MOVS     r0,#0
        0x00018606:    e8bd87f0    ....    POP      {r4-r10,pc}
        0x0001860a:    1e64        d.      SUBS     r4,r4,#1
        0x0001860c:    d311        ..      BCC      0x18632 ; am_hal_delay_us_status_change + 74
        0x0001860e:    f8d81000    ....    LDR      r1,[r8,#0]
        0x00018612:    2020                MOVS     r0,#0x20
        0x00018614:    f3c101c1    ....    UBFX     r1,r1,#3,#2
        0x00018618:    2902        .)      CMP      r1,#2
        0x0001861a:    bf06        ..      ITTE     EQ
        0x0001861c:    2040        @       MOVEQ    r0,#0x40
        0x0001861e:    f04f0c15    O...    MOVEQ    r12,#0x15
        0x00018622:    f04f0c0f    O...    MOVNE    r12,#0xf
        0x00018626:    eba0000c    ....    SUB      r0,r0,r12
        0x0001862a:    f8d91024    ..$.    LDR      r1,[r9,#0x24]
        0x0001862e:    4788        .G      BLX      r1
        0x00018630:    e7e4        ..      B        0x185fc ; am_hal_delay_us_status_change + 20
        0x00018632:    2004        .       MOVS     r0,#4
        0x00018634:    e8bd87f0    ....    POP      {r4-r10,pc}
    $d
        0x00018638:    40021000    ...@    DCD    1073876992
        0x0001863c:    0001a91c    ....    DCD    108828
    $t
    i.am_hal_delay_us_status_check
    am_hal_delay_us_status_check
        0x00018640:    e92d47f0    -..G    PUSH     {r4-r10,lr}
        0x00018644:    f8df9054    ..T.    LDR      r9,[pc,#84] ; [0x1869c] = 0x40021000
        0x00018648:    f8dfa054    ..T.    LDR      r10,[pc,#84] ; [0x186a0] = 0x1a91c
        0x0001864c:    f8dd8020    .. .    LDR      r8,[sp,#0x20]
        0x00018650:    461c        .F      MOV      r4,r3
        0x00018652:    4615        .F      MOV      r5,r2
        0x00018654:    460e        .F      MOV      r6,r1
        0x00018656:    4607        .F      MOV      r7,r0
        0x00018658:    6830        0h      LDR      r0,[r6,#0]
        0x0001865a:    f1b80f00    ....    CMP      r8,#0
        0x0001865e:    ea000005    ....    AND      r0,r0,r5
        0x00018662:    d002        ..      BEQ      0x1866a ; am_hal_delay_us_status_check + 42
        0x00018664:    42a0        .B      CMP      r0,r4
        0x00018666:    d002        ..      BEQ      0x1866e ; am_hal_delay_us_status_check + 46
        0x00018668:    e004        ..      B        0x18674 ; am_hal_delay_us_status_check + 52
        0x0001866a:    42a0        .B      CMP      r0,r4
        0x0001866c:    d002        ..      BEQ      0x18674 ; am_hal_delay_us_status_check + 52
        0x0001866e:    2000        .       MOVS     r0,#0
        0x00018670:    e8bd87f0    ....    POP      {r4-r10,pc}
        0x00018674:    1e7f        ..      SUBS     r7,r7,#1
        0x00018676:    d30e        ..      BCC      0x18696 ; am_hal_delay_us_status_check + 86
        0x00018678:    f8d91000    ....    LDR      r1,[r9,#0]
        0x0001867c:    2020                MOVS     r0,#0x20
        0x0001867e:    f3c101c1    ....    UBFX     r1,r1,#3,#2
        0x00018682:    2902        .)      CMP      r1,#2
        0x00018684:    bf06        ..      ITTE     EQ
        0x00018686:    2040        @       MOVEQ    r0,#0x40
        0x00018688:    2115        .!      MOVEQ    r1,#0x15
        0x0001868a:    210f        .!      MOVNE    r1,#0xf
        0x0001868c:    1a40        @.      SUBS     r0,r0,r1
        0x0001868e:    f8da1024    ..$.    LDR      r1,[r10,#0x24]
        0x00018692:    4788        .G      BLX      r1
        0x00018694:    e7e0        ..      B        0x18658 ; am_hal_delay_us_status_check + 24
        0x00018696:    2004        .       MOVS     r0,#4
        0x00018698:    e8bd87f0    ....    POP      {r4-r10,pc}
    $d
        0x0001869c:    40021000    ...@    DCD    1073876992
        0x000186a0:    0001a91c    ....    DCD    108828
    $t
    i.am_hal_gpio_pinconfig
    am_hal_gpio_pinconfig
        0x000186a4:    b403        ..      PUSH     {r0,r1}
        0x000186a6:    4912        .I      LDR      r1,[pc,#72] ; [0x186f0] = 0x40010000
        0x000186a8:    2880        .(      CMP      r0,#0x80
        0x000186aa:    bf22        ".      ITTT     CS
        0x000186ac:    2005        .       MOVCS    r0,#5
        0x000186ae:    b002        ..      ADDCS    sp,sp,#8
        0x000186b0:    4770        pG      BXCS     lr
        0x000186b2:    9a01        ..      LDR      r2,[sp,#4]
        0x000186b4:    f3c22281    ..."    UBFX     r2,r2,#10,#2
        0x000186b8:    2a01        .*      CMP      r2,#1
        0x000186ba:    d90e        ..      BLS      0x186da ; am_hal_gpio_pinconfig + 54
        0x000186bc:    4b0d        .K      LDR      r3,[pc,#52] ; [0x186f4] = 0x1a668
        0x000186be:    0942        B.      LSRS     r2,r0,#5
        0x000186c0:    f04f0c01    O...    MOV      r12,#1
        0x000186c4:    f8532022    S."     LDR      r2,[r3,r2,LSL #2]
        0x000186c8:    f000031f    ....    AND      r3,r0,#0x1f
        0x000186cc:    fa0cf303    ....    LSL      r3,r12,r3
        0x000186d0:    421a        .B      TST      r2,r3
        0x000186d2:    bf02        ..      ITTT     EQ
        0x000186d4:    2007        .       MOVEQ    r0,#7
        0x000186d6:    b002        ..      ADDEQ    sp,sp,#8
        0x000186d8:    4770        pG      BXEQ     lr
        0x000186da:    2273        s"      MOVS     r2,#0x73
        0x000186dc:    f8c12200    ..."    STR      r2,[r1,#0x200]
        0x000186e0:    9a01        ..      LDR      r2,[sp,#4]
        0x000186e2:    f8412020    A.      STR      r2,[r1,r0,LSL #2]
        0x000186e6:    2000        .       MOVS     r0,#0
        0x000186e8:    f8c10200    ....    STR      r0,[r1,#0x200]
        0x000186ec:    b002        ..      ADD      sp,sp,#8
        0x000186ee:    4770        pG      BX       lr
    $d
        0x000186f0:    40010000    ...@    DCD    1073807360
        0x000186f4:    0001a668    h...    DCD    108136
    $t
    i.am_hal_gpio_state_write
    am_hal_gpio_state_write
        0x000186f8:    b538        8.      PUSH     {r3-r5,lr}
        0x000186fa:    f000021f    ....    AND      r2,r0,#0x1f
        0x000186fe:    2301        .#      MOVS     r3,#1
        0x00018700:    fa03f502    ....    LSL      r5,r3,r2
        0x00018704:    f3c01041    ..A.    UBFX     r0,r0,#5,#2
        0x00018708:    0080        ..      LSLS     r0,r0,#2
        0x0001870a:    f1004480    ...D    ADD      r4,r0,#0x40000000
        0x0001870e:    f5043480    ...4    ADD      r4,r4,#0x10000
        0x00018712:    2906        .)      CMP      r1,#6
        0x00018714:    d227        '.      BCS      0x18766 ; am_hal_gpio_state_write + 110
        0x00018716:    e8dff001    ....    TBB      [pc,r1]
    $d
        0x0001871a:    0603        ..      DCW    1539
        0x0001871c:    1b181509    ....    DCD    454563081
    $t
        0x00018720:    f8c45234    ..4R    STR      r5,[r4,#0x234]
        0x00018724:    e01f        ..      B        0x18766 ; am_hal_gpio_state_write + 110
        0x00018726:    f8c45224    ..$R    STR      r5,[r4,#0x224]
        0x0001872a:    e01c        ..      B        0x18766 ; am_hal_gpio_state_write + 110
        0x0001872c:    f7fffdd6    ....    BL       am_hal_interrupt_master_disable ; 0x182dc
        0x00018730:    9000        ..      STR      r0,[sp,#0]
        0x00018732:    f8d40214    ....    LDR      r0,[r4,#0x214]
        0x00018736:    4068        h@      EORS     r0,r0,r5
        0x00018738:    f8c40214    ....    STR      r0,[r4,#0x214]
        0x0001873c:    9800        ..      LDR      r0,[sp,#0]
        0x0001873e:    f7fffdd1    ....    BL       am_hal_interrupt_master_set ; 0x182e4
        0x00018742:    e010        ..      B        0x18766 ; am_hal_gpio_state_write + 110
        0x00018744:    f8c45264    ..dR    STR      r5,[r4,#0x264]
        0x00018748:    e00d        ..      B        0x18766 ; am_hal_gpio_state_write + 110
        0x0001874a:    f8c45254    ..TR    STR      r5,[r4,#0x254]
        0x0001874e:    e00a        ..      B        0x18766 ; am_hal_gpio_state_write + 110
        0x00018750:    f7fffdc4    ....    BL       am_hal_interrupt_master_disable ; 0x182dc
        0x00018754:    9000        ..      STR      r0,[sp,#0]
        0x00018756:    f8d40244    ..D.    LDR      r0,[r4,#0x244]
        0x0001875a:    4068        h@      EORS     r0,r0,r5
        0x0001875c:    f8c40244    ..D.    STR      r0,[r4,#0x244]
        0x00018760:    9800        ..      LDR      r0,[sp,#0]
        0x00018762:    f7fffdbf    ....    BL       am_hal_interrupt_master_set ; 0x182e4
        0x00018766:    2000        .       MOVS     r0,#0
        0x00018768:    bd38        8.      POP      {r3-r5,pc}
        0x0001876a:    0000        ..      MOVS     r0,r0
    i.am_hal_mram_info_read
    am_hal_mram_info_read
        0x0001876c:    b410        ..      PUSH     {r4}
        0x0001876e:    0004        ..      MOVS     r4,r0
        0x00018770:    f04f0000    O...    MOV      r0,#0
        0x00018774:    eb010c02    ....    ADD      r12,r1,r2
        0x00018778:    d012        ..      BEQ      0x187a0 ; am_hal_mram_info_read + 52
        0x0001877a:    2c01        .,      CMP      r4,#1
        0x0001877c:    bf1e        ..      ITTT     NE
        0x0001877e:    2001        .       MOVNE    r0,#1
        0x00018780:    bc10        ..      POPNE    {r4}
        0x00018782:    4770        pG      BXNE     lr
        0x00018784:    f5a16490    ...d    SUB      r4,r1,#0x480
        0x00018788:    f5b47fc0    ....    CMP      r4,#0x180
        0x0001878c:    d205        ..      BCS      0x1879a ; am_hal_mram_info_read + 46
        0x0001878e:    f5bc6fc0    ...o    CMP      r12,#0x600
        0x00018792:    bf98        ..      IT       LS
        0x00018794:    f8dfc040    ..@.    LDRLS    r12,[pc,#64] ; [0x187d8] = 0x42002000
        0x00018798:    d90b        ..      BLS      0x187b2 ; am_hal_mram_info_read + 70
        0x0001879a:    bc10        ..      POP      {r4}
        0x0001879c:    2002        .       MOVS     r0,#2
        0x0001879e:    4770        pG      BX       lr
        0x000187a0:    f5b17f00    ....    CMP      r1,#0x200
        0x000187a4:    d2f9        ..      BCS      0x1879a ; am_hal_mram_info_read + 46
        0x000187a6:    f5bc7f00    ....    CMP      r12,#0x200
        0x000187aa:    bf98        ..      IT       LS
        0x000187ac:    f04f4c84    O..L    MOVLS    r12,#0x42000000
        0x000187b0:    d8f3        ..      BHI      0x1879a ; am_hal_mram_info_read + 46
        0x000187b2:    eb0c0181    ....    ADD      r1,r12,r1,LSL #2
        0x000187b6:    f04f0c00    O...    MOV      r12,#0
        0x000187ba:    2a00        .*      CMP      r2,#0
        0x000187bc:    bf9c        ..      ITT      LS
        0x000187be:    bc10        ..      POPLS    {r4}
        0x000187c0:    4770        pG      BXLS     lr
        0x000187c2:    bf00        ..      NOP      
        0x000187c4:    f8514b04    Q..K    LDR      r4,[r1],#4
        0x000187c8:    f10c0c01    ....    ADD      r12,r12,#1
        0x000187cc:    f8434b04    C..K    STR      r4,[r3],#4
        0x000187d0:    4562        bE      CMP      r2,r12
        0x000187d2:    d8f7        ..      BHI      0x187c4 ; am_hal_mram_info_read + 88
        0x000187d4:    bc10        ..      POP      {r4}
        0x000187d6:    4770        pG      BX       lr
    $d
        0x000187d8:    42002000    . .B    DCD    1107304448
    $t
    i.am_hal_pwrctrl_control
    am_hal_pwrctrl_control
        0x000187dc:    e92d41f0    -..A    PUSH     {r4-r8,lr}
        0x000187e0:    2600        .&      MOVS     r6,#0
        0x000187e2:    4f83        .O      LDR      r7,[pc,#524] ; [0x189f0] = 0x40021000
        0x000187e4:    4d83        .M      LDR      r5,[pc,#524] ; [0x189f4] = 0x10000024
        0x000187e6:    4c84        .L      LDR      r4,[pc,#528] ; [0x189f8] = 0x40020000
        0x000187e8:    46b0        .F      MOV      r8,r6
        0x000187ea:    2805        .(      CMP      r0,#5
        0x000187ec:    f08080fc    ....    BCS.W    0x189e8 ; am_hal_pwrctrl_control + 524
        0x000187f0:    e8dff000    ....    TBB      [pc,r0]
    $d
        0x000187f4:    f1e4d603    ....    DCD    4058306051
        0x000187f8:    00f4        ..      DCW    244
    $t
        0x000187fa:    68a8        .h      LDR      r0,[r5,#8]
        0x000187fc:    f1b03fff    ...?    CMP      r0,#0xffffffff
        0x00018800:    d10d        ..      BNE      0x1881e ; am_hal_pwrctrl_control + 66
        0x00018802:    2201        ."      MOVS     r2,#1
        0x00018804:    4b7d        }K      LDR      r3,[pc,#500] ; [0x189fc] = 0x1000002c
        0x00018806:    f24041c4    @..A    MOV      r1,#0x4c4
        0x0001880a:    4610        .F      MOV      r0,r2
        0x0001880c:    f7ffffae    ....    BL       am_hal_mram_info_read ; 0x1876c
        0x00018810:    b918        ..      CBNZ     r0,0x1881a ; am_hal_pwrctrl_control + 62
        0x00018812:    68a8        .h      LDR      r0,[r5,#8]
        0x00018814:    f1b03fff    ...?    CMP      r0,#0xffffffff
        0x00018818:    d101        ..      BNE      0x1881e ; am_hal_pwrctrl_control + 66
        0x0001881a:    f8c58008    ....    STR      r8,[r5,#8]
        0x0001881e:    68a8        .h      LDR      r0,[r5,#8]
        0x00018820:    2803        .(      CMP      r0,#3
        0x00018822:    d237        7.      BCS      0x18894 ; am_hal_pwrctrl_control + 184
        0x00018824:    f8d41378    ..x.    LDR      r1,[r4,#0x378]
        0x00018828:    f02151f8    !..Q    BIC      r1,r1,#0x1f000000
        0x0001882c:    f8c41378    ..x.    STR      r1,[r4,#0x378]
        0x00018830:    f8d41358    ..X.    LDR      r1,[r4,#0x358]
        0x00018834:    f42101f8    !...    BIC      r1,r1,#0x7c0000
        0x00018838:    f8c41358    ..X.    STR      r1,[r4,#0x358]
        0x0001883c:    f8d41344    ..D.    LDR      r1,[r4,#0x344]
        0x00018840:    f02151f8    !..Q    BIC      r1,r1,#0x1f000000
        0x00018844:    f1016120    .. a    ADD      r1,r1,#0xa000000
        0x00018848:    f8c41344    ..D.    STR      r1,[r4,#0x344]
        0x0001884c:    f8d41344    ..D.    LDR      r1,[r4,#0x344]
        0x00018850:    f42141f0    !..A    BIC      r1,r1,#0x7800
        0x00018854:    f50141a0    ...A    ADD      r1,r1,#0x5000
        0x00018858:    f8c41344    ..D.    STR      r1,[r4,#0x344]
        0x0001885c:    f8d41358    ..X.    LDR      r1,[r4,#0x358]
        0x00018860:    f42151f8    !..Q    BIC      r1,r1,#0x1f00
        0x00018864:    f5016170    ..pa    ADD      r1,r1,#0xf00
        0x00018868:    f8c41358    ..X.    STR      r1,[r4,#0x358]
        0x0001886c:    f8d41354    ..T.    LDR      r1,[r4,#0x354]
        0x00018870:    f44111f0    A...    ORR      r1,r1,#0x1e0000
        0x00018874:    f8c41354    ..T.    STR      r1,[r4,#0x354]
        0x00018878:    f8d41360    ..`.    LDR      r1,[r4,#0x360]
        0x0001887c:    f02161f8    !..a    BIC      r1,r1,#0x7c00000
        0x00018880:    f1017170    ..pq    ADD      r1,r1,#0x3c00000
        0x00018884:    f8c41360    ..`.    STR      r1,[r4,#0x360]
        0x00018888:    f8d41360    ..`.    LDR      r1,[r4,#0x360]
        0x0001888c:    f44111f0    A...    ORR      r1,r1,#0x1e0000
        0x00018890:    f8c41360    ..`.    STR      r1,[r4,#0x360]
        0x00018894:    f8d41348    ..H.    LDR      r1,[r4,#0x348]
        0x00018898:    f0215170    !.pQ    BIC      r1,r1,#0x3c000000
        0x0001889c:    f1015120    .. Q    ADD      r1,r1,#0x28000000
        0x000188a0:    f8c41348    ..H.    STR      r1,[r4,#0x348]
        0x000188a4:    f8d41348    ..H.    LDR      r1,[r4,#0x348]
        0x000188a8:    f42131f0    !..1    BIC      r1,r1,#0x1e000
        0x000188ac:    f50131a0    ...1    ADD      r1,r1,#0x14000
        0x000188b0:    f8c41348    ..H.    STR      r1,[r4,#0x348]
        0x000188b4:    f8d4135c    ..\.    LDR      r1,[r4,#0x35c]
        0x000188b8:    f0417170    A.pq    ORR      r1,r1,#0x3c00000
        0x000188bc:    f8c4135c    ..\.    STR      r1,[r4,#0x35c]
        0x000188c0:    f8d4135c    ..\.    LDR      r1,[r4,#0x35c]
        0x000188c4:    f44151f0    A..Q    ORR      r1,r1,#0x1e00
        0x000188c8:    f8c4135c    ..\.    STR      r1,[r4,#0x35c]
        0x000188cc:    f8d41380    ....    LDR      r1,[r4,#0x380]
        0x000188d0:    f0414100    A..A    ORR      r1,r1,#0x80000000
        0x000188d4:    f8c41380    ....    STR      r1,[r4,#0x380]
        0x000188d8:    f8d41380    ....    LDR      r1,[r4,#0x380]
        0x000188dc:    f0414180    A..A    ORR      r1,r1,#0x40000000
        0x000188e0:    f8c41380    ....    STR      r1,[r4,#0x380]
        0x000188e4:    f8d41370    ..p.    LDR      r1,[r4,#0x370]
        0x000188e8:    f3c15105    ...Q    UBFX     r1,r1,#20,#6
        0x000188ec:    60e9        .`      STR      r1,[r5,#0xc]
        0x000188ee:    f8d41370    ..p.    LDR      r1,[r4,#0x370]
        0x000188f2:    f021717c    !.|q    BIC      r1,r1,#0x3f00000
        0x000188f6:    f8c41370    ..p.    STR      r1,[r4,#0x370]
        0x000188fa:    f04f0107    O...    MOV      r1,#7
        0x000188fe:    f8c4133c    ..<.    STR      r1,[r4,#0x33c]
        0x00018902:    d20d        ..      BCS      0x18920 ; am_hal_pwrctrl_control + 324
        0x00018904:    f8d41340    ..@.    LDR      r1,[r4,#0x340]
        0x00018908:    f0217170    !.pq    BIC      r1,r1,#0x3c00000
        0x0001890c:    f8c41340    ..@.    STR      r1,[r4,#0x340]
        0x00018910:    f8d41340    ..@.    LDR      r1,[r4,#0x340]
        0x00018914:    f42161f8    !..a    BIC      r1,r1,#0x7c0
        0x00018918:    f1010140    ..@.    ADD      r1,r1,#0x40
        0x0001891c:    f8c41340    ..@.    STR      r1,[r4,#0x340]
        0x00018920:    2806        .(      CMP      r0,#6
        0x00018922:    d308        ..      BCC      0x18936 ; am_hal_pwrctrl_control + 346
        0x00018924:    200f        .       MOVS     r0,#0xf
        0x00018926:    f8c4033c    ..<.    STR      r0,[r4,#0x33c]
        0x0001892a:    f8d401b0    ....    LDR      r0,[r4,#0x1b0]
        0x0001892e:    f0200018     ...    BIC      r0,r0,#0x18
        0x00018932:    f8c401b0    ....    STR      r0,[r4,#0x1b0]
        0x00018936:    f8d70100    ....    LDR      r0,[r7,#0x100]
        0x0001893a:    f0400001    @...    ORR      r0,r0,#1
        0x0001893e:    f8c70100    ....    STR      r0,[r7,#0x100]
        0x00018942:    f8d40378    ..x.    LDR      r0,[r4,#0x378]
        0x00018946:    f0404000    @..@    ORR      r0,r0,#0x80000000
        0x0001894a:    f8c40378    ..x.    STR      r0,[r4,#0x378]
        0x0001894e:    6e20         n      LDR      r0,[r4,#0x60]
        0x00018950:    f4403000    @..0    ORR      r0,r0,#0x20000
        0x00018954:    6620         f      STR      r0,[r4,#0x60]
        0x00018956:    6e20         n      LDR      r0,[r4,#0x60]
        0x00018958:    f4402080    @..     ORR      r0,r0,#0x40000
        0x0001895c:    6620         f      STR      r0,[r4,#0x60]
        0x0001895e:    6e20         n      LDR      r0,[r4,#0x60]
        0x00018960:    f4402000    @..     ORR      r0,r0,#0x80000
        0x00018964:    6620         f      STR      r0,[r4,#0x60]
        0x00018966:    6e20         n      LDR      r0,[r4,#0x60]
        0x00018968:    f4403080    @..0    ORR      r0,r0,#0x10000
        0x0001896c:    6620         f      STR      r0,[r4,#0x60]
        0x0001896e:    6e20         n      LDR      r0,[r4,#0x60]
        0x00018970:    f0200010     ...    BIC      r0,r0,#0x10
        0x00018974:    6620         f      STR      r0,[r4,#0x60]
        0x00018976:    6e20         n      LDR      r0,[r4,#0x60]
        0x00018978:    f040000e    @...    ORR      r0,r0,#0xe
        0x0001897c:    6620         f      STR      r0,[r4,#0x60]
        0x0001897e:    6e20         n      LDR      r0,[r4,#0x60]
        0x00018980:    f0400001    @...    ORR      r0,r0,#1
        0x00018984:    6620         f      STR      r0,[r4,#0x60]
        0x00018986:    6e20         n      LDR      r0,[r4,#0x60]
        0x00018988:    f4207000     ..p    BIC      r0,r0,#0x200
        0x0001898c:    6620         f      STR      r0,[r4,#0x60]
        0x0001898e:    6e20         n      LDR      r0,[r4,#0x60]
        0x00018990:    f44070e0    @..p    ORR      r0,r0,#0x1c0
        0x00018994:    6620         f      STR      r0,[r4,#0x60]
        0x00018996:    6e20         n      LDR      r0,[r4,#0x60]
        0x00018998:    f0400020    @. .    ORR      r0,r0,#0x20
        0x0001899c:    6620         f      STR      r0,[r4,#0x60]
        0x0001899e:    e024        $.      B        0x189ea ; am_hal_pwrctrl_control + 526
        0x000189a0:    4917        .I      LDR      r1,[pc,#92] ; [0x18a00] = 0x1a684
        0x000189a2:    e9d10152    ..R.    LDRD     r0,r1,[r1,#0x148]
        0x000189a6:    6800        .h      LDR      r0,[r0,#0]
        0x000189a8:    4008        .@      ANDS     r0,r0,r1
        0x000189aa:    bf18        ..      IT       NE
        0x000189ac:    2001        .       MOVNE    r0,#1
        0x000189ae:    b1e0        ..      CBZ      r0,0x189ea ; am_hal_pwrctrl_control + 526
        0x000189b0:    2014        .       MOVS     r0,#0x14
        0x000189b2:    f000f9f9    ....    BL       am_hal_pwrctrl_periph_disable ; 0x18da8
        0x000189b6:    b1c0        ..      CBZ      r0,0x189ea ; am_hal_pwrctrl_control + 526
        0x000189b8:    e8bd81f0    ....    POP      {r4-r8,pc}
        0x000189bc:    f8d40124    ..$.    LDR      r0,[r4,#0x124]
        0x000189c0:    f02000fc     ...    BIC      r0,r0,#0xfc
        0x000189c4:    3080        .0      ADDS     r0,r0,#0x80
        0x000189c6:    f8c40124    ..$.    STR      r0,[r4,#0x124]
        0x000189ca:    2001        .       MOVS     r0,#1
        0x000189cc:    f8c40120    .. .    STR      r0,[r4,#0x120]
        0x000189d0:    e00b        ..      B        0x189ea ; am_hal_pwrctrl_control + 526
        0x000189d2:    e003        ..      B        0x189dc ; am_hal_pwrctrl_control + 512
        0x000189d4:    e7ff        ..      B        0x189d6 ; am_hal_pwrctrl_control + 506
        0x000189d6:    f8c78004    ....    STR      r8,[r7,#4]
        0x000189da:    e006        ..      B        0x189ea ; am_hal_pwrctrl_control + 526
        0x000189dc:    2900        .)      CMP      r1,#0
        0x000189de:    bf1c        ..      ITT      NE
        0x000189e0:    ed950a0f    ....    VLDRNE   s0,[r5,#0x3c]
        0x000189e4:    ed810a00    ....    VSTRNE   s0,[r1,#0]
        0x000189e8:    2606        .&      MOVS     r6,#6
        0x000189ea:    4630        0F      MOV      r0,r6
        0x000189ec:    e8bd81f0    ....    POP      {r4-r8,pc}
    $d
        0x000189f0:    40021000    ...@    DCD    1073876992
        0x000189f4:    10000024    $...    DCD    268435492
        0x000189f8:    40020000    ...@    DCD    1073872896
        0x000189fc:    1000002c    ,...    DCD    268435500
        0x00018a00:    0001a684    ....    DCD    108164
    $t
    i.am_hal_pwrctrl_dsp_memory_config
    am_hal_pwrctrl_dsp_memory_config
        0x00018a04:    b5f8        ..      PUSH     {r3-r7,lr}
        0x00018a06:    460e        .F      MOV      r6,r1
        0x00018a08:    0001        ..      MOVS     r1,r0
        0x00018a0a:    f04f0000    O...    MOV      r0,#0
        0x00018a0e:    4c51        QL      LDR      r4,[pc,#324] ; [0x18b54] = 0x40021000
        0x00018a10:    4607        .F      MOV      r7,r0
        0x00018a12:    f04f0501    O...    MOV      r5,#1
        0x00018a16:    d02f        /.      BEQ      0x18a78 ; am_hal_pwrctrl_dsp_memory_config + 116
        0x00018a18:    2901        .)      CMP      r1,#1
        0x00018a1a:    bf18        ..      IT       NE
        0x00018a1c:    bdf8        ..      POPNE    {r3-r7,pc}
        0x00018a1e:    7830        0x      LDRB     r0,[r6,#0]
        0x00018a20:    2800        .(      CMP      r0,#0
        0x00018a22:    6fa0        .o      LDR      r0,[r4,#0x78]
        0x00018a24:    bf14        ..      ITE      NE
        0x00018a26:    f0400002    @...    ORRNE    r0,r0,#2
        0x00018a2a:    f0200002     ...    BICEQ    r0,r0,#2
        0x00018a2e:    67a0        .g      STR      r0,[r4,#0x78]
        0x00018a30:    78b0        .x      LDRB     r0,[r6,#2]
        0x00018a32:    2800        .(      CMP      r0,#0
        0x00018a34:    6fa0        .o      LDR      r0,[r4,#0x78]
        0x00018a36:    bf14        ..      ITE      NE
        0x00018a38:    f0400001    @...    ORRNE    r0,r0,#1
        0x00018a3c:    f0200001     ...    BICEQ    r0,r0,#1
        0x00018a40:    67a0        .g      STR      r0,[r4,#0x78]
        0x00018a42:    9500        ..      STR      r5,[sp,#0]
        0x00018a44:    6fa3        .o      LDR      r3,[r4,#0x78]
        0x00018a46:    2203        ."      MOVS     r2,#3
        0x00018a48:    4943        CI      LDR      r1,[pc,#268] ; [0x18b58] = 0x4002107c
        0x00018a4a:    2005        .       MOVS     r0,#5
        0x00018a4c:    f7fffdf8    ....    BL       am_hal_delay_us_status_check ; 0x18640
        0x00018a50:    2800        .(      CMP      r0,#0
        0x00018a52:    bf18        ..      IT       NE
        0x00018a54:    bdf8        ..      POPNE    {r3-r7,pc}
        0x00018a56:    6fe0        .o      LDR      r0,[r4,#0x7c]
        0x00018a58:    6fa1        .o      LDR      r1,[r4,#0x78]
        0x00018a5a:    f3c00040    ..@.    UBFX     r0,r0,#1,#1
        0x00018a5e:    f3c10140    ..@.    UBFX     r1,r1,#1,#1
        0x00018a62:    4288        .B      CMP      r0,r1
        0x00018a64:    d134        4.      BNE      0x18ad0 ; am_hal_pwrctrl_dsp_memory_config + 204
        0x00018a66:    6fe0        .o      LDR      r0,[r4,#0x7c]
        0x00018a68:    6fa1        .o      LDR      r1,[r4,#0x78]
        0x00018a6a:    f0000001    ....    AND      r0,r0,#1
        0x00018a6e:    f0010101    ....    AND      r1,r1,#1
        0x00018a72:    4288        .B      CMP      r0,r1
        0x00018a74:    d12c        ,.      BNE      0x18ad0 ; am_hal_pwrctrl_dsp_memory_config + 204
        0x00018a76:    e04a        J.      B        0x18b0e ; am_hal_pwrctrl_dsp_memory_config + 266
        0x00018a78:    7830        0x      LDRB     r0,[r6,#0]
        0x00018a7a:    2800        .(      CMP      r0,#0
        0x00018a7c:    6da0        .m      LDR      r0,[r4,#0x58]
        0x00018a7e:    bf14        ..      ITE      NE
        0x00018a80:    f0400002    @...    ORRNE    r0,r0,#2
        0x00018a84:    f0200002     ...    BICEQ    r0,r0,#2
        0x00018a88:    65a0        .e      STR      r0,[r4,#0x58]
        0x00018a8a:    78b0        .x      LDRB     r0,[r6,#2]
        0x00018a8c:    2800        .(      CMP      r0,#0
        0x00018a8e:    6da0        .m      LDR      r0,[r4,#0x58]
        0x00018a90:    bf14        ..      ITE      NE
        0x00018a92:    f0400001    @...    ORRNE    r0,r0,#1
        0x00018a96:    f0200001     ...    BICEQ    r0,r0,#1
        0x00018a9a:    65a0        .e      STR      r0,[r4,#0x58]
        0x00018a9c:    9500        ..      STR      r5,[sp,#0]
        0x00018a9e:    6da3        .m      LDR      r3,[r4,#0x58]
        0x00018aa0:    2203        ."      MOVS     r2,#3
        0x00018aa2:    492e        .I      LDR      r1,[pc,#184] ; [0x18b5c] = 0x4002105c
        0x00018aa4:    2005        .       MOVS     r0,#5
        0x00018aa6:    f7fffdcb    ....    BL       am_hal_delay_us_status_check ; 0x18640
        0x00018aaa:    2800        .(      CMP      r0,#0
        0x00018aac:    bf18        ..      IT       NE
        0x00018aae:    bdf8        ..      POPNE    {r3-r7,pc}
        0x00018ab0:    6de0        .m      LDR      r0,[r4,#0x5c]
        0x00018ab2:    6da1        .m      LDR      r1,[r4,#0x58]
        0x00018ab4:    f3c00040    ..@.    UBFX     r0,r0,#1,#1
        0x00018ab8:    f3c10140    ..@.    UBFX     r1,r1,#1,#1
        0x00018abc:    4288        .B      CMP      r0,r1
        0x00018abe:    d107        ..      BNE      0x18ad0 ; am_hal_pwrctrl_dsp_memory_config + 204
        0x00018ac0:    6de0        .m      LDR      r0,[r4,#0x5c]
        0x00018ac2:    6da1        .m      LDR      r1,[r4,#0x58]
        0x00018ac4:    f0000001    ....    AND      r0,r0,#1
        0x00018ac8:    f0010101    ....    AND      r1,r1,#1
        0x00018acc:    4288        .B      CMP      r0,r1
        0x00018ace:    d001        ..      BEQ      0x18ad4 ; am_hal_pwrctrl_dsp_memory_config + 208
        0x00018ad0:    4628        (F      MOV      r0,r5
        0x00018ad2:    bdf8        ..      POP      {r3-r7,pc}
        0x00018ad4:    7870        px      LDRB     r0,[r6,#1]
        0x00018ad6:    2800        .(      CMP      r0,#0
        0x00018ad8:    6e20         n      LDR      r0,[r4,#0x60]
        0x00018ada:    bf14        ..      ITE      NE
        0x00018adc:    f0200004     ...    BICNE    r0,r0,#4
        0x00018ae0:    f0400004    @...    ORREQ    r0,r0,#4
        0x00018ae4:    6620         f      STR      r0,[r4,#0x60]
        0x00018ae6:    78f0        .x      LDRB     r0,[r6,#3]
        0x00018ae8:    2800        .(      CMP      r0,#0
        0x00018aea:    6e20         n      LDR      r0,[r4,#0x60]
        0x00018aec:    bf14        ..      ITE      NE
        0x00018aee:    f0400002    @...    ORRNE    r0,r0,#2
        0x00018af2:    f0200002     ...    BICEQ    r0,r0,#2
        0x00018af6:    6620         f      STR      r0,[r4,#0x60]
        0x00018af8:    7930        0y      LDRB     r0,[r6,#4]
        0x00018afa:    2800        .(      CMP      r0,#0
        0x00018afc:    6e20         n      LDR      r0,[r4,#0x60]
        0x00018afe:    bf14        ..      ITE      NE
        0x00018b00:    f0200001     ...    BICNE    r0,r0,#1
        0x00018b04:    f0400001    @...    ORREQ    r0,r0,#1
        0x00018b08:    6620         f      STR      r0,[r4,#0x60]
        0x00018b0a:    4638        8F      MOV      r0,r7
        0x00018b0c:    bdf8        ..      POP      {r3-r7,pc}
        0x00018b0e:    7870        px      LDRB     r0,[r6,#1]
        0x00018b10:    2800        .(      CMP      r0,#0
        0x00018b12:    f8d40080    ....    LDR      r0,[r4,#0x80]
        0x00018b16:    bf14        ..      ITE      NE
        0x00018b18:    f0200004     ...    BICNE    r0,r0,#4
        0x00018b1c:    f0400004    @...    ORREQ    r0,r0,#4
        0x00018b20:    f8c40080    ....    STR      r0,[r4,#0x80]
        0x00018b24:    78f0        .x      LDRB     r0,[r6,#3]
        0x00018b26:    2800        .(      CMP      r0,#0
        0x00018b28:    f8d40080    ....    LDR      r0,[r4,#0x80]
        0x00018b2c:    bf14        ..      ITE      NE
        0x00018b2e:    f0400002    @...    ORRNE    r0,r0,#2
        0x00018b32:    f0200002     ...    BICEQ    r0,r0,#2
        0x00018b36:    f8c40080    ....    STR      r0,[r4,#0x80]
        0x00018b3a:    7930        0y      LDRB     r0,[r6,#4]
        0x00018b3c:    2800        .(      CMP      r0,#0
        0x00018b3e:    f8d40080    ....    LDR      r0,[r4,#0x80]
        0x00018b42:    bf14        ..      ITE      NE
        0x00018b44:    f0200001     ...    BICNE    r0,r0,#1
        0x00018b48:    f0400001    @...    ORREQ    r0,r0,#1
        0x00018b4c:    f8c40080    ....    STR      r0,[r4,#0x80]
        0x00018b50:    e7db        ..      B        0x18b0a ; am_hal_pwrctrl_dsp_memory_config + 262
    $d
        0x00018b52:    0000        ..      DCW    0
        0x00018b54:    40021000    ...@    DCD    1073876992
        0x00018b58:    4002107c    |..@    DCD    1073877116
        0x00018b5c:    4002105c    \..@    DCD    1073877084
    $t
    i.am_hal_pwrctrl_low_power_init
    am_hal_pwrctrl_low_power_init
        0x00018b60:    b5f8        ..      PUSH     {r3-r7,lr}
        0x00018b62:    4d43        CM      LDR      r5,[pc,#268] ; [0x18c70] = 0x40021000
        0x00018b64:    68a8        .h      LDR      r0,[r5,#8]
        0x00018b66:    4e43        CN      LDR      r6,[pc,#268] ; [0x18c74] = 0x10000024
        0x00018b68:    f3c05000    ...P    UBFX     r0,r0,#20,#1
        0x00018b6c:    f5057582    ...u    ADD      r5,r5,#0x104
        0x00018b70:    70b0        .p      STRB     r0,[r6,#2]
        0x00018b72:    4841        AH      LDR      r0,[pc,#260] ; [0x18c78] = 0x1a678
        0x00018b74:    f000f88a    ....    BL       am_hal_pwrctrl_mcu_memory_config ; 0x18c8c
        0x00018b78:    4840        @H      LDR      r0,[pc,#256] ; [0x18c7c] = 0x1a67e
        0x00018b7a:    f000fa05    ....    BL       am_hal_pwrctrl_sram_config ; 0x18f88
        0x00018b7e:    f04f2740    O.@'    MOV      r7,#0x40004000
        0x00018b82:    6c78        xl      LDR      r0,[r7,#0x44]
        0x00018b84:    f440007c    @.|.    ORR      r0,r0,#0xfc0000
        0x00018b88:    6478        xd      STR      r0,[r7,#0x44]
        0x00018b8a:    2400        .$      MOVS     r4,#0
        0x00018b8c:    63ec        .c      STR      r4,[r5,#0x3c]
        0x00018b8e:    642c        ,d      STR      r4,[r5,#0x40]
        0x00018b90:    646c        ld      STR      r4,[r5,#0x44]
        0x00018b92:    64ac        .d      STR      r4,[r5,#0x48]
        0x00018b94:    64ec        .d      STR      r4,[r5,#0x4c]
        0x00018b96:    652c        ,e      STR      r4,[r5,#0x50]
        0x00018b98:    656c        le      STR      r4,[r5,#0x54]
        0x00018b9a:    65ac        .e      STR      r4,[r5,#0x58]
        0x00018b9c:    65ec        .e      STR      r4,[r5,#0x5c]
        0x00018b9e:    662c        ,f      STR      r4,[r5,#0x60]
        0x00018ba0:    666c        lf      STR      r4,[r5,#0x64]
        0x00018ba2:    66ac        .f      STR      r4,[r5,#0x68]
        0x00018ba4:    66ec        .f      STR      r4,[r5,#0x6c]
        0x00018ba6:    672c        ,g      STR      r4,[r5,#0x70]
        0x00018ba8:    676c        lg      STR      r4,[r5,#0x74]
        0x00018baa:    67ac        .g      STR      r4,[r5,#0x78]
        0x00018bac:    67ec        .g      STR      r4,[r5,#0x7c]
        0x00018bae:    f8c54080    ...@    STR      r4,[r5,#0x80]
        0x00018bb2:    f8c54084    ...@    STR      r4,[r5,#0x84]
        0x00018bb6:    4832        2H      LDR      r0,[pc,#200] ; [0x18c80] = 0x1a944
        0x00018bb8:    f7fffc74    ..t.    BL       am_hal_daxi_config ; 0x184a4
        0x00018bbc:    2064        d       MOVS     r0,#0x64
        0x00018bbe:    f7fffcfd    ....    BL       am_hal_delay_us ; 0x185bc
        0x00018bc2:    6c78        xl      LDR      r0,[r7,#0x44]
        0x00018bc4:    f0400040    @.@.    ORR      r0,r0,#0x40
        0x00018bc8:    6478        xd      STR      r0,[r7,#0x44]
        0x00018bca:    482e        .H      LDR      r0,[pc,#184] ; [0x18c84] = 0x40020000
        0x00018bcc:    f8d0137c    ..|.    LDR      r1,[r0,#0x37c]
        0x00018bd0:    f44101fd    A...    ORR      r1,r1,#0x7e8000
        0x00018bd4:    f04161b0    A..a    ORR      r1,r1,#0x5800000
        0x00018bd8:    f8c0137c    ..|.    STR      r1,[r0,#0x37c]
        0x00018bdc:    492a        *I      LDR      r1,[pc,#168] ; [0x18c88] = 0x40020444
        0x00018bde:    680a        .h      LDR      r2,[r1,#0]
        0x00018be0:    f422427f    "..B    BIC      r2,r2,#0xff00
        0x00018be4:    f5026280    ...b    ADD      r2,r2,#0x400
        0x00018be8:    600a        .`      STR      r2,[r1,#0]
        0x00018bea:    7871        qx      LDRB     r1,[r6,#1]
        0x00018bec:    b9e9        ..      CBNZ     r1,0x18c2a ; am_hal_pwrctrl_low_power_init + 202
        0x00018bee:    f8d0136c    ..l.    LDR      r1,[r0,#0x36c]
        0x00018bf2:    f3c15105    ...Q    UBFX     r1,r1,#20,#6
        0x00018bf6:    6131        1a      STR      r1,[r6,#0x10]
        0x00018bf8:    f8d01088    ....    LDR      r1,[r0,#0x88]
        0x00018bfc:    f001013f    ..?.    AND      r1,r1,#0x3f
        0x00018c00:    6171        qa      STR      r1,[r6,#0x14]
        0x00018c02:    f8d0136c    ..l.    LDR      r1,[r0,#0x36c]
        0x00018c06:    0e89        ..      LSRS     r1,r1,#26
        0x00018c08:    61b1        .a      STR      r1,[r6,#0x18]
        0x00018c0a:    f8d01088    ....    LDR      r1,[r0,#0x88]
        0x00018c0e:    f3c14185    ...A    UBFX     r1,r1,#18,#6
        0x00018c12:    61f1        .a      STR      r1,[r6,#0x1c]
        0x00018c14:    6c41        Al      LDR      r1,[r0,#0x44]
        0x00018c16:    f3c111c6    ....    UBFX     r1,r1,#7,#7
        0x00018c1a:    6231        1b      STR      r1,[r6,#0x20]
        0x00018c1c:    f8d00080    ....    LDR      r0,[r0,#0x80]
        0x00018c20:    f3c00009    ....    UBFX     r0,r0,#0,#10
        0x00018c24:    6270        pb      STR      r0,[r6,#0x24]
        0x00018c26:    2001        .       MOVS     r0,#1
        0x00018c28:    7070        pp      STRB     r0,[r6,#1]
        0x00018c2a:    6930        0i      LDR      r0,[r6,#0x10]
        0x00018c2c:    62f0        .b      STR      r0,[r6,#0x2c]
        0x00018c2e:    6970        pi      LDR      r0,[r6,#0x14]
        0x00018c30:    62b4        .b      STR      r4,[r6,#0x28]
        0x00018c32:    2201        ."      MOVS     r2,#1
        0x00018c34:    6330        0c      STR      r0,[r6,#0x30]
        0x00018c36:    466b        kF      MOV      r3,sp
        0x00018c38:    f44f6192    O..a    MOV      r1,#0x490
        0x00018c3c:    4610        .F      MOV      r0,r2
        0x00018c3e:    f7fffd95    ....    BL       am_hal_mram_info_read ; 0x1876c
        0x00018c42:    b988        ..      CBNZ     r0,0x18c68 ; am_hal_pwrctrl_low_power_init + 264
        0x00018c44:    9800        ..      LDR      r0,[sp,#0]
        0x00018c46:    f0100f06    ....    TST      r0,#6
        0x00018c4a:    bf04        ..      ITT      EQ
        0x00018c4c:    2003        .       MOVEQ    r0,#3
        0x00018c4e:    62b0        .b      STREQ    r0,[r6,#0x28]
        0x00018c50:    d00a        ..      BEQ      0x18c68 ; am_hal_pwrctrl_low_power_init + 264
        0x00018c52:    f0100f02    ....    TST      r0,#2
        0x00018c56:    bf08        ..      IT       EQ
        0x00018c58:    2006        .       MOVEQ    r0,#6
        0x00018c5a:    d007        ..      BEQ      0x18c6c ; am_hal_pwrctrl_low_power_init + 268
        0x00018c5c:    f0100f04    ....    TST      r0,#4
        0x00018c60:    bf0c        ..      ITE      EQ
        0x00018c62:    2009        .       MOVEQ    r0,#9
        0x00018c64:    62b4        .b      STRNE    r4,[r6,#0x28]
        0x00018c66:    d001        ..      BEQ      0x18c6c ; am_hal_pwrctrl_low_power_init + 268
        0x00018c68:    2000        .       MOVS     r0,#0
        0x00018c6a:    bdf8        ..      POP      {r3-r7,pc}
        0x00018c6c:    62b0        .b      STR      r0,[r6,#0x28]
        0x00018c6e:    e7fb        ..      B        0x18c68 ; am_hal_pwrctrl_low_power_init + 264
    $d
        0x00018c70:    40021000    ...@    DCD    1073876992
        0x00018c74:    10000024    $...    DCD    268435492
        0x00018c78:    0001a678    x...    DCD    108152
        0x00018c7c:    0001a67e    ~...    DCD    108158
        0x00018c80:    0001a944    D...    DCD    108868
        0x00018c84:    40020000    ...@    DCD    1073872896
        0x00018c88:    40020444    D..@    DCD    1073873988
    $t
    i.am_hal_pwrctrl_mcu_memory_config
    am_hal_pwrctrl_mcu_memory_config
        0x00018c8c:    b538        8.      PUSH     {r3-r5,lr}
        0x00018c8e:    4605        .F      MOV      r5,r0
        0x00018c90:    7800        .x      LDRB     r0,[r0,#0]
        0x00018c92:    4c43        CL      LDR      r4,[pc,#268] ; [0x18da0] = 0x40021000
        0x00018c94:    b120         .      CBZ      r0,0x18ca0 ; am_hal_pwrctrl_mcu_memory_config + 20
        0x00018c96:    2801        .(      CMP      r0,#1
        0x00018c98:    d00a        ..      BEQ      0x18cb0 ; am_hal_pwrctrl_mcu_memory_config + 36
        0x00018c9a:    2802        .(      CMP      r0,#2
        0x00018c9c:    d011        ..      BEQ      0x18cc2 ; am_hal_pwrctrl_mcu_memory_config + 54
        0x00018c9e:    e018        ..      B        0x18cd2 ; am_hal_pwrctrl_mcu_memory_config + 70
        0x00018ca0:    6960        `i      LDR      r0,[r4,#0x14]
        0x00018ca2:    f0200010     ...    BIC      r0,r0,#0x10
        0x00018ca6:    6160        `a      STR      r0,[r4,#0x14]
        0x00018ca8:    6960        `i      LDR      r0,[r4,#0x14]
        0x00018caa:    f0200020     . .    BIC      r0,r0,#0x20
        0x00018cae:    e00f        ..      B        0x18cd0 ; am_hal_pwrctrl_mcu_memory_config + 68
        0x00018cb0:    6960        `i      LDR      r0,[r4,#0x14]
        0x00018cb2:    f0400010    @...    ORR      r0,r0,#0x10
        0x00018cb6:    6160        `a      STR      r0,[r4,#0x14]
        0x00018cb8:    6960        `i      LDR      r0,[r4,#0x14]
        0x00018cba:    f0200020     . .    BIC      r0,r0,#0x20
        0x00018cbe:    6160        `a      STR      r0,[r4,#0x14]
        0x00018cc0:    e007        ..      B        0x18cd2 ; am_hal_pwrctrl_mcu_memory_config + 70
        0x00018cc2:    6960        `i      LDR      r0,[r4,#0x14]
        0x00018cc4:    f0400010    @...    ORR      r0,r0,#0x10
        0x00018cc8:    6160        `a      STR      r0,[r4,#0x14]
        0x00018cca:    6960        `i      LDR      r0,[r4,#0x14]
        0x00018ccc:    f0400020    @. .    ORR      r0,r0,#0x20
        0x00018cd0:    6160        `a      STR      r0,[r4,#0x14]
        0x00018cd2:    78a9        .x      LDRB     r1,[r5,#2]
        0x00018cd4:    6960        `i      LDR      r0,[r4,#0x14]
        0x00018cd6:    f3610002    a...    BFI      r0,r1,#0,#3
        0x00018cda:    6160        `a      STR      r0,[r4,#0x14]
        0x00018cdc:    7929        )y      LDRB     r1,[r5,#4]
        0x00018cde:    6960        `i      LDR      r0,[r4,#0x14]
        0x00018ce0:    f36100c3    a...    BFI      r0,r1,#3,#1
        0x00018ce4:    6160        `a      STR      r0,[r4,#0x14]
        0x00018ce6:    2001        .       MOVS     r0,#1
        0x00018ce8:    9000        ..      STR      r0,[sp,#0]
        0x00018cea:    6963        ci      LDR      r3,[r4,#0x14]
        0x00018cec:    223f        ?"      MOVS     r2,#0x3f
        0x00018cee:    492d        -I      LDR      r1,[pc,#180] ; [0x18da4] = 0x40021018
        0x00018cf0:    2005        .       MOVS     r0,#5
        0x00018cf2:    f7fffca5    ....    BL       am_hal_delay_us_status_check ; 0x18640
        0x00018cf6:    2800        .(      CMP      r0,#0
        0x00018cf8:    bf18        ..      IT       NE
        0x00018cfa:    bd38        8.      POPNE    {r3-r5,pc}
        0x00018cfc:    69a0        .i      LDR      r0,[r4,#0x18]
        0x00018cfe:    6961        ai      LDR      r1,[r4,#0x14]
        0x00018d00:    f3c01000    ....    UBFX     r0,r0,#4,#1
        0x00018d04:    f3c11100    ....    UBFX     r1,r1,#4,#1
        0x00018d08:    4288        .B      CMP      r0,r1
        0x00018d0a:    d117        ..      BNE      0x18d3c ; am_hal_pwrctrl_mcu_memory_config + 176
        0x00018d0c:    69a0        .i      LDR      r0,[r4,#0x18]
        0x00018d0e:    6961        ai      LDR      r1,[r4,#0x14]
        0x00018d10:    f3c01040    ..@.    UBFX     r0,r0,#5,#1
        0x00018d14:    f3c11140    ..@.    UBFX     r1,r1,#5,#1
        0x00018d18:    4288        .B      CMP      r0,r1
        0x00018d1a:    d10f        ..      BNE      0x18d3c ; am_hal_pwrctrl_mcu_memory_config + 176
        0x00018d1c:    69a0        .i      LDR      r0,[r4,#0x18]
        0x00018d1e:    6961        ai      LDR      r1,[r4,#0x14]
        0x00018d20:    f0000007    ....    AND      r0,r0,#7
        0x00018d24:    f0010107    ....    AND      r1,r1,#7
        0x00018d28:    4288        .B      CMP      r0,r1
        0x00018d2a:    d107        ..      BNE      0x18d3c ; am_hal_pwrctrl_mcu_memory_config + 176
        0x00018d2c:    69a0        .i      LDR      r0,[r4,#0x18]
        0x00018d2e:    6961        ai      LDR      r1,[r4,#0x14]
        0x00018d30:    f3c000c0    ....    UBFX     r0,r0,#3,#1
        0x00018d34:    f3c101c0    ....    UBFX     r1,r1,#3,#1
        0x00018d38:    4288        .B      CMP      r0,r1
        0x00018d3a:    d001        ..      BEQ      0x18d40 ; am_hal_pwrctrl_mcu_memory_config + 180
        0x00018d3c:    2001        .       MOVS     r0,#1
        0x00018d3e:    bd38        8.      POP      {r3-r5,pc}
        0x00018d40:    7868        hx      LDRB     r0,[r5,#1]
        0x00018d42:    2800        .(      CMP      r0,#0
        0x00018d44:    69e0        .i      LDR      r0,[r4,#0x1c]
        0x00018d46:    bf14        ..      ITE      NE
        0x00018d48:    f0200010     ...    BICNE    r0,r0,#0x10
        0x00018d4c:    f0400010    @...    ORREQ    r0,r0,#0x10
        0x00018d50:    61e0        .a      STR      r0,[r4,#0x1c]
        0x00018d52:    7968        hy      LDRB     r0,[r5,#5]
        0x00018d54:    2800        .(      CMP      r0,#0
        0x00018d56:    69e0        .i      LDR      r0,[r4,#0x1c]
        0x00018d58:    bf14        ..      ITE      NE
        0x00018d5a:    f0200008     ...    BICNE    r0,r0,#8
        0x00018d5e:    f0400008    @...    ORREQ    r0,r0,#8
        0x00018d62:    61e0        .a      STR      r0,[r4,#0x1c]
        0x00018d64:    78e8        .x      LDRB     r0,[r5,#3]
        0x00018d66:    2800        .(      CMP      r0,#0
        0x00018d68:    bf04        ..      ITT      EQ
        0x00018d6a:    69e0        .i      LDREQ    r0,[r4,#0x1c]
        0x00018d6c:    f0400007    @...    ORREQ    r0,r0,#7
        0x00018d70:    d013        ..      BEQ      0x18d9a ; am_hal_pwrctrl_mcu_memory_config + 270
        0x00018d72:    2801        .(      CMP      r0,#1
        0x00018d74:    d008        ..      BEQ      0x18d88 ; am_hal_pwrctrl_mcu_memory_config + 252
        0x00018d76:    2803        .(      CMP      r0,#3
        0x00018d78:    d00b        ..      BEQ      0x18d92 ; am_hal_pwrctrl_mcu_memory_config + 262
        0x00018d7a:    2807        .(      CMP      r0,#7
        0x00018d7c:    bf04        ..      ITT      EQ
        0x00018d7e:    69e0        .i      LDREQ    r0,[r4,#0x1c]
        0x00018d80:    f0200007     ...    BICEQ    r0,r0,#7
        0x00018d84:    d009        ..      BEQ      0x18d9a ; am_hal_pwrctrl_mcu_memory_config + 270
        0x00018d86:    e009        ..      B        0x18d9c ; am_hal_pwrctrl_mcu_memory_config + 272
        0x00018d88:    69e0        .i      LDR      r0,[r4,#0x1c]
        0x00018d8a:    f0200007     ...    BIC      r0,r0,#7
        0x00018d8e:    1d80        ..      ADDS     r0,r0,#6
        0x00018d90:    e003        ..      B        0x18d9a ; am_hal_pwrctrl_mcu_memory_config + 270
        0x00018d92:    69e0        .i      LDR      r0,[r4,#0x1c]
        0x00018d94:    f0200007     ...    BIC      r0,r0,#7
        0x00018d98:    1d00        ..      ADDS     r0,r0,#4
        0x00018d9a:    61e0        .a      STR      r0,[r4,#0x1c]
        0x00018d9c:    2000        .       MOVS     r0,#0
        0x00018d9e:    bd38        8.      POP      {r3-r5,pc}
    $d
        0x00018da0:    40021000    ...@    DCD    1073876992
        0x00018da4:    40021018    ...@    DCD    1073877016
    $t
    i.am_hal_pwrctrl_periph_disable
    am_hal_pwrctrl_periph_disable
        0x00018da8:    2822        "(      CMP      r0,#0x22
        0x00018daa:    bf24        $.      ITT      CS
        0x00018dac:    2006        .       MOVCS    r0,#6
        0x00018dae:    4770        pG      BXCS     lr
        0x00018db0:    e92d43f8    -..C    PUSH     {r3-r9,lr}
        0x00018db4:    4941        AI      LDR      r1,[pc,#260] ; [0x18ebc] = 0x1a684
        0x00018db6:    4602        .F      MOV      r2,r0
        0x00018db8:    eb011800    ....    ADD      r8,r1,r0,LSL #4
        0x00018dbc:    2500        .%      MOVS     r5,#0
        0x00018dbe:    e9d86900    ...i    LDRD     r6,r9,[r8,#0]
        0x00018dc2:    e9d87402    ...t    LDRD     r7,r4,[r8,#8]
        0x00018dc6:    6831        1h      LDR      r1,[r6,#0]
        0x00018dc8:    ea110f09    ....    TST      r1,r9
        0x00018dcc:    bf04        ..      ITT      EQ
        0x00018dce:    2000        .       MOVEQ    r0,#0
        0x00018dd0:    e8bd83f8    ....    POPEQ    {r3-r9,pc}
        0x00018dd4:    2a14        .*      CMP      r2,#0x14
        0x00018dd6:    d123        #.      BNE      0x18e20 ; am_hal_pwrctrl_periph_disable + 120
        0x00018dd8:    4839        9H      LDR      r0,[pc,#228] ; [0x18ec0] = 0x400c0fe0
        0x00018dda:    6800        .h      LDR      r0,[r0,#0]
        0x00018ddc:    28c0        .(      CMP      r0,#0xc0
        0x00018dde:    d11f        ..      BNE      0x18e20 ; am_hal_pwrctrl_periph_disable + 120
        0x00018de0:    2301        .#      MOVS     r3,#1
        0x00018de2:    461a        .F      MOV      r2,r3
        0x00018de4:    4937        7I      LDR      r1,[pc,#220] ; [0x18ec4] = 0x400c0a7c
        0x00018de6:    2064        d       MOVS     r0,#0x64
        0x00018de8:    f7fffbfe    ....    BL       am_hal_delay_us_status_change ; 0x185e8
        0x00018dec:    2800        .(      CMP      r0,#0
        0x00018dee:    bf18        ..      IT       NE
        0x00018df0:    e8bd83f8    ....    POPNE    {r3-r9,pc}
        0x00018df4:    2301        .#      MOVS     r3,#1
        0x00018df6:    461a        .F      MOV      r2,r3
        0x00018df8:    4933        3I      LDR      r1,[pc,#204] ; [0x18ec8] = 0x400c1f10
        0x00018dfa:    2064        d       MOVS     r0,#0x64
        0x00018dfc:    f7fffbf4    ....    BL       am_hal_delay_us_status_change ; 0x185e8
        0x00018e00:    2800        .(      CMP      r0,#0
        0x00018e02:    bf18        ..      IT       NE
        0x00018e04:    e8bd83f8    ....    POPNE    {r3-r9,pc}
        0x00018e08:    4830        0H      LDR      r0,[pc,#192] ; [0x18ecc] = 0x400c0a80
        0x00018e0a:    6801        .h      LDR      r1,[r0,#0]
        0x00018e0c:    f0410101    A...    ORR      r1,r1,#1
        0x00018e10:    6001        .`      STR      r1,[r0,#0]
        0x00018e12:    482f        /H      LDR      r0,[pc,#188] ; [0x18ed0] = 0x10000024
        0x00018e14:    6a81        .j      LDR      r1,[r0,#0x28]
        0x00018e16:    2900        .)      CMP      r1,#0
        0x00018e18:    bf1c        ..      ITT      NE
        0x00018e1a:    2000        .       MOVNE    r0,#0
        0x00018e1c:    f000ff20    .. .    BLNE     crypto_boost_trims ; 0x19c60
        0x00018e20:    f7fffa5c    ..\.    BL       am_hal_interrupt_master_disable ; 0x182dc
        0x00018e24:    9000        ..      STR      r0,[sp,#0]
        0x00018e26:    6830        0h      LDR      r0,[r6,#0]
        0x00018e28:    ea200009     ...    BIC      r0,r0,r9
        0x00018e2c:    6030        0`      STR      r0,[r6,#0]
        0x00018e2e:    9800        ..      LDR      r0,[sp,#0]
        0x00018e30:    f7fffa58    ..X.    BL       am_hal_interrupt_master_set ; 0x182e4
        0x00018e34:    4623        #F      MOV      r3,r4
        0x00018e36:    461a        .F      MOV      r2,r3
        0x00018e38:    4639        9F      MOV      r1,r7
        0x00018e3a:    2005        .       MOVS     r0,#5
        0x00018e3c:    9500        ..      STR      r5,[sp,#0]
        0x00018e3e:    f7fffbff    ....    BL       am_hal_delay_us_status_check ; 0x18640
        0x00018e42:    2800        .(      CMP      r0,#0
        0x00018e44:    bf08        ..      IT       EQ
        0x00018e46:    e8bd83f8    ....    POPEQ    {r3-r9,pc}
        0x00018e4a:    4628        (F      MOV      r0,r5
        0x00018e4c:    f8d8200c    ...     LDR      r2,[r8,#0xc]
        0x00018e50:    f8d81000    ....    LDR      r1,[r8,#0]
        0x00018e54:    f5b27ff0    ....    CMP      r2,#0x1e0
        0x00018e58:    d029        ).      BEQ      0x18eae ; am_hal_pwrctrl_periph_disable + 262
        0x00018e5a:    dc0b        ..      BGT      0x18e74 ; am_hal_pwrctrl_periph_disable + 204
        0x00018e5c:    2a1e        .*      CMP      r2,#0x1e
        0x00018e5e:    d020         .      BEQ      0x18ea2 ; am_hal_pwrctrl_periph_disable + 250
        0x00018e60:    2aff        .*      CMP      r2,#0xff
        0x00018e62:    bf18        ..      IT       NE
        0x00018e64:    e8bd83f8    ....    POPNE    {r3-r9,pc}
        0x00018e68:    680a        .h      LDR      r2,[r1,#0]
        0x00018e6a:    f0120fff    ....    TST      r2,#0xff
        0x00018e6e:    d115        ..      BNE      0x18e9c ; am_hal_pwrctrl_periph_disable + 244
        0x00018e70:    e8bd83f8    ....    POP      {r3-r9,pc}
        0x00018e74:    f5b25ff0    ..._    CMP      r2,#0x1e00
        0x00018e78:    d00a        ..      BEQ      0x18e90 ; am_hal_pwrctrl_periph_disable + 232
        0x00018e7a:    f5b23fe0    ...?    CMP      r2,#0x1c000
        0x00018e7e:    bf18        ..      IT       NE
        0x00018e80:    e8bd83f8    ....    POPNE    {r3-r9,pc}
        0x00018e84:    680a        .h      LDR      r2,[r1,#0]
        0x00018e86:    f4123fe0    ...?    TST      r2,#0x1c000
        0x00018e8a:    d107        ..      BNE      0x18e9c ; am_hal_pwrctrl_periph_disable + 244
        0x00018e8c:    e8bd83f8    ....    POP      {r3-r9,pc}
        0x00018e90:    680a        .h      LDR      r2,[r1,#0]
        0x00018e92:    f4125ff0    ..._    TST      r2,#0x1e00
        0x00018e96:    bf08        ..      IT       EQ
        0x00018e98:    e8bd83f8    ....    POPEQ    {r3-r9,pc}
        0x00018e9c:    6809        .h      LDR      r1,[r1,#0]
        0x00018e9e:    e8bd83f8    ....    POP      {r3-r9,pc}
        0x00018ea2:    680a        .h      LDR      r2,[r1,#0]
        0x00018ea4:    f0120f1e    ....    TST      r2,#0x1e
        0x00018ea8:    d1f8        ..      BNE      0x18e9c ; am_hal_pwrctrl_periph_disable + 244
        0x00018eaa:    e8bd83f8    ....    POP      {r3-r9,pc}
        0x00018eae:    680a        .h      LDR      r2,[r1,#0]
        0x00018eb0:    f4127ff0    ....    TST      r2,#0x1e0
        0x00018eb4:    d1f2        ..      BNE      0x18e9c ; am_hal_pwrctrl_periph_disable + 244
        0x00018eb6:    e8bd83f8    ....    POP      {r3-r9,pc}
    $d
        0x00018eba:    0000        ..      DCW    0
        0x00018ebc:    0001a684    ....    DCD    108164
        0x00018ec0:    400c0fe0    ...@    DCD    1074532320
        0x00018ec4:    400c0a7c    |..@    DCD    1074530940
        0x00018ec8:    400c1f10    ...@    DCD    1074536208
        0x00018ecc:    400c0a80    ...@    DCD    1074530944
        0x00018ed0:    10000024    $...    DCD    268435492
    $t
    i.am_hal_pwrctrl_periph_enable
    am_hal_pwrctrl_periph_enable
        0x00018ed4:    2822        "(      CMP      r0,#0x22
        0x00018ed6:    bf24        $.      ITT      CS
        0x00018ed8:    2006        .       MOVCS    r0,#6
        0x00018eda:    4770        pG      BXCS     lr
        0x00018edc:    e92d43f8    -..C    PUSH     {r3-r9,lr}
        0x00018ee0:    4926        &I      LDR      r1,[pc,#152] ; [0x18f7c] = 0x1a684
        0x00018ee2:    4604        .F      MOV      r4,r0
        0x00018ee4:    eb011004    ....    ADD      r0,r1,r4,LSL #4
        0x00018ee8:    e9d06502    ...e    LDRD     r6,r5,[r0,#8]
        0x00018eec:    e9d08900    ....    LDRD     r8,r9,[r0,#0]
        0x00018ef0:    f8d80000    ....    LDR      r0,[r8,#0]
        0x00018ef4:    ea100f09    ....    TST      r0,r9
        0x00018ef8:    d13c        <.      BNE      0x18f74 ; am_hal_pwrctrl_periph_enable + 160
        0x00018efa:    4f21        !O      LDR      r7,[pc,#132] ; [0x18f80] = 0x10000024
        0x00018efc:    2c14        .,      CMP      r4,#0x14
        0x00018efe:    d105        ..      BNE      0x18f0c ; am_hal_pwrctrl_periph_enable + 56
        0x00018f00:    6ab9        .j      LDR      r1,[r7,#0x28]
        0x00018f02:    2900        .)      CMP      r1,#0
        0x00018f04:    bf1c        ..      ITT      NE
        0x00018f06:    2001        .       MOVNE    r0,#1
        0x00018f08:    f000feaa    ....    BLNE     crypto_boost_trims ; 0x19c60
        0x00018f0c:    f7fff9e6    ....    BL       am_hal_interrupt_master_disable ; 0x182dc
        0x00018f10:    9000        ..      STR      r0,[sp,#0]
        0x00018f12:    f8d80000    ....    LDR      r0,[r8,#0]
        0x00018f16:    ea400009    @...    ORR      r0,r0,r9
        0x00018f1a:    f8c80000    ....    STR      r0,[r8,#0]
        0x00018f1e:    9800        ..      LDR      r0,[sp,#0]
        0x00018f20:    f7fff9e0    ....    BL       am_hal_interrupt_master_set ; 0x182e4
        0x00018f24:    2001        .       MOVS     r0,#1
        0x00018f26:    462b        +F      MOV      r3,r5
        0x00018f28:    9000        ..      STR      r0,[sp,#0]
        0x00018f2a:    461a        .F      MOV      r2,r3
        0x00018f2c:    4631        1F      MOV      r1,r6
        0x00018f2e:    2005        .       MOVS     r0,#5
        0x00018f30:    f7fffb86    ....    BL       am_hal_delay_us_status_check ; 0x18640
        0x00018f34:    ea5f0800    _...    MOVS     r8,r0
        0x00018f38:    d00a        ..      BEQ      0x18f50 ; am_hal_pwrctrl_periph_enable + 124
        0x00018f3a:    2c14        .,      CMP      r4,#0x14
        0x00018f3c:    d105        ..      BNE      0x18f4a ; am_hal_pwrctrl_periph_enable + 118
        0x00018f3e:    6ab9        .j      LDR      r1,[r7,#0x28]
        0x00018f40:    2900        .)      CMP      r1,#0
        0x00018f42:    bf1c        ..      ITT      NE
        0x00018f44:    2000        .       MOVNE    r0,#0
        0x00018f46:    f000fe8b    ....    BLNE     crypto_boost_trims ; 0x19c60
        0x00018f4a:    4640        @F      MOV      r0,r8
        0x00018f4c:    e8bd83f8    ....    POP      {r3-r9,pc}
        0x00018f50:    2c14        .,      CMP      r4,#0x14
        0x00018f52:    d109        ..      BNE      0x18f68 ; am_hal_pwrctrl_periph_enable + 148
        0x00018f54:    2301        .#      MOVS     r3,#1
        0x00018f56:    461a        .F      MOV      r2,r3
        0x00018f58:    490a        .I      LDR      r1,[pc,#40] ; [0x18f84] = 0x400c1f10
        0x00018f5a:    2064        d       MOVS     r0,#0x64
        0x00018f5c:    f7fffb44    ..D.    BL       am_hal_delay_us_status_change ; 0x185e8
        0x00018f60:    2800        .(      CMP      r0,#0
        0x00018f62:    bf18        ..      IT       NE
        0x00018f64:    e8bd83f8    ....    POPNE    {r3-r9,pc}
        0x00018f68:    6830        0h      LDR      r0,[r6,#0]
        0x00018f6a:    4228        (B      TST      r0,r5
        0x00018f6c:    bf04        ..      ITT      EQ
        0x00018f6e:    2001        .       MOVEQ    r0,#1
        0x00018f70:    e8bd83f8    ....    POPEQ    {r3-r9,pc}
        0x00018f74:    2000        .       MOVS     r0,#0
        0x00018f76:    e8bd83f8    ....    POP      {r3-r9,pc}
    $d
        0x00018f7a:    0000        ..      DCW    0
        0x00018f7c:    0001a684    ....    DCD    108164
        0x00018f80:    10000024    $...    DCD    268435492
        0x00018f84:    400c1f10    ...@    DCD    1074536208
    $t
    i.am_hal_pwrctrl_sram_config
    am_hal_pwrctrl_sram_config
        0x00018f88:    b538        8.      PUSH     {r3-r5,lr}
        0x00018f8a:    4c27        'L      LDR      r4,[pc,#156] ; [0x19028] = 0x40021000
        0x00018f8c:    4605        .F      MOV      r5,r0
        0x00018f8e:    7801        .x      LDRB     r1,[r0,#0]
        0x00018f90:    6a60        `j      LDR      r0,[r4,#0x24]
        0x00018f92:    f3610001    a...    BFI      r0,r1,#0,#2
        0x00018f96:    6260        `b      STR      r0,[r4,#0x24]
        0x00018f98:    2001        .       MOVS     r0,#1
        0x00018f9a:    9000        ..      STR      r0,[sp,#0]
        0x00018f9c:    6a63        cj      LDR      r3,[r4,#0x24]
        0x00018f9e:    2203        ."      MOVS     r2,#3
        0x00018fa0:    4922        "I      LDR      r1,[pc,#136] ; [0x1902c] = 0x40021028
        0x00018fa2:    2005        .       MOVS     r0,#5
        0x00018fa4:    f7fffb4c    ..L.    BL       am_hal_delay_us_status_check ; 0x18640
        0x00018fa8:    2800        .(      CMP      r0,#0
        0x00018faa:    bf18        ..      IT       NE
        0x00018fac:    bd38        8.      POPNE    {r3-r5,pc}
        0x00018fae:    6aa0        .j      LDR      r0,[r4,#0x28]
        0x00018fb0:    6a61        aj      LDR      r1,[r4,#0x24]
        0x00018fb2:    f0000003    ....    AND      r0,r0,#3
        0x00018fb6:    f0010103    ....    AND      r1,r1,#3
        0x00018fba:    4288        .B      CMP      r0,r1
        0x00018fbc:    bf1c        ..      ITT      NE
        0x00018fbe:    2001        .       MOVNE    r0,#1
        0x00018fc0:    bd38        8.      POPNE    {r3-r5,pc}
        0x00018fc2:    7869        ix      LDRB     r1,[r5,#1]
        0x00018fc4:    6ae0        .j      LDR      r0,[r4,#0x2c]
        0x00018fc6:    f3610083    a...    BFI      r0,r1,#2,#2
        0x00018fca:    62e0        .b      STR      r0,[r4,#0x2c]
        0x00018fcc:    78a9        .x      LDRB     r1,[r5,#2]
        0x00018fce:    6ae0        .j      LDR      r0,[r4,#0x2c]
        0x00018fd0:    f3611087    a...    BFI      r0,r1,#6,#2
        0x00018fd4:    62e0        .b      STR      r0,[r4,#0x2c]
        0x00018fd6:    78e9        .x      LDRB     r1,[r5,#3]
        0x00018fd8:    6ae0        .j      LDR      r0,[r4,#0x2c]
        0x00018fda:    f3612009    a..     BFI      r0,r1,#8,#2
        0x00018fde:    62e0        .b      STR      r0,[r4,#0x2c]
        0x00018fe0:    7929        )y      LDRB     r1,[r5,#4]
        0x00018fe2:    6ae0        .j      LDR      r0,[r4,#0x2c]
        0x00018fe4:    f3611005    a...    BFI      r0,r1,#4,#2
        0x00018fe8:    62e0        .b      STR      r0,[r4,#0x2c]
        0x00018fea:    7968        hy      LDRB     r0,[r5,#5]
        0x00018fec:    2800        .(      CMP      r0,#0
        0x00018fee:    bf04        ..      ITT      EQ
        0x00018ff0:    6ae0        .j      LDREQ    r0,[r4,#0x2c]
        0x00018ff2:    f0400003    @...    ORREQ    r0,r0,#3
        0x00018ff6:    d00e        ..      BEQ      0x19016 ; am_hal_pwrctrl_sram_config + 142
        0x00018ff8:    2801        .(      CMP      r0,#1
        0x00018ffa:    d008        ..      BEQ      0x1900e ; am_hal_pwrctrl_sram_config + 134
        0x00018ffc:    2802        .(      CMP      r0,#2
        0x00018ffe:    d00d        ..      BEQ      0x1901c ; am_hal_pwrctrl_sram_config + 148
        0x00019000:    2803        .(      CMP      r0,#3
        0x00019002:    bf04        ..      ITT      EQ
        0x00019004:    6ae0        .j      LDREQ    r0,[r4,#0x2c]
        0x00019006:    f0200003     ...    BICEQ    r0,r0,#3
        0x0001900a:    d004        ..      BEQ      0x19016 ; am_hal_pwrctrl_sram_config + 142
        0x0001900c:    e004        ..      B        0x19018 ; am_hal_pwrctrl_sram_config + 144
        0x0001900e:    6ae0        .j      LDR      r0,[r4,#0x2c]
        0x00019010:    f0200003     ...    BIC      r0,r0,#3
        0x00019014:    1c80        ..      ADDS     r0,r0,#2
        0x00019016:    62e0        .b      STR      r0,[r4,#0x2c]
        0x00019018:    2000        .       MOVS     r0,#0
        0x0001901a:    bd38        8.      POP      {r3-r5,pc}
        0x0001901c:    6ae0        .j      LDR      r0,[r4,#0x2c]
        0x0001901e:    f0200003     ...    BIC      r0,r0,#3
        0x00019022:    1c40        @.      ADDS     r0,r0,#1
        0x00019024:    e7f7        ..      B        0x19016 ; am_hal_pwrctrl_sram_config + 142
    $d
        0x00019026:    0000        ..      DCW    0
        0x00019028:    40021000    ...@    DCD    1073876992
        0x0001902c:    40021028    (..@    DCD    1073877032
    $t
    i.am_hal_queue_item_add
    am_hal_queue_item_add
        0x00019030:    b5f8        ..      PUSH     {r3-r7,lr}
        0x00019032:    4604        .F      MOV      r4,r0
        0x00019034:    6900        .i      LDR      r0,[r0,#0x10]
        0x00019036:    460e        .F      MOV      r6,r1
        0x00019038:    fb00f502    ....    MUL      r5,r0,r2
        0x0001903c:    2700        .'      MOVS     r7,#0
        0x0001903e:    f7fff94d    ..M.    BL       am_hal_interrupt_master_disable ; 0x182dc
        0x00019042:    9000        ..      STR      r0,[sp,#0]
        0x00019044:    68a1        .h      LDR      r1,[r4,#8]
        0x00019046:    68e0        .h      LDR      r0,[r4,#0xc]
        0x00019048:    1a40        @.      SUBS     r0,r0,r1
        0x0001904a:    4285        .B      CMP      r5,r0
        0x0001904c:    d816        ..      BHI      0x1907c ; am_hal_queue_item_add + 76
        0x0001904e:    2000        .       MOVS     r0,#0
        0x00019050:    2d00        .-      CMP      r5,#0
        0x00019052:    d90f        ..      BLS      0x19074 ; am_hal_queue_item_add + 68
        0x00019054:    b11e        ..      CBZ      r6,0x1905e ; am_hal_queue_item_add + 46
        0x00019056:    5c31        1\      LDRB     r1,[r6,r0]
        0x00019058:    6823        #h      LDR      r3,[r4,#0]
        0x0001905a:    6962        bi      LDR      r2,[r4,#0x14]
        0x0001905c:    54d1        .T      STRB     r1,[r2,r3]
        0x0001905e:    6821        !h      LDR      r1,[r4,#0]
        0x00019060:    68e2        .h      LDR      r2,[r4,#0xc]
        0x00019062:    1c49        I.      ADDS     r1,r1,#1
        0x00019064:    fbb1f3f2    ....    UDIV     r3,r1,r2
        0x00019068:    fb021113    ....    MLS      r1,r2,r3,r1
        0x0001906c:    6021        !`      STR      r1,[r4,#0]
        0x0001906e:    1c40        @.      ADDS     r0,r0,#1
        0x00019070:    42a8        .B      CMP      r0,r5
        0x00019072:    d3ef        ..      BCC      0x19054 ; am_hal_queue_item_add + 36
        0x00019074:    68a0        .h      LDR      r0,[r4,#8]
        0x00019076:    4428        (D      ADD      r0,r0,r5
        0x00019078:    60a0        .`      STR      r0,[r4,#8]
        0x0001907a:    2701        .'      MOVS     r7,#1
        0x0001907c:    9800        ..      LDR      r0,[sp,#0]
        0x0001907e:    f7fff931    ..1.    BL       am_hal_interrupt_master_set ; 0x182e4
        0x00019082:    4638        8F      MOV      r0,r7
        0x00019084:    bdf8        ..      POP      {r3-r7,pc}
    i.am_hal_queue_item_get
    am_hal_queue_item_get
        0x00019086:    b5f8        ..      PUSH     {r3-r7,lr}
        0x00019088:    4604        .F      MOV      r4,r0
        0x0001908a:    6900        .i      LDR      r0,[r0,#0x10]
        0x0001908c:    460e        .F      MOV      r6,r1
        0x0001908e:    fb00f502    ....    MUL      r5,r0,r2
        0x00019092:    2700        .'      MOVS     r7,#0
        0x00019094:    f7fff922    ..".    BL       am_hal_interrupt_master_disable ; 0x182dc
        0x00019098:    9000        ..      STR      r0,[sp,#0]
        0x0001909a:    68a0        .h      LDR      r0,[r4,#8]
        0x0001909c:    4285        .B      CMP      r5,r0
        0x0001909e:    d816        ..      BHI      0x190ce ; am_hal_queue_item_get + 72
        0x000190a0:    2000        .       MOVS     r0,#0
        0x000190a2:    2d00        .-      CMP      r5,#0
        0x000190a4:    d90f        ..      BLS      0x190c6 ; am_hal_queue_item_get + 64
        0x000190a6:    b11e        ..      CBZ      r6,0x190b0 ; am_hal_queue_item_get + 42
        0x000190a8:    6962        bi      LDR      r2,[r4,#0x14]
        0x000190aa:    6861        ah      LDR      r1,[r4,#4]
        0x000190ac:    5c52        R\      LDRB     r2,[r2,r1]
        0x000190ae:    5432        2T      STRB     r2,[r6,r0]
        0x000190b0:    6861        ah      LDR      r1,[r4,#4]
        0x000190b2:    68e2        .h      LDR      r2,[r4,#0xc]
        0x000190b4:    1c49        I.      ADDS     r1,r1,#1
        0x000190b6:    fbb1f3f2    ....    UDIV     r3,r1,r2
        0x000190ba:    fb021113    ....    MLS      r1,r2,r3,r1
        0x000190be:    6061        a`      STR      r1,[r4,#4]
        0x000190c0:    1c40        @.      ADDS     r0,r0,#1
        0x000190c2:    42a8        .B      CMP      r0,r5
        0x000190c4:    d3ef        ..      BCC      0x190a6 ; am_hal_queue_item_get + 32
        0x000190c6:    68a0        .h      LDR      r0,[r4,#8]
        0x000190c8:    1b40        @.      SUBS     r0,r0,r5
        0x000190ca:    60a0        .`      STR      r0,[r4,#8]
        0x000190cc:    2701        .'      MOVS     r7,#1
        0x000190ce:    9800        ..      LDR      r0,[sp,#0]
        0x000190d0:    f7fff908    ....    BL       am_hal_interrupt_master_set ; 0x182e4
        0x000190d4:    4638        8F      MOV      r0,r7
        0x000190d6:    bdf8        ..      POP      {r3-r7,pc}
    i.am_hal_rtc_osc_disable
    am_hal_rtc_osc_disable
        0x000190d8:    4803        .H      LDR      r0,[pc,#12] ; [0x190e8] = 0x40004800
        0x000190da:    6801        .h      LDR      r1,[r0,#0]
        0x000190dc:    f0410110    A...    ORR      r1,r1,#0x10
        0x000190e0:    6001        .`      STR      r1,[r0,#0]
        0x000190e2:    2000        .       MOVS     r0,#0
        0x000190e4:    4770        pG      BX       lr
    $d
        0x000190e6:    0000        ..      DCW    0
        0x000190e8:    40004800    .H.@    DCD    1073760256
    $t
    i.am_hal_sysctrl_sleep
    am_hal_sysctrl_sleep
        0x000190ec:    b5f0        ..      PUSH     {r4-r7,lr}
        0x000190ee:    4607        .F      MOV      r7,r0
        0x000190f0:    4833        3H      LDR      r0,[pc,#204] ; [0x191c0] = 0xf0000004
        0x000190f2:    b083        ..      SUB      sp,sp,#0xc
        0x000190f4:    4468        hD      ADD      r0,sp,r0
        0x000190f6:    f5b02fc0    .../    CMP      r0,#0x60000
        0x000190fa:    d300        ..      BCC      0x190fe ; am_hal_sysctrl_sleep + 18
        0x000190fc:    e7fe        ..      B        0x190fc ; am_hal_sysctrl_sleep + 16
        0x000190fe:    2600        .&      MOVS     r6,#0
        0x00019100:    f7fff8ec    ....    BL       am_hal_interrupt_master_disable ; 0x182dc
        0x00019104:    492f        /I      LDR      r1,[pc,#188] ; [0x191c4] = 0x40021000
        0x00019106:    9000        ..      STR      r0,[sp,#0]
        0x00019108:    f8d10108    ....    LDR      r0,[r1,#0x108]
        0x0001910c:    f3c01001    ....    UBFX     r0,r0,#4,#2
        0x00019110:    2803        .(      CMP      r0,#3
        0x00019112:    bf0c        ..      ITE      EQ
        0x00019114:    2001        .       MOVEQ    r0,#1
        0x00019116:    2000        .       MOVNE    r0,#0
        0x00019118:    4d2b        +M      LDR      r5,[pc,#172] ; [0x191c8] = 0xe000ed10
        0x0001911a:    4c2c        ,L      LDR      r4,[pc,#176] ; [0x191cc] = 0x40020000
        0x0001911c:    b127        '.      CBZ      r7,0x19128 ; am_hal_sysctrl_sleep + 60
        0x0001911e:    f8d42250    ..P"    LDR      r2,[r4,#0x250]
        0x00019122:    f0120f01    ....    TST      r2,#1
        0x00019126:    d003        ..      BEQ      0x19130 ; am_hal_sysctrl_sleep + 68
        0x00019128:    6828        (h      LDR      r0,[r5,#0]
        0x0001912a:    f0200004     ...    BIC      r0,r0,#4
        0x0001912e:    e023        #.      B        0x19178 ; am_hal_sysctrl_sleep + 140
        0x00019130:    b1f8        ..      CBZ      r0,0x19172 ; am_hal_sysctrl_sleep + 134
        0x00019132:    6908        .i      LDR      r0,[r1,#0x10]
        0x00019134:    f4106f80    ...o    TST      r0,#0x400
        0x00019138:    bf04        ..      ITT      EQ
        0x0001913a:    6888        .h      LDREQ    r0,[r1,#8]
        0x0001913c:    f030407e    0.~@    BICSEQ   r0,r0,#0xfe000000
        0x00019140:    d117        ..      BNE      0x19172 ; am_hal_sysctrl_sleep + 134
        0x00019142:    4823        #H      LDR      r0,[pc,#140] ; [0x191d0] = 0x10000030
        0x00019144:    2601        .&      MOVS     r6,#1
        0x00019146:    7801        .x      LDRB     r1,[r0,#0]
        0x00019148:    f8d40370    ..p.    LDR      r0,[r4,#0x370]
        0x0001914c:    f3615019    a..P    BFI      r0,r1,#20,#6
        0x00019150:    f8c40370    ..p.    STR      r0,[r4,#0x370]
        0x00019154:    f8d40380    ....    LDR      r0,[r4,#0x380]
        0x00019158:    f0204000     ..@    BIC      r0,r0,#0x80000000
        0x0001915c:    f8c40380    ....    STR      r0,[r4,#0x380]
        0x00019160:    f8d40380    ....    LDR      r0,[r4,#0x380]
        0x00019164:    f0204080     ..@    BIC      r0,r0,#0x40000000
        0x00019168:    f8c40380    ....    STR      r0,[r4,#0x380]
        0x0001916c:    2000        .       MOVS     r0,#0
        0x0001916e:    f000fd67    ..g.    BL       buck_ldo_update_override ; 0x19c40
        0x00019172:    6828        (h      LDR      r0,[r5,#0]
        0x00019174:    f0400004    @...    ORR      r0,r0,#4
        0x00019178:    6028        (`      STR      r0,[r5,#0]
        0x0001917a:    2100        .!      MOVS     r1,#0
        0x0001917c:    2001        .       MOVS     r0,#1
        0x0001917e:    f7fff9dd    ....    BL       am_hal_daxi_control ; 0x1853c
        0x00019182:    bf30        0.      WFI      
        0x00019184:    f3bf8f6f    ..o.    ISB      
        0x00019188:    b1a6        ..      CBZ      r6,0x191b4 ; am_hal_sysctrl_sleep + 200
        0x0001918a:    2001        .       MOVS     r0,#1
        0x0001918c:    f000fd58    ..X.    BL       buck_ldo_update_override ; 0x19c40
        0x00019190:    f8d40380    ....    LDR      r0,[r4,#0x380]
        0x00019194:    f0404000    @..@    ORR      r0,r0,#0x80000000
        0x00019198:    f8c40380    ....    STR      r0,[r4,#0x380]
        0x0001919c:    f8d40380    ....    LDR      r0,[r4,#0x380]
        0x000191a0:    f0404080    @..@    ORR      r0,r0,#0x40000000
        0x000191a4:    f8c40380    ....    STR      r0,[r4,#0x380]
        0x000191a8:    f8d40370    ..p.    LDR      r0,[r4,#0x370]
        0x000191ac:    f020707c     .|p    BIC      r0,r0,#0x3f00000
        0x000191b0:    f8c40370    ..p.    STR      r0,[r4,#0x370]
        0x000191b4:    9800        ..      LDR      r0,[sp,#0]
        0x000191b6:    f7fff895    ....    BL       am_hal_interrupt_master_set ; 0x182e4
        0x000191ba:    b003        ..      ADD      sp,sp,#0xc
        0x000191bc:    bdf0        ..      POP      {r4-r7,pc}
    $d
        0x000191be:    0000        ..      DCW    0
        0x000191c0:    f0000004    ....    DCD    4026531844
        0x000191c4:    40021000    ...@    DCD    1073876992
        0x000191c8:    e000ed10    ....    DCD    3758157072
        0x000191cc:    40020000    ...@    DCD    1073872896
        0x000191d0:    10000030    0...    DCD    268435504
    $t
    i.am_hal_uart_configure
    am_hal_uart_configure
        0x000191d4:    6a42        Bj      LDR      r2,[r0,#0x24]
        0x000191d6:    2800        .(      CMP      r0,#0
        0x000191d8:    bf1c        ..      ITT      NE
        0x000191da:    6803        .h      LDRNE    r3,[r0,#0]
        0x000191dc:    f0137f80    ....    TSTNE    r3,#0x1000000
        0x000191e0:    d005        ..      BEQ      0x191ee ; am_hal_uart_configure + 26
        0x000191e2:    f8dfc164    ..d.    LDR      r12,[pc,#356] ; [0x19348] = 0xea9e06
        0x000191e6:    f023437f    #..C    BIC      r3,r3,#0xff000000
        0x000191ea:    4563        cE      CMP      r3,r12
        0x000191ec:    d001        ..      BEQ      0x191f2 ; am_hal_uart_configure + 30
        0x000191ee:    2002        .       MOVS     r0,#2
        0x000191f0:    4770        pG      BX       lr
        0x000191f2:    b470        p.      PUSH     {r4-r6}
        0x000191f4:    2500        .%      MOVS     r5,#0
        0x000191f6:    0312        ..      LSLS     r2,r2,#12
        0x000191f8:    f1024280    ...B    ADD      r2,r2,#0x40000000
        0x000191fc:    f50232e0    ...2    ADD      r2,r2,#0x1c000
        0x00019200:    6315        .c      STR      r5,[r2,#0x30]
        0x00019202:    6b13        .k      LDR      r3,[r2,#0x30]
        0x00019204:    f0430308    C...    ORR      r3,r3,#8
        0x00019208:    6313        .c      STR      r3,[r2,#0x30]
        0x0001920a:    f8dfc140    ..@.    LDR      r12,[pc,#320] ; [0x1934c] = 0x16e360
        0x0001920e:    680b        .h      LDR      r3,[r1,#0]
        0x00019210:    4563        cE      CMP      r3,r12
        0x00019212:    6b13        .k      LDR      r3,[r2,#0x30]
        0x00019214:    f0230370    #.p.    BIC      r3,r3,#0x70
        0x00019218:    bf8c        ..      ITE      HI
        0x0001921a:    3350        P3      ADDHI    r3,r3,#0x50
        0x0001921c:    3310        .3      ADDLS    r3,r3,#0x10
        0x0001921e:    6313        .c      STR      r3,[r2,#0x30]
        0x00019220:    6b13        .k      LDR      r3,[r2,#0x30]
        0x00019222:    f0230301    #...    BIC      r3,r3,#1
        0x00019226:    6313        .c      STR      r3,[r2,#0x30]
        0x00019228:    6b13        .k      LDR      r3,[r2,#0x30]
        0x0001922a:    f4237300    #..s    BIC      r3,r3,#0x200
        0x0001922e:    6313        .c      STR      r3,[r2,#0x30]
        0x00019230:    6b13        .k      LDR      r3,[r2,#0x30]
        0x00019232:    f4237380    #..s    BIC      r3,r3,#0x100
        0x00019236:    6313        .c      STR      r3,[r2,#0x30]
        0x00019238:    f8d1c000    ....    LDR      r12,[r1,#0]
        0x0001923c:    6b13        .k      LDR      r3,[r2,#0x30]
        0x0001923e:    f3c31302    ....    UBFX     r3,r3,#4,#3
        0x00019242:    2b06        .+      CMP      r3,#6
        0x00019244:    d27c        |.      BCS      0x19340 ; am_hal_uart_configure + 364
        0x00019246:    e8dff003    ....    TBB      [pc,r3]
    $d
        0x0001924a:    057b        {.      DCW    1403
        0x0001924c:    030b0907    ....    DCD    51054855
    $t
        0x00019250:    4b3f        ?K      LDR      r3,[pc,#252] ; [0x19350] = 0x2dc6c00
        0x00019252:    e006        ..      B        0x19262 ; am_hal_uart_configure + 142
        0x00019254:    4b3f        ?K      LDR      r3,[pc,#252] ; [0x19354] = 0x16e3600
        0x00019256:    e004        ..      B        0x19262 ; am_hal_uart_configure + 142
        0x00019258:    4b3f        ?K      LDR      r3,[pc,#252] ; [0x19358] = 0xb71b00
        0x0001925a:    e002        ..      B        0x19262 ; am_hal_uart_configure + 142
        0x0001925c:    4b3f        ?K      LDR      r3,[pc,#252] ; [0x1935c] = 0x5b8d80
        0x0001925e:    e000        ..      B        0x19262 ; am_hal_uart_configure + 142
        0x00019260:    4b3f        ?K      LDR      r3,[pc,#252] ; [0x19360] = 0x2dc6c0
        0x00019262:    ea4f1c0c    O...    LSL      r12,r12,#4
        0x00019266:    fbb3f4fc    ....    UDIV     r4,r3,r12
        0x0001926a:    019e        ..      LSLS     r6,r3,#6
        0x0001926c:    fbb6fcfc    ....    UDIV     r12,r6,r12
        0x00019270:    01a6        ..      LSLS     r6,r4,#6
        0x00019272:    ebbc0c06    ....    SUBS     r12,r12,r6
        0x00019276:    2c00        .,      CMP      r4,#0
        0x00019278:    bf01        ..      ITTTT    EQ
        0x0001927a:    6285        .b      STREQ    r5,[r0,#0x28]
        0x0001927c:    4839        9H      LDREQ    r0,[pc,#228] ; [0x19364] = 0x8000003
        0x0001927e:    bc70        p.      POPEQ    {r4-r6}
        0x00019280:    4770        pG      BXEQ     lr
        0x00019282:    6254        Tb      STR      r4,[r2,#0x24]
        0x00019284:    f8c2c028    ..(.    STR      r12,[r2,#0x28]
        0x00019288:    0124        $.      LSLS     r4,r4,#4
        0x0001928a:    eb040c9c    ....    ADD      r12,r4,r12,LSR #2
        0x0001928e:    fbb3f3fc    ....    UDIV     r3,r3,r12
        0x00019292:    6283        .b      STR      r3,[r0,#0x28]
        0x00019294:    6b10        .k      LDR      r0,[r2,#0x30]
        0x00019296:    f4204080     ..@    BIC      r0,r0,#0x4000
        0x0001929a:    6310        .c      STR      r0,[r2,#0x30]
        0x0001929c:    6b10        .k      LDR      r0,[r2,#0x30]
        0x0001929e:    f4204000     ..@    BIC      r0,r0,#0x8000
        0x000192a2:    6310        .c      STR      r0,[r2,#0x30]
        0x000192a4:    6b10        .k      LDR      r0,[r2,#0x30]
        0x000192a6:    890b        ..      LDRH     r3,[r1,#8]
        0x000192a8:    4318        .C      ORRS     r0,r0,r3
        0x000192aa:    6310        .c      STR      r0,[r2,#0x30]
        0x000192ac:    2000        .       MOVS     r0,#0
        0x000192ae:    f891c005    ....    LDRB     r12,[r1,#5]
        0x000192b2:    4603        .F      MOV      r3,r0
        0x000192b4:    f1bc0f00    ....    CMP      r12,#0
        0x000192b8:    bf08        ..      IT       EQ
        0x000192ba:    2001        .       MOVEQ    r0,#1
        0x000192bc:    d004        ..      BEQ      0x192c8 ; am_hal_uart_configure + 244
        0x000192be:    f1bc0f01    ....    CMP      r12,#1
        0x000192c2:    bf04        ..      ITT      EQ
        0x000192c4:    2001        .       MOVEQ    r0,#1
        0x000192c6:    4603        .F      MOVEQ    r3,r0
        0x000192c8:    f8d2c02c    ..,.    LDR      r12,[r2,#0x2c]
        0x000192cc:    f02c0c01    ,...    BIC      r12,r12,#1
        0x000192d0:    f8c2c02c    ..,.    STR      r12,[r2,#0x2c]
        0x000192d4:    f8d2c02c    ..,.    LDR      r12,[r2,#0x2c]
        0x000192d8:    f3600c41    `.A.    BFI      r12,r0,#1,#1
        0x000192dc:    f8c2c02c    ..,.    STR      r12,[r2,#0x2c]
        0x000192e0:    6ad0        .j      LDR      r0,[r2,#0x2c]
        0x000192e2:    f3630082    c...    BFI      r0,r3,#2,#1
        0x000192e6:    62d0        .b      STR      r0,[r2,#0x2c]
        0x000192e8:    798b        .y      LDRB     r3,[r1,#6]
        0x000192ea:    6ad0        .j      LDR      r0,[r2,#0x2c]
        0x000192ec:    f36300c3    c...    BFI      r0,r3,#3,#1
        0x000192f0:    62d0        .b      STR      r0,[r2,#0x2c]
        0x000192f2:    6ad0        .j      LDR      r0,[r2,#0x2c]
        0x000192f4:    f0400010    @...    ORR      r0,r0,#0x10
        0x000192f8:    62d0        .b      STR      r0,[r2,#0x2c]
        0x000192fa:    790b        .y      LDRB     r3,[r1,#4]
        0x000192fc:    6ad0        .j      LDR      r0,[r2,#0x2c]
        0x000192fe:    f3631046    c.F.    BFI      r0,r3,#5,#2
        0x00019302:    62d0        .b      STR      r0,[r2,#0x2c]
        0x00019304:    6ad0        .j      LDR      r0,[r2,#0x2c]
        0x00019306:    f0200080     ...    BIC      r0,r0,#0x80
        0x0001930a:    62d0        .b      STR      r0,[r2,#0x2c]
        0x0001930c:    7a8b        .z      LDRB     r3,[r1,#0xa]
        0x0001930e:    6b50        Pk      LDR      r0,[r2,#0x34]
        0x00019310:    f3630002    c...    BFI      r0,r3,#0,#3
        0x00019314:    6350        Pc      STR      r0,[r2,#0x34]
        0x00019316:    7ac9        .z      LDRB     r1,[r1,#0xb]
        0x00019318:    6b50        Pk      LDR      r0,[r2,#0x34]
        0x0001931a:    f36100c5    a...    BFI      r0,r1,#3,#3
        0x0001931e:    6350        Pc      STR      r0,[r2,#0x34]
        0x00019320:    6b10        .k      LDR      r0,[r2,#0x30]
        0x00019322:    f0400001    @...    ORR      r0,r0,#1
        0x00019326:    6310        .c      STR      r0,[r2,#0x30]
        0x00019328:    6b10        .k      LDR      r0,[r2,#0x30]
        0x0001932a:    f4407000    @..p    ORR      r0,r0,#0x200
        0x0001932e:    6310        .c      STR      r0,[r2,#0x30]
        0x00019330:    6b10        .k      LDR      r0,[r2,#0x30]
        0x00019332:    f4407080    @..p    ORR      r0,r0,#0x100
        0x00019336:    6310        .c      STR      r0,[r2,#0x30]
        0x00019338:    bc70        p.      POP      {r4-r6}
        0x0001933a:    2000        .       MOVS     r0,#0
        0x0001933c:    4770        pG      BX       lr
        0x0001933e:    e7ff        ..      B        0x19340 ; am_hal_uart_configure + 364
        0x00019340:    6285        .b      STR      r5,[r0,#0x28]
        0x00019342:    bc70        p.      POP      {r4-r6}
        0x00019344:    4808        .H      LDR      r0,[pc,#32] ; [0x19368] = 0x8000002
        0x00019346:    4770        pG      BX       lr
    $d
        0x00019348:    00ea9e06    ....    DCD    15375878
        0x0001934c:    0016e360    `...    DCD    1500000
        0x00019350:    02dc6c00    .l..    DCD    48000000
        0x00019354:    016e3600    .6n.    DCD    24000000
        0x00019358:    00b71b00    ....    DCD    12000000
        0x0001935c:    005b8d80    ..[.    DCD    6000000
        0x00019360:    002dc6c0    ..-.    DCD    3000000
        0x00019364:    08000003    ....    DCD    134217731
        0x00019368:    08000002    ....    DCD    134217730
    $t
    i.am_hal_uart_deinitialize
    am_hal_uart_deinitialize
        0x0001936c:    2800        .(      CMP      r0,#0
        0x0001936e:    bf1c        ..      ITT      NE
        0x00019370:    6801        .h      LDRNE    r1,[r0,#0]
        0x00019372:    f0117f80    ....    TSTNE    r1,#0x1000000
        0x00019376:    d004        ..      BEQ      0x19382 ; am_hal_uart_deinitialize + 22
        0x00019378:    4b07        .K      LDR      r3,[pc,#28] ; [0x19398] = 0xea9e06
        0x0001937a:    f021427f    !..B    BIC      r2,r1,#0xff000000
        0x0001937e:    429a        .B      CMP      r2,r3
        0x00019380:    d001        ..      BEQ      0x19386 ; am_hal_uart_deinitialize + 26
        0x00019382:    2002        .       MOVS     r0,#2
        0x00019384:    4770        pG      BX       lr
        0x00019386:    f001417e    ..~A    AND      r1,r1,#0xfe000000
        0x0001938a:    6001        .`      STR      r1,[r0,#0]
        0x0001938c:    2100        .!      MOVS     r1,#0
        0x0001938e:    6241        Ab      STR      r1,[r0,#0x24]
        0x00019390:    7101        .q      STRB     r1,[r0,#4]
        0x00019392:    4608        .F      MOV      r0,r1
        0x00019394:    4770        pG      BX       lr
    $d
        0x00019396:    0000        ..      DCW    0
        0x00019398:    00ea9e06    ....    DCD    15375878
    $t
    i.am_hal_uart_initialize
    am_hal_uart_initialize
        0x0001939c:    2804        .(      CMP      r0,#4
        0x0001939e:    bf24        $.      ITT      CS
        0x000193a0:    2005        .       MOVCS    r0,#5
        0x000193a2:    4770        pG      BXCS     lr
        0x000193a4:    2900        .)      CMP      r1,#0
        0x000193a6:    bf04        ..      ITT      EQ
        0x000193a8:    2006        .       MOVEQ    r0,#6
        0x000193aa:    4770        pG      BXEQ     lr
        0x000193ac:    b410        ..      PUSH     {r4}
        0x000193ae:    680a        .h      LDR      r2,[r1,#0]
        0x000193b0:    4c18        .L      LDR      r4,[pc,#96] ; [0x19414] = 0xea9e06
        0x000193b2:    2a00        .*      CMP      r2,#0
        0x000193b4:    bf1c        ..      ITT      NE
        0x000193b6:    6812        .h      LDRNE    r2,[r2,#0]
        0x000193b8:    f0127f80    ....    TSTNE    r2,#0x1000000
        0x000193bc:    d006        ..      BEQ      0x193cc ; am_hal_uart_initialize + 48
        0x000193be:    f022427f    "..B    BIC      r2,r2,#0xff000000
        0x000193c2:    42a2        .B      CMP      r2,r4
        0x000193c4:    bf02        ..      ITTT     EQ
        0x000193c6:    2007        .       MOVEQ    r0,#7
        0x000193c8:    bc10        ..      POPEQ    {r4}
        0x000193ca:    4770        pG      BXEQ     lr
        0x000193cc:    ebc002c0    ....    RSB      r2,r0,r0,LSL #3
        0x000193d0:    eb021c00    ....    ADD      r12,r2,r0,LSL #4
        0x000193d4:    4b10        .K      LDR      r3,[pc,#64] ; [0x19418] = 0x10000174
        0x000193d6:    f853203c    S.<     LDR      r2,[r3,r12,LSL #3]
        0x000193da:    f0427280    B..r    ORR      r2,r2,#0x1000000
        0x000193de:    f3640217    d...    BFI      r2,r4,#0,#24
        0x000193e2:    f843203c    C.<     STR      r2,[r3,r12,LSL #3]
        0x000193e6:    eb0302cc    ....    ADD      r2,r3,r12,LSL #3
        0x000193ea:    6250        Pb      STR      r0,[r2,#0x24]
        0x000193ec:    2000        .       MOVS     r0,#0
        0x000193ee:    7110        .q      STRB     r0,[r2,#4]
        0x000193f0:    6290        .b      STR      r0,[r2,#0x28]
        0x000193f2:    f882002c    ..,.    STRB     r0,[r2,#0x2c]
        0x000193f6:    f8820054    ..T.    STRB     r0,[r2,#0x54]
        0x000193fa:    f882007c    ..|.    STRB     r0,[r2,#0x7c]
        0x000193fe:    f8820098    ....    STRB     r0,[r2,#0x98]
        0x00019402:    6790        .g      STR      r0,[r2,#0x78]
        0x00019404:    6510        .e      STR      r0,[r2,#0x50]
        0x00019406:    2001        .       MOVS     r0,#1
        0x00019408:    f88200b4    ....    STRB     r0,[r2,#0xb4]
        0x0001940c:    600a        .`      STR      r2,[r1,#0]
        0x0001940e:    bc10        ..      POP      {r4}
        0x00019410:    2000        .       MOVS     r0,#0
        0x00019412:    4770        pG      BX       lr
    $d
        0x00019414:    00ea9e06    ....    DCD    15375878
        0x00019418:    10000174    t...    DCD    268435828
    $t
    i.am_hal_uart_power_control
    am_hal_uart_power_control
        0x0001941c:    b570        p.      PUSH     {r4-r6,lr}
        0x0001941e:    6a46        Fj      LDR      r6,[r0,#0x24]
        0x00019420:    1e04        ..      SUBS     r4,r0,#0
        0x00019422:    f1060309    ....    ADD      r3,r6,#9
        0x00019426:    b2db        ..      UXTB     r3,r3
        0x00019428:    bf1c        ..      ITT      NE
        0x0001942a:    6820         h      LDRNE    r0,[r4,#0]
        0x0001942c:    f0107f80    ....    TSTNE    r0,#0x1000000
        0x00019430:    d005        ..      BEQ      0x1943e ; am_hal_uart_power_control + 34
        0x00019432:    f8dfc0cc    ....    LDR      r12,[pc,#204] ; [0x19500] = 0xea9e06
        0x00019436:    f020407f     ..@    BIC      r0,r0,#0xff000000
        0x0001943a:    4560        `E      CMP      r0,r12
        0x0001943c:    d001        ..      BEQ      0x19442 ; am_hal_uart_power_control + 38
        0x0001943e:    2002        .       MOVS     r0,#2
        0x00019440:    bd70        p.      POP      {r4-r6,pc}
        0x00019442:    2500        .%      MOVS     r5,#0
        0x00019444:    2900        .)      CMP      r1,#0
        0x00019446:    d038        8.      BEQ      0x194ba ; am_hal_uart_power_control + 158
        0x00019448:    2901        .)      CMP      r1,#1
        0x0001944a:    bf1e        ..      ITTT     NE
        0x0001944c:    2902        .)      CMPNE    r1,#2
        0x0001944e:    2006        .       MOVNE    r0,#6
        0x00019450:    bd70        p.      POPNE    {r4-r6,pc}
        0x00019452:    b1b2        ..      CBZ      r2,0x19482 ; am_hal_uart_power_control + 102
        0x00019454:    ea4f3006    O..0    LSL      r0,r6,#12
        0x00019458:    f1004080    ...@    ADD      r0,r0,#0x40000000
        0x0001945c:    f50030e0    ...0    ADD      r0,r0,#0x1c000
        0x00019460:    6a01        .j      LDR      r1,[r0,#0x20]
        0x00019462:    60a1        .`      STR      r1,[r4,#8]
        0x00019464:    6a41        Aj      LDR      r1,[r0,#0x24]
        0x00019466:    60e1        .`      STR      r1,[r4,#0xc]
        0x00019468:    6a81        .j      LDR      r1,[r0,#0x28]
        0x0001946a:    6121        !a      STR      r1,[r4,#0x10]
        0x0001946c:    6ac1        .j      LDR      r1,[r0,#0x2c]
        0x0001946e:    6161        aa      STR      r1,[r4,#0x14]
        0x00019470:    6b01        .k      LDR      r1,[r0,#0x30]
        0x00019472:    61a1        .a      STR      r1,[r4,#0x18]
        0x00019474:    6b41        Ak      LDR      r1,[r0,#0x34]
        0x00019476:    61e1        .a      STR      r1,[r4,#0x1c]
        0x00019478:    6b80        .k      LDR      r0,[r0,#0x38]
        0x0001947a:    6220         b      STR      r0,[r4,#0x20]
        0x0001947c:    f04f0001    O...    MOV      r0,#1
        0x00019480:    7120         q      STRB     r0,[r4,#4]
        0x00019482:    6822        "h      LDR      r2,[r4,#0]
        0x00019484:    6a61        aj      LDR      r1,[r4,#0x24]
        0x00019486:    f04f30ff    O..0    MOV      r0,#0xffffffff
        0x0001948a:    f0127f80    ....    TST      r2,#0x1000000
        0x0001948e:    d009        ..      BEQ      0x194a4 ; am_hal_uart_power_control + 136
        0x00019490:    f022427f    "..B    BIC      r2,r2,#0xff000000
        0x00019494:    4562        bE      CMP      r2,r12
        0x00019496:    d105        ..      BNE      0x194a4 ; am_hal_uart_power_control + 136
        0x00019498:    0309        ..      LSLS     r1,r1,#12
        0x0001949a:    f1014180    ...A    ADD      r1,r1,#0x40000000
        0x0001949e:    f50131e0    ...1    ADD      r1,r1,#0x1c000
        0x000194a2:    6448        Hd      STR      r0,[r1,#0x44]
        0x000194a4:    0330        0.      LSLS     r0,r6,#12
        0x000194a6:    f1004080    ...@    ADD      r0,r0,#0x40000000
        0x000194aa:    f50030e0    ...0    ADD      r0,r0,#0x1c000
        0x000194ae:    6305        .c      STR      r5,[r0,#0x30]
        0x000194b0:    4618        .F      MOV      r0,r3
        0x000194b2:    f7fffc79    ..y.    BL       am_hal_pwrctrl_periph_disable ; 0x18da8
        0x000194b6:    2000        .       MOVS     r0,#0
        0x000194b8:    bd70        p.      POP      {r4-r6,pc}
        0x000194ba:    b1e2        ..      CBZ      r2,0x194f6 ; am_hal_uart_power_control + 218
        0x000194bc:    7920         y      LDRB     r0,[r4,#4]
        0x000194be:    2800        .(      CMP      r0,#0
        0x000194c0:    bf04        ..      ITT      EQ
        0x000194c2:    2007        .       MOVEQ    r0,#7
        0x000194c4:    bd70        p.      POPEQ    {r4-r6,pc}
        0x000194c6:    4618        .F      MOV      r0,r3
        0x000194c8:    f7fffd04    ....    BL       am_hal_pwrctrl_periph_enable ; 0x18ed4
        0x000194cc:    0330        0.      LSLS     r0,r6,#12
        0x000194ce:    f1004080    ...@    ADD      r0,r0,#0x40000000
        0x000194d2:    f50030e0    ...0    ADD      r0,r0,#0x1c000
        0x000194d6:    68a1        .h      LDR      r1,[r4,#8]
        0x000194d8:    6201        .b      STR      r1,[r0,#0x20]
        0x000194da:    68e1        .h      LDR      r1,[r4,#0xc]
        0x000194dc:    6241        Ab      STR      r1,[r0,#0x24]
        0x000194de:    6921        !i      LDR      r1,[r4,#0x10]
        0x000194e0:    6281        .b      STR      r1,[r0,#0x28]
        0x000194e2:    6961        ai      LDR      r1,[r4,#0x14]
        0x000194e4:    62c1        .b      STR      r1,[r0,#0x2c]
        0x000194e6:    69a1        .i      LDR      r1,[r4,#0x18]
        0x000194e8:    6301        .c      STR      r1,[r0,#0x30]
        0x000194ea:    69e1        .i      LDR      r1,[r4,#0x1c]
        0x000194ec:    6341        Ac      STR      r1,[r0,#0x34]
        0x000194ee:    6a21        !j      LDR      r1,[r4,#0x20]
        0x000194f0:    6381        .c      STR      r1,[r0,#0x38]
        0x000194f2:    7125        %q      STRB     r5,[r4,#4]
        0x000194f4:    e7df        ..      B        0x194b6 ; am_hal_uart_power_control + 154
        0x000194f6:    4618        .F      MOV      r0,r3
        0x000194f8:    f7fffcec    ....    BL       am_hal_pwrctrl_periph_enable ; 0x18ed4
        0x000194fc:    e7db        ..      B        0x194b6 ; am_hal_uart_power_control + 154
    $d
        0x000194fe:    0000        ..      DCW    0
        0x00019500:    00ea9e06    ....    DCD    15375878
    $t
    i.am_hal_uart_transfer
    am_hal_uart_transfer
        0x00019504:    e92d4ff8    -..O    PUSH     {r3-r11,lr}
        0x00019508:    460d        .F      MOV      r5,r1
        0x0001950a:    4604        .F      MOV      r4,r0
        0x0001950c:    780a        .x      LDRB     r2,[r1,#0]
        0x0001950e:    2002        .       MOVS     r0,#2
        0x00019510:    4999        .I      LDR      r1,[pc,#612] ; [0x19778] = 0xea9e06
        0x00019512:    4f9a        .O      LDR      r7,[pc,#616] ; [0x1977c] = 0x8000004
        0x00019514:    f04f0901    O...    MOV      r9,#1
        0x00019518:    f04f0a04    O...    MOV      r10,#4
        0x0001951c:    2600        .&      MOVS     r6,#0
        0x0001951e:    b352        R.      CBZ      r2,0x19576 ; am_hal_uart_transfer + 114
        0x00019520:    f1070801    ....    ADD      r8,r7,#1
        0x00019524:    2a01        .*      CMP      r2,#1
        0x00019526:    d07b        {.      BEQ      0x19620 ; am_hal_uart_transfer + 284
        0x00019528:    2a02        .*      CMP      r2,#2
        0x0001952a:    f00080cd    ....    BEQ.W    0x196c8 ; am_hal_uart_transfer + 452
        0x0001952e:    2a03        .*      CMP      r2,#3
        0x00019530:    bf1c        ..      ITT      NE
        0x00019532:    2001        .       MOVNE    r0,#1
        0x00019534:    e8bd8ff8    ....    POPNE    {r3-r11,pc}
        0x00019538:    68ea        .h      LDR      r2,[r5,#0xc]
        0x0001953a:    2c00        .,      CMP      r4,#0
        0x0001953c:    bf1a        ..      ITTE     NE
        0x0001953e:    6823        #h      LDRNE    r3,[r4,#0]
        0x00019540:    f0137f80    ....    TSTNE    r3,#0x1000000
        0x00019544:    e8bd8ff8    ....    POPEQ    {r3-r11,pc}
        0x00019548:    f023437f    #..C    BIC      r3,r3,#0xff000000
        0x0001954c:    428b        .B      CMP      r3,r1
        0x0001954e:    bf18        ..      IT       NE
        0x00019550:    e8bd8ff8    ....    POPNE    {r3-r11,pc}
        0x00019554:    2a00        .*      CMP      r2,#0
        0x00019556:    bf18        ..      IT       NE
        0x00019558:    6016        .`      STRNE    r6,[r2,#0]
        0x0001955a:    f7fefebf    ....    BL       am_hal_interrupt_master_disable ; 0x182dc
        0x0001955e:    9000        ..      STR      r0,[sp,#0]
        0x00019560:    f894002c    ..,.    LDRB     r0,[r4,#0x2c]
        0x00019564:    2800        .(      CMP      r0,#0
        0x00019566:    f00080e9    ....    BEQ.W    0x1973c ; am_hal_uart_transfer + 568
        0x0001956a:    9800        ..      LDR      r0,[sp,#0]
        0x0001956c:    f7fefeba    ....    BL       am_hal_interrupt_master_set ; 0x182e4
        0x00019570:    4640        @F      MOV      r0,r8
        0x00019572:    e8bd8ff8    ....    POP      {r3-r11,pc}
        0x00019576:    68ea        .h      LDR      r2,[r5,#0xc]
        0x00019578:    f04f0800    O...    MOV      r8,#0
        0x0001957c:    2c00        .,      CMP      r4,#0
        0x0001957e:    bf1a        ..      ITTE     NE
        0x00019580:    6823        #h      LDRNE    r3,[r4,#0]
        0x00019582:    f0137f80    ....    TSTNE    r3,#0x1000000
        0x00019586:    e8bd8ff8    ....    POPEQ    {r3-r11,pc}
        0x0001958a:    f023437f    #..C    BIC      r3,r3,#0xff000000
        0x0001958e:    428b        .B      CMP      r3,r1
        0x00019590:    bf18        ..      IT       NE
        0x00019592:    e8bd8ff8    ....    POPNE    {r3-r11,pc}
        0x00019596:    2a00        .*      CMP      r2,#0
        0x00019598:    bf18        ..      IT       NE
        0x0001959a:    6016        .`      STRNE    r6,[r2,#0]
        0x0001959c:    f7fefe9e    ....    BL       am_hal_interrupt_master_disable ; 0x182dc
        0x000195a0:    9000        ..      STR      r0,[sp,#0]
        0x000195a2:    f8940054    ..T.    LDRB     r0,[r4,#0x54]
        0x000195a6:    2800        .(      CMP      r0,#0
        0x000195a8:    d17e        ~.      BNE      0x196a8 ; am_hal_uart_transfer + 420
        0x000195aa:    f8849054    ..T.    STRB     r9,[r4,#0x54]
        0x000195ae:    7829        )x      LDRB     r1,[r5,#0]
        0x000195b0:    f8841058    ..X.    STRB     r1,[r4,#0x58]
        0x000195b4:    6869        ih      LDR      r1,[r5,#4]
        0x000195b6:    65e1        .e      STR      r1,[r4,#0x5c]
        0x000195b8:    68a9        .h      LDR      r1,[r5,#8]
        0x000195ba:    6621        !f      STR      r1,[r4,#0x60]
        0x000195bc:    68e9        .h      LDR      r1,[r5,#0xc]
        0x000195be:    6661        af      STR      r1,[r4,#0x64]
        0x000195c0:    6929        )i      LDR      r1,[r5,#0x10]
        0x000195c2:    66a1        .f      STR      r1,[r4,#0x68]
        0x000195c4:    6969        ii      LDR      r1,[r5,#0x14]
        0x000195c6:    66e1        .f      STR      r1,[r4,#0x6c]
        0x000195c8:    69a9        .i      LDR      r1,[r5,#0x18]
        0x000195ca:    6721        !g      STR      r1,[r4,#0x70]
        0x000195cc:    4620         F      MOV      r0,r4
        0x000195ce:    69e9        .i      LDR      r1,[r5,#0x1c]
        0x000195d0:    6761        ag      STR      r1,[r4,#0x74]
        0x000195d2:    6786        .g      STR      r6,[r0,#0x78]
        0x000195d4:    f88060b4    ...`    STRB     r6,[r0,#0xb4]
        0x000195d8:    9800        ..      LDR      r0,[sp,#0]
        0x000195da:    f7fefe83    ....    BL       am_hal_interrupt_master_set ; 0x182e4
        0x000195de:    4620         F      MOV      r0,r4
        0x000195e0:    f000fe05    ....    BL       nonblocking_write_sm ; 0x1a1ee
        0x000195e4:    f8940054    ..T.    LDRB     r0,[r4,#0x54]
        0x000195e8:    2800        .(      CMP      r0,#0
        0x000195ea:    d067        g.      BEQ      0x196bc ; am_hal_uart_transfer + 440
        0x000195ec:    4620         F      MOV      r0,r4
        0x000195ee:    f000fdfe    ....    BL       nonblocking_write_sm ; 0x1a1ee
        0x000195f2:    f44f707a    O.zp    MOV      r0,#0x3e8
        0x000195f6:    f7feffe1    ....    BL       am_hal_delay_us ; 0x185bc
        0x000195fa:    6928        (i      LDR      r0,[r5,#0x10]
        0x000195fc:    f1b03fff    ...?    CMP      r0,#0xffffffff
        0x00019600:    d009        ..      BEQ      0x19616 ; am_hal_uart_transfer + 274
        0x00019602:    f1080801    ....    ADD      r8,r8,#1
        0x00019606:    4540        @E      CMP      r0,r8
        0x00019608:    d105        ..      BNE      0x19616 ; am_hal_uart_transfer + 274
        0x0001960a:    f8846054    ..T`    STRB     r6,[r4,#0x54]
        0x0001960e:    4650        PF      MOV      r0,r10
        0x00019610:    e8bd8ff8    ....    POP      {r3-r11,pc}
        0x00019614:    e004        ..      B        0x19620 ; am_hal_uart_transfer + 284
        0x00019616:    f8940054    ..T.    LDRB     r0,[r4,#0x54]
        0x0001961a:    2800        .(      CMP      r0,#0
        0x0001961c:    d1e6        ..      BNE      0x195ec ; am_hal_uart_transfer + 232
        0x0001961e:    e0a7        ..      B        0x19770 ; am_hal_uart_transfer + 620
        0x00019620:    2700        .'      MOVS     r7,#0
        0x00019622:    68ea        .h      LDR      r2,[r5,#0xc]
        0x00019624:    2c00        .,      CMP      r4,#0
        0x00019626:    bf1c        ..      ITT      NE
        0x00019628:    6823        #h      LDRNE    r3,[r4,#0]
        0x0001962a:    f0137f80    ....    TSTNE    r3,#0x1000000
        0x0001962e:    d003        ..      BEQ      0x19638 ; am_hal_uart_transfer + 308
        0x00019630:    f023437f    #..C    BIC      r3,r3,#0xff000000
        0x00019634:    428b        .B      CMP      r3,r1
        0x00019636:    d001        ..      BEQ      0x1963c ; am_hal_uart_transfer + 312
        0x00019638:    4606        .F      MOV      r6,r0
        0x0001963a:    e099        ..      B        0x19770 ; am_hal_uart_transfer + 620
        0x0001963c:    2a00        .*      CMP      r2,#0
        0x0001963e:    bf18        ..      IT       NE
        0x00019640:    6016        .`      STRNE    r6,[r2,#0]
        0x00019642:    f7fefe4b    ..K.    BL       am_hal_interrupt_master_disable ; 0x182dc
        0x00019646:    9000        ..      STR      r0,[sp,#0]
        0x00019648:    f894002c    ..,.    LDRB     r0,[r4,#0x2c]
        0x0001964c:    b120         .      CBZ      r0,0x19658 ; am_hal_uart_transfer + 340
        0x0001964e:    4646        FF      MOV      r6,r8
        0x00019650:    9800        ..      LDR      r0,[sp,#0]
        0x00019652:    f7fefe47    ..G.    BL       am_hal_interrupt_master_set ; 0x182e4
        0x00019656:    e08b        ..      B        0x19770 ; am_hal_uart_transfer + 620
        0x00019658:    f884902c    ..,.    STRB     r9,[r4,#0x2c]
        0x0001965c:    7829        )x      LDRB     r1,[r5,#0]
        0x0001965e:    f8841030    ..0.    STRB     r1,[r4,#0x30]
        0x00019662:    6869        ih      LDR      r1,[r5,#4]
        0x00019664:    6361        ac      STR      r1,[r4,#0x34]
        0x00019666:    68a9        .h      LDR      r1,[r5,#8]
        0x00019668:    63a1        .c      STR      r1,[r4,#0x38]
        0x0001966a:    68e9        .h      LDR      r1,[r5,#0xc]
        0x0001966c:    63e1        .c      STR      r1,[r4,#0x3c]
        0x0001966e:    6929        )i      LDR      r1,[r5,#0x10]
        0x00019670:    6421        !d      STR      r1,[r4,#0x40]
        0x00019672:    6969        ii      LDR      r1,[r5,#0x14]
        0x00019674:    6461        ad      STR      r1,[r4,#0x44]
        0x00019676:    69a9        .i      LDR      r1,[r5,#0x18]
        0x00019678:    64a1        .d      STR      r1,[r4,#0x48]
        0x0001967a:    4620         F      MOV      r0,r4
        0x0001967c:    69e9        .i      LDR      r1,[r5,#0x1c]
        0x0001967e:    64e1        .d      STR      r1,[r4,#0x4c]
        0x00019680:    6506        .e      STR      r6,[r0,#0x50]
        0x00019682:    9800        ..      LDR      r0,[sp,#0]
        0x00019684:    f7fefe2e    ....    BL       am_hal_interrupt_master_set ; 0x182e4
        0x00019688:    4620         F      MOV      r0,r4
        0x0001968a:    f000fd16    ....    BL       nonblocking_read_sm ; 0x1a0ba
        0x0001968e:    f894002c    ..,.    LDRB     r0,[r4,#0x2c]
        0x00019692:    2800        .(      CMP      r0,#0
        0x00019694:    d06c        l.      BEQ      0x19770 ; am_hal_uart_transfer + 620
        0x00019696:    4620         F      MOV      r0,r4
        0x00019698:    f000fd0f    ....    BL       nonblocking_read_sm ; 0x1a0ba
        0x0001969c:    f44f707a    O.zp    MOV      r0,#0x3e8
        0x000196a0:    f7feff8c    ....    BL       am_hal_delay_us ; 0x185bc
        0x000196a4:    6928        (i      LDR      r0,[r5,#0x10]
        0x000196a6:    e000        ..      B        0x196aa ; am_hal_uart_transfer + 422
        0x000196a8:    e025        %.      B        0x196f6 ; am_hal_uart_transfer + 498
        0x000196aa:    f1b03fff    ...?    CMP      r0,#0xffffffff
        0x000196ae:    d006        ..      BEQ      0x196be ; am_hal_uart_transfer + 442
        0x000196b0:    1c7f        ..      ADDS     r7,r7,#1
        0x000196b2:    42b8        .B      CMP      r0,r7
        0x000196b4:    d103        ..      BNE      0x196be ; am_hal_uart_transfer + 442
        0x000196b6:    f884602c    ..,`    STRB     r6,[r4,#0x2c]
        0x000196ba:    4656        VF      MOV      r6,r10
        0x000196bc:    e058        X.      B        0x19770 ; am_hal_uart_transfer + 620
        0x000196be:    f894002c    ..,.    LDRB     r0,[r4,#0x2c]
        0x000196c2:    2800        .(      CMP      r0,#0
        0x000196c4:    d1e7        ..      BNE      0x19696 ; am_hal_uart_transfer + 402
        0x000196c6:    e053        S.      B        0x19770 ; am_hal_uart_transfer + 620
        0x000196c8:    68ea        .h      LDR      r2,[r5,#0xc]
        0x000196ca:    2c00        .,      CMP      r4,#0
        0x000196cc:    bf1a        ..      ITTE     NE
        0x000196ce:    6823        #h      LDRNE    r3,[r4,#0]
        0x000196d0:    f0137f80    ....    TSTNE    r3,#0x1000000
        0x000196d4:    e8bd8ff8    ....    POPEQ    {r3-r11,pc}
        0x000196d8:    f023437f    #..C    BIC      r3,r3,#0xff000000
        0x000196dc:    428b        .B      CMP      r3,r1
        0x000196de:    bf18        ..      IT       NE
        0x000196e0:    e8bd8ff8    ....    POPNE    {r3-r11,pc}
        0x000196e4:    2a00        .*      CMP      r2,#0
        0x000196e6:    bf18        ..      IT       NE
        0x000196e8:    6016        .`      STRNE    r6,[r2,#0]
        0x000196ea:    f7fefdf7    ....    BL       am_hal_interrupt_master_disable ; 0x182dc
        0x000196ee:    9000        ..      STR      r0,[sp,#0]
        0x000196f0:    f8940054    ..T.    LDRB     r0,[r4,#0x54]
        0x000196f4:    b128        (.      CBZ      r0,0x19702 ; am_hal_uart_transfer + 510
        0x000196f6:    9800        ..      LDR      r0,[sp,#0]
        0x000196f8:    f7fefdf4    ....    BL       am_hal_interrupt_master_set ; 0x182e4
        0x000196fc:    4638        8F      MOV      r0,r7
        0x000196fe:    e8bd8ff8    ....    POP      {r3-r11,pc}
        0x00019702:    f8849054    ..T.    STRB     r9,[r4,#0x54]
        0x00019706:    7828        (x      LDRB     r0,[r5,#0]
        0x00019708:    f8840058    ..X.    STRB     r0,[r4,#0x58]
        0x0001970c:    6868        hh      LDR      r0,[r5,#4]
        0x0001970e:    65e0        .e      STR      r0,[r4,#0x5c]
        0x00019710:    68a8        .h      LDR      r0,[r5,#8]
        0x00019712:    6620         f      STR      r0,[r4,#0x60]
        0x00019714:    68e8        .h      LDR      r0,[r5,#0xc]
        0x00019716:    6660        `f      STR      r0,[r4,#0x64]
        0x00019718:    6928        (i      LDR      r0,[r5,#0x10]
        0x0001971a:    66a0        .f      STR      r0,[r4,#0x68]
        0x0001971c:    6968        hi      LDR      r0,[r5,#0x14]
        0x0001971e:    66e0        .f      STR      r0,[r4,#0x6c]
        0x00019720:    69a8        .i      LDR      r0,[r5,#0x18]
        0x00019722:    6720         g      STR      r0,[r4,#0x70]
        0x00019724:    69e8        .i      LDR      r0,[r5,#0x1c]
        0x00019726:    67a6        .g      STR      r6,[r4,#0x78]
        0x00019728:    6760        `g      STR      r0,[r4,#0x74]
        0x0001972a:    f88460b4    ...`    STRB     r6,[r4,#0xb4]
        0x0001972e:    9800        ..      LDR      r0,[sp,#0]
        0x00019730:    f7fefdd8    ....    BL       am_hal_interrupt_master_set ; 0x182e4
        0x00019734:    4620         F      MOV      r0,r4
        0x00019736:    f000fd5a    ..Z.    BL       nonblocking_write_sm ; 0x1a1ee
        0x0001973a:    e019        ..      B        0x19770 ; am_hal_uart_transfer + 620
        0x0001973c:    f884902c    ..,.    STRB     r9,[r4,#0x2c]
        0x00019740:    7828        (x      LDRB     r0,[r5,#0]
        0x00019742:    f8840030    ..0.    STRB     r0,[r4,#0x30]
        0x00019746:    6868        hh      LDR      r0,[r5,#4]
        0x00019748:    6360        `c      STR      r0,[r4,#0x34]
        0x0001974a:    68a8        .h      LDR      r0,[r5,#8]
        0x0001974c:    63a0        .c      STR      r0,[r4,#0x38]
        0x0001974e:    68e8        .h      LDR      r0,[r5,#0xc]
        0x00019750:    63e0        .c      STR      r0,[r4,#0x3c]
        0x00019752:    6928        (i      LDR      r0,[r5,#0x10]
        0x00019754:    6420         d      STR      r0,[r4,#0x40]
        0x00019756:    6968        hi      LDR      r0,[r5,#0x14]
        0x00019758:    6460        `d      STR      r0,[r4,#0x44]
        0x0001975a:    69a8        .i      LDR      r0,[r5,#0x18]
        0x0001975c:    64a0        .d      STR      r0,[r4,#0x48]
        0x0001975e:    69e8        .i      LDR      r0,[r5,#0x1c]
        0x00019760:    6526        &e      STR      r6,[r4,#0x50]
        0x00019762:    64e0        .d      STR      r0,[r4,#0x4c]
        0x00019764:    9800        ..      LDR      r0,[sp,#0]
        0x00019766:    f7fefdbd    ....    BL       am_hal_interrupt_master_set ; 0x182e4
        0x0001976a:    4620         F      MOV      r0,r4
        0x0001976c:    f000fca5    ....    BL       nonblocking_read_sm ; 0x1a0ba
        0x00019770:    4630        0F      MOV      r0,r6
        0x00019772:    e8bd8ff8    ....    POP      {r3-r11,pc}
    $d
        0x00019776:    0000        ..      DCW    0
        0x00019778:    00ea9e06    ....    DCD    15375878
        0x0001977c:    08000004    ....    DCD    134217732
    $t
    i.am_hal_uart_tx_flush
    am_hal_uart_tx_flush
        0x00019780:    b570        p.      PUSH     {r4-r6,lr}
        0x00019782:    4604        .F      MOV      r4,r0
        0x00019784:    6a41        Aj      LDR      r1,[r0,#0x24]
        0x00019786:    f89000b4    ....    LDRB     r0,[r0,#0xb4]
        0x0001978a:    2801        .(      CMP      r0,#1
        0x0001978c:    d044        D.      BEQ      0x19818 ; am_hal_uart_tx_flush + 152
        0x0001978e:    0308        ..      LSLS     r0,r1,#12
        0x00019790:    f1004580    ...E    ADD      r5,r0,#0x40000000
        0x00019794:    f50535e0    ...5    ADD      r5,r5,#0x1c000
        0x00019798:    6ba8        .k      LDR      r0,[r5,#0x38]
        0x0001979a:    4e21        !N      LDR      r6,[pc,#132] ; [0x19820] = 0xf4240
        0x0001979c:    f0100f01    ....    TST      r0,#1
        0x000197a0:    d010        ..      BEQ      0x197c4 ; am_hal_uart_tx_flush + 68
        0x000197a2:    f89400b4    ....    LDRB     r0,[r4,#0xb4]
        0x000197a6:    bbb8        ..      CBNZ     r0,0x19818 ; am_hal_uart_tx_flush + 152
        0x000197a8:    6aa0        .j      LDR      r0,[r4,#0x28]
        0x000197aa:    fbb6f0f0    ....    UDIV     r0,r6,r0
        0x000197ae:    1c40        @.      ADDS     r0,r0,#1
        0x000197b0:    eb000080    ....    ADD      r0,r0,r0,LSL #2
        0x000197b4:    0040        @.      LSLS     r0,r0,#1
        0x000197b6:    f7feff01    ....    BL       am_hal_delay_us ; 0x185bc
        0x000197ba:    f89400b4    ....    LDRB     r0,[r4,#0xb4]
        0x000197be:    2800        .(      CMP      r0,#0
        0x000197c0:    d0f2        ..      BEQ      0x197a8 ; am_hal_uart_tx_flush + 40
        0x000197c2:    e029        ).      B        0x19818 ; am_hal_uart_tx_flush + 152
        0x000197c4:    f894007c    ..|.    LDRB     r0,[r4,#0x7c]
        0x000197c8:    2800        .(      CMP      r0,#0
        0x000197ca:    bf1c        ..      ITT      NE
        0x000197cc:    f8d40088    ....    LDRNE    r0,[r4,#0x88]
        0x000197d0:    2800        .(      CMPNE    r0,#0
        0x000197d2:    d00e        ..      BEQ      0x197f2 ; am_hal_uart_tx_flush + 114
        0x000197d4:    6aa0        .j      LDR      r0,[r4,#0x28]
        0x000197d6:    fbb6f0f0    ....    UDIV     r0,r6,r0
        0x000197da:    f1000001    ....    ADD      r0,r0,#1
        0x000197de:    eb000080    ....    ADD      r0,r0,r0,LSL #2
        0x000197e2:    ea4f0040    O.@.    LSL      r0,r0,#1
        0x000197e6:    f7fefee9    ....    BL       am_hal_delay_us ; 0x185bc
        0x000197ea:    f8d40088    ....    LDR      r0,[r4,#0x88]
        0x000197ee:    2800        .(      CMP      r0,#0
        0x000197f0:    d1f0        ..      BNE      0x197d4 ; am_hal_uart_tx_flush + 84
        0x000197f2:    69a8        .i      LDR      r0,[r5,#0x18]
        0x000197f4:    f0100f08    ....    TST      r0,#8
        0x000197f8:    d00e        ..      BEQ      0x19818 ; am_hal_uart_tx_flush + 152
        0x000197fa:    6aa0        .j      LDR      r0,[r4,#0x28]
        0x000197fc:    fbb6f0f0    ....    UDIV     r0,r6,r0
        0x00019800:    f1000001    ....    ADD      r0,r0,#1
        0x00019804:    eb000080    ....    ADD      r0,r0,r0,LSL #2
        0x00019808:    ea4f0040    O.@.    LSL      r0,r0,#1
        0x0001980c:    f7fefed6    ....    BL       am_hal_delay_us ; 0x185bc
        0x00019810:    69a8        .i      LDR      r0,[r5,#0x18]
        0x00019812:    f0100f08    ....    TST      r0,#8
        0x00019816:    d1f0        ..      BNE      0x197fa ; am_hal_uart_tx_flush + 122
        0x00019818:    f04f0000    O...    MOV      r0,#0
        0x0001981c:    bd70        p.      POP      {r4-r6,pc}
    $d
        0x0001981e:    0000        ..      DCW    0
        0x00019820:    000f4240    @B..    DCD    1000000
    $t
    i.am_util_stdio_printf
    am_util_stdio_printf
        0x00019824:    b40f        ..      PUSH     {r0-r3}
        0x00019826:    b538        8.      PUSH     {r3-r5,lr}
        0x00019828:    480b        .H      LDR      r0,[pc,#44] ; [0x19858] = 0x10000000
        0x0001982a:    6800        .h      LDR      r0,[r0,#0]
        0x0001982c:    b918        ..      CBNZ     r0,0x19836 ; am_util_stdio_printf + 18
        0x0001982e:    2000        .       MOVS     r0,#0
        0x00019830:    bc38        8.      POP      {r3-r5}
        0x00019832:    f85dfb14    ]...    LDR      pc,[sp],#0x14
        0x00019836:    a805        ..      ADD      r0,sp,#0x14
        0x00019838:    9000        ..      STR      r0,[sp,#0]
        0x0001983a:    4808        .H      LDR      r0,[pc,#32] ; [0x1985c] = 0x10000074
        0x0001983c:    9a00        ..      LDR      r2,[sp,#0]
        0x0001983e:    9904        ..      LDR      r1,[sp,#0x10]
        0x00019840:    f000f824    ..$.    BL       am_util_stdio_vsprintf ; 0x1988c
        0x00019844:    4604        .F      MOV      r4,r0
        0x00019846:    2000        .       MOVS     r0,#0
        0x00019848:    9000        ..      STR      r0,[sp,#0]
        0x0001984a:    4804        .H      LDR      r0,[pc,#16] ; [0x1985c] = 0x10000074
        0x0001984c:    4902        .I      LDR      r1,[pc,#8] ; [0x19858] = 0x10000000
        0x0001984e:    6809        .h      LDR      r1,[r1,#0]
        0x00019850:    4788        .G      BLX      r1
        0x00019852:    4620         F      MOV      r0,r4
        0x00019854:    e7ec        ..      B        0x19830 ; am_util_stdio_printf + 12
    $d
        0x00019856:    0000        ..      DCW    0
        0x00019858:    10000000    ....    DCD    268435456
        0x0001985c:    10000074    t...    DCD    268435572
    $t
    i.am_util_stdio_printf_init
    am_util_stdio_printf_init
        0x00019860:    4901        .I      LDR      r1,[pc,#4] ; [0x19868] = 0x10000000
        0x00019862:    6008        .`      STR      r0,[r1,#0]
        0x00019864:    4770        pG      BX       lr
    $d
        0x00019866:    0000        ..      DCW    0
        0x00019868:    10000000    ....    DCD    268435456
    $t
    i.am_util_stdio_terminal_clear
    am_util_stdio_terminal_clear
        0x0001986c:    b510        ..      PUSH     {r4,lr}
        0x0001986e:    a002        ..      ADR      r0,{pc}+0xa ; 0x19878
        0x00019870:    f7ffffd8    ....    BL       am_util_stdio_printf ; 0x19824
        0x00019874:    bd10        ..      POP      {r4,pc}
    $d
        0x00019876:    0000        ..      DCW    0
        0x00019878:    0a0a0a0a    ....    DCD    168430090
        0x0001987c:    0a0a0a0a    ....    DCD    168430090
        0x00019880:    0a0a0a0a    ....    DCD    168430090
        0x00019884:    0a0a0a0a    ....    DCD    168430090
        0x00019888:    00000a0a    ....    DCD    2570
    $t
    i.am_util_stdio_vsprintf
    am_util_stdio_vsprintf
        0x0001988c:    e92d4ff7    -..O    PUSH     {r0-r2,r4-r11,lr}
        0x00019890:    ed2d8b02    -...    VPUSH    {d8}
        0x00019894:    b08a        ..      SUB      sp,sp,#0x28
        0x00019896:    4604        .F      MOV      r4,r0
        0x00019898:    460d        .F      MOV      r5,r1
        0x0001989a:    f04f0900    O...    MOV      r9,#0
        0x0001989e:    2000        .       MOVS     r0,#0
        0x000198a0:    9000        ..      STR      r0,[sp,#0]
        0x000198a2:    e1b9        ..      B        0x19c18 ; am_util_stdio_vsprintf + 908
        0x000198a4:    2006        .       MOVS     r0,#6
        0x000198a6:    9006        ..      STR      r0,[sp,#0x18]
        0x000198a8:    7828        (x      LDRB     r0,[r5,#0]
        0x000198aa:    2825        %(      CMP      r0,#0x25
        0x000198ac:    d012        ..      BEQ      0x198d4 ; am_util_stdio_vsprintf + 72
        0x000198ae:    b16c        l.      CBZ      r4,0x198cc ; am_util_stdio_vsprintf + 64
        0x000198b0:    7828        (x      LDRB     r0,[r5,#0]
        0x000198b2:    280a        .(      CMP      r0,#0xa
        0x000198b4:    d107        ..      BNE      0x198c6 ; am_util_stdio_vsprintf + 58
        0x000198b6:    48de        .H      LDR      r0,[pc,#888] ; [0x19c30] = 0x10000004
        0x000198b8:    7800        .x      LDRB     r0,[r0,#0]
        0x000198ba:    b120         .      CBZ      r0,0x198c6 ; am_util_stdio_vsprintf + 58
        0x000198bc:    200d        .       MOVS     r0,#0xd
        0x000198be:    f8040b01    ....    STRB     r0,[r4],#1
        0x000198c2:    f1090901    ....    ADD      r9,r9,#1
        0x000198c6:    7828        (x      LDRB     r0,[r5,#0]
        0x000198c8:    f8040b01    ....    STRB     r0,[r4],#1
        0x000198cc:    1c6d        m.      ADDS     r5,r5,#1
        0x000198ce:    f1090901    ....    ADD      r9,r9,#1
        0x000198d2:    e1a1        ..      B        0x19c18 ; am_util_stdio_vsprintf + 908
        0x000198d4:    1c6d        m.      ADDS     r5,r5,#1
        0x000198d6:    2000        .       MOVS     r0,#0
        0x000198d8:    9002        ..      STR      r0,[sp,#8]
        0x000198da:    9003        ..      STR      r0,[sp,#0xc]
        0x000198dc:    2020                MOVS     r0,#0x20
        0x000198de:    9004        ..      STR      r0,[sp,#0x10]
        0x000198e0:    7828        (x      LDRB     r0,[r5,#0]
        0x000198e2:    2830        0(      CMP      r0,#0x30
        0x000198e4:    d101        ..      BNE      0x198ea ; am_util_stdio_vsprintf + 94
        0x000198e6:    9004        ..      STR      r0,[sp,#0x10]
        0x000198e8:    1c6d        m.      ADDS     r5,r5,#1
        0x000198ea:    a907        ..      ADD      r1,sp,#0x1c
        0x000198ec:    4628        (F      MOV      r0,r5
        0x000198ee:    f000fa0f    ....    BL       decstr_to_int ; 0x19d10
        0x000198f2:    4606        .F      MOV      r6,r0
        0x000198f4:    9807        ..      LDR      r0,[sp,#0x1c]
        0x000198f6:    4405        .D      ADD      r5,r5,r0
        0x000198f8:    7828        (x      LDRB     r0,[r5,#0]
        0x000198fa:    2873        s(      CMP      r0,#0x73
        0x000198fc:    d002        ..      BEQ      0x19904 ; am_util_stdio_vsprintf + 120
        0x000198fe:    2e00        ..      CMP      r6,#0
        0x00019900:    da00        ..      BGE      0x19904 ; am_util_stdio_vsprintf + 120
        0x00019902:    4276        vB      RSBS     r6,r6,#0
        0x00019904:    7828        (x      LDRB     r0,[r5,#0]
        0x00019906:    282e        .(      CMP      r0,#0x2e
        0x00019908:    d107        ..      BNE      0x1991a ; am_util_stdio_vsprintf + 142
        0x0001990a:    1c6d        m.      ADDS     r5,r5,#1
        0x0001990c:    a907        ..      ADD      r1,sp,#0x1c
        0x0001990e:    4628        (F      MOV      r0,r5
        0x00019910:    f000f9fe    ....    BL       decstr_to_int ; 0x19d10
        0x00019914:    9006        ..      STR      r0,[sp,#0x18]
        0x00019916:    9807        ..      LDR      r0,[sp,#0x1c]
        0x00019918:    4405        .D      ADD      r5,r5,r0
        0x0001991a:    7828        (x      LDRB     r0,[r5,#0]
        0x0001991c:    286c        l(      CMP      r0,#0x6c
        0x0001991e:    d106        ..      BNE      0x1992e ; am_util_stdio_vsprintf + 162
        0x00019920:    1c6d        m.      ADDS     r5,r5,#1
        0x00019922:    7828        (x      LDRB     r0,[r5,#0]
        0x00019924:    286c        l(      CMP      r0,#0x6c
        0x00019926:    d102        ..      BNE      0x1992e ; am_util_stdio_vsprintf + 162
        0x00019928:    1c6d        m.      ADDS     r5,r5,#1
        0x0001992a:    2001        .       MOVS     r0,#1
        0x0001992c:    9002        ..      STR      r0,[sp,#8]
        0x0001992e:    7828        (x      LDRB     r0,[r5,#0]
        0x00019930:    2866        f(      CMP      r0,#0x66
        0x00019932:    d06f        o.      BEQ      0x19a14 ; am_util_stdio_vsprintf + 392
        0x00019934:    dc08        ..      BGT      0x19948 ; am_util_stdio_vsprintf + 188
        0x00019936:    2846        F(      CMP      r0,#0x46
        0x00019938:    d06d        m.      BEQ      0x19a16 ; am_util_stdio_vsprintf + 394
        0x0001993a:    2858        X(      CMP      r0,#0x58
        0x0001993c:    d05c        \.      BEQ      0x199f8 ; am_util_stdio_vsprintf + 364
        0x0001993e:    2863        c(      CMP      r0,#0x63
        0x00019940:    d00b        ..      BEQ      0x1995a ; am_util_stdio_vsprintf + 206
        0x00019942:    2864        d(      CMP      r0,#0x64
        0x00019944:    d168        h.      BNE      0x19a18 ; am_util_stdio_vsprintf + 396
        0x00019946:    e0c3        ..      B        0x19ad0 ; am_util_stdio_vsprintf + 580
        0x00019948:    2869        i(      CMP      r0,#0x69
        0x0001994a:    d07d        }.      BEQ      0x19a48 ; am_util_stdio_vsprintf + 444
        0x0001994c:    2873        s(      CMP      r0,#0x73
        0x0001994e:    d011        ..      BEQ      0x19974 ; am_util_stdio_vsprintf + 232
        0x00019950:    2875        u(      CMP      r0,#0x75
        0x00019952:    d07a        z.      BEQ      0x19a4a ; am_util_stdio_vsprintf + 446
        0x00019954:    2878        x(      CMP      r0,#0x78
        0x00019956:    d1f5        ..      BNE      0x19944 ; am_util_stdio_vsprintf + 184
        0x00019958:    e04b        K.      B        0x199f2 ; am_util_stdio_vsprintf + 358
        0x0001995a:    980e        ..      LDR      r0,[sp,#0x38]
        0x0001995c:    f8101b04    ....    LDRB     r1,[r0],#4
        0x00019960:    900e        ..      STR      r0,[sp,#0x38]
        0x00019962:    b2c8        ..      UXTB     r0,r1
        0x00019964:    9005        ..      STR      r0,[sp,#0x14]
        0x00019966:    b114        ..      CBZ      r4,0x1996e ; am_util_stdio_vsprintf + 226
        0x00019968:    9805        ..      LDR      r0,[sp,#0x14]
        0x0001996a:    f8040b01    ....    STRB     r0,[r4],#1
        0x0001996e:    f1090901    ....    ADD      r9,r9,#1
        0x00019972:    e14e        N.      B        0x19c12 ; am_util_stdio_vsprintf + 902
        0x00019974:    980e        ..      LDR      r0,[sp,#0x38]
        0x00019976:    f850bb04    P...    LDR      r11,[r0],#4
        0x0001997a:    900e        ..      STR      r0,[sp,#0x38]
        0x0001997c:    4658        XF      MOV      r0,r11
        0x0001997e:    f000fcf4    ....    BL       simple_strlen ; 0x1a36a
        0x00019982:    9000        ..      STR      r0,[sp,#0]
        0x00019984:    2e00        ..      CMP      r6,#0
        0x00019986:    dd11        ..      BLE      0x199ac ; am_util_stdio_vsprintf + 288
        0x00019988:    9800        ..      LDR      r0,[sp,#0]
        0x0001998a:    42b0        .B      CMP      r0,r6
        0x0001998c:    d20e        ..      BCS      0x199ac ; am_util_stdio_vsprintf + 288
        0x0001998e:    9800        ..      LDR      r0,[sp,#0]
        0x00019990:    1a36        6.      SUBS     r6,r6,r0
        0x00019992:    4632        2F      MOV      r2,r6
        0x00019994:    4620         F      MOV      r0,r4
        0x00019996:    9904        ..      LDR      r1,[sp,#0x10]
        0x00019998:    f000fcd6    ....    BL       padbuffer ; 0x1a348
        0x0001999c:    4606        .F      MOV      r6,r0
        0x0001999e:    b10c        ..      CBZ      r4,0x199a4 ; am_util_stdio_vsprintf + 280
        0x000199a0:    4630        0F      MOV      r0,r6
        0x000199a2:    e000        ..      B        0x199a6 ; am_util_stdio_vsprintf + 282
        0x000199a4:    2000        .       MOVS     r0,#0
        0x000199a6:    4404        .D      ADD      r4,r4,r0
        0x000199a8:    44b1        .D      ADD      r9,r9,r6
        0x000199aa:    2600        .&      MOVS     r6,#0
        0x000199ac:    e008        ..      B        0x199c0 ; am_util_stdio_vsprintf + 308
        0x000199ae:    b11c        ..      CBZ      r4,0x199b8 ; am_util_stdio_vsprintf + 300
        0x000199b0:    f89b0000    ....    LDRB     r0,[r11,#0]
        0x000199b4:    f8040b01    ....    STRB     r0,[r4],#1
        0x000199b8:    f10b0b01    ....    ADD      r11,r11,#1
        0x000199bc:    f1090901    ....    ADD      r9,r9,#1
        0x000199c0:    f89b0000    ....    LDRB     r0,[r11,#0]
        0x000199c4:    2800        .(      CMP      r0,#0
        0x000199c6:    d1f2        ..      BNE      0x199ae ; am_util_stdio_vsprintf + 290
        0x000199c8:    b196        ..      CBZ      r6,0x199f0 ; am_util_stdio_vsprintf + 356
        0x000199ca:    4276        vB      RSBS     r6,r6,#0
        0x000199cc:    9800        ..      LDR      r0,[sp,#0]
        0x000199ce:    42b0        .B      CMP      r0,r6
        0x000199d0:    d20e        ..      BCS      0x199f0 ; am_util_stdio_vsprintf + 356
        0x000199d2:    9800        ..      LDR      r0,[sp,#0]
        0x000199d4:    1a36        6.      SUBS     r6,r6,r0
        0x000199d6:    4632        2F      MOV      r2,r6
        0x000199d8:    4620         F      MOV      r0,r4
        0x000199da:    9904        ..      LDR      r1,[sp,#0x10]
        0x000199dc:    f000fcb4    ....    BL       padbuffer ; 0x1a348
        0x000199e0:    4606        .F      MOV      r6,r0
        0x000199e2:    b10c        ..      CBZ      r4,0x199e8 ; am_util_stdio_vsprintf + 348
        0x000199e4:    4630        0F      MOV      r0,r6
        0x000199e6:    e000        ..      B        0x199ea ; am_util_stdio_vsprintf + 350
        0x000199e8:    2000        .       MOVS     r0,#0
        0x000199ea:    4404        .D      ADD      r4,r4,r0
        0x000199ec:    44b1        .D      ADD      r9,r9,r6
        0x000199ee:    2600        .&      MOVS     r6,#0
        0x000199f0:    e10f        ..      B        0x19c12 ; am_util_stdio_vsprintf + 902
        0x000199f2:    2001        .       MOVS     r0,#1
        0x000199f4:    9003        ..      STR      r0,[sp,#0xc]
        0x000199f6:    bf00        ..      NOP      
        0x000199f8:    9802        ..      LDR      r0,[sp,#8]
        0x000199fa:    b170        p.      CBZ      r0,0x19a1a ; am_util_stdio_vsprintf + 398
        0x000199fc:    980e        ..      LDR      r0,[sp,#0x38]
        0x000199fe:    1dc0        ..      ADDS     r0,r0,#7
        0x00019a00:    f0200007     ...    BIC      r0,r0,#7
        0x00019a04:    4601        .F      MOV      r1,r0
        0x00019a06:    900e        ..      STR      r0,[sp,#0x38]
        0x00019a08:    6800        .h      LDR      r0,[r0,#0]
        0x00019a0a:    6849        Ih      LDR      r1,[r1,#4]
        0x00019a0c:    9a0e        ..      LDR      r2,[sp,#0x38]
        0x00019a0e:    3208        .2      ADDS     r2,r2,#8
        0x00019a10:    920e        ..      STR      r2,[sp,#0x38]
        0x00019a12:    e008        ..      B        0x19a26 ; am_util_stdio_vsprintf + 410
        0x00019a14:    e0c3        ..      B        0x19b9e ; am_util_stdio_vsprintf + 786
        0x00019a16:    e0c3        ..      B        0x19ba0 ; am_util_stdio_vsprintf + 788
        0x00019a18:    e0f4        ..      B        0x19c04 ; am_util_stdio_vsprintf + 888
        0x00019a1a:    980e        ..      LDR      r0,[sp,#0x38]
        0x00019a1c:    6800        .h      LDR      r0,[r0,#0]
        0x00019a1e:    990e        ..      LDR      r1,[sp,#0x38]
        0x00019a20:    1d09        ..      ADDS     r1,r1,#4
        0x00019a22:    910e        ..      STR      r1,[sp,#0x38]
        0x00019a24:    2100        .!      MOVS     r1,#0
        0x00019a26:    4607        .F      MOV      r7,r0
        0x00019a28:    4688        .F      MOV      r8,r1
        0x00019a2a:    b19e        ..      CBZ      r6,0x19a54 ; am_util_stdio_vsprintf + 456
        0x00019a2c:    4638        8F      MOV      r0,r7
        0x00019a2e:    4641        AF      MOV      r1,r8
        0x00019a30:    f000fafa    ....    BL       ndigits_in_hex ; 0x1a028
        0x00019a34:    1a36        6.      SUBS     r6,r6,r0
        0x00019a36:    4632        2F      MOV      r2,r6
        0x00019a38:    4620         F      MOV      r0,r4
        0x00019a3a:    9904        ..      LDR      r1,[sp,#0x10]
        0x00019a3c:    f000fc84    ....    BL       padbuffer ; 0x1a348
        0x00019a40:    4606        .F      MOV      r6,r0
        0x00019a42:    b11c        ..      CBZ      r4,0x19a4c ; am_util_stdio_vsprintf + 448
        0x00019a44:    4630        0F      MOV      r0,r6
        0x00019a46:    e002        ..      B        0x19a4e ; am_util_stdio_vsprintf + 450
        0x00019a48:    e043        C.      B        0x19ad2 ; am_util_stdio_vsprintf + 582
        0x00019a4a:    e00e        ..      B        0x19a6a ; am_util_stdio_vsprintf + 478
        0x00019a4c:    2000        .       MOVS     r0,#0
        0x00019a4e:    4404        .D      ADD      r4,r4,r0
        0x00019a50:    44b1        .D      ADD      r9,r9,r6
        0x00019a52:    2600        .&      MOVS     r6,#0
        0x00019a54:    4622        "F      MOV      r2,r4
        0x00019a56:    4638        8F      MOV      r0,r7
        0x00019a58:    4641        AF      MOV      r1,r8
        0x00019a5a:    9b03        ..      LDR      r3,[sp,#0xc]
        0x00019a5c:    f000fc91    ....    BL       uint64_to_hexstr ; 0x1a382
        0x00019a60:    4682        .F      MOV      r10,r0
        0x00019a62:    b104        ..      CBZ      r4,0x19a66 ; am_util_stdio_vsprintf + 474
        0x00019a64:    4454        TD      ADD      r4,r4,r10
        0x00019a66:    44d1        .D      ADD      r9,r9,r10
        0x00019a68:    e0d3        ..      B        0x19c12 ; am_util_stdio_vsprintf + 902
        0x00019a6a:    9802        ..      LDR      r0,[sp,#8]
        0x00019a6c:    b158        X.      CBZ      r0,0x19a86 ; am_util_stdio_vsprintf + 506
        0x00019a6e:    980e        ..      LDR      r0,[sp,#0x38]
        0x00019a70:    1dc0        ..      ADDS     r0,r0,#7
        0x00019a72:    f0200007     ...    BIC      r0,r0,#7
        0x00019a76:    4601        .F      MOV      r1,r0
        0x00019a78:    900e        ..      STR      r0,[sp,#0x38]
        0x00019a7a:    6800        .h      LDR      r0,[r0,#0]
        0x00019a7c:    6849        Ih      LDR      r1,[r1,#4]
        0x00019a7e:    9a0e        ..      LDR      r2,[sp,#0x38]
        0x00019a80:    3208        .2      ADDS     r2,r2,#8
        0x00019a82:    920e        ..      STR      r2,[sp,#0x38]
        0x00019a84:    e005        ..      B        0x19a92 ; am_util_stdio_vsprintf + 518
        0x00019a86:    980e        ..      LDR      r0,[sp,#0x38]
        0x00019a88:    6800        .h      LDR      r0,[r0,#0]
        0x00019a8a:    990e        ..      LDR      r1,[sp,#0x38]
        0x00019a8c:    1d09        ..      ADDS     r1,r1,#4
        0x00019a8e:    910e        ..      STR      r1,[sp,#0x38]
        0x00019a90:    2100        .!      MOVS     r1,#0
        0x00019a92:    4607        .F      MOV      r7,r0
        0x00019a94:    4688        .F      MOV      r8,r1
        0x00019a96:    b18e        ..      CBZ      r6,0x19abc ; am_util_stdio_vsprintf + 560
        0x00019a98:    4638        8F      MOV      r0,r7
        0x00019a9a:    4641        AF      MOV      r1,r8
        0x00019a9c:    f000faf0    ....    BL       ndigits_in_u64 ; 0x1a080
        0x00019aa0:    1a36        6.      SUBS     r6,r6,r0
        0x00019aa2:    4632        2F      MOV      r2,r6
        0x00019aa4:    4620         F      MOV      r0,r4
        0x00019aa6:    9904        ..      LDR      r1,[sp,#0x10]
        0x00019aa8:    f000fc4e    ..N.    BL       padbuffer ; 0x1a348
        0x00019aac:    4606        .F      MOV      r6,r0
        0x00019aae:    b10c        ..      CBZ      r4,0x19ab4 ; am_util_stdio_vsprintf + 552
        0x00019ab0:    4630        0F      MOV      r0,r6
        0x00019ab2:    e000        ..      B        0x19ab6 ; am_util_stdio_vsprintf + 554
        0x00019ab4:    2000        .       MOVS     r0,#0
        0x00019ab6:    4404        .D      ADD      r4,r4,r0
        0x00019ab8:    44b1        .D      ADD      r9,r9,r6
        0x00019aba:    2600        .&      MOVS     r6,#0
        0x00019abc:    4622        "F      MOV      r2,r4
        0x00019abe:    4638        8F      MOV      r0,r7
        0x00019ac0:    4641        AF      MOV      r1,r8
        0x00019ac2:    f000fca3    ....    BL       uint64_to_str ; 0x1a40c
        0x00019ac6:    4682        .F      MOV      r10,r0
        0x00019ac8:    b104        ..      CBZ      r4,0x19acc ; am_util_stdio_vsprintf + 576
        0x00019aca:    4454        TD      ADD      r4,r4,r10
        0x00019acc:    44d1        .D      ADD      r9,r9,r10
        0x00019ace:    e0a0        ..      B        0x19c12 ; am_util_stdio_vsprintf + 902
        0x00019ad0:    bf00        ..      NOP      
        0x00019ad2:    9802        ..      LDR      r0,[sp,#8]
        0x00019ad4:    b158        X.      CBZ      r0,0x19aee ; am_util_stdio_vsprintf + 610
        0x00019ad6:    980e        ..      LDR      r0,[sp,#0x38]
        0x00019ad8:    1dc0        ..      ADDS     r0,r0,#7
        0x00019ada:    f0200007     ...    BIC      r0,r0,#7
        0x00019ade:    4601        .F      MOV      r1,r0
        0x00019ae0:    900e        ..      STR      r0,[sp,#0x38]
        0x00019ae2:    6800        .h      LDR      r0,[r0,#0]
        0x00019ae4:    6849        Ih      LDR      r1,[r1,#4]
        0x00019ae6:    9a0e        ..      LDR      r2,[sp,#0x38]
        0x00019ae8:    3208        .2      ADDS     r2,r2,#8
        0x00019aea:    920e        ..      STR      r2,[sp,#0x38]
        0x00019aec:    e005        ..      B        0x19afa ; am_util_stdio_vsprintf + 622
        0x00019aee:    980e        ..      LDR      r0,[sp,#0x38]
        0x00019af0:    6800        .h      LDR      r0,[r0,#0]
        0x00019af2:    990e        ..      LDR      r1,[sp,#0x38]
        0x00019af4:    1d09        ..      ADDS     r1,r1,#4
        0x00019af6:    910e        ..      STR      r1,[sp,#0x38]
        0x00019af8:    17c1        ..      ASRS     r1,r0,#31
        0x00019afa:    e9cd0108    ....    STRD     r0,r1,[sp,#0x20]
        0x00019afe:    2300        .#      MOVS     r3,#0
        0x00019b00:    e9dd0108    ....    LDRD     r0,r1,[sp,#0x20]
        0x00019b04:    1ac0        ..      SUBS     r0,r0,r3
        0x00019b06:    4199        .A      SBCS     r1,r1,r3
        0x00019b08:    da08        ..      BGE      0x19b1c ; am_util_stdio_vsprintf + 656
        0x00019b0a:    2200        ."      MOVS     r2,#0
        0x00019b0c:    e9dd1008    ....    LDRD     r1,r0,[sp,#0x20]
        0x00019b10:    424f        OB      RSBS     r7,r1,#0
        0x00019b12:    eb620800    b...    SBC      r8,r2,r0
        0x00019b16:    2001        .       MOVS     r0,#1
        0x00019b18:    9001        ..      STR      r0,[sp,#4]
        0x00019b1a:    e003        ..      B        0x19b24 ; am_util_stdio_vsprintf + 664
        0x00019b1c:    e9dd7808    ...x    LDRD     r7,r8,[sp,#0x20]
        0x00019b20:    2000        .       MOVS     r0,#0
        0x00019b22:    9001        ..      STR      r0,[sp,#4]
        0x00019b24:    b34e        N.      CBZ      r6,0x19b7a ; am_util_stdio_vsprintf + 750
        0x00019b26:    4638        8F      MOV      r0,r7
        0x00019b28:    4641        AF      MOV      r1,r8
        0x00019b2a:    f000fa97    ....    BL       ndigits_in_i64 ; 0x1a05c
        0x00019b2e:    1a36        6.      SUBS     r6,r6,r0
        0x00019b30:    9801        ..      LDR      r0,[sp,#4]
        0x00019b32:    b148        H.      CBZ      r0,0x19b48 ; am_util_stdio_vsprintf + 700
        0x00019b34:    1e76        v.      SUBS     r6,r6,#1
        0x00019b36:    9804        ..      LDR      r0,[sp,#0x10]
        0x00019b38:    2830        0(      CMP      r0,#0x30
        0x00019b3a:    d105        ..      BNE      0x19b48 ; am_util_stdio_vsprintf + 700
        0x00019b3c:    b114        ..      CBZ      r4,0x19b44 ; am_util_stdio_vsprintf + 696
        0x00019b3e:    202d        -       MOVS     r0,#0x2d
        0x00019b40:    f8040b01    ....    STRB     r0,[r4],#1
        0x00019b44:    f1090901    ....    ADD      r9,r9,#1
        0x00019b48:    4632        2F      MOV      r2,r6
        0x00019b4a:    4620         F      MOV      r0,r4
        0x00019b4c:    9904        ..      LDR      r1,[sp,#0x10]
        0x00019b4e:    f000fbfb    ....    BL       padbuffer ; 0x1a348
        0x00019b52:    4606        .F      MOV      r6,r0
        0x00019b54:    b10c        ..      CBZ      r4,0x19b5a ; am_util_stdio_vsprintf + 718
        0x00019b56:    4630        0F      MOV      r0,r6
        0x00019b58:    e000        ..      B        0x19b5c ; am_util_stdio_vsprintf + 720
        0x00019b5a:    2000        .       MOVS     r0,#0
        0x00019b5c:    4404        .D      ADD      r4,r4,r0
        0x00019b5e:    44b1        .D      ADD      r9,r9,r6
        0x00019b60:    2600        .&      MOVS     r6,#0
        0x00019b62:    9801        ..      LDR      r0,[sp,#4]
        0x00019b64:    b188        ..      CBZ      r0,0x19b8a ; am_util_stdio_vsprintf + 766
        0x00019b66:    9804        ..      LDR      r0,[sp,#0x10]
        0x00019b68:    2820         (      CMP      r0,#0x20
        0x00019b6a:    d10e        ..      BNE      0x19b8a ; am_util_stdio_vsprintf + 766
        0x00019b6c:    b114        ..      CBZ      r4,0x19b74 ; am_util_stdio_vsprintf + 744
        0x00019b6e:    202d        -       MOVS     r0,#0x2d
        0x00019b70:    f8040b01    ....    STRB     r0,[r4],#1
        0x00019b74:    f1090901    ....    ADD      r9,r9,#1
        0x00019b78:    e007        ..      B        0x19b8a ; am_util_stdio_vsprintf + 766
        0x00019b7a:    9801        ..      LDR      r0,[sp,#4]
        0x00019b7c:    b128        (.      CBZ      r0,0x19b8a ; am_util_stdio_vsprintf + 766
        0x00019b7e:    b114        ..      CBZ      r4,0x19b86 ; am_util_stdio_vsprintf + 762
        0x00019b80:    202d        -       MOVS     r0,#0x2d
        0x00019b82:    f8040b01    ....    STRB     r0,[r4],#1
        0x00019b86:    f1090901    ....    ADD      r9,r9,#1
        0x00019b8a:    4622        "F      MOV      r2,r4
        0x00019b8c:    4638        8F      MOV      r0,r7
        0x00019b8e:    4641        AF      MOV      r1,r8
        0x00019b90:    f000fc3c    ..<.    BL       uint64_to_str ; 0x1a40c
        0x00019b94:    4682        .F      MOV      r10,r0
        0x00019b96:    b104        ..      CBZ      r4,0x19b9a ; am_util_stdio_vsprintf + 782
        0x00019b98:    4454        TD      ADD      r4,r4,r10
        0x00019b9a:    44d1        .D      ADD      r9,r9,r10
        0x00019b9c:    e039        9.      B        0x19c12 ; am_util_stdio_vsprintf + 902
        0x00019b9e:    bf00        ..      NOP      
        0x00019ba0:    b37c        |.      CBZ      r4,0x19c02 ; am_util_stdio_vsprintf + 886
        0x00019ba2:    980e        ..      LDR      r0,[sp,#0x38]
        0x00019ba4:    1dc0        ..      ADDS     r0,r0,#7
        0x00019ba6:    f0200007     ...    BIC      r0,r0,#7
        0x00019baa:    900e        ..      STR      r0,[sp,#0x38]
        0x00019bac:    ecb01b02    ....    VLDM     r0!,{d1}
        0x00019bb0:    eeb00a41    ..A.    VMOV.F32 s0,s2
        0x00019bb4:    eef00a61    ..a.    VMOV.F32 s1,s3
        0x00019bb8:    900e        ..      STR      r0,[sp,#0x38]
        0x00019bba:    ec510b10    Q...    VMOV     r0,r1,d0
        0x00019bbe:    f000fc5d    ..].    BL       __aeabi_d2f ; 0x1a47c
        0x00019bc2:    ee080a10    ....    VMOV     s16,r0
        0x00019bc6:    2014        .       MOVS     r0,#0x14
        0x00019bc8:    6020         `      STR      r0,[r4,#0]
        0x00019bca:    4620         F      MOV      r0,r4
        0x00019bcc:    eeb00a48    ..H.    VMOV.F32 s0,s16
        0x00019bd0:    9906        ..      LDR      r1,[sp,#0x18]
        0x00019bd2:    f000f925    ..%.    BL       ftoa ; 0x19e20
        0x00019bd6:    4682        .F      MOV      r10,r0
        0x00019bd8:    f1ba0f00    ....    CMP      r10,#0
        0x00019bdc:    da0e        ..      BGE      0x19bfc ; am_util_stdio_vsprintf + 880
        0x00019bde:    f10a0101    ....    ADD      r1,r10,#1
        0x00019be2:    b909        ..      CBNZ     r1,0x19be8 ; am_util_stdio_vsprintf + 860
        0x00019be4:    4813        .H      LDR      r0,[pc,#76] ; [0x19c34] = 0x302e30
        0x00019be6:    e005        ..      B        0x19bf4 ; am_util_stdio_vsprintf + 872
        0x00019be8:    f10a0102    ....    ADD      r1,r10,#2
        0x00019bec:    b909        ..      CBNZ     r1,0x19bf2 ; am_util_stdio_vsprintf + 870
        0x00019bee:    4812        .H      LDR      r0,[pc,#72] ; [0x19c38] = 0x232e23
        0x00019bf0:    e000        ..      B        0x19bf4 ; am_util_stdio_vsprintf + 872
        0x00019bf2:    4812        .H      LDR      r0,[pc,#72] ; [0x19c3c] = 0x3f2e3f
        0x00019bf4:    6020         `      STR      r0,[r4,#0]
        0x00019bf6:    f04f0a03    O...    MOV      r10,#3
        0x00019bfa:    bf00        ..      NOP      
        0x00019bfc:    44d1        .D      ADD      r9,r9,r10
        0x00019bfe:    4454        TD      ADD      r4,r4,r10
        0x00019c00:    bf00        ..      NOP      
        0x00019c02:    e006        ..      B        0x19c12 ; am_util_stdio_vsprintf + 902
        0x00019c04:    b114        ..      CBZ      r4,0x19c0c ; am_util_stdio_vsprintf + 896
        0x00019c06:    7828        (x      LDRB     r0,[r5,#0]
        0x00019c08:    f8040b01    ....    STRB     r0,[r4],#1
        0x00019c0c:    f1090901    ....    ADD      r9,r9,#1
        0x00019c10:    bf00        ..      NOP      
        0x00019c12:    bf00        ..      NOP      
        0x00019c14:    1c6d        m.      ADDS     r5,r5,#1
        0x00019c16:    bf00        ..      NOP      
        0x00019c18:    7828        (x      LDRB     r0,[r5,#0]
        0x00019c1a:    2800        .(      CMP      r0,#0
        0x00019c1c:    f47fae42    ..B.    BNE      0x198a4 ; am_util_stdio_vsprintf + 24
        0x00019c20:    b104        ..      CBZ      r4,0x19c24 ; am_util_stdio_vsprintf + 920
        0x00019c22:    7020         p      STRB     r0,[r4,#0]
        0x00019c24:    4648        HF      MOV      r0,r9
        0x00019c26:    b00a        ..      ADD      sp,sp,#0x28
        0x00019c28:    ecbd8b02    ....    VPOP     {d8}
        0x00019c2c:    e8bd8ffe    ....    POP      {r1-r11,pc}
    $d
        0x00019c30:    10000004    ....    DCD    268435460
        0x00019c34:    00302e30    0.0.    DCD    3157552
        0x00019c38:    00232e23    #.#.    DCD    2305571
        0x00019c3c:    003f2e3f    ?.?.    DCD    4140607
    $t
    i.buck_ldo_update_override
    buck_ldo_update_override
        0x00019c40:    4906        .I      LDR      r1,[pc,#24] ; [0x19c5c] = 0x40020000
        0x00019c42:    6e0a        .n      LDR      r2,[r1,#0x60]
        0x00019c44:    f3604210    `..B    BFI      r2,r0,#16,#1
        0x00019c48:    660a        .f      STR      r2,[r1,#0x60]
        0x00019c4a:    6e0a        .n      LDR      r2,[r1,#0x60]
        0x00019c4c:    f3600200    `...    BFI      r2,r0,#0,#1
        0x00019c50:    660a        .f      STR      r2,[r1,#0x60]
        0x00019c52:    6e0a        .n      LDR      r2,[r1,#0x60]
        0x00019c54:    f3601245    `.E.    BFI      r2,r0,#5,#1
        0x00019c58:    660a        .f      STR      r2,[r1,#0x60]
        0x00019c5a:    4770        pG      BX       lr
    $d
        0x00019c5c:    40020000    ...@    DCD    1073872896
    $t
    i.crypto_boost_trims
    crypto_boost_trims
        0x00019c60:    b5f8        ..      PUSH     {r3-r7,lr}
        0x00019c62:    4f29        )O      LDR      r7,[pc,#164] ; [0x19d08] = 0x10000024
        0x00019c64:    4606        .F      MOV      r6,r0
        0x00019c66:    460c        .F      MOV      r4,r1
        0x00019c68:    78b8        .x      LDRB     r0,[r7,#2]
        0x00019c6a:    ea460100    F...    ORR      r1,r6,r0
        0x00019c6e:    4030        0@      ANDS     r0,r0,r6
        0x00019c70:    ea310000    1...    BICS     r0,r1,r0
        0x00019c74:    bf08        ..      IT       EQ
        0x00019c76:    bdf8        ..      POPEQ    {r3-r7,pc}
        0x00019c78:    f7fefb30    ..0.    BL       am_hal_interrupt_master_disable ; 0x182dc
        0x00019c7c:    9000        ..      STR      r0,[sp,#0]
        0x00019c7e:    70be        .p      STRB     r6,[r7,#2]
        0x00019c80:    6af8        .j      LDR      r0,[r7,#0x2c]
        0x00019c82:    2e00        ..      CMP      r6,#0
        0x00019c84:    bf0c        ..      ITE      EQ
        0x00019c86:    1b05        ..      SUBEQ    r5,r0,r4
        0x00019c88:    1905        ..      ADDNE    r5,r0,r4
        0x00019c8a:    62fd        .b      STR      r5,[r7,#0x2c]
        0x00019c8c:    2d00        .-      CMP      r5,#0
        0x00019c8e:    bfb8        ..      IT       LT
        0x00019c90:    2500        .%      MOVLT    r5,#0
        0x00019c92:    db02        ..      BLT      0x19c9a ; crypto_boost_trims + 58
        0x00019c94:    2d3f        ?-      CMP      r5,#0x3f
        0x00019c96:    bf88        ..      IT       HI
        0x00019c98:    253f        ?%      MOVHI    r5,#0x3f
        0x00019c9a:    2e00        ..      CMP      r6,#0
        0x00019c9c:    6b38        8k      LDR      r0,[r7,#0x30]
        0x00019c9e:    bf14        ..      ITE      NE
        0x00019ca0:    4404        .D      ADDNE    r4,r0
        0x00019ca2:    1b04        ..      SUBEQ    r4,r0,r4
        0x00019ca4:    633c        <c      STR      r4,[r7,#0x30]
        0x00019ca6:    2c00        .,      CMP      r4,#0
        0x00019ca8:    bfb8        ..      IT       LT
        0x00019caa:    2400        .$      MOVLT    r4,#0
        0x00019cac:    db02        ..      BLT      0x19cb4 ; crypto_boost_trims + 84
        0x00019cae:    2c3f        ?,      CMP      r4,#0x3f
        0x00019cb0:    bf88        ..      IT       HI
        0x00019cb2:    243f        ?$      MOVHI    r4,#0x3f
        0x00019cb4:    4f15        .O      LDR      r7,[pc,#84] ; [0x19d0c] = 0x40020000
        0x00019cb6:    b17e        ~.      CBZ      r6,0x19cd8 ; crypto_boost_trims + 120
        0x00019cb8:    f8d7036c    ..l.    LDR      r0,[r7,#0x36c]
        0x00019cbc:    f3655019    e..P    BFI      r0,r5,#20,#6
        0x00019cc0:    f8c7036c    ..l.    STR      r0,[r7,#0x36c]
        0x00019cc4:    2014        .       MOVS     r0,#0x14
        0x00019cc6:    f7fefc79    ..y.    BL       am_hal_delay_us ; 0x185bc
        0x00019cca:    f8d70088    ....    LDR      r0,[r7,#0x88]
        0x00019cce:    f3640005    d...    BFI      r0,r4,#0,#6
        0x00019cd2:    f8c70088    ....    STR      r0,[r7,#0x88]
        0x00019cd6:    e00e        ..      B        0x19cf6 ; crypto_boost_trims + 150
        0x00019cd8:    f8d70088    ....    LDR      r0,[r7,#0x88]
        0x00019cdc:    f3640005    d...    BFI      r0,r4,#0,#6
        0x00019ce0:    f8c70088    ....    STR      r0,[r7,#0x88]
        0x00019ce4:    2014        .       MOVS     r0,#0x14
        0x00019ce6:    f7fefc69    ..i.    BL       am_hal_delay_us ; 0x185bc
        0x00019cea:    f8d7036c    ..l.    LDR      r0,[r7,#0x36c]
        0x00019cee:    f3655019    e..P    BFI      r0,r5,#20,#6
        0x00019cf2:    f8c7036c    ..l.    STR      r0,[r7,#0x36c]
        0x00019cf6:    9800        ..      LDR      r0,[sp,#0]
        0x00019cf8:    f7fefaf4    ....    BL       am_hal_interrupt_master_set ; 0x182e4
        0x00019cfc:    e8bd40f8    ...@    POP      {r3-r7,lr}
        0x00019d00:    2014        .       MOVS     r0,#0x14
        0x00019d02:    f7febc5b    ..[.    B        am_hal_delay_us ; 0x185bc
    $d
        0x00019d06:    0000        ..      DCW    0
        0x00019d08:    10000024    $...    DCD    268435492
        0x00019d0c:    40020000    ...@    DCD    1073872896
    $t
    i.decstr_to_int
    decstr_to_int
        0x00019d10:    b530        0.      PUSH     {r4,r5,lr}
        0x00019d12:    4602        .F      MOV      r2,r0
        0x00019d14:    2500        .%      MOVS     r5,#0
        0x00019d16:    2300        .#      MOVS     r3,#0
        0x00019d18:    2400        .$      MOVS     r4,#0
        0x00019d1a:    7810        .x      LDRB     r0,[r2,#0]
        0x00019d1c:    282d        -(      CMP      r0,#0x2d
        0x00019d1e:    d102        ..      BNE      0x19d26 ; decstr_to_int + 22
        0x00019d20:    2501        .%      MOVS     r5,#1
        0x00019d22:    1c52        R.      ADDS     r2,r2,#1
        0x00019d24:    1c64        d.      ADDS     r4,r4,#1
        0x00019d26:    e007        ..      B        0x19d38 ; decstr_to_int + 40
        0x00019d28:    1c64        d.      ADDS     r4,r4,#1
        0x00019d2a:    eb030083    ....    ADD      r0,r3,r3,LSL #2
        0x00019d2e:    0043        C.      LSLS     r3,r0,#1
        0x00019d30:    7810        .x      LDRB     r0,[r2,#0]
        0x00019d32:    3830        08      SUBS     r0,r0,#0x30
        0x00019d34:    4403        .D      ADD      r3,r3,r0
        0x00019d36:    1c52        R.      ADDS     r2,r2,#1
        0x00019d38:    7810        .x      LDRB     r0,[r2,#0]
        0x00019d3a:    2830        0(      CMP      r0,#0x30
        0x00019d3c:    db02        ..      BLT      0x19d44 ; decstr_to_int + 52
        0x00019d3e:    7810        .x      LDRB     r0,[r2,#0]
        0x00019d40:    2839        9(      CMP      r0,#0x39
        0x00019d42:    ddf1        ..      BLE      0x19d28 ; decstr_to_int + 24
        0x00019d44:    b101        ..      CBZ      r1,0x19d48 ; decstr_to_int + 56
        0x00019d46:    600c        .`      STR      r4,[r1,#0]
        0x00019d48:    b10d        ..      CBZ      r5,0x19d4e ; decstr_to_int + 62
        0x00019d4a:    4258        XB      RSBS     r0,r3,#0
        0x00019d4c:    bd30        0.      POP      {r4,r5,pc}
        0x00019d4e:    4618        .F      MOV      r0,r3
        0x00019d50:    e7fc        ..      B        0x19d4c ; decstr_to_int + 60
    i.divu64_10
    divu64_10
        0x00019d52:    e92d4ff0    -..O    PUSH     {r4-r11,lr}
        0x00019d56:    4604        .F      MOV      r4,r0
        0x00019d58:    460d        .F      MOV      r5,r1
        0x00019d5a:    2000        .       MOVS     r0,#0
        0x00019d5c:    ea850100    ....    EOR      r1,r5,r0
        0x00019d60:    4040        @@      EORS     r0,r0,r0
        0x00019d62:    4301        .C      ORRS     r1,r1,r0
        0x00019d64:    d044        D.      BEQ      0x19df0 ; divu64_10 + 158
        0x00019d66:    ea5f0a55    _.U.    LSRS     r10,r5,#1
        0x00019d6a:    ea4f0134    O.4.    RRX      r1,r4
        0x00019d6e:    ea4f0b94    O...    LSR      r11,r4,#2
        0x00019d72:    ea4b7085    K..p    ORR      r0,r11,r5,LSL #30
        0x00019d76:    180a        ..      ADDS     r2,r1,r0
        0x00019d78:    eb4a0395    J...    ADC      r3,r10,r5,LSR #2
        0x00019d7c:    ea4f1012    O...    LSR      r0,r2,#4
        0x00019d80:    ea407a03    @..z    ORR      r10,r0,r3,LSL #28
        0x00019d84:    eb1a0202    ....    ADDS     r2,r10,r2
        0x00019d88:    eb431313    C...    ADC      r3,r3,r3,LSR #4
        0x00019d8c:    ea4f2012    O..     LSR      r0,r2,#8
        0x00019d90:    ea406a03    @..j    ORR      r10,r0,r3,LSL #24
        0x00019d94:    eb1a0202    ....    ADDS     r2,r10,r2
        0x00019d98:    eb432313    C..#    ADC      r3,r3,r3,LSR #8
        0x00019d9c:    ea4f4012    O..@    LSR      r0,r2,#16
        0x00019da0:    ea404a03    @..J    ORR      r10,r0,r3,LSL #16
        0x00019da4:    eb1a0202    ....    ADDS     r2,r10,r2
        0x00019da8:    eb434313    C..C    ADC      r3,r3,r3,LSR #16
        0x00019dac:    189a        ..      ADDS     r2,r3,r2
        0x00019dae:    f1430300    C...    ADC      r3,r3,#0
        0x00019db2:    08d0        ..      LSRS     r0,r2,#3
        0x00019db4:    ea407243    @.Cr    ORR      r2,r0,r3,LSL #29
        0x00019db8:    08db        ..      LSRS     r3,r3,#3
        0x00019dba:    210a        .!      MOVS     r1,#0xa
        0x00019dbc:    f04f0a00    O...    MOV      r10,#0
        0x00019dc0:    fba20b01    ....    UMULL    r0,r11,r2,r1
        0x00019dc4:    fb03b101    ....    MLA      r1,r3,r1,r11
        0x00019dc8:    fb02110a    ....    MLA      r1,r2,r10,r1
        0x00019dcc:    1a26        &.      SUBS     r6,r4,r0
        0x00019dce:    eb650701    e...    SBC      r7,r5,r1
        0x00019dd2:    2106        .!      MOVS     r1,#6
        0x00019dd4:    eb160a01    ....    ADDS     r10,r6,r1
        0x00019dd8:    f1470100    G...    ADC      r1,r7,#0
        0x00019ddc:    ea4f101a    O...    LSR      r0,r10,#4
        0x00019de0:    ea407a01    @..z    ORR      r10,r0,r1,LSL #28
        0x00019de4:    eb1a0002    ....    ADDS     r0,r10,r2
        0x00019de8:    eb431111    C...    ADC      r1,r3,r1,LSR #4
        0x00019dec:    e8bd8ff0    ....    POP      {r4-r11,pc}
        0x00019df0:    46a0        .F      MOV      r8,r4
        0x00019df2:    ea4f0058    O.X.    LSR      r0,r8,#1
        0x00019df6:    eb000c98    ....    ADD      r12,r0,r8,LSR #2
        0x00019dfa:    eb0c1c1c    ....    ADD      r12,r12,r12,LSR #4
        0x00019dfe:    eb0c2c1c    ...,    ADD      r12,r12,r12,LSR #8
        0x00019e02:    eb0c4c1c    ...L    ADD      r12,r12,r12,LSR #16
        0x00019e06:    ea4f0cdc    O...    LSR      r12,r12,#3
        0x00019e0a:    eb0c008c    ....    ADD      r0,r12,r12,LSL #2
        0x00019e0e:    eba80940    ..@.    SUB      r9,r8,r0,LSL #1
        0x00019e12:    f1090006    ....    ADD      r0,r9,#6
        0x00019e16:    eb0c1010    ....    ADD      r0,r12,r0,LSR #4
        0x00019e1a:    2100        .!      MOVS     r1,#0
        0x00019e1c:    e7e6        ..      B        0x19dec ; divu64_10 + 154
        0x00019e1e:    0000        ..      MOVS     r0,r0
    i.ftoa
    ftoa
        0x00019e20:    e92d4ff3    -..O    PUSH     {r0,r1,r4-r11,lr}
        0x00019e24:    ed2d0b02    -...    VPUSH    {d0}
        0x00019e28:    ed2d8b02    -...    VPUSH    {d8}
        0x00019e2c:    b081        ..      SUB      sp,sp,#4
        0x00019e2e:    eeb08a40    ..@.    VMOV.F32 s16,s0
        0x00019e32:    4604        .F      MOV      r4,r0
        0x00019e34:    f8d4b000    ....    LDR      r11,[r4,#0]
        0x00019e38:    f1bb0f04    ....    CMP      r11,#4
        0x00019e3c:    da07        ..      BGE      0x19e4e ; ftoa + 46
        0x00019e3e:    f06f0002    o...    MVN      r0,#2
        0x00019e42:    b001        ..      ADD      sp,sp,#4
        0x00019e44:    ecbd8b02    ....    VPOP     {d8}
        0x00019e48:    b004        ..      ADD      sp,sp,#0x10
        0x00019e4a:    e8bd8ff0    ....    POP      {r4-r11,pc}
        0x00019e4e:    eeb58ac0    ....    VCMPE.F32 s16,#0.0
        0x00019e52:    eef1fa10    ....    VMRS     APSR_nzcv,FPSCR
        0x00019e56:    d103        ..      BNE      0x19e60 ; ftoa + 64
        0x00019e58:    484e        NH      LDR      r0,[pc,#312] ; [0x19f94] = 0x302e30
        0x00019e5a:    6020         `      STR      r0,[r4,#0]
        0x00019e5c:    2003        .       MOVS     r0,#3
        0x00019e5e:    e7f0        ..      B        0x19e42 ; ftoa + 34
        0x00019e60:    46a2        .F      MOV      r10,r4
        0x00019e62:    ed8d8a00    ....    VSTR     s16,[sp,#0]
        0x00019e66:    9800        ..      LDR      r0,[sp,#0]
        0x00019e68:    f3c050c7    ...P    UBFX     r0,r0,#23,#8
        0x00019e6c:    f1a0057f    ....    SUB      r5,r0,#0x7f
        0x00019e70:    9800        ..      LDR      r0,[sp,#0]
        0x00019e72:    f020407f     ..@    BIC      r0,r0,#0xff000000
        0x00019e76:    f4400900    @...    ORR      r9,r0,#0x800000
        0x00019e7a:    f04f0800    O...    MOV      r8,#0
        0x00019e7e:    2700        .'      MOVS     r7,#0
        0x00019e80:    2d1f        .-      CMP      r5,#0x1f
        0x00019e82:    db01        ..      BLT      0x19e88 ; ftoa + 104
        0x00019e84:    1eb8        ..      SUBS     r0,r7,#2
        0x00019e86:    e7dc        ..      B        0x19e42 ; ftoa + 34
        0x00019e88:    f1150f17    ....    CMN      r5,#0x17
        0x00019e8c:    da02        ..      BGE      0x19e94 ; ftoa + 116
        0x00019e8e:    f04f30ff    O..0    MOV      r0,#0xffffffff
        0x00019e92:    e7d6        ..      B        0x19e42 ; ftoa + 34
        0x00019e94:    2d17        .-      CMP      r5,#0x17
        0x00019e96:    db04        ..      BLT      0x19ea2 ; ftoa + 130
        0x00019e98:    f1a50017    ....    SUB      r0,r5,#0x17
        0x00019e9c:    fa09f700    ....    LSL      r7,r9,r0
        0x00019ea0:    e011        ..      B        0x19ec6 ; ftoa + 166
        0x00019ea2:    2d00        .-      CMP      r5,#0
        0x00019ea4:    db09        ..      BLT      0x19eba ; ftoa + 154
        0x00019ea6:    f1c50017    ....    RSB      r0,r5,#0x17
        0x00019eaa:    fa49f700    I...    ASR      r7,r9,r0
        0x00019eae:    1c68        h.      ADDS     r0,r5,#1
        0x00019eb0:    fa09f000    ....    LSL      r0,r9,r0
        0x00019eb4:    f020487f     ..H    BIC      r8,r0,#0xff000000
        0x00019eb8:    e005        ..      B        0x19ec6 ; ftoa + 166
        0x00019eba:    f029407f    )..@    BIC      r0,r9,#0xff000000
        0x00019ebe:    1c69        i.      ADDS     r1,r5,#1
        0x00019ec0:    4249        IB      RSBS     r1,r1,#0
        0x00019ec2:    fa40f801    @...    ASR      r8,r0,r1
        0x00019ec6:    9800        ..      LDR      r0,[sp,#0]
        0x00019ec8:    2800        .(      CMP      r0,#0
        0x00019eca:    da02        ..      BGE      0x19ed2 ; ftoa + 178
        0x00019ecc:    202d        -       MOVS     r0,#0x2d
        0x00019ece:    f8040b01    ....    STRB     r0,[r4],#1
        0x00019ed2:    b91f        ..      CBNZ     r7,0x19edc ; ftoa + 188
        0x00019ed4:    2030        0       MOVS     r0,#0x30
        0x00019ed6:    f8040b01    ....    STRB     r0,[r4],#1
        0x00019eda:    e014        ..      B        0x19f06 ; ftoa + 230
        0x00019edc:    2f00        ./      CMP      r7,#0
        0x00019ede:    dd05        ..      BLE      0x19eec ; ftoa + 204
        0x00019ee0:    4622        "F      MOV      r2,r4
        0x00019ee2:    4638        8F      MOV      r0,r7
        0x00019ee4:    17f9        ..      ASRS     r1,r7,#31
        0x00019ee6:    f000fa91    ....    BL       uint64_to_str ; 0x1a40c
        0x00019eea:    e007        ..      B        0x19efc ; ftoa + 220
        0x00019eec:    202d        -       MOVS     r0,#0x2d
        0x00019eee:    f8040b01    ....    STRB     r0,[r4],#1
        0x00019ef2:    4622        "F      MOV      r2,r4
        0x00019ef4:    4278        xB      RSBS     r0,r7,#0
        0x00019ef6:    17c1        ..      ASRS     r1,r0,#31
        0x00019ef8:    f000fa88    ....    BL       uint64_to_str ; 0x1a40c
        0x00019efc:    e000        ..      B        0x19f00 ; ftoa + 224
        0x00019efe:    1c64        d.      ADDS     r4,r4,#1
        0x00019f00:    7820         x      LDRB     r0,[r4,#0]
        0x00019f02:    2800        .(      CMP      r0,#0
        0x00019f04:    d1fb        ..      BNE      0x19efe ; ftoa + 222
        0x00019f06:    202e        .       MOVS     r0,#0x2e
        0x00019f08:    f8040b01    ....    STRB     r0,[r4],#1
        0x00019f0c:    f1b80f00    ....    CMP      r8,#0
        0x00019f10:    d103        ..      BNE      0x19f1a ; ftoa + 250
        0x00019f12:    2030        0       MOVS     r0,#0x30
        0x00019f14:    f8040b01    ....    STRB     r0,[r4],#1
        0x00019f18:    e036        6.      B        0x19f88 ; ftoa + 360
        0x00019f1a:    eba4020a    ....    SUB      r2,r4,r10
        0x00019f1e:    ebab0202    ....    SUB      r2,r11,r2
        0x00019f22:    1e51        Q.      SUBS     r1,r2,#1
        0x00019f24:    9a06        ..      LDR      r2,[sp,#0x18]
        0x00019f26:    4291        .B      CMP      r1,r2
        0x00019f28:    dd01        ..      BLE      0x19f2e ; ftoa + 270
        0x00019f2a:    9a06        ..      LDR      r2,[sp,#0x18]
        0x00019f2c:    e000        ..      B        0x19f30 ; ftoa + 272
        0x00019f2e:    460a        .F      MOV      r2,r1
        0x00019f30:    4611        .F      MOV      r1,r2
        0x00019f32:    2000        .       MOVS     r0,#0
        0x00019f34:    e00b        ..      B        0x19f4e ; ftoa + 302
        0x00019f36:    eb080288    ....    ADD      r2,r8,r8,LSL #2
        0x00019f3a:    ea4f0842    O.B.    LSL      r8,r2,#1
        0x00019f3e:    2230        0"      MOVS     r2,#0x30
        0x00019f40:    eb026228    ..(b    ADD      r2,r2,r8,ASR #24
        0x00019f44:    f8042b01    ...+    STRB     r2,[r4],#1
        0x00019f48:    f028487f    (..H    BIC      r8,r8,#0xff000000
        0x00019f4c:    1c40        @.      ADDS     r0,r0,#1
        0x00019f4e:    4288        .B      CMP      r0,r1
        0x00019f50:    dbf1        ..      BLT      0x19f36 ; ftoa + 278
        0x00019f52:    eb080288    ....    ADD      r2,r8,r8,LSL #2
        0x00019f56:    0052        R.      LSLS     r2,r2,#1
        0x00019f58:    2305        .#      MOVS     r3,#5
        0x00019f5a:    ebb36f22    .."o    CMP      r3,r2,ASR #24
        0x00019f5e:    dc12        ..      BGT      0x19f86 ; ftoa + 358
        0x00019f60:    1e66        f.      SUBS     r6,r4,#1
        0x00019f62:    e00d        ..      B        0x19f80 ; ftoa + 352
        0x00019f64:    7832        2x      LDRB     r2,[r6,#0]
        0x00019f66:    2a2e        .*      CMP      r2,#0x2e
        0x00019f68:    d009        ..      BEQ      0x19f7e ; ftoa + 350
        0x00019f6a:    7832        2x      LDRB     r2,[r6,#0]
        0x00019f6c:    2a39        9*      CMP      r2,#0x39
        0x00019f6e:    d102        ..      BNE      0x19f76 ; ftoa + 342
        0x00019f70:    2230        0"      MOVS     r2,#0x30
        0x00019f72:    7032        2p      STRB     r2,[r6,#0]
        0x00019f74:    e003        ..      B        0x19f7e ; ftoa + 350
        0x00019f76:    7832        2x      LDRB     r2,[r6,#0]
        0x00019f78:    1c52        R.      ADDS     r2,r2,#1
        0x00019f7a:    7032        2p      STRB     r2,[r6,#0]
        0x00019f7c:    e002        ..      B        0x19f84 ; ftoa + 356
        0x00019f7e:    1e76        v.      SUBS     r6,r6,#1
        0x00019f80:    4556        VE      CMP      r6,r10
        0x00019f82:    d2ef        ..      BCS      0x19f64 ; ftoa + 324
        0x00019f84:    bf00        ..      NOP      
        0x00019f86:    bf00        ..      NOP      
        0x00019f88:    2000        .       MOVS     r0,#0
        0x00019f8a:    7020         p      STRB     r0,[r4,#0]
        0x00019f8c:    eba4000a    ....    SUB      r0,r4,r10
        0x00019f90:    e757        W.      B        0x19e42 ; ftoa + 34
    $d
        0x00019f92:    0000        ..      DCW    0
        0x00019f94:    00302e30    0.0.    DCD    3157552
    $t
    i.main
    main
        0x00019f98:    b088        ..      SUB      sp,sp,#0x20
        0x00019f9a:    491c        .I      LDR      r1,[pc,#112] ; [0x1a00c] = 0x1a62c
        0x00019f9c:    c903        ..      LDM      r1,{r0,r1}
        0x00019f9e:    e9cd0106    ....    STRD     r0,r1,[sp,#0x18]
        0x00019fa2:    2000        .       MOVS     r0,#0
        0x00019fa4:    9004        ..      STR      r0,[sp,#0x10]
        0x00019fa6:    9005        ..      STR      r0,[sp,#0x14]
        0x00019fa8:    9002        ..      STR      r0,[sp,#8]
        0x00019faa:    9003        ..      STR      r0,[sp,#0xc]
        0x00019fac:    f7fefa1e    ....    BL       am_bsp_uart_printf_enable ; 0x183ec
        0x00019fb0:    f7fffc5c    ..\.    BL       am_util_stdio_terminal_clear ; 0x1986c
        0x00019fb4:    a016        ..      ADR      r0,{pc}+0x5c ; 0x1a010
        0x00019fb6:    f7fffc35    ..5.    BL       am_util_stdio_printf ; 0x19824
        0x00019fba:    f7fef9f1    ....    BL       am_bsp_uart_printf_disable ; 0x183a0
        0x00019fbe:    f7fef9e3    ....    BL       am_bsp_low_power_init ; 0x18388
        0x00019fc2:    2014        .       MOVS     r0,#0x14
        0x00019fc4:    f7fefef0    ....    BL       am_hal_pwrctrl_periph_disable ; 0x18da8
        0x00019fc8:    2100        .!      MOVS     r1,#0
        0x00019fca:    202a        *       MOVS     r0,#0x2a
        0x00019fcc:    f7fefb94    ....    BL       am_hal_gpio_state_write ; 0x186f8
        0x00019fd0:    4814        .H      LDR      r0,[pc,#80] ; [0x1a024] = 0x1a660
        0x00019fd2:    6800        .h      LDR      r0,[r0,#0]
        0x00019fd4:    9001        ..      STR      r0,[sp,#4]
        0x00019fd6:    202a        *       MOVS     r0,#0x2a
        0x00019fd8:    9901        ..      LDR      r1,[sp,#4]
        0x00019fda:    f7fefb63    ..c.    BL       am_hal_gpio_pinconfig ; 0x186a4
        0x00019fde:    2101        .!      MOVS     r1,#1
        0x00019fe0:    202a        *       MOVS     r0,#0x2a
        0x00019fe2:    f7fefb89    ....    BL       am_hal_gpio_state_write ; 0x186f8
        0x00019fe6:    2100        .!      MOVS     r1,#0
        0x00019fe8:    202a        *       MOVS     r0,#0x2a
        0x00019fea:    f7fefb85    ....    BL       am_hal_gpio_state_write ; 0x186f8
        0x00019fee:    a806        ..      ADD      r0,sp,#0x18
        0x00019ff0:    f7fefe4c    ..L.    BL       am_hal_pwrctrl_mcu_memory_config ; 0x18c8c
        0x00019ff4:    a804        ..      ADD      r0,sp,#0x10
        0x00019ff6:    f7feffc7    ....    BL       am_hal_pwrctrl_sram_config ; 0x18f88
        0x00019ffa:    a902        ..      ADD      r1,sp,#8
        0x00019ffc:    2000        .       MOVS     r0,#0
        0x00019ffe:    f7fefd01    ....    BL       am_hal_pwrctrl_dsp_memory_config ; 0x18a04
        0x0001a002:    e002        ..      B        0x1a00a ; main + 114
        0x0001a004:    2001        .       MOVS     r0,#1
        0x0001a006:    f7fff871    ..q.    BL       am_hal_sysctrl_sleep ; 0x190ec
        0x0001a00a:    e7fb        ..      B        0x1a004 ; main + 108
    $d
        0x0001a00c:    0001a62c    ,...    DCD    108076
        0x0001a010:    70656544    Deep    DCD    1885693252
        0x0001a014:    65656c73    slee    DCD    1701145715
        0x0001a018:    78452070    p Ex    DCD    2017796208
        0x0001a01c:    6c706d61    ampl    DCD    1819307361
        0x0001a020:    00000a65    e...    DCD    2661
        0x0001a024:    0001a660    `...    DCD    108128
    $t
    i.ndigits_in_hex
    ndigits_in_hex
        0x0001a028:    b530        0.      PUSH     {r4,r5,lr}
        0x0001a02a:    4602        .F      MOV      r2,r0
        0x0001a02c:    460b        .F      MOV      r3,r1
        0x0001a02e:    2400        .$      MOVS     r4,#0
        0x0001a030:    ea820104    ....    EOR      r1,r2,r4
        0x0001a034:    405c        \@      EORS     r4,r4,r3
        0x0001a036:    4321        !C      ORRS     r1,r1,r4
        0x0001a038:    d101        ..      BNE      0x1a03e ; ndigits_in_hex + 22
        0x0001a03a:    2101        .!      MOVS     r1,#1
        0x0001a03c:    e000        ..      B        0x1a040 ; ndigits_in_hex + 24
        0x0001a03e:    2100        .!      MOVS     r1,#0
        0x0001a040:    4608        .F      MOV      r0,r1
        0x0001a042:    e004        ..      B        0x1a04e ; ndigits_in_hex + 38
        0x0001a044:    0911        ..      LSRS     r1,r2,#4
        0x0001a046:    ea417203    A..r    ORR      r2,r1,r3,LSL #28
        0x0001a04a:    091b        ..      LSRS     r3,r3,#4
        0x0001a04c:    1c40        @.      ADDS     r0,r0,#1
        0x0001a04e:    2400        .$      MOVS     r4,#0
        0x0001a050:    ea820104    ....    EOR      r1,r2,r4
        0x0001a054:    405c        \@      EORS     r4,r4,r3
        0x0001a056:    4321        !C      ORRS     r1,r1,r4
        0x0001a058:    d1f4        ..      BNE      0x1a044 ; ndigits_in_hex + 28
        0x0001a05a:    bd30        0.      POP      {r4,r5,pc}
    i.ndigits_in_i64
    ndigits_in_i64
        0x0001a05c:    b570        p.      PUSH     {r4-r6,lr}
        0x0001a05e:    4604        .F      MOV      r4,r0
        0x0001a060:    460d        .F      MOV      r5,r1
        0x0001a062:    2100        .!      MOVS     r1,#0
        0x0001a064:    4608        .F      MOV      r0,r1
        0x0001a066:    1a61        a.      SUBS     r1,r4,r1
        0x0001a068:    eb750000    u...    SBCS     r0,r5,r0
        0x0001a06c:    da03        ..      BGE      0x1a076 ; ndigits_in_i64 + 26
        0x0001a06e:    2200        ."      MOVS     r2,#0
        0x0001a070:    4264        dB      RSBS     r4,r4,#0
        0x0001a072:    eb620505    b...    SBC      r5,r2,r5
        0x0001a076:    4620         F      MOV      r0,r4
        0x0001a078:    4629        )F      MOV      r1,r5
        0x0001a07a:    f000f801    ....    BL       ndigits_in_u64 ; 0x1a080
        0x0001a07e:    bd70        p.      POP      {r4-r6,pc}
    i.ndigits_in_u64
    ndigits_in_u64
        0x0001a080:    b570        p.      PUSH     {r4-r6,lr}
        0x0001a082:    4604        .F      MOV      r4,r0
        0x0001a084:    460d        .F      MOV      r5,r1
        0x0001a086:    2100        .!      MOVS     r1,#0
        0x0001a088:    ea840001    ....    EOR      r0,r4,r1
        0x0001a08c:    4069        i@      EORS     r1,r1,r5
        0x0001a08e:    4308        .C      ORRS     r0,r0,r1
        0x0001a090:    d101        ..      BNE      0x1a096 ; ndigits_in_u64 + 22
        0x0001a092:    2001        .       MOVS     r0,#1
        0x0001a094:    e000        ..      B        0x1a098 ; ndigits_in_u64 + 24
        0x0001a096:    2000        .       MOVS     r0,#0
        0x0001a098:    4606        .F      MOV      r6,r0
        0x0001a09a:    e006        ..      B        0x1a0aa ; ndigits_in_u64 + 42
        0x0001a09c:    4620         F      MOV      r0,r4
        0x0001a09e:    4629        )F      MOV      r1,r5
        0x0001a0a0:    f7fffe57    ..W.    BL       divu64_10 ; 0x19d52
        0x0001a0a4:    4604        .F      MOV      r4,r0
        0x0001a0a6:    460d        .F      MOV      r5,r1
        0x0001a0a8:    1c76        v.      ADDS     r6,r6,#1
        0x0001a0aa:    2100        .!      MOVS     r1,#0
        0x0001a0ac:    ea840001    ....    EOR      r0,r4,r1
        0x0001a0b0:    4069        i@      EORS     r1,r1,r5
        0x0001a0b2:    4308        .C      ORRS     r0,r0,r1
        0x0001a0b4:    d1f2        ..      BNE      0x1a09c ; ndigits_in_u64 + 28
        0x0001a0b6:    4630        0F      MOV      r0,r6
        0x0001a0b8:    bd70        p.      POP      {r4-r6,pc}
    i.nonblocking_read_sm
    nonblocking_read_sm
        0x0001a0ba:    e92d41f0    -..A    PUSH     {r4-r8,lr}
        0x0001a0be:    4604        .F      MOV      r4,r0
        0x0001a0c0:    f8900098    ....    LDRB     r0,[r0,#0x98]
        0x0001a0c4:    b08a        ..      SUB      sp,sp,#0x28
        0x0001a0c6:    b370        p.      CBZ      r0,0x1a126 ; nonblocking_read_sm + 108
        0x0001a0c8:    4625        %F      MOV      r5,r4
        0x0001a0ca:    f7fef907    ....    BL       am_hal_interrupt_master_disable ; 0x182dc
        0x0001a0ce:    9009        ..      STR      r0,[sp,#0x24]
        0x0001a0d0:    2100        .!      MOVS     r1,#0
        0x0001a0d2:    6a6a        jj      LDR      r2,[r5,#0x24]
        0x0001a0d4:    2620         &      MOVS     r6,#0x20
        0x0001a0d6:    0310        ..      LSLS     r0,r2,#12
        0x0001a0d8:    f1004380    ...C    ADD      r3,r0,#0x40000000
        0x0001a0dc:    466f        oF      MOV      r7,sp
        0x0001a0de:    f10d0820    .. .    ADD      r8,sp,#0x20
        0x0001a0e2:    468c        .F      MOV      r12,r1
        0x0001a0e4:    f50333e0    ...3    ADD      r3,r3,#0x1c000
        0x0001a0e8:    6998        .i      LDR      r0,[r3,#0x18]
        0x0001a0ea:    f0100f10    ....    TST      r0,#0x10
        0x0001a0ee:    d10a        ..      BNE      0x1a106 ; nonblocking_read_sm + 76
        0x0001a0f0:    681a        .h      LDR      r2,[r3,#0]
        0x0001a0f2:    f4126f70    ..po    TST      r2,#0xf00
        0x0001a0f6:    d002        ..      BEQ      0x1a0fe ; nonblocking_read_sm + 68
        0x0001a0f8:    f04f6c00    O..l    MOV      r12,#0x8000000
        0x0001a0fc:    e003        ..      B        0x1a106 ; nonblocking_read_sm + 76
        0x0001a0fe:    547a        zT      STRB     r2,[r7,r1]
        0x0001a100:    1c49        I.      ADDS     r1,r1,#1
        0x0001a102:    42b1        .B      CMP      r1,r6
        0x0001a104:    d3f0        ..      BCC      0x1a0e8 ; nonblocking_read_sm + 46
        0x0001a106:    f1b80f00    ....    CMP      r8,#0
        0x0001a10a:    bf18        ..      IT       NE
        0x0001a10c:    9108        ..      STRNE    r1,[sp,#0x20]
        0x0001a10e:    f1bc0f00    ....    CMP      r12,#0
        0x0001a112:    d105        ..      BNE      0x1a120 ; nonblocking_read_sm + 102
        0x0001a114:    4639        9F      MOV      r1,r7
        0x0001a116:    f105009c    ....    ADD      r0,r5,#0x9c
        0x0001a11a:    9a08        ..      LDR      r2,[sp,#0x20]
        0x0001a11c:    f7feff88    ....    BL       am_hal_queue_item_add ; 0x19030
        0x0001a120:    9809        ..      LDR      r0,[sp,#0x24]
        0x0001a122:    f7fef8df    ....    BL       am_hal_interrupt_master_set ; 0x182e4
        0x0001a126:    f894002c    ..,.    LDRB     r0,[r4,#0x2c]
        0x0001a12a:    2800        .(      CMP      r0,#0
        0x0001a12c:    bf04        ..      ITT      EQ
        0x0001a12e:    b00a        ..      ADDEQ    sp,sp,#0x28
        0x0001a130:    e8bd81f0    ....    POPEQ    {r4-r8,pc}
        0x0001a134:    f7fef8d2    ....    BL       am_hal_interrupt_master_disable ; 0x182dc
        0x0001a138:    9001        ..      STR      r0,[sp,#4]
        0x0001a13a:    6d20         m      LDR      r0,[r4,#0x50]
        0x0001a13c:    6ba1        .k      LDR      r1,[r4,#0x38]
        0x0001a13e:    1a0a        ..      SUBS     r2,r1,r0
        0x0001a140:    6b61        ak      LDR      r1,[r4,#0x34]
        0x0001a142:    2500        .%      MOVS     r5,#0
        0x0001a144:    4401        .D      ADD      r1,r1,r0
        0x0001a146:    9500        ..      STR      r5,[sp,#0]
        0x0001a148:    f8940098    ....    LDRB     r0,[r4,#0x98]
        0x0001a14c:    b1a0        ..      CBZ      r0,0x1a178 ; nonblocking_read_sm + 190
        0x0001a14e:    f8d400a4    ....    LDR      r0,[r4,#0xa4]
        0x0001a152:    4282        .B      CMP      r2,r0
        0x0001a154:    bf28        (.      IT       CS
        0x0001a156:    4602        .F      MOVCS    r2,r0
        0x0001a158:    f104009c    ....    ADD      r0,r4,#0x9c
        0x0001a15c:    9200        ..      STR      r2,[sp,#0]
        0x0001a15e:    f7feff92    ....    BL       am_hal_queue_item_get ; 0x19086
        0x0001a162:    bb28        (.      CBNZ     r0,0x1a1b0 ; nonblocking_read_sm + 246
        0x0001a164:    f884502c    ..,P    STRB     r5,[r4,#0x2c]
        0x0001a168:    6c62        bl      LDR      r2,[r4,#0x44]
        0x0001a16a:    b30a        ..      CBZ      r2,0x1a1b0 ; nonblocking_read_sm + 246
        0x0001a16c:    2001        .       MOVS     r0,#1
        0x0001a16e:    6ca1        .l      LDR      r1,[r4,#0x48]
        0x0001a170:    4790        .G      BLX      r2
        0x0001a172:    b00a        ..      ADD      sp,sp,#0x28
        0x0001a174:    e8bd81f0    ....    POP      {r4-r8,pc}
        0x0001a178:    2000        .       MOVS     r0,#0
        0x0001a17a:    6a63        cj      LDR      r3,[r4,#0x24]
        0x0001a17c:    466e        nF      MOV      r6,sp
        0x0001a17e:    2a00        .*      CMP      r2,#0
        0x0001a180:    bf82        ..      ITTT     HI
        0x0001a182:    031b        ..      LSLHI    r3,r3,#12
        0x0001a184:    f1034c80    ...L    ADDHI    r12,r3,#0x40000000
        0x0001a188:    f50c3ce0    ...<    ADDHI    r12,r12,#0x1c000
        0x0001a18c:    d90d        ..      BLS      0x1a1aa ; nonblocking_read_sm + 240
        0x0001a18e:    f8dc3018    ...0    LDR      r3,[r12,#0x18]
        0x0001a192:    f0130f10    ....    TST      r3,#0x10
        0x0001a196:    bf04        ..      ITT      EQ
        0x0001a198:    f8dc3000    ...0    LDREQ    r3,[r12,#0]
        0x0001a19c:    f4136f70    ..po    TSTEQ    r3,#0xf00
        0x0001a1a0:    d103        ..      BNE      0x1a1aa ; nonblocking_read_sm + 240
        0x0001a1a2:    540b        .T      STRB     r3,[r1,r0]
        0x0001a1a4:    1c40        @.      ADDS     r0,r0,#1
        0x0001a1a6:    4290        .B      CMP      r0,r2
        0x0001a1a8:    d3f1        ..      BCC      0x1a18e ; nonblocking_read_sm + 212
        0x0001a1aa:    2e00        ..      CMP      r6,#0
        0x0001a1ac:    bf18        ..      IT       NE
        0x0001a1ae:    9000        ..      STRNE    r0,[sp,#0]
        0x0001a1b0:    6d20         m      LDR      r0,[r4,#0x50]
        0x0001a1b2:    9900        ..      LDR      r1,[sp,#0]
        0x0001a1b4:    4408        .D      ADD      r0,r0,r1
        0x0001a1b6:    6520         e      STR      r0,[r4,#0x50]
        0x0001a1b8:    9801        ..      LDR      r0,[sp,#4]
        0x0001a1ba:    f7fef893    ....    BL       am_hal_interrupt_master_set ; 0x182e4
        0x0001a1be:    6d20         m      LDR      r0,[r4,#0x50]
        0x0001a1c0:    6be1        .k      LDR      r1,[r4,#0x3c]
        0x0001a1c2:    6008        .`      STR      r0,[r1,#0]
        0x0001a1c4:    6d20         m      LDR      r0,[r4,#0x50]
        0x0001a1c6:    6ba1        .k      LDR      r1,[r4,#0x38]
        0x0001a1c8:    4288        .B      CMP      r0,r1
        0x0001a1ca:    bf1c        ..      ITT      NE
        0x0001a1cc:    b00a        ..      ADDNE    sp,sp,#0x28
        0x0001a1ce:    e8bd81f0    ....    POPNE    {r4-r8,pc}
        0x0001a1d2:    f884502c    ..,P    STRB     r5,[r4,#0x2c]
        0x0001a1d6:    6c62        bl      LDR      r2,[r4,#0x44]
        0x0001a1d8:    2a00        .*      CMP      r2,#0
        0x0001a1da:    bf04        ..      ITT      EQ
        0x0001a1dc:    b00a        ..      ADDEQ    sp,sp,#0x28
        0x0001a1de:    e8bd81f0    ....    POPEQ    {r4-r8,pc}
        0x0001a1e2:    2000        .       MOVS     r0,#0
        0x0001a1e4:    6ca1        .l      LDR      r1,[r4,#0x48]
        0x0001a1e6:    b00a        ..      ADD      sp,sp,#0x28
        0x0001a1e8:    e8bd41f0    ...A    POP      {r4-r8,lr}
        0x0001a1ec:    4710        .G      BX       r2
    i.nonblocking_write_sm
    nonblocking_write_sm
        0x0001a1ee:    b5f0        ..      PUSH     {r4-r7,lr}
        0x0001a1f0:    4604        .F      MOV      r4,r0
        0x0001a1f2:    f8900054    ..T.    LDRB     r0,[r0,#0x54]
        0x0001a1f6:    2600        .&      MOVS     r6,#0
        0x0001a1f8:    b083        ..      SUB      sp,sp,#0xc
        0x0001a1fa:    2800        .(      CMP      r0,#0
        0x0001a1fc:    d049        I.      BEQ      0x1a292 ; nonblocking_write_sm + 164
        0x0001a1fe:    f7fef86d    ..m.    BL       am_hal_interrupt_master_disable ; 0x182dc
        0x0001a202:    9001        ..      STR      r0,[sp,#4]
        0x0001a204:    6fa0        .o      LDR      r0,[r4,#0x78]
        0x0001a206:    6e21        !n      LDR      r1,[r4,#0x60]
        0x0001a208:    1a0a        ..      SUBS     r2,r1,r0
        0x0001a20a:    6de1        .m      LDR      r1,[r4,#0x5c]
        0x0001a20c:    4401        .D      ADD      r1,r1,r0
        0x0001a20e:    f894007c    ..|.    LDRB     r0,[r4,#0x7c]
        0x0001a212:    b1b8        ..      CBZ      r0,0x1a244 ; nonblocking_write_sm + 86
        0x0001a214:    f8d4308c    ...0    LDR      r3,[r4,#0x8c]
        0x0001a218:    f8d40088    ....    LDR      r0,[r4,#0x88]
        0x0001a21c:    1a18        ..      SUBS     r0,r3,r0
        0x0001a21e:    4282        .B      CMP      r2,r0
        0x0001a220:    bf28        (.      IT       CS
        0x0001a222:    4602        .F      MOVCS    r2,r0
        0x0001a224:    f1040080    ....    ADD      r0,r4,#0x80
        0x0001a228:    9200        ..      STR      r2,[sp,#0]
        0x0001a22a:    f7feff01    ....    BL       am_hal_queue_item_add ; 0x19030
        0x0001a22e:    bb48        H.      CBNZ     r0,0x1a284 ; nonblocking_write_sm + 150
        0x0001a230:    f8846054    ..T`    STRB     r6,[r4,#0x54]
        0x0001a234:    6ee2        .n      LDR      r2,[r4,#0x6c]
        0x0001a236:    4620         F      MOV      r0,r4
        0x0001a238:    b322        ".      CBZ      r2,0x1a284 ; nonblocking_write_sm + 150
        0x0001a23a:    6f01        .o      LDR      r1,[r0,#0x70]
        0x0001a23c:    2001        .       MOVS     r0,#1
        0x0001a23e:    4790        .G      BLX      r2
        0x0001a240:    b003        ..      ADD      sp,sp,#0xc
        0x0001a242:    bdf0        ..      POP      {r4-r7,pc}
        0x0001a244:    f8d4c024    ..$.    LDR      r12,[r4,#0x24]
        0x0001a248:    466d        mF      MOV      r5,sp
        0x0001a24a:    2300        .#      MOVS     r3,#0
        0x0001a24c:    b1ba        ..      CBZ      r2,0x1a27e ; nonblocking_write_sm + 144
        0x0001a24e:    f1b24f00    ...O    CMP      r2,#0x80000000
        0x0001a252:    d266        f.      BCS      0x1a322 ; nonblocking_write_sm + 308
        0x0001a254:    2001        .       MOVS     r0,#1
        0x0001a256:    2a01        .*      CMP      r2,#1
        0x0001a258:    db11        ..      BLT      0x1a27e ; nonblocking_write_sm + 144
        0x0001a25a:    ea4f3c0c    O..<    LSL      r12,r12,#12
        0x0001a25e:    f10c4c80    ...L    ADD      r12,r12,#0x40000000
        0x0001a262:    f50c3ce0    ...<    ADD      r12,r12,#0x1c000
        0x0001a266:    f8dc7018    ...p    LDR      r7,[r12,#0x18]
        0x0001a26a:    f0170f20    .. .    TST      r7,#0x20
        0x0001a26e:    d106        ..      BNE      0x1a27e ; nonblocking_write_sm + 144
        0x0001a270:    5ccf        .\      LDRB     r7,[r1,r3]
        0x0001a272:    f8cc7000    ...p    STR      r7,[r12,#0]
        0x0001a276:    1c40        @.      ADDS     r0,r0,#1
        0x0001a278:    1c5b        [.      ADDS     r3,r3,#1
        0x0001a27a:    4290        .B      CMP      r0,r2
        0x0001a27c:    ddf3        ..      BLE      0x1a266 ; nonblocking_write_sm + 120
        0x0001a27e:    2d00        .-      CMP      r5,#0
        0x0001a280:    bf18        ..      IT       NE
        0x0001a282:    9300        ..      STRNE    r3,[sp,#0]
        0x0001a284:    6fa0        .o      LDR      r0,[r4,#0x78]
        0x0001a286:    9900        ..      LDR      r1,[sp,#0]
        0x0001a288:    4401        .D      ADD      r1,r1,r0
        0x0001a28a:    67a1        .g      STR      r1,[r4,#0x78]
        0x0001a28c:    9801        ..      LDR      r0,[sp,#4]
        0x0001a28e:    f7fef829    ..).    BL       am_hal_interrupt_master_set ; 0x182e4
        0x0001a292:    f894007c    ..|.    LDRB     r0,[r4,#0x7c]
        0x0001a296:    b340        @.      CBZ      r0,0x1a2ea ; nonblocking_write_sm + 252
        0x0001a298:    4625        %F      MOV      r5,r4
        0x0001a29a:    6a67        gj      LDR      r7,[r4,#0x24]
        0x0001a29c:    f7fef81e    ....    BL       am_hal_interrupt_master_disable ; 0x182dc
        0x0001a2a0:    9001        ..      STR      r0,[sp,#4]
        0x0001a2a2:    0338        8.      LSLS     r0,r7,#12
        0x0001a2a4:    f1004780    ...G    ADD      r7,r0,#0x40000000
        0x0001a2a8:    f50737e0    ...7    ADD      r7,r7,#0x1c000
        0x0001a2ac:    69b8        .i      LDR      r0,[r7,#0x18]
        0x0001a2ae:    f0100f20    .. .    TST      r0,#0x20
        0x0001a2b2:    d117        ..      BNE      0x1a2e4 ; nonblocking_write_sm + 246
        0x0001a2b4:    2201        ."      MOVS     r2,#1
        0x0001a2b6:    4669        iF      MOV      r1,sp
        0x0001a2b8:    f1050080    ....    ADD      r0,r5,#0x80
        0x0001a2bc:    f7fefee3    ....    BL       am_hal_queue_item_get ; 0x19086
        0x0001a2c0:    b180        ..      CBZ      r0,0x1a2e4 ; nonblocking_write_sm + 246
        0x0001a2c2:    6a68        hj      LDR      r0,[r5,#0x24]
        0x0001a2c4:    0300        ..      LSLS     r0,r0,#12
        0x0001a2c6:    f1004080    ...@    ADD      r0,r0,#0x40000000
        0x0001a2ca:    f50030e0    ...0    ADD      r0,r0,#0x1c000
        0x0001a2ce:    6981        .i      LDR      r1,[r0,#0x18]
        0x0001a2d0:    f0110f20    .. .    TST      r1,#0x20
        0x0001a2d4:    bf04        ..      ITT      EQ
        0x0001a2d6:    f89d1000    ....    LDRBEQ   r1,[sp,#0]
        0x0001a2da:    6001        .`      STREQ    r1,[r0,#0]
        0x0001a2dc:    69b8        .i      LDR      r0,[r7,#0x18]
        0x0001a2de:    f0100f20    .. .    TST      r0,#0x20
        0x0001a2e2:    d0e7        ..      BEQ      0x1a2b4 ; nonblocking_write_sm + 198
        0x0001a2e4:    9801        ..      LDR      r0,[sp,#4]
        0x0001a2e6:    f7fdfffd    ....    BL       am_hal_interrupt_master_set ; 0x182e4
        0x0001a2ea:    6fa0        .o      LDR      r0,[r4,#0x78]
        0x0001a2ec:    6e61        an      LDR      r1,[r4,#0x64]
        0x0001a2ee:    6008        .`      STR      r0,[r1,#0]
        0x0001a2f0:    6fa0        .o      LDR      r0,[r4,#0x78]
        0x0001a2f2:    6e21        !n      LDR      r1,[r4,#0x60]
        0x0001a2f4:    4288        .B      CMP      r0,r1
        0x0001a2f6:    bf1c        ..      ITT      NE
        0x0001a2f8:    b003        ..      ADDNE    sp,sp,#0xc
        0x0001a2fa:    bdf0        ..      POPNE    {r4-r7,pc}
        0x0001a2fc:    f8940054    ..T.    LDRB     r0,[r4,#0x54]
        0x0001a300:    2800        .(      CMP      r0,#0
        0x0001a302:    bf04        ..      ITT      EQ
        0x0001a304:    b003        ..      ADDEQ    sp,sp,#0xc
        0x0001a306:    bdf0        ..      POPEQ    {r4-r7,pc}
        0x0001a308:    f8846054    ..T`    STRB     r6,[r4,#0x54]
        0x0001a30c:    6ee2        .n      LDR      r2,[r4,#0x6c]
        0x0001a30e:    2a00        .*      CMP      r2,#0
        0x0001a310:    bf04        ..      ITT      EQ
        0x0001a312:    b003        ..      ADDEQ    sp,sp,#0xc
        0x0001a314:    bdf0        ..      POPEQ    {r4-r7,pc}
        0x0001a316:    2000        .       MOVS     r0,#0
        0x0001a318:    6f21        !o      LDR      r1,[r4,#0x70]
        0x0001a31a:    b003        ..      ADD      sp,sp,#0xc
        0x0001a31c:    e8bd40f0    ...@    POP      {r4-r7,lr}
        0x0001a320:    4710        .G      BX       r2
        0x0001a322:    ea4f300c    O..0    LSL      r0,r12,#12
        0x0001a326:    f1004080    ...@    ADD      r0,r0,#0x40000000
        0x0001a32a:    f50030e0    ...0    ADD      r0,r0,#0x1c000
        0x0001a32e:    f8d0c018    ....    LDR      r12,[r0,#0x18]
        0x0001a332:    f01c0f20    .. .    TST      r12,#0x20
        0x0001a336:    d1a2        ..      BNE      0x1a27e ; nonblocking_write_sm + 144
        0x0001a338:    f811c003    ....    LDRB     r12,[r1,r3]
        0x0001a33c:    f8c0c000    ....    STR      r12,[r0,#0]
        0x0001a340:    1c5b        [.      ADDS     r3,r3,#1
        0x0001a342:    4293        .B      CMP      r3,r2
        0x0001a344:    d3f3        ..      BCC      0x1a32e ; nonblocking_write_sm + 320
        0x0001a346:    e79a        ..      B        0x1a27e ; nonblocking_write_sm + 144
    i.padbuffer
    padbuffer
        0x0001a348:    b530        0.      PUSH     {r4,r5,lr}
        0x0001a34a:    4603        .F      MOV      r3,r0
        0x0001a34c:    2000        .       MOVS     r0,#0
        0x0001a34e:    2a00        .*      CMP      r2,#0
        0x0001a350:    dc00        ..      BGT      0x1a354 ; padbuffer + 12
        0x0001a352:    bd30        0.      POP      {r4,r5,pc}
        0x0001a354:    e003        ..      B        0x1a35e ; padbuffer + 22
        0x0001a356:    b10b        ..      CBZ      r3,0x1a35c ; padbuffer + 20
        0x0001a358:    f8031b01    ....    STRB     r1,[r3],#1
        0x0001a35c:    1c40        @.      ADDS     r0,r0,#1
        0x0001a35e:    1e14        ..      SUBS     r4,r2,#0
        0x0001a360:    f1a20201    ....    SUB      r2,r2,#1
        0x0001a364:    d1f7        ..      BNE      0x1a356 ; padbuffer + 14
        0x0001a366:    bf00        ..      NOP      
        0x0001a368:    e7f3        ..      B        0x1a352 ; padbuffer + 10
    i.simple_strlen
    simple_strlen
        0x0001a36a:    4601        .F      MOV      r1,r0
        0x0001a36c:    2000        .       MOVS     r0,#0
        0x0001a36e:    b901        ..      CBNZ     r1,0x1a372 ; simple_strlen + 8
        0x0001a370:    4770        pG      BX       lr
        0x0001a372:    e000        ..      B        0x1a376 ; simple_strlen + 12
        0x0001a374:    1c40        @.      ADDS     r0,r0,#1
        0x0001a376:    f8113b01    ...;    LDRB     r3,[r1],#1
        0x0001a37a:    2b00        .+      CMP      r3,#0
        0x0001a37c:    d1fa        ..      BNE      0x1a374 ; simple_strlen + 10
        0x0001a37e:    bf00        ..      NOP      
        0x0001a380:    e7f6        ..      B        0x1a370 ; simple_strlen + 6
    i.uint64_to_hexstr
    uint64_to_hexstr
        0x0001a382:    e92d41f0    -..A    PUSH     {r4-r8,lr}
        0x0001a386:    b085        ..      SUB      sp,sp,#0x14
        0x0001a388:    4604        .F      MOV      r4,r0
        0x0001a38a:    460d        .F      MOV      r5,r1
        0x0001a38c:    461e        .F      MOV      r6,r3
        0x0001a38e:    2100        .!      MOVS     r1,#0
        0x0001a390:    468c        .F      MOV      r12,r1
        0x0001a392:    ea84070c    ....    EOR      r7,r4,r12
        0x0001a396:    ea850c0c    ....    EOR      r12,r5,r12
        0x0001a39a:    ea57070c    W...    ORRS     r7,r7,r12
        0x0001a39e:    d105        ..      BNE      0x1a3ac ; uint64_to_hexstr + 42
        0x0001a3a0:    f04f0830    O.0.    MOV      r8,#0x30
        0x0001a3a4:    460f        .F      MOV      r7,r1
        0x0001a3a6:    1c49        I.      ADDS     r1,r1,#1
        0x0001a3a8:    f80d8007    ....    STRB     r8,[sp,r7]
        0x0001a3ac:    e016        ..      B        0x1a3dc ; uint64_to_hexstr + 90
        0x0001a3ae:    270f        .'      MOVS     r7,#0xf
        0x0001a3b0:    4027        '@      ANDS     r7,r7,r4
        0x0001a3b2:    b2fb        ..      UXTB     r3,r7
        0x0001a3b4:    2b09        .+      CMP      r3,#9
        0x0001a3b6:    dd05        ..      BLE      0x1a3c4 ; uint64_to_hexstr + 66
        0x0001a3b8:    b10e        ..      CBZ      r6,0x1a3be ; uint64_to_hexstr + 60
        0x0001a3ba:    2727        ''      MOVS     r7,#0x27
        0x0001a3bc:    e000        ..      B        0x1a3c0 ; uint64_to_hexstr + 62
        0x0001a3be:    2707        .'      MOVS     r7,#7
        0x0001a3c0:    441f        .D      ADD      r7,r7,r3
        0x0001a3c2:    b2fb        ..      UXTB     r3,r7
        0x0001a3c4:    f1030730    ..0.    ADD      r7,r3,#0x30
        0x0001a3c8:    f00708ff    ....    AND      r8,r7,#0xff
        0x0001a3cc:    460f        .F      MOV      r7,r1
        0x0001a3ce:    1c49        I.      ADDS     r1,r1,#1
        0x0001a3d0:    f80d8007    ....    STRB     r8,[sp,r7]
        0x0001a3d4:    0927        '.      LSRS     r7,r4,#4
        0x0001a3d6:    ea477405    G..t    ORR      r4,r7,r5,LSL #28
        0x0001a3da:    092d        -.      LSRS     r5,r5,#4
        0x0001a3dc:    f04f0c00    O...    MOV      r12,#0
        0x0001a3e0:    ea84070c    ....    EOR      r7,r4,r12
        0x0001a3e4:    ea850c0c    ....    EOR      r12,r5,r12
        0x0001a3e8:    ea57070c    W...    ORRS     r7,r7,r12
        0x0001a3ec:    d1df        ..      BNE      0x1a3ae ; uint64_to_hexstr + 44
        0x0001a3ee:    4608        .F      MOV      r0,r1
        0x0001a3f0:    b14a        J.      CBZ      r2,0x1a406 ; uint64_to_hexstr + 132
        0x0001a3f2:    e003        ..      B        0x1a3fc ; uint64_to_hexstr + 122
        0x0001a3f4:    f81d7001    ...p    LDRB     r7,[sp,r1]
        0x0001a3f8:    f8027b01    ...{    STRB     r7,[r2],#1
        0x0001a3fc:    1e0f        ..      SUBS     r7,r1,#0
        0x0001a3fe:    f1a10101    ....    SUB      r1,r1,#1
        0x0001a402:    d1f7        ..      BNE      0x1a3f4 ; uint64_to_hexstr + 114
        0x0001a404:    7017        .p      STRB     r7,[r2,#0]
        0x0001a406:    b005        ..      ADD      sp,sp,#0x14
        0x0001a408:    e8bd81f0    ....    POP      {r4-r8,pc}
    i.uint64_to_str
    uint64_to_str
        0x0001a40c:    e92d4ff0    -..O    PUSH     {r4-r11,lr}
        0x0001a410:    b087        ..      SUB      sp,sp,#0x1c
        0x0001a412:    4607        .F      MOV      r7,r0
        0x0001a414:    4688        .F      MOV      r8,r1
        0x0001a416:    4616        .F      MOV      r6,r2
        0x0001a418:    f04f0900    O...    MOV      r9,#0
        0x0001a41c:    46cb        .F      MOV      r11,r9
        0x0001a41e:    bf00        ..      NOP      
        0x0001a420:    4638        8F      MOV      r0,r7
        0x0001a422:    4641        AF      MOV      r1,r8
        0x0001a424:    f7fffc95    ....    BL       divu64_10 ; 0x19d52
        0x0001a428:    4604        .F      MOV      r4,r0
        0x0001a42a:    460d        .F      MOV      r5,r1
        0x0001a42c:    210a        .!      MOVS     r1,#0xa
        0x0001a42e:    fba40101    ....    UMULL    r0,r1,r4,r1
        0x0001a432:    ebb70a00    ....    SUBS     r10,r7,r0
        0x0001a436:    f10a0030    ..0.    ADD      r0,r10,#0x30
        0x0001a43a:    b2c2        ..      UXTB     r2,r0
        0x0001a43c:    4648        HF      MOV      r0,r9
        0x0001a43e:    f1090901    ....    ADD      r9,r9,#1
        0x0001a442:    f80d2000    ...     STRB     r2,[sp,r0]
        0x0001a446:    4627        'F      MOV      r7,r4
        0x0001a448:    46a8        .F      MOV      r8,r5
        0x0001a44a:    f04f0200    O...    MOV      r2,#0
        0x0001a44e:    ea870002    ....    EOR      r0,r7,r2
        0x0001a452:    ea880102    ....    EOR      r1,r8,r2
        0x0001a456:    4308        .C      ORRS     r0,r0,r1
        0x0001a458:    d1e2        ..      BNE      0x1a420 ; uint64_to_str + 20
        0x0001a45a:    46cb        .F      MOV      r11,r9
        0x0001a45c:    b156        V.      CBZ      r6,0x1a474 ; uint64_to_str + 104
        0x0001a45e:    e003        ..      B        0x1a468 ; uint64_to_str + 92
        0x0001a460:    f81d0009    ....    LDRB     r0,[sp,r9]
        0x0001a464:    f8060b01    ....    STRB     r0,[r6],#1
        0x0001a468:    f1b90000    ....    SUBS     r0,r9,#0
        0x0001a46c:    f1a90901    ....    SUB      r9,r9,#1
        0x0001a470:    d1f6        ..      BNE      0x1a460 ; uint64_to_str + 84
        0x0001a472:    7030        0p      STRB     r0,[r6,#0]
        0x0001a474:    4658        XF      MOV      r0,r11
        0x0001a476:    b007        ..      ADD      sp,sp,#0x1c
        0x0001a478:    e8bd8ff0    ....    POP      {r4-r11,pc}
    x$fpl$d2f
    $v0
    __aeabi_d2f
    _d2f
        0x0001a47c:    f0214200    !..B    BIC      r2,r1,#0x80000000
        0x0001a480:    f1a25260    ..`R    SUB      r2,r2,#0x38000000
        0x0001a484:    f5b21f80    ....    CMP      r2,#0x100000
        0x0001a488:    f0014300    ...C    AND      r3,r1,#0x80000000
        0x0001a48c:    bf28        (.      IT       CS
        0x0001a48e:    f1d26c7f    ...l    RSBSCS   r12,r2,#0xff00000
        0x0001a492:    d90b        ..      BLS      0x1a4ac ; __aeabi_d2f + 48
        0x0001a494:    ea5f1c00    _...    LSLS     r12,r0,#4
        0x0001a498:    ea4302c2    C...    ORR      r2,r3,r2,LSL #3
        0x0001a49c:    eb427050    B.Pp    ADC      r0,r2,r0,LSR #29
        0x0001a4a0:    bf18        ..      IT       NE
        0x0001a4a2:    4770        pG      BXNE     lr
        0x0001a4a4:    bf28        (.      IT       CS
        0x0001a4a6:    f0200001     ...    BICCS    r0,r0,#1
        0x0001a4aa:    4770        pG      BX       lr
        0x0001a4ac:    f5b21f80    ....    CMP      r2,#0x100000
        0x0001a4b0:    bfbc        ..      ITT      LT
        0x0001a4b2:    4618        .F      MOVLT    r0,r3
        0x0001a4b4:    4770        pG      BXLT     lr
        0x0001a4b6:    ea4f0c41    O.A.    LSL      r12,r1,#1
        0x0001a4ba:    f51c1f00    ....    CMN      r12,#0x200000
        0x0001a4be:    d202        ..      BCS      0x1a4c6 ; __aeabi_d2f + 74
        0x0001a4c0:    4608        .F      MOV      r0,r1
        0x0001a4c2:    f000b85f    .._.    B.W      __fpl_fretinf ; 0x1a584
        0x0001a4c6:    b570        p.      PUSH     {r4-r6,lr}
        0x0001a4c8:    f000f809    ....    BL       __fpl_dnaninf ; 0x1a4de
    $d
        0x0001a4cc:    89000000    ....    DCD    2298478592
    $t
        0x0001a4d0:    f7ffbff6    ....    B.W      0x1a4c0 ; __aeabi_d2f + 68
        0x0001a4d4:    f04f4000    O..@    MOV      r0,#0x80000000
        0x0001a4d8:    f5a00080    ....    SUB      r0,r0,#0x400000
        0x0001a4dc:    4770        pG      BX       lr
    x$fpl$dnaninf
    $v0
    __fpl_dnaninf
        0x0001a4de:    f10e0e02    ....    ADD      lr,lr,#2
        0x0001a4e2:    f02e0e03    ....    BIC      lr,lr,#3
        0x0001a4e6:    f85e6b04    ^..k    LDR      r6,[lr],#4
        0x0001a4ea:    4236        6B      TST      r6,r6
        0x0001a4ec:    d405        ..      BMI      0x1a4fa ; __fpl_dnaninf + 28
        0x0001a4ee:    2a01        .*      CMP      r2,#1
        0x0001a4f0:    eb430503    C...    ADC      r5,r3,r3
        0x0001a4f4:    f5151f00    ....    CMN      r5,#0x200000
        0x0001a4f8:    d812        ..      BHI      0x1a520 ; __fpl_dnaninf + 66
        0x0001a4fa:    2801        .(      CMP      r0,#1
        0x0001a4fc:    eb410c01    A...    ADC      r12,r1,r1
        0x0001a500:    f51c1f00    ....    CMN      r12,#0x200000
        0x0001a504:    d80c        ..      BHI      0x1a520 ; __fpl_dnaninf + 66
        0x0001a506:    d10e        ..      BNE      0x1a526 ; __fpl_dnaninf + 72
        0x0001a508:    ea4f7cd1    O..|    LSR      r12,r1,#31
        0x0001a50c:    f5151f00    ....    CMN      r5,#0x200000
        0x0001a510:    eb0c0c4c    ..L.    ADD      r12,r12,r12,LSL #1
        0x0001a514:    f10c0c02    ....    ADD      r12,r12,#2
        0x0001a518:    bf08        ..      IT       EQ
        0x0001a51a:    eb4c7cd3    L..|    ADCEQ    r12,r12,r3,LSR #31
        0x0001a51e:    e004        ..      B        0x1a52a ; __fpl_dnaninf + 76
        0x0001a520:    f04f0c08    O...    MOV      r12,#8
        0x0001a524:    e001        ..      B        0x1a52a ; __fpl_dnaninf + 76
        0x0001a526:    ea4f7cd3    O..|    LSR      r12,r3,#31
        0x0001a52a:    eb0c054c    ..L.    ADD      r5,r12,r12,LSL #1
        0x0001a52e:    fa26f605    &...    LSR      r6,r6,r5
        0x0001a532:    f0060607    ....    AND      r6,r6,#7
        0x0001a536:    f1b60c04    ....    SUBS     r12,r6,#4
        0x0001a53a:    d206        ..      BCS      0x1a54a ; __fpl_dnaninf + 108
        0x0001a53c:    eb0e0c86    ....    ADD      r12,lr,r6,LSL #2
        0x0001a540:    e8bd4070    ..p@    POP      {r4-r6,lr}
        0x0001a544:    f04c0c01    L...    ORR      r12,r12,#1
        0x0001a548:    4760        `G      BX       r12
        0x0001a54a:    e8dff00c    ....    TBB      [pc,r12]
    $d
        0x0001a54e:    0b09        ..      DCW    2825
        0x0001a550:    0202        ..      DCW    514
    $t
        0x0001a552:    f04f4100    O..A    MOV      r1,#0x80000000
        0x0001a556:    f04f0000    O...    MOV      r0,#0
        0x0001a55a:    f5a12100    ...!    SUB      r1,r1,#0x80000
        0x0001a55e:    bd70        p.      POP      {r4-r6,pc}
        0x0001a560:    4619        .F      MOV      r1,r3
        0x0001a562:    4610        .F      MOV      r0,r2
        0x0001a564:    2801        .(      CMP      r0,#1
        0x0001a566:    eb510401    Q...    ADCS     r4,r1,r1
        0x0001a56a:    bf18        ..      IT       NE
        0x0001a56c:    f5d41400    ....    RSBSNE   r4,r4,#0x200000
        0x0001a570:    bf84        ..      ITT      HI
        0x0001a572:    2000        .       MOVHI    r0,#0
        0x0001a574:    f0014100    ...A    ANDHI    r1,r1,#0x80000000
        0x0001a578:    bd70        p.      POP      {r4-r6,pc}
    x$fpl$fpinit
    $v0
    _fp_init
        0x0001a57a:    f04f7040    O.@p    MOV      r0,#0x3000000
        0x0001a57e:    eee10a10    ....    VMSR     FPSCR,r0
    __fplib_config_fpu_vfp
    __fplib_config_pureend_doubles
        0x0001a582:    4770        pG      BX       lr
    x$fpl$fretinf
    $v0
    __fpl_fretinf
        0x0001a584:    21ff        .!      MOVS     r1,#0xff
        0x0001a586:    ea4150d0    A..P    ORR      r0,r1,r0,LSR #23
        0x0001a58a:    05c0        ..      LSLS     r0,r0,#23
        0x0001a58c:    4770        pG      BX       lr
    x$fpl$usenofp
    __I$use$fp
        0x0001a58e:    0000        ..      MOVS     r0,r0
    $d.realdata
    .constdata
    ui32I2sWordLength
        0x0001a590:    00000008    ....    DCD    8
        0x0001a594:    00000000    ....    DCD    0
        0x0001a598:    00000010    ....    DCD    16
        0x0001a59c:    00000000    ....    DCD    0
        0x0001a5a0:    00000018    ....    DCD    24
        0x0001a5a4:    00000020     ...    DCD    32
    __tagsym$$used
    ui32MCUAllowed
        0x0001a5a8:    00000000    ....    DCD    0
        0x0001a5ac:    00000000    ....    DCD    0
        0x0001a5b0:    00000000    ....    DCD    0
        0x0001a5b4:    00000000    ....    DCD    0
        0x0001a5b8:    00000000    ....    DCD    0
    __tagsym$$used
    ui32DSP0Allowed
        0x0001a5bc:    00000000    ....    DCD    0
        0x0001a5c0:    00000000    ....    DCD    0
        0x0001a5c4:    00000000    ....    DCD    0
        0x0001a5c8:    00000000    ....    DCD    0
        0x0001a5cc:    00000000    ....    DCD    0
    __tagsym$$used
    ui32DSP1Allowed
        0x0001a5d0:    00000000    ....    DCD    0
        0x0001a5d4:    00000000    ....    DCD    0
        0x0001a5d8:    00000000    ....    DCD    0
        0x0001a5dc:    00000000    ....    DCD    0
        0x0001a5e0:    00000000    ....    DCD    0
    __tagsym$$used
    ui32SharedAccess
        0x0001a5e4:    00000000    ....    DCD    0
        0x0001a5e8:    00000000    ....    DCD    0
        0x0001a5ec:    00000000    ....    DCD    0
        0x0001a5f0:    00000000    ....    DCD    0
        0x0001a5f4:    00000000    ....    DCD    0
    __tagsym$$used
    sGlobalAccess
        0x0001a5f8:    0001a5e4    ....    DCD    108004
        0x0001a5fc:    0001a5a8    ....    DCD    107944
        0x0001a600:    0001a5bc    ....    DCD    107964
        0x0001a604:    0001a5d0    ....    DCD    107984
        0x0001a608:    10001f04    ....    DCD    268443396
        0x0001a60c:    10001f18    ....    DCD    268443416
        0x0001a610:    10001f2c    ,...    DCD    268443436
    .constdata
    ui32I2sWordLength
        0x0001a614:    00000008    ....    DCD    8
        0x0001a618:    00000000    ....    DCD    0
        0x0001a61c:    00000010    ....    DCD    16
        0x0001a620:    00000000    ....    DCD    0
        0x0001a624:    00000018    ....    DCD    24
        0x0001a628:    00000020     ...    DCD    32
        0x0001a62c:    01010000    ....    DCD    16842752
        0x0001a630:    00000001    ....    DCD    1
    .constdata
    g_sBspUartConfig
        0x0001a634:    0001c200    ....    DCD    115200
        0x0001a638:    00000203    ....    DCD    515
        0x0001a63c:    02020000    ....    DCD    33685504
        0x0001a640:    00000000    ....    DCD    0
        0x0001a644:    00000000    ....    DCD    0
        0x0001a648:    00000000    ....    DCD    0
        0x0001a64c:    00000000    ....    DCD    0
        0x0001a650:    ffffffff    ....    DCD    4294967295
        0x0001a654:    00000000    ....    DCD    0
        0x0001a658:    00000000    ....    DCD    0
        0x0001a65c:    00000000    ....    DCD    0
    .constdata
    am_hal_gpio_pincfg_output
        0x0001a660:    00000183    ....    DCD    387
    .constdata
    am_hal_gpio_pincfg_disabled
        0x0001a664:    00000003    ....    DCD    3
    .constdata
    g_ui32DSpintbl
        0x0001a668:    8fc007e0    ....    DCD    2411726816
        0x0001a66c:    e3fbffff    ....    DCD    3824943103
        0x0001a670:    01ffffff    ....    DCD    33554431
        0x0001a674:    00000000    ....    DCD    0
    .constdata
    g_DefaultMcuMemCfg
        0x0001a678:    07070102    ....    DCD    117899522
        0x0001a67c:    0001        ..      DCW    1
    g_DefaultSRAMCfg
        0x0001a67e:    0003        ..      DCW    3
        0x0001a680:    03000000    ....    DCD    50331648
    am_hal_pwrctrl_peripheral_control
        0x0001a684:    40021004    ...@    DCD    1073876996
        0x0001a688:    00000001    ....    DCD    1
        0x0001a68c:    40021008    ...@    DCD    1073877000
        0x0001a690:    00000001    ....    DCD    1
        0x0001a694:    40021004    ...@    DCD    1073876996
        0x0001a698:    00000002    ....    DCD    2
        0x0001a69c:    40021008    ...@    DCD    1073877000
        0x0001a6a0:    0000001e    ....    DCD    30
        0x0001a6a4:    40021004    ...@    DCD    1073876996
        0x0001a6a8:    00000004    ....    DCD    4
        0x0001a6ac:    40021008    ...@    DCD    1073877000
        0x0001a6b0:    0000001e    ....    DCD    30
        0x0001a6b4:    40021004    ...@    DCD    1073876996
        0x0001a6b8:    00000008    ....    DCD    8
        0x0001a6bc:    40021008    ...@    DCD    1073877000
        0x0001a6c0:    0000001e    ....    DCD    30
        0x0001a6c4:    40021004    ...@    DCD    1073876996
        0x0001a6c8:    00000010    ....    DCD    16
        0x0001a6cc:    40021008    ...@    DCD    1073877000
        0x0001a6d0:    0000001e    ....    DCD    30
        0x0001a6d4:    40021004    ...@    DCD    1073876996
        0x0001a6d8:    00000020     ...    DCD    32
        0x0001a6dc:    40021008    ...@    DCD    1073877000
        0x0001a6e0:    000001e0    ....    DCD    480
        0x0001a6e4:    40021004    ...@    DCD    1073876996
        0x0001a6e8:    00000040    @...    DCD    64
        0x0001a6ec:    40021008    ...@    DCD    1073877000
        0x0001a6f0:    000001e0    ....    DCD    480
        0x0001a6f4:    40021004    ...@    DCD    1073876996
        0x0001a6f8:    00000080    ....    DCD    128
        0x0001a6fc:    40021008    ...@    DCD    1073877000
        0x0001a700:    000001e0    ....    DCD    480
        0x0001a704:    40021004    ...@    DCD    1073876996
        0x0001a708:    00000100    ....    DCD    256
        0x0001a70c:    40021008    ...@    DCD    1073877000
        0x0001a710:    000001e0    ....    DCD    480
        0x0001a714:    40021004    ...@    DCD    1073876996
        0x0001a718:    00000200    ....    DCD    512
        0x0001a71c:    40021008    ...@    DCD    1073877000
        0x0001a720:    00001e00    ....    DCD    7680
        0x0001a724:    40021004    ...@    DCD    1073876996
        0x0001a728:    00000400    ....    DCD    1024
        0x0001a72c:    40021008    ...@    DCD    1073877000
        0x0001a730:    00001e00    ....    DCD    7680
        0x0001a734:    40021004    ...@    DCD    1073876996
        0x0001a738:    00000800    ....    DCD    2048
        0x0001a73c:    40021008    ...@    DCD    1073877000
        0x0001a740:    00001e00    ....    DCD    7680
        0x0001a744:    40021004    ...@    DCD    1073876996
        0x0001a748:    00001000    ....    DCD    4096
        0x0001a74c:    40021008    ...@    DCD    1073877000
        0x0001a750:    00001e00    ....    DCD    7680
        0x0001a754:    40021004    ...@    DCD    1073876996
        0x0001a758:    00002000    . ..    DCD    8192
        0x0001a75c:    40021008    ...@    DCD    1073877000
        0x0001a760:    00002000    . ..    DCD    8192
        0x0001a764:    40021004    ...@    DCD    1073876996
        0x0001a768:    00004000    .@..    DCD    16384
        0x0001a76c:    40021008    ...@    DCD    1073877000
        0x0001a770:    0001c000    ....    DCD    114688
        0x0001a774:    40021004    ...@    DCD    1073876996
        0x0001a778:    00008000    ....    DCD    32768
        0x0001a77c:    40021008    ...@    DCD    1073877000
        0x0001a780:    0001c000    ....    DCD    114688
        0x0001a784:    40021004    ...@    DCD    1073876996
        0x0001a788:    00010000    ....    DCD    65536
        0x0001a78c:    40021008    ...@    DCD    1073877000
        0x0001a790:    0001c000    ....    DCD    114688
        0x0001a794:    40021004    ...@    DCD    1073876996
        0x0001a798:    00020000    ....    DCD    131072
        0x0001a79c:    40021008    ...@    DCD    1073877000
        0x0001a7a0:    00020000    ....    DCD    131072
        0x0001a7a4:    40021004    ...@    DCD    1073876996
        0x0001a7a8:    00040000    ....    DCD    262144
        0x0001a7ac:    40021008    ...@    DCD    1073877000
        0x0001a7b0:    00040000    ....    DCD    262144
        0x0001a7b4:    40021004    ...@    DCD    1073876996
        0x0001a7b8:    00080000    ....    DCD    524288
        0x0001a7bc:    40021008    ...@    DCD    1073877000
        0x0001a7c0:    00080000    ....    DCD    524288
        0x0001a7c4:    40021004    ...@    DCD    1073876996
        0x0001a7c8:    00100000    ....    DCD    1048576
        0x0001a7cc:    40021008    ...@    DCD    1073877000
        0x0001a7d0:    00100000    ....    DCD    1048576
        0x0001a7d4:    40021004    ...@    DCD    1073876996
        0x0001a7d8:    00200000    .. .    DCD    2097152
        0x0001a7dc:    40021008    ...@    DCD    1073877000
        0x0001a7e0:    00200000    .. .    DCD    2097152
        0x0001a7e4:    40021004    ...@    DCD    1073876996
        0x0001a7e8:    00400000    ..@.    DCD    4194304
        0x0001a7ec:    40021008    ...@    DCD    1073877000
        0x0001a7f0:    00400000    ..@.    DCD    4194304
        0x0001a7f4:    40021004    ...@    DCD    1073876996
        0x0001a7f8:    00800000    ....    DCD    8388608
        0x0001a7fc:    40021008    ...@    DCD    1073877000
        0x0001a800:    00800000    ....    DCD    8388608
        0x0001a804:    40021004    ...@    DCD    1073876996
        0x0001a808:    01000000    ....    DCD    16777216
        0x0001a80c:    40021008    ...@    DCD    1073877000
        0x0001a810:    01000000    ....    DCD    16777216
        0x0001a814:    4002100c    ...@    DCD    1073877004
        0x0001a818:    00000001    ....    DCD    1
        0x0001a81c:    40021010    ...@    DCD    1073877008
        0x0001a820:    000000ff    ....    DCD    255
        0x0001a824:    4002100c    ...@    DCD    1073877004
        0x0001a828:    00000002    ....    DCD    2
        0x0001a82c:    40021010    ...@    DCD    1073877008
        0x0001a830:    000000ff    ....    DCD    255
        0x0001a834:    4002100c    ...@    DCD    1073877004
        0x0001a838:    00000004    ....    DCD    4
        0x0001a83c:    40021010    ...@    DCD    1073877008
        0x0001a840:    000000ff    ....    DCD    255
        0x0001a844:    4002100c    ...@    DCD    1073877004
        0x0001a848:    00000008    ....    DCD    8
        0x0001a84c:    40021010    ...@    DCD    1073877008
        0x0001a850:    000000ff    ....    DCD    255
        0x0001a854:    4002100c    ...@    DCD    1073877004
        0x0001a858:    00000010    ....    DCD    16
        0x0001a85c:    40021010    ...@    DCD    1073877008
        0x0001a860:    000000ff    ....    DCD    255
        0x0001a864:    4002100c    ...@    DCD    1073877004
        0x0001a868:    00000020     ...    DCD    32
        0x0001a86c:    40021010    ...@    DCD    1073877008
        0x0001a870:    000000ff    ....    DCD    255
        0x0001a874:    4002100c    ...@    DCD    1073877004
        0x0001a878:    00000040    @...    DCD    64
        0x0001a87c:    40021010    ...@    DCD    1073877008
        0x0001a880:    000000ff    ....    DCD    255
        0x0001a884:    4002100c    ...@    DCD    1073877004
        0x0001a888:    00000080    ....    DCD    128
        0x0001a88c:    40021010    ...@    DCD    1073877008
        0x0001a890:    000000ff    ....    DCD    255
        0x0001a894:    4002100c    ...@    DCD    1073877004
        0x0001a898:    00000400    ....    DCD    1024
        0x0001a89c:    40021010    ...@    DCD    1073877008
        0x0001a8a0:    00000400    ....    DCD    1024
    g_VDDC_trimstbl
        0x0001a8a4:    3c003cec    .<.<    DCD    1006648556
        0x0001a8a8:    7f7ff05a    Z...    DCD    2139091034
        0x0001a8ac:    00          .       DCB    0
    g_VDDF_trimstbl
        0x0001a8ad:    ecf500      ...     DCB    236,245,0
        0x0001a8b0:    fefffef5    ....    DCD    4278189813
        0x0001a8b4:    1108fe08    ....    DCD    285801992
        0x0001a8b8:    fc1a11fd    ....    DCD    4229566973
        0x0001a8bc:    23fb231a    .#.#    DCD    603661082
        0x0001a8c0:    352cfa2c    ,.,5    DCD    892140076
        0x0001a8c4:    f83c35f9    .5<.    DCD    4164695545
        0x0001a8c8:    7ff75a3c    <Z..    DCD    2146916924
        0x0001a8cc:    007f        ..      DCW    127
    g_VDDFLP_trimstbl
        0x0001a8ce:    f5ec        ..      DCW    62956
        0x0001a8d0:    fffef500    ....    DCD    4294898944
        0x0001a8d4:    08fe08fe    ....    DCD    150866174
        0x0001a8d8:    1a11fd11    ....    DCD    437386513
        0x0001a8dc:    fb231afc    ..#.    DCD    4213381884
        0x0001a8e0:    2cfa2c23    #,.,    DCD    754592803
        0x0001a8e4:    3c35f935    5.5<    DCD    1010170165
        0x0001a8e8:    f75a3cf8    .<Z.    DCD    4149886200
        0x0001a8ec:    7f7f        ..      DCW    32639
        0x0001a8ee:    00          .       DCB    0
    g_memlpldo_trimstbl
        0x0001a8ef:    ee          .       DCB    238
        0x0001a8f0:    f6f208f2    ....    DCD    4143057138
        0x0001a8f4:    06faf607    ....    DCD    117110279
        0x0001a8f8:    fe05fefa    ....    DCD    4261805818
        0x0001a8fc:    06020402    ....    DCD    100795394
        0x0001a900:    020a0603    ....    DCD    34211331
        0x0001a904:    0e010e0a    ....    DCD    234950154
        0x0001a908:    16120012    ....    DCD    370278418
        0x0001a90c:    fe1a16ff    ....    DCD    4263122687
        0x0001a910:    2afd2a1a    .*.*    DCD    721234458
        0x0001a914:    5a3cfc3c    <.<Z    DCD    1513946172
        0x0001a918:    007f7ffb    ....    DCD    8355835
    .constdata
    g_am_hal_bootrom_helper
        0x0001a91c:    0800004d    M...    DCD    134217805
        0x0001a920:    08000051    Q...    DCD    134217809
        0x0001a924:    08000055    U...    DCD    134217813
        0x0001a928:    08000059    Y...    DCD    134217817
        0x0001a92c:    0800006d    m...    DCD    134217837
        0x0001a930:    08000075    u...    DCD    134217845
        0x0001a934:    08000079    y...    DCD    134217849
        0x0001a938:    08000081    ....    DCD    134217857
        0x0001a93c:    08000099    ....    DCD    134217881
        0x0001a940:    0800009d    ....    DCD    134217885
    .constdata
    am_hal_daxi_defaults
        0x0001a944:    0f020100    ....    DCD    251789568
        0x0001a948:    00000001    ....    DCD    1
    Region$$Table$$Base
        0x0001a94c:    0001a97c    |...    DCD    108924
        0x0001a950:    10000000    ....    DCD    268435456
        0x0001a954:    00000074    t...    DCD    116
        0x0001a958:    00018270    p...    DCD    98928
        0x0001a95c:    0001a9f0    ....    DCD    109040
        0x0001a960:    10001f00    ....    DCD    268443392
        0x0001a964:    00000040    @...    DCD    64
        0x0001a968:    00018270    p...    DCD    98928
        0x0001a96c:    0001a9f0    ....    DCD    109040
        0x0001a970:    10000074    t...    DCD    268435572
        0x0001a974:    00000844    D...    DCD    2116
        0x0001a978:    0001828c    ....    DCD    98956
    Region$$Table$$Limit

** Section #2 'MCU_TCM' (SHT_PROGBITS) [SHF_ALLOC + SHF_WRITE]
    Size   : 116 bytes (alignment 4)
    Address: 0x10000000

    0x10000000:   00 00 00 00 00 00 00 00 00 00 00 00 00 00 00 00    ................
    0x10000010:   02 00 0e 00 00 00 86 01 86 01 06 08 01 00 02 00    ................
    0x10000020:   57 00 00 00 01 00 00 00 00 00 00 00 ff ff ff ff    W...............
    0x10000030:   ff ff ff ff 00 00 00 00 00 00 00 00 00 00 00 00    ................
    0x10000040:   00 00 00 00 00 00 00 00 00 00 00 00 00 00 00 00    ................
    0x10000050:   00 00 00 00 00 00 00 00 00 00 00 00 00 00 00 00    ................
    0x10000060:   00 00 00 00 04 04 00 00 04 00 00 00 00 01 02 0f    ................
    0x10000070:   01 00 00 00                                        ....


** Section #3 'MCU_TCM' (SHT_NOBITS) [SHF_ALLOC + SHF_WRITE]
    Size   : 2116 bytes (alignment 8)
    Address: 0x10000074


** Section #4 'SHARED_SRAM' (SHT_PROGBITS) [SHF_ALLOC + SHF_WRITE]
    Size   : 64 bytes (alignment 4)
    Address: 0x10001f00

    0x10001f00:   f8 a5 01 00 00 00 00 00 00 00 00 00 00 00 00 00    ................
    0x10001f10:   00 00 00 00 00 00 00 00 00 00 00 00 00 00 00 00    ................
    0x10001f20:   00 00 00 00 00 00 00 00 00 00 00 00 00 00 00 00    ................
    0x10001f30:   00 00 00 00 00 00 00 00 00 00 00 00 00 00 00 00    ................


** Section #5 '.debug_abbrev' (SHT_PROGBITS)
    Size   : 1476 bytes


** Section #6 '.debug_frame' (SHT_PROGBITS)
    Size   : 3188 bytes


** Section #7 '.debug_info' (SHT_PROGBITS)
    Size   : 18744 bytes


** Section #8 '.debug_line' (SHT_PROGBITS)
    Size   : 4164 bytes


** Section #9 '.debug_loc' (SHT_PROGBITS)
    Size   : 1872 bytes


** Section #10 '.debug_macinfo' (SHT_PROGBITS)
    Size   : 4292 bytes


** Section #11 '.debug_pubnames' (SHT_PROGBITS)
    Size   : 533 bytes


** Section #12 '.symtab' (SHT_SYMTAB)
    Size   : 9696 bytes (alignment 4)
    String table #13 '.strtab'
    Last local symbol no. 381

    Symbol table .symtab (605 symbols, 381 local)

      #  Symbol Name                Value      Bind  Sec  Type  Vis  Size
    ========================================================================

      1  $d                         0x00018000   Lc    1   --   De 
      2  $t                         0x00018200   Lc    1   --   De 
      3  $d                         0x00018230   Lc    1   --   De 
      4  $t                         0x00018234   Lc    1   --   De 
      5  $d                         0x00018268   Lc    1   --   De 
      6  $t                         0x00018270   Lc    1   --   De 
      7  $d                         0x000182f6   Lc    1   --   De 
      8  $t                         0x00018304   Lc    1   --   De 
      9  $d                         0x0001836c   Lc    1   --   De 
     10  $t                         0x00018370   Lc    1   --   De 
     11  $d                         0x00018378   Lc    1   --   De 
     12  $t                         0x0001837c   Lc    1   --   De 
     13  $d                         0x000183e4   Lc    1   --   De 
     14  $t                         0x000183ec   Lc    1   --   De 
     15  $d                         0x00018440   Lc    1   --   De 
     16  $t                         0x00018458   Lc    1   --   De 
     17  $d                         0x0001849a   Lc    1   --   De 
     18  $t                         0x000184a4   Lc    1   --   De 
     19  $d                         0x00018534   Lc    1   --   De 
     20  $t                         0x0001853c   Lc    1   --   De 
     21  $d                         0x000185b2   Lc    1   --   De 
     22  $t                         0x000185bc   Lc    1   --   De 
     23  $d                         0x000185de   Lc    1   --   De 
     24  $t                         0x000185e8   Lc    1   --   De 
     25  $d                         0x00018638   Lc    1   --   De 
     26  $t                         0x00018640   Lc    1   --   De 
     27  $d                         0x0001869c   Lc    1   --   De 
     28  $t                         0x000186a4   Lc    1   --   De 
     29  $d                         0x000186f0   Lc    1   --   De 
     30  $t                         0x000186f8   Lc    1   --   De 
     31  $d                         0x0001871a   Lc    1   --   De 
     32  $t                         0x00018720   Lc    1   --   De 
     33  $d                         0x000187d8   Lc    1   --   De 
     34  $t                         0x000187dc   Lc    1   --   De 
     35  $d                         0x000187f4   Lc    1   --   De 
     36  $t                         0x000187fa   Lc    1   --   De 
     37  $d                         0x000189f0   Lc    1   --   De 
     38  $t                         0x00018a04   Lc    1   --   De 
     39  $d                         0x00018b52   Lc    1   --   De 
     40  $t                         0x00018b60   Lc    1   --   De 
     41  $d                         0x00018c70   Lc    1   --   De 
     42  $t                         0x00018c8c   Lc    1   --   De 
     43  $d                         0x00018da0   Lc    1   --   De 
     44  $t                         0x00018da8   Lc    1   --   De 
     45  $d                         0x00018eba   Lc    1   --   De 
     46  $t                         0x00018ed4   Lc    1   --   De 
     47  $d                         0x00018f7a   Lc    1   --   De 
     48  $t                         0x00018f88   Lc    1   --   De 
     49  $d                         0x00019026   Lc    1   --   De 
     50  $t                         0x00019030   Lc    1   --   De 
     51  $d                         0x000190e6   Lc    1   --   De 
     52  $t                         0x000190ec   Lc    1   --   De 
     53  $d                         0x000191be   Lc    1   --   De 
     54  $t                         0x000191d4   Lc    1   --   De 
     55  $d                         0x0001924a   Lc    1   --   De 
     56  $t                         0x00019250   Lc    1   --   De 
     57  $d                         0x00019348   Lc    1   --   De 
     58  $t                         0x0001936c   Lc    1   --   De 
     59  $d                         0x00019396   Lc    1   --   De 
     60  $t                         0x0001939c   Lc    1   --   De 
     61  $d                         0x00019414   Lc    1   --   De 
     62  $t                         0x0001941c   Lc    1   --   De 
     63  $d                         0x000194fe   Lc    1   --   De 
     64  $t                         0x00019504   Lc    1   --   De 
     65  $d                         0x00019776   Lc    1   --   De 
     66  $t                         0x00019780   Lc    1   --   De 
     67  $d                         0x0001981e   Lc    1   --   De 
     68  $t                         0x00019824   Lc    1   --   De 
     69  $d                         0x00019856   Lc    1   --   De 
     70  $t                         0x00019860   Lc    1   --   De 
     71  $d                         0x00019866   Lc    1   --   De 
     72  $t                         0x0001986c   Lc    1   --   De 
     73  $d                         0x00019876   Lc    1   --   De 
     74  $t                         0x0001988c   Lc    1   --   De 
     75  $d                         0x00019c30   Lc    1   --   De 
     76  $t                         0x00019c40   Lc    1   --   De 
     77  $d                         0x00019c5c   Lc    1   --   De 
     78  $t                         0x00019c60   Lc    1   --   De 
     79  $d                         0x00019d06   Lc    1   --   De 
     80  $t                         0x00019d10   Lc    1   --   De 
     81  $d                         0x00019f92   Lc    1   --   De 
     82  $t                         0x00019f98   Lc    1   --   De 
     83  $d                         0x0001a00c   Lc    1   --   De 
     84  $t                         0x0001a028   Lc    1   --   De 
     85  $d                         0x0001a4cc   Lc    1   --   De 
     86  $t                         0x0001a4d0   Lc    1   --   De 
     87  $d                         0x0001a54e   Lc    1   --   De 
     88  $t                         0x0001a552   Lc    1   --   De 
     89  $d.realdata                0x0001a590   Lc    1   --   De 
     90  $d.realdata                0x10000000   Lc    2   --   De 
     91  $d.realdata                0x10001f00   Lc    4   --   De 
     92  ..\src\am_resources.c      0x00000000   Lc  Abs  File  De 
     93  ../src/am_resources.c      0x00000000   Lc  Abs  File  De 
     94  .constdata                 0x0001a590   Lc    1  Sect  De   0x84
     95  ui32I2sWordLength          0x0001a590   Lc    1  Data  De   0x18
     96  __tagsym$$used             0x0001a5a8   Lc    1   --   De 
     97  __tagsym$$used             0x0001a5bc   Lc    1   --   De 
     98  __tagsym$$used             0x0001a5d0   Lc    1   --   De 
     99  __tagsym$$used             0x0001a5e4   Lc    1   --   De 
    100  __tagsym$$used             0x0001a5f8   Lc    1   --   De 
    101  RESOURCE_TABLE             0x10001f00   Lc    4  Sect  De   0x4
    102  __tagsym$$used             0x10001f00   Lc    4   --   De 
    103  SHARED_RW                  0x10001f04   Lc    4  Sect  De   0x3c
    104  __tagsym$$used             0x10001f04   Lc    4   --   De 
    105  __tagsym$$used             0x10001f18   Lc    4   --   De 
    106  __tagsym$$used             0x10001f2c   Lc    4   --   De 
    107  ..\src\deepsleep.c         0x00000000   Lc  Abs  File  De 
    108  ../src/deepsleep.c         0x00000000   Lc  Abs  File  De 
    109  i.main                     0x00019f98   Lc    1  Sect  De 
    110  .constdata                 0x0001a614   Lc    1  Sect  De   0x1e
    111  ui32I2sWordLength          0x0001a614   Lc    1  Data  De   0x18
    112  ..\..\..\..\..\..\utils\am_util_delay.c
                                    0x00000000   Lc  Abs  File  De 
    113  ../../../../../../utils/am_util_delay.c
                                    0x00000000   Lc  Abs  File  De 
    114  ../../../../../../utils/am_util_stdio.c
                                    0x00000000   Lc  Abs  File  De 
    115  i.am_util_stdio_printf     0x00019824   Lc    1  Sect  De 
    116  i.am_util_stdio_printf_init
                                    0x00019860   Lc    1  Sect  De 
    117  i.am_util_stdio_terminal_clear
                                    0x0001986c   Lc    1  Sect  De 
    118  i.am_util_stdio_vsprintf   0x0001988c   Lc    1  Sect  De 
    119  i.decstr_to_int            0x00019d10   Lc    1  Sect  De 
    120  decstr_to_int              0x00019d11   Lc    1  Code  De   0x42
    121  i.divu64_10                0x00019d52   Lc    1  Sect  De 
    122  divu64_10                  0x00019d53   Lc    1  Code  De   0xcc
    123  i.ftoa                     0x00019e20   Lc    1  Sect  De 
    124  ftoa                       0x00019e21   Lc    1  Code  De   0x172
    125  i.ndigits_in_hex           0x0001a028   Lc    1  Sect  De 
    126  ndigits_in_hex             0x0001a029   Lc    1  Code  De   0x34
    127  i.ndigits_in_i64           0x0001a05c   Lc    1  Sect  De 
    128  ndigits_in_i64             0x0001a05d   Lc    1  Code  De   0x24
    129  i.ndigits_in_u64           0x0001a080   Lc    1  Sect  De 
    130  ndigits_in_u64             0x0001a081   Lc    1  Code  De   0x3a
    131  i.padbuffer                0x0001a348   Lc    1  Sect  De 
    132  padbuffer                  0x0001a349   Lc    1  Code  De   0x22
    133  i.simple_strlen            0x0001a36a   Lc    1  Sect  De 
    134  simple_strlen              0x0001a36b   Lc    1  Code  De   0x18
    135  i.uint64_to_hexstr         0x0001a382   Lc    1  Sect  De 
    136  uint64_to_hexstr           0x0001a383   Lc    1  Code  De   0x8a
    137  i.uint64_to_str            0x0001a40c   Lc    1  Sect  De 
    138  uint64_to_str              0x0001a40d   Lc    1  Code  De   0x70
    139  .bss                       0x10000074   Lc    3  Sect  De   0x100
    140  g_prfbuf                   0x10000074   Lc    3  Data  De   0x100
    141  .data                      0x10000000   Lc    2  Sect  De   0x5
    142  g_bTxtXlate                0x10000004   Lc    2  Data  De   0x1
    143  ../keil/startup_keil.s     0x00000000   Lc  Abs  File  De 
    144  STACK                      0x100004b8   Lc    3  Sect  De   0x400
    145  StackMem                   0x100004b8   Lc    3  Data  De 
    146  HEAP                       0x100004b8   Lc    3  Sect  De 
    147  HeapMem                    0x100004b8   Lc    3  Data  De 
    148  RESET                      0x00018000   Lc    1  Sect  De   0x234
    149  $v0                        0x00018200   Lc    1   --   De 
    150  am_cryptosec_isr           0x0001822f   Lc    1  Code  De 
    151  am_default_isr             0x0001822f   Lc    1  Code  De   0x2
    152  .text                      0x000182ec   Lc    1  Sect  De   0x18
    153  $v0                        0x000182ec   Lc    1   --   De 
    154  ..\am_bsp.c                0x00000000   Lc  Abs  File  De 
    155  ../am_bsp.c                0x00000000   Lc  Abs  File  De 
    156  i.am_bsp_low_power_init    0x00018388   Lc    1  Sect  De 
    157  i.am_bsp_uart_printf_disable
                                    0x000183a0   Lc    1  Sect  De 
    158  i.am_bsp_uart_printf_enable
                                    0x000183ec   Lc    1  Sect  De 
    159  i.am_bsp_uart_string_print 0x00018458   Lc    1  Sect  De 
    160  .constdata                 0x0001a634   Lc    1  Sect  De   0x2c
    161  g_sBspUartConfig           0x0001a634   Lc    1  Data  De   0xc
    162  .data                      0x10000008   Lc    2  Sect  De   0x1a
    163  g_ePrintInterface          0x10000008   Lc    2  Data  De   0x1
    164  g_sCOMUART                 0x1000000c   Lc    2  Data  De   0x4
    165  ..\..\..\..\..\mcu\apollo4p\hal\mcu\am_hal_sysctrl.c
                                    0x00000000   Lc  Abs  File  De 
    166  ../../../../../mcu/apollo4p/hal/mcu/am_hal_sysctrl.c
                                    0x00000000   Lc  Abs  File  De 
    167  i.am_hal_sysctrl_sleep     0x000190ec   Lc    1  Sect  De 
    168  ..\..\..\..\..\mcu\apollo4p\hal\mcu\am_hal_utils.c
                                    0x00000000   Lc  Abs  File  De 
    169  ../../../../../mcu/apollo4p/hal/mcu/am_hal_utils.c
                                    0x00000000   Lc  Abs  File  De 
    170  i.am_hal_delay_us          0x000185bc   Lc    1  Sect  De 
    171  i.am_hal_delay_us_status_change
                                    0x000185e8   Lc    1  Sect  De 
    172  i.am_hal_delay_us_status_check
                                    0x00018640   Lc    1  Sect  De 
    173  ..\..\..\..\..\mcu\apollo4p\hal\am_hal_gpio.c
                                    0x00000000   Lc  Abs  File  De 
    174  ../../../../../mcu/apollo4p/hal/am_hal_gpio.c
                                    0x00000000   Lc  Abs  File  De 
    175  i.am_hal_gpio_pinconfig    0x000186a4   Lc    1  Sect  De 
    176  i.am_hal_gpio_state_write  0x000186f8   Lc    1  Sect  De 
    177  .constdata                 0x0001a660   Lc    1  Sect  De   0x4
    178  .constdata                 0x0001a664   Lc    1  Sect  De   0x4
    179  .constdata                 0x0001a668   Lc    1  Sect  De   0x10
    180  g_ui32DSpintbl             0x0001a668   Lc    1  Data  De   0x10
    181  ..\..\..\..\..\mcu\apollo4p\hal\am_hal_pwrctrl.c
                                    0x00000000   Lc  Abs  File  De 
    182  ../../../../../mcu/apollo4p/hal/am_hal_pwrctrl.c
                                    0x00000000   Lc  Abs  File  De 
    183  i.am_hal_pwrctrl_control   0x000187dc   Lc    1  Sect  De 
    184  i.am_hal_pwrctrl_dsp_memory_config
                                    0x00018a04   Lc    1  Sect  De 
    185  i.am_hal_pwrctrl_low_power_init
                                    0x00018b60   Lc    1  Sect  De 
    186  i.am_hal_pwrctrl_mcu_memory_config
                                    0x00018c8c   Lc    1  Sect  De 
    187  i.am_hal_pwrctrl_periph_disable
                                    0x00018da8   Lc    1  Sect  De 
    188  i.am_hal_pwrctrl_periph_enable
                                    0x00018ed4   Lc    1  Sect  De 
    189  i.am_hal_pwrctrl_sram_config
                                    0x00018f88   Lc    1  Sect  De 
    190  i.buck_ldo_update_override 0x00019c40   Lc    1  Sect  De 
    191  i.crypto_boost_trims       0x00019c60   Lc    1  Sect  De 
    192  .constdata                 0x0001a678   Lc    1  Sect  De   0x2a4
    193  g_VDDC_trimstbl            0x0001a8a4   Lc    1  Data  De   0x9
    194  g_VDDF_trimstbl            0x0001a8ad   Lc    1  Data  De   0x21
    195  g_VDDFLP_trimstbl          0x0001a8ce   Lc    1  Data  De   0x21
    196  g_memlpldo_trimstbl        0x0001a8ef   Lc    1  Data  De   0x2d
    197  .data                      0x10000024   Lc    2  Sect  De   0x40
    198  g_bOrigTrimsStored         0x10000025   Lc    2  Data  De   0x1
    199  g_bBoostForCryptoApplied   0x10000026   Lc    2  Data  De   0x1
    200  g_bTempcoValid             0x10000027   Lc    2  Data  De   0x1
    201  g_ui16TempcoTEMP_code      0x10000028   Lc    2  Data  De   0x2
    202  g_orig_ACTTRIMVDDF         0x10000034   Lc    2  Data  De   0x4
    203  g_orig_MEMLDOACTIVETRIM    0x10000038   Lc    2  Data  De   0x4
    204  g_orig_LPTRIMVDDF          0x1000003c   Lc    2  Data  De   0x4
    205  g_orig_MEMLPLDOTRIM        0x10000040   Lc    2  Data  De   0x4
    206  g_orig_TVRGVREFTRIM        0x10000044   Lc    2  Data  De   0x4
    207  g_orig_CORELDOACTIVETRIM   0x10000048   Lc    2  Data  De   0x4
    208  g_ui32VDDFAdjustCodes      0x1000004c   Lc    2  Data  De   0x4
    209  g_i32LatestVddfActTrim     0x10000050   Lc    2  Data  De   0x4
    210  g_i32LatestLDOActTrim      0x10000054   Lc    2  Data  De   0x4
    211  g_TempcoADCHandle          0x10000058   Lc    2  Data  De   0x4
    212  g_ui32TempcoADCslot        0x1000005c   Lc    2  Data  De   0x4
    213  g_pfTempMeasured           0x10000060   Lc    2  Data  De   0x4
    214  ..\am_bsp_pins.c           0x00000000   Lc  Abs  File  De 
    215  ../am_bsp_pins.c           0x00000000   Lc  Abs  File  De 
    216  .data                      0x10000064   Lc    2  Sect  De   0x4
    217  .data                      0x10000068   Lc    2  Sect  De   0x4
    218  ..\..\..\..\..\mcu\apollo4p\hal\mcu\am_hal_bootrom_helper.c
                                    0x00000000   Lc  Abs  File  De 
    219  ../../../../../mcu/apollo4p/hal/mcu/am_hal_bootrom_helper.c
                                    0x00000000   Lc  Abs  File  De 
    220  .constdata                 0x0001a91c   Lc    1  Sect  De   0x28
    221  ..\..\..\..\..\mcu\apollo4p\hal\mcu\am_hal_cachectrl.c
                                    0x00000000   Lc  Abs  File  De 
    222  ../../../../../mcu/apollo4p/hal/mcu/am_hal_cachectrl.c
                                    0x00000000   Lc  Abs  File  De 
    223  i.am_hal_daxi_config       0x000184a4   Lc    1  Sect  De 
    224  i.am_hal_daxi_control      0x0001853c   Lc    1  Sect  De 
    225  .constdata                 0x0001a944   Lc    1  Sect  De   0x5
    226  .data                      0x1000006c   Lc    2  Sect  De   0x5
    227  i.__ARM_common_memcpy4_5   0x0001837e   Lc    1  Sect  De 
    228  ..\..\..\..\..\mcu\apollo4p\hal\mcu\am_hal_interrupt.c
                                    0x00000000   Lc  Abs  File  De 
    229  .emb_text                  0x000182d4   Lc    1  Sect  De   0x16
    230  $v0                        0x000182d4   Lc    1   --   De 
    231  ../../../../../mcu/apollo4p/hal/mcu/am_hal_interrupt.c
                                    0x00000000   Lc  Abs  File  De 
    232  ..\..\..\..\..\mcu\apollo4p\hal\mcu\am_hal_itm.c
                                    0x00000000   Lc  Abs  File  De 
    233  ../../../../../mcu/apollo4p/hal/mcu/am_hal_itm.c
                                    0x00000000   Lc  Abs  File  De 
    234  ..\..\..\..\..\mcu\apollo4p\hal\mcu\am_hal_mram.c
                                    0x00000000   Lc  Abs  File  De 
    235  ../../../../../mcu/apollo4p/hal/mcu/am_hal_mram.c
                                    0x00000000   Lc  Abs  File  De 
    236  i.am_hal_mram_info_read    0x0001876c   Lc    1  Sect  De 
    237  ..\..\..\..\..\mcu\apollo4p\hal\mcu\am_hal_rtc.c
                                    0x00000000   Lc  Abs  File  De 
    238  ../../../../../mcu/apollo4p/hal/mcu/am_hal_rtc.c
                                    0x00000000   Lc  Abs  File  De 
    239  i.am_hal_rtc_osc_disable   0x000190d8   Lc    1  Sect  De 
    240  ..\..\..\..\..\mcu\apollo4p\hal\mcu\am_hal_tpiu.c
                                    0x00000000   Lc  Abs  File  De 
    241  ../../../../../mcu/apollo4p/hal/mcu/am_hal_tpiu.c
                                    0x00000000   Lc  Abs  File  De 
    242  ..\..\..\..\..\mcu\apollo4p\hal\mcu\am_hal_uart.c
                                    0x00000000   Lc  Abs  File  De 
    243  ../../../../../mcu/apollo4p/hal/mcu/am_hal_uart.c
                                    0x00000000   Lc  Abs  File  De 
    244  i.am_hal_uart_configure    0x000191d4   Lc    1  Sect  De 
    245  i.am_hal_uart_deinitialize 0x0001936c   Lc    1  Sect  De 
    246  i.am_hal_uart_initialize   0x0001939c   Lc    1  Sect  De 
    247  i.am_hal_uart_power_control
                                    0x0001941c   Lc    1  Sect  De 
    248  i.am_hal_uart_transfer     0x00019504   Lc    1  Sect  De 
    249  i.am_hal_uart_tx_flush     0x00019780   Lc    1  Sect  De 
    250  i.nonblocking_read_sm      0x0001a0ba   Lc    1  Sect  De 
    251  nonblocking_read_sm        0x0001a0bb   Lc    1  Code  De   0x134
    252  i.nonblocking_write_sm     0x0001a1ee   Lc    1  Sect  De 
    253  nonblocking_write_sm       0x0001a1ef   Lc    1  Code  De   0x15a
    254  .bss                       0x10000174   Lc    3  Sect  De   0x2e0
    255  ..\..\..\..\..\mcu\apollo4p\hal\am_hal_adc.c
                                    0x00000000   Lc  Abs  File  De 
    256  ../../../../../mcu/apollo4p/hal/am_hal_adc.c
                                    0x00000000   Lc  Abs  File  De 
    257  ..\..\..\..\..\mcu\apollo4p\hal\am_hal_dcu.c
                                    0x00000000   Lc  Abs  File  De 
    258  ../../../../../mcu/apollo4p/hal/am_hal_dcu.c
                                    0x00000000   Lc  Abs  File  De 
    259  ..\..\..\..\..\mcu\apollo4p\hal\am_hal_pin.c
                                    0x00000000   Lc  Abs  File  De 
    260  ../../../../../mcu/apollo4p/hal/am_hal_pin.c
                                    0x00000000   Lc  Abs  File  De 
    261  ..\..\..\..\..\mcu\apollo4p\hal\am_hal_queue.c
                                    0x00000000   Lc  Abs  File  De 
    262  ../../../../../mcu/apollo4p/hal/am_hal_queue.c
                                    0x00000000   Lc  Abs  File  De 
    263  i.am_hal_queue_item_add    0x00019030   Lc    1  Sect  De 
    264  i.am_hal_queue_item_get    0x00019086   Lc    1  Sect  De 
    265  dc.s                       0x00000000   Lc  Abs  File  De 
    266  ../clib/longlong.s         0x00000000   Lc  Abs  File  De 
    267  ../clib/longlong.s         0x00000000   Lc  Abs  File  De 
    268  ../clib/heapaux.c          0x00000000   Lc  Abs  File  De 
    269  .text                      0x00018304   Lc    1  Sect  De 
    270  ../clib/angel/startup.s    0x00000000   Lc  Abs  File  De 
    271  !!!main                    0x00018234   Lc    1  Sect  De   0x8
    272  ../clib/angel/handlers.s   0x00000000   Lc  Abs  File  De 
    273  !!handler_copy             0x00018270   Lc    1  Sect  De   0x1a
    274  ../fplib/d2f.s             0x00000000   Lc  Abs  File  De 
    275  x$fpl$d2f                  0x0001a47c   Lc    1  Sect  De   0x62
    276  $v0                        0x0001a47c   Lc    1   --   De 
    277  ../clib/angel/kernel.s     0x00000000   Lc  Abs  File  De 
    278  .ARM.Collect$$rtentry$$00000000
                                    0x000182b4   Lc    1  Sect  De 
    279  ../fplib/dnaninf.s         0x00000000   Lc  Abs  File  De 
    280  x$fpl$dnaninf              0x0001a4de   Lc    1  Sect  De   0x9c
    281  $v0                        0x0001a4de   Lc    1   --   De 
    282  ../fplib/fretinf.s         0x00000000   Lc  Abs  File  De 
    283  x$fpl$fretinf              0x0001a584   Lc    1  Sect  De   0xa
    284  $v0                        0x0001a584   Lc    1   --   De 
    285  ../fplib/usenofp.s         0x00000000   Lc  Abs  File  De 
    286  x$fpl$usenofp              0x0001a58e   Lc    1  Sect  De 
    287  ../clib/angel/kernel.s     0x00000000   Lc  Abs  File  De 
    288  .ARM.Collect$$rtentry$$00000002
                                    0x000182b4   Lc    1  Sect  De 
    289  .ARM.Collect$$rtentry$$00000009
                                    0x000182ba   Lc    1  Sect  De 
    290  .ARM.Collect$$rtentry$$0000000A
                                    0x000182ba   Lc    1  Sect  De   0x4
    291  .ARM.Collect$$rtentry$$0000000C
                                    0x000182be   Lc    1  Sect  De 
    292  .ARM.Collect$$rtentry$$0000000D
                                    0x000182be   Lc    1  Sect  De   0x8
    293  ../clib/angel/kernel.s     0x00000000   Lc  Abs  File  De 
    294  .ARM.Collect$$rtentry$$00000004
                                    0x000182b4   Lc    1  Sect  De   0x6
    295  ../clib/angel/sys.s        0x00000000   Lc  Abs  File  De 
    296  .text                      0x0001830a   Lc    1  Sect  De   0x4a
    297  ../clib/stdlib.c           0x00000000   Lc  Abs  File  De 
    298  .text                      0x00018354   Lc    1  Sect  De 
    299  ../clib/angel/boardlib.s   0x00000000   Lc  Abs  File  De 
    300  ../clib/angel/boardlib.s   0x00000000   Lc  Abs  File  De 
    301  ../clib/angel/boardlib.s   0x00000000   Lc  Abs  File  De 
    302  ../clib/libinit.s          0x00000000   Lc  Abs  File  De 
    303  .ARM.Collect$$libinit$$00000000
                                    0x000182a8   Lc    1  Sect  De   0x2
    304  ../clib/angel/sys.s        0x00000000   Lc  Abs  File  De 
    305  .text                      0x00018368   Lc    1  Sect  De   0x8
    306  .bss                       0x10000454   Lc    3  Sect  De   0x60
    307  ../clib/angel/kernel.s     0x00000000   Lc  Abs  File  De 
    308  .ARM.Collect$$rtexit$$00000000
                                    0x000182c6   Lc    1  Sect  De   0x2
    309  ../clib/libinit.s          0x00000000   Lc  Abs  File  De 
    310  .ARM.Collect$$libinit$$00000001
                                    0x000182aa   Lc    1  Sect  De   0x4
    311  .ARM.Collect$$libinit$$00000004
                                    0x000182ae   Lc    1  Sect  De 
    312  .ARM.Collect$$libinit$$0000000A
                                    0x000182ae   Lc    1  Sect  De 
    313  .ARM.Collect$$libinit$$0000000C
                                    0x000182ae   Lc    1  Sect  De 
    314  .ARM.Collect$$libinit$$0000000E
                                    0x000182ae   Lc    1  Sect  De 
    315  .ARM.Collect$$libinit$$00000011
                                    0x000182ae   Lc    1  Sect  De 
    316  .ARM.Collect$$libinit$$00000013
                                    0x000182ae   Lc    1  Sect  De 
    317  .ARM.Collect$$libinit$$00000015
                                    0x000182ae   Lc    1  Sect  De 
    318  .ARM.Collect$$libinit$$00000017
                                    0x000182ae   Lc    1  Sect  De 
    319  .ARM.Collect$$libinit$$00000019
                                    0x000182ae   Lc    1  Sect  De 
    320  .ARM.Collect$$libinit$$0000001B
                                    0x000182ae   Lc    1  Sect  De 
    321  .ARM.Collect$$libinit$$0000001D
                                    0x000182ae   Lc    1  Sect  De 
    322  .ARM.Collect$$libinit$$0000001F
                                    0x000182ae   Lc    1  Sect  De 
    323  .ARM.Collect$$libinit$$00000021
                                    0x000182ae   Lc    1  Sect  De 
    324  .ARM.Collect$$libinit$$00000023
                                    0x000182ae   Lc    1  Sect  De 
    325  .ARM.Collect$$libinit$$00000025
                                    0x000182ae   Lc    1  Sect  De 
    326  .ARM.Collect$$libinit$$0000002C
                                    0x000182ae   Lc    1  Sect  De 
    327  .ARM.Collect$$libinit$$0000002E
                                    0x000182ae   Lc    1  Sect  De 
    328  .ARM.Collect$$libinit$$00000030
                                    0x000182ae   Lc    1  Sect  De 
    329  .ARM.Collect$$libinit$$00000032
                                    0x000182ae   Lc    1  Sect  De 
    330  .ARM.Collect$$libinit$$00000033
                                    0x000182ae   Lc    1  Sect  De   0x2
    331  ../clib/angel/kernel.s     0x00000000   Lc  Abs  File  De 
    332  .ARM.Collect$$rtexit$$00000002
                                    0x000182c8   Lc    1  Sect  De 
    333  .ARM.Collect$$rtexit$$00000003
                                    0x000182c8   Lc    1  Sect  De   0x4
    334  .ARM.Collect$$rtexit$$00000004
                                    0x000182cc   Lc    1  Sect  De   0x6
    335  ../clib/armsys.c           0x00000000   Lc  Abs  File  De 
    336  ../clib/armsys.c           0x00000000   Lc  Abs  File  De 
    337  ../fplib/fpinit.s          0x00000000   Lc  Abs  File  De 
    338  x$fpl$fpinit               0x0001a57a   Lc    1  Sect  De   0xa
    339  $v0                        0x0001a57a   Lc    1   --   De 
    340  ../clib/angel/sysapp.c     0x00000000   Lc  Abs  File  De 
    341  .text                      0x00018370   Lc    1  Sect  De 
    342  ../clib/angel/boardlib.s   0x00000000   Lc  Abs  File  De 
    343  ../clib/armsys.c           0x00000000   Lc  Abs  File  De 
    344  ../clib/armsys.c           0x00000000   Lc  Abs  File  De 
    345  ../clib/libinit.s          0x00000000   Lc  Abs  File  De 
    346  .ARM.Collect$$libshutdown$$00000000
                                    0x000182b0   Lc    1  Sect  De   0x2
    347  ../clib/angel/sysapp.c     0x00000000   Lc  Abs  File  De 
    348  ../clib/angel/sys.s        0x00000000   Lc  Abs  File  De 
    349  .text                      0x0001837c   Lc    1  Sect  De   0x2
    350  ../clib/angel/sys.s        0x00000000   Lc  Abs  File  De 
    351  .text                      0x0001837e   Lc    1  Sect  De 
    352  ../clib/heapalloc.c        0x00000000   Lc  Abs  File  De 
    353  ../clib/signal.c           0x00000000   Lc  Abs  File  De 
    354  ../clib/signal.c           0x00000000   Lc  Abs  File  De 
    355  ../clib/libinit.s          0x00000000   Lc  Abs  File  De 
    356  .ARM.Collect$$libshutdown$$00000002
                                    0x000182b2   Lc    1  Sect  De 
    357  .ARM.Collect$$libshutdown$$00000004
                                    0x000182b2   Lc    1  Sect  De 
    358  .ARM.Collect$$libshutdown$$00000007
                                    0x000182b2   Lc    1  Sect  De 
    359  .ARM.Collect$$libshutdown$$0000000A
                                    0x000182b2   Lc    1  Sect  De 
    360  .ARM.Collect$$libshutdown$$0000000C
                                    0x000182b2   Lc    1  Sect  De 
    361  .ARM.Collect$$libshutdown$$0000000F
                                    0x000182b2   Lc    1  Sect  De 
    362  .ARM.Collect$$libshutdown$$00000010
                                    0x000182b2   Lc    1  Sect  De   0x2
    363  ../clib/angel/rt.s         0x00000000   Lc  Abs  File  De 
    364  ../clib/signal.c           0x00000000   Lc  Abs  File  De 
    365  ../clib/signal.c           0x00000000   Lc  Abs  File  De 
    366  ../clib/signal.c           0x00000000   Lc  Abs  File  De 
    367  ../clib/signal.c           0x00000000   Lc  Abs  File  De 
    368  ../clib/angel/sysapp.c     0x00000000   Lc  Abs  File  De 
    369  ../clib/signal.s           0x00000000   Lc  Abs  File  De 
    370  ../clib/signal.c           0x00000000   Lc  Abs  File  De 
    371  ../clib/signal.c           0x00000000   Lc  Abs  File  De 
    372  ../clib/signal.c           0x00000000   Lc  Abs  File  De 
    373  ../clib/signal.c           0x00000000   Lc  Abs  File  De 
    374  ../clib/signal.c           0x00000000   Lc  Abs  File  De 
    375  ../clib/signal.c           0x00000000   Lc  Abs  File  De 
    376  ../clib/signal.c           0x00000000   Lc  Abs  File  De 
    377  ../clib/signal.c           0x00000000   Lc  Abs  File  De 
    378  ../clib/angel/scatter.s    0x00000000   Lc  Abs  File  De 
    379  !!!scatter                 0x0001823c   Lc    1  Sect  De   0x34
    380  ../clib/angel/handlers.s   0x00000000   Lc  Abs  File  De 
    381  !!handler_zi               0x0001828c   Lc    1  Sect  De   0x1c
    382  BuildAttributes$$THM_ISAv4$E$P$D$K$B$S$7EM$VFPi3$EXTD16$VFPS$VFMA$PE$A:L22UL41UL21$X:L11$S22US41US21$IEEE1$IW$USESV6$~STKCKD$USESV7$~SHL$OTIME$ROPI$EBA8$UX$STANDARDLIB$REQ8$PRES8$EABIv2
                                    0x00000000   Gb  Abs   --   Hi 
    383  __ARM_use_no_argv          0x00000000   Gb  Abs   --   Hi 
    384  __Vectors                  0x00018000   Gb    1  Data  Hi 
    385  __Patchable                0x00018190   Gb    1  Data  Hi 
    386  Reset_Handler              0x00018201   Wk    1  Code  Hi   0x1c
    387  HardFault_Handler          0x0001821d   Wk    1  Code  Hi   0x2
    388  NMI_Handler                0x0001821f   Wk    1  Code  Hi   0x2
    389  MemManage_Handler          0x00018221   Wk    1  Code  Hi   0x2
    390  BusFault_Handler           0x00018223   Wk    1  Code  Hi   0x2
    391  UsageFault_Handler         0x00018225   Wk    1  Code  Hi   0x2
    392  SVC_Handler                0x00018227   Wk    1  Code  Hi   0x2
    393  DebugMon_Handler           0x00018229   Wk    1  Code  Hi   0x2
    394  PendSV_Handler             0x0001822b   Wk    1  Code  Hi   0x2
    395  SysTick_Handler            0x0001822d   Wk    1  Code  Hi   0x2
    396  am_adc_isr                 0x0001822f   Wk    1  Code  Hi 
    397  am_audadc0_isr             0x0001822f   Wk    1  Code  Hi 
    398  am_brownout_isr            0x0001822f   Wk    1  Code  Hi 
    399  am_cachecpu_isr            0x0001822f   Wk    1  Code  Hi 
    400  am_clkgen_isr              0x0001822f   Wk    1  Code  Hi 
    401  am_ctimer_isr              0x0001822f   Wk    1  Code  Hi 
    402  am_disp_isr                0x0001822f   Wk    1  Code  Hi 
    403  am_dsi_isr                 0x0001822f   Wk    1  Code  Hi 
    404  am_dspi2s0_isr             0x0001822f   Wk    1  Code  Hi 
    405  am_dspi2s1_isr             0x0001822f   Wk    1  Code  Hi 
    406  am_dspi2s2_isr             0x0001822f   Wk    1  Code  Hi 
    407  am_dspi2s3_isr             0x0001822f   Wk    1  Code  Hi 
    408  am_gpio0_001f_isr          0x0001822f   Wk    1  Code  Hi 
    409  am_gpio0_203f_isr          0x0001822f   Wk    1  Code  Hi 
    410  am_gpio0_405f_isr          0x0001822f   Wk    1  Code  Hi 
    411  am_gpio0_607f_isr          0x0001822f   Wk    1  Code  Hi 
    412  am_gpio1_001f_isr          0x0001822f   Wk    1  Code  Hi 
    413  am_gpio1_203f_isr          0x0001822f   Wk    1  Code  Hi 
    414  am_gpio1_405f_isr          0x0001822f   Wk    1  Code  Hi 
    415  am_gpio1_607f_isr          0x0001822f   Wk    1  Code  Hi 
    416  am_gpu_isr                 0x0001822f   Wk    1  Code  Hi 
    417  am_iomaster0_isr           0x0001822f   Wk    1  Code  Hi 
    418  am_iomaster1_isr           0x0001822f   Wk    1  Code  Hi 
    419  am_iomaster2_isr           0x0001822f   Wk    1  Code  Hi 
    420  am_iomaster3_isr           0x0001822f   Wk    1  Code  Hi 
    421  am_iomaster4_isr           0x0001822f   Wk    1  Code  Hi 
    422  am_iomaster5_isr           0x0001822f   Wk    1  Code  Hi 
    423  am_iomaster6_isr           0x0001822f   Wk    1  Code  Hi 
    424  am_iomaster7_isr           0x0001822f   Wk    1  Code  Hi 
    425  am_ioslave_acc_isr         0x0001822f   Wk    1  Code  Hi 
    426  am_ioslave_ios_isr         0x0001822f   Wk    1  Code  Hi 
    427  am_mspi0_isr               0x0001822f   Wk    1  Code  Hi 
    428  am_mspi1_isr               0x0001822f   Wk    1  Code  Hi 
    429  am_mspi2_isr               0x0001822f   Wk    1  Code  Hi 
    430  am_pdm0_isr                0x0001822f   Wk    1  Code  Hi 
    431  am_pdm1_isr                0x0001822f   Wk    1  Code  Hi 
    432  am_pdm2_isr                0x0001822f   Wk    1  Code  Hi 
    433  am_pdm3_isr                0x0001822f   Wk    1  Code  Hi 
    434  am_rtc_isr                 0x0001822f   Wk    1  Code  Hi 
    435  am_sdio_isr                0x0001822f   Wk    1  Code  Hi 
    436  am_stimer_cmpr0_isr        0x0001822f   Wk    1  Code  Hi 
    437  am_stimer_cmpr1_isr        0x0001822f   Wk    1  Code  Hi 
    438  am_stimer_cmpr2_isr        0x0001822f   Wk    1  Code  Hi 
    439  am_stimer_cmpr3_isr        0x0001822f   Wk    1  Code  Hi 
    440  am_stimer_cmpr4_isr        0x0001822f   Wk    1  Code  Hi 
    441  am_stimer_cmpr5_isr        0x0001822f   Wk    1  Code  Hi 
    442  am_stimer_cmpr6_isr        0x0001822f   Wk    1  Code  Hi 
    443  am_stimer_cmpr7_isr        0x0001822f   Wk    1  Code  Hi 
    444  am_stimerof_isr            0x0001822f   Wk    1  Code  Hi 
    445  am_timer00_isr             0x0001822f   Wk    1  Code  Hi 
    446  am_timer01_isr             0x0001822f   Wk    1  Code  Hi 
    447  am_timer02_isr             0x0001822f   Wk    1  Code  Hi 
    448  am_timer03_isr             0x0001822f   Wk    1  Code  Hi 
    449  am_timer04_isr             0x0001822f   Wk    1  Code  Hi 
    450  am_timer05_isr             0x0001822f   Wk    1  Code  Hi 
    451  am_timer06_isr             0x0001822f   Wk    1  Code  Hi 
    452  am_timer07_isr             0x0001822f   Wk    1  Code  Hi 
    453  am_timer08_isr             0x0001822f   Wk    1  Code  Hi 
    454  am_timer09_isr             0x0001822f   Wk    1  Code  Hi 
    455  am_timer10_isr             0x0001822f   Wk    1  Code  Hi 
    456  am_timer11_isr             0x0001822f   Wk    1  Code  Hi 
    457  am_timer12_isr             0x0001822f   Wk    1  Code  Hi 
    458  am_timer13_isr             0x0001822f   Wk    1  Code  Hi 
    459  am_timer14_isr             0x0001822f   Wk    1  Code  Hi 
    460  am_timer15_isr             0x0001822f   Wk    1  Code  Hi 
    461  am_uart1_isr               0x0001822f   Wk    1  Code  Hi 
    462  am_uart2_isr               0x0001822f   Wk    1  Code  Hi 
    463  am_uart3_isr               0x0001822f   Wk    1  Code  Hi 
    464  am_uart_isr                0x0001822f   Wk    1  Code  Hi 
    465  am_usb_isr                 0x0001822f   Wk    1  Code  Hi 
    466  am_vcomp_isr               0x0001822f   Wk    1  Code  Hi 
    467  am_watchdog_isr            0x0001822f   Wk    1  Code  Hi 
    468  __main                     0x00018235   Gb    1  Code  Hi   0x8
    469  __scatterload              0x0001823d   Gb    1  Code  Hi 
    470  __scatterload_rt2          0x0001823d   Gb    1  Code  Hi   0x2c
    471  __scatterload_rt2_thumb_only
                                    0x0001823d   Gb    1  Code  Hi 
    472  __scatterload_null         0x0001824b   Gb    1  Code  Hi 
    473  __scatterload_copy         0x00018271   Gb    1  Code  Hi   0x1a
    474  __scatterload_zeroinit     0x0001828d   Gb    1  Code  Hi   0x1c
    475  __rt_lib_init              0x000182a9   Gb    1  Code  De 
    476  __rt_lib_init_fp_1         0x000182ab   Gb    1  Code  Hi 
    477  __rt_lib_init_alloca_1     0x000182af   Gb    1  Code  Hi 
    478  __rt_lib_init_argv_1       0x000182af   Gb    1  Code  Hi 
    479  __rt_lib_init_atexit_1     0x000182af   Gb    1  Code  Hi 
    480  __rt_lib_init_clock_1      0x000182af   Gb    1  Code  Hi 
    481  __rt_lib_init_cpp_1        0x000182af   Gb    1  Code  Hi 
    482  __rt_lib_init_exceptions_1 0x000182af   Gb    1  Code  Hi 
    483  __rt_lib_init_fp_trap_1    0x000182af   Gb    1  Code  Hi 
    484  __rt_lib_init_getenv_1     0x000182af   Gb    1  Code  Hi 
    485  __rt_lib_init_heap_1       0x000182af   Gb    1  Code  Hi 
    486  __rt_lib_init_lc_collate_1 0x000182af   Gb    1  Code  Hi 
    487  __rt_lib_init_lc_ctype_1   0x000182af   Gb    1  Code  Hi 
    488  __rt_lib_init_lc_monetary_1
                                    0x000182af   Gb    1  Code  Hi 
    489  __rt_lib_init_lc_numeric_1 0x000182af   Gb    1  Code  Hi 
    490  __rt_lib_init_lc_time_1    0x000182af   Gb    1  Code  Hi 
    491  __rt_lib_init_preinit_1    0x000182af   Gb    1  Code  Hi 
    492  __rt_lib_init_rand_1       0x000182af   Gb    1  Code  Hi 
    493  __rt_lib_init_return       0x000182af   Gb    1  Code  Hi 
    494  __rt_lib_init_signal_1     0x000182af   Gb    1  Code  Hi 
    495  __rt_lib_init_stdio_1      0x000182af   Gb    1  Code  Hi 
    496  __rt_lib_init_user_alloc_1 0x000182af   Gb    1  Code  Hi 
    497  __rt_lib_shutdown          0x000182b1   Gb    1  Code  De 
    498  __rt_lib_shutdown_cpp_1    0x000182b3   Gb    1  Code  Hi 
    499  __rt_lib_shutdown_fp_trap_1
                                    0x000182b3   Gb    1  Code  Hi 
    500  __rt_lib_shutdown_heap_1   0x000182b3   Gb    1  Code  Hi 
    501  __rt_lib_shutdown_return   0x000182b3   Gb    1  Code  Hi 
    502  __rt_lib_shutdown_signal_1 0x000182b3   Gb    1  Code  Hi 
    503  __rt_lib_shutdown_stdio_1  0x000182b3   Gb    1  Code  Hi 
    504  __rt_lib_shutdown_user_alloc_1
                                    0x000182b3   Gb    1  Code  Hi 
    505  __rt_entry                 0x000182b5   Gb    1  Code  Hi 
    506  __rt_entry_presh_1         0x000182b5   Gb    1  Code  Hi 
    507  __rt_entry_sh              0x000182b5   Gb    1  Code  Hi 
    508  __rt_entry_li              0x000182bb   Gb    1  Code  Hi 
    509  __rt_entry_postsh_1        0x000182bb   Gb    1  Code  Hi 
    510  __rt_entry_main            0x000182bf   Gb    1  Code  Hi 
    511  __rt_entry_postli_1        0x000182bf   Gb    1  Code  Hi 
    512  __rt_exit                  0x000182c7   Gb    1  Code  De 
    513  __rt_exit_ls               0x000182c9   Gb    1  Code  Hi 
    514  __rt_exit_prels_1          0x000182c9   Gb    1  Code  Hi 
    515  __rt_exit_exit             0x000182cd   Gb    1  Code  Hi 
    516  am_hal_interrupt_master_enable
                                    0x000182d5   Gb    1  Code  Hi   0x8
    517  am_hal_interrupt_master_disable
                                    0x000182dd   Gb    1  Code  Hi   0x8
    518  am_hal_interrupt_master_set
                                    0x000182e5   Gb    1  Code  Hi   0x6
    519  __user_initial_stackheap   0x000182ed   Gb    1  Code  Hi   0xa
    520  __use_two_region_memory    0x00018305   Gb    1  Code  Hi   0x2
    521  __rt_heap_escrow$2region   0x00018307   Gb    1  Code  De   0x2
    522  __rt_heap_expand$2region   0x00018309   Gb    1  Code  De   0x2
    523  __user_setup_stackheap     0x0001830b   Gb    1  Code  De   0x4a
    524  exit                       0x00018355   Gb    1  Code  De   0x12
    525  __user_libspace            0x00018369   Wk    1  Code  De   0x8
    526  __user_perproc_libspace    0x00018369   Wk    1  Code  De 
    527  __user_perthread_libspace  0x00018369   Wk    1  Code  De 
    528  _sys_exit                  0x00018371   Gb    1  Code  De   0x8
    529  __I$use$semihosting        0x0001837d   Gb    1  Code  Hi 
    530  __use_no_semihosting_swi   0x0001837d   Gb    1  Code  Hi   0x2
    531  __ARM_common_memcpy4_5     0x0001837f   Gb    1  Code  Hi   0xa
    532  __semihosting_library_function
                                    0x0001837f   Gb    1  Code  Hi 
    533  am_bsp_low_power_init      0x00018389   Gb    1  Code  Hi   0x16
    534  am_bsp_uart_printf_disable 0x000183a1   Gb    1  Code  Hi   0x44
    535  am_bsp_uart_printf_enable  0x000183ed   Gb    1  Code  Hi   0x54
    536  am_bsp_uart_string_print   0x00018459   Gb    1  Code  Hi   0x42
    537  am_hal_daxi_config         0x000184a5   Gb    1  Code  Hi   0x90
    538  am_hal_daxi_control        0x0001853d   Gb    1  Code  Hi   0x76
    539  am_hal_delay_us            0x000185bd   Gb    1  Code  Hi   0x22
    540  am_hal_delay_us_status_change
                                    0x000185e9   Gb    1  Code  Hi   0x50
    541  am_hal_delay_us_status_check
                                    0x00018641   Gb    1  Code  Hi   0x5c
    542  am_hal_gpio_pinconfig      0x000186a5   Gb    1  Code  Hi   0x4c
    543  am_hal_gpio_state_write    0x000186f9   Gb    1  Code  Hi   0x72
    544  am_hal_mram_info_read      0x0001876d   Gb    1  Code  Hi   0x6c
    545  am_hal_pwrctrl_control     0x000187dd   Gb    1  Code  Hi   0x214
    546  am_hal_pwrctrl_dsp_memory_config
                                    0x00018a05   Gb    1  Code  Hi   0x14e
    547  am_hal_pwrctrl_low_power_init
                                    0x00018b61   Gb    1  Code  Hi   0x110
    548  am_hal_pwrctrl_mcu_memory_config
                                    0x00018c8d   Gb    1  Code  Hi   0x114
    549  am_hal_pwrctrl_periph_disable
                                    0x00018da9   Gb    1  Code  Hi   0x112
    550  am_hal_pwrctrl_periph_enable
                                    0x00018ed5   Gb    1  Code  Hi   0xa6
    551  am_hal_pwrctrl_sram_config 0x00018f89   Gb    1  Code  Hi   0x9e
    552  am_hal_queue_item_add      0x00019031   Gb    1  Code  Hi   0x56
    553  am_hal_queue_item_get      0x00019087   Gb    1  Code  Hi   0x52
    554  am_hal_rtc_osc_disable     0x000190d9   Gb    1  Code  Hi   0xe
    555  am_hal_sysctrl_sleep       0x000190ed   Gb    1  Code  Hi   0xd2
    556  am_hal_uart_configure      0x000191d5   Gb    1  Code  Hi   0x174
    557  am_hal_uart_deinitialize   0x0001936d   Gb    1  Code  Hi   0x2a
    558  am_hal_uart_initialize     0x0001939d   Gb    1  Code  Hi   0x78
    559  am_hal_uart_power_control  0x0001941d   Gb    1  Code  Hi   0xe2
    560  am_hal_uart_transfer       0x00019505   Gb    1  Code  Hi   0x272
    561  am_hal_uart_tx_flush       0x00019781   Gb    1  Code  Hi   0x9e
    562  am_util_stdio_printf       0x00019825   Gb    1  Code  Hi   0x32
    563  am_util_stdio_printf_init  0x00019861   Gb    1  Code  Hi   0x6
    564  am_util_stdio_terminal_clear
                                    0x0001986d   Gb    1  Code  Hi   0xa
    565  am_util_stdio_vsprintf     0x0001988d   Gb    1  Code  Hi   0x3a4
    566  buck_ldo_update_override   0x00019c41   Gb    1  Code  Hi   0x1c
    567  crypto_boost_trims         0x00019c61   Gb    1  Code  Hi   0xa6
    568  main                       0x00019f99   Gb    1  Code  Hi   0x74
    569  __aeabi_d2f                0x0001a47d   Gb    1  Code  Hi 
    570  _d2f                       0x0001a47d   Gb    1  Code  De   0x62
    571  __fpl_dnaninf              0x0001a4df   Gb    1  Code  De   0x9c
    572  _fp_init                   0x0001a57b   Gb    1  Code  De   0xa
    573  __fplib_config_fpu_vfp     0x0001a583   Gb    1  Code  De 
    574  __fplib_config_pureend_doubles
                                    0x0001a583   Gb    1  Code  De 
    575  __fpl_fretinf              0x0001a585   Gb    1  Code  De   0xa
    576  __I$use$fp                 0x0001a58e   Gb    1   --   De 
    577  ui32MCUAllowed             0x0001a5a8   Gb    1  Data  Hi   0x14
    578  ui32DSP0Allowed            0x0001a5bc   Gb    1  Data  Hi   0x14
    579  ui32DSP1Allowed            0x0001a5d0   Gb    1  Data  Hi   0x14
    580  ui32SharedAccess           0x0001a5e4   Gb    1  Data  Hi   0x14
    581  sGlobalAccess              0x0001a5f8   Gb    1  Data  Hi   0x1c
    582  am_hal_gpio_pincfg_output  0x0001a660   Gb    1  Data  Hi   0x4
    583  am_hal_gpio_pincfg_disabled
                                    0x0001a664   Gb    1  Data  Hi   0x4
    584  g_DefaultMcuMemCfg         0x0001a678   Gb    1  Data  Hi   0x6
    585  g_DefaultSRAMCfg           0x0001a67e   Gb    1  Data  Hi   0x6
    586  am_hal_pwrctrl_peripheral_control
                                    0x0001a684   Gb    1  Data  Hi   0x220
    587  g_am_hal_bootrom_helper    0x0001a91c   Gb    1  Data  Hi   0x28
    588  am_hal_daxi_defaults       0x0001a944   Gb    1  Data  Hi   0x5
    589  Region$$Table$$Base        0x0001a94c   Gb    1   --   Hi 
    590  Region$$Table$$Limit       0x0001a97c   Gb    1   --   Hi 
    591  g_pfnCharPrint             0x10000000   Gb    2  Data  Hi   0x4
    592  g_sDispCfg                 0x10000010   Gb    2  Data  Hi   0x12
    593  g_eCurrPwrMode             0x10000024   Gb    2  Data  Hi   0x1
    594  g_ui32TrimVer              0x1000002c   Gb    2  Data  Hi   0x4
    595  g_ui32origSimobuckVDDStrim 0x10000030   Gb    2  Data  Hi   0x4
    596  g_AM_BSP_GPIO_COM_UART_TX  0x10000064   Gb    2  Data  Hi   0x4
    597  g_AM_BSP_GPIO_COM_UART_RX  0x10000068   Gb    2  Data  Hi   0x4
    598  gDaxiConfig                0x1000006c   Gb    2  Data  Hi   0x5
    599  g_am_hal_uart_states       0x10000174   Gb    3  Data  Hi   0x2e0
    600  __libspace_start           0x10000454   Gb    3  Data  De   0x60
    601  __temporary_stack_top$libspace
                                    0x100004b4   Gb    3  Data  De 
    602  psGlobalAccessPtr          0x10001f00   Gb    4  Data  Hi   0x4
    603  ui32MCUClaimed             0x10001f04   Gb    4  Data  Hi   0x14
    604  ui32DSP0Claimed            0x10001f18   Gb    4  Data  Hi   0x14
    605  ui32DSP1Claimed            0x10001f2c   Gb    4  Data  Hi   0x14


** Section #13 '.strtab' (SHT_STRTAB)
    Size   : 10192 bytes

            #  Offset String
        ====================================

            1      1: $d
            2      4: $t
            3      7: $d.realdata
            4     19: ..\src\am_resources.c
            5     41: ../src/am_resources.c
            6     63: .constdata
            7     74: ui32I2sWordLength
            8     92: __tagsym$$used
            9    107: RESOURCE_TABLE
           10    122: SHARED_RW
           11    132: ..\src\deepsleep.c
           12    151: ../src/deepsleep.c
           13    170: i.main
           14    177: ..\..\..\..\..\..\utils\am_util_delay.c
           15    217: ../../../../../../utils/am_util_delay.c
           16    257: ../../../../../../utils/am_util_stdio.c
           17    297: i.am_util_stdio_printf
           18    320: i.am_util_stdio_printf_init
           19    348: i.am_util_stdio_terminal_clear
           20    379: i.am_util_stdio_vsprintf
           21    404: i.decstr_to_int
           22    420: decstr_to_int
           23    434: i.divu64_10
           24    446: divu64_10
           25    456: i.ftoa
           26    463: ftoa
           27    468: i.ndigits_in_hex
           28    485: ndigits_in_hex
           29    500: i.ndigits_in_i64
           30    517: ndigits_in_i64
           31    532: i.ndigits_in_u64
           32    549: ndigits_in_u64
           33    564: i.padbuffer
           34    576: padbuffer
           35    586: i.simple_strlen
           36    602: simple_strlen
           37    616: i.uint64_to_hexstr
           38    635: uint64_to_hexstr
           39    652: i.uint64_to_str
           40    668: uint64_to_str
           41    682: .bss
           42    687: g_prfbuf
           43    696: .data
           44    702: g_bTxtXlate
           45    714: ../keil/startup_keil.s
           46    737: STACK
           47    743: StackMem
           48    752: HEAP
           49    757: HeapMem
           50    765: RESET
           51    771: $v0
           52    775: am_cryptosec_isr
           53    792: am_default_isr
           54    807: .text
           55    813: ..\am_bsp.c
           56    825: ../am_bsp.c
           57    837: i.am_bsp_low_power_init
           58    861: i.am_bsp_uart_printf_disable
           59    890: i.am_bsp_uart_printf_enable
           60    918: i.am_bsp_uart_string_print
           61    945: g_sBspUartConfig
           62    962: g_ePrintInterface
           63    980: g_sCOMUART
           64    991: ..\..\..\..\..\mcu\apollo4p\hal\mcu\am_hal_sysctrl.c
           65   1044: ../../../../../mcu/apollo4p/hal/mcu/am_hal_sysctrl.c
           66   1097: i.am_hal_sysctrl_sleep
           67   1120: ..\..\..\..\..\mcu\apollo4p\hal\mcu\am_hal_utils.c
           68   1171: ../../../../../mcu/apollo4p/hal/mcu/am_hal_utils.c
           69   1222: i.am_hal_delay_us
           70   1240: i.am_hal_delay_us_status_change
           71   1272: i.am_hal_delay_us_status_check
           72   1303: ..\..\..\..\..\mcu\apollo4p\hal\am_hal_gpio.c
           73   1349: ../../../../../mcu/apollo4p/hal/am_hal_gpio.c
           74   1395: i.am_hal_gpio_pinconfig
           75   1419: i.am_hal_gpio_state_write
           76   1445: g_ui32DSpintbl
           77   1460: ..\..\..\..\..\mcu\apollo4p\hal\am_hal_pwrctrl.c
           78   1509: ../../../../../mcu/apollo4p/hal/am_hal_pwrctrl.c
           79   1558: i.am_hal_pwrctrl_control
           80   1583: i.am_hal_pwrctrl_dsp_memory_config
           81   1618: i.am_hal_pwrctrl_low_power_init
           82   1650: i.am_hal_pwrctrl_mcu_memory_config
           83   1685: i.am_hal_pwrctrl_periph_disable
           84   1717: i.am_hal_pwrctrl_periph_enable
           85   1748: i.am_hal_pwrctrl_sram_config
           86   1777: i.buck_ldo_update_override
           87   1804: i.crypto_boost_trims
           88   1825: g_VDDC_trimstbl
           89   1841: g_VDDF_trimstbl
           90   1857: g_VDDFLP_trimstbl
           91   1875: g_memlpldo_trimstbl
           92   1895: g_bOrigTrimsStored
           93   1914: g_bBoostForCryptoApplied
           94   1939: g_bTempcoValid
           95   1954: g_ui16TempcoTEMP_code
           96   1976: g_orig_ACTTRIMVDDF
           97   1995: g_orig_MEMLDOACTIVETRIM
           98   2019: g_orig_LPTRIMVDDF
           99   2037: g_orig_MEMLPLDOTRIM
          100   2057: g_orig_TVRGVREFTRIM
          101   2077: g_orig_CORELDOACTIVETRIM
          102   2102: g_ui32VDDFAdjustCodes
          103   2124: g_i32LatestVddfActTrim
          104   2147: g_i32LatestLDOActTrim
          105   2169: g_TempcoADCHandle
          106   2187: g_ui32TempcoADCslot
          107   2207: g_pfTempMeasured
          108   2224: ..\am_bsp_pins.c
          109   2241: ../am_bsp_pins.c
          110   2258: ..\..\..\..\..\mcu\apollo4p\hal\mcu\am_hal_bootrom_helper.c
          111   2318: ../../../../../mcu/apollo4p/hal/mcu/am_hal_bootrom_helper.c
          112   2378: ..\..\..\..\..\mcu\apollo4p\hal\mcu\am_hal_cachectrl.c
          113   2433: ../../../../../mcu/apollo4p/hal/mcu/am_hal_cachectrl.c
          114   2488: i.am_hal_daxi_config
          115   2509: i.am_hal_daxi_control
          116   2531: i.__ARM_common_memcpy4_5
          117   2556: ..\..\..\..\..\mcu\apollo4p\hal\mcu\am_hal_interrupt.c
          118   2611: .emb_text
          119   2621: ../../../../../mcu/apollo4p/hal/mcu/am_hal_interrupt.c
          120   2676: ..\..\..\..\..\mcu\apollo4p\hal\mcu\am_hal_itm.c
          121   2725: ../../../../../mcu/apollo4p/hal/mcu/am_hal_itm.c
          122   2774: ..\..\..\..\..\mcu\apollo4p\hal\mcu\am_hal_mram.c
          123   2824: ../../../../../mcu/apollo4p/hal/mcu/am_hal_mram.c
          124   2874: i.am_hal_mram_info_read
          125   2898: ..\..\..\..\..\mcu\apollo4p\hal\mcu\am_hal_rtc.c
          126   2947: ../../../../../mcu/apollo4p/hal/mcu/am_hal_rtc.c
          127   2996: i.am_hal_rtc_osc_disable
          128   3021: ..\..\..\..\..\mcu\apollo4p\hal\mcu\am_hal_tpiu.c
          129   3071: ../../../../../mcu/apollo4p/hal/mcu/am_hal_tpiu.c
          130   3121: ..\..\..\..\..\mcu\apollo4p\hal\mcu\am_hal_uart.c
          131   3171: ../../../../../mcu/apollo4p/hal/mcu/am_hal_uart.c
          132   3221: i.am_hal_uart_configure
          133   3245: i.am_hal_uart_deinitialize
          134   3272: i.am_hal_uart_initialize
          135   3297: i.am_hal_uart_power_control
          136   3325: i.am_hal_uart_transfer
          137   3348: i.am_hal_uart_tx_flush
          138   3371: i.nonblocking_read_sm
          139   3393: nonblocking_read_sm
          140   3413: i.nonblocking_write_sm
          141   3436: nonblocking_write_sm
          142   3457: ..\..\..\..\..\mcu\apollo4p\hal\am_hal_adc.c
          143   3502: ../../../../../mcu/apollo4p/hal/am_hal_adc.c
          144   3547: ..\..\..\..\..\mcu\apollo4p\hal\am_hal_dcu.c
          145   3592: ../../../../../mcu/apollo4p/hal/am_hal_dcu.c
          146   3637: ..\..\..\..\..\mcu\apollo4p\hal\am_hal_pin.c
          147   3682: ../../../../../mcu/apollo4p/hal/am_hal_pin.c
          148   3727: ..\..\..\..\..\mcu\apollo4p\hal\am_hal_queue.c
          149   3774: ../../../../../mcu/apollo4p/hal/am_hal_queue.c
          150   3821: i.am_hal_queue_item_add
          151   3845: i.am_hal_queue_item_get
          152   3869: dc.s
          153   3874: ../clib/longlong.s
          154   3893: ../clib/heapaux.c
          155   3911: ../clib/angel/startup.s
          156   3935: !!!main
          157   3943: ../clib/angel/handlers.s
          158   3968: !!handler_copy
          159   3983: ../fplib/d2f.s
          160   3998: x$fpl$d2f
          161   4008: ../clib/angel/kernel.s
          162   4031: .ARM.Collect$$rtentry$$00000000
          163   4063: ../fplib/dnaninf.s
          164   4082: x$fpl$dnaninf
          165   4096: ../fplib/fretinf.s
          166   4115: x$fpl$fretinf
          167   4129: ../fplib/usenofp.s
          168   4148: x$fpl$usenofp
          169   4162: .ARM.Collect$$rtentry$$00000002
          170   4194: .ARM.Collect$$rtentry$$00000009
          171   4226: .ARM.Collect$$rtentry$$0000000A
          172   4258: .ARM.Collect$$rtentry$$0000000C
          173   4290: .ARM.Collect$$rtentry$$0000000D
          174   4322: .ARM.Collect$$rtentry$$00000004
          175   4354: ../clib/angel/sys.s
          176   4374: ../clib/stdlib.c
          177   4391: ../clib/angel/boardlib.s
          178   4416: ../clib/libinit.s
          179   4434: .ARM.Collect$$libinit$$00000000
          180   4466: .ARM.Collect$$rtexit$$00000000
          181   4497: .ARM.Collect$$libinit$$00000001
          182   4529: .ARM.Collect$$libinit$$00000004
          183   4561: .ARM.Collect$$libinit$$0000000A
          184   4593: .ARM.Collect$$libinit$$0000000C
          185   4625: .ARM.Collect$$libinit$$0000000E
          186   4657: .ARM.Collect$$libinit$$00000011
          187   4689: .ARM.Collect$$libinit$$00000013
          188   4721: .ARM.Collect$$libinit$$00000015
          189   4753: .ARM.Collect$$libinit$$00000017
          190   4785: .ARM.Collect$$libinit$$00000019
          191   4817: .ARM.Collect$$libinit$$0000001B
          192   4849: .ARM.Collect$$libinit$$0000001D
          193   4881: .ARM.Collect$$libinit$$0000001F
          194   4913: .ARM.Collect$$libinit$$00000021
          195   4945: .ARM.Collect$$libinit$$00000023
          196   4977: .ARM.Collect$$libinit$$00000025
          197   5009: .ARM.Collect$$libinit$$0000002C
          198   5041: .ARM.Collect$$libinit$$0000002E
          199   5073: .ARM.Collect$$libinit$$00000030
          200   5105: .ARM.Collect$$libinit$$00000032
          201   5137: .ARM.Collect$$libinit$$00000033
          202   5169: .ARM.Collect$$rtexit$$00000002
          203   5200: .ARM.Collect$$rtexit$$00000003
          204   5231: .ARM.Collect$$rtexit$$00000004
          205   5262: ../clib/armsys.c
          206   5279: ../fplib/fpinit.s
          207   5297: x$fpl$fpinit
          208   5310: ../clib/angel/sysapp.c
          209   5333: .ARM.Collect$$libshutdown$$00000000
          210   5369: ../clib/heapalloc.c
          211   5389: ../clib/signal.c
          212   5406: .ARM.Collect$$libshutdown$$00000002
          213   5442: .ARM.Collect$$libshutdown$$00000004
          214   5478: .ARM.Collect$$libshutdown$$00000007
          215   5514: .ARM.Collect$$libshutdown$$0000000A
          216   5550: .ARM.Collect$$libshutdown$$0000000C
          217   5586: .ARM.Collect$$libshutdown$$0000000F
          218   5622: .ARM.Collect$$libshutdown$$00000010
          219   5658: ../clib/angel/rt.s
          220   5677: ../clib/signal.s
          221   5694: ../clib/angel/scatter.s
          222   5718: !!!scatter
          223   5729: !!handler_zi
          224   5742: BuildAttributes$$THM_ISAv4$E$P$D$K$B$S$7EM$VFPi3$EXTD16$VFPS$VFMA$PE$A:L22UL41UL21$X:L11$S22US41US21$IEEE1$IW$USESV6$~STKCKD$USESV7$~SHL$OTIME$ROPI$EBA8$UX$STANDARDLIB$REQ8$PRES8$EABIv2
          225   5928: __ARM_use_no_argv
          226   5946: __Vectors
          227   5956: __Patchable
          228   5968: Reset_Handler
          229   5982: HardFault_Handler
          230   6000: NMI_Handler
          231   6012: MemManage_Handler
          232   6030: BusFault_Handler
          233   6047: UsageFault_Handler
          234   6066: SVC_Handler
          235   6078: DebugMon_Handler
          236   6095: PendSV_Handler
          237   6110: SysTick_Handler
          238   6126: am_adc_isr
          239   6137: am_audadc0_isr
          240   6152: am_brownout_isr
          241   6168: am_cachecpu_isr
          242   6184: am_clkgen_isr
          243   6198: am_ctimer_isr
          244   6212: am_disp_isr
          245   6224: am_dsi_isr
          246   6235: am_dspi2s0_isr
          247   6250: am_dspi2s1_isr
          248   6265: am_dspi2s2_isr
          249   6280: am_dspi2s3_isr
          250   6295: am_gpio0_001f_isr
          251   6313: am_gpio0_203f_isr
          252   6331: am_gpio0_405f_isr
          253   6349: am_gpio0_607f_isr
          254   6367: am_gpio1_001f_isr
          255   6385: am_gpio1_203f_isr
          256   6403: am_gpio1_405f_isr
          257   6421: am_gpio1_607f_isr
          258   6439: am_gpu_isr
          259   6450: am_iomaster0_isr
          260   6467: am_iomaster1_isr
          261   6484: am_iomaster2_isr
          262   6501: am_iomaster3_isr
          263   6518: am_iomaster4_isr
          264   6535: am_iomaster5_isr
          265   6552: am_iomaster6_isr
          266   6569: am_iomaster7_isr
          267   6586: am_ioslave_acc_isr
          268   6605: am_ioslave_ios_isr
          269   6624: am_mspi0_isr
          270   6637: am_mspi1_isr
          271   6650: am_mspi2_isr
          272   6663: am_pdm0_isr
          273   6675: am_pdm1_isr
          274   6687: am_pdm2_isr
          275   6699: am_pdm3_isr
          276   6711: am_rtc_isr
          277   6722: am_sdio_isr
          278   6734: am_stimer_cmpr0_isr
          279   6754: am_stimer_cmpr1_isr
          280   6774: am_stimer_cmpr2_isr
          281   6794: am_stimer_cmpr3_isr
          282   6814: am_stimer_cmpr4_isr
          283   6834: am_stimer_cmpr5_isr
          284   6854: am_stimer_cmpr6_isr
          285   6874: am_stimer_cmpr7_isr
          286   6894: am_stimerof_isr
          287   6910: am_timer00_isr
          288   6925: am_timer01_isr
          289   6940: am_timer02_isr
          290   6955: am_timer03_isr
          291   6970: am_timer04_isr
          292   6985: am_timer05_isr
          293   7000: am_timer06_isr
          294   7015: am_timer07_isr
          295   7030: am_timer08_isr
          296   7045: am_timer09_isr
          297   7060: am_timer10_isr
          298   7075: am_timer11_isr
          299   7090: am_timer12_isr
          300   7105: am_timer13_isr
          301   7120: am_timer14_isr
          302   7135: am_timer15_isr
          303   7150: am_uart1_isr
          304   7163: am_uart2_isr
          305   7176: am_uart3_isr
          306   7189: am_uart_isr
          307   7201: am_usb_isr
          308   7212: am_vcomp_isr
          309   7225: am_watchdog_isr
          310   7241: __main
          311   7248: __scatterload
          312   7262: __scatterload_rt2
          313   7280: __scatterload_rt2_thumb_only
          314   7309: __scatterload_null
          315   7328: __scatterload_copy
          316   7347: __scatterload_zeroinit
          317   7370: __rt_lib_init
          318   7384: __rt_lib_init_fp_1
          319   7403: __rt_lib_init_alloca_1
          320   7426: __rt_lib_init_argv_1
          321   7447: __rt_lib_init_atexit_1
          322   7470: __rt_lib_init_clock_1
          323   7492: __rt_lib_init_cpp_1
          324   7512: __rt_lib_init_exceptions_1
          325   7539: __rt_lib_init_fp_trap_1
          326   7563: __rt_lib_init_getenv_1
          327   7586: __rt_lib_init_heap_1
          328   7607: __rt_lib_init_lc_collate_1
          329   7634: __rt_lib_init_lc_ctype_1
          330   7659: __rt_lib_init_lc_monetary_1
          331   7687: __rt_lib_init_lc_numeric_1
          332   7714: __rt_lib_init_lc_time_1
          333   7738: __rt_lib_init_preinit_1
          334   7762: __rt_lib_init_rand_1
          335   7783: __rt_lib_init_return
          336   7804: __rt_lib_init_signal_1
          337   7827: __rt_lib_init_stdio_1
          338   7849: __rt_lib_init_user_alloc_1
          339   7876: __rt_lib_shutdown
          340   7894: __rt_lib_shutdown_cpp_1
          341   7918: __rt_lib_shutdown_fp_trap_1
          342   7946: __rt_lib_shutdown_heap_1
          343   7971: __rt_lib_shutdown_return
          344   7996: __rt_lib_shutdown_signal_1
          345   8023: __rt_lib_shutdown_stdio_1
          346   8049: __rt_lib_shutdown_user_alloc_1
          347   8080: __rt_entry
          348   8091: __rt_entry_presh_1
          349   8110: __rt_entry_sh
          350   8124: __rt_entry_li
          351   8138: __rt_entry_postsh_1
          352   8158: __rt_entry_main
          353   8174: __rt_entry_postli_1
          354   8194: __rt_exit
          355   8204: __rt_exit_ls
          356   8217: __rt_exit_prels_1
          357   8235: __rt_exit_exit
          358   8250: am_hal_interrupt_master_enable
          359   8281: am_hal_interrupt_master_disable
          360   8313: am_hal_interrupt_master_set
          361   8341: __user_initial_stackheap
          362   8366: __use_two_region_memory
          363   8390: __rt_heap_escrow$2region
          364   8415: __rt_heap_expand$2region
          365   8440: __user_setup_stackheap
          366   8463: exit
          367   8468: __user_libspace
          368   8484: __user_perproc_libspace
          369   8508: __user_perthread_libspace
          370   8534: _sys_exit
          371   8544: __I$use$semihosting
          372   8564: __use_no_semihosting_swi
          373   8589: __ARM_common_memcpy4_5
          374   8612: __semihosting_library_function
          375   8643: am_bsp_low_power_init
          376   8665: am_bsp_uart_printf_disable
          377   8692: am_bsp_uart_printf_enable
          378   8718: am_bsp_uart_string_print
          379   8743: am_hal_daxi_config
          380   8762: am_hal_daxi_control
          381   8782: am_hal_delay_us
          382   8798: am_hal_delay_us_status_change
          383   8828: am_hal_delay_us_status_check
          384   8857: am_hal_gpio_pinconfig
          385   8879: am_hal_gpio_state_write
          386   8903: am_hal_mram_info_read
          387   8925: am_hal_pwrctrl_control
          388   8948: am_hal_pwrctrl_dsp_memory_config
          389   8981: am_hal_pwrctrl_low_power_init
          390   9011: am_hal_pwrctrl_mcu_memory_config
          391   9044: am_hal_pwrctrl_periph_disable
          392   9074: am_hal_pwrctrl_periph_enable
          393   9103: am_hal_pwrctrl_sram_config
          394   9130: am_hal_queue_item_add
          395   9152: am_hal_queue_item_get
          396   9174: am_hal_rtc_osc_disable
          397   9197: am_hal_sysctrl_sleep
          398   9218: am_hal_uart_configure
          399   9240: am_hal_uart_deinitialize
          400   9265: am_hal_uart_initialize
          401   9288: am_hal_uart_power_control
          402   9314: am_hal_uart_transfer
          403   9335: am_hal_uart_tx_flush
          404   9356: am_util_stdio_printf
          405   9377: am_util_stdio_printf_init
          406   9403: am_util_stdio_terminal_clear
          407   9432: am_util_stdio_vsprintf
          408   9455: buck_ldo_update_override
          409   9480: crypto_boost_trims
          410   9499: main
          411   9504: __aeabi_d2f
          412   9516: _d2f
          413   9521: __fpl_dnaninf
          414   9535: _fp_init
          415   9544: __fplib_config_fpu_vfp
          416   9567: __fplib_config_pureend_doubles
          417   9598: __fpl_fretinf
          418   9612: __I$use$fp
          419   9623: ui32MCUAllowed
          420   9638: ui32DSP0Allowed
          421   9654: ui32DSP1Allowed
          422   9670: ui32SharedAccess
          423   9687: sGlobalAccess
          424   9701: am_hal_gpio_pincfg_output
          425   9727: am_hal_gpio_pincfg_disabled
          426   9755: g_DefaultMcuMemCfg
          427   9774: g_DefaultSRAMCfg
          428   9791: am_hal_pwrctrl_peripheral_control
          429   9825: g_am_hal_bootrom_helper
          430   9849: am_hal_daxi_defaults
          431   9870: Region$$Table$$Base
          432   9890: Region$$Table$$Limit
          433   9911: g_pfnCharPrint
          434   9926: g_sDispCfg
          435   9937: g_eCurrPwrMode
          436   9952: g_ui32TrimVer
          437   9966: g_ui32origSimobuckVDDStrim
          438   9993: g_AM_BSP_GPIO_COM_UART_TX
          439  10019: g_AM_BSP_GPIO_COM_UART_RX
          440  10045: gDaxiConfig
          441  10057: g_am_hal_uart_states
          442  10078: __libspace_start
          443  10095: __temporary_stack_top$libspace
          444  10126: psGlobalAccessPtr
          445  10144: ui32MCUClaimed
          446  10159: ui32DSP0Claimed
          447  10175: ui32DSP1Claimed
          448  10191: 


** Section #14 '.note' (SHT_NOTE)
    Size   : 32 bytes (alignment 4)


** Section #15 '.comment' (SHT_PROGBITS)
    Size   : 28580 bytes


** Section #16 '.shstrtab' (SHT_STRTAB)
    Size   : 164 bytes

            #  Offset String
        ====================================

            1      1: MCU_MRAM
            2     10: MCU_TCM
            3     18: SHARED_SRAM
            4     30: .debug_abbrev
            5     44: .debug_frame
            6     57: .debug_info
            7     69: .debug_line
            8     81: .debug_loc
            9     92: .debug_macinfo
           10    107: .debug_pubnames
           11    123: .symtab
           12    131: .strtab
           13    139: .note
           14    145: .comment
           15    154: .shstrtab


