
========================================================================

** ELF Header Information

    File Name: bin\coremark.axf

    Machine class: ELFCLASS32 (32-bit)
    Data encoding: ELFDATA2LSB (Little endian)
    Header version: EV_CURRENT (Current version)
    Operating System ABI: none
    ABI Version: 0
    File Type: ET_EXEC (Executable) (2)
    Machine: EM_ARM (ARM)

    Image Entry point: 0x0000c135
    Flags: EF_ARM_HASENTRY + EF_ARM_ABI_FLOAT_HARD (0x05000402)

    ARM ELF revision: 5 (ABI version 2)

    Conforms to Hard float procedure-call standard

    Built with
    Component: ARM Compiler 5.06 update 6 (build 750) Tool: armasm [4d35ec]
    Component: ARM Compiler 5.06 update 6 (build 750) Tool: armlink [4d35ed]

    Header size: 52 bytes (0x34)
    Program header entry size: 32 bytes (0x20)
    Section header entry size: 40 bytes (0x28)

    Program header entries: 1
    Section header entries: 17

    Program header offset: 165692 (0x0002873c)
    Section header offset: 165724 (0x0002875c)

    Section header string table index: 16

========================================================================

** Program header #0 (PT_LOAD) [PF_X + PF_W + PF_R + PF_ARM_ENTRY]
    Size : 30300 bytes (22572 bytes in file)
    Virtual address: 0x0000c000 (Alignment 8)


========================================================================

** Section #1 'ROMEM' (SHT_PROGBITS) [SHF_ALLOC + SHF_EXECINSTR]
    Size   : 22308 bytes (alignment 8)
    Address: 0x0000c000

    $d
    RESET
    __Vectors
        0x0000c000:    10001000    ....    DCD    268439552
        0x0000c004:    0000c101    ....    DCD    49409
        0x0000c008:    0000c11f    ....    DCD    49439
        0x0000c00c:    0000c1d5    ....    DCD    49621
        0x0000c010:    0000c121    !...    DCD    49441
        0x0000c014:    0000c123    #...    DCD    49443
        0x0000c018:    0000c125    %...    DCD    49445
        0x0000c01c:    00000000    ....    DCD    0
        0x0000c020:    00000000    ....    DCD    0
        0x0000c024:    00000000    ....    DCD    0
        0x0000c028:    00000000    ....    DCD    0
        0x0000c02c:    0000c127    '...    DCD    49447
        0x0000c030:    0000c129    )...    DCD    49449
        0x0000c034:    00000000    ....    DCD    0
        0x0000c038:    0000c12b    +...    DCD    49451
        0x0000c03c:    0000c335    5...    DCD    49973
        0x0000c040:    0000c12f    /...    DCD    49455
        0x0000c044:    0000c12f    /...    DCD    49455
        0x0000c048:    0000c12f    /...    DCD    49455
        0x0000c04c:    0000c12f    /...    DCD    49455
        0x0000c050:    0000c12f    /...    DCD    49455
        0x0000c054:    0000c12f    /...    DCD    49455
        0x0000c058:    0000c12f    /...    DCD    49455
        0x0000c05c:    0000c12f    /...    DCD    49455
        0x0000c060:    0000c12f    /...    DCD    49455
        0x0000c064:    0000c12f    /...    DCD    49455
        0x0000c068:    0000c12f    /...    DCD    49455
        0x0000c06c:    0000c12f    /...    DCD    49455
        0x0000c070:    0000c12f    /...    DCD    49455
        0x0000c074:    0000c12f    /...    DCD    49455
        0x0000c078:    0000c12f    /...    DCD    49455
        0x0000c07c:    0000c12f    /...    DCD    49455
        0x0000c080:    0000c12f    /...    DCD    49455
        0x0000c084:    0000c12f    /...    DCD    49455
        0x0000c088:    0000c12f    /...    DCD    49455
        0x0000c08c:    0000c12f    /...    DCD    49455
        0x0000c090:    0000c12f    /...    DCD    49455
        0x0000c094:    0000c12f    /...    DCD    49455
        0x0000c098:    0000c12f    /...    DCD    49455
        0x0000c09c:    0000c12f    /...    DCD    49455
        0x0000c0a0:    0000c12f    /...    DCD    49455
        0x0000c0a4:    0000c12f    /...    DCD    49455
        0x0000c0a8:    0000c12f    /...    DCD    49455
        0x0000c0ac:    0000c12f    /...    DCD    49455
        0x0000c0b0:    0000c12f    /...    DCD    49455
        0x0000c0b4:    0000c12f    /...    DCD    49455
        0x0000c0b8:    0000c12f    /...    DCD    49455
        0x0000c0bc:    0000c12f    /...    DCD    49455
        0x0000c0c0:    0000c12f    /...    DCD    49455
        0x0000c0c4:    0000c12f    /...    DCD    49455
    __Patchable
        0x0000c0c8:    00000000    ....    DCD    0
        0x0000c0cc:    00000000    ....    DCD    0
        0x0000c0d0:    00000000    ....    DCD    0
        0x0000c0d4:    00000000    ....    DCD    0
        0x0000c0d8:    00000000    ....    DCD    0
        0x0000c0dc:    00000000    ....    DCD    0
        0x0000c0e0:    00000000    ....    DCD    0
        0x0000c0e4:    00000000    ....    DCD    0
        0x0000c0e8:    00000000    ....    DCD    0
        0x0000c0ec:    00000000    ....    DCD    0
        0x0000c0f0:    00000000    ....    DCD    0
        0x0000c0f4:    00000000    ....    DCD    0
        0x0000c0f8:    00000000    ....    DCD    0
        0x0000c0fc:    00000000    ....    DCD    0
    $t
    $v0
    Reset_Handler
        0x0000c100:    f64e5088    N..P    MOV      r0,#0xed88
        0x0000c104:    f2ce0000    ....    MOVT     r0,#0xe000
        0x0000c108:    6801        .h      LDR      r1,[r0,#0]
        0x0000c10a:    f4410170    A.p.    ORR      r1,r1,#0xf00000
        0x0000c10e:    6001        .`      STR      r1,[r0,#0]
        0x0000c110:    f3bf8f4f    ..O.    DSB      
        0x0000c114:    f3bf8f6f    ..o.    ISB      
        0x0000c118:    4805        .H      LDR      r0,[pc,#20] ; [0xc130] = 0xc135
        0x0000c11a:    4700        .G      BX       r0
        0x0000c11c:    e7fe        ..      B        0xc11c ; Reset_Handler + 28
    NMI_Handler
        0x0000c11e:    e7fe        ..      B        NMI_Handler ; 0xc11e
    MemManage_Handler
        0x0000c120:    e7fe        ..      B        MemManage_Handler ; 0xc120
    BusFault_Handler
        0x0000c122:    e7fe        ..      B        BusFault_Handler ; 0xc122
    UsageFault_Handler
        0x0000c124:    e7fe        ..      B        UsageFault_Handler ; 0xc124
    SVC_Handler
        0x0000c126:    e7fe        ..      B        SVC_Handler ; 0xc126
    DebugMon_Handler
        0x0000c128:    e7fe        ..      B        DebugMon_Handler ; 0xc128
    PendSV_Handler
        0x0000c12a:    e7fe        ..      B        PendSV_Handler ; 0xc12a
        0x0000c12c:    e7fe        ..      B        0xc12c ; PendSV_Handler + 2
    am_adc_isr
    am_ble_isr
    am_brownout_isr
    am_clkgen_isr
    am_ctimer_isr
    am_gpio_isr
    am_iomaster0_isr
    am_iomaster1_isr
    am_iomaster2_isr
    am_iomaster3_isr
    am_iomaster4_isr
    am_iomaster5_isr
    am_ioslave_acc_isr
    am_ioslave_ios_isr
    am_mspi0_isr
    am_mspi1_isr
    am_mspi2_isr
    am_pdm0_isr
    am_rtc_isr
    am_scard_isr
    am_software0_isr
    am_stimer_cmpr0_isr
    am_stimer_cmpr1_isr
    am_stimer_cmpr2_isr
    am_stimer_cmpr3_isr
    am_stimer_cmpr4_isr
    am_stimer_cmpr5_isr
    am_stimer_cmpr6_isr
    am_stimer_cmpr7_isr
    am_stimer_isr
    am_uart0_isr
    am_uart1_isr
    am_uart_isr
    am_vcomp_isr
    am_watchdog_isr
        0x0000c12e:    e7fe        ..      B        am_adc_isr ; 0xc12e
    $d
        0x0000c130:    0000c135    5...    DCD    49461
    $t
    !!!main
    __main
        0x0000c134:    f000f802    ....    BL       __scatterload ; 0xc13c
        0x0000c138:    f000f83c    ..<.    BL       __rt_entry ; 0xc1b4
    !!!scatter
    __scatterload
    __scatterload_rt2
    __scatterload_rt2_thumb_only
        0x0000c13c:    a00a        ..      ADR      r0,{pc}+0x2c ; 0xc168
        0x0000c13e:    e8900c00    ....    LDM      r0,{r10,r11}
        0x0000c142:    4482        .D      ADD      r10,r10,r0
        0x0000c144:    4483        .D      ADD      r11,r11,r0
        0x0000c146:    f1aa0701    ....    SUB      r7,r10,#1
    __scatterload_null
        0x0000c14a:    45da        .E      CMP      r10,r11
        0x0000c14c:    d101        ..      BNE      0xc152 ; __scatterload_null + 8
        0x0000c14e:    f000f831    ..1.    BL       __rt_entry ; 0xc1b4
        0x0000c152:    f2af0e09    ....    ADR      lr,{pc}-7 ; 0xc14b
        0x0000c156:    e8ba000f    ....    LDM      r10!,{r0-r3}
        0x0000c15a:    f0130f01    ....    TST      r3,#1
        0x0000c15e:    bf18        ..      IT       NE
        0x0000c160:    1afb        ..      SUBNE    r3,r7,r3
        0x0000c162:    f0430301    C...    ORR      r3,r3,#1
        0x0000c166:    4718        .G      BX       r3
    $d
        0x0000c168:    0000558c    .U..    DCD    21900
        0x0000c16c:    000055bc    .U..    DCD    21948
    $t
    !!handler_copy
    __scatterload_copy
        0x0000c170:    3a10        .:      SUBS     r2,r2,#0x10
        0x0000c172:    bf24        $.      ITT      CS
        0x0000c174:    c878        x.      LDMCS    r0!,{r3-r6}
        0x0000c176:    c178        x.      STMCS    r1!,{r3-r6}
        0x0000c178:    d8fa        ..      BHI      __scatterload_copy ; 0xc170
        0x0000c17a:    0752        R.      LSLS     r2,r2,#29
        0x0000c17c:    bf24        $.      ITT      CS
        0x0000c17e:    c830        0.      LDMCS    r0!,{r4,r5}
        0x0000c180:    c130        0.      STMCS    r1!,{r4,r5}
        0x0000c182:    bf44        D.      ITT      MI
        0x0000c184:    6804        .h      LDRMI    r4,[r0,#0]
        0x0000c186:    600c        .`      STRMI    r4,[r1,#0]
        0x0000c188:    4770        pG      BX       lr
        0x0000c18a:    0000        ..      MOVS     r0,r0
    !!handler_zi
    __scatterload_zeroinit
        0x0000c18c:    2300        .#      MOVS     r3,#0
        0x0000c18e:    2400        .$      MOVS     r4,#0
        0x0000c190:    2500        .%      MOVS     r5,#0
        0x0000c192:    2600        .&      MOVS     r6,#0
        0x0000c194:    3a10        .:      SUBS     r2,r2,#0x10
        0x0000c196:    bf28        (.      IT       CS
        0x0000c198:    c178        x.      STMCS    r1!,{r3-r6}
        0x0000c19a:    d8fb        ..      BHI      0xc194 ; __scatterload_zeroinit + 8
        0x0000c19c:    0752        R.      LSLS     r2,r2,#29
        0x0000c19e:    bf28        (.      IT       CS
        0x0000c1a0:    c130        0.      STMCS    r1!,{r4,r5}
        0x0000c1a2:    bf48        H.      IT       MI
        0x0000c1a4:    600b        .`      STRMI    r3,[r1,#0]
        0x0000c1a6:    4770        pG      BX       lr
    .ARM.Collect$$libinit$$00000000
    __rt_lib_init
        0x0000c1a8:    b51f        ..      PUSH     {r0-r4,lr}
    .ARM.Collect$$libinit$$00000001
    __rt_lib_init_fp_1
        0x0000c1aa:    f004ff36    ..6.    BL       _fp_init ; 0x1101a
    .ARM.Collect$$libinit$$00000004
    .ARM.Collect$$libinit$$0000000A
    .ARM.Collect$$libinit$$0000000C
    .ARM.Collect$$libinit$$0000000E
    .ARM.Collect$$libinit$$00000011
    .ARM.Collect$$libinit$$00000013
    .ARM.Collect$$libinit$$00000015
    .ARM.Collect$$libinit$$00000017
    .ARM.Collect$$libinit$$00000019
    .ARM.Collect$$libinit$$0000001B
    .ARM.Collect$$libinit$$0000001D
    .ARM.Collect$$libinit$$0000001F
    .ARM.Collect$$libinit$$00000021
    .ARM.Collect$$libinit$$00000023
    .ARM.Collect$$libinit$$00000025
    .ARM.Collect$$libinit$$0000002C
    .ARM.Collect$$libinit$$0000002E
    .ARM.Collect$$libinit$$00000030
    .ARM.Collect$$libinit$$00000032
    .ARM.Collect$$libinit$$00000033
    __rt_lib_init_alloca_1
    __rt_lib_init_argv_1
    __rt_lib_init_atexit_1
    __rt_lib_init_clock_1
    __rt_lib_init_cpp_1
    __rt_lib_init_exceptions_1
    __rt_lib_init_fp_trap_1
    __rt_lib_init_getenv_1
    __rt_lib_init_heap_1
    __rt_lib_init_lc_collate_1
    __rt_lib_init_lc_ctype_1
    __rt_lib_init_lc_monetary_1
    __rt_lib_init_lc_numeric_1
    __rt_lib_init_lc_time_1
    __rt_lib_init_preinit_1
    __rt_lib_init_rand_1
    __rt_lib_init_return
    __rt_lib_init_signal_1
    __rt_lib_init_stdio_1
    __rt_lib_init_user_alloc_1
        0x0000c1ae:    bd1f        ..      POP      {r0-r4,pc}
    .ARM.Collect$$libshutdown$$00000000
    __rt_lib_shutdown
        0x0000c1b0:    b510        ..      PUSH     {r4,lr}
    .ARM.Collect$$libshutdown$$00000002
    .ARM.Collect$$libshutdown$$00000004
    .ARM.Collect$$libshutdown$$00000007
    .ARM.Collect$$libshutdown$$0000000A
    .ARM.Collect$$libshutdown$$0000000C
    .ARM.Collect$$libshutdown$$0000000F
    .ARM.Collect$$libshutdown$$00000010
    __rt_lib_shutdown_cpp_1
    __rt_lib_shutdown_fp_trap_1
    __rt_lib_shutdown_heap_1
    __rt_lib_shutdown_return
    __rt_lib_shutdown_signal_1
    __rt_lib_shutdown_stdio_1
    __rt_lib_shutdown_user_alloc_1
        0x0000c1b2:    bd10        ..      POP      {r4,pc}
    .ARM.Collect$$rtentry$$00000000
    .ARM.Collect$$rtentry$$00000002
    .ARM.Collect$$rtentry$$00000004
    __rt_entry
    __rt_entry_presh_1
    __rt_entry_sh
        0x0000c1b4:    f000f884    ....    BL       __user_setup_stackheap ; 0xc2c0
        0x0000c1b8:    4611        .F      MOV      r1,r2
    .ARM.Collect$$rtentry$$00000009
    .ARM.Collect$$rtentry$$0000000A
    __rt_entry_li
    __rt_entry_postsh_1
        0x0000c1ba:    f7fffff5    ....    BL       __rt_lib_init ; 0xc1a8
    .ARM.Collect$$rtentry$$0000000C
    .ARM.Collect$$rtentry$$0000000D
    __rt_entry_main
    __rt_entry_postli_1
        0x0000c1be:    f003f933    ..3.    BL       main ; 0xf428
        0x0000c1c2:    f000f8a2    ....    BL       exit ; 0xc30a
    .ARM.Collect$$rtexit$$00000000
    __rt_exit
        0x0000c1c6:    b403        ..      PUSH     {r0,r1}
    .ARM.Collect$$rtexit$$00000002
    .ARM.Collect$$rtexit$$00000003
    __rt_exit_ls
    __rt_exit_prels_1
        0x0000c1c8:    f7fffff2    ....    BL       __rt_lib_shutdown ; 0xc1b0
    .ARM.Collect$$rtexit$$00000004
    __rt_exit_exit
        0x0000c1cc:    bc03        ..      POP      {r0,r1}
        0x0000c1ce:    f000f8a9    ....    BL       _sys_exit ; 0xc324
        0x0000c1d2:    0000        ..      MOVS     r0,r0
    .emb_text
    $v0
    HardFault_Handler
        0x0000c1d4:    b501        ..      PUSH     {r0,lr}
        0x0000c1d6:    f01e0f04    ....    TST      lr,#4
        0x0000c1da:    bf0a        ..      ITET     EQ
        0x0000c1dc:    f3ef8008    ....    MRSEQ    r0,MSP
        0x0000c1e0:    f3ef8009    ....    MRSNE    r0,PSP
        0x0000c1e4:    f1100008    ....    ADDSEQ   r0,r0,#8
        0x0000c1e8:    f002f832    ..2.    BL       am_util_faultisr_collect_data ; 0xe250
        0x0000c1ec:    bd01        ..      POP      {r0,pc}
    getStackedReg
        0x0000c1ee:    0080        ..      LSLS     r0,r0,#2
        0x0000c1f0:    1840        @.      ADDS     r0,r0,r1
        0x0000c1f2:    6800        .h      LDR      r0,[r0,#0]
        0x0000c1f4:    4770        pG      BX       lr
        0x0000c1f6:    0000        ..      MOVS     r0,r0
    .emb_text
    $v0
    am_hal_interrupt_master_enable
        0x0000c1f8:    f3ef8010    ....    MRS      r0,PRIMASK
        0x0000c1fc:    b662        b.      CPSIE    i
        0x0000c1fe:    4770        pG      BX       lr
    am_hal_interrupt_master_disable
        0x0000c200:    f3ef8010    ....    MRS      r0,PRIMASK
        0x0000c204:    b672        r.      CPSID    i
        0x0000c206:    4770        pG      BX       lr
    am_hal_interrupt_master_set
        0x0000c208:    f3808810    ....    MSR      PRIMASK,r0
        0x0000c20c:    4770        pG      BX       lr
        0x0000c20e:    0000        ..      MOVS     r0,r0
    .text
    $v0
    __user_initial_stackheap
        0x0000c210:    4802        .H      LDR      r0,[pc,#8] ; [0xc21c] = 0x10001f38
        0x0000c212:    4903        .I      LDR      r1,[pc,#12] ; [0xc220] = 0x10001000
        0x0000c214:    4a01        .J      LDR      r2,[pc,#4] ; [0xc21c] = 0x10001f38
        0x0000c216:    4b03        .K      LDR      r3,[pc,#12] ; [0xc224] = 0x10000000
        0x0000c218:    4770        pG      BX       lr
    $d
        0x0000c21a:    0000        ..      DCW    0
        0x0000c21c:    10001f38    8...    DCD    268443448
        0x0000c220:    10001000    ....    DCD    268439552
        0x0000c224:    10000000    ....    DCD    268435456
    $t
    .text
    __aeabi_memclr
    __rt_memclr
        0x0000c228:    f04f0200    O...    MOV      r2,#0
    _memset
        0x0000c22c:    2904        .)      CMP      r1,#4
        0x0000c22e:    f0c08012    ....    BCC.W    0xc256 ; _memset + 42
        0x0000c232:    f0100c03    ....    ANDS     r12,r0,#3
        0x0000c236:    f000801e    ....    BEQ.W    _memset_w ; 0xc276
        0x0000c23a:    f1cc0c04    ....    RSB      r12,r12,#4
        0x0000c23e:    f1bc0f02    ....    CMP      r12,#2
        0x0000c242:    bf18        ..      IT       NE
        0x0000c244:    f8002b01    ...+    STRBNE   r2,[r0],#1
        0x0000c248:    bfa8        ..      IT       GE
        0x0000c24a:    f8202b02     ..+    STRHGE   r2,[r0],#2
        0x0000c24e:    eba1010c    ....    SUB      r1,r1,r12
        0x0000c252:    f000b810    ....    B.W      _memset_w ; 0xc276
        0x0000c256:    ea5f7cc1    _..|    LSLS     r12,r1,#31
        0x0000c25a:    bf24        $.      ITT      CS
        0x0000c25c:    f8002b01    ...+    STRBCS   r2,[r0],#1
        0x0000c260:    f8002b01    ...+    STRBCS   r2,[r0],#1
        0x0000c264:    bf48        H.      IT       MI
        0x0000c266:    f8002b01    ...+    STRBMI   r2,[r0],#1
        0x0000c26a:    4770        pG      BX       lr
    .text
    __use_two_region_memory
        0x0000c26c:    4770        pG      BX       lr
    __rt_heap_escrow$2region
        0x0000c26e:    4770        pG      BX       lr
    __rt_heap_expand$2region
        0x0000c270:    4770        pG      BX       lr
    .text
    __aeabi_memclr4
    __aeabi_memclr8
    __rt_memclr_w
        0x0000c272:    f04f0200    O...    MOV      r2,#0
    _memset_w
        0x0000c276:    b500        ..      PUSH     {lr}
        0x0000c278:    4613        .F      MOV      r3,r2
        0x0000c27a:    4694        .F      MOV      r12,r2
        0x0000c27c:    4696        .F      MOV      lr,r2
        0x0000c27e:    3920         9      SUBS     r1,r1,#0x20
        0x0000c280:    bf22        ".      ITTT     CS
        0x0000c282:    e8a0500c    ...P    STMCS    r0!,{r2,r3,r12,lr}
        0x0000c286:    e8a0500c    ...P    STMCS    r0!,{r2,r3,r12,lr}
        0x0000c28a:    f1b10120    .. .    SUBSCS   r1,r1,#0x20
        0x0000c28e:    f4bfaff7    ....    BCS.W    0xc280 ; _memset_w + 10
        0x0000c292:    0709        ..      LSLS     r1,r1,#28
        0x0000c294:    bf28        (.      IT       CS
        0x0000c296:    e8a0500c    ...P    STMCS    r0!,{r2,r3,r12,lr}
        0x0000c29a:    bf48        H.      IT       MI
        0x0000c29c:    c00c        ..      STMMI    r0!,{r2,r3}
        0x0000c29e:    f85deb04    ]...    POP      {lr}
        0x0000c2a2:    0089        ..      LSLS     r1,r1,#2
        0x0000c2a4:    bf28        (.      IT       CS
        0x0000c2a6:    f8402b04    @..+    STRCS    r2,[r0],#4
        0x0000c2aa:    bf08        ..      IT       EQ
        0x0000c2ac:    4770        pG      BXEQ     lr
        0x0000c2ae:    bf48        H.      IT       MI
        0x0000c2b0:    f8202b02     ..+    STRHMI   r2,[r0],#2
        0x0000c2b4:    f0114f80    ...O    TST      r1,#0x40000000
        0x0000c2b8:    bf18        ..      IT       NE
        0x0000c2ba:    f8002b01    ...+    STRBNE   r2,[r0],#1
        0x0000c2be:    4770        pG      BX       lr
    .text
    __user_setup_stackheap
        0x0000c2c0:    4675        uF      MOV      r5,lr
        0x0000c2c2:    f000f82b    ..+.    BL       __user_libspace ; 0xc31c
        0x0000c2c6:    46ae        .F      MOV      lr,r5
        0x0000c2c8:    0005        ..      MOVS     r5,r0
        0x0000c2ca:    4669        iF      MOV      r1,sp
        0x0000c2cc:    4653        SF      MOV      r3,r10
        0x0000c2ce:    f0200007     ...    BIC      r0,r0,#7
        0x0000c2d2:    4685        .F      MOV      sp,r0
        0x0000c2d4:    b018        ..      ADD      sp,sp,#0x60
        0x0000c2d6:    b520         .      PUSH     {r5,lr}
        0x0000c2d8:    f7ffff9a    ....    BL       __user_initial_stackheap ; 0xc210
        0x0000c2dc:    e8bd4020    .. @    POP      {r5,lr}
        0x0000c2e0:    f04f0600    O...    MOV      r6,#0
        0x0000c2e4:    f04f0700    O...    MOV      r7,#0
        0x0000c2e8:    f04f0800    O...    MOV      r8,#0
        0x0000c2ec:    f04f0b00    O...    MOV      r11,#0
        0x0000c2f0:    f0210107    !...    BIC      r1,r1,#7
        0x0000c2f4:    46ac        .F      MOV      r12,r5
        0x0000c2f6:    e8ac09c0    ....    STM      r12!,{r6-r8,r11}
        0x0000c2fa:    e8ac09c0    ....    STM      r12!,{r6-r8,r11}
        0x0000c2fe:    e8ac09c0    ....    STM      r12!,{r6-r8,r11}
        0x0000c302:    e8ac09c0    ....    STM      r12!,{r6-r8,r11}
        0x0000c306:    468d        .F      MOV      sp,r1
        0x0000c308:    4770        pG      BX       lr
    .text
    exit
        0x0000c30a:    b510        ..      PUSH     {r4,lr}
        0x0000c30c:    4604        .F      MOV      r4,r0
        0x0000c30e:    f3af8000    ....    NOP.W    
        0x0000c312:    4620         F      MOV      r0,r4
        0x0000c314:    e8bd4010    ...@    POP      {r4,lr}
        0x0000c318:    f7ffbf55    ..U.    B.W      __rt_exit ; 0xc1c6
    .text
    __user_libspace
    __user_perproc_libspace
    __user_perthread_libspace
        0x0000c31c:    4800        .H      LDR      r0,[pc,#0] ; [0xc320] = 0x10001ed8
        0x0000c31e:    4770        pG      BX       lr
    $d
        0x0000c320:    10001ed8    ....    DCD    268443352
    $t
    .text
    _sys_exit
        0x0000c324:    4901        .I      LDR      r1,[pc,#4] ; [0xc32c] = 0x20026
        0x0000c326:    2018        .       MOVS     r0,#0x18
        0x0000c328:    beab        ..      BKPT     #0xab
        0x0000c32a:    e7fe        ..      B        0xc32a ; _sys_exit + 6
    $d
        0x0000c32c:    00020026    &...    DCD    131110
    $t
    .text
    __I$use$semihosting
    __use_no_semihosting_swi
        0x0000c330:    4770        pG      BX       lr
    .text
    __semihosting_library_function
        0x0000c332:    0000        ..      MOVS     r0,r0
    i.SysTick_Handler
    SysTick_Handler
        0x0000c334:    4802        .H      LDR      r0,[pc,#8] ; [0xc340] = 0x10001000
        0x0000c336:    6801        .h      LDR      r1,[r0,#0]
        0x0000c338:    1c49        I.      ADDS     r1,r1,#1
        0x0000c33a:    6001        .`      STR      r1,[r0,#0]
        0x0000c33c:    4770        pG      BX       lr
    $d
        0x0000c33e:    0000        ..      DCW    0
        0x0000c340:    10001000    ....    DCD    268439552
    $t
    i.am_bsp_low_power_init
    am_bsp_low_power_init
        0x0000c344:    e92d41f0    -..A    PUSH     {r4-r8,lr}
        0x0000c348:    f001f872    ..r.    BL       am_hal_pwrctrl_low_power_init ; 0xd430
        0x0000c34c:    f001faf8    ....    BL       am_hal_rtc_osc_disable ; 0xd940
        0x0000c350:    4f0b        .O      LDR      r7,[pc,#44] ; [0xc380] = 0x100010ac
        0x0000c352:    4e0c        .N      LDR      r6,[pc,#48] ; [0xc384] = 0x1128c
        0x0000c354:    2400        .$      MOVS     r4,#0
        0x0000c356:    bf00        ..      NOP      
        0x0000c358:    f8575034    W.4P    LDR      r5,[r7,r4,LSL #3]
        0x0000c35c:    6831        1h      LDR      r1,[r6,#0]
        0x0000c35e:    4628        (F      MOV      r0,r5
        0x0000c360:    f000fda8    ....    BL       am_hal_gpio_pinconfig ; 0xceb4
        0x0000c364:    2103        .!      MOVS     r1,#3
        0x0000c366:    4628        (F      MOV      r0,r5
        0x0000c368:    f000fee4    ....    BL       am_hal_gpio_state_write ; 0xd134
        0x0000c36c:    2100        .!      MOVS     r1,#0
        0x0000c36e:    4628        (F      MOV      r0,r5
        0x0000c370:    f000fee0    ....    BL       am_hal_gpio_state_write ; 0xd134
        0x0000c374:    1c64        d.      ADDS     r4,r4,#1
        0x0000c376:    2c05        .,      CMP      r4,#5
        0x0000c378:    d3ee        ..      BCC      0xc358 ; am_bsp_low_power_init + 20
        0x0000c37a:    e8bd81f0    ....    POP      {r4-r8,pc}
    $d
        0x0000c37e:    0000        ..      DCW    0
        0x0000c380:    100010ac    ....    DCD    268439724
        0x0000c384:    0001128c    ....    DCD    70284
    $t
    i.am_bsp_uart_printf_disable
    am_bsp_uart_printf_disable
        0x0000c388:    b510        ..      PUSH     {r4,lr}
        0x0000c38a:    4c0d        .L      LDR      r4,[pc,#52] ; [0xc3c0] = 0x100010a4
        0x0000c38c:    6860        `h      LDR      r0,[r4,#4]
        0x0000c38e:    f001fed5    ....    BL       am_hal_uart_tx_flush ; 0xe13c
        0x0000c392:    2000        .       MOVS     r0,#0
        0x0000c394:    f001ffd0    ....    BL       am_util_stdio_printf_init ; 0xe338
        0x0000c398:    2200        ."      MOVS     r2,#0
        0x0000c39a:    2102        .!      MOVS     r1,#2
        0x0000c39c:    6860        `h      LDR      r0,[r4,#4]
        0x0000c39e:    f001fc87    ....    BL       am_hal_uart_power_control ; 0xdcb0
        0x0000c3a2:    6860        `h      LDR      r0,[r4,#4]
        0x0000c3a4:    f001fc42    ..B.    BL       am_hal_uart_deinitialize ; 0xdc2c
        0x0000c3a8:    4c06        .L      LDR      r4,[pc,#24] ; [0xc3c4] = 0x1107c
        0x0000c3aa:    2016        .       MOVS     r0,#0x16
        0x0000c3ac:    6821        !h      LDR      r1,[r4,#0]
        0x0000c3ae:    f000fd81    ....    BL       am_hal_gpio_pinconfig ; 0xceb4
        0x0000c3b2:    6821        !h      LDR      r1,[r4,#0]
        0x0000c3b4:    e8bd4010    ...@    POP      {r4,lr}
        0x0000c3b8:    2017        .       MOVS     r0,#0x17
        0x0000c3ba:    f000bd7b    ..{.    B.W      am_hal_gpio_pinconfig ; 0xceb4
    $d
        0x0000c3be:    0000        ..      DCW    0
        0x0000c3c0:    100010a4    ....    DCD    268439716
        0x0000c3c4:    0001107c    |...    DCD    69756
    $t
    i.am_bsp_uart_printf_enable
    am_bsp_uart_printf_enable
        0x0000c3c8:    b510        ..      PUSH     {r4,lr}
        0x0000c3ca:    4c0f        .L      LDR      r4,[pc,#60] ; [0xc408] = 0x100010a4
        0x0000c3cc:    2002        .       MOVS     r0,#2
        0x0000c3ce:    1d21        !.      ADDS     r1,r4,#4
        0x0000c3d0:    6020         `      STR      r0,[r4,#0]
        0x0000c3d2:    2000        .       MOVS     r0,#0
        0x0000c3d4:    f001fc42    ..B.    BL       am_hal_uart_initialize ; 0xdc5c
        0x0000c3d8:    2200        ."      MOVS     r2,#0
        0x0000c3da:    4611        .F      MOV      r1,r2
        0x0000c3dc:    6860        `h      LDR      r0,[r4,#4]
        0x0000c3de:    f001fc67    ..g.    BL       am_hal_uart_power_control ; 0xdcb0
        0x0000c3e2:    490a        .I      LDR      r1,[pc,#40] ; [0xc40c] = 0x11034
        0x0000c3e4:    6860        `h      LDR      r0,[r4,#4]
        0x0000c3e6:    f001faf9    ....    BL       am_hal_uart_configure ; 0xd9dc
        0x0000c3ea:    4809        .H      LDR      r0,[pc,#36] ; [0xc410] = 0x1158c
        0x0000c3ec:    6801        .h      LDR      r1,[r0,#0]
        0x0000c3ee:    2016        .       MOVS     r0,#0x16
        0x0000c3f0:    f000fd60    ..`.    BL       am_hal_gpio_pinconfig ; 0xceb4
        0x0000c3f4:    4807        .H      LDR      r0,[pc,#28] ; [0xc414] = 0x11590
        0x0000c3f6:    6801        .h      LDR      r1,[r0,#0]
        0x0000c3f8:    2017        .       MOVS     r0,#0x17
        0x0000c3fa:    f000fd5b    ..[.    BL       am_hal_gpio_pinconfig ; 0xceb4
        0x0000c3fe:    e8bd4010    ...@    POP      {r4,lr}
        0x0000c402:    4805        .H      LDR      r0,[pc,#20] ; [0xc418] = 0xc41d
        0x0000c404:    f001bf98    ....    B.W      am_util_stdio_printf_init ; 0xe338
    $d
        0x0000c408:    100010a4    ....    DCD    268439716
        0x0000c40c:    00011034    4...    DCD    69684
        0x0000c410:    0001158c    ....    DCD    71052
        0x0000c414:    00011590    ....    DCD    71056
        0x0000c418:    0000c41d    ....    DCD    50205
    $t
    i.am_bsp_uart_string_print
    am_bsp_uart_string_print
        0x0000c41c:    b510        ..      PUSH     {r4,lr}
        0x0000c41e:    b086        ..      SUB      sp,sp,#0x18
        0x0000c420:    2400        .$      MOVS     r4,#0
        0x0000c422:    9400        ..      STR      r4,[sp,#0]
        0x0000c424:    7801        .x      LDRB     r1,[r0,#0]
        0x0000c426:    b119        ..      CBZ      r1,0xc430 ; am_bsp_uart_string_print + 20
        0x0000c428:    1c64        d.      ADDS     r4,r4,#1
        0x0000c42a:    5d01        .]      LDRB     r1,[r0,r4]
        0x0000c42c:    2900        .)      CMP      r1,#0
        0x0000c42e:    d1fb        ..      BNE      0xc428 ; am_bsp_uart_string_print + 12
        0x0000c430:    4a09        .J      LDR      r2,[pc,#36] ; [0xc458] = 0x11034
        0x0000c432:    6a91        .j      LDR      r1,[r2,#0x28]
        0x0000c434:    6b52        Rk      LDR      r2,[r2,#0x34]
        0x0000c436:    9403        ..      STR      r4,[sp,#0xc]
        0x0000c438:    e9cd1001    ....    STRD     r1,r0,[sp,#4]
        0x0000c43c:    4668        hF      MOV      r0,sp
        0x0000c43e:    e9cd2004    ...     STRD     r2,r0,[sp,#0x10]
        0x0000c442:    4806        .H      LDR      r0,[pc,#24] ; [0xc45c] = 0x100010a4
        0x0000c444:    a901        ..      ADD      r1,sp,#4
        0x0000c446:    6840        @h      LDR      r0,[r0,#4]
        0x0000c448:    f001fcb4    ....    BL       am_hal_uart_transfer ; 0xddb4
        0x0000c44c:    9800        ..      LDR      r0,[sp,#0]
        0x0000c44e:    42a0        .B      CMP      r0,r4
        0x0000c450:    bf04        ..      ITT      EQ
        0x0000c452:    b006        ..      ADDEQ    sp,sp,#0x18
        0x0000c454:    bd10        ..      POPEQ    {r4,pc}
        0x0000c456:    e7fe        ..      B        0xc456 ; am_bsp_uart_string_print + 58
    $d
        0x0000c458:    00011034    4...    DCD    69684
        0x0000c45c:    100010a4    ....    DCD    268439716
    $t
    i.am_devices_led_array_init
    am_devices_led_array_init
        0x0000c460:    2800        .(      CMP      r0,#0
        0x0000c462:    bf08        ..      IT       EQ
        0x0000c464:    4770        pG      BXEQ     lr
        0x0000c466:    291f        .)      CMP      r1,#0x1f
        0x0000c468:    bf88        ..      IT       HI
        0x0000c46a:    4770        pG      BXHI     lr
        0x0000c46c:    e92d47f0    -..G    PUSH     {r4-r10,lr}
        0x0000c470:    000e        ..      MOVS     r6,r1
        0x0000c472:    4607        .F      MOV      r7,r0
        0x0000c474:    f04f0500    O...    MOV      r5,#0
        0x0000c478:    bf1a        ..      ITTE     NE
        0x0000c47a:    f8df8064    ..d.    LDRNE    r8,[pc,#100] ; [0xc4e0] = 0x1128c
        0x0000c47e:    f8df9064    ..d.    LDRNE    r9,[pc,#100] ; [0xc4e4] = 0x11288
        0x0000c482:    e8bd87f0    ....    POPEQ    {r4-r10,pc}
        0x0000c486:    bf00        ..      NOP      
        0x0000c488:    eb1704c5    ....    ADDS     r4,r7,r5,LSL #3
        0x0000c48c:    d023        #.      BEQ      0xc4d6 ; am_devices_led_array_init + 118
        0x0000c48e:    6820         h      LDR      r0,[r4,#0]
        0x0000c490:    284a        J(      CMP      r0,#0x4a
        0x0000c492:    d220         .      BCS      0xc4d6 ; am_devices_led_array_init + 118
        0x0000c494:    7921        !y      LDRB     r1,[r4,#4]
        0x0000c496:    f0110f02    ....    TST      r1,#2
        0x0000c49a:    d00e        ..      BEQ      0xc4ba ; am_devices_led_array_init + 90
        0x0000c49c:    f8d81000    ....    LDR      r1,[r8,#0]
        0x0000c4a0:    f000fd08    ....    BL       am_hal_gpio_pinconfig ; 0xceb4
        0x0000c4a4:    2103        .!      MOVS     r1,#3
        0x0000c4a6:    6820         h      LDR      r0,[r4,#0]
        0x0000c4a8:    f000fe44    ..D.    BL       am_hal_gpio_state_write ; 0xd134
        0x0000c4ac:    7920         y      LDRB     r0,[r4,#4]
        0x0000c4ae:    f0000101    ....    AND      r1,r0,#1
        0x0000c4b2:    6820         h      LDR      r0,[r4,#0]
        0x0000c4b4:    f000fe3e    ..>.    BL       am_hal_gpio_state_write ; 0xd134
        0x0000c4b8:    e00d        ..      B        0xc4d6 ; am_devices_led_array_init + 118
        0x0000c4ba:    f8d91000    ....    LDR      r1,[r9,#0]
        0x0000c4be:    f000fcf9    ....    BL       am_hal_gpio_pinconfig ; 0xceb4
        0x0000c4c2:    2103        .!      MOVS     r1,#3
        0x0000c4c4:    6820         h      LDR      r0,[r4,#0]
        0x0000c4c6:    f000fe35    ..5.    BL       am_hal_gpio_state_write ; 0xd134
        0x0000c4ca:    7920         y      LDRB     r0,[r4,#4]
        0x0000c4cc:    f0000101    ....    AND      r1,r0,#1
        0x0000c4d0:    6820         h      LDR      r0,[r4,#0]
        0x0000c4d2:    f000fe2f    ../.    BL       am_hal_gpio_state_write ; 0xd134
        0x0000c4d6:    1c6d        m.      ADDS     r5,r5,#1
        0x0000c4d8:    42b5        .B      CMP      r5,r6
        0x0000c4da:    d3d5        ..      BCC      0xc488 ; am_devices_led_array_init + 40
        0x0000c4dc:    e8bd87f0    ....    POP      {r4-r10,pc}
    $d
        0x0000c4e0:    0001128c    ....    DCD    70284
        0x0000c4e4:    00011288    ....    DCD    70280
    $t
    i.am_devices_led_array_out
    am_devices_led_array_out
        0x0000c4e8:    e92d41f0    -..A    PUSH     {r4-r8,lr}
        0x0000c4ec:    4690        .F      MOV      r8,r2
        0x0000c4ee:    000e        ..      MOVS     r6,r1
        0x0000c4f0:    4605        .F      MOV      r5,r0
        0x0000c4f2:    f04f0400    O...    MOV      r4,#0
        0x0000c4f6:    bf14        ..      ITE      NE
        0x0000c4f8:    2701        .'      MOVNE    r7,#1
        0x0000c4fa:    e8bd81f0    ....    POPEQ    {r4-r8,pc}
        0x0000c4fe:    bf00        ..      NOP      
        0x0000c500:    fa07f004    ....    LSL      r0,r7,r4
        0x0000c504:    ea100f08    ....    TST      r0,r8
        0x0000c508:    d013        ..      BEQ      0xc532 ; am_devices_led_array_out + 74
        0x0000c50a:    2d00        .-      CMP      r5,#0
        0x0000c50c:    bf18        ..      IT       NE
        0x0000c50e:    2c1f        .,      CMPNE    r4,#0x1f
        0x0000c510:    bf3c        <.      ITT      CC
        0x0000c512:    f8550034    U.4.    LDRCC    r0,[r5,r4,LSL #3]
        0x0000c516:    284a        J(      CMPCC    r0,#0x4a
        0x0000c518:    d21d        ..      BCS      0xc556 ; am_devices_led_array_out + 110
        0x0000c51a:    eb0501c4    ....    ADD      r1,r5,r4,LSL #3
        0x0000c51e:    6849        Ih      LDR      r1,[r1,#4]
        0x0000c520:    f0110f02    ....    TST      r1,#2
        0x0000c524:    bf14        ..      ITE      NE
        0x0000c526:    f0010101    ....    ANDNE    r1,r1,#1
        0x0000c52a:    2104        .!      MOVEQ    r1,#4
        0x0000c52c:    f000fe02    ....    BL       am_hal_gpio_state_write ; 0xd134
        0x0000c530:    e011        ..      B        0xc556 ; am_devices_led_array_out + 110
        0x0000c532:    2d00        .-      CMP      r5,#0
        0x0000c534:    bf18        ..      IT       NE
        0x0000c536:    2c1f        .,      CMPNE    r4,#0x1f
        0x0000c538:    bf3c        <.      ITT      CC
        0x0000c53a:    f8550034    U.4.    LDRCC    r0,[r5,r4,LSL #3]
        0x0000c53e:    284a        J(      CMPCC    r0,#0x4a
        0x0000c540:    d209        ..      BCS      0xc556 ; am_devices_led_array_out + 110
        0x0000c542:    eb0501c4    ....    ADD      r1,r5,r4,LSL #3
        0x0000c546:    6849        Ih      LDR      r1,[r1,#4]
        0x0000c548:    f0110f02    ....    TST      r1,#2
        0x0000c54c:    bf14        ..      ITE      NE
        0x0000c54e:    ea270101    '...    BICNE    r1,r7,r1
        0x0000c552:    2103        .!      MOVEQ    r1,#3
        0x0000c554:    e7ea        ..      B        0xc52c ; am_devices_led_array_out + 68
        0x0000c556:    1c64        d.      ADDS     r4,r4,#1
        0x0000c558:    42b4        .B      CMP      r4,r6
        0x0000c55a:    d3d1        ..      BCC      0xc500 ; am_devices_led_array_out + 24
        0x0000c55c:    e8bd81f0    ....    POP      {r4-r8,pc}
    i.am_hal_burst_ldo_charge
    am_hal_burst_ldo_charge
        0x0000c560:    4827        'H      LDR      r0,[pc,#156] ; [0xc600] = 0x50023838
        0x0000c562:    6800        .h      LDR      r0,[r0,#0]
        0x0000c564:    f0100f08    ....    TST      r0,#8
        0x0000c568:    bf18        ..      IT       NE
        0x0000c56a:    4770        pG      BXNE     lr
        0x0000c56c:    b510        ..      PUSH     {r4,lr}
        0x0000c56e:    4c25        %L      LDR      r4,[pc,#148] ; [0xc604] = 0x40020000
        0x0000c570:    6e20         n      LDR      r0,[r4,#0x60]
        0x0000c572:    f0200080     ...    BIC      r0,r0,#0x80
        0x0000c576:    6620         f      STR      r0,[r4,#0x60]
        0x0000c578:    6e20         n      LDR      r0,[r4,#0x60]
        0x0000c57a:    f0200020     . .    BIC      r0,r0,#0x20
        0x0000c57e:    6620         f      STR      r0,[r4,#0x60]
        0x0000c580:    6e20         n      LDR      r0,[r4,#0x60]
        0x0000c582:    f0400040    @.@.    ORR      r0,r0,#0x40
        0x0000c586:    6620         f      STR      r0,[r4,#0x60]
        0x0000c588:    6e20         n      LDR      r0,[r4,#0x60]
        0x0000c58a:    f4407080    @..p    ORR      r0,r0,#0x100
        0x0000c58e:    6620         f      STR      r0,[r4,#0x60]
        0x0000c590:    481d        .H      LDR      r0,[pc,#116] ; [0xc608] = 0x27100
        0x0000c592:    f000fc37    ..7.    BL       am_hal_flash_delay ; 0xce04
        0x0000c596:    6e60        `n      LDR      r0,[r4,#0x64]
        0x0000c598:    f0400008    @...    ORR      r0,r0,#8
        0x0000c59c:    6660        `f      STR      r0,[r4,#0x64]
        0x0000c59e:    6e60        `n      LDR      r0,[r4,#0x64]
        0x0000c5a0:    f0400001    @...    ORR      r0,r0,#1
        0x0000c5a4:    6660        `f      STR      r0,[r4,#0x64]
        0x0000c5a6:    6e60        `n      LDR      r0,[r4,#0x64]
        0x0000c5a8:    f0400004    @...    ORR      r0,r0,#4
        0x0000c5ac:    6660        `f      STR      r0,[r4,#0x64]
        0x0000c5ae:    6e60        `n      LDR      r0,[r4,#0x64]
        0x0000c5b0:    f0200002     ...    BIC      r0,r0,#2
        0x0000c5b4:    6660        `f      STR      r0,[r4,#0x64]
        0x0000c5b6:    6e60        `n      LDR      r0,[r4,#0x64]
        0x0000c5b8:    f0400010    @...    ORR      r0,r0,#0x10
        0x0000c5bc:    6660        `f      STR      r0,[r4,#0x64]
        0x0000c5be:    2020                MOVS     r0,#0x20
        0x0000c5c0:    f000fc20    .. .    BL       am_hal_flash_delay ; 0xce04
        0x0000c5c4:    6e60        `n      LDR      r0,[r4,#0x64]
        0x0000c5c6:    f0400002    @...    ORR      r0,r0,#2
        0x0000c5ca:    6660        `f      STR      r0,[r4,#0x64]
        0x0000c5cc:    f44f40fa    O..@    MOV      r0,#0x7d00
        0x0000c5d0:    f000fc18    ....    BL       am_hal_flash_delay ; 0xce04
        0x0000c5d4:    6e60        `n      LDR      r0,[r4,#0x64]
        0x0000c5d6:    f0200001     ...    BIC      r0,r0,#1
        0x0000c5da:    6660        `f      STR      r0,[r4,#0x64]
        0x0000c5dc:    6e60        `n      LDR      r0,[r4,#0x64]
        0x0000c5de:    f0200004     ...    BIC      r0,r0,#4
        0x0000c5e2:    6660        `f      STR      r0,[r4,#0x64]
        0x0000c5e4:    6e60        `n      LDR      r0,[r4,#0x64]
        0x0000c5e6:    f0200002     ...    BIC      r0,r0,#2
        0x0000c5ea:    6660        `f      STR      r0,[r4,#0x64]
        0x0000c5ec:    6e20         n      LDR      r0,[r4,#0x60]
        0x0000c5ee:    f0200040     .@.    BIC      r0,r0,#0x40
        0x0000c5f2:    6620         f      STR      r0,[r4,#0x60]
        0x0000c5f4:    6e20         n      LDR      r0,[r4,#0x60]
        0x0000c5f6:    f4207080     ..p    BIC      r0,r0,#0x100
        0x0000c5fa:    6620         f      STR      r0,[r4,#0x60]
        0x0000c5fc:    bd10        ..      POP      {r4,pc}
    $d
        0x0000c5fe:    0000        ..      DCW    0
        0x0000c600:    50023838    88.P    DCD    1342322744
        0x0000c604:    40020000    ...@    DCD    1073872896
        0x0000c608:    00027100    .q..    DCD    160000
    $t
    i.am_hal_burst_ldo_patch_check
    am_hal_burst_ldo_patch_check
        0x0000c60c:    4803        .H      LDR      r0,[pc,#12] ; [0xc61c] = 0x50023838
        0x0000c60e:    6800        .h      LDR      r0,[r0,#0]
        0x0000c610:    f0100f08    ....    TST      r0,#8
        0x0000c614:    bf14        ..      ITE      NE
        0x0000c616:    2000        .       MOVNE    r0,#0
        0x0000c618:    2001        .       MOVEQ    r0,#1
        0x0000c61a:    4770        pG      BX       lr
    $d
        0x0000c61c:    50023838    88.P    DCD    1342322744
    $t
    i.am_hal_burst_mode_enable
    am_hal_burst_mode_enable
        0x0000c620:    b5f8        ..      PUSH     {r3-r7,lr}
        0x0000c622:    4604        .F      MOV      r4,r0
        0x0000c624:    4818        .H      LDR      r0,[pc,#96] ; [0xc688] = 0x100010fc
        0x0000c626:    7841        Ax      LDRB     r1,[r0,#1]
        0x0000c628:    2900        .)      CMP      r1,#0
        0x0000c62a:    d028        (.      BEQ      0xc67e ; am_hal_burst_mode_enable + 94
        0x0000c62c:    7800        .x      LDRB     r0,[r0,#0]
        0x0000c62e:    2501        .%      MOVS     r5,#1
        0x0000c630:    2800        .(      CMP      r0,#0
        0x0000c632:    bf02        ..      ITTT     EQ
        0x0000c634:    7025        %p      STRBEQ   r5,[r4,#0]
        0x0000c636:    2007        .       MOVEQ    r0,#7
        0x0000c638:    bdf8        ..      POPEQ    {r3-r7,pc}
        0x0000c63a:    f04f2640    O.@&    MOV      r6,#0x40004000
        0x0000c63e:    6b70        pk      LDR      r0,[r6,#0x34]
        0x0000c640:    f0400001    @...    ORR      r0,r0,#1
        0x0000c644:    6370        pc      STR      r0,[r6,#0x34]
        0x0000c646:    2304        .#      MOVS     r3,#4
        0x0000c648:    461a        .F      MOV      r2,r3
        0x0000c64a:    4910        .I      LDR      r1,[pc,#64] ; [0xc68c] = 0x40004034
        0x0000c64c:    f2427010    B..p    MOV      r0,#0x2710
        0x0000c650:    9500        ..      STR      r5,[sp,#0]
        0x0000c652:    f000fbe9    ....    BL       am_hal_flash_delay_status_check ; 0xce28
        0x0000c656:    2800        .(      CMP      r0,#0
        0x0000c658:    bf1c        ..      ITT      NE
        0x0000c65a:    7025        %p      STRBNE   r5,[r4,#0]
        0x0000c65c:    bdf8        ..      POPNE    {r3-r7,pc}
        0x0000c65e:    6b70        pk      LDR      r0,[r6,#0x34]
        0x0000c660:    f0100f02    ....    TST      r0,#2
        0x0000c664:    bf02        ..      ITTT     EQ
        0x0000c666:    7025        %p      STRBEQ   r5,[r4,#0]
        0x0000c668:    2001        .       MOVEQ    r0,#1
        0x0000c66a:    bdf8        ..      POPEQ    {r3-r7,pc}
        0x0000c66c:    6b70        pk      LDR      r0,[r6,#0x34]
        0x0000c66e:    f0100f04    ....    TST      r0,#4
        0x0000c672:    bf1a        ..      ITTE     NE
        0x0000c674:    2000        .       MOVNE    r0,#0
        0x0000c676:    7020         p      STRBNE   r0,[r4,#0]
        0x0000c678:    7025        %p      STRBEQ   r5,[r4,#0]
        0x0000c67a:    2000        .       MOVS     r0,#0
        0x0000c67c:    bdf8        ..      POP      {r3-r7,pc}
        0x0000c67e:    4620         F      MOV      r0,r4
        0x0000c680:    e8bd40f8    ...@    POP      {r3-r7,lr}
        0x0000c684:    f000b804    ....    B.W      am_hal_burst_mode_enable_w_manual_sequence ; 0xc690
    $d
        0x0000c688:    100010fc    ....    DCD    268439804
        0x0000c68c:    40004034    4@.@    DCD    1073758260
    $t
    i.am_hal_burst_mode_enable_w_manual_sequence
    am_hal_burst_mode_enable_w_manual_sequence
        0x0000c690:    e92d43f8    -..C    PUSH     {r3-r9,lr}
        0x0000c694:    4d4d        MM      LDR      r5,[pc,#308] ; [0xc7cc] = 0x100010fc
        0x0000c696:    4680        .F      MOV      r8,r0
        0x0000c698:    2601        .&      MOVS     r6,#1
        0x0000c69a:    7828        (x      LDRB     r0,[r5,#0]
        0x0000c69c:    2800        .(      CMP      r0,#0
        0x0000c69e:    bf02        ..      ITTT     EQ
        0x0000c6a0:    f8886000    ...`    STRBEQ   r6,[r8,#0]
        0x0000c6a4:    2007        .       MOVEQ    r0,#7
        0x0000c6a6:    e8bd83f8    ....    POPEQ    {r3-r9,pc}
        0x0000c6aa:    4849        IH      LDR      r0,[pc,#292] ; [0xc7d0] = 0x50023838
        0x0000c6ac:    6800        .h      LDR      r0,[r0,#0]
        0x0000c6ae:    f04f0700    O...    MOV      r7,#0
        0x0000c6b2:    f0100f08    ....    TST      r0,#8
        0x0000c6b6:    d006        ..      BEQ      0xc6c6 ; am_hal_burst_mode_enable_w_manual_sequence + 54
        0x0000c6b8:    706e        np      STRB     r6,[r5,#1]
        0x0000c6ba:    4640        @F      MOV      r0,r8
        0x0000c6bc:    f7ffffb0    ....    BL       am_hal_burst_mode_enable ; 0xc620
        0x0000c6c0:    4606        .F      MOV      r6,r0
        0x0000c6c2:    706f        op      STRB     r7,[r5,#1]
        0x0000c6c4:    e06b        k.      B        0xc79e ; am_hal_burst_mode_enable_w_manual_sequence + 270
        0x0000c6c6:    f7fffd9b    ....    BL       am_hal_interrupt_master_disable ; 0xc200
        0x0000c6ca:    9000        ..      STR      r0,[sp,#0]
        0x0000c6cc:    f001f8ba    ....    BL       am_hal_pwrctrl_wa_vddf_restore ; 0xd844
        0x0000c6d0:    4c40        @L      LDR      r4,[pc,#256] ; [0xc7d4] = 0x40020000
        0x0000c6d2:    6e20         n      LDR      r0,[r4,#0x60]
        0x0000c6d4:    f0400080    @...    ORR      r0,r0,#0x80
        0x0000c6d8:    6620         f      STR      r0,[r4,#0x60]
        0x0000c6da:    6e20         n      LDR      r0,[r4,#0x60]
        0x0000c6dc:    f0400040    @.@.    ORR      r0,r0,#0x40
        0x0000c6e0:    6620         f      STR      r0,[r4,#0x60]
        0x0000c6e2:    f8df90f4    ....    LDR      r9,[pc,#244] ; [0xc7d8] = 0x40021000
        0x0000c6e6:    f8d90004    ....    LDR      r0,[r9,#4]
        0x0000c6ea:    f0100f02    ....    TST      r0,#2
        0x0000c6ee:    6e20         n      LDR      r0,[r4,#0x60]
        0x0000c6f0:    bf14        ..      ITE      NE
        0x0000c6f2:    f0400020    @. .    ORRNE    r0,r0,#0x20
        0x0000c6f6:    f0200020     . .    BICEQ    r0,r0,#0x20
        0x0000c6fa:    6620         f      STR      r0,[r4,#0x60]
        0x0000c6fc:    6e20         n      LDR      r0,[r4,#0x60]
        0x0000c6fe:    f4407080    @..p    ORR      r0,r0,#0x100
        0x0000c702:    6620         f      STR      r0,[r4,#0x60]
        0x0000c704:    20a0        .       MOVS     r0,#0xa0
        0x0000c706:    f000fb7d    ..}.    BL       am_hal_flash_delay ; 0xce04
        0x0000c70a:    6e20         n      LDR      r0,[r4,#0x60]
        0x0000c70c:    f0400020    @. .    ORR      r0,r0,#0x20
        0x0000c710:    6620         f      STR      r0,[r4,#0x60]
        0x0000c712:    f8d90024    ..$.    LDR      r0,[r9,#0x24]
        0x0000c716:    f0400080    @...    ORR      r0,r0,#0x80
        0x0000c71a:    f8c90024    ..$.    STR      r0,[r9,#0x24]
        0x0000c71e:    f8d90000    ....    LDR      r0,[r9,#0]
        0x0000c722:    f0400001    @...    ORR      r0,r0,#1
        0x0000c726:    f8c90000    ....    STR      r0,[r9,#0]
        0x0000c72a:    6e60        `n      LDR      r0,[r4,#0x64]
        0x0000c72c:    f0100f10    ....    TST      r0,#0x10
        0x0000c730:    6e60        `n      LDR      r0,[r4,#0x64]
        0x0000c732:    bf18        ..      IT       NE
        0x0000c734:    f0400004    @...    ORRNE    r0,r0,#4
        0x0000c738:    d034        4.      BEQ      0xc7a4 ; am_hal_burst_mode_enable_w_manual_sequence + 276
        0x0000c73a:    6660        `f      STR      r0,[r4,#0x64]
        0x0000c73c:    2020                MOVS     r0,#0x20
        0x0000c73e:    f000fb61    ..a.    BL       am_hal_flash_delay ; 0xce04
        0x0000c742:    6e60        `n      LDR      r0,[r4,#0x64]
        0x0000c744:    f0400002    @...    ORR      r0,r0,#2
        0x0000c748:    6660        `f      STR      r0,[r4,#0x64]
        0x0000c74a:    2010        .       MOVS     r0,#0x10
        0x0000c74c:    f000fb5a    ..Z.    BL       am_hal_flash_delay ; 0xce04
        0x0000c750:    706e        np      STRB     r6,[r5,#1]
        0x0000c752:    4640        @F      MOV      r0,r8
        0x0000c754:    f7ffff64    ..d.    BL       am_hal_burst_mode_enable ; 0xc620
        0x0000c758:    4606        .F      MOV      r6,r0
        0x0000c75a:    706f        op      STRB     r7,[r5,#1]
        0x0000c75c:    f44f70c8    O..p    MOV      r0,#0x190
        0x0000c760:    f000fb50    ..P.    BL       am_hal_flash_delay ; 0xce04
        0x0000c764:    6e20         n      LDR      r0,[r4,#0x60]
        0x0000c766:    f4207080     ..p    BIC      r0,r0,#0x100
        0x0000c76a:    6620         f      STR      r0,[r4,#0x60]
        0x0000c76c:    6e20         n      LDR      r0,[r4,#0x60]
        0x0000c76e:    f0200080     ...    BIC      r0,r0,#0x80
        0x0000c772:    6620         f      STR      r0,[r4,#0x60]
        0x0000c774:    6e20         n      LDR      r0,[r4,#0x60]
        0x0000c776:    f0200040     .@.    BIC      r0,r0,#0x40
        0x0000c77a:    6620         f      STR      r0,[r4,#0x60]
        0x0000c77c:    6e20         n      LDR      r0,[r4,#0x60]
        0x0000c77e:    f0200020     . .    BIC      r0,r0,#0x20
        0x0000c782:    6620         f      STR      r0,[r4,#0x60]
        0x0000c784:    6e60        `n      LDR      r0,[r4,#0x64]
        0x0000c786:    f0100f01    ....    TST      r0,#1
        0x0000c78a:    d003        ..      BEQ      0xc794 ; am_hal_burst_mode_enable_w_manual_sequence + 260
        0x0000c78c:    6e60        `n      LDR      r0,[r4,#0x64]
        0x0000c78e:    f0200001     ...    BIC      r0,r0,#1
        0x0000c792:    6660        `f      STR      r0,[r4,#0x64]
        0x0000c794:    f001f838    ..8.    BL       am_hal_pwrctrl_wa_vddf_boost ; 0xd808
        0x0000c798:    9800        ..      LDR      r0,[sp,#0]
        0x0000c79a:    f7fffd35    ..5.    BL       am_hal_interrupt_master_set ; 0xc208
        0x0000c79e:    4630        0F      MOV      r0,r6
        0x0000c7a0:    e8bd83f8    ....    POP      {r3-r9,pc}
        0x0000c7a4:    f0400008    @...    ORR      r0,r0,#8
        0x0000c7a8:    6660        `f      STR      r0,[r4,#0x64]
        0x0000c7aa:    6e60        `n      LDR      r0,[r4,#0x64]
        0x0000c7ac:    f0400001    @...    ORR      r0,r0,#1
        0x0000c7b0:    6660        `f      STR      r0,[r4,#0x64]
        0x0000c7b2:    6e60        `n      LDR      r0,[r4,#0x64]
        0x0000c7b4:    f0400004    @...    ORR      r0,r0,#4
        0x0000c7b8:    6660        `f      STR      r0,[r4,#0x64]
        0x0000c7ba:    6e60        `n      LDR      r0,[r4,#0x64]
        0x0000c7bc:    f0200002     ...    BIC      r0,r0,#2
        0x0000c7c0:    6660        `f      STR      r0,[r4,#0x64]
        0x0000c7c2:    6e60        `n      LDR      r0,[r4,#0x64]
        0x0000c7c4:    f0400010    @...    ORR      r0,r0,#0x10
        0x0000c7c8:    e7b7        ..      B        0xc73a ; am_hal_burst_mode_enable_w_manual_sequence + 170
    $d
        0x0000c7ca:    0000        ..      DCW    0
        0x0000c7cc:    100010fc    ....    DCD    268439804
        0x0000c7d0:    50023838    88.P    DCD    1342322744
        0x0000c7d4:    40020000    ...@    DCD    1073872896
        0x0000c7d8:    40021000    ...@    DCD    1073876992
    $t
    i.am_hal_burst_mode_initialize
    am_hal_burst_mode_initialize
        0x0000c7dc:    e92d43f8    -..C    PUSH     {r3-r9,lr}
        0x0000c7e0:    f8df90d0    ....    LDR      r9,[pc,#208] ; [0xc8b4] = 0x40021000
        0x0000c7e4:    4606        .F      MOV      r6,r0
        0x0000c7e6:    f8d90024    ..$.    LDR      r0,[r9,#0x24]
        0x0000c7ea:    f0100f01    ....    TST      r0,#1
        0x0000c7ee:    d004        ..      BEQ      0xc7fa ; am_hal_burst_mode_initialize + 30
        0x0000c7f0:    2105        .!      MOVS     r1,#5
        0x0000c7f2:    2001        .       MOVS     r0,#1
        0x0000c7f4:    f000ffb8    ....    BL       am_hal_pwrctrl_simobuck_vddx_active_trim_adj_default ; 0xd768
        0x0000c7f8:    e003        ..      B        0xc802 ; am_hal_burst_mode_initialize + 38
        0x0000c7fa:    2103        .!      MOVS     r1,#3
        0x0000c7fc:    2001        .       MOVS     r0,#1
        0x0000c7fe:    f000fdcf    ....    BL       am_hal_pwrctrl_ldo_vddx_active_trim_adj_default ; 0xd3a0
        0x0000c802:    4d2d        -M      LDR      r5,[pc,#180] ; [0xc8b8] = 0x40020000
        0x0000c804:    6968        hi      LDR      r0,[r5,#0x14]
        0x0000c806:    f8df80b4    ....    LDR      r8,[pc,#180] ; [0xc8bc] = 0x100010fc
        0x0000c80a:    f0100f01    ....    TST      r0,#1
        0x0000c80e:    f04f0700    O...    MOV      r7,#0
        0x0000c812:    f04f0401    O...    MOV      r4,#1
        0x0000c816:    d045        E.      BEQ      0xc8a4 ; am_hal_burst_mode_initialize + 200
        0x0000c818:    f8d90028    ..(.    LDR      r0,[r9,#0x28]
        0x0000c81c:    f0404000    @..@    ORR      r0,r0,#0x80000000
        0x0000c820:    f8c90028    ..(.    STR      r0,[r9,#0x28]
        0x0000c824:    f04f2040    O.@     MOV      r0,#0x40004000
        0x0000c828:    6b40        @k      LDR      r0,[r0,#0x34]
        0x0000c82a:    f0100f01    ....    TST      r0,#1
        0x0000c82e:    d017        ..      BEQ      0xc860 ; am_hal_burst_mode_initialize + 132
        0x0000c830:    f7fffce6    ....    BL       am_hal_interrupt_master_disable ; 0xc200
        0x0000c834:    f8df9088    ....    LDR      r9,[pc,#136] ; [0xc8c0] = 0x40004034
        0x0000c838:    9000        ..      STR      r0,[sp,#0]
        0x0000c83a:    2100        .!      MOVS     r1,#0
        0x0000c83c:    4648        HF      MOV      r0,r9
        0x0000c83e:    f000fb25    ..%.    BL       am_hal_flash_store_ui32 ; 0xce8c
        0x0000c842:    9800        ..      LDR      r0,[sp,#0]
        0x0000c844:    f7fffce0    ....    BL       am_hal_interrupt_master_set ; 0xc208
        0x0000c848:    2300        .#      MOVS     r3,#0
        0x0000c84a:    2204        ."      MOVS     r2,#4
        0x0000c84c:    4649        IF      MOV      r1,r9
        0x0000c84e:    f2427010    B..p    MOV      r0,#0x2710
        0x0000c852:    9400        ..      STR      r4,[sp,#0]
        0x0000c854:    f000fae8    ....    BL       am_hal_flash_delay_status_check ; 0xce28
        0x0000c858:    2800        .(      CMP      r0,#0
        0x0000c85a:    bf18        ..      IT       NE
        0x0000c85c:    e8bd83f8    ....    POPNE    {r3-r9,pc}
        0x0000c860:    69a8        .i      LDR      r0,[r5,#0x18]
        0x0000c862:    f0400010    @...    ORR      r0,r0,#0x10
        0x0000c866:    61a8        .a      STR      r0,[r5,#0x18]
        0x0000c868:    2320         #      MOVS     r3,#0x20
        0x0000c86a:    461a        .F      MOV      r2,r3
        0x0000c86c:    4915        .I      LDR      r1,[pc,#84] ; [0xc8c4] = 0x40020018
        0x0000c86e:    f2427010    B..p    MOV      r0,#0x2710
        0x0000c872:    9400        ..      STR      r4,[sp,#0]
        0x0000c874:    f000fad8    ....    BL       am_hal_flash_delay_status_check ; 0xce28
        0x0000c878:    2800        .(      CMP      r0,#0
        0x0000c87a:    bf1e        ..      ITTT     NE
        0x0000c87c:    f8887000    ...p    STRBNE   r7,[r8,#0]
        0x0000c880:    7034        4p      STRBNE   r4,[r6,#0]
        0x0000c882:    e8bd83f8    ....    POPNE    {r3-r9,pc}
        0x0000c886:    69a8        .i      LDR      r0,[r5,#0x18]
        0x0000c888:    f0100f40    ..@.    TST      r0,#0x40
        0x0000c88c:    bf1c        ..      ITT      NE
        0x0000c88e:    69a8        .i      LDRNE    r0,[r5,#0x18]
        0x0000c890:    f0100f20    .. .    TSTNE    r0,#0x20
        0x0000c894:    d006        ..      BEQ      0xc8a4 ; am_hal_burst_mode_initialize + 200
        0x0000c896:    f8884000    ...@    STRB     r4,[r8,#0]
        0x0000c89a:    7037        7p      STRB     r7,[r6,#0]
        0x0000c89c:    f04f0000    O...    MOV      r0,#0
        0x0000c8a0:    e8bd83f8    ....    POP      {r3-r9,pc}
        0x0000c8a4:    f8887000    ...p    STRB     r7,[r8,#0]
        0x0000c8a8:    7034        4p      STRB     r4,[r6,#0]
        0x0000c8aa:    f04f0007    O...    MOV      r0,#7
        0x0000c8ae:    e8bd83f8    ....    POP      {r3-r9,pc}
    $d
        0x0000c8b2:    0000        ..      DCW    0
        0x0000c8b4:    40021000    ...@    DCD    1073876992
        0x0000c8b8:    40020000    ...@    DCD    1073872896
        0x0000c8bc:    100010fc    ....    DCD    268439804
        0x0000c8c0:    40004034    4@.@    DCD    1073758260
        0x0000c8c4:    40020018    ...@    DCD    1073872920
    $t
    i.am_hal_cachectrl_config
    am_hal_cachectrl_config
        0x0000c8c8:    b538        8.      PUSH     {r3-r5,lr}
        0x0000c8ca:    4604        .F      MOV      r4,r0
        0x0000c8cc:    f7fffc98    ....    BL       am_hal_interrupt_master_disable ; 0xc200
        0x0000c8d0:    4d0f        .M      LDR      r5,[pc,#60] ; [0xc910] = 0x40018000
        0x0000c8d2:    9000        ..      STR      r0,[sp,#0]
        0x0000c8d4:    6828        (h      LDR      r0,[r5,#0]
        0x0000c8d6:    f4207040     .@p    BIC      r0,r0,#0x300
        0x0000c8da:    6028        (`      STR      r0,[r5,#0]
        0x0000c8dc:    9800        ..      LDR      r0,[sp,#0]
        0x0000c8de:    f7fffc93    ....    BL       am_hal_interrupt_master_set ; 0xc208
        0x0000c8e2:    78a0        .x      LDRB     r0,[r4,#2]
        0x0000c8e4:    2102        .!      MOVS     r1,#2
        0x0000c8e6:    ea010040    ..@.    AND      r0,r1,r0,LSL #1
        0x0000c8ea:    7821        !x      LDRB     r1,[r4,#0]
        0x0000c8ec:    22f0        ."      MOVS     r2,#0xf0
        0x0000c8ee:    ea021101    ....    AND      r1,r2,r1,LSL #4
        0x0000c8f2:    4308        .C      ORRS     r0,r0,r1
        0x0000c8f4:    7861        ax      LDRB     r1,[r4,#1]
        0x0000c8f6:    f44f7240    O.@r    MOV      r2,#0x300
        0x0000c8fa:    ea022101    ...!    AND      r1,r2,r1,LSL #8
        0x0000c8fe:    4308        .C      ORRS     r0,r0,r1
        0x0000c900:    f4406080    @..`    ORR      r0,r0,#0x400
        0x0000c904:    f4401080    @...    ORR      r0,r0,#0x100000
        0x0000c908:    6028        (`      STR      r0,[r5,#0]
        0x0000c90a:    2000        .       MOVS     r0,#0
        0x0000c90c:    bd38        8.      POP      {r3-r5,pc}
    $d
        0x0000c90e:    0000        ..      DCW    0
        0x0000c910:    40018000    ...@    DCD    1073840128
    $t
    i.am_hal_cachectrl_control
    am_hal_cachectrl_control
        0x0000c914:    b5f8        ..      PUSH     {r3-r7,lr}
        0x0000c916:    2812        .(      CMP      r0,#0x12
        0x0000c918:    f08081b9    ....    BCS.W    0xcc8e ; am_hal_cachectrl_control + 890
        0x0000c91c:    e8dff000    ....    TBB      [pc,r0]
    $d
        0x0000c920:    140b09fe    ....    DCD    336267774
        0x0000c924:    1e1c1a17    ....    DCD    505158167
        0x0000c928:    3f332721    !'3?    DCD    1060316961
        0x0000c92c:    fcfde793    ....    DCD    4244498323
        0x0000c930:    fafb        ..      DCW    64251
    $t
        0x0000c932:    2001        .       MOVS     r0,#1
        0x0000c934:    e017        ..      B        0xc966 ; am_hal_cachectrl_control + 82
        0x0000c936:    48e0        .H      LDR      r0,[pc,#896] ; [0xccb8] = 0x40018000
        0x0000c938:    6800        .h      LDR      r0,[r0,#0]
        0x0000c93a:    f0107f80    ....    TST      r0,#0x1000000
        0x0000c93e:    bf0a        ..      ITET     EQ
        0x0000c940:    2007        .       MOVEQ    r0,#7
        0x0000c942:    2002        .       MOVNE    r0,#2
        0x0000c944:    bdf8        ..      POPEQ    {r3-r7,pc}
        0x0000c946:    e00e        ..      B        0xc966 ; am_hal_cachectrl_control + 82
        0x0000c948:    f44f6088    O..`    MOV      r0,#0x440
        0x0000c94c:    e00b        ..      B        0xc966 ; am_hal_cachectrl_control + 82
        0x0000c94e:    f44f7008    O..p    MOV      r0,#0x220
        0x0000c952:    e008        ..      B        0xc966 ; am_hal_cachectrl_control + 82
        0x0000c954:    2040        @       MOVS     r0,#0x40
        0x0000c956:    e006        ..      B        0xc966 ; am_hal_cachectrl_control + 82
        0x0000c958:    2020                MOVS     r0,#0x20
        0x0000c95a:    e004        ..      B        0xc966 ; am_hal_cachectrl_control + 82
        0x0000c95c:    f44f6080    O..`    MOV      r0,#0x400
        0x0000c960:    e001        ..      B        0xc966 ; am_hal_cachectrl_control + 82
        0x0000c962:    f44f7000    O..p    MOV      r0,#0x200
        0x0000c966:    49d4        .I      LDR      r1,[pc,#848] ; [0xccb8] = 0x40018000
        0x0000c968:    6088        .`      STR      r0,[r1,#8]
        0x0000c96a:    2000        .       MOVS     r0,#0
        0x0000c96c:    bdf8        ..      POP      {r3-r7,pc}
        0x0000c96e:    f7fffc47    ..G.    BL       am_hal_interrupt_master_disable ; 0xc200
        0x0000c972:    9000        ..      STR      r0,[sp,#0]
        0x0000c974:    48d0        .H      LDR      r0,[pc,#832] ; [0xccb8] = 0x40018000
        0x0000c976:    6801        .h      LDR      r1,[r0,#0]
        0x0000c978:    f0417180    A..q    ORR      r1,r1,#0x1000000
        0x0000c97c:    6001        .`      STR      r1,[r0,#0]
        0x0000c97e:    9800        ..      LDR      r0,[sp,#0]
        0x0000c980:    f7fffc42    ..B.    BL       am_hal_interrupt_master_set ; 0xc208
        0x0000c984:    e7f1        ..      B        0xc96a ; am_hal_cachectrl_control + 86
        0x0000c986:    f7fffc3b    ..;.    BL       am_hal_interrupt_master_disable ; 0xc200
        0x0000c98a:    9000        ..      STR      r0,[sp,#0]
        0x0000c98c:    48ca        .H      LDR      r0,[pc,#808] ; [0xccb8] = 0x40018000
        0x0000c98e:    6801        .h      LDR      r1,[r0,#0]
        0x0000c990:    f0217180    !..q    BIC      r1,r1,#0x1000000
        0x0000c994:    6001        .`      STR      r1,[r0,#0]
        0x0000c996:    9800        ..      LDR      r0,[sp,#0]
        0x0000c998:    f7fffc36    ..6.    BL       am_hal_interrupt_master_set ; 0xc208
        0x0000c99c:    e7e5        ..      B        0xc96a ; am_hal_cachectrl_control + 86
        0x0000c99e:    2000        .       MOVS     r0,#0
        0x0000c9a0:    f44f5140    O.@Q    MOV      r1,#0x3000
        0x0000c9a4:    4cc5        .L      LDR      r4,[pc,#788] ; [0xccbc] = 0x40018100
        0x0000c9a6:    4605        .F      MOV      r5,r0
        0x0000c9a8:    ea013600    ...6    AND      r6,r1,r0,LSL #12
        0x0000c9ac:    eb040785    ....    ADD      r7,r4,r5,LSL #2
        0x0000c9b0:    f7fffc26    ..&.    BL       am_hal_interrupt_master_disable ; 0xc200
        0x0000c9b4:    9000        ..      STR      r0,[sp,#0]
        0x0000c9b6:    4638        8F      MOV      r0,r7
        0x0000c9b8:    f000fa64    ..d.    BL       am_hal_flash_load_ui32 ; 0xce84
        0x0000c9bc:    f420507c     .|P    BIC      r0,r0,#0x3f00
        0x0000c9c0:    4330        0C      ORRS     r0,r0,r6
        0x0000c9c2:    f44061e0    @..a    ORR      r1,r0,#0x700
        0x0000c9c6:    4638        8F      MOV      r0,r7
        0x0000c9c8:    f000fa60    ..`.    BL       am_hal_flash_store_ui32 ; 0xce8c
        0x0000c9cc:    9800        ..      LDR      r0,[sp,#0]
        0x0000c9ce:    f7fffc1b    ....    BL       am_hal_interrupt_master_set ; 0xc208
        0x0000c9d2:    1c6d        m.      ADDS     r5,r5,#1
        0x0000c9d4:    2d04        .-      CMP      r5,#4
        0x0000c9d6:    d3e9        ..      BCC      0xc9ac ; am_hal_cachectrl_control + 152
        0x0000c9d8:    2007        .       MOVS     r0,#7
        0x0000c9da:    2500        .%      MOVS     r5,#0
        0x0000c9dc:    2170        p!      MOVS     r1,#0x70
        0x0000c9de:    ea011600    ....    AND      r6,r1,r0,LSL #4
        0x0000c9e2:    bf00        ..      NOP      
        0x0000c9e4:    eb040785    ....    ADD      r7,r4,r5,LSL #2
        0x0000c9e8:    f7fffc0a    ....    BL       am_hal_interrupt_master_disable ; 0xc200
        0x0000c9ec:    9000        ..      STR      r0,[sp,#0]
        0x0000c9ee:    4638        8F      MOV      r0,r7
        0x0000c9f0:    f000fa48    ..H.    BL       am_hal_flash_load_ui32 ; 0xce84
        0x0000c9f4:    f4206077     .w`    BIC      r0,r0,#0xf70
        0x0000c9f8:    4330        0C      ORRS     r0,r0,r6
        0x0000c9fa:    f44061e0    @..a    ORR      r1,r0,#0x700
        0x0000c9fe:    4638        8F      MOV      r0,r7
        0x0000ca00:    f000fa44    ..D.    BL       am_hal_flash_store_ui32 ; 0xce8c
        0x0000ca04:    9800        ..      LDR      r0,[sp,#0]
        0x0000ca06:    f7fffbff    ....    BL       am_hal_interrupt_master_set ; 0xc208
        0x0000ca0a:    1c6d        m.      ADDS     r5,r5,#1
        0x0000ca0c:    2d04        .-      CMP      r5,#4
        0x0000ca0e:    d3e9        ..      BCC      0xc9e4 ; am_hal_cachectrl_control + 208
        0x0000ca10:    2603        .&      MOVS     r6,#3
        0x0000ca12:    2500        .%      MOVS     r5,#0
        0x0000ca14:    eb040785    ....    ADD      r7,r4,r5,LSL #2
        0x0000ca18:    f7fffbf2    ....    BL       am_hal_interrupt_master_disable ; 0xc200
        0x0000ca1c:    9000        ..      STR      r0,[sp,#0]
        0x0000ca1e:    4638        8F      MOV      r0,r7
        0x0000ca20:    f000fa30    ..0.    BL       am_hal_flash_load_ui32 ; 0xce84
        0x0000ca24:    f020000f     ...    BIC      r0,r0,#0xf
        0x0000ca28:    f4206070     .p`    BIC      r0,r0,#0xf00
        0x0000ca2c:    4330        0C      ORRS     r0,r0,r6
        0x0000ca2e:    f44061e0    @..a    ORR      r1,r0,#0x700
        0x0000ca32:    4638        8F      MOV      r0,r7
        0x0000ca34:    f000fa2a    ..*.    BL       am_hal_flash_store_ui32 ; 0xce8c
        0x0000ca38:    9800        ..      LDR      r0,[sp,#0]
        0x0000ca3a:    f7fffbe5    ....    BL       am_hal_interrupt_master_set ; 0xc208
        0x0000ca3e:    1c6d        m.      ADDS     r5,r5,#1
        0x0000ca40:    2d04        .-      CMP      r5,#4
        0x0000ca42:    d3e7        ..      BCC      0xca14 ; am_hal_cachectrl_control + 256
        0x0000ca44:    e791        ..      B        0xc96a ; am_hal_cachectrl_control + 86
        0x0000ca46:    2001        .       MOVS     r0,#1
        0x0000ca48:    f44f5140    O.@Q    MOV      r1,#0x3000
        0x0000ca4c:    4c9b        .L      LDR      r4,[pc,#620] ; [0xccbc] = 0x40018100
        0x0000ca4e:    2500        .%      MOVS     r5,#0
        0x0000ca50:    ea013600    ...6    AND      r6,r1,r0,LSL #12
        0x0000ca54:    eb040785    ....    ADD      r7,r4,r5,LSL #2
        0x0000ca58:    f7fffbd2    ....    BL       am_hal_interrupt_master_disable ; 0xc200
        0x0000ca5c:    9000        ..      STR      r0,[sp,#0]
        0x0000ca5e:    4638        8F      MOV      r0,r7
        0x0000ca60:    f000fa10    ....    BL       am_hal_flash_load_ui32 ; 0xce84
        0x0000ca64:    f420507c     .|P    BIC      r0,r0,#0x3f00
        0x0000ca68:    4330        0C      ORRS     r0,r0,r6
        0x0000ca6a:    f44061e0    @..a    ORR      r1,r0,#0x700
        0x0000ca6e:    4638        8F      MOV      r0,r7
        0x0000ca70:    f000fa0c    ....    BL       am_hal_flash_store_ui32 ; 0xce8c
        0x0000ca74:    9800        ..      LDR      r0,[sp,#0]
        0x0000ca76:    f7fffbc7    ....    BL       am_hal_interrupt_master_set ; 0xc208
        0x0000ca7a:    1c6d        m.      ADDS     r5,r5,#1
        0x0000ca7c:    2d04        .-      CMP      r5,#4
        0x0000ca7e:    d3e9        ..      BCC      0xca54 ; am_hal_cachectrl_control + 320
        0x0000ca80:    2005        .       MOVS     r0,#5
        0x0000ca82:    2500        .%      MOVS     r5,#0
        0x0000ca84:    2170        p!      MOVS     r1,#0x70
        0x0000ca86:    ea011600    ....    AND      r6,r1,r0,LSL #4
        0x0000ca8a:    bf00        ..      NOP      
        0x0000ca8c:    eb040785    ....    ADD      r7,r4,r5,LSL #2
        0x0000ca90:    f7fffbb6    ....    BL       am_hal_interrupt_master_disable ; 0xc200
        0x0000ca94:    9000        ..      STR      r0,[sp,#0]
        0x0000ca96:    4638        8F      MOV      r0,r7
        0x0000ca98:    f000f9f4    ....    BL       am_hal_flash_load_ui32 ; 0xce84
        0x0000ca9c:    f4206077     .w`    BIC      r0,r0,#0xf70
        0x0000caa0:    4330        0C      ORRS     r0,r0,r6
        0x0000caa2:    f44061e0    @..a    ORR      r1,r0,#0x700
        0x0000caa6:    4638        8F      MOV      r0,r7
        0x0000caa8:    f000f9f0    ....    BL       am_hal_flash_store_ui32 ; 0xce8c
        0x0000caac:    9800        ..      LDR      r0,[sp,#0]
        0x0000caae:    f7fffbab    ....    BL       am_hal_interrupt_master_set ; 0xc208
        0x0000cab2:    1c6d        m.      ADDS     r5,r5,#1
        0x0000cab4:    2d04        .-      CMP      r5,#4
        0x0000cab6:    d3e9        ..      BCC      0xca8c ; am_hal_cachectrl_control + 376
        0x0000cab8:    2601        .&      MOVS     r6,#1
        0x0000caba:    2500        .%      MOVS     r5,#0
        0x0000cabc:    eb040785    ....    ADD      r7,r4,r5,LSL #2
        0x0000cac0:    f7fffb9e    ....    BL       am_hal_interrupt_master_disable ; 0xc200
        0x0000cac4:    9000        ..      STR      r0,[sp,#0]
        0x0000cac6:    4638        8F      MOV      r0,r7
        0x0000cac8:    f000f9dc    ....    BL       am_hal_flash_load_ui32 ; 0xce84
        0x0000cacc:    f020000f     ...    BIC      r0,r0,#0xf
        0x0000cad0:    f4206070     .p`    BIC      r0,r0,#0xf00
        0x0000cad4:    4330        0C      ORRS     r0,r0,r6
        0x0000cad6:    f44061e0    @..a    ORR      r1,r0,#0x700
        0x0000cada:    4638        8F      MOV      r0,r7
        0x0000cadc:    f000f9d6    ....    BL       am_hal_flash_store_ui32 ; 0xce8c
        0x0000cae0:    9800        ..      LDR      r0,[sp,#0]
        0x0000cae2:    f7fffb91    ....    BL       am_hal_interrupt_master_set ; 0xc208
        0x0000cae6:    1c6d        m.      ADDS     r5,r5,#1
        0x0000cae8:    2d04        .-      CMP      r5,#4
        0x0000caea:    d3e7        ..      BCC      0xcabc ; am_hal_cachectrl_control + 424
        0x0000caec:    e73d        =.      B        0xc96a ; am_hal_cachectrl_control + 86
        0x0000caee:    2001        .       MOVS     r0,#1
        0x0000caf0:    f44f5140    O.@Q    MOV      r1,#0x3000
        0x0000caf4:    4c71        qL      LDR      r4,[pc,#452] ; [0xccbc] = 0x40018100
        0x0000caf6:    2500        .%      MOVS     r5,#0
        0x0000caf8:    ea013600    ...6    AND      r6,r1,r0,LSL #12
        0x0000cafc:    eb040785    ....    ADD      r7,r4,r5,LSL #2
        0x0000cb00:    f7fffb7e    ..~.    BL       am_hal_interrupt_master_disable ; 0xc200
        0x0000cb04:    9000        ..      STR      r0,[sp,#0]
        0x0000cb06:    4638        8F      MOV      r0,r7
        0x0000cb08:    f000f9bc    ....    BL       am_hal_flash_load_ui32 ; 0xce84
        0x0000cb0c:    f420507c     .|P    BIC      r0,r0,#0x3f00
        0x0000cb10:    4330        0C      ORRS     r0,r0,r6
        0x0000cb12:    e004        ..      B        0xcb1e ; am_hal_cachectrl_control + 522
        0x0000cb14:    e0ad        ..      B        0xcc72 ; am_hal_cachectrl_control + 862
        0x0000cb16:    e086        ..      B        0xcc26 ; am_hal_cachectrl_control + 786
        0x0000cb18:    e065        e.      B        0xcbe6 ; am_hal_cachectrl_control + 722
        0x0000cb1a:    e042        B.      B        0xcba2 ; am_hal_cachectrl_control + 654
        0x0000cb1c:    e0a2        ..      B        0xcc64 ; am_hal_cachectrl_control + 848
        0x0000cb1e:    f44061e0    @..a    ORR      r1,r0,#0x700
        0x0000cb22:    4638        8F      MOV      r0,r7
        0x0000cb24:    f000f9b2    ....    BL       am_hal_flash_store_ui32 ; 0xce8c
        0x0000cb28:    9800        ..      LDR      r0,[sp,#0]
        0x0000cb2a:    f7fffb6d    ..m.    BL       am_hal_interrupt_master_set ; 0xc208
        0x0000cb2e:    1c6d        m.      ADDS     r5,r5,#1
        0x0000cb30:    2d04        .-      CMP      r5,#4
        0x0000cb32:    d3e3        ..      BCC      0xcafc ; am_hal_cachectrl_control + 488
        0x0000cb34:    2006        .       MOVS     r0,#6
        0x0000cb36:    2500        .%      MOVS     r5,#0
        0x0000cb38:    2170        p!      MOVS     r1,#0x70
        0x0000cb3a:    ea011600    ....    AND      r6,r1,r0,LSL #4
        0x0000cb3e:    bf00        ..      NOP      
        0x0000cb40:    eb040785    ....    ADD      r7,r4,r5,LSL #2
        0x0000cb44:    f7fffb5c    ..\.    BL       am_hal_interrupt_master_disable ; 0xc200
        0x0000cb48:    9000        ..      STR      r0,[sp,#0]
        0x0000cb4a:    4638        8F      MOV      r0,r7
        0x0000cb4c:    f000f99a    ....    BL       am_hal_flash_load_ui32 ; 0xce84
        0x0000cb50:    f4206077     .w`    BIC      r0,r0,#0xf70
        0x0000cb54:    4330        0C      ORRS     r0,r0,r6
        0x0000cb56:    f44061e0    @..a    ORR      r1,r0,#0x700
        0x0000cb5a:    4638        8F      MOV      r0,r7
        0x0000cb5c:    f000f996    ....    BL       am_hal_flash_store_ui32 ; 0xce8c
        0x0000cb60:    9800        ..      LDR      r0,[sp,#0]
        0x0000cb62:    f7fffb51    ..Q.    BL       am_hal_interrupt_master_set ; 0xc208
        0x0000cb66:    1c6d        m.      ADDS     r5,r5,#1
        0x0000cb68:    2d04        .-      CMP      r5,#4
        0x0000cb6a:    d3e9        ..      BCC      0xcb40 ; am_hal_cachectrl_control + 556
        0x0000cb6c:    2601        .&      MOVS     r6,#1
        0x0000cb6e:    2500        .%      MOVS     r5,#0
        0x0000cb70:    eb040785    ....    ADD      r7,r4,r5,LSL #2
        0x0000cb74:    f7fffb44    ..D.    BL       am_hal_interrupt_master_disable ; 0xc200
        0x0000cb78:    9000        ..      STR      r0,[sp,#0]
        0x0000cb7a:    4638        8F      MOV      r0,r7
        0x0000cb7c:    f000f982    ....    BL       am_hal_flash_load_ui32 ; 0xce84
        0x0000cb80:    f020000f     ...    BIC      r0,r0,#0xf
        0x0000cb84:    f4206070     .p`    BIC      r0,r0,#0xf00
        0x0000cb88:    4330        0C      ORRS     r0,r0,r6
        0x0000cb8a:    f44061e0    @..a    ORR      r1,r0,#0x700
        0x0000cb8e:    4638        8F      MOV      r0,r7
        0x0000cb90:    f000f97c    ..|.    BL       am_hal_flash_store_ui32 ; 0xce8c
        0x0000cb94:    9800        ..      LDR      r0,[sp,#0]
        0x0000cb96:    f7fffb37    ..7.    BL       am_hal_interrupt_master_set ; 0xc208
        0x0000cb9a:    1c6d        m.      ADDS     r5,r5,#1
        0x0000cb9c:    2d04        .-      CMP      r5,#4
        0x0000cb9e:    d3e7        ..      BCC      0xcb70 ; am_hal_cachectrl_control + 604
        0x0000cba0:    e6e3        ..      B        0xc96a ; am_hal_cachectrl_control + 86
        0x0000cba2:    2900        .)      CMP      r1,#0
        0x0000cba4:    d073        s.      BEQ      0xcc8e ; am_hal_cachectrl_control + 890
        0x0000cba6:    6808        .h      LDR      r0,[r1,#0]
        0x0000cba8:    2803        .(      CMP      r0,#3
        0x0000cbaa:    d840        @.      BHI      0xcc2e ; am_hal_cachectrl_control + 794
        0x0000cbac:    f44f5140    O.@Q    MOV      r1,#0x3000
        0x0000cbb0:    4f42        BO      LDR      r7,[pc,#264] ; [0xccbc] = 0x40018100
        0x0000cbb2:    2400        .$      MOVS     r4,#0
        0x0000cbb4:    ea013500    ...5    AND      r5,r1,r0,LSL #12
        0x0000cbb8:    eb070684    ....    ADD      r6,r7,r4,LSL #2
        0x0000cbbc:    f7fffb20    .. .    BL       am_hal_interrupt_master_disable ; 0xc200
        0x0000cbc0:    9000        ..      STR      r0,[sp,#0]
        0x0000cbc2:    4630        0F      MOV      r0,r6
        0x0000cbc4:    f000f95e    ..^.    BL       am_hal_flash_load_ui32 ; 0xce84
        0x0000cbc8:    f420507c     .|P    BIC      r0,r0,#0x3f00
        0x0000cbcc:    4328        (C      ORRS     r0,r0,r5
        0x0000cbce:    f44061e0    @..a    ORR      r1,r0,#0x700
        0x0000cbd2:    4630        0F      MOV      r0,r6
        0x0000cbd4:    f000f95a    ..Z.    BL       am_hal_flash_store_ui32 ; 0xce8c
        0x0000cbd8:    9800        ..      LDR      r0,[sp,#0]
        0x0000cbda:    f7fffb15    ....    BL       am_hal_interrupt_master_set ; 0xc208
        0x0000cbde:    1c64        d.      ADDS     r4,r4,#1
        0x0000cbe0:    2c04        .,      CMP      r4,#4
        0x0000cbe2:    d3e9        ..      BCC      0xcbb8 ; am_hal_cachectrl_control + 676
        0x0000cbe4:    e6c1        ..      B        0xc96a ; am_hal_cachectrl_control + 86
        0x0000cbe6:    b3e9        ..      CBZ      r1,0xcc64 ; am_hal_cachectrl_control + 848
        0x0000cbe8:    6808        .h      LDR      r0,[r1,#0]
        0x0000cbea:    2807        .(      CMP      r0,#7
        0x0000cbec:    d81f        ..      BHI      0xcc2e ; am_hal_cachectrl_control + 794
        0x0000cbee:    2400        .$      MOVS     r4,#0
        0x0000cbf0:    2170        p!      MOVS     r1,#0x70
        0x0000cbf2:    4f32        2O      LDR      r7,[pc,#200] ; [0xccbc] = 0x40018100
        0x0000cbf4:    ea011600    ....    AND      r6,r1,r0,LSL #4
        0x0000cbf8:    eb070584    ....    ADD      r5,r7,r4,LSL #2
        0x0000cbfc:    f7fffb00    ....    BL       am_hal_interrupt_master_disable ; 0xc200
        0x0000cc00:    9000        ..      STR      r0,[sp,#0]
        0x0000cc02:    4628        (F      MOV      r0,r5
        0x0000cc04:    f000f93e    ..>.    BL       am_hal_flash_load_ui32 ; 0xce84
        0x0000cc08:    f4206077     .w`    BIC      r0,r0,#0xf70
        0x0000cc0c:    4330        0C      ORRS     r0,r0,r6
        0x0000cc0e:    f44061e0    @..a    ORR      r1,r0,#0x700
        0x0000cc12:    4628        (F      MOV      r0,r5
        0x0000cc14:    f000f93a    ..:.    BL       am_hal_flash_store_ui32 ; 0xce8c
        0x0000cc18:    9800        ..      LDR      r0,[sp,#0]
        0x0000cc1a:    f7fffaf5    ....    BL       am_hal_interrupt_master_set ; 0xc208
        0x0000cc1e:    1c64        d.      ADDS     r4,r4,#1
        0x0000cc20:    2c04        .,      CMP      r4,#4
        0x0000cc22:    d3e9        ..      BCC      0xcbf8 ; am_hal_cachectrl_control + 740
        0x0000cc24:    e6a1        ..      B        0xc96a ; am_hal_cachectrl_control + 86
        0x0000cc26:    b1e9        ..      CBZ      r1,0xcc64 ; am_hal_cachectrl_control + 848
        0x0000cc28:    6808        .h      LDR      r0,[r1,#0]
        0x0000cc2a:    280f        .(      CMP      r0,#0xf
        0x0000cc2c:    d901        ..      BLS      0xcc32 ; am_hal_cachectrl_control + 798
        0x0000cc2e:    2001        .       MOVS     r0,#1
        0x0000cc30:    bdf8        ..      POP      {r3-r7,pc}
        0x0000cc32:    4f22        "O      LDR      r7,[pc,#136] ; [0xccbc] = 0x40018100
        0x0000cc34:    2400        .$      MOVS     r4,#0
        0x0000cc36:    f000050f    ....    AND      r5,r0,#0xf
        0x0000cc3a:    bf00        ..      NOP      
        0x0000cc3c:    eb070684    ....    ADD      r6,r7,r4,LSL #2
        0x0000cc40:    f7fffade    ....    BL       am_hal_interrupt_master_disable ; 0xc200
        0x0000cc44:    9000        ..      STR      r0,[sp,#0]
        0x0000cc46:    4630        0F      MOV      r0,r6
        0x0000cc48:    f000f91c    ....    BL       am_hal_flash_load_ui32 ; 0xce84
        0x0000cc4c:    f020000f     ...    BIC      r0,r0,#0xf
        0x0000cc50:    f4206070     .p`    BIC      r0,r0,#0xf00
        0x0000cc54:    4328        (C      ORRS     r0,r0,r5
        0x0000cc56:    f44061e0    @..a    ORR      r1,r0,#0x700
        0x0000cc5a:    4630        0F      MOV      r0,r6
        0x0000cc5c:    f000f916    ....    BL       am_hal_flash_store_ui32 ; 0xce8c
        0x0000cc60:    9800        ..      LDR      r0,[sp,#0]
        0x0000cc62:    e000        ..      B        0xcc66 ; am_hal_cachectrl_control + 850
        0x0000cc64:    e013        ..      B        0xcc8e ; am_hal_cachectrl_control + 890
        0x0000cc66:    f7fffacf    ....    BL       am_hal_interrupt_master_set ; 0xc208
        0x0000cc6a:    1c64        d.      ADDS     r4,r4,#1
        0x0000cc6c:    2c04        .,      CMP      r4,#4
        0x0000cc6e:    d3e5        ..      BCC      0xcc3c ; am_hal_cachectrl_control + 808
        0x0000cc70:    e67b        {.      B        0xc96a ; am_hal_cachectrl_control + 86
        0x0000cc72:    b161        a.      CBZ      r1,0xcc8e ; am_hal_cachectrl_control + 890
        0x0000cc74:    684a        Jh      LDR      r2,[r1,#4]
        0x0000cc76:    4610        .F      MOV      r0,r2
        0x0000cc78:    f36f101a    o...    BFC      r0,#4,#23
        0x0000cc7c:    b938        8.      CBNZ     r0,0xcc8e ; am_hal_cachectrl_control + 890
        0x0000cc7e:    6888        .h      LDR      r0,[r1,#8]
        0x0000cc80:    f36f101a    o...    BFC      r0,#4,#23
        0x0000cc84:    b918        ..      CBNZ     r0,0xcc8e ; am_hal_cachectrl_control + 890
        0x0000cc86:    7808        .x      LDRB     r0,[r1,#0]
        0x0000cc88:    b118        ..      CBZ      r0,0xcc92 ; am_hal_cachectrl_control + 894
        0x0000cc8a:    2801        .(      CMP      r0,#1
        0x0000cc8c:    d00a        ..      BEQ      0xcca4 ; am_hal_cachectrl_control + 912
        0x0000cc8e:    2006        .       MOVS     r0,#6
        0x0000cc90:    bdf8        ..      POP      {r3-r7,pc}
        0x0000cc92:    4809        .H      LDR      r0,[pc,#36] ; [0xccb8] = 0x40018000
        0x0000cc94:    6102        .a      STR      r2,[r0,#0x10]
        0x0000cc96:    688a        .h      LDR      r2,[r1,#8]
        0x0000cc98:    6142        Ba      STR      r2,[r0,#0x14]
        0x0000cc9a:    784a        Jx      LDRB     r2,[r1,#1]
        0x0000cc9c:    6801        .h      LDR      r1,[r0,#0]
        0x0000cc9e:    f3620182    b...    BFI      r1,r2,#2,#1
        0x0000cca2:    e007        ..      B        0xccb4 ; am_hal_cachectrl_control + 928
        0x0000cca4:    4804        .H      LDR      r0,[pc,#16] ; [0xccb8] = 0x40018000
        0x0000cca6:    6182        .a      STR      r2,[r0,#0x18]
        0x0000cca8:    688a        .h      LDR      r2,[r1,#8]
        0x0000ccaa:    61c2        .a      STR      r2,[r0,#0x1c]
        0x0000ccac:    784a        Jx      LDRB     r2,[r1,#1]
        0x0000ccae:    6801        .h      LDR      r1,[r0,#0]
        0x0000ccb0:    f36201c3    b...    BFI      r1,r2,#3,#1
        0x0000ccb4:    6001        .`      STR      r1,[r0,#0]
        0x0000ccb6:    e658        X.      B        0xc96a ; am_hal_cachectrl_control + 86
    $d
        0x0000ccb8:    40018000    ...@    DCD    1073840128
        0x0000ccbc:    40018100    ...@    DCD    1073840384
    $t
    i.am_hal_cachectrl_enable
    am_hal_cachectrl_enable
        0x0000ccc0:    4803        .H      LDR      r0,[pc,#12] ; [0xccd0] = 0x40018000
        0x0000ccc2:    6801        .h      LDR      r1,[r0,#0]
        0x0000ccc4:    f0410101    A...    ORR      r1,r1,#1
        0x0000ccc8:    6001        .`      STR      r1,[r0,#0]
        0x0000ccca:    2000        .       MOVS     r0,#0
        0x0000cccc:    4770        pG      BX       lr
    $d
        0x0000ccce:    0000        ..      DCW    0
        0x0000ccd0:    40018000    ...@    DCD    1073840128
    $t
    i.am_hal_clkgen_control
    am_hal_clkgen_control
        0x0000ccd4:    b510        ..      PUSH     {r4,lr}
        0x0000ccd6:    460c        .F      MOV      r4,r1
        0x0000ccd8:    4939        9I      LDR      r1,[pc,#228] ; [0xcdc0] = 0x10001104
        0x0000ccda:    680a        .h      LDR      r2,[r1,#0]
        0x0000ccdc:    b912        ..      CBNZ     r2,0xcce4 ; am_hal_clkgen_control + 16
        0x0000ccde:    4a39        9J      LDR      r2,[pc,#228] ; [0xcdc4] = 0x4ffff000
        0x0000cce0:    6812        .h      LDR      r2,[r2,#0]
        0x0000cce2:    600a        .`      STR      r2,[r1,#0]
        0x0000cce4:    280a        .(      CMP      r0,#0xa
        0x0000cce6:    d269        i.      BCS      0xcdbc ; am_hal_clkgen_control + 232
        0x0000cce8:    e8dff000    ....    TBB      [pc,r0]
    $d
        0x0000ccec:    27151b05    ...'    DCD    655694597
        0x0000ccf0:    3a400c21    !.@:    DCD    977275937
        0x0000ccf4:    6047        G`      DCW    24647
    $t
        0x0000ccf6:    f04f2040    O.@     MOV      r0,#0x40004000
        0x0000ccfa:    2147        G!      MOVS     r1,#0x47
        0x0000ccfc:    6141        Aa      STR      r1,[r0,#0x14]
        0x0000ccfe:    2100        .!      MOVS     r1,#0
        0x0000cd00:    6181        .a      STR      r1,[r0,#0x18]
        0x0000cd02:    e006        ..      B        0xcd12 ; am_hal_clkgen_control + 62
        0x0000cd04:    f04f2040    O.@     MOV      r0,#0x40004000
        0x0000cd08:    2147        G!      MOVS     r1,#0x47
        0x0000cd0a:    6141        Aa      STR      r1,[r0,#0x14]
        0x0000cd0c:    2101        .!      MOVS     r1,#1
        0x0000cd0e:    6181        .a      STR      r1,[r0,#0x18]
        0x0000cd10:    2100        .!      MOVS     r1,#0
        0x0000cd12:    6141        Aa      STR      r1,[r0,#0x14]
        0x0000cd14:    e050        P.      B        0xcdb8 ; am_hal_clkgen_control + 228
        0x0000cd16:    f04f2040    O.@     MOV      r0,#0x40004000
        0x0000cd1a:    68c1        .h      LDR      r1,[r0,#0xc]
        0x0000cd1c:    f0210102    !...    BIC      r1,r1,#2
        0x0000cd20:    e029        ).      B        0xcd76 ; am_hal_clkgen_control + 162
        0x0000cd22:    f04f2040    O.@     MOV      r0,#0x40004000
        0x0000cd26:    68c1        .h      LDR      r1,[r0,#0xc]
        0x0000cd28:    f0210101    !...    BIC      r1,r1,#1
        0x0000cd2c:    e023        #.      B        0xcd76 ; am_hal_clkgen_control + 162
        0x0000cd2e:    f04f2040    O.@     MOV      r0,#0x40004000
        0x0000cd32:    68c1        .h      LDR      r1,[r0,#0xc]
        0x0000cd34:    f0410102    A...    ORR      r1,r1,#2
        0x0000cd38:    e01d        ..      B        0xcd76 ; am_hal_clkgen_control + 162
        0x0000cd3a:    4823        #H      LDR      r0,[pc,#140] ; [0xcdc8] = 0x40020000
        0x0000cd3c:    68c1        .h      LDR      r1,[r0,#0xc]
        0x0000cd3e:    b2c9        ..      UXTB     r1,r1
        0x0000cd40:    2921        !)      CMP      r1,#0x21
        0x0000cd42:    d307        ..      BCC      0xcd54 ; am_hal_clkgen_control + 128
        0x0000cd44:    f8d01120    .. .    LDR      r1,[r0,#0x120]
        0x0000cd48:    f4217140    !.@q    BIC      r1,r1,#0x300
        0x0000cd4c:    f5017180    ...q    ADD      r1,r1,#0x100
        0x0000cd50:    f8c01120    .. .    STR      r1,[r0,#0x120]
        0x0000cd54:    f04f2040    O.@     MOV      r0,#0x40004000
        0x0000cd58:    68c1        .h      LDR      r1,[r0,#0xc]
        0x0000cd5a:    f0410101    A...    ORR      r1,r1,#1
        0x0000cd5e:    e00a        ..      B        0xcd76 ; am_hal_clkgen_control + 162
        0x0000cd60:    f04f2040    O.@     MOV      r0,#0x40004000
        0x0000cd64:    68c1        .h      LDR      r1,[r0,#0xc]
        0x0000cd66:    f0410180    A...    ORR      r1,r1,#0x80
        0x0000cd6a:    e004        ..      B        0xcd76 ; am_hal_clkgen_control + 162
        0x0000cd6c:    f04f2040    O.@     MOV      r0,#0x40004000
        0x0000cd70:    68c1        .h      LDR      r1,[r0,#0xc]
        0x0000cd72:    f0210180    !...    BIC      r1,r1,#0x80
        0x0000cd76:    60c1        .`      STR      r1,[r0,#0xc]
        0x0000cd78:    e01e        ..      B        0xcdb8 ; am_hal_clkgen_control + 228
        0x0000cd7a:    4813        .H      LDR      r0,[pc,#76] ; [0xcdc8] = 0x40020000
        0x0000cd7c:    68c1        .h      LDR      r1,[r0,#0xc]
        0x0000cd7e:    b2c9        ..      UXTB     r1,r1
        0x0000cd80:    2921        !)      CMP      r1,#0x21
        0x0000cd82:    d309        ..      BCC      0xcd98 ; am_hal_clkgen_control + 196
        0x0000cd84:    f8d01120    .. .    LDR      r1,[r0,#0x120]
        0x0000cd88:    f4417140    A.@q    ORR      r1,r1,#0x300
        0x0000cd8c:    f8c01120    .. .    STR      r1,[r0,#0x120]
        0x0000cd90:    f44f507a    O.zP    MOV      r0,#0x3e80
        0x0000cd94:    f000f836    ..6.    BL       am_hal_flash_delay ; 0xce04
        0x0000cd98:    2c00        .,      CMP      r4,#0
        0x0000cd9a:    bf0c        ..      ITE      EQ
        0x0000cd9c:    480b        .H      LDREQ    r0,[pc,#44] ; [0xcdcc] = 0x25b801
        0x0000cd9e:    6820         h      LDRNE    r0,[r4,#0]
        0x0000cda0:    f0400001    @...    ORR      r0,r0,#1
        0x0000cda4:    f04f2140    O.@!    MOV      r1,#0x40004000
        0x0000cda8:    6208        .b      STR      r0,[r1,#0x20]
        0x0000cdaa:    e005        ..      B        0xcdb8 ; am_hal_clkgen_control + 228
        0x0000cdac:    f04f2040    O.@     MOV      r0,#0x40004000
        0x0000cdb0:    6a01        .j      LDR      r1,[r0,#0x20]
        0x0000cdb2:    f0210101    !...    BIC      r1,r1,#1
        0x0000cdb6:    6201        .b      STR      r1,[r0,#0x20]
        0x0000cdb8:    2000        .       MOVS     r0,#0
        0x0000cdba:    bd10        ..      POP      {r4,pc}
        0x0000cdbc:    2006        .       MOVS     r0,#6
        0x0000cdbe:    bd10        ..      POP      {r4,pc}
    $d
        0x0000cdc0:    10001104    ....    DCD    268439812
        0x0000cdc4:    4ffff000    ...O    DCD    1342173184
        0x0000cdc8:    40020000    ...@    DCD    1073872896
        0x0000cdcc:    0025b801    ..%.    DCD    2471937
    $t
    i.am_hal_clkgen_status_get
    am_hal_clkgen_status_get
        0x0000cdd0:    2800        .(      CMP      r0,#0
        0x0000cdd2:    bf04        ..      ITT      EQ
        0x0000cdd4:    2006        .       MOVEQ    r0,#6
        0x0000cdd6:    4770        pG      BXEQ     lr
        0x0000cdd8:    f04f2140    O.@!    MOV      r1,#0x40004000
        0x0000cddc:    698a        .i      LDR      r2,[r1,#0x18]
        0x0000cdde:    f0120f01    ....    TST      r2,#1
        0x0000cde2:    bf14        ..      ITE      NE
        0x0000cde4:    4a05        .J      LDRNE    r2,[pc,#20] ; [0xcdfc] = 0x16e3600
        0x0000cde6:    4a06        .J      LDREQ    r2,[pc,#24] ; [0xce00] = 0x2dc6c00
        0x0000cde8:    6002        .`      STR      r2,[r0,#0]
        0x0000cdea:    69c9        .i      LDR      r1,[r1,#0x1c]
        0x0000cdec:    f0010201    ....    AND      r2,r1,#1
        0x0000cdf0:    f3c10140    ..@.    UBFX     r1,r1,#1,#1
        0x0000cdf4:    6042        B`      STR      r2,[r0,#4]
        0x0000cdf6:    7201        .r      STRB     r1,[r0,#8]
        0x0000cdf8:    2000        .       MOVS     r0,#0
        0x0000cdfa:    4770        pG      BX       lr
    $d
        0x0000cdfc:    016e3600    .6n.    DCD    24000000
        0x0000ce00:    02dc6c00    .l..    DCD    48000000
    $t
    i.am_hal_flash_delay
    am_hal_flash_delay
        0x0000ce04:    f04f2140    O.@!    MOV      r1,#0x40004000
        0x0000ce08:    6b49        Ik      LDR      r1,[r1,#0x34]
        0x0000ce0a:    f0110f04    ....    TST      r1,#4
        0x0000ce0e:    bf1a        ..      ITTE     NE
        0x0000ce10:    0040        @.      LSLNE    r0,r0,#1
        0x0000ce12:    210e        .!      MOVNE    r1,#0xe
        0x0000ce14:    210b        .!      MOVEQ    r1,#0xb
        0x0000ce16:    4288        .B      CMP      r0,r1
        0x0000ce18:    bf98        ..      IT       LS
        0x0000ce1a:    4770        pG      BXLS     lr
        0x0000ce1c:    1a40        @.      SUBS     r0,r0,r1
        0x0000ce1e:    4901        .I      LDR      r1,[pc,#4] ; [0xce24] = 0x800009d
        0x0000ce20:    4708        .G      BX       r1
    $d
        0x0000ce22:    0000        ..      DCW    0
        0x0000ce24:    0800009d    ....    DCD    134217885
    $t
    i.am_hal_flash_delay_status_check
    am_hal_flash_delay_status_check
        0x0000ce28:    e92d47f0    -..G    PUSH     {r4-r10,lr}
        0x0000ce2c:    f8dfa050    ..P.    LDR      r10,[pc,#80] ; [0xce80] = 0x800009d
        0x0000ce30:    f8dd8020    .. .    LDR      r8,[sp,#0x20]
        0x0000ce34:    461c        .F      MOV      r4,r3
        0x0000ce36:    4615        .F      MOV      r5,r2
        0x0000ce38:    460e        .F      MOV      r6,r1
        0x0000ce3a:    4607        .F      MOV      r7,r0
        0x0000ce3c:    f04f2940    O.@)    MOV      r9,#0x40004000
        0x0000ce40:    6830        0h      LDR      r0,[r6,#0]
        0x0000ce42:    f1b80f00    ....    CMP      r8,#0
        0x0000ce46:    ea000005    ....    AND      r0,r0,r5
        0x0000ce4a:    d002        ..      BEQ      0xce52 ; am_hal_flash_delay_status_check + 42
        0x0000ce4c:    42a0        .B      CMP      r0,r4
        0x0000ce4e:    d002        ..      BEQ      0xce56 ; am_hal_flash_delay_status_check + 46
        0x0000ce50:    e004        ..      B        0xce5c ; am_hal_flash_delay_status_check + 52
        0x0000ce52:    42a0        .B      CMP      r0,r4
        0x0000ce54:    d002        ..      BEQ      0xce5c ; am_hal_flash_delay_status_check + 52
        0x0000ce56:    2000        .       MOVS     r0,#0
        0x0000ce58:    e8bd87f0    ....    POP      {r4-r10,pc}
        0x0000ce5c:    1e7f        ..      SUBS     r7,r7,#1
        0x0000ce5e:    d30b        ..      BCC      0xce78 ; am_hal_flash_delay_status_check + 80
        0x0000ce60:    f8d91034    ..4.    LDR      r1,[r9,#0x34]
        0x0000ce64:    2010        .       MOVS     r0,#0x10
        0x0000ce66:    f0110f04    ....    TST      r1,#4
        0x0000ce6a:    bf1a        ..      ITTE     NE
        0x0000ce6c:    2020                MOVNE    r0,#0x20
        0x0000ce6e:    210e        .!      MOVNE    r1,#0xe
        0x0000ce70:    210b        .!      MOVEQ    r1,#0xb
        0x0000ce72:    1a40        @.      SUBS     r0,r0,r1
        0x0000ce74:    47d0        .G      BLX      r10
        0x0000ce76:    e7e3        ..      B        0xce40 ; am_hal_flash_delay_status_check + 24
        0x0000ce78:    2004        .       MOVS     r0,#4
        0x0000ce7a:    e8bd87f0    ....    POP      {r4-r10,pc}
    $d
        0x0000ce7e:    0000        ..      DCW    0
        0x0000ce80:    0800009d    ....    DCD    134217885
    $t
    i.am_hal_flash_load_ui32
    am_hal_flash_load_ui32
        0x0000ce84:    4900        .I      LDR      r1,[pc,#0] ; [0xce88] = 0x8000075
        0x0000ce86:    4708        .G      BX       r1
    $d
        0x0000ce88:    08000075    u...    DCD    134217845
    $t
    i.am_hal_flash_store_ui32
    am_hal_flash_store_ui32
        0x0000ce8c:    b500        ..      PUSH     {lr}
        0x0000ce8e:    f8dfc020    .. .    LDR      r12,[pc,#32] ; [0xceb0] = 0x11070
        0x0000ce92:    b083        ..      SUB      sp,sp,#0xc
        0x0000ce94:    e9dc2300    ...#    LDRD     r2,r3,[r12,#0]
        0x0000ce98:    f8dcc008    ....    LDR      r12,[r12,#8]
        0x0000ce9c:    e9cd2300    ...#    STRD     r2,r3,[sp,#0]
        0x0000cea0:    466a        jF      MOV      r2,sp
        0x0000cea2:    f8cdc008    ....    STR      r12,[sp,#8]
        0x0000cea6:    f0420201    B...    ORR      r2,r2,#1
        0x0000ceaa:    4790        .G      BLX      r2
        0x0000ceac:    b003        ..      ADD      sp,sp,#0xc
        0x0000ceae:    bd00        ..      POP      {pc}
    $d
        0x0000ceb0:    00011070    p...    DCD    69744
    $t
    i.am_hal_gpio_pinconfig
    am_hal_gpio_pinconfig
        0x0000ceb4:    e92d4ff0    -..O    PUSH     {r4-r11,lr}
        0x0000ceb8:    2500        .%      MOVS     r5,#0
        0x0000ceba:    b08b        ..      SUB      sp,sp,#0x2c
        0x0000cebc:    4604        .F      MOV      r4,r0
        0x0000cebe:    284a        J(      CMP      r0,#0x4a
        0x0000cec0:    bf22        ".      ITTT     CS
        0x0000cec2:    2006        .       MOVCS    r0,#6
        0x0000cec4:    b00b        ..      ADDCS    sp,sp,#0x2c
        0x0000cec6:    e8bd8ff0    ....    POPCS    {r4-r11,pc}
        0x0000ceca:    2200        ."      MOVS     r2,#0
        0x0000cecc:    f0010c07    ....    AND      r12,r1,#7
        0x0000ced0:    4f8b        .O      LDR      r7,[pc,#556] ; [0xd100] = 0x110ca
        0x0000ced2:    f3c103c1    ....    UBFX     r3,r1,#3,#2
        0x0000ced6:    ea4200cc    B...    ORR      r0,r2,r12,LSL #3
        0x0000ceda:    f0110fe0    ....    TST      r1,#0xe0
        0x0000cede:    d021        !.      BEQ      0xcf24 ; am_hal_gpio_pinconfig + 112
        0x0000cee0:    f3c11642    ..B.    UBFX     r6,r1,#5,#3
        0x0000cee4:    f1a60902    ....    SUB      r9,r6,#2
        0x0000cee8:    f8df8218    ....    LDR      r8,[pc,#536] ; [0xd104] = 0x8000100
        0x0000ceec:    f0400001    @...    ORR      r0,r0,#1
        0x0000cef0:    f1b90f03    ....    CMP      r9,#3
        0x0000cef4:    d809        ..      BHI      0xcf0a ; am_hal_gpio_pinconfig + 86
        0x0000cef6:    f06f097f    o...    MVN      r9,#0x7f
        0x0000cefa:    eb091686    ....    ADD      r6,r9,r6,LSL #6
        0x0000cefe:    4330        0C      ORRS     r0,r0,r6
        0x0000cf00:    5d3e        >]      LDRB     r6,[r7,r4]
        0x0000cf02:    f0160f01    ....    TST      r6,#1
        0x0000cf06:    d10d        ..      BNE      0xcf24 ; am_hal_gpio_pinconfig + 112
        0x0000cf08:    e012        ..      B        0xcf30 ; am_hal_gpio_pinconfig + 124
        0x0000cf0a:    2e06        ..      CMP      r6,#6
        0x0000cf0c:    d004        ..      BEQ      0xcf18 ; am_hal_gpio_pinconfig + 100
        0x0000cf0e:    2e01        ..      CMP      r6,#1
        0x0000cf10:    bf08        ..      IT       EQ
        0x0000cf12:    2c14        .,      CMPEQ    r4,#0x14
        0x0000cf14:    d00c        ..      BEQ      0xcf30 ; am_hal_gpio_pinconfig + 124
        0x0000cf16:    e005        ..      B        0xcf24 ; am_hal_gpio_pinconfig + 112
        0x0000cf18:    2c14        .,      CMP      r4,#0x14
        0x0000cf1a:    bf1e        ..      ITTT     NE
        0x0000cf1c:    487a        zH      LDRNE    r0,[pc,#488] ; [0xd108] = 0x8000101
        0x0000cf1e:    b00b        ..      ADDNE    sp,sp,#0x2c
        0x0000cf20:    e8bd8ff0    ....    POPNE    {r4-r11,pc}
        0x0000cf24:    b17b        {.      CBZ      r3,0xcf46 ; am_hal_gpio_pinconfig + 146
        0x0000cf26:    2b01        .+      CMP      r3,#1
        0x0000cf28:    d006        ..      BEQ      0xcf38 ; am_hal_gpio_pinconfig + 132
        0x0000cf2a:    2b02        .+      CMP      r3,#2
        0x0000cf2c:    d022        ".      BEQ      0xcf74 ; am_hal_gpio_pinconfig + 192
        0x0000cf2e:    e028        (.      B        0xcf82 ; am_hal_gpio_pinconfig + 206
        0x0000cf30:    b00b        ..      ADD      sp,sp,#0x2c
        0x0000cf32:    4640        @F      MOV      r0,r8
        0x0000cf34:    e8bd8ff0    ....    POP      {r4-r11,pc}
        0x0000cf38:    5d3b        ;]      LDRB     r3,[r7,r4]
        0x0000cf3a:    f0130f02    ....    TST      r3,#2
        0x0000cf3e:    bf18        ..      IT       NE
        0x0000cf40:    f0400040    @.@.    ORRNE    r0,r0,#0x40
        0x0000cf44:    d01d        ..      BEQ      0xcf82 ; am_hal_gpio_pinconfig + 206
        0x0000cf46:    4b71        qK      LDR      r3,[pc,#452] ; [0xd10c] = 0x11080
        0x0000cf48:    5d1e        .]      LDRB     r6,[r3,r4]
        0x0000cf4a:    2301        .#      MOVS     r3,#1
        0x0000cf4c:    fa03f30c    ....    LSL      r3,r3,r12
        0x0000cf50:    4033        3@      ANDS     r3,r3,r6
        0x0000cf52:    bf18        ..      IT       NE
        0x0000cf54:    2302        .#      MOVNE    r3,#2
        0x0000cf56:    4318        .C      ORRS     r0,r0,r3
        0x0000cf58:    4b6d        mK      LDR      r3,[pc,#436] ; [0xd110] = 0x11114
        0x0000cf5a:    5d1b        .]      LDRB     r3,[r3,r4]
        0x0000cf5c:    4563        cE      CMP      r3,r12
        0x0000cf5e:    d13f        ?.      BNE      0xcfe0 ; am_hal_gpio_pinconfig + 300
        0x0000cf60:    f8dfc1b0    ....    LDR      r12,[pc,#432] ; [0xd114] = 0x8000103
        0x0000cf64:    f4113f80    ...?    TST      r1,#0x10000
        0x0000cf68:    f3c14342    ..BC    UBFX     r3,r1,#17,#3
        0x0000cf6c:    d00d        ..      BEQ      0xcf8a ; am_hal_gpio_pinconfig + 214
        0x0000cf6e:    2b06        .+      CMP      r3,#6
        0x0000cf70:    d20d        ..      BCS      0xcf8e ; am_hal_gpio_pinconfig + 218
        0x0000cf72:    e010        ..      B        0xcf96 ; am_hal_gpio_pinconfig + 226
        0x0000cf74:    5d3b        ;]      LDRB     r3,[r7,r4]
        0x0000cf76:    f0130f04    ....    TST      r3,#4
        0x0000cf7a:    bf18        ..      IT       NE
        0x0000cf7c:    f0400080    @...    ORRNE    r0,r0,#0x80
        0x0000cf80:    d1e1        ..      BNE      0xcf46 ; am_hal_gpio_pinconfig + 146
        0x0000cf82:    b00b        ..      ADD      sp,sp,#0x2c
        0x0000cf84:    4864        dH      LDR      r0,[pc,#400] ; [0xd118] = 0x8000102
        0x0000cf86:    e8bd8ff0    ....    POP      {r4-r11,pc}
        0x0000cf8a:    2b03        .+      CMP      r3,#3
        0x0000cf8c:    d303        ..      BCC      0xcf96 ; am_hal_gpio_pinconfig + 226
        0x0000cf8e:    b00b        ..      ADD      sp,sp,#0x2c
        0x0000cf90:    4660        `F      MOV      r0,r12
        0x0000cf92:    e8bd8ff0    ....    POP      {r4-r11,pc}
        0x0000cf96:    f3c14c00    ...L    UBFX     r12,r1,#16,#1
        0x0000cf9a:    ea4f1ccc    O...    LSL      r12,r12,#7
        0x0000cf9e:    f3c15601    ...V    UBFX     r6,r1,#20,#2
        0x0000cfa2:    ea4c1c06    L...    ORR      r12,r12,r6,LSL #4
        0x0000cfa6:    ea4c0603    L...    ORR      r6,r12,r3
        0x0000cfaa:    f8dfc170    ..p.    LDR      r12,[pc,#368] ; [0xd11c] = 0x1115e
        0x0000cfae:    2300        .#      MOVS     r3,#0
        0x0000cfb0:    eb0c0c84    ....    ADD      r12,r12,r4,LSL #2
        0x0000cfb4:    f81c7003    ...p    LDRB     r7,[r12,r3]
        0x0000cfb8:    42b7        .B      CMP      r7,r6
        0x0000cfba:    d003        ..      BEQ      0xcfc4 ; am_hal_gpio_pinconfig + 272
        0x0000cfbc:    1c5b        [.      ADDS     r3,r3,#1
        0x0000cfbe:    2b04        .+      CMP      r3,#4
        0x0000cfc0:    d3f8        ..      BCC      0xcfb4 ; am_hal_gpio_pinconfig + 256
        0x0000cfc2:    e001        ..      B        0xcfc8 ; am_hal_gpio_pinconfig + 276
        0x0000cfc4:    2b04        .+      CMP      r3,#4
        0x0000cfc6:    d303        ..      BCC      0xcfd0 ; am_hal_gpio_pinconfig + 284
        0x0000cfc8:    b00b        ..      ADD      sp,sp,#0x2c
        0x0000cfca:    4855        UH      LDR      r0,[pc,#340] ; [0xd120] = 0x8000104
        0x0000cfcc:    e8bd8ff0    ....    POP      {r4-r11,pc}
        0x0000cfd0:    005b        [.      LSLS     r3,r3,#1
        0x0000cfd2:    f3c15c80    ...\    UBFX     r12,r1,#22,#1
        0x0000cfd6:    ea430ccc    C...    ORR      r12,r3,r12,LSL #3
        0x0000cfda:    ea4c0302    L...    ORR      r3,r12,r2
        0x0000cfde:    e022        ".      B        0xd026 ; am_hal_gpio_pinconfig + 370
        0x0000cfe0:    f3c13300    ...3    UBFX     r3,r1,#12,#1
        0x0000cfe4:    f3c12c81    ...,    UBFX     r12,r1,#10,#2
        0x0000cfe8:    ea400043    @.C.    ORR      r0,r0,r3,LSL #1
        0x0000cfec:    ea4f034c    O.L.    LSL      r3,r12,#1
        0x0000cff0:    f3c13640    ..@6    UBFX     r6,r1,#13,#1
        0x0000cff4:    ea4303c6    C...    ORR      r3,r3,r6,LSL #3
        0x0000cff8:    f3c13641    ..A6    UBFX     r6,r1,#13,#2
        0x0000cffc:    ea430356    C.V.    ORR      r3,r3,r6,LSR #1
        0x0000d000:    f1bc0f01    ....    CMP      r12,#1
        0x0000d004:    d005        ..      BEQ      0xd012 ; am_hal_gpio_pinconfig + 350
        0x0000d006:    f8dfc11c    ....    LDR      r12,[pc,#284] ; [0xd124] = 0x1107c
        0x0000d00a:    f8dcc000    ....    LDR      r12,[r12,#0]
        0x0000d00e:    4561        aE      CMP      r1,r12
        0x0000d010:    d100        ..      BNE      0xd014 ; am_hal_gpio_pinconfig + 352
        0x0000d012:    2501        .%      MOVS     r5,#1
        0x0000d014:    f4114fc0    ...O    TST      r1,#0x6000
        0x0000d018:    d105        ..      BNE      0xd026 ; am_hal_gpio_pinconfig + 370
        0x0000d01a:    f0230301    #...    BIC      r3,r3,#1
        0x0000d01e:    f3c13cc0    ...<    UBFX     r12,r1,#15,#1
        0x0000d022:    ea4c0303    L...    ORR      r3,r12,r3
        0x0000d026:    f3c12101    ...!    UBFX     r1,r1,#8,#2
        0x0000d02a:    b179        y.      CBZ      r1,0xd04c ; am_hal_gpio_pinconfig + 408
        0x0000d02c:    2901        .)      CMP      r1,#1
        0x0000d02e:    bf08        ..      IT       EQ
        0x0000d030:    f0400004    @...    ORREQ    r0,r0,#4
        0x0000d034:    d00a        ..      BEQ      0xd04c ; am_hal_gpio_pinconfig + 408
        0x0000d036:    2902        .)      CMP      r1,#2
        0x0000d038:    bf08        ..      IT       EQ
        0x0000d03a:    f0420201    B...    ORREQ    r2,r2,#1
        0x0000d03e:    d005        ..      BEQ      0xd04c ; am_hal_gpio_pinconfig + 408
        0x0000d040:    2903        .)      CMP      r1,#3
        0x0000d042:    bf04        ..      ITT      EQ
        0x0000d044:    f0400004    @...    ORREQ    r0,r0,#4
        0x0000d048:    f0420201    B...    ORREQ    r2,r2,#1
        0x0000d04c:    f06f0103    o...    MVN      r1,#3
        0x0000d050:    ea010c54    ..T.    AND      r12,r1,r4,LSR #1
        0x0000d054:    4934        4I      LDR      r1,[pc,#208] ; [0xd128] = 0x4001004c
        0x0000d056:    260f        .&      MOVS     r6,#0xf
        0x0000d058:    eb0c0901    ....    ADD      r9,r12,r1
        0x0000d05c:    f0240103    $...    BIC      r1,r4,#3
        0x0000d060:    f8dfc0c8    ....    LDR      r12,[pc,#200] ; [0xd12c] = 0x400100f8
        0x0000d064:    f1014880    ...H    ADD      r8,r1,#0x40000000
        0x0000d068:    eb01070c    ....    ADD      r7,r1,r12
        0x0000d06c:    0761        a.      LSLS     r1,r4,#29
        0x0000d06e:    ea4f6cd1    O..l    LSR      r12,r1,#27
        0x0000d072:    07a1        ..      LSLS     r1,r4,#30
        0x0000d074:    0ec9        ..      LSRS     r1,r1,#27
        0x0000d076:    fa06f60c    ....    LSL      r6,r6,r12
        0x0000d07a:    ea6f0a06    o...    MVN      r10,r6
        0x0000d07e:    26ff        .&      MOVS     r6,#0xff
        0x0000d080:    408e        .@      LSLS     r6,r6,r1
        0x0000d082:    4088        .@      LSLS     r0,r0,r1
        0x0000d084:    9000        ..      STR      r0,[sp,#0]
        0x0000d086:    fa02f001    ....    LSL      r0,r2,r1
        0x0000d08a:    f5083880    ...8    ADD      r8,r8,#0x10000
        0x0000d08e:    43f6        .C      MVNS     r6,r6
        0x0000d090:    fa03fb0c    ....    LSL      r11,r3,r12
        0x0000d094:    9002        ..      STR      r0,[sp,#8]
        0x0000d096:    f7fff8b3    ....    BL       am_hal_interrupt_master_disable ; 0xc200
        0x0000d09a:    9003        ..      STR      r0,[sp,#0xc]
        0x0000d09c:    b16d        m.      CBZ      r5,0xd0ba ; am_hal_gpio_pinconfig + 518
        0x0000d09e:    f004011f    ....    AND      r1,r4,#0x1f
        0x0000d0a2:    2001        .       MOVS     r0,#1
        0x0000d0a4:    fa00f101    ....    LSL      r1,r0,r1
        0x0000d0a8:    200c        .       MOVS     r0,#0xc
        0x0000d0aa:    ea0000d4    ....    AND      r0,r0,r4,LSR #3
        0x0000d0ae:    f1004080    ...@    ADD      r0,r0,#0x40000000
        0x0000d0b2:    f5003080    ...0    ADD      r0,r0,#0x10000
        0x0000d0b6:    f8c010c8    ....    STR      r1,[r0,#0xc8]
        0x0000d0ba:    481d        .H      LDR      r0,[pc,#116] ; [0xd130] = 0x40010000
        0x0000d0bc:    2173        s!      MOVS     r1,#0x73
        0x0000d0be:    6741        Ag      STR      r1,[r0,#0x74]
        0x0000d0c0:    f8d81000    ....    LDR      r1,[r8,#0]
        0x0000d0c4:    ea010206    ....    AND      r2,r1,r6
        0x0000d0c8:    9900        ..      LDR      r1,[sp,#0]
        0x0000d0ca:    4311        .C      ORRS     r1,r1,r2
        0x0000d0cc:    f8c81000    ....    STR      r1,[r8,#0]
        0x0000d0d0:    f8d91000    ....    LDR      r1,[r9,#0]
        0x0000d0d4:    ea01010a    ....    AND      r1,r1,r10
        0x0000d0d8:    ea41010b    A...    ORR      r1,r1,r11
        0x0000d0dc:    f8c91000    ....    STR      r1,[r9,#0]
        0x0000d0e0:    6839        9h      LDR      r1,[r7,#0]
        0x0000d0e2:    ea010206    ....    AND      r2,r1,r6
        0x0000d0e6:    9902        ..      LDR      r1,[sp,#8]
        0x0000d0e8:    4311        .C      ORRS     r1,r1,r2
        0x0000d0ea:    6039        9`      STR      r1,[r7,#0]
        0x0000d0ec:    2100        .!      MOVS     r1,#0
        0x0000d0ee:    6741        Ag      STR      r1,[r0,#0x74]
        0x0000d0f0:    9803        ..      LDR      r0,[sp,#0xc]
        0x0000d0f2:    f7fff889    ....    BL       am_hal_interrupt_master_set ; 0xc208
        0x0000d0f6:    b00b        ..      ADD      sp,sp,#0x2c
        0x0000d0f8:    2000        .       MOVS     r0,#0
        0x0000d0fa:    e8bd8ff0    ....    POP      {r4-r11,pc}
    $d
        0x0000d0fe:    0000        ..      DCW    0
        0x0000d100:    000110ca    ....    DCD    69834
        0x0000d104:    08000100    ....    DCD    134217984
        0x0000d108:    08000101    ....    DCD    134217985
        0x0000d10c:    00011080    ....    DCD    69760
        0x0000d110:    00011114    ....    DCD    69908
        0x0000d114:    08000103    ....    DCD    134217987
        0x0000d118:    08000102    ....    DCD    134217986
        0x0000d11c:    0001115e    ^...    DCD    69982
        0x0000d120:    08000104    ....    DCD    134217988
        0x0000d124:    0001107c    |...    DCD    69756
        0x0000d128:    4001004c    L..@    DCD    1073807436
        0x0000d12c:    400100f8    ...@    DCD    1073807608
        0x0000d130:    40010000    ...@    DCD    1073807360
    $t
    i.am_hal_gpio_state_write
    am_hal_gpio_state_write
        0x0000d134:    b5f8        ..      PUSH     {r3-r7,lr}
        0x0000d136:    2700        .'      MOVS     r7,#0
        0x0000d138:    460d        .F      MOV      r5,r1
        0x0000d13a:    4606        .F      MOV      r6,r0
        0x0000d13c:    284a        J(      CMP      r0,#0x4a
        0x0000d13e:    bf24        $.      ITT      CS
        0x0000d140:    2005        .       MOVCS    r0,#5
        0x0000d142:    bdf8        ..      POPCS    {r3-r7,pc}
        0x0000d144:    2d05        .-      CMP      r5,#5
        0x0000d146:    bf84        ..      ITT      HI
        0x0000d148:    2006        .       MOVHI    r0,#6
        0x0000d14a:    bdf8        ..      POPHI    {r3-r7,pc}
        0x0000d14c:    f006001f    ....    AND      r0,r6,#0x1f
        0x0000d150:    2101        .!      MOVS     r1,#1
        0x0000d152:    fa01f400    ....    LSL      r4,r1,r0
        0x0000d156:    f7fff853    ..S.    BL       am_hal_interrupt_master_disable ; 0xc200
        0x0000d15a:    9000        ..      STR      r0,[sp,#0]
        0x0000d15c:    200c        .       MOVS     r0,#0xc
        0x0000d15e:    ea0000d6    ....    AND      r0,r0,r6,LSR #3
        0x0000d162:    f1004080    ...@    ADD      r0,r0,#0x40000000
        0x0000d166:    f5003080    ...0    ADD      r0,r0,#0x10000
        0x0000d16a:    2d06        .-      CMP      r5,#6
        0x0000d16c:    d21c        ..      BCS      0xd1a8 ; am_hal_gpio_state_write + 116
        0x0000d16e:    e8dff005    ....    TBB      [pc,r5]
    $d
        0x0000d172:    0306        ..      DCW    774
        0x0000d174:    150f1209    ....    DCD    353309193
    $t
        0x0000d178:    f8c04098    ...@    STR      r4,[r0,#0x98]
        0x0000d17c:    e015        ..      B        0xd1aa ; am_hal_gpio_state_write + 118
        0x0000d17e:    f8c040a4    ...@    STR      r4,[r0,#0xa4]
        0x0000d182:    e012        ..      B        0xd1aa ; am_hal_gpio_state_write + 118
        0x0000d184:    f8d0108c    ....    LDR      r1,[r0,#0x8c]
        0x0000d188:    4061        a@      EORS     r1,r1,r4
        0x0000d18a:    f8c0108c    ....    STR      r1,[r0,#0x8c]
        0x0000d18e:    e00c        ..      B        0xd1aa ; am_hal_gpio_state_write + 118
        0x0000d190:    f8c040bc    ...@    STR      r4,[r0,#0xbc]
        0x0000d194:    e009        ..      B        0xd1aa ; am_hal_gpio_state_write + 118
        0x0000d196:    f8c040c8    ...@    STR      r4,[r0,#0xc8]
        0x0000d19a:    e006        ..      B        0xd1aa ; am_hal_gpio_state_write + 118
        0x0000d19c:    f8d010c8    ....    LDR      r1,[r0,#0xc8]
        0x0000d1a0:    4061        a@      EORS     r1,r1,r4
        0x0000d1a2:    f8c010c8    ....    STR      r1,[r0,#0xc8]
        0x0000d1a6:    e000        ..      B        0xd1aa ; am_hal_gpio_state_write + 118
        0x0000d1a8:    2706        .'      MOVS     r7,#6
        0x0000d1aa:    9800        ..      LDR      r0,[sp,#0]
        0x0000d1ac:    f7fff82c    ..,.    BL       am_hal_interrupt_master_set ; 0xc208
        0x0000d1b0:    4638        8F      MOV      r0,r7
        0x0000d1b2:    bdf8        ..      POP      {r3-r7,pc}
    i.am_hal_mcuctrl_info_get
    am_hal_mcuctrl_info_get
        0x0000d1b4:    b129        ).      CBZ      r1,0xd1c2 ; am_hal_mcuctrl_info_get + 14
        0x0000d1b6:    4a44        DJ      LDR      r2,[pc,#272] ; [0xd2c8] = 0x40020000
        0x0000d1b8:    b128        (.      CBZ      r0,0xd1c6 ; am_hal_mcuctrl_info_get + 18
        0x0000d1ba:    2801        .(      CMP      r0,#1
        0x0000d1bc:    d017        ..      BEQ      0xd1ee ; am_hal_mcuctrl_info_get + 58
        0x0000d1be:    2802        .(      CMP      r0,#2
        0x0000d1c0:    d068        h.      BEQ      0xd294 ; am_hal_mcuctrl_info_get + 224
        0x0000d1c2:    2006        .       MOVS     r0,#6
        0x0000d1c4:    4770        pG      BX       lr
        0x0000d1c6:    6990        .i      LDR      r0,[r2,#0x18]
        0x0000d1c8:    f3c01380    ....    UBFX     r3,r0,#6,#1
        0x0000d1cc:    700b        .p      STRB     r3,[r1,#0]
        0x0000d1ce:    f3c00080    ....    UBFX     r0,r0,#2,#1
        0x0000d1d2:    7048        Hp      STRB     r0,[r1,#1]
        0x0000d1d4:    f8d201a0    ....    LDR      r0,[r2,#0x1a0]
        0x0000d1d8:    f3c06081    ...`    UBFX     r0,r0,#26,#2
        0x0000d1dc:    7108        .q      STRB     r0,[r1,#4]
        0x0000d1de:    6950        Pi      LDR      r0,[r2,#0x14]
        0x0000d1e0:    f3c00240    ..@.    UBFX     r2,r0,#1,#1
        0x0000d1e4:    708a        .p      STRB     r2,[r1,#2]
        0x0000d1e6:    f0000001    ....    AND      r0,r0,#1
        0x0000d1ea:    70c8        .p      STRB     r0,[r1,#3]
        0x0000d1ec:    e06a        j.      B        0xd2c4 ; am_hal_mcuctrl_info_get + 272
        0x0000d1ee:    6810        .h      LDR      r0,[r2,#0]
        0x0000d1f0:    6008        .`      STR      r0,[r1,#0]
        0x0000d1f2:    6853        Sh      LDR      r3,[r2,#4]
        0x0000d1f4:    604b        K`      STR      r3,[r1,#4]
        0x0000d1f6:    6893        .h      LDR      r3,[r2,#8]
        0x0000d1f8:    608b        .`      STR      r3,[r1,#8]
        0x0000d1fa:    68d3        .h      LDR      r3,[r2,#0xc]
        0x0000d1fc:    60cb        .`      STR      r3,[r1,#0xc]
        0x0000d1fe:    6913        .i      LDR      r3,[r2,#0x10]
        0x0000d200:    610b        .a      STR      r3,[r1,#0x10]
        0x0000d202:    6952        Ri      LDR      r2,[r2,#0x14]
        0x0000d204:    614a        Ja      STR      r2,[r1,#0x14]
        0x0000d206:    2201        ."      MOVS     r2,#1
        0x0000d208:    618a        .a      STR      r2,[r1,#0x18]
        0x0000d20a:    223c        <"      MOVS     r2,#0x3c
        0x0000d20c:    ea024390    ...C    AND      r3,r2,r0,LSR #18
        0x0000d210:    f8dfc0b8    ....    LDR      r12,[pc,#184] ; [0xd2cc] = 0x11290
        0x0000d214:    ea023090    ...0    AND      r0,r2,r0,LSR #14
        0x0000d218:    f10c0240    ..@.    ADD      r2,r12,#0x40
        0x0000d21c:    f85c3003    \..0    LDR      r3,[r12,r3]
        0x0000d220:    61cb        .a      STR      r3,[r1,#0x1c]
        0x0000d222:    5810        .X      LDR      r0,[r2,r0]
        0x0000d224:    6208        .b      STR      r0,[r1,#0x20]
        0x0000d226:    482a        *H      LDR      r0,[pc,#168] ; [0xd2d0] = 0xf0000fe0
        0x0000d228:    6800        .h      LDR      r0,[r0,#0]
        0x0000d22a:    b2c2        ..      UXTB     r2,r0
        0x0000d22c:    4829        )H      LDR      r0,[pc,#164] ; [0xd2d4] = 0xf0000fe4
        0x0000d22e:    624a        Jb      STR      r2,[r1,#0x24]
        0x0000d230:    6803        .h      LDR      r3,[r0,#0]
        0x0000d232:    f003030f    ....    AND      r3,r3,#0xf
        0x0000d236:    ea422203    B.."    ORR      r2,r2,r3,LSL #8
        0x0000d23a:    624a        Jb      STR      r2,[r1,#0x24]
        0x0000d23c:    6800        .h      LDR      r0,[r0,#0]
        0x0000d23e:    4a26        &J      LDR      r2,[pc,#152] ; [0xd2d8] = 0xf0000fe8
        0x0000d240:    f3c01003    ....    UBFX     r0,r0,#4,#4
        0x0000d244:    6288        .b      STR      r0,[r1,#0x28]
        0x0000d246:    6813        .h      LDR      r3,[r2,#0]
        0x0000d248:    f003030f    ....    AND      r3,r3,#0xf
        0x0000d24c:    ea401003    @...    ORR      r0,r0,r3,LSL #4
        0x0000d250:    6288        .b      STR      r0,[r1,#0x28]
        0x0000d252:    6810        .h      LDR      r0,[r2,#0]
        0x0000d254:    f3c01003    ....    UBFX     r0,r0,#4,#4
        0x0000d258:    0100        ..      LSLS     r0,r0,#4
        0x0000d25a:    1d12        ..      ADDS     r2,r2,#4
        0x0000d25c:    62c8        .b      STR      r0,[r1,#0x2c]
        0x0000d25e:    6812        .h      LDR      r2,[r2,#0]
        0x0000d260:    f3c21203    ....    UBFX     r2,r2,#4,#4
        0x0000d264:    4310        .C      ORRS     r0,r0,r2
        0x0000d266:    62c8        .b      STR      r0,[r1,#0x2c]
        0x0000d268:    481c        .H      LDR      r0,[pc,#112] ; [0xd2dc] = 0xf0000ffc
        0x0000d26a:    6800        .h      LDR      r0,[r0,#0]
        0x0000d26c:    4a1c        .J      LDR      r2,[pc,#112] ; [0xd2e0] = 0xf0000ff8
        0x0000d26e:    0600        ..      LSLS     r0,r0,#24
        0x0000d270:    6308        .c      STR      r0,[r1,#0x30]
        0x0000d272:    6812        .h      LDR      r2,[r2,#0]
        0x0000d274:    b2d2        ..      UXTB     r2,r2
        0x0000d276:    ea404002    @..@    ORR      r0,r0,r2,LSL #16
        0x0000d27a:    4a1a        .J      LDR      r2,[pc,#104] ; [0xd2e4] = 0xf0000ff4
        0x0000d27c:    6308        .c      STR      r0,[r1,#0x30]
        0x0000d27e:    6812        .h      LDR      r2,[r2,#0]
        0x0000d280:    b2d2        ..      UXTB     r2,r2
        0x0000d282:    ea402002    @..     ORR      r0,r0,r2,LSL #8
        0x0000d286:    4a18        .J      LDR      r2,[pc,#96] ; [0xd2e8] = 0xf0000ff0
        0x0000d288:    6308        .c      STR      r0,[r1,#0x30]
        0x0000d28a:    6812        .h      LDR      r2,[r2,#0]
        0x0000d28c:    b2d2        ..      UXTB     r2,r2
        0x0000d28e:    4310        .C      ORRS     r0,r0,r2
        0x0000d290:    6308        .c      STR      r0,[r1,#0x30]
        0x0000d292:    e017        ..      B        0xd2c4 ; am_hal_mcuctrl_info_get + 272
        0x0000d294:    f8d201cc    ....    LDR      r0,[r2,#0x1cc]
        0x0000d298:    f0000301    ....    AND      r3,r0,#1
        0x0000d29c:    700b        .p      STRB     r3,[r1,#0]
        0x0000d29e:    f3c00340    ..@.    UBFX     r3,r0,#1,#1
        0x0000d2a2:    720b        .r      STRB     r3,[r1,#8]
        0x0000d2a4:    f3c00080    ....    UBFX     r0,r0,#2,#1
        0x0000d2a8:    7408        .t      STRB     r0,[r1,#0x10]
        0x0000d2aa:    f8d201c4    ....    LDR      r0,[r2,#0x1c4]
        0x0000d2ae:    60c8        .`      STR      r0,[r1,#0xc]
        0x0000d2b0:    6848        Hh      LDR      r0,[r1,#4]
        0x0000d2b2:    f8d231c0    ...1    LDR      r3,[r2,#0x1c0]
        0x0000d2b6:    4318        .C      ORRS     r0,r0,r3
        0x0000d2b8:    6048        H`      STR      r0,[r1,#4]
        0x0000d2ba:    6948        Hi      LDR      r0,[r1,#0x14]
        0x0000d2bc:    f8d221c8    ...!    LDR      r2,[r2,#0x1c8]
        0x0000d2c0:    4310        .C      ORRS     r0,r0,r2
        0x0000d2c2:    6148        Ha      STR      r0,[r1,#0x14]
        0x0000d2c4:    2000        .       MOVS     r0,#0
        0x0000d2c6:    4770        pG      BX       lr
    $d
        0x0000d2c8:    40020000    ...@    DCD    1073872896
        0x0000d2cc:    00011290    ....    DCD    70288
        0x0000d2d0:    f0000fe0    ....    DCD    4026535904
        0x0000d2d4:    f0000fe4    ....    DCD    4026535908
        0x0000d2d8:    f0000fe8    ....    DCD    4026535912
        0x0000d2dc:    f0000ffc    ....    DCD    4026535932
        0x0000d2e0:    f0000ff8    ....    DCD    4026535928
        0x0000d2e4:    f0000ff4    ....    DCD    4026535924
        0x0000d2e8:    f0000ff0    ....    DCD    4026535920
    $t
    i.am_hal_pwrctrl_bleif_workaround
    am_hal_pwrctrl_bleif_workaround
        0x0000d2ec:    4828        (H      LDR      r0,[pc,#160] ; [0xd390] = 0x50023838
        0x0000d2ee:    6800        .h      LDR      r0,[r0,#0]
        0x0000d2f0:    2101        .!      MOVS     r1,#1
        0x0000d2f2:    ea3101d0    1...    BICS     r1,r1,r0,LSR #3
        0x0000d2f6:    4827        'H      LDR      r0,[pc,#156] ; [0xd394] = 0x40020000
        0x0000d2f8:    f44f127c    O.|.    MOV      r2,#0x3f0000
        0x0000d2fc:    d02a        *.      BEQ      0xd354 ; am_hal_pwrctrl_bleif_workaround + 104
        0x0000d2fe:    4926        &I      LDR      r1,[pc,#152] ; [0xd398] = 0x5002386c
        0x0000d300:    6809        .h      LDR      r1,[r1,#0]
        0x0000d302:    f001013f    ..?.    AND      r1,r1,#0x3f
        0x0000d306:    1cc9        ..      ADDS     r1,r1,#3
        0x0000d308:    293f        ?)      CMP      r1,#0x3f
        0x0000d30a:    bf88        ..      IT       HI
        0x0000d30c:    213f        ?!      MOVHI    r1,#0x3f
        0x0000d30e:    f8d03088    ...0    LDR      r3,[r0,#0x88]
        0x0000d312:    f023033f    #.?.    BIC      r3,r3,#0x3f
        0x0000d316:    f8c03088    ...0    STR      r3,[r0,#0x88]
        0x0000d31a:    f8d03088    ...0    LDR      r3,[r0,#0x88]
        0x0000d31e:    f001013f    ..?.    AND      r1,r1,#0x3f
        0x0000d322:    4319        .C      ORRS     r1,r1,r3
        0x0000d324:    f8c01088    ....    STR      r1,[r0,#0x88]
        0x0000d328:    491c        .I      LDR      r1,[pc,#112] ; [0xd39c] = 0x50023870
        0x0000d32a:    6809        .h      LDR      r1,[r1,#0]
        0x0000d32c:    f3c14105    ...A    UBFX     r1,r1,#16,#6
        0x0000d330:    1d49        I.      ADDS     r1,r1,#5
        0x0000d332:    293f        ?)      CMP      r1,#0x3f
        0x0000d334:    d900        ..      BLS      0xd338 ; am_hal_pwrctrl_bleif_workaround + 76
        0x0000d336:    213f        ?!      MOVS     r1,#0x3f
        0x0000d338:    f8d03350    ..P3    LDR      r3,[r0,#0x350]
        0x0000d33c:    f423137c    #.|.    BIC      r3,r3,#0x3f0000
        0x0000d340:    f8c03350    ..P3    STR      r3,[r0,#0x350]
        0x0000d344:    f8d03350    ..P3    LDR      r3,[r0,#0x350]
        0x0000d348:    ea024101    ...A    AND      r1,r2,r1,LSL #16
        0x0000d34c:    4319        .C      ORRS     r1,r1,r3
        0x0000d34e:    f8c01350    ..P.    STR      r1,[r0,#0x350]
        0x0000d352:    4770        pG      BX       lr
        0x0000d354:    f8d01088    ....    LDR      r1,[r0,#0x88]
        0x0000d358:    f001013f    ..?.    AND      r1,r1,#0x3f
        0x0000d35c:    1cc9        ..      ADDS     r1,r1,#3
        0x0000d35e:    293f        ?)      CMP      r1,#0x3f
        0x0000d360:    bf88        ..      IT       HI
        0x0000d362:    213f        ?!      MOVHI    r1,#0x3f
        0x0000d364:    f8d03088    ...0    LDR      r3,[r0,#0x88]
        0x0000d368:    f023033f    #.?.    BIC      r3,r3,#0x3f
        0x0000d36c:    f8c03088    ...0    STR      r3,[r0,#0x88]
        0x0000d370:    f8d03088    ...0    LDR      r3,[r0,#0x88]
        0x0000d374:    f001013f    ..?.    AND      r1,r1,#0x3f
        0x0000d378:    4319        .C      ORRS     r1,r1,r3
        0x0000d37a:    f8c01088    ....    STR      r1,[r0,#0x88]
        0x0000d37e:    f8d01350    ..P.    LDR      r1,[r0,#0x350]
        0x0000d382:    f3c14105    ...A    UBFX     r1,r1,#16,#6
        0x0000d386:    1d49        I.      ADDS     r1,r1,#5
        0x0000d388:    293f        ?)      CMP      r1,#0x3f
        0x0000d38a:    d9d5        ..      BLS      0xd338 ; am_hal_pwrctrl_bleif_workaround + 76
        0x0000d38c:    e7d3        ..      B        0xd336 ; am_hal_pwrctrl_bleif_workaround + 74
    $d
        0x0000d38e:    0000        ..      DCW    0
        0x0000d390:    50023838    88.P    DCD    1342322744
        0x0000d394:    40020000    ...@    DCD    1073872896
        0x0000d398:    5002386c    l8.P    DCD    1342322796
        0x0000d39c:    50023870    p8.P    DCD    1342322800
    $t
    i.am_hal_pwrctrl_ldo_vddx_active_trim_adj_default
    am_hal_pwrctrl_ldo_vddx_active_trim_adj_default
        0x0000d3a0:    b5f8        ..      PUSH     {r3-r7,lr}
        0x0000d3a2:    460e        .F      MOV      r6,r1
        0x0000d3a4:    4607        .F      MOV      r7,r0
        0x0000d3a6:    2500        .%      MOVS     r5,#0
        0x0000d3a8:    f7feff2a    ..*.    BL       am_hal_interrupt_master_disable ; 0xc200
        0x0000d3ac:    4c1d        .L      LDR      r4,[pc,#116] ; [0xd424] = 0x40020000
        0x0000d3ae:    9000        ..      STR      r0,[sp,#0]
        0x0000d3b0:    b117        ..      CBZ      r7,0xd3b8 ; am_hal_pwrctrl_ldo_vddx_active_trim_adj_default + 24
        0x0000d3b2:    2f01        ./      CMP      r7,#1
        0x0000d3b4:    d018        ..      BEQ      0xd3e8 ; am_hal_pwrctrl_ldo_vddx_active_trim_adj_default + 72
        0x0000d3b6:    e02c        ,.      B        0xd412 ; am_hal_pwrctrl_ldo_vddx_active_trim_adj_default + 114
        0x0000d3b8:    f7fff928    ..(.    BL       am_hal_burst_ldo_patch_check ; 0xc60c
        0x0000d3bc:    b118        ..      CBZ      r0,0xd3c6 ; am_hal_pwrctrl_ldo_vddx_active_trim_adj_default + 38
        0x0000d3be:    481a        .H      LDR      r0,[pc,#104] ; [0xd428] = 0x50023868
        0x0000d3c0:    6800        .h      LDR      r0,[r0,#0]
        0x0000d3c2:    f3c00009    ....    UBFX     r0,r0,#0,#10
        0x0000d3c6:    1981        ..      ADDS     r1,r0,r6
        0x0000d3c8:    bf48        H.      IT       MI
        0x0000d3ca:    2100        .!      MOVMI    r1,#0
        0x0000d3cc:    d404        ..      BMI      0xd3d8 ; am_hal_pwrctrl_ldo_vddx_active_trim_adj_default + 56
        0x0000d3ce:    f5b16f80    ...o    CMP      r1,#0x400
        0x0000d3d2:    bf28        (.      IT       CS
        0x0000d3d4:    f24031ff    @..1    MOVCS    r1,#0x3ff
        0x0000d3d8:    1a0d        ..      SUBS     r5,r1,r0
        0x0000d3da:    f8d40080    ....    LDR      r0,[r4,#0x80]
        0x0000d3de:    f3610009    a...    BFI      r0,r1,#0,#10
        0x0000d3e2:    f8c40080    ....    STR      r0,[r4,#0x80]
        0x0000d3e6:    e014        ..      B        0xd412 ; am_hal_pwrctrl_ldo_vddx_active_trim_adj_default + 114
        0x0000d3e8:    f7fff910    ....    BL       am_hal_burst_ldo_patch_check ; 0xc60c
        0x0000d3ec:    b118        ..      CBZ      r0,0xd3f6 ; am_hal_pwrctrl_ldo_vddx_active_trim_adj_default + 86
        0x0000d3ee:    480f        .H      LDR      r0,[pc,#60] ; [0xd42c] = 0x5002386c
        0x0000d3f0:    6800        .h      LDR      r0,[r0,#0]
        0x0000d3f2:    f000003f    ..?.    AND      r0,r0,#0x3f
        0x0000d3f6:    1981        ..      ADDS     r1,r0,r6
        0x0000d3f8:    bf48        H.      IT       MI
        0x0000d3fa:    2100        .!      MOVMI    r1,#0
        0x0000d3fc:    d402        ..      BMI      0xd404 ; am_hal_pwrctrl_ldo_vddx_active_trim_adj_default + 100
        0x0000d3fe:    293f        ?)      CMP      r1,#0x3f
        0x0000d400:    bf88        ..      IT       HI
        0x0000d402:    213f        ?!      MOVHI    r1,#0x3f
        0x0000d404:    1a0d        ..      SUBS     r5,r1,r0
        0x0000d406:    f8d40088    ....    LDR      r0,[r4,#0x88]
        0x0000d40a:    f3610005    a...    BFI      r0,r1,#0,#6
        0x0000d40e:    f8c40088    ....    STR      r0,[r4,#0x88]
        0x0000d412:    f44f70a0    O..p    MOV      r0,#0x140
        0x0000d416:    f7fffcf5    ....    BL       am_hal_flash_delay ; 0xce04
        0x0000d41a:    9800        ..      LDR      r0,[sp,#0]
        0x0000d41c:    f7fefef4    ....    BL       am_hal_interrupt_master_set ; 0xc208
        0x0000d420:    4628        (F      MOV      r0,r5
        0x0000d422:    bdf8        ..      POP      {r3-r7,pc}
    $d
        0x0000d424:    40020000    ...@    DCD    1073872896
        0x0000d428:    50023868    h8.P    DCD    1342322792
        0x0000d42c:    5002386c    l8.P    DCD    1342322796
    $t
    i.am_hal_pwrctrl_low_power_init
    am_hal_pwrctrl_low_power_init
        0x0000d430:    b5f8        ..      PUSH     {r3-r7,lr}
        0x0000d432:    485c        \H      LDR      r0,[pc,#368] ; [0xd5a4] = 0x10001104
        0x0000d434:    6801        .h      LDR      r1,[r0,#0]
        0x0000d436:    b911        ..      CBNZ     r1,0xd43e ; am_hal_pwrctrl_low_power_init + 14
        0x0000d438:    495b        [I      LDR      r1,[pc,#364] ; [0xd5a8] = 0x4ffff000
        0x0000d43a:    6809        .h      LDR      r1,[r1,#0]
        0x0000d43c:    6001        .`      STR      r1,[r0,#0]
        0x0000d43e:    4c5b        [L      LDR      r4,[pc,#364] ; [0xd5ac] = 0x40020000
        0x0000d440:    68e0        .h      LDR      r0,[r4,#0xc]
        0x0000d442:    2601        .&      MOVS     r6,#1
        0x0000d444:    b2c0        ..      UXTB     r0,r0
        0x0000d446:    2821        !(      CMP      r0,#0x21
        0x0000d448:    d308        ..      BCC      0xd45c ; am_hal_pwrctrl_low_power_init + 44
        0x0000d44a:    4859        YH      LDR      r0,[pc,#356] ; [0xd5b0] = 0x100010ff
        0x0000d44c:    7801        .x      LDRB     r1,[r0,#0]
        0x0000d44e:    b1c9        ..      CBZ      r1,0xd484 ; am_hal_pwrctrl_low_power_init + 84
        0x0000d450:    7841        Ax      LDRB     r1,[r0,#1]
        0x0000d452:    2900        .)      CMP      r1,#0
        0x0000d454:    bf04        ..      ITT      EQ
        0x0000d456:    7046        Fp      STRBEQ   r6,[r0,#1]
        0x0000d458:    f7ffff48    ..H.    BLEQ     am_hal_pwrctrl_bleif_workaround ; 0xd2ec
        0x0000d45c:    68e0        .h      LDR      r0,[r4,#0xc]
        0x0000d45e:    b2c0        ..      UXTB     r0,r0
        0x0000d460:    2812        .(      CMP      r0,#0x12
        0x0000d462:    d305        ..      BCC      0xd470 ; am_hal_pwrctrl_low_power_init + 64
        0x0000d464:    f8d4035c    ..\.    LDR      r0,[r4,#0x35c]
        0x0000d468:    f0207080     ..p    BIC      r0,r0,#0x1000000
        0x0000d46c:    f8c4035c    ..\.    STR      r0,[r4,#0x35c]
        0x0000d470:    2100        .!      MOVS     r1,#0
        0x0000d472:    200c        .       MOVS     r0,#0xc
        0x0000d474:    f7fffa4e    ..N.    BL       am_hal_cachectrl_control ; 0xc914
        0x0000d478:    4d4e        NM      LDR      r5,[pc,#312] ; [0xd5b4] = 0x40021000
        0x0000d47a:    69a8        .i      LDR      r0,[r5,#0x18]
        0x0000d47c:    f4107f80    ....    TST      r0,#0x100
        0x0000d480:    d055        U.      BEQ      0xd52e ; am_hal_pwrctrl_low_power_init + 254
        0x0000d482:    e08b        ..      B        0xd59c ; am_hal_pwrctrl_low_power_init + 364
        0x0000d484:    7006        .p      STRB     r6,[r0,#0]
        0x0000d486:    f8d41350    ..P.    LDR      r1,[r4,#0x350]
        0x0000d48a:    f3c15185    ...Q    UBFX     r1,r1,#22,#6
        0x0000d48e:    290c        .)      CMP      r1,#0xc
        0x0000d490:    bf8c        ..      ITE      HI
        0x0000d492:    390c        .9      SUBHI    r1,r1,#0xc
        0x0000d494:    2100        .!      MOVLS    r1,#0
        0x0000d496:    f8d42350    ..P#    LDR      r2,[r4,#0x350]
        0x0000d49a:    f361529b    a..R    BFI      r2,r1,#22,#6
        0x0000d49e:    f8c42350    ..P#    STR      r2,[r4,#0x350]
        0x0000d4a2:    f8d41350    ..P.    LDR      r1,[r4,#0x350]
        0x0000d4a6:    f3c12185    ...!    UBFX     r1,r1,#10,#6
        0x0000d4aa:    290d        .)      CMP      r1,#0xd
        0x0000d4ac:    bf8c        ..      ITE      HI
        0x0000d4ae:    390d        .9      SUBHI    r1,r1,#0xd
        0x0000d4b0:    2100        .!      MOVLS    r1,#0
        0x0000d4b2:    f8d42350    ..P#    LDR      r2,[r4,#0x350]
        0x0000d4b6:    f361228f    a.."    BFI      r2,r1,#10,#6
        0x0000d4ba:    f8c42350    ..P#    STR      r2,[r4,#0x350]
        0x0000d4be:    f8d41354    ..T.    LDR      r1,[r4,#0x354]
        0x0000d4c2:    f4210170    !.p.    BIC      r1,r1,#0xf00000
        0x0000d4c6:    f5010100    ....    ADD      r1,r1,#0x800000
        0x0000d4ca:    f8c41354    ..T.    STR      r1,[r4,#0x354]
        0x0000d4ce:    f8d41354    ..T.    LDR      r1,[r4,#0x354]
        0x0000d4d2:    f4212170    !.p!    BIC      r1,r1,#0xf0000
        0x0000d4d6:    f50121a0    ...!    ADD      r1,r1,#0x50000
        0x0000d4da:    f8c41354    ..T.    STR      r1,[r4,#0x354]
        0x0000d4de:    f8d4135c    ..\.    LDR      r1,[r4,#0x35c]
        0x0000d4e2:    f021010f    !...    BIC      r1,r1,#0xf
        0x0000d4e6:    3108        .1      ADDS     r1,r1,#8
        0x0000d4e8:    f8c4135c    ..\.    STR      r1,[r4,#0x35c]
        0x0000d4ec:    f8d41358    ..X.    LDR      r1,[r4,#0x358]
        0x0000d4f0:    f02141f0    !..A    BIC      r1,r1,#0x78000000
        0x0000d4f4:    f1015140    ..@Q    ADD      r1,r1,#0x30000000
        0x0000d4f8:    f8c41358    ..X.    STR      r1,[r4,#0x358]
        0x0000d4fc:    f8d4135c    ..\.    LDR      r1,[r4,#0x35c]
        0x0000d500:    f4410100    A...    ORR      r1,r1,#0x800000
        0x0000d504:    f8c4135c    ..\.    STR      r1,[r4,#0x35c]
        0x0000d508:    f8d4135c    ..\.    LDR      r1,[r4,#0x35c]
        0x0000d50c:    f0217180    !..q    BIC      r1,r1,#0x1000000
        0x0000d510:    f8c4135c    ..\.    STR      r1,[r4,#0x35c]
        0x0000d514:    f8d41354    ..T.    LDR      r1,[r4,#0x354]
        0x0000d518:    f0415140    A.@Q    ORR      r1,r1,#0x30000000
        0x0000d51c:    f8c41354    ..T.    STR      r1,[r4,#0x354]
        0x0000d520:    f8d41354    ..T.    LDR      r1,[r4,#0x354]
        0x0000d524:    f041011f    A...    ORR      r1,r1,#0x1f
        0x0000d528:    f8c41354    ..T.    STR      r1,[r4,#0x354]
        0x0000d52c:    e790        ..      B        0xd450 ; am_hal_pwrctrl_low_power_init + 32
        0x0000d52e:    68e0        .h      LDR      r0,[r4,#0xc]
        0x0000d530:    b2c0        ..      UXTB     r0,r0
        0x0000d532:    2812        .(      CMP      r0,#0x12
        0x0000d534:    d31a        ..      BCC      0xd56c ; am_hal_pwrctrl_low_power_init + 316
        0x0000d536:    f7fefe63    ..c.    BL       am_hal_interrupt_master_disable ; 0xc200
        0x0000d53a:    9000        ..      STR      r0,[sp,#0]
        0x0000d53c:    f8d40368    ..h.    LDR      r0,[r4,#0x368]
        0x0000d540:    f420607c     .|`    BIC      r0,r0,#0xfc0
        0x0000d544:    f50060c8    ...`    ADD      r0,r0,#0x640
        0x0000d548:    f8c40368    ..h.    STR      r0,[r4,#0x368]
        0x0000d54c:    f8d40368    ..h.    LDR      r0,[r4,#0x368]
        0x0000d550:    f020003f     .?.    BIC      r0,r0,#0x3f
        0x0000d554:    300c        .0      ADDS     r0,r0,#0xc
        0x0000d556:    f8c40368    ..h.    STR      r0,[r4,#0x368]
        0x0000d55a:    f04f2040    O.@     MOV      r0,#0x40004000
        0x0000d55e:    6bc1        .k      LDR      r1,[r0,#0x3c]
        0x0000d560:    f4210180    !...    BIC      r1,r1,#0x400000
        0x0000d564:    63c1        .c      STR      r1,[r0,#0x3c]
        0x0000d566:    9800        ..      LDR      r0,[sp,#0]
        0x0000d568:    f7fefe4e    ..N.    BL       am_hal_interrupt_master_set ; 0xc208
        0x0000d56c:    69a0        .i      LDR      r0,[r4,#0x18]
        0x0000d56e:    f0400001    @...    ORR      r0,r0,#1
        0x0000d572:    61a0        .a      STR      r0,[r4,#0x18]
        0x0000d574:    2307        .#      MOVS     r3,#7
        0x0000d576:    461a        .F      MOV      r2,r3
        0x0000d578:    490f        .I      LDR      r1,[pc,#60] ; [0xd5b8] = 0x40020018
        0x0000d57a:    f2427010    B..p    MOV      r0,#0x2710
        0x0000d57e:    9600        ..      STR      r6,[sp,#0]
        0x0000d580:    f7fffc52    ..R.    BL       am_hal_flash_delay_status_check ; 0xce28
        0x0000d584:    2800        .(      CMP      r0,#0
        0x0000d586:    bf1c        ..      ITT      NE
        0x0000d588:    2004        .       MOVNE    r0,#4
        0x0000d58a:    bdf8        ..      POPNE    {r3-r7,pc}
        0x0000d58c:    6828        (h      LDR      r0,[r5,#0]
        0x0000d58e:    f0400001    @...    ORR      r0,r0,#1
        0x0000d592:    6028        (`      STR      r0,[r5,#0]
        0x0000d594:    6a68        hj      LDR      r0,[r5,#0x24]
        0x0000d596:    f0400040    @.@.    ORR      r0,r0,#0x40
        0x0000d59a:    6268        hb      STR      r0,[r5,#0x24]
        0x0000d59c:    f7feffe0    ....    BL       am_hal_burst_ldo_charge ; 0xc560
        0x0000d5a0:    2000        .       MOVS     r0,#0
        0x0000d5a2:    bdf8        ..      POP      {r3-r7,pc}
    $d
        0x0000d5a4:    10001104    ....    DCD    268439812
        0x0000d5a8:    4ffff000    ...O    DCD    1342173184
        0x0000d5ac:    40020000    ...@    DCD    1073872896
        0x0000d5b0:    100010ff    ....    DCD    268439807
        0x0000d5b4:    40021000    ...@    DCD    1073876992
        0x0000d5b8:    40020018    ...@    DCD    1073872920
    $t
    i.am_hal_pwrctrl_memory_enable
    am_hal_pwrctrl_memory_enable
        0x0000d5bc:    e92d41f0    -..A    PUSH     {r4-r8,lr}
        0x0000d5c0:    4917        .I      LDR      r1,[pc,#92] ; [0xd620] = 0x113dc
        0x0000d5c2:    eb000240    ..@.    ADD      r2,r0,r0,LSL #1
        0x0000d5c6:    eb0106c2    ....    ADD      r6,r1,r2,LSL #3
        0x0000d5ca:    f8515032    Q.2P    LDR      r5,[r1,r2,LSL #3]
        0x0000d5ce:    e9d61703    ....    LDRD     r1,r7,[r6,#0xc]
        0x0000d5d2:    4c14        .L      LDR      r4,[pc,#80] ; [0xd624] = 0x40021000
        0x0000d5d4:    43e8        .C      MVNS     r0,r5
        0x0000d5d6:    d009        ..      BEQ      0xd5ec ; am_hal_pwrctrl_memory_enable + 48
        0x0000d5d8:    6922        "i      LDR      r2,[r4,#0x10]
        0x0000d5da:    4008        .@      ANDS     r0,r0,r1
        0x0000d5dc:    1461        a.      ASRS     r1,r4,#17
        0x0000d5de:    ea610000    a...    ORN      r0,r1,r0
        0x0000d5e2:    4010        .@      ANDS     r0,r0,r2
        0x0000d5e4:    6120         a      STR      r0,[r4,#0x10]
        0x0000d5e6:    2010        .       MOVS     r0,#0x10
        0x0000d5e8:    f7fffc0c    ....    BL       am_hal_flash_delay ; 0xce04
        0x0000d5ec:    b175        u.      CBZ      r5,0xd60c ; am_hal_pwrctrl_memory_enable + 80
        0x0000d5ee:    6920         i      LDR      r0,[r4,#0x10]
        0x0000d5f0:    4328        (C      ORRS     r0,r0,r5
        0x0000d5f2:    6120         a      STR      r0,[r4,#0x10]
        0x0000d5f4:    2500        .%      MOVS     r5,#0
        0x0000d5f6:    20a0        .       MOVS     r0,#0xa0
        0x0000d5f8:    f7fffc04    ....    BL       am_hal_flash_delay ; 0xce04
        0x0000d5fc:    6960        `i      LDR      r0,[r4,#0x14]
        0x0000d5fe:    6871        qh      LDR      r1,[r6,#4]
        0x0000d600:    4038        8@      ANDS     r0,r0,r7
        0x0000d602:    4288        .B      CMP      r0,r1
        0x0000d604:    bf1c        ..      ITT      NE
        0x0000d606:    350a        .5      ADDNE    r5,r5,#0xa
        0x0000d608:    2d14        .-      CMPNE    r5,#0x14
        0x0000d60a:    d3f4        ..      BCC      0xd5f6 ; am_hal_pwrctrl_memory_enable + 58
        0x0000d60c:    6960        `i      LDR      r0,[r4,#0x14]
        0x0000d60e:    6871        qh      LDR      r1,[r6,#4]
        0x0000d610:    4038        8@      ANDS     r0,r0,r7
        0x0000d612:    4288        .B      CMP      r0,r1
        0x0000d614:    bf0c        ..      ITE      EQ
        0x0000d616:    2000        .       MOVEQ    r0,#0
        0x0000d618:    2001        .       MOVNE    r0,#1
        0x0000d61a:    e8bd81f0    ....    POP      {r4-r8,pc}
    $d
        0x0000d61e:    0000        ..      DCW    0
        0x0000d620:    000113dc    ....    DCD    70620
        0x0000d624:    40021000    ...@    DCD    1073876992
    $t
    i.am_hal_pwrctrl_periph_disable
    am_hal_pwrctrl_periph_disable
        0x0000d628:    e92d43f8    -..C    PUSH     {r3-r9,lr}
        0x0000d62c:    4605        .F      MOV      r5,r0
        0x0000d62e:    f7fefde7    ....    BL       am_hal_interrupt_master_disable ; 0xc200
        0x0000d632:    4c2f        /L      LDR      r4,[pc,#188] ; [0xd6f0] = 0x40021000
        0x0000d634:    9000        ..      STR      r0,[sp,#0]
        0x0000d636:    68a0        .h      LDR      r0,[r4,#8]
        0x0000d638:    4e2e        .N      LDR      r6,[pc,#184] ; [0xd6f4] = 0x11310
        0x0000d63a:    eb050745    ..E.    ADD      r7,r5,r5,LSL #1
        0x0000d63e:    f8561027    V.'.    LDR      r1,[r6,r7,LSL #2]
        0x0000d642:    4388        .C      BICS     r0,r0,r1
        0x0000d644:    60a0        .`      STR      r0,[r4,#8]
        0x0000d646:    9800        ..      LDR      r0,[sp,#0]
        0x0000d648:    f7fefdde    ....    BL       am_hal_interrupt_master_set ; 0xc208
        0x0000d64c:    2500        .%      MOVS     r5,#0
        0x0000d64e:    eb060887    ....    ADD      r8,r6,r7,LSL #2
        0x0000d652:    20a0        .       MOVS     r0,#0xa0
        0x0000d654:    f7fffbd6    ....    BL       am_hal_flash_delay ; 0xce04
        0x0000d658:    69a1        .i      LDR      r1,[r4,#0x18]
        0x0000d65a:    f8d80004    ....    LDR      r0,[r8,#4]
        0x0000d65e:    4201        .B      TST      r1,r0
        0x0000d660:    d002        ..      BEQ      0xd668 ; am_hal_pwrctrl_periph_disable + 64
        0x0000d662:    350a        .5      ADDS     r5,r5,#0xa
        0x0000d664:    2d14        .-      CMP      r5,#0x14
        0x0000d666:    d3f4        ..      BCC      0xd652 ; am_hal_pwrctrl_periph_disable + 42
        0x0000d668:    69a0        .i      LDR      r0,[r4,#0x18]
        0x0000d66a:    f8d82004    ...     LDR      r2,[r8,#4]
        0x0000d66e:    4010        .@      ANDS     r0,r0,r2
        0x0000d670:    bf08        ..      IT       EQ
        0x0000d672:    e8bd83f8    ....    POPEQ    {r3-r9,pc}
        0x0000d676:    2001        .       MOVS     r0,#1
        0x0000d678:    68a1        .h      LDR      r1,[r4,#8]
        0x0000d67a:    2a04        .*      CMP      r2,#4
        0x0000d67c:    d012        ..      BEQ      0xd6a4 ; am_hal_pwrctrl_periph_disable + 124
        0x0000d67e:    2a08        .*      CMP      r2,#8
        0x0000d680:    d01f        ..      BEQ      0xd6c2 ; am_hal_pwrctrl_periph_disable + 154
        0x0000d682:    2a10        .*      CMP      r2,#0x10
        0x0000d684:    d028        (.      BEQ      0xd6d8 ; am_hal_pwrctrl_periph_disable + 176
        0x0000d686:    2a40        @*      CMP      r2,#0x40
        0x0000d688:    bf18        ..      IT       NE
        0x0000d68a:    e8bd83f8    ....    POPNE    {r3-r9,pc}
        0x0000d68e:    f4115f60    ..`_    TST      r1,#0x3800
        0x0000d692:    bf08        ..      IT       EQ
        0x0000d694:    e8bd83f8    ....    POPEQ    {r3-r9,pc}
        0x0000d698:    f8562027    V.'     LDR      r2,[r6,r7,LSL #2]
        0x0000d69c:    420a        .B      TST      r2,r1
        0x0000d69e:    d00d        ..      BEQ      0xd6bc ; am_hal_pwrctrl_periph_disable + 148
        0x0000d6a0:    e8bd83f8    ....    POP      {r3-r9,pc}
        0x0000d6a4:    f2405281    @..R    MOV      r2,#0x581
        0x0000d6a8:    4211        .B      TST      r1,r2
        0x0000d6aa:    bf08        ..      IT       EQ
        0x0000d6ac:    e8bd83f8    ....    POPEQ    {r3-r9,pc}
        0x0000d6b0:    f8562027    V.'     LDR      r2,[r6,r7,LSL #2]
        0x0000d6b4:    420a        .B      TST      r2,r1
        0x0000d6b6:    bf18        ..      IT       NE
        0x0000d6b8:    e8bd83f8    ....    POPNE    {r3-r9,pc}
        0x0000d6bc:    2000        .       MOVS     r0,#0
        0x0000d6be:    e8bd83f8    ....    POP      {r3-r9,pc}
        0x0000d6c2:    f0110f0e    ....    TST      r1,#0xe
        0x0000d6c6:    bf08        ..      IT       EQ
        0x0000d6c8:    e8bd83f8    ....    POPEQ    {r3-r9,pc}
        0x0000d6cc:    f8562027    V.'     LDR      r2,[r6,r7,LSL #2]
        0x0000d6d0:    420a        .B      TST      r2,r1
        0x0000d6d2:    d0f3        ..      BEQ      0xd6bc ; am_hal_pwrctrl_periph_disable + 148
        0x0000d6d4:    e8bd83f8    ....    POP      {r3-r9,pc}
        0x0000d6d8:    f0110f70    ..p.    TST      r1,#0x70
        0x0000d6dc:    bf08        ..      IT       EQ
        0x0000d6de:    e8bd83f8    ....    POPEQ    {r3-r9,pc}
        0x0000d6e2:    f8562027    V.'     LDR      r2,[r6,r7,LSL #2]
        0x0000d6e6:    420a        .B      TST      r2,r1
        0x0000d6e8:    d0e8        ..      BEQ      0xd6bc ; am_hal_pwrctrl_periph_disable + 148
        0x0000d6ea:    e8bd83f8    ....    POP      {r3-r9,pc}
    $d
        0x0000d6ee:    0000        ..      DCW    0
        0x0000d6f0:    40021000    ...@    DCD    1073876992
        0x0000d6f4:    00011310    ....    DCD    70416
    $t
    i.am_hal_pwrctrl_periph_enable
    am_hal_pwrctrl_periph_enable
        0x0000d6f8:    e92d43f8    -..C    PUSH     {r3-r9,lr}
        0x0000d6fc:    4605        .F      MOV      r5,r0
        0x0000d6fe:    f7fefd7f    ....    BL       am_hal_interrupt_master_disable ; 0xc200
        0x0000d702:    4c17        .L      LDR      r4,[pc,#92] ; [0xd760] = 0x40021000
        0x0000d704:    9000        ..      STR      r0,[sp,#0]
        0x0000d706:    68a0        .h      LDR      r0,[r4,#8]
        0x0000d708:    f8df8058    ..X.    LDR      r8,[pc,#88] ; [0xd764] = 0x11310
        0x0000d70c:    eb050645    ..E.    ADD      r6,r5,r5,LSL #1
        0x0000d710:    f8581026    X.&.    LDR      r1,[r8,r6,LSL #2]
        0x0000d714:    4308        .C      ORRS     r0,r0,r1
        0x0000d716:    60a0        .`      STR      r0,[r4,#8]
        0x0000d718:    9800        ..      LDR      r0,[sp,#0]
        0x0000d71a:    f7fefd75    ..u.    BL       am_hal_interrupt_master_set ; 0xc208
        0x0000d71e:    2500        .%      MOVS     r5,#0
        0x0000d720:    eb080786    ....    ADD      r7,r8,r6,LSL #2
        0x0000d724:    20a0        .       MOVS     r0,#0xa0
        0x0000d726:    f7fffb6d    ..m.    BL       am_hal_flash_delay ; 0xce04
        0x0000d72a:    69a0        .i      LDR      r0,[r4,#0x18]
        0x0000d72c:    6879        yh      LDR      r1,[r7,#4]
        0x0000d72e:    4208        .B      TST      r0,r1
        0x0000d730:    d102        ..      BNE      0xd738 ; am_hal_pwrctrl_periph_enable + 64
        0x0000d732:    350a        .5      ADDS     r5,r5,#0xa
        0x0000d734:    2d14        .-      CMP      r5,#0x14
        0x0000d736:    d3f5        ..      BCC      0xd724 ; am_hal_pwrctrl_periph_enable + 44
        0x0000d738:    69a0        .i      LDR      r0,[r4,#0x18]
        0x0000d73a:    4208        .B      TST      r0,r1
        0x0000d73c:    bf1c        ..      ITT      NE
        0x0000d73e:    2000        .       MOVNE    r0,#0
        0x0000d740:    e8bd83f8    ....    POPNE    {r3-r9,pc}
        0x0000d744:    f7fefd5c    ..\.    BL       am_hal_interrupt_master_disable ; 0xc200
        0x0000d748:    9000        ..      STR      r0,[sp,#0]
        0x0000d74a:    68a0        .h      LDR      r0,[r4,#8]
        0x0000d74c:    f8581026    X.&.    LDR      r1,[r8,r6,LSL #2]
        0x0000d750:    4388        .C      BICS     r0,r0,r1
        0x0000d752:    60a0        .`      STR      r0,[r4,#8]
        0x0000d754:    9800        ..      LDR      r0,[sp,#0]
        0x0000d756:    f7fefd57    ..W.    BL       am_hal_interrupt_master_set ; 0xc208
        0x0000d75a:    2001        .       MOVS     r0,#1
        0x0000d75c:    e8bd83f8    ....    POP      {r3-r9,pc}
    $d
        0x0000d760:    40021000    ...@    DCD    1073876992
        0x0000d764:    00011310    ....    DCD    70416
    $t
    i.am_hal_pwrctrl_simobuck_vddx_active_trim_adj_default
    am_hal_pwrctrl_simobuck_vddx_active_trim_adj_default
        0x0000d768:    e92d43f8    -..C    PUSH     {r3-r9,lr}
        0x0000d76c:    460e        .F      MOV      r6,r1
        0x0000d76e:    4607        .F      MOV      r7,r0
        0x0000d770:    2500        .%      MOVS     r5,#0
        0x0000d772:    f7feff4b    ..K.    BL       am_hal_burst_ldo_patch_check ; 0xc60c
        0x0000d776:    2800        .(      CMP      r0,#0
        0x0000d778:    bf08        ..      IT       EQ
        0x0000d77a:    e8bd83f8    ....    POPEQ    {r3-r9,pc}
        0x0000d77e:    f7fefd3f    ..?.    BL       am_hal_interrupt_master_disable ; 0xc200
        0x0000d782:    f8df807c    ..|.    LDR      r8,[pc,#124] ; [0xd800] = 0x50023870
        0x0000d786:    4c1f        .L      LDR      r4,[pc,#124] ; [0xd804] = 0x40020000
        0x0000d788:    9000        ..      STR      r0,[sp,#0]
        0x0000d78a:    b117        ..      CBZ      r7,0xd792 ; am_hal_pwrctrl_simobuck_vddx_active_trim_adj_default + 42
        0x0000d78c:    2f01        ./      CMP      r7,#1
        0x0000d78e:    d017        ..      BEQ      0xd7c0 ; am_hal_pwrctrl_simobuck_vddx_active_trim_adj_default + 88
        0x0000d790:    e02c        ,.      B        0xd7ec ; am_hal_pwrctrl_simobuck_vddx_active_trim_adj_default + 132
        0x0000d792:    f7feff3b    ..;.    BL       am_hal_burst_ldo_patch_check ; 0xc60c
        0x0000d796:    2800        .(      CMP      r0,#0
        0x0000d798:    bf1c        ..      ITT      NE
        0x0000d79a:    f8d80000    ....    LDRNE    r0,[r8,#0]
        0x0000d79e:    f3c00009    ....    UBFXNE   r0,r0,#0,#10
        0x0000d7a2:    1981        ..      ADDS     r1,r0,r6
        0x0000d7a4:    bf48        H.      IT       MI
        0x0000d7a6:    2100        .!      MOVMI    r1,#0
        0x0000d7a8:    d404        ..      BMI      0xd7b4 ; am_hal_pwrctrl_simobuck_vddx_active_trim_adj_default + 76
        0x0000d7aa:    f5b16f80    ...o    CMP      r1,#0x400
        0x0000d7ae:    bf28        (.      IT       CS
        0x0000d7b0:    f24031ff    @..1    MOVCS    r1,#0x3ff
        0x0000d7b4:    1a0d        ..      SUBS     r5,r1,r0
        0x0000d7b6:    f8d40350    ..P.    LDR      r0,[r4,#0x350]
        0x0000d7ba:    f3610009    a...    BFI      r0,r1,#0,#10
        0x0000d7be:    e013        ..      B        0xd7e8 ; am_hal_pwrctrl_simobuck_vddx_active_trim_adj_default + 128
        0x0000d7c0:    f7feff24    ..$.    BL       am_hal_burst_ldo_patch_check ; 0xc60c
        0x0000d7c4:    2800        .(      CMP      r0,#0
        0x0000d7c6:    bf1c        ..      ITT      NE
        0x0000d7c8:    f8d80000    ....    LDRNE    r0,[r8,#0]
        0x0000d7cc:    f3c04005    ...@    UBFXNE   r0,r0,#16,#6
        0x0000d7d0:    1981        ..      ADDS     r1,r0,r6
        0x0000d7d2:    bf48        H.      IT       MI
        0x0000d7d4:    2100        .!      MOVMI    r1,#0
        0x0000d7d6:    d402        ..      BMI      0xd7de ; am_hal_pwrctrl_simobuck_vddx_active_trim_adj_default + 118
        0x0000d7d8:    293f        ?)      CMP      r1,#0x3f
        0x0000d7da:    bf88        ..      IT       HI
        0x0000d7dc:    213f        ?!      MOVHI    r1,#0x3f
        0x0000d7de:    1a0d        ..      SUBS     r5,r1,r0
        0x0000d7e0:    f8d40350    ..P.    LDR      r0,[r4,#0x350]
        0x0000d7e4:    f3614015    a..@    BFI      r0,r1,#16,#6
        0x0000d7e8:    f8c40350    ..P.    STR      r0,[r4,#0x350]
        0x0000d7ec:    f44f70a0    O..p    MOV      r0,#0x140
        0x0000d7f0:    f7fffb08    ....    BL       am_hal_flash_delay ; 0xce04
        0x0000d7f4:    9800        ..      LDR      r0,[sp,#0]
        0x0000d7f6:    f7fefd07    ....    BL       am_hal_interrupt_master_set ; 0xc208
        0x0000d7fa:    4628        (F      MOV      r0,r5
        0x0000d7fc:    e8bd83f8    ....    POP      {r3-r9,pc}
    $d
        0x0000d800:    50023870    p8.P    DCD    1342322800
        0x0000d804:    40020000    ...@    DCD    1073872896
    $t
    i.am_hal_pwrctrl_wa_vddf_boost
    am_hal_pwrctrl_wa_vddf_boost
        0x0000d808:    b508        ..      PUSH     {r3,lr}
        0x0000d80a:    f7fefcf9    ....    BL       am_hal_interrupt_master_disable ; 0xc200
        0x0000d80e:    9000        ..      STR      r0,[sp,#0]
        0x0000d810:    480b        .H      LDR      r0,[pc,#44] ; [0xd840] = 0x40021000
        0x0000d812:    6a40        @j      LDR      r0,[r0,#0x24]
        0x0000d814:    f0100f01    ....    TST      r0,#1
        0x0000d818:    d004        ..      BEQ      0xd824 ; am_hal_pwrctrl_wa_vddf_boost + 28
        0x0000d81a:    2105        .!      MOVS     r1,#5
        0x0000d81c:    2001        .       MOVS     r0,#1
        0x0000d81e:    f7ffffa3    ....    BL       am_hal_pwrctrl_simobuck_vddx_active_trim_adj_default ; 0xd768
        0x0000d822:    e003        ..      B        0xd82c ; am_hal_pwrctrl_wa_vddf_boost + 36
        0x0000d824:    2103        .!      MOVS     r1,#3
        0x0000d826:    2001        .       MOVS     r0,#1
        0x0000d828:    f7fffdba    ....    BL       am_hal_pwrctrl_ldo_vddx_active_trim_adj_default ; 0xd3a0
        0x0000d82c:    f44f70a0    O..p    MOV      r0,#0x140
        0x0000d830:    f7fffae8    ....    BL       am_hal_flash_delay ; 0xce04
        0x0000d834:    9800        ..      LDR      r0,[sp,#0]
        0x0000d836:    e8bd4008    ...@    POP      {r3,lr}
        0x0000d83a:    f7febce5    ....    B        am_hal_interrupt_master_set ; 0xc208
    $d
        0x0000d83e:    0000        ..      DCW    0
        0x0000d840:    40021000    ...@    DCD    1073876992
    $t
    i.am_hal_pwrctrl_wa_vddf_restore
    am_hal_pwrctrl_wa_vddf_restore
        0x0000d844:    b508        ..      PUSH     {r3,lr}
        0x0000d846:    f7fefcdb    ....    BL       am_hal_interrupt_master_disable ; 0xc200
        0x0000d84a:    9000        ..      STR      r0,[sp,#0]
        0x0000d84c:    480b        .H      LDR      r0,[pc,#44] ; [0xd87c] = 0x40021000
        0x0000d84e:    6a40        @j      LDR      r0,[r0,#0x24]
        0x0000d850:    f04f0100    O...    MOV      r1,#0
        0x0000d854:    f0100f01    ....    TST      r0,#1
        0x0000d858:    f04f0001    O...    MOV      r0,#1
        0x0000d85c:    d002        ..      BEQ      0xd864 ; am_hal_pwrctrl_wa_vddf_restore + 32
        0x0000d85e:    f7ffff83    ....    BL       am_hal_pwrctrl_simobuck_vddx_active_trim_adj_default ; 0xd768
        0x0000d862:    e001        ..      B        0xd868 ; am_hal_pwrctrl_wa_vddf_restore + 36
        0x0000d864:    f7fffd9c    ....    BL       am_hal_pwrctrl_ldo_vddx_active_trim_adj_default ; 0xd3a0
        0x0000d868:    f44f70a0    O..p    MOV      r0,#0x140
        0x0000d86c:    f7fffaca    ....    BL       am_hal_flash_delay ; 0xce04
        0x0000d870:    9800        ..      LDR      r0,[sp,#0]
        0x0000d872:    e8bd4008    ...@    POP      {r3,lr}
        0x0000d876:    f7febcc7    ....    B        am_hal_interrupt_master_set ; 0xc208
    $d
        0x0000d87a:    0000        ..      DCW    0
        0x0000d87c:    40021000    ...@    DCD    1073876992
    $t
    i.am_hal_queue_init
    am_hal_queue_init
        0x0000d880:    f04f0c00    O...    MOV      r12,#0
        0x0000d884:    f8c0c000    ....    STR      r12,[r0,#0]
        0x0000d888:    f8c0c004    ....    STR      r12,[r0,#4]
        0x0000d88c:    f8c0c008    ....    STR      r12,[r0,#8]
        0x0000d890:    60c3        .`      STR      r3,[r0,#0xc]
        0x0000d892:    e9c02104    ...!    STRD     r2,r1,[r0,#0x10]
        0x0000d896:    4770        pG      BX       lr
    i.am_hal_queue_item_add
    am_hal_queue_item_add
        0x0000d898:    b5f8        ..      PUSH     {r3-r7,lr}
        0x0000d89a:    4604        .F      MOV      r4,r0
        0x0000d89c:    6900        .i      LDR      r0,[r0,#0x10]
        0x0000d89e:    460e        .F      MOV      r6,r1
        0x0000d8a0:    fb00f502    ....    MUL      r5,r0,r2
        0x0000d8a4:    2700        .'      MOVS     r7,#0
        0x0000d8a6:    f7fefcab    ....    BL       am_hal_interrupt_master_disable ; 0xc200
        0x0000d8aa:    9000        ..      STR      r0,[sp,#0]
        0x0000d8ac:    68a1        .h      LDR      r1,[r4,#8]
        0x0000d8ae:    68e0        .h      LDR      r0,[r4,#0xc]
        0x0000d8b0:    1a40        @.      SUBS     r0,r0,r1
        0x0000d8b2:    4285        .B      CMP      r5,r0
        0x0000d8b4:    d816        ..      BHI      0xd8e4 ; am_hal_queue_item_add + 76
        0x0000d8b6:    2000        .       MOVS     r0,#0
        0x0000d8b8:    2d00        .-      CMP      r5,#0
        0x0000d8ba:    d90f        ..      BLS      0xd8dc ; am_hal_queue_item_add + 68
        0x0000d8bc:    b11e        ..      CBZ      r6,0xd8c6 ; am_hal_queue_item_add + 46
        0x0000d8be:    5c31        1\      LDRB     r1,[r6,r0]
        0x0000d8c0:    6823        #h      LDR      r3,[r4,#0]
        0x0000d8c2:    6962        bi      LDR      r2,[r4,#0x14]
        0x0000d8c4:    54d1        .T      STRB     r1,[r2,r3]
        0x0000d8c6:    6821        !h      LDR      r1,[r4,#0]
        0x0000d8c8:    68e2        .h      LDR      r2,[r4,#0xc]
        0x0000d8ca:    1c49        I.      ADDS     r1,r1,#1
        0x0000d8cc:    fbb1f3f2    ....    UDIV     r3,r1,r2
        0x0000d8d0:    fb021113    ....    MLS      r1,r2,r3,r1
        0x0000d8d4:    6021        !`      STR      r1,[r4,#0]
        0x0000d8d6:    1c40        @.      ADDS     r0,r0,#1
        0x0000d8d8:    42a8        .B      CMP      r0,r5
        0x0000d8da:    d3ef        ..      BCC      0xd8bc ; am_hal_queue_item_add + 36
        0x0000d8dc:    68a0        .h      LDR      r0,[r4,#8]
        0x0000d8de:    4428        (D      ADD      r0,r0,r5
        0x0000d8e0:    60a0        .`      STR      r0,[r4,#8]
        0x0000d8e2:    2701        .'      MOVS     r7,#1
        0x0000d8e4:    9800        ..      LDR      r0,[sp,#0]
        0x0000d8e6:    f7fefc8f    ....    BL       am_hal_interrupt_master_set ; 0xc208
        0x0000d8ea:    4638        8F      MOV      r0,r7
        0x0000d8ec:    bdf8        ..      POP      {r3-r7,pc}
    i.am_hal_queue_item_get
    am_hal_queue_item_get
        0x0000d8ee:    b5f8        ..      PUSH     {r3-r7,lr}
        0x0000d8f0:    4604        .F      MOV      r4,r0
        0x0000d8f2:    6900        .i      LDR      r0,[r0,#0x10]
        0x0000d8f4:    460e        .F      MOV      r6,r1
        0x0000d8f6:    fb00f502    ....    MUL      r5,r0,r2
        0x0000d8fa:    2700        .'      MOVS     r7,#0
        0x0000d8fc:    f7fefc80    ....    BL       am_hal_interrupt_master_disable ; 0xc200
        0x0000d900:    9000        ..      STR      r0,[sp,#0]
        0x0000d902:    68a0        .h      LDR      r0,[r4,#8]
        0x0000d904:    4285        .B      CMP      r5,r0
        0x0000d906:    d816        ..      BHI      0xd936 ; am_hal_queue_item_get + 72
        0x0000d908:    2000        .       MOVS     r0,#0
        0x0000d90a:    2d00        .-      CMP      r5,#0
        0x0000d90c:    d90f        ..      BLS      0xd92e ; am_hal_queue_item_get + 64
        0x0000d90e:    b11e        ..      CBZ      r6,0xd918 ; am_hal_queue_item_get + 42
        0x0000d910:    6962        bi      LDR      r2,[r4,#0x14]
        0x0000d912:    6861        ah      LDR      r1,[r4,#4]
        0x0000d914:    5c52        R\      LDRB     r2,[r2,r1]
        0x0000d916:    5432        2T      STRB     r2,[r6,r0]
        0x0000d918:    6861        ah      LDR      r1,[r4,#4]
        0x0000d91a:    68e2        .h      LDR      r2,[r4,#0xc]
        0x0000d91c:    1c49        I.      ADDS     r1,r1,#1
        0x0000d91e:    fbb1f3f2    ....    UDIV     r3,r1,r2
        0x0000d922:    fb021113    ....    MLS      r1,r2,r3,r1
        0x0000d926:    6061        a`      STR      r1,[r4,#4]
        0x0000d928:    1c40        @.      ADDS     r0,r0,#1
        0x0000d92a:    42a8        .B      CMP      r0,r5
        0x0000d92c:    d3ef        ..      BCC      0xd90e ; am_hal_queue_item_get + 32
        0x0000d92e:    68a0        .h      LDR      r0,[r4,#8]
        0x0000d930:    1b40        @.      SUBS     r0,r0,r5
        0x0000d932:    60a0        .`      STR      r0,[r4,#8]
        0x0000d934:    2701        .'      MOVS     r7,#1
        0x0000d936:    9800        ..      LDR      r0,[sp,#0]
        0x0000d938:    f7fefc66    ..f.    BL       am_hal_interrupt_master_set ; 0xc208
        0x0000d93c:    4638        8F      MOV      r0,r7
        0x0000d93e:    bdf8        ..      POP      {r3-r7,pc}
    i.am_hal_rtc_osc_disable
    am_hal_rtc_osc_disable
        0x0000d940:    f04f2040    O.@     MOV      r0,#0x40004000
        0x0000d944:    f8d01250    ..P.    LDR      r1,[r0,#0x250]
        0x0000d948:    f0410110    A...    ORR      r1,r1,#0x10
        0x0000d94c:    f8c01250    ..P.    STR      r1,[r0,#0x250]
        0x0000d950:    4770        pG      BX       lr
        0x0000d952:    0000        ..      MOVS     r0,r0
    i.am_hal_sysctrl_fpu_enable
    am_hal_sysctrl_fpu_enable
        0x0000d954:    4902        .I      LDR      r1,[pc,#8] ; [0xd960] = 0xe000ed88
        0x0000d956:    f44f0070    O.p.    MOV      r0,#0xf00000
        0x0000d95a:    6008        .`      STR      r0,[r1,#0]
        0x0000d95c:    4770        pG      BX       lr
    $d
        0x0000d95e:    0000        ..      DCW    0
        0x0000d960:    e000ed88    ....    DCD    3758157192
    $t
    i.am_hal_sysctrl_fpu_stacking_enable
    am_hal_sysctrl_fpu_stacking_enable
        0x0000d964:    b538        8.      PUSH     {r3-r5,lr}
        0x0000d966:    4604        .F      MOV      r4,r0
        0x0000d968:    f7fefc4a    ..J.    BL       am_hal_interrupt_master_disable ; 0xc200
        0x0000d96c:    9000        ..      STR      r0,[sp,#0]
        0x0000d96e:    4808        .H      LDR      r0,[pc,#32] ; [0xd990] = 0xe000ef34
        0x0000d970:    6801        .h      LDR      r1,[r0,#0]
        0x0000d972:    2c00        .,      CMP      r4,#0
        0x0000d974:    f0214140    !.@A    BIC      r1,r1,#0xc0000000
        0x0000d978:    bf14        ..      ITE      NE
        0x0000d97a:    f04f4240    O.@B    MOVNE    r2,#0xc0000000
        0x0000d97e:    f04f4200    O..B    MOVEQ    r2,#0x80000000
        0x0000d982:    4311        .C      ORRS     r1,r1,r2
        0x0000d984:    6001        .`      STR      r1,[r0,#0]
        0x0000d986:    9800        ..      LDR      r0,[sp,#0]
        0x0000d988:    e8bd4038    ..8@    POP      {r3-r5,lr}
        0x0000d98c:    f7febc3c    ..<.    B        am_hal_interrupt_master_set ; 0xc208
    $d
        0x0000d990:    e000ef34    4...    DCD    3758157620
    $t
    i.am_hal_systick_count
    am_hal_systick_count
        0x0000d994:    f04f20e0    O..     MOV      r0,#0xe000e000
        0x0000d998:    6980        .i      LDR      r0,[r0,#0x18]
        0x0000d99a:    4770        pG      BX       lr
    i.am_hal_systick_int_enable
    am_hal_systick_int_enable
        0x0000d99c:    f04f20e0    O..     MOV      r0,#0xe000e000
        0x0000d9a0:    6901        .i      LDR      r1,[r0,#0x10]
        0x0000d9a2:    f0410102    A...    ORR      r1,r1,#2
        0x0000d9a6:    6101        .a      STR      r1,[r0,#0x10]
        0x0000d9a8:    4770        pG      BX       lr
    i.am_hal_systick_load
    am_hal_systick_load
        0x0000d9aa:    f04f21e0    O..!    MOV      r1,#0xe000e000
        0x0000d9ae:    6148        Ha      STR      r0,[r1,#0x14]
        0x0000d9b0:    2000        .       MOVS     r0,#0
        0x0000d9b2:    6188        .a      STR      r0,[r1,#0x18]
        0x0000d9b4:    4770        pG      BX       lr
    i.am_hal_systick_reset
    am_hal_systick_reset
        0x0000d9b6:    f04f21e0    O..!    MOV      r1,#0xe000e000
        0x0000d9ba:    2000        .       MOVS     r0,#0
        0x0000d9bc:    6108        .a      STR      r0,[r1,#0x10]
        0x0000d9be:    4770        pG      BX       lr
    i.am_hal_systick_start
    am_hal_systick_start
        0x0000d9c0:    f04f20e0    O..     MOV      r0,#0xe000e000
        0x0000d9c4:    6901        .i      LDR      r1,[r0,#0x10]
        0x0000d9c6:    f0410101    A...    ORR      r1,r1,#1
        0x0000d9ca:    6101        .a      STR      r1,[r0,#0x10]
        0x0000d9cc:    4770        pG      BX       lr
    i.am_hal_systick_stop
    am_hal_systick_stop
        0x0000d9ce:    f04f20e0    O..     MOV      r0,#0xe000e000
        0x0000d9d2:    6901        .i      LDR      r1,[r0,#0x10]
        0x0000d9d4:    f0210101    !...    BIC      r1,r1,#1
        0x0000d9d8:    6101        .a      STR      r1,[r0,#0x10]
        0x0000d9da:    4770        pG      BX       lr
    i.am_hal_uart_configure
    am_hal_uart_configure
        0x0000d9dc:    e92d43f8    -..C    PUSH     {r3-r9,lr}
        0x0000d9e0:    0004        ..      MOVS     r4,r0
        0x0000d9e2:    460e        .F      MOV      r6,r1
        0x0000d9e4:    6a60        `j      LDR      r0,[r4,#0x24]
        0x0000d9e6:    bf1c        ..      ITT      NE
        0x0000d9e8:    6821        !h      LDRNE    r1,[r4,#0]
        0x0000d9ea:    f0117f80    ....    TSTNE    r1,#0x1000000
        0x0000d9ee:    d005        ..      BEQ      0xd9fc ; am_hal_uart_configure + 32
        0x0000d9f0:    f8df821c    ....    LDR      r8,[pc,#540] ; [0xdc10] = 0xea9e06
        0x0000d9f4:    f021417f    !..A    BIC      r1,r1,#0xff000000
        0x0000d9f8:    4541        AE      CMP      r1,r8
        0x0000d9fa:    d002        ..      BEQ      0xda02 ; am_hal_uart_configure + 38
        0x0000d9fc:    2002        .       MOVS     r0,#2
        0x0000d9fe:    e8bd83f8    ....    POP      {r3-r9,pc}
        0x0000da02:    2700        .'      MOVS     r7,#0
        0x0000da04:    0300        ..      LSLS     r0,r0,#12
        0x0000da06:    f1004580    ...E    ADD      r5,r0,#0x40000000
        0x0000da0a:    f50535e0    ...5    ADD      r5,r5,#0x1c000
        0x0000da0e:    632f        /c      STR      r7,[r5,#0x30]
        0x0000da10:    f8940064    ..d.    LDRB     r0,[r4,#0x64]
        0x0000da14:    2806        .(      CMP      r0,#6
        0x0000da16:    bf24        $.      ITT      CS
        0x0000da18:    2006        .       MOVCS    r0,#6
        0x0000da1a:    e8bd83f8    ....    POPCS    {r3-r9,pc}
        0x0000da1e:    2800        .(      CMP      r0,#0
        0x0000da20:    bf0e        ..      ITEE     EQ
        0x0000da22:    f04f0901    O...    MOVEQ    r9,#1
        0x0000da26:    1e40        @.      SUBNE    r0,r0,#1
        0x0000da28:    f00009ff    ....    ANDNE    r9,r0,#0xff
        0x0000da2c:    f7fefbe8    ....    BL       am_hal_interrupt_master_disable ; 0xc200
        0x0000da30:    9000        ..      STR      r0,[sp,#0]
        0x0000da32:    6b28        (k      LDR      r0,[r5,#0x30]
        0x0000da34:    f0400008    @...    ORR      r0,r0,#8
        0x0000da38:    6328        (c      STR      r0,[r5,#0x30]
        0x0000da3a:    6b28        (k      LDR      r0,[r5,#0x30]
        0x0000da3c:    f3691006    i...    BFI      r0,r9,#4,#3
        0x0000da40:    6328        (c      STR      r0,[r5,#0x30]
        0x0000da42:    9800        ..      LDR      r0,[sp,#0]
        0x0000da44:    f7fefbe0    ....    BL       am_hal_interrupt_master_set ; 0xc208
        0x0000da48:    f7fefbda    ....    BL       am_hal_interrupt_master_disable ; 0xc200
        0x0000da4c:    9000        ..      STR      r0,[sp,#0]
        0x0000da4e:    6b28        (k      LDR      r0,[r5,#0x30]
        0x0000da50:    f0200001     ...    BIC      r0,r0,#1
        0x0000da54:    6328        (c      STR      r0,[r5,#0x30]
        0x0000da56:    6b28        (k      LDR      r0,[r5,#0x30]
        0x0000da58:    f4207000     ..p    BIC      r0,r0,#0x200
        0x0000da5c:    6328        (c      STR      r0,[r5,#0x30]
        0x0000da5e:    6b28        (k      LDR      r0,[r5,#0x30]
        0x0000da60:    f4207080     ..p    BIC      r0,r0,#0x100
        0x0000da64:    6328        (c      STR      r0,[r5,#0x30]
        0x0000da66:    9800        ..      LDR      r0,[sp,#0]
        0x0000da68:    f7fefbce    ....    BL       am_hal_interrupt_master_set ; 0xc208
        0x0000da6c:    6831        1h      LDR      r1,[r6,#0]
        0x0000da6e:    4b69        iK      LDR      r3,[pc,#420] ; [0xdc14] = 0x8000003
        0x0000da70:    f5b12f61    ..a/    CMP      r1,#0xe1000
        0x0000da74:    d814        ..      BHI      0xdaa0 ; am_hal_uart_configure + 196
        0x0000da76:    6b28        (k      LDR      r0,[r5,#0x30]
        0x0000da78:    f3c01002    ....    UBFX     r0,r0,#4,#3
        0x0000da7c:    2801        .(      CMP      r0,#1
        0x0000da7e:    bf08        ..      IT       EQ
        0x0000da80:    4865        eH      LDREQ    r0,[pc,#404] ; [0xdc18] = 0x16e3600
        0x0000da82:    d010        ..      BEQ      0xdaa6 ; am_hal_uart_configure + 202
        0x0000da84:    2802        .(      CMP      r0,#2
        0x0000da86:    bf08        ..      IT       EQ
        0x0000da88:    4864        dH      LDREQ    r0,[pc,#400] ; [0xdc1c] = 0xb71b00
        0x0000da8a:    d00c        ..      BEQ      0xdaa6 ; am_hal_uart_configure + 202
        0x0000da8c:    2803        .(      CMP      r0,#3
        0x0000da8e:    bf08        ..      IT       EQ
        0x0000da90:    4863        cH      LDREQ    r0,[pc,#396] ; [0xdc20] = 0x5b8d80
        0x0000da92:    d008        ..      BEQ      0xdaa6 ; am_hal_uart_configure + 202
        0x0000da94:    2804        .(      CMP      r0,#4
        0x0000da96:    bf1a        ..      ITTE     NE
        0x0000da98:    6627        'f      STRNE    r7,[r4,#0x60]
        0x0000da9a:    4b62        bK      LDRNE    r3,[pc,#392] ; [0xdc24] = 0x8000002
        0x0000da9c:    4862        bH      LDREQ    r0,[pc,#392] ; [0xdc28] = 0x2dc6c0
        0x0000da9e:    d002        ..      BEQ      0xdaa6 ; am_hal_uart_configure + 202
        0x0000daa0:    4618        .F      MOV      r0,r3
        0x0000daa2:    e8bd83f8    ....    POP      {r3-r9,pc}
        0x0000daa6:    0109        ..      LSLS     r1,r1,#4
        0x0000daa8:    fbb0f2f1    ....    UDIV     r2,r0,r1
        0x0000daac:    ea4f1c80    O...    LSL      r12,r0,#6
        0x0000dab0:    fbbcf1f1    ....    UDIV     r1,r12,r1
        0x0000dab4:    ea4f1c82    O...    LSL      r12,r2,#6
        0x0000dab8:    ebb1010c    ....    SUBS     r1,r1,r12
        0x0000dabc:    2a00        .*      CMP      r2,#0
        0x0000dabe:    bf08        ..      IT       EQ
        0x0000dac0:    6627        'f      STREQ    r7,[r4,#0x60]
        0x0000dac2:    d0ed        ..      BEQ      0xdaa0 ; am_hal_uart_configure + 196
        0x0000dac4:    626a        jb      STR      r2,[r5,#0x24]
        0x0000dac6:    626a        jb      STR      r2,[r5,#0x24]
        0x0000dac8:    62a9        .b      STR      r1,[r5,#0x28]
        0x0000daca:    0112        ..      LSLS     r2,r2,#4
        0x0000dacc:    eb020191    ....    ADD      r1,r2,r1,LSR #2
        0x0000dad0:    fbb0f1f1    ....    UDIV     r1,r0,r1
        0x0000dad4:    6621        !f      STR      r1,[r4,#0x60]
        0x0000dad6:    6b28        (k      LDR      r0,[r5,#0x30]
        0x0000dad8:    f4204080     ..@    BIC      r0,r0,#0x4000
        0x0000dadc:    6328        (c      STR      r0,[r5,#0x30]
        0x0000dade:    6b28        (k      LDR      r0,[r5,#0x30]
        0x0000dae0:    f4204000     ..@    BIC      r0,r0,#0x8000
        0x0000dae4:    6328        (c      STR      r0,[r5,#0x30]
        0x0000dae6:    6b28        (k      LDR      r0,[r5,#0x30]
        0x0000dae8:    6931        1i      LDR      r1,[r6,#0x10]
        0x0000daea:    4308        .C      ORRS     r0,r0,r1
        0x0000daec:    6328        (c      STR      r0,[r5,#0x30]
        0x0000daee:    6970        pi      LDR      r0,[r6,#0x14]
        0x0000daf0:    6368        hc      STR      r0,[r5,#0x34]
        0x0000daf2:    e9d60101    ....    LDRD     r0,r1,[r6,#4]
        0x0000daf6:    4308        .C      ORRS     r0,r0,r1
        0x0000daf8:    68f1        .h      LDR      r1,[r6,#0xc]
        0x0000dafa:    f0410110    A...    ORR      r1,r1,#0x10
        0x0000dafe:    4308        .C      ORRS     r0,r0,r1
        0x0000db00:    62e8        .b      STR      r0,[r5,#0x2c]
        0x0000db02:    f7fefb7d    ..}.    BL       am_hal_interrupt_master_disable ; 0xc200
        0x0000db06:    9000        ..      STR      r0,[sp,#0]
        0x0000db08:    6b28        (k      LDR      r0,[r5,#0x30]
        0x0000db0a:    f0400001    @...    ORR      r0,r0,#1
        0x0000db0e:    6328        (c      STR      r0,[r5,#0x30]
        0x0000db10:    6b28        (k      LDR      r0,[r5,#0x30]
        0x0000db12:    f4407000    @..p    ORR      r0,r0,#0x200
        0x0000db16:    6328        (c      STR      r0,[r5,#0x30]
        0x0000db18:    6b28        (k      LDR      r0,[r5,#0x30]
        0x0000db1a:    f4407080    @..p    ORR      r0,r0,#0x100
        0x0000db1e:    6328        (c      STR      r0,[r5,#0x30]
        0x0000db20:    9800        ..      LDR      r0,[sp,#0]
        0x0000db22:    f7fefb71    ..q.    BL       am_hal_interrupt_master_set ; 0xc208
        0x0000db26:    3618        .6      ADDS     r6,r6,#0x18
        0x0000db28:    6820         h      LDR      r0,[r4,#0]
        0x0000db2a:    ce6a        j.      LDM      r6,{r1,r3,r5,r6}
        0x0000db2c:    f0107f80    ....    TST      r0,#0x1000000
        0x0000db30:    d06b        k.      BEQ      0xdc0a ; am_hal_uart_configure + 558
        0x0000db32:    f020407f     ..@    BIC      r0,r0,#0xff000000
        0x0000db36:    4540        @E      CMP      r0,r8
        0x0000db38:    d167        g.      BNE      0xdc0a ; am_hal_uart_configure + 558
        0x0000db3a:    f04f0901    O...    MOV      r9,#1
        0x0000db3e:    2900        .)      CMP      r1,#0
        0x0000db40:    bf18        ..      IT       NE
        0x0000db42:    2b00        .+      CMPNE    r3,#0
        0x0000db44:    d019        ..      BEQ      0xdb7a ; am_hal_uart_configure + 414
        0x0000db46:    f8849028    ..(.    STRB     r9,[r4,#0x28]
        0x0000db4a:    f04f0201    O...    MOV      r2,#1
        0x0000db4e:    f104002c    ..,.    ADD      r0,r4,#0x2c
        0x0000db52:    f7fffe95    ....    BL       am_hal_queue_init ; 0xd880
        0x0000db56:    6820         h      LDR      r0,[r4,#0]
        0x0000db58:    6a61        aj      LDR      r1,[r4,#0x24]
        0x0000db5a:    f0107f80    ....    TST      r0,#0x1000000
        0x0000db5e:    d054        T.      BEQ      0xdc0a ; am_hal_uart_configure + 558
        0x0000db60:    f020407f     ..@    BIC      r0,r0,#0xff000000
        0x0000db64:    4540        @E      CMP      r0,r8
        0x0000db66:    d150        P.      BNE      0xdc0a ; am_hal_uart_configure + 558
        0x0000db68:    0308        ..      LSLS     r0,r1,#12
        0x0000db6a:    f1004080    ...@    ADD      r0,r0,#0x40000000
        0x0000db6e:    f50030e0    ...0    ADD      r0,r0,#0x1c000
        0x0000db72:    6b81        .k      LDR      r1,[r0,#0x38]
        0x0000db74:    f0410120    A. .    ORR      r1,r1,#0x20
        0x0000db78:    e012        ..      B        0xdba0 ; am_hal_uart_configure + 452
        0x0000db7a:    f8847028    ..(p    STRB     r7,[r4,#0x28]
        0x0000db7e:    6820         h      LDR      r0,[r4,#0]
        0x0000db80:    6a61        aj      LDR      r1,[r4,#0x24]
        0x0000db82:    f0107f80    ....    TST      r0,#0x1000000
        0x0000db86:    d040        @.      BEQ      0xdc0a ; am_hal_uart_configure + 558
        0x0000db88:    f020407f     ..@    BIC      r0,r0,#0xff000000
        0x0000db8c:    4540        @E      CMP      r0,r8
        0x0000db8e:    d13c        <.      BNE      0xdc0a ; am_hal_uart_configure + 558
        0x0000db90:    0308        ..      LSLS     r0,r1,#12
        0x0000db92:    f1004080    ...@    ADD      r0,r0,#0x40000000
        0x0000db96:    f50030e0    ...0    ADD      r0,r0,#0x1c000
        0x0000db9a:    6b81        .k      LDR      r1,[r0,#0x38]
        0x0000db9c:    f0210120    !. .    BIC      r1,r1,#0x20
        0x0000dba0:    6381        .c      STR      r1,[r0,#0x38]
        0x0000dba2:    2d00        .-      CMP      r5,#0
        0x0000dba4:    bf18        ..      IT       NE
        0x0000dba6:    2e00        ..      CMPNE    r6,#0
        0x0000dba8:    d01b        ..      BEQ      0xdbe2 ; am_hal_uart_configure + 518
        0x0000dbaa:    f8849044    ..D.    STRB     r9,[r4,#0x44]
        0x0000dbae:    4633        3F      MOV      r3,r6
        0x0000dbb0:    f04f0201    O...    MOV      r2,#1
        0x0000dbb4:    4629        )F      MOV      r1,r5
        0x0000dbb6:    f1040048    ..H.    ADD      r0,r4,#0x48
        0x0000dbba:    f7fffe61    ..a.    BL       am_hal_queue_init ; 0xd880
        0x0000dbbe:    6821        !h      LDR      r1,[r4,#0]
        0x0000dbc0:    6a60        `j      LDR      r0,[r4,#0x24]
        0x0000dbc2:    f0117f80    ....    TST      r1,#0x1000000
        0x0000dbc6:    d020         .      BEQ      0xdc0a ; am_hal_uart_configure + 558
        0x0000dbc8:    f021417f    !..A    BIC      r1,r1,#0xff000000
        0x0000dbcc:    4541        AE      CMP      r1,r8
        0x0000dbce:    d11c        ..      BNE      0xdc0a ; am_hal_uart_configure + 558
        0x0000dbd0:    0300        ..      LSLS     r0,r0,#12
        0x0000dbd2:    f1004080    ...@    ADD      r0,r0,#0x40000000
        0x0000dbd6:    f50030e0    ...0    ADD      r0,r0,#0x1c000
        0x0000dbda:    6b81        .k      LDR      r1,[r0,#0x38]
        0x0000dbdc:    f0410150    A.P.    ORR      r1,r1,#0x50
        0x0000dbe0:    e012        ..      B        0xdc08 ; am_hal_uart_configure + 556
        0x0000dbe2:    f8847044    ..Dp    STRB     r7,[r4,#0x44]
        0x0000dbe6:    6821        !h      LDR      r1,[r4,#0]
        0x0000dbe8:    6a60        `j      LDR      r0,[r4,#0x24]
        0x0000dbea:    f0117f80    ....    TST      r1,#0x1000000
        0x0000dbee:    d00c        ..      BEQ      0xdc0a ; am_hal_uart_configure + 558
        0x0000dbf0:    f021417f    !..A    BIC      r1,r1,#0xff000000
        0x0000dbf4:    4541        AE      CMP      r1,r8
        0x0000dbf6:    d108        ..      BNE      0xdc0a ; am_hal_uart_configure + 558
        0x0000dbf8:    0300        ..      LSLS     r0,r0,#12
        0x0000dbfa:    f1004080    ...@    ADD      r0,r0,#0x40000000
        0x0000dbfe:    f50030e0    ...0    ADD      r0,r0,#0x1c000
        0x0000dc02:    6b81        .k      LDR      r1,[r0,#0x38]
        0x0000dc04:    f0210150    !.P.    BIC      r1,r1,#0x50
        0x0000dc08:    6381        .c      STR      r1,[r0,#0x38]
        0x0000dc0a:    2000        .       MOVS     r0,#0
        0x0000dc0c:    e8bd83f8    ....    POP      {r3-r9,pc}
    $d
        0x0000dc10:    00ea9e06    ....    DCD    15375878
        0x0000dc14:    08000003    ....    DCD    134217731
        0x0000dc18:    016e3600    .6n.    DCD    24000000
        0x0000dc1c:    00b71b00    ....    DCD    12000000
        0x0000dc20:    005b8d80    ..[.    DCD    6000000
        0x0000dc24:    08000002    ....    DCD    134217730
        0x0000dc28:    002dc6c0    ..-.    DCD    3000000
    $t
    i.am_hal_uart_deinitialize
    am_hal_uart_deinitialize
        0x0000dc2c:    2800        .(      CMP      r0,#0
        0x0000dc2e:    bf1c        ..      ITT      NE
        0x0000dc30:    6801        .h      LDRNE    r1,[r0,#0]
        0x0000dc32:    f0117f80    ....    TSTNE    r1,#0x1000000
        0x0000dc36:    d004        ..      BEQ      0xdc42 ; am_hal_uart_deinitialize + 22
        0x0000dc38:    4b07        .K      LDR      r3,[pc,#28] ; [0xdc58] = 0xea9e06
        0x0000dc3a:    f021427f    !..B    BIC      r2,r1,#0xff000000
        0x0000dc3e:    429a        .B      CMP      r2,r3
        0x0000dc40:    d001        ..      BEQ      0xdc46 ; am_hal_uart_deinitialize + 26
        0x0000dc42:    2002        .       MOVS     r0,#2
        0x0000dc44:    4770        pG      BX       lr
        0x0000dc46:    f0217180    !..q    BIC      r1,r1,#0x1000000
        0x0000dc4a:    6001        .`      STR      r1,[r0,#0]
        0x0000dc4c:    2100        .!      MOVS     r1,#0
        0x0000dc4e:    6241        Ab      STR      r1,[r0,#0x24]
        0x0000dc50:    7101        .q      STRB     r1,[r0,#4]
        0x0000dc52:    4608        .F      MOV      r0,r1
        0x0000dc54:    4770        pG      BX       lr
    $d
        0x0000dc56:    0000        ..      DCW    0
        0x0000dc58:    00ea9e06    ....    DCD    15375878
    $t
    i.am_hal_uart_initialize
    am_hal_uart_initialize
        0x0000dc5c:    2802        .(      CMP      r0,#2
        0x0000dc5e:    bf24        $.      ITT      CS
        0x0000dc60:    2005        .       MOVCS    r0,#5
        0x0000dc62:    4770        pG      BXCS     lr
        0x0000dc64:    2900        .)      CMP      r1,#0
        0x0000dc66:    bf04        ..      ITT      EQ
        0x0000dc68:    2006        .       MOVEQ    r0,#6
        0x0000dc6a:    4770        pG      BXEQ     lr
        0x0000dc6c:    b410        ..      PUSH     {r4}
        0x0000dc6e:    eb000280    ....    ADD      r2,r0,r0,LSL #2
        0x0000dc72:    eb0203c0    ....    ADD      r3,r2,r0,LSL #3
        0x0000dc76:    4a0c        .J      LDR      r2,[pc,#48] ; [0xdca8] = 0x10001e08
        0x0000dc78:    f852c033    R.3.    LDR      r12,[r2,r3,LSL #3]
        0x0000dc7c:    f01c7f80    ....    TST      r12,#0x1000000
        0x0000dc80:    bf1e        ..      ITTT     NE
        0x0000dc82:    2007        .       MOVNE    r0,#7
        0x0000dc84:    bc10        ..      POPNE    {r4}
        0x0000dc86:    4770        pG      BXNE     lr
        0x0000dc88:    f04c7c80    L..|    ORR      r12,r12,#0x1000000
        0x0000dc8c:    4c07        .L      LDR      r4,[pc,#28] ; [0xdcac] = 0xea9e06
        0x0000dc8e:    f3640c17    d...    BFI      r12,r4,#0,#24
        0x0000dc92:    f842c033    B.3.    STR      r12,[r2,r3,LSL #3]
        0x0000dc96:    eb0202c3    ....    ADD      r2,r2,r3,LSL #3
        0x0000dc9a:    6250        Pb      STR      r0,[r2,#0x24]
        0x0000dc9c:    2000        .       MOVS     r0,#0
        0x0000dc9e:    7110        .q      STRB     r0,[r2,#4]
        0x0000dca0:    6610        .f      STR      r0,[r2,#0x60]
        0x0000dca2:    600a        .`      STR      r2,[r1,#0]
        0x0000dca4:    bc10        ..      POP      {r4}
        0x0000dca6:    4770        pG      BX       lr
    $d
        0x0000dca8:    10001e08    ....    DCD    268443144
        0x0000dcac:    00ea9e06    ....    DCD    15375878
    $t
    i.am_hal_uart_power_control
    am_hal_uart_power_control
        0x0000dcb0:    e92d43f8    -..C    PUSH     {r3-r9,lr}
        0x0000dcb4:    6a45        Ej      LDR      r5,[r0,#0x24]
        0x0000dcb6:    1e04        ..      SUBS     r4,r0,#0
        0x0000dcb8:    f1050308    ....    ADD      r3,r5,#8
        0x0000dcbc:    f00308ff    ....    AND      r8,r3,#0xff
        0x0000dcc0:    bf1c        ..      ITT      NE
        0x0000dcc2:    6820         h      LDRNE    r0,[r4,#0]
        0x0000dcc4:    f0107f80    ....    TSTNE    r0,#0x1000000
        0x0000dcc8:    d004        ..      BEQ      0xdcd4 ; am_hal_uart_power_control + 36
        0x0000dcca:    4f39        9O      LDR      r7,[pc,#228] ; [0xddb0] = 0xea9e06
        0x0000dccc:    f020407f     ..@    BIC      r0,r0,#0xff000000
        0x0000dcd0:    42b8        .B      CMP      r0,r7
        0x0000dcd2:    d002        ..      BEQ      0xdcda ; am_hal_uart_power_control + 42
        0x0000dcd4:    2002        .       MOVS     r0,#2
        0x0000dcd6:    e8bd83f8    ....    POP      {r3-r9,pc}
        0x0000dcda:    2600        .&      MOVS     r6,#0
        0x0000dcdc:    2900        .)      CMP      r1,#0
        0x0000dcde:    d03e        >.      BEQ      0xdd5e ; am_hal_uart_power_control + 174
        0x0000dce0:    2901        .)      CMP      r1,#1
        0x0000dce2:    bf1e        ..      ITTT     NE
        0x0000dce4:    2902        .)      CMPNE    r1,#2
        0x0000dce6:    2006        .       MOVNE    r0,#6
        0x0000dce8:    e8bd83f8    ....    POPNE    {r3-r9,pc}
        0x0000dcec:    b1d2        ..      CBZ      r2,0xdd24 ; am_hal_uart_power_control + 116
        0x0000dcee:    f7fefa87    ....    BL       am_hal_interrupt_master_disable ; 0xc200
        0x0000dcf2:    9000        ..      STR      r0,[sp,#0]
        0x0000dcf4:    0328        (.      LSLS     r0,r5,#12
        0x0000dcf6:    f1004080    ...@    ADD      r0,r0,#0x40000000
        0x0000dcfa:    f50030e0    ...0    ADD      r0,r0,#0x1c000
        0x0000dcfe:    6a01        .j      LDR      r1,[r0,#0x20]
        0x0000dd00:    60a1        .`      STR      r1,[r4,#8]
        0x0000dd02:    6a41        Aj      LDR      r1,[r0,#0x24]
        0x0000dd04:    60e1        .`      STR      r1,[r4,#0xc]
        0x0000dd06:    6a81        .j      LDR      r1,[r0,#0x28]
        0x0000dd08:    6121        !a      STR      r1,[r4,#0x10]
        0x0000dd0a:    6ac1        .j      LDR      r1,[r0,#0x2c]
        0x0000dd0c:    6161        aa      STR      r1,[r4,#0x14]
        0x0000dd0e:    6b01        .k      LDR      r1,[r0,#0x30]
        0x0000dd10:    61a1        .a      STR      r1,[r4,#0x18]
        0x0000dd12:    6b41        Ak      LDR      r1,[r0,#0x34]
        0x0000dd14:    61e1        .a      STR      r1,[r4,#0x1c]
        0x0000dd16:    6b80        .k      LDR      r0,[r0,#0x38]
        0x0000dd18:    6220         b      STR      r0,[r4,#0x20]
        0x0000dd1a:    2001        .       MOVS     r0,#1
        0x0000dd1c:    7120         q      STRB     r0,[r4,#4]
        0x0000dd1e:    9800        ..      LDR      r0,[sp,#0]
        0x0000dd20:    f7fefa72    ..r.    BL       am_hal_interrupt_master_set ; 0xc208
        0x0000dd24:    6822        "h      LDR      r2,[r4,#0]
        0x0000dd26:    6a61        aj      LDR      r1,[r4,#0x24]
        0x0000dd28:    f04f30ff    O..0    MOV      r0,#0xffffffff
        0x0000dd2c:    f0127f80    ....    TST      r2,#0x1000000
        0x0000dd30:    d009        ..      BEQ      0xdd46 ; am_hal_uart_power_control + 150
        0x0000dd32:    f022427f    "..B    BIC      r2,r2,#0xff000000
        0x0000dd36:    42ba        .B      CMP      r2,r7
        0x0000dd38:    d105        ..      BNE      0xdd46 ; am_hal_uart_power_control + 150
        0x0000dd3a:    0309        ..      LSLS     r1,r1,#12
        0x0000dd3c:    f1014180    ...A    ADD      r1,r1,#0x40000000
        0x0000dd40:    f50131e0    ...1    ADD      r1,r1,#0x1c000
        0x0000dd44:    6448        Hd      STR      r0,[r1,#0x44]
        0x0000dd46:    0328        (.      LSLS     r0,r5,#12
        0x0000dd48:    f1004080    ...@    ADD      r0,r0,#0x40000000
        0x0000dd4c:    f50030e0    ...0    ADD      r0,r0,#0x1c000
        0x0000dd50:    6306        .c      STR      r6,[r0,#0x30]
        0x0000dd52:    4640        @F      MOV      r0,r8
        0x0000dd54:    f7fffc68    ..h.    BL       am_hal_pwrctrl_periph_disable ; 0xd628
        0x0000dd58:    2000        .       MOVS     r0,#0
        0x0000dd5a:    e8bd83f8    ....    POP      {r3-r9,pc}
        0x0000dd5e:    b31a        ..      CBZ      r2,0xdda8 ; am_hal_uart_power_control + 248
        0x0000dd60:    7920         y      LDRB     r0,[r4,#4]
        0x0000dd62:    2800        .(      CMP      r0,#0
        0x0000dd64:    bf04        ..      ITT      EQ
        0x0000dd66:    2007        .       MOVEQ    r0,#7
        0x0000dd68:    e8bd83f8    ....    POPEQ    {r3-r9,pc}
        0x0000dd6c:    4640        @F      MOV      r0,r8
        0x0000dd6e:    f7fffcc3    ....    BL       am_hal_pwrctrl_periph_enable ; 0xd6f8
        0x0000dd72:    f7fefa45    ..E.    BL       am_hal_interrupt_master_disable ; 0xc200
        0x0000dd76:    9000        ..      STR      r0,[sp,#0]
        0x0000dd78:    0328        (.      LSLS     r0,r5,#12
        0x0000dd7a:    f1004080    ...@    ADD      r0,r0,#0x40000000
        0x0000dd7e:    f50030e0    ...0    ADD      r0,r0,#0x1c000
        0x0000dd82:    68a1        .h      LDR      r1,[r4,#8]
        0x0000dd84:    6201        .b      STR      r1,[r0,#0x20]
        0x0000dd86:    68e1        .h      LDR      r1,[r4,#0xc]
        0x0000dd88:    6241        Ab      STR      r1,[r0,#0x24]
        0x0000dd8a:    6921        !i      LDR      r1,[r4,#0x10]
        0x0000dd8c:    6281        .b      STR      r1,[r0,#0x28]
        0x0000dd8e:    6961        ai      LDR      r1,[r4,#0x14]
        0x0000dd90:    62c1        .b      STR      r1,[r0,#0x2c]
        0x0000dd92:    69a1        .i      LDR      r1,[r4,#0x18]
        0x0000dd94:    6301        .c      STR      r1,[r0,#0x30]
        0x0000dd96:    69e1        .i      LDR      r1,[r4,#0x1c]
        0x0000dd98:    6341        Ac      STR      r1,[r0,#0x34]
        0x0000dd9a:    6a21        !j      LDR      r1,[r4,#0x20]
        0x0000dd9c:    6381        .c      STR      r1,[r0,#0x38]
        0x0000dd9e:    7126        &q      STRB     r6,[r4,#4]
        0x0000dda0:    9800        ..      LDR      r0,[sp,#0]
        0x0000dda2:    f7fefa31    ..1.    BL       am_hal_interrupt_master_set ; 0xc208
        0x0000dda6:    e7d7        ..      B        0xdd58 ; am_hal_uart_power_control + 168
        0x0000dda8:    4640        @F      MOV      r0,r8
        0x0000ddaa:    f7fffca5    ....    BL       am_hal_pwrctrl_periph_enable ; 0xd6f8
        0x0000ddae:    e7d3        ..      B        0xdd58 ; am_hal_uart_power_control + 168
    $d
        0x0000ddb0:    00ea9e06    ....    DCD    15375878
    $t
    i.am_hal_uart_transfer
    am_hal_uart_transfer
        0x0000ddb4:    e92d4ff0    -..O    PUSH     {r4-r11,lr}
        0x0000ddb8:    680a        .h      LDR      r2,[r1,#0]
        0x0000ddba:    b09f        ..      SUB      sp,sp,#0x7c
        0x0000ddbc:    460b        .F      MOV      r3,r1
        0x0000ddbe:    b1a2        ..      CBZ      r2,0xddea ; am_hal_uart_transfer + 54
        0x0000ddc0:    2a01        .*      CMP      r2,#1
        0x0000ddc2:    bf1e        ..      ITTT     NE
        0x0000ddc4:    2007        .       MOVNE    r0,#7
        0x0000ddc6:    b01f        ..      ADDNE    sp,sp,#0x7c
        0x0000ddc8:    e8bd8ff0    ....    POPNE    {r4-r11,pc}
        0x0000ddcc:    4604        .F      MOV      r4,r0
        0x0000ddce:    e9d3a201    ....    LDRD     r10,r2,[r3,#4]
        0x0000ddd2:    68cf        .h      LDR      r7,[r1,#0xc]
        0x0000ddd4:    f8d38010    ....    LDR      r8,[r3,#0x10]
        0x0000ddd8:    2f00        ./      CMP      r7,#0
        0x0000ddda:    d077        w.      BEQ      0xdecc ; am_hal_uart_transfer + 280
        0x0000dddc:    2600        .&      MOVS     r6,#0
        0x0000ddde:    0015        ..      MOVS     r5,r2
        0x0000dde0:    46b1        .F      MOV      r9,r6
        0x0000dde2:    f000817f    ....    BEQ.W    0xe0e4 ; am_hal_uart_transfer + 816
        0x0000dde6:    f000b97a    ..z.    B.W      0xe0de ; am_hal_uart_transfer + 810
        0x0000ddea:    4604        .F      MOV      r4,r0
        0x0000ddec:    6858        Xh      LDR      r0,[r3,#4]
        0x0000ddee:    9003        ..      STR      r0,[sp,#0xc]
        0x0000ddf0:    689a        .h      LDR      r2,[r3,#8]
        0x0000ddf2:    f8d38010    ....    LDR      r8,[r3,#0x10]
        0x0000ddf6:    2600        .&      MOVS     r6,#0
        0x0000ddf8:    68cf        .h      LDR      r7,[r1,#0xc]
        0x0000ddfa:    4615        .F      MOV      r5,r2
        0x0000ddfc:    46b1        .F      MOV      r9,r6
        0x0000ddfe:    b1d7        ..      CBZ      r7,0xde36 ; am_hal_uart_transfer + 130
        0x0000de00:    2d00        .-      CMP      r5,#0
        0x0000de02:    d07d        }.      BEQ      0xdf00 ; am_hal_uart_transfer + 332
        0x0000de04:    45b9        .E      CMP      r9,r7
        0x0000de06:    d27b        {.      BCS      0xdf00 ; am_hal_uart_transfer + 332
        0x0000de08:    9803        ..      LDR      r0,[sp,#0xc]
        0x0000de0a:    2300        .#      MOVS     r3,#0
        0x0000de0c:    eb000106    ....    ADD      r1,r0,r6
        0x0000de10:    a809        ..      ADD      r0,sp,#0x24
        0x0000de12:    9309        ..      STR      r3,[sp,#0x24]
        0x0000de14:    ea5f0a04    _...    MOVS     r10,r4
        0x0000de18:    462a        *F      MOV      r2,r5
        0x0000de1a:    900d        ..      STR      r0,[sp,#0x34]
        0x0000de1c:    bf1c        ..      ITT      NE
        0x0000de1e:    f8da0000    ....    LDRNE    r0,[r10,#0]
        0x0000de22:    f0107f80    ....    TSTNE    r0,#0x1000000
        0x0000de26:    d004        ..      BEQ      0xde32 ; am_hal_uart_transfer + 126
        0x0000de28:    f0204c7f     ..L    BIC      r12,r0,#0xff000000
        0x0000de2c:    48c1        .H      LDR      r0,[pc,#772] ; [0xe134] = 0xea9e06
        0x0000de2e:    4584        .E      CMP      r12,r0
        0x0000de30:    d009        ..      BEQ      0xde46 ; am_hal_uart_transfer + 146
        0x0000de32:    2002        .       MOVS     r0,#2
        0x0000de34:    e077        w.      B        0xdf26 ; am_hal_uart_transfer + 370
        0x0000de36:    4601        .F      MOV      r1,r0
        0x0000de38:    4643        CF      MOV      r3,r8
        0x0000de3a:    4620         F      MOV      r0,r4
        0x0000de3c:    f002fd58    ..X.    BL       write_nonblocking ; 0x108f0
        0x0000de40:    b01f        ..      ADD      sp,sp,#0x7c
        0x0000de42:    e8bd8ff0    ....    POP      {r4-r11,pc}
        0x0000de46:    2000        .       MOVS     r0,#0
        0x0000de48:    9009        ..      STR      r0,[sp,#0x24]
        0x0000de4a:    2a00        .*      CMP      r2,#0
        0x0000de4c:    d06a        j.      BEQ      0xdf24 ; am_hal_uart_transfer + 368
        0x0000de4e:    f89a0028    ..(.    LDRB     r0,[r10,#0x28]
        0x0000de52:    b3d0        ..      CBZ      r0,0xdeca ; am_hal_uart_transfer + 278
        0x0000de54:    f8da3038    ..80    LDR      r3,[r10,#0x38]
        0x0000de58:    f8da0034    ..4.    LDR      r0,[r10,#0x34]
        0x0000de5c:    1a18        ..      SUBS     r0,r3,r0
        0x0000de5e:    4282        .B      CMP      r2,r0
        0x0000de60:    bf28        (.      IT       CS
        0x0000de62:    4602        .F      MOVCS    r2,r0
        0x0000de64:    f10a002c    ..,.    ADD      r0,r10,#0x2c
        0x0000de68:    920b        ..      STR      r2,[sp,#0x2c]
        0x0000de6a:    f7fffd15    ....    BL       am_hal_queue_item_add ; 0xd898
        0x0000de6e:    f8dab024    ..$.    LDR      r11,[r10,#0x24]
        0x0000de72:    f7fef9c5    ....    BL       am_hal_interrupt_master_disable ; 0xc200
        0x0000de76:    900e        ..      STR      r0,[sp,#0x38]
        0x0000de78:    ea4f300b    O..0    LSL      r0,r11,#12
        0x0000de7c:    f1004b80    ...K    ADD      r11,r0,#0x40000000
        0x0000de80:    f50b3be0    ...;    ADD      r11,r11,#0x1c000
        0x0000de84:    f8db0018    ....    LDR      r0,[r11,#0x18]
        0x0000de88:    f0100f20    .. .    TST      r0,#0x20
        0x0000de8c:    d119        ..      BNE      0xdec2 ; am_hal_uart_transfer + 270
        0x0000de8e:    2201        ."      MOVS     r2,#1
        0x0000de90:    a901        ..      ADD      r1,sp,#4
        0x0000de92:    f10a002c    ..,.    ADD      r0,r10,#0x2c
        0x0000de96:    f7fffd2a    ..*.    BL       am_hal_queue_item_get ; 0xd8ee
        0x0000de9a:    b190        ..      CBZ      r0,0xdec2 ; am_hal_uart_transfer + 270
        0x0000de9c:    f8da0024    ..$.    LDR      r0,[r10,#0x24]
        0x0000dea0:    0300        ..      LSLS     r0,r0,#12
        0x0000dea2:    f1004080    ...@    ADD      r0,r0,#0x40000000
        0x0000dea6:    f50030e0    ...0    ADD      r0,r0,#0x1c000
        0x0000deaa:    6981        .i      LDR      r1,[r0,#0x18]
        0x0000deac:    f0110f20    .. .    TST      r1,#0x20
        0x0000deb0:    bf04        ..      ITT      EQ
        0x0000deb2:    f89d1004    ....    LDRBEQ   r1,[sp,#4]
        0x0000deb6:    6001        .`      STREQ    r1,[r0,#0]
        0x0000deb8:    f8db0018    ....    LDR      r0,[r11,#0x18]
        0x0000debc:    f0100f20    .. .    TST      r0,#0x20
        0x0000dec0:    d0e5        ..      BEQ      0xde8e ; am_hal_uart_transfer + 218
        0x0000dec2:    980e        ..      LDR      r0,[sp,#0x38]
        0x0000dec4:    f7fef9a0    ....    BL       am_hal_interrupt_master_set ; 0xc208
        0x0000dec8:    e027        '.      B        0xdf1a ; am_hal_uart_transfer + 358
        0x0000deca:    e000        ..      B        0xdece ; am_hal_uart_transfer + 282
        0x0000decc:    e04f        O.      B        0xdf6e ; am_hal_uart_transfer + 442
        0x0000dece:    4653        SF      MOV      r3,r10
        0x0000ded0:    2000        .       MOVS     r0,#0
        0x0000ded2:    f8d3c024    ..$.    LDR      r12,[r3,#0x24]
        0x0000ded6:    f10d0a2c    ..,.    ADD      r10,sp,#0x2c
        0x0000deda:    f1b24f00    ...O    CMP      r2,#0x80000000
        0x0000dede:    f0808115    ....    BCS.W    0xe10c ; am_hal_uart_transfer + 856
        0x0000dee2:    2301        .#      MOVS     r3,#1
        0x0000dee4:    2a01        .*      CMP      r2,#1
        0x0000dee6:    db14        ..      BLT      0xdf12 ; am_hal_uart_transfer + 350
        0x0000dee8:    ea4f3c0c    O..<    LSL      r12,r12,#12
        0x0000deec:    f10c4c80    ...L    ADD      r12,r12,#0x40000000
        0x0000def0:    f50c3ce0    ...<    ADD      r12,r12,#0x1c000
        0x0000def4:    f8dcb018    ....    LDR      r11,[r12,#0x18]
        0x0000def8:    f01b0f20    .. .    TST      r11,#0x20
        0x0000defc:    d109        ..      BNE      0xdf12 ; am_hal_uart_transfer + 350
        0x0000defe:    e000        ..      B        0xdf02 ; am_hal_uart_transfer + 334
        0x0000df00:    e028        (.      B        0xdf54 ; am_hal_uart_transfer + 416
        0x0000df02:    f811b000    ....    LDRB     r11,[r1,r0]
        0x0000df06:    f8ccb000    ....    STR      r11,[r12,#0]
        0x0000df0a:    1c40        @.      ADDS     r0,r0,#1
        0x0000df0c:    1c5b        [.      ADDS     r3,r3,#1
        0x0000df0e:    4293        .B      CMP      r3,r2
        0x0000df10:    ddf0        ..      BLE      0xdef4 ; am_hal_uart_transfer + 320
        0x0000df12:    f1ba0f00    ....    CMP      r10,#0
        0x0000df16:    bf18        ..      IT       NE
        0x0000df18:    900b        ..      STRNE    r0,[sp,#0x2c]
        0x0000df1a:    980d        ..      LDR      r0,[sp,#0x34]
        0x0000df1c:    2800        .(      CMP      r0,#0
        0x0000df1e:    bf1c        ..      ITT      NE
        0x0000df20:    980b        ..      LDRNE    r0,[sp,#0x2c]
        0x0000df22:    9009        ..      STRNE    r0,[sp,#0x24]
        0x0000df24:    2000        .       MOVS     r0,#0
        0x0000df26:    9909        ..      LDR      r1,[sp,#0x24]
        0x0000df28:    440e        .D      ADD      r6,r6,r1
        0x0000df2a:    1a6d        m.      SUBS     r5,r5,r1
        0x0000df2c:    b138        8.      CBZ      r0,0xdf3e ; am_hal_uart_transfer + 394
        0x0000df2e:    f1b80f00    ....    CMP      r8,#0
        0x0000df32:    bf18        ..      IT       NE
        0x0000df34:    f8c86000    ...`    STRNE    r6,[r8,#0]
        0x0000df38:    b01f        ..      ADD      sp,sp,#0x7c
        0x0000df3a:    e8bd8ff0    ....    POP      {r4-r11,pc}
        0x0000df3e:    b14d        M.      CBZ      r5,0xdf54 ; am_hal_uart_transfer + 416
        0x0000df40:    f44f507a    O.zP    MOV      r0,#0x3e80
        0x0000df44:    f7feff5e    ..^.    BL       am_hal_flash_delay ; 0xce04
        0x0000df48:    f1b73fff    ...?    CMP      r7,#0xffffffff
        0x0000df4c:    bf18        ..      IT       NE
        0x0000df4e:    f1090901    ....    ADDNE    r9,r9,#1
        0x0000df52:    e757        W.      B        0xde04 ; am_hal_uart_transfer + 80
        0x0000df54:    f1b80f00    ....    CMP      r8,#0
        0x0000df58:    bf18        ..      IT       NE
        0x0000df5a:    f8c86000    ...`    STRNE    r6,[r8,#0]
        0x0000df5e:    1c78        x.      ADDS     r0,r7,#1
        0x0000df60:    bf04        ..      ITT      EQ
        0x0000df62:    b01f        ..      ADDEQ    sp,sp,#0x7c
        0x0000df64:    e8bd8ff0    ....    POPEQ    {r4-r11,pc}
        0x0000df68:    454f        OE      CMP      r7,r9
        0x0000df6a:    d97a        z.      BLS      0xe062 ; am_hal_uart_transfer + 686
        0x0000df6c:    e0c6        ..      B        0xe0fc ; am_hal_uart_transfer + 840
        0x0000df6e:    4643        CF      MOV      r3,r8
        0x0000df70:    4651        QF      MOV      r1,r10
        0x0000df72:    f002fb1b    ....    BL       read_nonblocking ; 0x105ac
        0x0000df76:    b01f        ..      ADD      sp,sp,#0x7c
        0x0000df78:    e8bd8ff0    ....    POP      {r4-r11,pc}
        0x0000df7c:    eb0a0006    ....    ADD      r0,r10,r6
        0x0000df80:    900b        ..      STR      r0,[sp,#0x2c]
        0x0000df82:    f04f0b00    O...    MOV      r11,#0
        0x0000df86:    a807        ..      ADD      r0,sp,#0x1c
        0x0000df88:    f8cdb01c    ....    STR      r11,[sp,#0x1c]
        0x0000df8c:    900f        ..      STR      r0,[sp,#0x3c]
        0x0000df8e:    2c00        .,      CMP      r4,#0
        0x0000df90:    bf1c        ..      ITT      NE
        0x0000df92:    6820         h      LDRNE    r0,[r4,#0]
        0x0000df94:    f0107f80    ....    TSTNE    r0,#0x1000000
        0x0000df98:    d004        ..      BEQ      0xdfa4 ; am_hal_uart_transfer + 496
        0x0000df9a:    f020417f     ..A    BIC      r1,r0,#0xff000000
        0x0000df9e:    4865        eH      LDR      r0,[pc,#404] ; [0xe134] = 0xea9e06
        0x0000dfa0:    4281        .B      CMP      r1,r0
        0x0000dfa2:    d002        ..      BEQ      0xdfaa ; am_hal_uart_transfer + 502
        0x0000dfa4:    f04f0b02    O...    MOV      r11,#2
        0x0000dfa8:    e052        R.      B        0xe050 ; am_hal_uart_transfer + 668
        0x0000dfaa:    b3b5        ..      CBZ      r5,0xe01a ; am_hal_uart_transfer + 614
        0x0000dfac:    f8940044    ..D.    LDRB     r0,[r4,#0x44]
        0x0000dfb0:    2800        .(      CMP      r0,#0
        0x0000dfb2:    d064        d.      BEQ      0xe07e ; am_hal_uart_transfer + 714
        0x0000dfb4:    46a3        .F      MOV      r11,r4
        0x0000dfb6:    941c        ..      STR      r4,[sp,#0x70]
        0x0000dfb8:    f7fef922    ..".    BL       am_hal_interrupt_master_disable ; 0xc200
        0x0000dfbc:    f04f0c00    O...    MOV      r12,#0
        0x0000dfc0:    f8cdc06c    ..l.    STR      r12,[sp,#0x6c]
        0x0000dfc4:    9018        ..      STR      r0,[sp,#0x60]
        0x0000dfc6:    f8db0024    ..$.    LDR      r0,[r11,#0x24]
        0x0000dfca:    2220         "      MOVS     r2,#0x20
        0x0000dfcc:    0300        ..      LSLS     r0,r0,#12
        0x0000dfce:    f1004180    ...A    ADD      r1,r0,#0x40000000
        0x0000dfd2:    ab10        ..      ADD      r3,sp,#0x40
        0x0000dfd4:    f10d0e64    ..d.    ADD      lr,sp,#0x64
        0x0000dfd8:    f50131e0    ...1    ADD      r1,r1,#0x1c000
        0x0000dfdc:    6988        .i      LDR      r0,[r1,#0x18]
        0x0000dfde:    f0100f10    ....    TST      r0,#0x10
        0x0000dfe2:    d10d        ..      BNE      0xe000 ; am_hal_uart_transfer + 588
        0x0000dfe4:    6808        .h      LDR      r0,[r1,#0]
        0x0000dfe6:    f4106f70    ..po    TST      r0,#0xf00
        0x0000dfea:    d003        ..      BEQ      0xdff4 ; am_hal_uart_transfer + 576
        0x0000dfec:    f04f6000    O..`    MOV      r0,#0x8000000
        0x0000dff0:    901b        ..      STR      r0,[sp,#0x6c]
        0x0000dff2:    e005        ..      B        0xe000 ; am_hal_uart_transfer + 588
        0x0000dff4:    f803000c    ....    STRB     r0,[r3,r12]
        0x0000dff8:    f10c0c01    ....    ADD      r12,r12,#1
        0x0000dffc:    4594        .E      CMP      r12,r2
        0x0000dffe:    d3ed        ..      BCC      0xdfdc ; am_hal_uart_transfer + 552
        0x0000e000:    f1be0f00    ....    CMP      lr,#0
        0x0000e004:    bf18        ..      IT       NE
        0x0000e006:    f8cdc064    ..d.    STRNE    r12,[sp,#0x64]
        0x0000e00a:    f8ddb06c    ..l.    LDR      r11,[sp,#0x6c]
        0x0000e00e:    f1bb0f00    ....    CMP      r11,#0
        0x0000e012:    d003        ..      BEQ      0xe01c ; am_hal_uart_transfer + 616
        0x0000e014:    9818        ..      LDR      r0,[sp,#0x60]
        0x0000e016:    f7fef8f7    ....    BL       am_hal_interrupt_master_set ; 0xc208
        0x0000e01a:    e019        ..      B        0xe050 ; am_hal_uart_transfer + 668
        0x0000e01c:    981c        ..      LDR      r0,[sp,#0x70]
        0x0000e01e:    4619        .F      MOV      r1,r3
        0x0000e020:    3048        H0      ADDS     r0,r0,#0x48
        0x0000e022:    9a19        ..      LDR      r2,[sp,#0x64]
        0x0000e024:    f7fffc38    ..8.    BL       am_hal_queue_item_add ; 0xd898
        0x0000e028:    b318        ..      CBZ      r0,0xe072 ; am_hal_uart_transfer + 702
        0x0000e02a:    9818        ..      LDR      r0,[sp,#0x60]
        0x0000e02c:    f7fef8ec    ....    BL       am_hal_interrupt_master_set ; 0xc208
        0x0000e030:    6d22        "m      LDR      r2,[r4,#0x50]
        0x0000e032:    4628        (F      MOV      r0,r5
        0x0000e034:    4295        .B      CMP      r5,r2
        0x0000e036:    bf38        8.      IT       CC
        0x0000e038:    4602        .F      MOVCC    r2,r0
        0x0000e03a:    920a        ..      STR      r2,[sp,#0x28]
        0x0000e03c:    f1040048    ..H.    ADD      r0,r4,#0x48
        0x0000e040:    990b        ..      LDR      r1,[sp,#0x2c]
        0x0000e042:    f7fffc54    ..T.    BL       am_hal_queue_item_get ; 0xd8ee
        0x0000e046:    980f        ..      LDR      r0,[sp,#0x3c]
        0x0000e048:    2800        .(      CMP      r0,#0
        0x0000e04a:    bf1c        ..      ITT      NE
        0x0000e04c:    980a        ..      LDRNE    r0,[sp,#0x28]
        0x0000e04e:    9007        ..      STRNE    r0,[sp,#0x1c]
        0x0000e050:    9807        ..      LDR      r0,[sp,#0x1c]
        0x0000e052:    1a2d        -.      SUBS     r5,r5,r0
        0x0000e054:    4406        .D      ADD      r6,r6,r0
        0x0000e056:    f1bb0f00    ....    CMP      r11,#0
        0x0000e05a:    d036        6.      BEQ      0xe0ca ; am_hal_uart_transfer + 790
        0x0000e05c:    f1b80f00    ....    CMP      r8,#0
        0x0000e060:    e000        ..      B        0xe064 ; am_hal_uart_transfer + 688
        0x0000e062:    e04f        O.      B        0xe104 ; am_hal_uart_transfer + 848
        0x0000e064:    bf18        ..      IT       NE
        0x0000e066:    f8c86000    ...`    STRNE    r6,[r8,#0]
        0x0000e06a:    4658        XF      MOV      r0,r11
        0x0000e06c:    b01f        ..      ADD      sp,sp,#0x7c
        0x0000e06e:    e8bd8ff0    ....    POP      {r4-r11,pc}
        0x0000e072:    f8dfb0c4    ....    LDR      r11,[pc,#196] ; [0xe138] = 0x8000001
        0x0000e076:    9818        ..      LDR      r0,[sp,#0x60]
        0x0000e078:    f7fef8c6    ....    BL       am_hal_interrupt_master_set ; 0xc208
        0x0000e07c:    e7e8        ..      B        0xe050 ; am_hal_uart_transfer + 668
        0x0000e07e:    a80a        ..      ADD      r0,sp,#0x28
        0x0000e080:    900d        ..      STR      r0,[sp,#0x34]
        0x0000e082:    f8ddc02c    ..,.    LDR      r12,[sp,#0x2c]
        0x0000e086:    f04f0000    O...    MOV      r0,#0
        0x0000e08a:    6a61        aj      LDR      r1,[r4,#0x24]
        0x0000e08c:    002b        +.      MOVS     r3,r5
        0x0000e08e:    4686        .F      MOV      lr,r0
        0x0000e090:    bf1e        ..      ITTT     NE
        0x0000e092:    0309        ..      LSLNE    r1,r1,#12
        0x0000e094:    f1014280    ...B    ADDNE    r2,r1,#0x40000000
        0x0000e098:    f50232e0    ...2    ADDNE    r2,r2,#0x1c000
        0x0000e09c:    d00f        ..      BEQ      0xe0be ; am_hal_uart_transfer + 778
        0x0000e09e:    6991        .i      LDR      r1,[r2,#0x18]
        0x0000e0a0:    f0110f10    ....    TST      r1,#0x10
        0x0000e0a4:    d10b        ..      BNE      0xe0be ; am_hal_uart_transfer + 778
        0x0000e0a6:    6811        .h      LDR      r1,[r2,#0]
        0x0000e0a8:    f4116f70    ..po    TST      r1,#0xf00
        0x0000e0ac:    d002        ..      BEQ      0xe0b4 ; am_hal_uart_transfer + 768
        0x0000e0ae:    f04f6e00    O..n    MOV      lr,#0x8000000
        0x0000e0b2:    e004        ..      B        0xe0be ; am_hal_uart_transfer + 778
        0x0000e0b4:    f80c1000    ....    STRB     r1,[r12,r0]
        0x0000e0b8:    1c40        @.      ADDS     r0,r0,#1
        0x0000e0ba:    4298        .B      CMP      r0,r3
        0x0000e0bc:    d3ef        ..      BCC      0xe09e ; am_hal_uart_transfer + 746
        0x0000e0be:    990d        ..      LDR      r1,[sp,#0x34]
        0x0000e0c0:    2900        .)      CMP      r1,#0
        0x0000e0c2:    bf18        ..      IT       NE
        0x0000e0c4:    900a        ..      STRNE    r0,[sp,#0x28]
        0x0000e0c6:    46f3        .F      MOV      r11,lr
        0x0000e0c8:    e7bd        ..      B        0xe046 ; am_hal_uart_transfer + 658
        0x0000e0ca:    b15d        ].      CBZ      r5,0xe0e4 ; am_hal_uart_transfer + 816
        0x0000e0cc:    f44f507a    O.zP    MOV      r0,#0x3e80
        0x0000e0d0:    f7fefe98    ....    BL       am_hal_flash_delay ; 0xce04
        0x0000e0d4:    f1b73fff    ...?    CMP      r7,#0xffffffff
        0x0000e0d8:    bf18        ..      IT       NE
        0x0000e0da:    f1090901    ....    ADDNE    r9,r9,#1
        0x0000e0de:    454f        OE      CMP      r7,r9
        0x0000e0e0:    f63faf4c    ?.L.    BHI      0xdf7c ; am_hal_uart_transfer + 456
        0x0000e0e4:    f1b80f00    ....    CMP      r8,#0
        0x0000e0e8:    bf18        ..      IT       NE
        0x0000e0ea:    f8c86000    ...`    STRNE    r6,[r8,#0]
        0x0000e0ee:    1c78        x.      ADDS     r0,r7,#1
        0x0000e0f0:    bf04        ..      ITT      EQ
        0x0000e0f2:    b01f        ..      ADDEQ    sp,sp,#0x7c
        0x0000e0f4:    e8bd8ff0    ....    POPEQ    {r4-r11,pc}
        0x0000e0f8:    454f        OE      CMP      r7,r9
        0x0000e0fa:    d903        ..      BLS      0xe104 ; am_hal_uart_transfer + 848
        0x0000e0fc:    b01f        ..      ADD      sp,sp,#0x7c
        0x0000e0fe:    2000        .       MOVS     r0,#0
        0x0000e100:    e8bd8ff0    ....    POP      {r4-r11,pc}
        0x0000e104:    b01f        ..      ADD      sp,sp,#0x7c
        0x0000e106:    2004        .       MOVS     r0,#4
        0x0000e108:    e8bd8ff0    ....    POP      {r4-r11,pc}
        0x0000e10c:    ea4f330c    O..3    LSL      r3,r12,#12
        0x0000e110:    f1034380    ...C    ADD      r3,r3,#0x40000000
        0x0000e114:    f50333e0    ...3    ADD      r3,r3,#0x1c000
        0x0000e118:    f8d3c018    ....    LDR      r12,[r3,#0x18]
        0x0000e11c:    f01c0f20    .. .    TST      r12,#0x20
        0x0000e120:    f47faef7    ....    BNE      0xdf12 ; am_hal_uart_transfer + 350
        0x0000e124:    f811c000    ....    LDRB     r12,[r1,r0]
        0x0000e128:    f8c3c000    ....    STR      r12,[r3,#0]
        0x0000e12c:    1c40        @.      ADDS     r0,r0,#1
        0x0000e12e:    4290        .B      CMP      r0,r2
        0x0000e130:    d3f2        ..      BCC      0xe118 ; am_hal_uart_transfer + 868
        0x0000e132:    e6ee        ..      B        0xdf12 ; am_hal_uart_transfer + 350
    $d
        0x0000e134:    00ea9e06    ....    DCD    15375878
        0x0000e138:    08000001    ....    DCD    134217729
    $t
    i.am_hal_uart_tx_flush
    am_hal_uart_tx_flush
        0x0000e13c:    b570        p.      PUSH     {r4-r6,lr}
        0x0000e13e:    4604        .F      MOV      r4,r0
        0x0000e140:    6a46        Fj      LDR      r6,[r0,#0x24]
        0x0000e142:    f8900028    ..(.    LDRB     r0,[r0,#0x28]
        0x0000e146:    4d13        .M      LDR      r5,[pc,#76] ; [0xe194] = 0xb71b00
        0x0000e148:    2800        .(      CMP      r0,#0
        0x0000e14a:    bf1c        ..      ITT      NE
        0x0000e14c:    6b60        `k      LDRNE    r0,[r4,#0x34]
        0x0000e14e:    2800        .(      CMPNE    r0,#0
        0x0000e150:    d009        ..      BEQ      0xe166 ; am_hal_uart_tx_flush + 42
        0x0000e152:    6e20         n      LDR      r0,[r4,#0x60]
        0x0000e154:    fbb5f0f0    ....    UDIV     r0,r5,r0
        0x0000e158:    ea4f1000    O...    LSL      r0,r0,#4
        0x0000e15c:    f7fefe52    ..R.    BL       am_hal_flash_delay ; 0xce04
        0x0000e160:    6b60        `k      LDR      r0,[r4,#0x34]
        0x0000e162:    2800        .(      CMP      r0,#0
        0x0000e164:    d1f5        ..      BNE      0xe152 ; am_hal_uart_tx_flush + 22
        0x0000e166:    0330        0.      LSLS     r0,r6,#12
        0x0000e168:    f1004680    ...F    ADD      r6,r0,#0x40000000
        0x0000e16c:    f50636e0    ...6    ADD      r6,r6,#0x1c000
        0x0000e170:    69b0        .i      LDR      r0,[r6,#0x18]
        0x0000e172:    f0100f08    ....    TST      r0,#8
        0x0000e176:    d00a        ..      BEQ      0xe18e ; am_hal_uart_tx_flush + 82
        0x0000e178:    6e20         n      LDR      r0,[r4,#0x60]
        0x0000e17a:    fbb5f0f0    ....    UDIV     r0,r5,r0
        0x0000e17e:    ea4f1000    O...    LSL      r0,r0,#4
        0x0000e182:    f7fefe3f    ..?.    BL       am_hal_flash_delay ; 0xce04
        0x0000e186:    69b0        .i      LDR      r0,[r6,#0x18]
        0x0000e188:    f0100f08    ....    TST      r0,#8
        0x0000e18c:    d1f4        ..      BNE      0xe178 ; am_hal_uart_tx_flush + 60
        0x0000e18e:    f04f0000    O...    MOV      r0,#0
        0x0000e192:    bd70        p.      POP      {r4-r6,pc}
    $d
        0x0000e194:    00b71b00    ....    DCD    12000000
    $t
    i.am_sprintf
    am_sprintf
        0x0000e198:    b40f        ..      PUSH     {r0-r3}
        0x0000e19a:    e92d41f0    -..A    PUSH     {r4-r8,lr}
        0x0000e19e:    4c18        .L      LDR      r4,[pc,#96] ; [0xe200] = 0x10001038
        0x0000e1a0:    2500        .%      MOVS     r5,#0
        0x0000e1a2:    6860        `h      LDR      r0,[r4,#4]
        0x0000e1a4:    f5b06f80    ...o    CMP      r0,#0x400
        0x0000e1a8:    d224        $.      BCS      0xe1f4 ; am_sprintf + 92
        0x0000e1aa:    aa07        ..      ADD      r2,sp,#0x1c
        0x0000e1ac:    9906        ..      LDR      r1,[sp,#0x18]
        0x0000e1ae:    68a0        .h      LDR      r0,[r4,#8]
        0x0000e1b0:    f000f8d2    ....    BL       am_util_stdio_vsprintf ; 0xe358
        0x0000e1b4:    6861        ah      LDR      r1,[r4,#4]
        0x0000e1b6:    2700        .'      MOVS     r7,#0
        0x0000e1b8:    4401        .D      ADD      r1,r1,r0
        0x0000e1ba:    f5b16f80    ...o    CMP      r1,#0x400
        0x0000e1be:    d30e        ..      BCC      0xe1de ; am_sprintf + 70
        0x0000e1c0:    4e1a        .N      LDR      r6,[pc,#104] ; [0xe22c] = 0x10001108
        0x0000e1c2:    a110        ..      ADR      r1,{pc}+0x42 ; 0xe204
        0x0000e1c4:    f20630d7    ...0    ADD      r0,r6,#0x3d7
        0x0000e1c8:    f000f8bc    ....    BL       am_util_stdio_sprintf ; 0xe344
        0x0000e1cc:    f88673ff    ...s    STRB     r7,[r6,#0x3ff]
        0x0000e1d0:    f5066080    ...`    ADD      r0,r6,#0x400
        0x0000e1d4:    60a0        .`      STR      r0,[r4,#8]
        0x0000e1d6:    f44f6080    O..`    MOV      r0,#0x400
        0x0000e1da:    6060        ``      STR      r0,[r4,#4]
        0x0000e1dc:    e00a        ..      B        0xe1f4 ; am_sprintf + 92
        0x0000e1de:    68a1        .h      LDR      r1,[r4,#8]
        0x0000e1e0:    4401        .D      ADD      r1,r1,r0
        0x0000e1e2:    1c49        I.      ADDS     r1,r1,#1
        0x0000e1e4:    60a1        .`      STR      r1,[r4,#8]
        0x0000e1e6:    6861        ah      LDR      r1,[r4,#4]
        0x0000e1e8:    4401        .D      ADD      r1,r1,r0
        0x0000e1ea:    6061        a`      STR      r1,[r4,#4]
        0x0000e1ec:    6861        ah      LDR      r1,[r4,#4]
        0x0000e1ee:    1c49        I.      ADDS     r1,r1,#1
        0x0000e1f0:    6061        a`      STR      r1,[r4,#4]
        0x0000e1f2:    4605        .F      MOV      r5,r0
        0x0000e1f4:    4628        (F      MOV      r0,r5
        0x0000e1f6:    e8bd01f0    ....    POP      {r4-r8}
        0x0000e1fa:    f85dfb14    ]...    LDR      pc,[sp],#0x14
    $d
        0x0000e1fe:    0000        ..      DCW    0
        0x0000e200:    10001038    8...    DCD    268439608
        0x0000e204:    46465542    BUFF    DCD    1179014466
        0x0000e208:    4f205245    ER O    DCD    1327518277
        0x0000e20c:    46524556    VERF    DCD    1179796822
        0x0000e210:    45574f4c    LOWE    DCD    1163349836
        0x0000e214:    49202144    D! I    DCD    1226842436
        0x0000e218:    6572636e    ncre    DCD    1701995374
        0x0000e21c:    20657361    ase     DCD    543519585
        0x0000e220:    42545250    PRTB    DCD    1112822352
        0x0000e224:    49534655    UFSI    DCD    1230194261
        0x0000e228:    000a455a    ZE..    DCD    673114
        0x0000e22c:    10001108    ....    DCD    268439816
    $t
    i.am_util_delay_ms
    am_util_delay_ms
        0x0000e230:    b510        ..      PUSH     {r4,lr}
        0x0000e232:    b084        ..      SUB      sp,sp,#0x10
        0x0000e234:    4604        .F      MOV      r4,r0
        0x0000e236:    4668        hF      MOV      r0,sp
        0x0000e238:    f7fefdca    ....    BL       am_hal_clkgen_status_get ; 0xcdd0
        0x0000e23c:    9800        ..      LDR      r0,[sp,#0]
        0x0000e23e:    f64031b8    @..1    MOV      r1,#0xbb8
        0x0000e242:    fbb0f0f1    ....    UDIV     r0,r0,r1
        0x0000e246:    4360        `C      MULS     r0,r4,r0
        0x0000e248:    f7fefddc    ....    BL       am_hal_flash_delay ; 0xce04
        0x0000e24c:    b004        ..      ADD      sp,sp,#0x10
        0x0000e24e:    bd10        ..      POP      {r4,pc}
    i.am_util_faultisr_collect_data
    am_util_faultisr_collect_data
        0x0000e250:    b092        ..      SUB      sp,sp,#0x48
        0x0000e252:    4604        .F      MOV      r4,r0
        0x0000e254:    2000        .       MOVS     r0,#0
        0x0000e256:    900c        ..      STR      r0,[sp,#0x30]
        0x0000e258:    900f        ..      STR      r0,[sp,#0x3c]
        0x0000e25a:    900d        ..      STR      r0,[sp,#0x34]
        0x0000e25c:    900e        ..      STR      r0,[sp,#0x38]
        0x0000e25e:    9010        ..      STR      r0,[sp,#0x40]
        0x0000e260:    9011        ..      STR      r0,[sp,#0x44]
        0x0000e262:    900a        ..      STR      r0,[sp,#0x28]
        0x0000e264:    4825        %H      LDR      r0,[pc,#148] ; [0xe2fc] = 0xe000ed28
        0x0000e266:    6800        .h      LDR      r0,[r0,#0]
        0x0000e268:    900a        ..      STR      r0,[sp,#0x28]
        0x0000e26a:    980a        ..      LDR      r0,[sp,#0x28]
        0x0000e26c:    f88d002c    ..,.    STRB     r0,[sp,#0x2c]
        0x0000e270:    980a        ..      LDR      r0,[sp,#0x28]
        0x0000e272:    0a00        ..      LSRS     r0,r0,#8
        0x0000e274:    f88d002d    ..-.    STRB     r0,[sp,#0x2d]
        0x0000e278:    980a        ..      LDR      r0,[sp,#0x28]
        0x0000e27a:    0c00        ..      LSRS     r0,r0,#16
        0x0000e27c:    f8ad002e    ....    STRH     r0,[sp,#0x2e]
        0x0000e280:    481f        .H      LDR      r0,[pc,#124] ; [0xe300] = 0xe000ed38
        0x0000e282:    6800        .h      LDR      r0,[r0,#0]
        0x0000e284:    9009        ..      STR      r0,[sp,#0x24]
        0x0000e286:    f89d002d    ..-.    LDRB     r0,[sp,#0x2d]
        0x0000e28a:    f0100f02    ....    TST      r0,#2
        0x0000e28e:    bf08        ..      IT       EQ
        0x0000e290:    f04f30ff    O..0    MOVEQ    r0,#0xffffffff
        0x0000e294:    d003        ..      BEQ      0xe29e ; am_util_faultisr_collect_data + 78
        0x0000e296:    4621        !F      MOV      r1,r4
        0x0000e298:    2006        .       MOVS     r0,#6
        0x0000e29a:    f7fdffa8    ....    BL       getStackedReg ; 0xc1ee
        0x0000e29e:    9008        ..      STR      r0,[sp,#0x20]
        0x0000e2a0:    4621        !F      MOV      r1,r4
        0x0000e2a2:    2000        .       MOVS     r0,#0
        0x0000e2a4:    f7fdffa3    ....    BL       getStackedReg ; 0xc1ee
        0x0000e2a8:    9000        ..      STR      r0,[sp,#0]
        0x0000e2aa:    4621        !F      MOV      r1,r4
        0x0000e2ac:    2001        .       MOVS     r0,#1
        0x0000e2ae:    f7fdff9e    ....    BL       getStackedReg ; 0xc1ee
        0x0000e2b2:    9001        ..      STR      r0,[sp,#4]
        0x0000e2b4:    4621        !F      MOV      r1,r4
        0x0000e2b6:    2002        .       MOVS     r0,#2
        0x0000e2b8:    f7fdff99    ....    BL       getStackedReg ; 0xc1ee
        0x0000e2bc:    9002        ..      STR      r0,[sp,#8]
        0x0000e2be:    4621        !F      MOV      r1,r4
        0x0000e2c0:    2003        .       MOVS     r0,#3
        0x0000e2c2:    f7fdff94    ....    BL       getStackedReg ; 0xc1ee
        0x0000e2c6:    9003        ..      STR      r0,[sp,#0xc]
        0x0000e2c8:    4621        !F      MOV      r1,r4
        0x0000e2ca:    2004        .       MOVS     r0,#4
        0x0000e2cc:    f7fdff8f    ....    BL       getStackedReg ; 0xc1ee
        0x0000e2d0:    9004        ..      STR      r0,[sp,#0x10]
        0x0000e2d2:    4621        !F      MOV      r1,r4
        0x0000e2d4:    2005        .       MOVS     r0,#5
        0x0000e2d6:    f7fdff8a    ....    BL       getStackedReg ; 0xc1ee
        0x0000e2da:    9005        ..      STR      r0,[sp,#0x14]
        0x0000e2dc:    4621        !F      MOV      r1,r4
        0x0000e2de:    2006        .       MOVS     r0,#6
        0x0000e2e0:    f7fdff85    ....    BL       getStackedReg ; 0xc1ee
        0x0000e2e4:    9006        ..      STR      r0,[sp,#0x18]
        0x0000e2e6:    4621        !F      MOV      r1,r4
        0x0000e2e8:    2007        .       MOVS     r0,#7
        0x0000e2ea:    f7fdff80    ....    BL       getStackedReg ; 0xc1ee
        0x0000e2ee:    9007        ..      STR      r0,[sp,#0x1c]
        0x0000e2f0:    a90c        ..      ADD      r1,sp,#0x30
        0x0000e2f2:    2002        .       MOVS     r0,#2
        0x0000e2f4:    f7feff5e    ..^.    BL       am_hal_mcuctrl_info_get ; 0xd1b4
        0x0000e2f8:    e7fe        ..      B        0xe2f8 ; am_util_faultisr_collect_data + 168
    $d
        0x0000e2fa:    0000        ..      DCW    0
        0x0000e2fc:    e000ed28    (...    DCD    3758157096
        0x0000e300:    e000ed38    8...    DCD    3758157112
    $t
    i.am_util_stdio_printf
    am_util_stdio_printf
        0x0000e304:    b40f        ..      PUSH     {r0-r3}
        0x0000e306:    b570        p.      PUSH     {r4-r6,lr}
        0x0000e308:    4c09        .L      LDR      r4,[pc,#36] ; [0xe330] = 0x1000109c
        0x0000e30a:    6860        `h      LDR      r0,[r4,#4]
        0x0000e30c:    2800        .(      CMP      r0,#0
        0x0000e30e:    bf04        ..      ITT      EQ
        0x0000e310:    bc70        p.      POPEQ    {r4-r6}
        0x0000e312:    f85dfb14    ]...    LDREQ    pc,[sp],#0x14
        0x0000e316:    aa05        ..      ADD      r2,sp,#0x14
        0x0000e318:    4806        .H      LDR      r0,[pc,#24] ; [0xe334] = 0x10001508
        0x0000e31a:    9904        ..      LDR      r1,[sp,#0x10]
        0x0000e31c:    f000f81c    ....    BL       am_util_stdio_vsprintf ; 0xe358
        0x0000e320:    4605        .F      MOV      r5,r0
        0x0000e322:    6861        ah      LDR      r1,[r4,#4]
        0x0000e324:    4803        .H      LDR      r0,[pc,#12] ; [0xe334] = 0x10001508
        0x0000e326:    4788        .G      BLX      r1
        0x0000e328:    4628        (F      MOV      r0,r5
        0x0000e32a:    bc70        p.      POP      {r4-r6}
        0x0000e32c:    f85dfb14    ]...    LDR      pc,[sp],#0x14
    $d
        0x0000e330:    1000109c    ....    DCD    268439708
        0x0000e334:    10001508    ....    DCD    268440840
    $t
    i.am_util_stdio_printf_init
    am_util_stdio_printf_init
        0x0000e338:    4901        .I      LDR      r1,[pc,#4] ; [0xe340] = 0x1000109c
        0x0000e33a:    6048        H`      STR      r0,[r1,#4]
        0x0000e33c:    4770        pG      BX       lr
    $d
        0x0000e33e:    0000        ..      DCW    0
        0x0000e340:    1000109c    ....    DCD    268439708
    $t
    i.am_util_stdio_sprintf
    am_util_stdio_sprintf
        0x0000e344:    b40f        ..      PUSH     {r0-r3}
        0x0000e346:    b510        ..      PUSH     {r4,lr}
        0x0000e348:    aa04        ..      ADD      r2,sp,#0x10
        0x0000e34a:    9903        ..      LDR      r1,[sp,#0xc]
        0x0000e34c:    f000f804    ....    BL       am_util_stdio_vsprintf ; 0xe358
        0x0000e350:    bc10        ..      POP      {r4}
        0x0000e352:    f85dfb14    ]...    LDR      pc,[sp],#0x14
        0x0000e356:    0000        ..      MOVS     r0,r0
    i.am_util_stdio_vsprintf
    am_util_stdio_vsprintf
        0x0000e358:    e92d4ff7    -..O    PUSH     {r0-r2,r4-r11,lr}
        0x0000e35c:    4604        .F      MOV      r4,r0
        0x0000e35e:    7808        .x      LDRB     r0,[r1,#0]
        0x0000e360:    2500        .%      MOVS     r5,#0
        0x0000e362:    b088        ..      SUB      sp,sp,#0x20
        0x0000e364:    2800        .(      CMP      r0,#0
        0x0000e366:    f0008385    ....    BEQ.W    0xea74 ; am_util_stdio_vsprintf + 1820
        0x0000e36a:    bf00        ..      NOP      
        0x0000e36c:    b2c0        ..      UXTB     r0,r0
        0x0000e36e:    f04f0906    O...    MOV      r9,#6
        0x0000e372:    2825        %(      CMP      r0,#0x25
        0x0000e374:    d010        ..      BEQ      0xe398 ; am_util_stdio_vsprintf + 64
        0x0000e376:    b15c        \.      CBZ      r4,0xe390 ; am_util_stdio_vsprintf + 56
        0x0000e378:    280a        .(      CMP      r0,#0xa
        0x0000e37a:    d106        ..      BNE      0xe38a ; am_util_stdio_vsprintf + 50
        0x0000e37c:    48fe        .H      LDR      r0,[pc,#1016] ; [0xe778] = 0x1000109c
        0x0000e37e:    7800        .x      LDRB     r0,[r0,#0]
        0x0000e380:    b118        ..      CBZ      r0,0xe38a ; am_util_stdio_vsprintf + 50
        0x0000e382:    200d        .       MOVS     r0,#0xd
        0x0000e384:    f8040b01    ....    STRB     r0,[r4],#1
        0x0000e388:    1c6d        m.      ADDS     r5,r5,#1
        0x0000e38a:    7808        .x      LDRB     r0,[r1,#0]
        0x0000e38c:    f8040b01    ....    STRB     r0,[r4],#1
        0x0000e390:    1c49        I.      ADDS     r1,r1,#1
        0x0000e392:    1c6d        m.      ADDS     r5,r5,#1
        0x0000e394:    f000bb6a    ..j.    B.W      0xea6c ; am_util_stdio_vsprintf + 1812
        0x0000e398:    2020                MOVS     r0,#0x20
        0x0000e39a:    9001        ..      STR      r0,[sp,#4]
        0x0000e39c:    2700        .'      MOVS     r7,#0
        0x0000e39e:    f8110f01    ....    LDRB     r0,[r1,#1]!
        0x0000e3a2:    46bc        .F      MOV      r12,r7
        0x0000e3a4:    2830        0(      CMP      r0,#0x30
        0x0000e3a6:    d101        ..      BNE      0xe3ac ; am_util_stdio_vsprintf + 84
        0x0000e3a8:    1c49        I.      ADDS     r1,r1,#1
        0x0000e3aa:    9001        ..      STR      r0,[sp,#4]
        0x0000e3ac:    2600        .&      MOVS     r6,#0
        0x0000e3ae:    f891a000    ....    LDRB     r10,[r1,#0]
        0x0000e3b2:    460a        .F      MOV      r2,r1
        0x0000e3b4:    f10d0808    ....    ADD      r8,sp,#8
        0x0000e3b8:    4630        0F      MOV      r0,r6
        0x0000e3ba:    4633        3F      MOV      r3,r6
        0x0000e3bc:    f1ba0f2d    ..-.    CMP      r10,#0x2d
        0x0000e3c0:    d102        ..      BNE      0xe3c8 ; am_util_stdio_vsprintf + 112
        0x0000e3c2:    2601        .&      MOVS     r6,#1
        0x0000e3c4:    1c4a        J.      ADDS     r2,r1,#1
        0x0000e3c6:    4633        3F      MOV      r3,r6
        0x0000e3c8:    f892a000    ....    LDRB     r10,[r2,#0]
        0x0000e3cc:    f1aa0a30    ..0.    SUB      r10,r10,#0x30
        0x0000e3d0:    f1ba0f09    ....    CMP      r10,#9
        0x0000e3d4:    d80f        ..      BHI      0xe3f6 ; am_util_stdio_vsprintf + 158
        0x0000e3d6:    bf00        ..      NOP      
        0x0000e3d8:    eb000080    ....    ADD      r0,r0,r0,LSL #2
        0x0000e3dc:    0040        @.      LSLS     r0,r0,#1
        0x0000e3de:    f812ab01    ....    LDRB     r10,[r2],#1
        0x0000e3e2:    3830        08      SUBS     r0,r0,#0x30
        0x0000e3e4:    4450        PD      ADD      r0,r0,r10
        0x0000e3e6:    f892a000    ....    LDRB     r10,[r2,#0]
        0x0000e3ea:    1c5b        [.      ADDS     r3,r3,#1
        0x0000e3ec:    f1aa0a30    ..0.    SUB      r10,r10,#0x30
        0x0000e3f0:    f1ba0f09    ....    CMP      r10,#9
        0x0000e3f4:    d9f0        ..      BLS      0xe3d8 ; am_util_stdio_vsprintf + 128
        0x0000e3f6:    f1b80f00    ....    CMP      r8,#0
        0x0000e3fa:    bf18        ..      IT       NE
        0x0000e3fc:    9302        ..      STRNE    r3,[sp,#8]
        0x0000e3fe:    2e00        ..      CMP      r6,#0
        0x0000e400:    bf18        ..      IT       NE
        0x0000e402:    4240        @B      RSBNE    r0,r0,#0
        0x0000e404:    9000        ..      STR      r0,[sp,#0]
        0x0000e406:    9802        ..      LDR      r0,[sp,#8]
        0x0000e408:    180e        ..      ADDS     r6,r1,r0
        0x0000e40a:    7830        0x      LDRB     r0,[r6,#0]
        0x0000e40c:    2873        s(      CMP      r0,#0x73
        0x0000e40e:    d037        7.      BEQ      0xe480 ; am_util_stdio_vsprintf + 296
        0x0000e410:    9900        ..      LDR      r1,[sp,#0]
        0x0000e412:    2900        .)      CMP      r1,#0
        0x0000e414:    bfbc        ..      ITT      LT
        0x0000e416:    4249        IB      RSBLT    r1,r1,#0
        0x0000e418:    9100        ..      STRLT    r1,[sp,#0]
        0x0000e41a:    282e        .(      CMP      r0,#0x2e
        0x0000e41c:    d003        ..      BEQ      0xe426 ; am_util_stdio_vsprintf + 206
        0x0000e41e:    7830        0x      LDRB     r0,[r6,#0]
        0x0000e420:    286c        l(      CMP      r0,#0x6c
        0x0000e422:    d12d        -.      BNE      0xe480 ; am_util_stdio_vsprintf + 296
        0x0000e424:    e025        %.      B        0xe472 ; am_util_stdio_vsprintf + 282
        0x0000e426:    1c72        r.      ADDS     r2,r6,#1
        0x0000e428:    2300        .#      MOVS     r3,#0
        0x0000e42a:    7811        .x      LDRB     r1,[r2,#0]
        0x0000e42c:    4616        .F      MOV      r6,r2
        0x0000e42e:    4699        .F      MOV      r9,r3
        0x0000e430:    4618        .F      MOV      r0,r3
        0x0000e432:    292d        -)      CMP      r1,#0x2d
        0x0000e434:    d102        ..      BNE      0xe43c ; am_util_stdio_vsprintf + 228
        0x0000e436:    2301        .#      MOVS     r3,#1
        0x0000e438:    1c56        V.      ADDS     r6,r2,#1
        0x0000e43a:    4618        .F      MOV      r0,r3
        0x0000e43c:    7831        1x      LDRB     r1,[r6,#0]
        0x0000e43e:    3930        09      SUBS     r1,r1,#0x30
        0x0000e440:    2909        .)      CMP      r1,#9
        0x0000e442:    d80b        ..      BHI      0xe45c ; am_util_stdio_vsprintf + 260
        0x0000e444:    eb090189    ....    ADD      r1,r9,r9,LSL #2
        0x0000e448:    0049        I.      LSLS     r1,r1,#1
        0x0000e44a:    f8169b01    ....    LDRB     r9,[r6],#1
        0x0000e44e:    3930        09      SUBS     r1,r1,#0x30
        0x0000e450:    4489        .D      ADD      r9,r9,r1
        0x0000e452:    7831        1x      LDRB     r1,[r6,#0]
        0x0000e454:    1c40        @.      ADDS     r0,r0,#1
        0x0000e456:    3930        09      SUBS     r1,r1,#0x30
        0x0000e458:    2909        .)      CMP      r1,#9
        0x0000e45a:    d9f3        ..      BLS      0xe444 ; am_util_stdio_vsprintf + 236
        0x0000e45c:    f1b80f00    ....    CMP      r8,#0
        0x0000e460:    bf18        ..      IT       NE
        0x0000e462:    9002        ..      STRNE    r0,[sp,#8]
        0x0000e464:    2b00        .+      CMP      r3,#0
        0x0000e466:    bf18        ..      IT       NE
        0x0000e468:    f1c90900    ....    RSBNE    r9,r9,#0
        0x0000e46c:    9802        ..      LDR      r0,[sp,#8]
        0x0000e46e:    1816        ..      ADDS     r6,r2,r0
        0x0000e470:    e7d5        ..      B        0xe41e ; am_util_stdio_vsprintf + 198
        0x0000e472:    f8160f01    ....    LDRB     r0,[r6,#1]!
        0x0000e476:    286c        l(      CMP      r0,#0x6c
        0x0000e478:    bf04        ..      ITT      EQ
        0x0000e47a:    f04f0c01    O...    MOVEQ    r12,#1
        0x0000e47e:    1c76        v.      ADDEQ    r6,r6,#1
        0x0000e480:    7830        0x      LDRB     r0,[r6,#0]
        0x0000e482:    2866        f(      CMP      r0,#0x66
        0x0000e484:    f000822a    ..*.    BEQ.W    0xe8dc ; am_util_stdio_vsprintf + 1412
        0x0000e488:    dc0a        ..      BGT      0xe4a0 ; am_util_stdio_vsprintf + 328
        0x0000e48a:    2846        F(      CMP      r0,#0x46
        0x0000e48c:    f0008226    ..&.    BEQ.W    0xe8dc ; am_util_stdio_vsprintf + 1412
        0x0000e490:    2858        X(      CMP      r0,#0x58
        0x0000e492:    d07d        }.      BEQ      0xe590 ; am_util_stdio_vsprintf + 568
        0x0000e494:    2863        c(      CMP      r0,#0x63
        0x0000e496:    d014        ..      BEQ      0xe4c2 ; am_util_stdio_vsprintf + 362
        0x0000e498:    2864        d(      CMP      r0,#0x64
        0x0000e49a:    f00081b5    ....    BEQ.W    0xe808 ; am_util_stdio_vsprintf + 1200
        0x0000e49e:    e00b        ..      B        0xe4b8 ; am_util_stdio_vsprintf + 352
        0x0000e4a0:    2869        i(      CMP      r0,#0x69
        0x0000e4a2:    f00081b1    ....    BEQ.W    0xe808 ; am_util_stdio_vsprintf + 1200
        0x0000e4a6:    2873        s(      CMP      r0,#0x73
        0x0000e4a8:    d016        ..      BEQ      0xe4d8 ; am_util_stdio_vsprintf + 384
        0x0000e4aa:    2875        u(      CMP      r0,#0x75
        0x0000e4ac:    f000810c    ....    BEQ.W    0xe6c8 ; am_util_stdio_vsprintf + 880
        0x0000e4b0:    2878        x(      CMP      r0,#0x78
        0x0000e4b2:    bf08        ..      IT       EQ
        0x0000e4b4:    2701        .'      MOVEQ    r7,#1
        0x0000e4b6:    d06e        n.      BEQ      0xe596 ; am_util_stdio_vsprintf + 574
        0x0000e4b8:    2c00        .,      CMP      r4,#0
        0x0000e4ba:    bf18        ..      IT       NE
        0x0000e4bc:    f8040b01    ....    STRBNE   r0,[r4],#1
        0x0000e4c0:    e007        ..      B        0xe4d2 ; am_util_stdio_vsprintf + 378
        0x0000e4c2:    980a        ..      LDR      r0,[sp,#0x28]
        0x0000e4c4:    2c00        .,      CMP      r4,#0
        0x0000e4c6:    f8101b04    ....    LDRB     r1,[r0],#4
        0x0000e4ca:    900a        ..      STR      r0,[sp,#0x28]
        0x0000e4cc:    bf18        ..      IT       NE
        0x0000e4ce:    f8041b01    ....    STRBNE   r1,[r4],#1
        0x0000e4d2:    1c6d        m.      ADDS     r5,r5,#1
        0x0000e4d4:    f000bac9    ....    B.W      0xea6a ; am_util_stdio_vsprintf + 1810
        0x0000e4d8:    990a        ..      LDR      r1,[sp,#0x28]
        0x0000e4da:    2200        ."      MOVS     r2,#0
        0x0000e4dc:    f8510b04    Q...    LDR      r0,[r1],#4
        0x0000e4e0:    910a        ..      STR      r1,[sp,#0x28]
        0x0000e4e2:    b140        @.      CBZ      r0,0xe4f6 ; am_util_stdio_vsprintf + 414
        0x0000e4e4:    7803        .x      LDRB     r3,[r0,#0]
        0x0000e4e6:    1c41        A.      ADDS     r1,r0,#1
        0x0000e4e8:    b12b        +.      CBZ      r3,0xe4f6 ; am_util_stdio_vsprintf + 414
        0x0000e4ea:    bf00        ..      NOP      
        0x0000e4ec:    f8113b01    ...;    LDRB     r3,[r1],#1
        0x0000e4f0:    1c52        R.      ADDS     r2,r2,#1
        0x0000e4f2:    2b00        .+      CMP      r3,#0
        0x0000e4f4:    d1fa        ..      BNE      0xe4ec ; am_util_stdio_vsprintf + 404
        0x0000e4f6:    9900        ..      LDR      r1,[sp,#0]
        0x0000e4f8:    2900        .)      CMP      r1,#0
        0x0000e4fa:    dd1e        ..      BLE      0xe53a ; am_util_stdio_vsprintf + 482
        0x0000e4fc:    428a        .B      CMP      r2,r1
        0x0000e4fe:    d21c        ..      BCS      0xe53a ; am_util_stdio_vsprintf + 482
        0x0000e500:    1a8b        ..      SUBS     r3,r1,r2
        0x0000e502:    9f01        ..      LDR      r7,[sp,#4]
        0x0000e504:    4621        !F      MOV      r1,r4
        0x0000e506:    f04f0c00    O...    MOV      r12,#0
        0x0000e50a:    2b00        .+      CMP      r3,#0
        0x0000e50c:    bfc4        ..      ITT      GT
        0x0000e50e:    1e5b        [.      SUBGT    r3,r3,#1
        0x0000e510:    f1b33fff    ...?    CMPGT    r3,#0xffffffff
        0x0000e514:    dd09        ..      BLE      0xe52a ; am_util_stdio_vsprintf + 466
        0x0000e516:    2900        .)      CMP      r1,#0
        0x0000e518:    bf18        ..      IT       NE
        0x0000e51a:    f8017b01    ...{    STRBNE   r7,[r1],#1
        0x0000e51e:    1e5b        [.      SUBS     r3,r3,#1
        0x0000e520:    f10c0c01    ....    ADD      r12,r12,#1
        0x0000e524:    f1b33fff    ...?    CMP      r3,#0xffffffff
        0x0000e528:    dcf5        ..      BGT      0xe516 ; am_util_stdio_vsprintf + 446
        0x0000e52a:    2c00        .,      CMP      r4,#0
        0x0000e52c:    bf14        ..      ITE      NE
        0x0000e52e:    4661        aF      MOVNE    r1,r12
        0x0000e530:    2100        .!      MOVEQ    r1,#0
        0x0000e532:    440c        .D      ADD      r4,r4,r1
        0x0000e534:    2100        .!      MOVS     r1,#0
        0x0000e536:    4465        eD      ADD      r5,r5,r12
        0x0000e538:    9100        ..      STR      r1,[sp,#0]
        0x0000e53a:    7801        .x      LDRB     r1,[r0,#0]
        0x0000e53c:    b139        9.      CBZ      r1,0xe54e ; am_util_stdio_vsprintf + 502
        0x0000e53e:    b10c        ..      CBZ      r4,0xe544 ; am_util_stdio_vsprintf + 492
        0x0000e540:    f8041b01    ....    STRB     r1,[r4],#1
        0x0000e544:    f8101f01    ....    LDRB     r1,[r0,#1]!
        0x0000e548:    1c6d        m.      ADDS     r5,r5,#1
        0x0000e54a:    2900        .)      CMP      r1,#0
        0x0000e54c:    d1f7        ..      BNE      0xe53e ; am_util_stdio_vsprintf + 486
        0x0000e54e:    9800        ..      LDR      r0,[sp,#0]
        0x0000e550:    2800        .(      CMP      r0,#0
        0x0000e552:    bf1c        ..      ITT      NE
        0x0000e554:    4240        @B      RSBNE    r0,r0,#0
        0x0000e556:    4282        .B      CMPNE    r2,r0
        0x0000e558:    f0808287    ....    BCS.W    0xea6a ; am_util_stdio_vsprintf + 1810
        0x0000e55c:    1a82        ..      SUBS     r2,r0,r2
        0x0000e55e:    2000        .       MOVS     r0,#0
        0x0000e560:    9b01        ..      LDR      r3,[sp,#4]
        0x0000e562:    4621        !F      MOV      r1,r4
        0x0000e564:    2a00        .*      CMP      r2,#0
        0x0000e566:    bfc4        ..      ITT      GT
        0x0000e568:    1e52        R.      SUBGT    r2,r2,#1
        0x0000e56a:    f1b23fff    ...?    CMPGT    r2,#0xffffffff
        0x0000e56e:    dd08        ..      BLE      0xe582 ; am_util_stdio_vsprintf + 554
        0x0000e570:    2900        .)      CMP      r1,#0
        0x0000e572:    bf18        ..      IT       NE
        0x0000e574:    f8013b01    ...;    STRBNE   r3,[r1],#1
        0x0000e578:    1c40        @.      ADDS     r0,r0,#1
        0x0000e57a:    1e52        R.      SUBS     r2,r2,#1
        0x0000e57c:    f1b23fff    ...?    CMP      r2,#0xffffffff
        0x0000e580:    dcf6        ..      BGT      0xe570 ; am_util_stdio_vsprintf + 536
        0x0000e582:    2c00        .,      CMP      r4,#0
        0x0000e584:    bf14        ..      ITE      NE
        0x0000e586:    4601        .F      MOVNE    r1,r0
        0x0000e588:    2100        .!      MOVEQ    r1,#0
        0x0000e58a:    440c        .D      ADD      r4,r4,r1
        0x0000e58c:    4405        .D      ADD      r5,r5,r0
        0x0000e58e:    e000        ..      B        0xe592 ; am_util_stdio_vsprintf + 570
        0x0000e590:    e001        ..      B        0xe596 ; am_util_stdio_vsprintf + 574
        0x0000e592:    f000ba6a    ..j.    B.W      0xea6a ; am_util_stdio_vsprintf + 1810
        0x0000e596:    f1bc0f00    ....    CMP      r12,#0
        0x0000e59a:    d007        ..      BEQ      0xe5ac ; am_util_stdio_vsprintf + 596
        0x0000e59c:    980a        ..      LDR      r0,[sp,#0x28]
        0x0000e59e:    1dc0        ..      ADDS     r0,r0,#7
        0x0000e5a0:    f0200207     ...    BIC      r2,r0,#7
        0x0000e5a4:    e8f20102    ....    LDRD     r0,r1,[r2],#8
        0x0000e5a8:    920a        ..      STR      r2,[sp,#0x28]
        0x0000e5aa:    e004        ..      B        0xe5b6 ; am_util_stdio_vsprintf + 606
        0x0000e5ac:    990a        ..      LDR      r1,[sp,#0x28]
        0x0000e5ae:    f8510b04    Q...    LDR      r0,[r1],#4
        0x0000e5b2:    910a        ..      STR      r1,[sp,#0x28]
        0x0000e5b4:    2100        .!      MOVS     r1,#0
        0x0000e5b6:    9a00        ..      LDR      r2,[sp,#0]
        0x0000e5b8:    b38a        ..      CBZ      r2,0xe61e ; am_util_stdio_vsprintf + 710
        0x0000e5ba:    460b        .F      MOV      r3,r1
        0x0000e5bc:    4602        .F      MOV      r2,r0
        0x0000e5be:    ea500c03    P...    ORRS     r12,r0,r3
        0x0000e5c2:    bf0c        ..      ITE      EQ
        0x0000e5c4:    f04f0c01    O...    MOVEQ    r12,#1
        0x0000e5c8:    f04f0c00    O...    MOVNE    r12,#0
        0x0000e5cc:    d008        ..      BEQ      0xe5e0 ; am_util_stdio_vsprintf + 648
        0x0000e5ce:    0912        ..      LSRS     r2,r2,#4
        0x0000e5d0:    ea427203    B..r    ORR      r2,r2,r3,LSL #28
        0x0000e5d4:    091b        ..      LSRS     r3,r3,#4
        0x0000e5d6:    f10c0c01    ....    ADD      r12,r12,#1
        0x0000e5da:    ea520803    R...    ORRS     r8,r2,r3
        0x0000e5de:    d1f6        ..      BNE      0xe5ce ; am_util_stdio_vsprintf + 630
        0x0000e5e0:    9a00        ..      LDR      r2,[sp,#0]
        0x0000e5e2:    9b01        ..      LDR      r3,[sp,#4]
        0x0000e5e4:    eba2020c    ....    SUB      r2,r2,r12
        0x0000e5e8:    46a4        .F      MOV      r12,r4
        0x0000e5ea:    f04f0800    O...    MOV      r8,#0
        0x0000e5ee:    2a00        .*      CMP      r2,#0
        0x0000e5f0:    bfc4        ..      ITT      GT
        0x0000e5f2:    1e52        R.      SUBGT    r2,r2,#1
        0x0000e5f4:    f1b23fff    ...?    CMPGT    r2,#0xffffffff
        0x0000e5f8:    dd0b        ..      BLE      0xe612 ; am_util_stdio_vsprintf + 698
        0x0000e5fa:    bf00        ..      NOP      
        0x0000e5fc:    f1bc0f00    ....    CMP      r12,#0
        0x0000e600:    bf18        ..      IT       NE
        0x0000e602:    f80c3b01    ...;    STRBNE   r3,[r12],#1
        0x0000e606:    1e52        R.      SUBS     r2,r2,#1
        0x0000e608:    f1080801    ....    ADD      r8,r8,#1
        0x0000e60c:    f1b23fff    ...?    CMP      r2,#0xffffffff
        0x0000e610:    dcf4        ..      BGT      0xe5fc ; am_util_stdio_vsprintf + 676
        0x0000e612:    2c00        .,      CMP      r4,#0
        0x0000e614:    bf14        ..      ITE      NE
        0x0000e616:    4642        BF      MOVNE    r2,r8
        0x0000e618:    2200        ."      MOVEQ    r2,#0
        0x0000e61a:    4414        .D      ADD      r4,r4,r2
        0x0000e61c:    4445        ED      ADD      r5,r5,r8
        0x0000e61e:    46a0        .F      MOV      r8,r4
        0x0000e620:    f04f0c00    O...    MOV      r12,#0
        0x0000e624:    ea500201    P...    ORRS     r2,r0,r1
        0x0000e628:    d106        ..      BNE      0xe638 ; am_util_stdio_vsprintf + 736
        0x0000e62a:    bf00        ..      NOP      
        0x0000e62c:    f04f0230    O.0.    MOV      r2,#0x30
        0x0000e630:    f88d200c    ...     STRB     r2,[sp,#0xc]
        0x0000e634:    f04f0c01    O...    MOV      r12,#1
        0x0000e638:    bf18        ..      IT       NE
        0x0000e63a:    ab03        ..      ADDNE    r3,sp,#0xc
        0x0000e63c:    d017        ..      BEQ      0xe66e ; am_util_stdio_vsprintf + 790
        0x0000e63e:    bf00        ..      NOP      
        0x0000e640:    f000020f    ....    AND      r2,r0,#0xf
        0x0000e644:    2a09        .*      CMP      r2,#9
        0x0000e646:    d906        ..      BLS      0xe656 ; am_util_stdio_vsprintf + 766
        0x0000e648:    2f00        ./      CMP      r7,#0
        0x0000e64a:    bf14        ..      ITE      NE
        0x0000e64c:    f04f0927    O.'.    MOVNE    r9,#0x27
        0x0000e650:    f04f0907    O...    MOVEQ    r9,#7
        0x0000e654:    444a        JD      ADD      r2,r2,r9
        0x0000e656:    3230        02      ADDS     r2,r2,#0x30
        0x0000e658:    0900        ..      LSRS     r0,r0,#4
        0x0000e65a:    f803200c    ...     STRB     r2,[r3,r12]
        0x0000e65e:    ea407001    @..p    ORR      r0,r0,r1,LSL #28
        0x0000e662:    0909        ..      LSRS     r1,r1,#4
        0x0000e664:    f10c0c01    ....    ADD      r12,r12,#1
        0x0000e668:    ea500201    P...    ORRS     r2,r0,r1
        0x0000e66c:    d1e8        ..      BNE      0xe640 ; am_util_stdio_vsprintf + 744
        0x0000e66e:    f1b80f00    ....    CMP      r8,#0
        0x0000e672:    d022        ".      BEQ      0xe6ba ; am_util_stdio_vsprintf + 866
        0x0000e674:    f1ac0301    ....    SUB      r3,r12,#1
        0x0000e678:    f1bc0200    ....    SUBS     r2,r12,#0
        0x0000e67c:    dd1a        ..      BLE      0xe6b4 ; am_util_stdio_vsprintf + 860
        0x0000e67e:    a803        ..      ADD      r0,sp,#0xc
        0x0000e680:    4418        .D      ADD      r0,r0,r3
        0x0000e682:    1c41        A.      ADDS     r1,r0,#1
        0x0000e684:    f1a80001    ....    SUB      r0,r8,#1
        0x0000e688:    f0130f01    ....    TST      r3,#1
        0x0000e68c:    d103        ..      BNE      0xe696 ; am_util_stdio_vsprintf + 830
        0x0000e68e:    f8117d01    ...}    LDRB     r7,[r1,#-1]!
        0x0000e692:    f8007f01    ....    STRB     r7,[r0,#1]!
        0x0000e696:    1052        R.      ASRS     r2,r2,#1
        0x0000e698:    d009        ..      BEQ      0xe6ae ; am_util_stdio_vsprintf + 854
        0x0000e69a:    bf00        ..      NOP      
        0x0000e69c:    f8117c01    ...|    LDRB     r7,[r1,#-1]
        0x0000e6a0:    7047        Gp      STRB     r7,[r0,#1]
        0x0000e6a2:    f8117d02    ...}    LDRB     r7,[r1,#-2]!
        0x0000e6a6:    f8007f02    ....    STRB     r7,[r0,#2]!
        0x0000e6aa:    1e52        R.      SUBS     r2,r2,#1
        0x0000e6ac:    d1f6        ..      BNE      0xe69c ; am_util_stdio_vsprintf + 836
        0x0000e6ae:    18e0        ..      ADDS     r0,r4,r3
        0x0000e6b0:    f1000801    ....    ADD      r8,r0,#1
        0x0000e6b4:    2000        .       MOVS     r0,#0
        0x0000e6b6:    f8880000    ....    STRB     r0,[r8,#0]
        0x0000e6ba:    2c00        .,      CMP      r4,#0
        0x0000e6bc:    bf18        ..      IT       NE
        0x0000e6be:    4464        dD      ADDNE    r4,r4,r12
        0x0000e6c0:    4465        eD      ADD      r5,r5,r12
        0x0000e6c2:    f000b9d2    ....    B.W      0xea6a ; am_util_stdio_vsprintf + 1810
        0x0000e6c6:    bf00        ..      NOP      
        0x0000e6c8:    980a        ..      LDR      r0,[sp,#0x28]
        0x0000e6ca:    f1bc0f00    ....    CMP      r12,#0
        0x0000e6ce:    d006        ..      BEQ      0xe6de ; am_util_stdio_vsprintf + 902
        0x0000e6d0:    1dc0        ..      ADDS     r0,r0,#7
        0x0000e6d2:    f0200107     ...    BIC      r1,r0,#7
        0x0000e6d6:    e8f1e002    ....    LDRD     lr,r0,[r1],#8
        0x0000e6da:    910a        ..      STR      r1,[sp,#0x28]
        0x0000e6dc:    e003        ..      B        0xe6e6 ; am_util_stdio_vsprintf + 910
        0x0000e6de:    f850eb04    P...    LDR      lr,[r0],#4
        0x0000e6e2:    900a        ..      STR      r0,[sp,#0x28]
        0x0000e6e4:    2000        .       MOVS     r0,#0
        0x0000e6e6:    9003        ..      STR      r0,[sp,#0xc]
        0x0000e6e8:    9800        ..      LDR      r0,[sp,#0]
        0x0000e6ea:    2800        .(      CMP      r0,#0
        0x0000e6ec:    d07e        ~.      BEQ      0xe7ec ; am_util_stdio_vsprintf + 1172
        0x0000e6ee:    9903        ..      LDR      r1,[sp,#0xc]
        0x0000e6f0:    4670        pF      MOV      r0,lr
        0x0000e6f2:    ea5e0201    ^...    ORRS     r2,lr,r1
        0x0000e6f6:    bf0e        ..      ITEE     EQ
        0x0000e6f8:    2301        .#      MOVEQ    r3,#1
        0x0000e6fa:    2300        .#      MOVNE    r3,#0
        0x0000e6fc:    f04f0c00    O...    MOVNE    r12,#0
        0x0000e700:    d05e        ^.      BEQ      0xe7c0 ; am_util_stdio_vsprintf + 1128
        0x0000e702:    b3c1        ..      CBZ      r1,0xe776 ; am_util_stdio_vsprintf + 1054
        0x0000e704:    084a        J.      LSRS     r2,r1,#1
        0x0000e706:    ea4f0990    O...    LSR      r9,r0,#2
        0x0000e70a:    ea4f0730    O.0.    RRX      r7,r0
        0x0000e70e:    ea497881    I..x    ORR      r8,r9,r1,LSL #30
        0x0000e712:    eb170708    ....    ADDS     r7,r7,r8
        0x0000e716:    eb420291    B...    ADC      r2,r2,r1,LSR #2
        0x0000e71a:    ea4f1917    O...    LSR      r9,r7,#4
        0x0000e71e:    ea497802    I..x    ORR      r8,r9,r2,LSL #28
        0x0000e722:    eb180707    ....    ADDS     r7,r8,r7
        0x0000e726:    eb421812    B...    ADC      r8,r2,r2,LSR #4
        0x0000e72a:    ea4f2917    O..)    LSR      r9,r7,#8
        0x0000e72e:    ea496208    I..b    ORR      r2,r9,r8,LSL #24
        0x0000e732:    19d2        ..      ADDS     r2,r2,r7
        0x0000e734:    eb482718    H..'    ADC      r7,r8,r8,LSR #8
        0x0000e738:    ea4f4912    O..I    LSR      r9,r2,#16
        0x0000e73c:    ea494807    I..H    ORR      r8,r9,r7,LSL #16
        0x0000e740:    eb180802    ....    ADDS     r8,r8,r2
        0x0000e744:    eb474217    G..B    ADC      r2,r7,r7,LSR #16
        0x0000e748:    eb180702    ....    ADDS     r7,r8,r2
        0x0000e74c:    eb42020c    B...    ADC      r2,r2,r12
        0x0000e750:    08ff        ..      LSRS     r7,r7,#3
        0x0000e752:    ea477742    G.Bw    ORR      r7,r7,r2,LSL #29
        0x0000e756:    f04f080a    O...    MOV      r8,#0xa
        0x0000e75a:    fba7ab08    ....    UMULL    r10,r11,r7,r8
        0x0000e75e:    08d2        ..      LSRS     r2,r2,#3
        0x0000e760:    fb02b808    ....    MLA      r8,r2,r8,r11
        0x0000e764:    f04f0900    O...    MOV      r9,#0
        0x0000e768:    fb078909    ....    MLA      r9,r7,r9,r8
        0x0000e76c:    ebb0080a    ....    SUBS     r8,r0,r10
        0x0000e770:    eb610009    a...    SBC      r0,r1,r9
        0x0000e774:    e002        ..      B        0xe77c ; am_util_stdio_vsprintf + 1060
        0x0000e776:    e00c        ..      B        0xe792 ; am_util_stdio_vsprintf + 1082
    $d
        0x0000e778:    1000109c    ....    DCD    268439708
    $t
        0x0000e77c:    f1180106    ....    ADDS     r1,r8,#6
        0x0000e780:    f1400800    @...    ADC      r8,r0,#0
        0x0000e784:    0909        ..      LSRS     r1,r1,#4
        0x0000e786:    ea417008    A..p    ORR      r0,r1,r8,LSL #28
        0x0000e78a:    19c0        ..      ADDS     r0,r0,r7
        0x0000e78c:    eb421118    B...    ADC      r1,r2,r8,LSR #4
        0x0000e790:    e012        ..      B        0xe7b8 ; am_util_stdio_vsprintf + 1120
        0x0000e792:    0841        A.      LSRS     r1,r0,#1
        0x0000e794:    eb010190    ....    ADD      r1,r1,r0,LSR #2
        0x0000e798:    eb011111    ....    ADD      r1,r1,r1,LSR #4
        0x0000e79c:    eb012111    ...!    ADD      r1,r1,r1,LSR #8
        0x0000e7a0:    eb014111    ...A    ADD      r1,r1,r1,LSR #16
        0x0000e7a4:    08c9        ..      LSRS     r1,r1,#3
        0x0000e7a6:    424a        JB      RSBS     r2,r1,#0
        0x0000e7a8:    eb020282    ....    ADD      r2,r2,r2,LSL #2
        0x0000e7ac:    eb000042    ..B.    ADD      r0,r0,r2,LSL #1
        0x0000e7b0:    1d80        ..      ADDS     r0,r0,#6
        0x0000e7b2:    eb011010    ....    ADD      r0,r1,r0,LSR #4
        0x0000e7b6:    4661        aF      MOV      r1,r12
        0x0000e7b8:    1c5b        [.      ADDS     r3,r3,#1
        0x0000e7ba:    ea500201    P...    ORRS     r2,r0,r1
        0x0000e7be:    d1a0        ..      BNE      0xe702 ; am_util_stdio_vsprintf + 938
        0x0000e7c0:    9800        ..      LDR      r0,[sp,#0]
        0x0000e7c2:    2100        .!      MOVS     r1,#0
        0x0000e7c4:    1ac2        ..      SUBS     r2,r0,r3
        0x0000e7c6:    9b01        ..      LDR      r3,[sp,#4]
        0x0000e7c8:    4620         F      MOV      r0,r4
        0x0000e7ca:    2a00        .*      CMP      r2,#0
        0x0000e7cc:    bfc4        ..      ITT      GT
        0x0000e7ce:    1e52        R.      SUBGT    r2,r2,#1
        0x0000e7d0:    f1b23fff    ...?    CMPGT    r2,#0xffffffff
        0x0000e7d4:    dd08        ..      BLE      0xe7e8 ; am_util_stdio_vsprintf + 1168
        0x0000e7d6:    2800        .(      CMP      r0,#0
        0x0000e7d8:    bf18        ..      IT       NE
        0x0000e7da:    f8003b01    ...;    STRBNE   r3,[r0],#1
        0x0000e7de:    1c49        I.      ADDS     r1,r1,#1
        0x0000e7e0:    1e52        R.      SUBS     r2,r2,#1
        0x0000e7e2:    f1b23fff    ...?    CMP      r2,#0xffffffff
        0x0000e7e6:    dcf6        ..      BGT      0xe7d6 ; am_util_stdio_vsprintf + 1150
        0x0000e7e8:    2c00        .,      CMP      r4,#0
        0x0000e7ea:    e000        ..      B        0xe7ee ; am_util_stdio_vsprintf + 1174
        0x0000e7ec:    e004        ..      B        0xe7f8 ; am_util_stdio_vsprintf + 1184
        0x0000e7ee:    bf14        ..      ITE      NE
        0x0000e7f0:    4608        .F      MOVNE    r0,r1
        0x0000e7f2:    2000        .       MOVEQ    r0,#0
        0x0000e7f4:    4404        .D      ADD      r4,r4,r0
        0x0000e7f6:    440d        .D      ADD      r5,r5,r1
        0x0000e7f8:    4622        "F      MOV      r2,r4
        0x0000e7fa:    4670        pF      MOV      r0,lr
        0x0000e7fc:    9903        ..      LDR      r1,[sp,#0xc]
        0x0000e7fe:    f001ffe3    ....    BL       uint64_to_str ; 0x107c8
        0x0000e802:    bbdc        ..      CBNZ     r4,0xe87c ; am_util_stdio_vsprintf + 1316
        0x0000e804:    4405        .D      ADD      r5,r5,r0
        0x0000e806:    e130        0.      B        0xea6a ; am_util_stdio_vsprintf + 1810
        0x0000e808:    980a        ..      LDR      r0,[sp,#0x28]
        0x0000e80a:    f1bc0f00    ....    CMP      r12,#0
        0x0000e80e:    d006        ..      BEQ      0xe81e ; am_util_stdio_vsprintf + 1222
        0x0000e810:    1dc0        ..      ADDS     r0,r0,#7
        0x0000e812:    f0200007     ...    BIC      r0,r0,#7
        0x0000e816:    e8f08702    ....    LDRD     r8,r7,[r0],#8
        0x0000e81a:    900a        ..      STR      r0,[sp,#0x28]
        0x0000e81c:    e004        ..      B        0xe828 ; am_util_stdio_vsprintf + 1232
        0x0000e81e:    f8508b04    P...    LDR      r8,[r0],#4
        0x0000e822:    900a        ..      STR      r0,[sp,#0x28]
        0x0000e824:    ea4f77e8    O..w    ASR      r7,r8,#31
        0x0000e828:    2f00        ./      CMP      r7,#0
        0x0000e82a:    bfa8        ..      IT       GE
        0x0000e82c:    f04f0900    O...    MOVGE    r9,#0
        0x0000e830:    da06        ..      BGE      0xe840 ; am_util_stdio_vsprintf + 1256
        0x0000e832:    2000        .       MOVS     r0,#0
        0x0000e834:    f1d80800    ....    RSBS     r8,r8,#0
        0x0000e838:    eb600707    `...    SBC      r7,r0,r7
        0x0000e83c:    f04f0901    O...    MOV      r9,#1
        0x0000e840:    9800        ..      LDR      r0,[sp,#0]
        0x0000e842:    b3d8        ..      CBZ      r0,0xe8bc ; am_util_stdio_vsprintf + 1380
        0x0000e844:    4640        @F      MOV      r0,r8
        0x0000e846:    0039        9.      MOVS     r1,r7
        0x0000e848:    d503        ..      BPL      0xe852 ; am_util_stdio_vsprintf + 1274
        0x0000e84a:    2200        ."      MOVS     r2,#0
        0x0000e84c:    4240        @B      RSBS     r0,r0,#0
        0x0000e84e:    eb620107    b...    SBC      r1,r2,r7
        0x0000e852:    f001fc76    ..v.    BL       ndigits_in_u64 ; 0x10142
        0x0000e856:    9900        ..      LDR      r1,[sp,#0]
        0x0000e858:    1a0a        ..      SUBS     r2,r1,r0
        0x0000e85a:    f1b90f00    ....    CMP      r9,#0
        0x0000e85e:    d008        ..      BEQ      0xe872 ; am_util_stdio_vsprintf + 1306
        0x0000e860:    9801        ..      LDR      r0,[sp,#4]
        0x0000e862:    1e52        R.      SUBS     r2,r2,#1
        0x0000e864:    2830        0(      CMP      r0,#0x30
        0x0000e866:    d104        ..      BNE      0xe872 ; am_util_stdio_vsprintf + 1306
        0x0000e868:    b114        ..      CBZ      r4,0xe870 ; am_util_stdio_vsprintf + 1304
        0x0000e86a:    202d        -       MOVS     r0,#0x2d
        0x0000e86c:    f8040b01    ....    STRB     r0,[r4],#1
        0x0000e870:    1c6d        m.      ADDS     r5,r5,#1
        0x0000e872:    2100        .!      MOVS     r1,#0
        0x0000e874:    4620         F      MOV      r0,r4
        0x0000e876:    9b01        ..      LDR      r3,[sp,#4]
        0x0000e878:    2a00        .*      CMP      r2,#0
        0x0000e87a:    e000        ..      B        0xe87e ; am_util_stdio_vsprintf + 1318
        0x0000e87c:    e02c        ,.      B        0xe8d8 ; am_util_stdio_vsprintf + 1408
        0x0000e87e:    bfc4        ..      ITT      GT
        0x0000e880:    1e52        R.      SUBGT    r2,r2,#1
        0x0000e882:    f1b23fff    ...?    CMPGT    r2,#0xffffffff
        0x0000e886:    dd08        ..      BLE      0xe89a ; am_util_stdio_vsprintf + 1346
        0x0000e888:    2800        .(      CMP      r0,#0
        0x0000e88a:    bf18        ..      IT       NE
        0x0000e88c:    f8003b01    ...;    STRBNE   r3,[r0],#1
        0x0000e890:    1c49        I.      ADDS     r1,r1,#1
        0x0000e892:    1e52        R.      SUBS     r2,r2,#1
        0x0000e894:    f1b23fff    ...?    CMP      r2,#0xffffffff
        0x0000e898:    dcf6        ..      BGT      0xe888 ; am_util_stdio_vsprintf + 1328
        0x0000e89a:    2c00        .,      CMP      r4,#0
        0x0000e89c:    bf14        ..      ITE      NE
        0x0000e89e:    4608        .F      MOVNE    r0,r1
        0x0000e8a0:    2000        .       MOVEQ    r0,#0
        0x0000e8a2:    4404        .D      ADD      r4,r4,r0
        0x0000e8a4:    440d        .D      ADD      r5,r5,r1
        0x0000e8a6:    f1b90f00    ....    CMP      r9,#0
        0x0000e8aa:    d00e        ..      BEQ      0xe8ca ; am_util_stdio_vsprintf + 1394
        0x0000e8ac:    9801        ..      LDR      r0,[sp,#4]
        0x0000e8ae:    2820         (      CMP      r0,#0x20
        0x0000e8b0:    d10b        ..      BNE      0xe8ca ; am_util_stdio_vsprintf + 1394
        0x0000e8b2:    b14c        L.      CBZ      r4,0xe8c8 ; am_util_stdio_vsprintf + 1392
        0x0000e8b4:    202d        -       MOVS     r0,#0x2d
        0x0000e8b6:    f8040b01    ....    STRB     r0,[r4],#1
        0x0000e8ba:    e005        ..      B        0xe8c8 ; am_util_stdio_vsprintf + 1392
        0x0000e8bc:    e7ff        ..      B        0xe8be ; am_util_stdio_vsprintf + 1382
        0x0000e8be:    f1b90f00    ....    CMP      r9,#0
        0x0000e8c2:    d002        ..      BEQ      0xe8ca ; am_util_stdio_vsprintf + 1394
        0x0000e8c4:    2c00        .,      CMP      r4,#0
        0x0000e8c6:    d1f5        ..      BNE      0xe8b4 ; am_util_stdio_vsprintf + 1372
        0x0000e8c8:    1c6d        m.      ADDS     r5,r5,#1
        0x0000e8ca:    4622        "F      MOV      r2,r4
        0x0000e8cc:    4640        @F      MOV      r0,r8
        0x0000e8ce:    4639        9F      MOV      r1,r7
        0x0000e8d0:    f001ff7a    ..z.    BL       uint64_to_str ; 0x107c8
        0x0000e8d4:    2c00        .,      CMP      r4,#0
        0x0000e8d6:    d095        ..      BEQ      0xe804 ; am_util_stdio_vsprintf + 1196
        0x0000e8d8:    4404        .D      ADD      r4,r4,r0
        0x0000e8da:    e793        ..      B        0xe804 ; am_util_stdio_vsprintf + 1196
        0x0000e8dc:    2c00        .,      CMP      r4,#0
        0x0000e8de:    d07d        }.      BEQ      0xe9dc ; am_util_stdio_vsprintf + 1668
        0x0000e8e0:    980a        ..      LDR      r0,[sp,#0x28]
        0x0000e8e2:    1dc0        ..      ADDS     r0,r0,#7
        0x0000e8e4:    f0200007     ...    BIC      r0,r0,#7
        0x0000e8e8:    ecb00b02    ....    VLDM     r0!,{d0}
        0x0000e8ec:    900a        ..      STR      r0,[sp,#0x28]
        0x0000e8ee:    ec510b10    Q...    VMOV     r0,r1,d0
        0x0000e8f2:    f002f885    ....    BL       __aeabi_d2f ; 0x10a00
        0x0000e8f6:    ee000a10    ....    VMOV     s0,r0
        0x0000e8fa:    f04f0a14    O...    MOV      r10,#0x14
        0x0000e8fe:    4627        'F      MOV      r7,r4
        0x0000e900:    eeb50ac0    ....    VCMPE.F32 s0,#0.0
        0x0000e904:    f8c4a000    ....    STR      r10,[r4,#0]
        0x0000e908:    eef1fa10    ....    VMRS     APSR_nzcv,FPSCR
        0x0000e90c:    d103        ..      BNE      0xe916 ; am_util_stdio_vsprintf + 1470
        0x0000e90e:    485f        _H      LDR      r0,[pc,#380] ; [0xea8c] = 0x302e30
        0x0000e910:    6020         `      STR      r0,[r4,#0]
        0x0000e912:    2003        .       MOVS     r0,#3
        0x0000e914:    e0a7        ..      B        0xea66 ; am_util_stdio_vsprintf + 1806
        0x0000e916:    ee100a10    ....    VMOV     r0,s0
        0x0000e91a:    f04f0800    O...    MOV      r8,#0
        0x0000e91e:    46a3        .F      MOV      r11,r4
        0x0000e920:    f3c051c7    ...Q    UBFX     r1,r0,#23,#8
        0x0000e924:    f020427f     ..B    BIC      r2,r0,#0xff000000
        0x0000e928:    397f        .9      SUBS     r1,r1,#0x7f
        0x0000e92a:    f4420200    B...    ORR      r2,r2,#0x800000
        0x0000e92e:    4643        CF      MOV      r3,r8
        0x0000e930:    291f        .)      CMP      r1,#0x1f
        0x0000e932:    da7d        }.      BGE      0xea30 ; am_util_stdio_vsprintf + 1752
        0x0000e934:    f1110f17    ....    CMN      r1,#0x17
        0x0000e938:    db7b        {.      BLT      0xea32 ; am_util_stdio_vsprintf + 1754
        0x0000e93a:    2917        .)      CMP      r1,#0x17
        0x0000e93c:    bfa4        ..      ITT      GE
        0x0000e93e:    3917        .9      SUBGE    r1,r1,#0x17
        0x0000e940:    fa02f301    ....    LSLGE    r3,r2,r1
        0x0000e944:    da0e        ..      BGE      0xe964 ; am_util_stdio_vsprintf + 1548
        0x0000e946:    2900        .)      CMP      r1,#0
        0x0000e948:    bfbc        ..      ITT      LT
        0x0000e94a:    43c9        .C      MVNLT    r1,r1
        0x0000e94c:    fa22f801    "...    LSRLT    r8,r2,r1
        0x0000e950:    db08        ..      BLT      0xe964 ; am_util_stdio_vsprintf + 1548
        0x0000e952:    f1c10317    ....    RSB      r3,r1,#0x17
        0x0000e956:    fa42f303    B...    ASR      r3,r2,r3
        0x0000e95a:    1c49        I.      ADDS     r1,r1,#1
        0x0000e95c:    fa02f101    ....    LSL      r1,r2,r1
        0x0000e960:    f021487f    !..H    BIC      r8,r1,#0xff000000
        0x0000e964:    2800        .(      CMP      r0,#0
        0x0000e966:    da03        ..      BGE      0xe970 ; am_util_stdio_vsprintf + 1560
        0x0000e968:    202d        -       MOVS     r0,#0x2d
        0x0000e96a:    7038        8p      STRB     r0,[r7,#0]
        0x0000e96c:    f10b0701    ....    ADD      r7,r11,#1
        0x0000e970:    2b00        .+      CMP      r3,#0
        0x0000e972:    bf04        ..      ITT      EQ
        0x0000e974:    2030        0       MOVEQ    r0,#0x30
        0x0000e976:    f8070b01    ....    STRBEQ   r0,[r7],#1
        0x0000e97a:    d015        ..      BEQ      0xe9a8 ; am_util_stdio_vsprintf + 1616
        0x0000e97c:    dd06        ..      BLE      0xe98c ; am_util_stdio_vsprintf + 1588
        0x0000e97e:    463a        :F      MOV      r2,r7
        0x0000e980:    4618        .F      MOV      r0,r3
        0x0000e982:    ea4f71e3    O..q    ASR      r1,r3,#31
        0x0000e986:    f001ff1f    ....    BL       uint64_to_str ; 0x107c8
        0x0000e98a:    e007        ..      B        0xe99c ; am_util_stdio_vsprintf + 1604
        0x0000e98c:    202d        -       MOVS     r0,#0x2d
        0x0000e98e:    f8070b01    ....    STRB     r0,[r7],#1
        0x0000e992:    4258        XB      RSBS     r0,r3,#0
        0x0000e994:    463a        :F      MOV      r2,r7
        0x0000e996:    17c1        ..      ASRS     r1,r0,#31
        0x0000e998:    f001ff16    ....    BL       uint64_to_str ; 0x107c8
        0x0000e99c:    7838        8x      LDRB     r0,[r7,#0]
        0x0000e99e:    b118        ..      CBZ      r0,0xe9a8 ; am_util_stdio_vsprintf + 1616
        0x0000e9a0:    f8170f01    ....    LDRB     r0,[r7,#1]!
        0x0000e9a4:    2800        .(      CMP      r0,#0
        0x0000e9a6:    d1fb        ..      BNE      0xe9a0 ; am_util_stdio_vsprintf + 1608
        0x0000e9a8:    202e        .       MOVS     r0,#0x2e
        0x0000e9aa:    1c7a        z.      ADDS     r2,r7,#1
        0x0000e9ac:    7038        8p      STRB     r0,[r7,#0]
        0x0000e9ae:    f1b80f00    ....    CMP      r8,#0
        0x0000e9b2:    d041        A.      BEQ      0xea38 ; am_util_stdio_vsprintf + 1760
        0x0000e9b4:    eba2000b    ....    SUB      r0,r2,r11
        0x0000e9b8:    ebaa0000    ....    SUB      r0,r10,r0
        0x0000e9bc:    f1a00c01    ....    SUB      r12,r0,#1
        0x0000e9c0:    45cc        .E      CMP      r12,r9
        0x0000e9c2:    bfc8        ..      IT       GT
        0x0000e9c4:    46cc        .F      MOVGT    r12,r9
        0x0000e9c6:    f1bc0f00    ....    CMP      r12,#0
        0x0000e9ca:    dd11        ..      BLE      0xe9f0 ; am_util_stdio_vsprintf + 1688
        0x0000e9cc:    4617        .F      MOV      r7,r2
        0x0000e9ce:    4660        `F      MOV      r0,r12
        0x0000e9d0:    f05f0330    _.0.    MOVS.W   r3,#0x30
        0x0000e9d4:    eb080188    ....    ADD      r1,r8,r8,LSL #2
        0x0000e9d8:    0049        I.      LSLS     r1,r1,#1
        0x0000e9da:    e000        ..      B        0xe9de ; am_util_stdio_vsprintf + 1670
        0x0000e9dc:    e045        E.      B        0xea6a ; am_util_stdio_vsprintf + 1810
        0x0000e9de:    eb036821    ..!h    ADD      r8,r3,r1,ASR #24
        0x0000e9e2:    f8078b01    ....    STRB     r8,[r7],#1
        0x0000e9e6:    f021487f    !..H    BIC      r8,r1,#0xff000000
        0x0000e9ea:    1e40        @.      SUBS     r0,r0,#1
        0x0000e9ec:    d1f2        ..      BNE      0xe9d4 ; am_util_stdio_vsprintf + 1660
        0x0000e9ee:    4462        bD      ADD      r2,r2,r12
        0x0000e9f0:    eb080088    ....    ADD      r0,r8,r8,LSL #2
        0x0000e9f4:    0041        A.      LSLS     r1,r0,#1
        0x0000e9f6:    2005        .       MOVS     r0,#5
        0x0000e9f8:    ebb06f21    ..!o    CMP      r0,r1,ASR #24
        0x0000e9fc:    dc24        $.      BGT      0xea48 ; am_util_stdio_vsprintf + 1776
        0x0000e9fe:    1e50        P.      SUBS     r0,r2,#1
        0x0000ea00:    ebab0300    ....    SUB      r3,r11,r0
        0x0000ea04:    2101        .!      MOVS     r1,#1
        0x0000ea06:    f1c30301    ....    RSB      r3,r3,#1
        0x0000ea0a:    2b01        .+      CMP      r3,#1
        0x0000ea0c:    bfa8        ..      IT       GE
        0x0000ea0e:    2730        0'      MOVGE    r7,#0x30
        0x0000ea10:    db1a        ..      BLT      0xea48 ; am_util_stdio_vsprintf + 1776
        0x0000ea12:    bf00        ..      NOP      
        0x0000ea14:    f890c000    ....    LDRB     r12,[r0,#0]
        0x0000ea18:    f1bc0f2e    ....    CMP      r12,#0x2e
        0x0000ea1c:    d010        ..      BEQ      0xea40 ; am_util_stdio_vsprintf + 1768
        0x0000ea1e:    f1bc0f39    ..9.    CMP      r12,#0x39
        0x0000ea22:    bf08        ..      IT       EQ
        0x0000ea24:    7007        .p      STRBEQ   r7,[r0,#0]
        0x0000ea26:    d00b        ..      BEQ      0xea40 ; am_util_stdio_vsprintf + 1768
        0x0000ea28:    f00c01ff    ....    AND      r1,r12,#0xff
        0x0000ea2c:    1c49        I.      ADDS     r1,r1,#1
        0x0000ea2e:    e001        ..      B        0xea34 ; am_util_stdio_vsprintf + 1756
        0x0000ea30:    e02a        *.      B        0xea88 ; am_util_stdio_vsprintf + 1840
        0x0000ea32:    e027        '.      B        0xea84 ; am_util_stdio_vsprintf + 1836
        0x0000ea34:    7001        .p      STRB     r1,[r0,#0]
        0x0000ea36:    e007        ..      B        0xea48 ; am_util_stdio_vsprintf + 1776
        0x0000ea38:    2030        0       MOVS     r0,#0x30
        0x0000ea3a:    f8020b01    ....    STRB     r0,[r2],#1
        0x0000ea3e:    e003        ..      B        0xea48 ; am_util_stdio_vsprintf + 1776
        0x0000ea40:    1e40        @.      SUBS     r0,r0,#1
        0x0000ea42:    1c49        I.      ADDS     r1,r1,#1
        0x0000ea44:    428b        .B      CMP      r3,r1
        0x0000ea46:    dae5        ..      BGE      0xea14 ; am_util_stdio_vsprintf + 1724
        0x0000ea48:    2000        .       MOVS     r0,#0
        0x0000ea4a:    7010        .p      STRB     r0,[r2,#0]
        0x0000ea4c:    ebb2000b    ....    SUBS     r0,r2,r11
        0x0000ea50:    d509        ..      BPL      0xea66 ; am_util_stdio_vsprintf + 1806
        0x0000ea52:    f1b03fff    ...?    CMP      r0,#0xffffffff
        0x0000ea56:    d015        ..      BEQ      0xea84 ; am_util_stdio_vsprintf + 1836
        0x0000ea58:    f1100f02    ....    CMN      r0,#2
        0x0000ea5c:    bf18        ..      IT       NE
        0x0000ea5e:    480c        .H      LDRNE    r0,[pc,#48] ; [0xea90] = 0x3f2e3f
        0x0000ea60:    d012        ..      BEQ      0xea88 ; am_util_stdio_vsprintf + 1840
        0x0000ea62:    6020         `      STR      r0,[r4,#0]
        0x0000ea64:    2003        .       MOVS     r0,#3
        0x0000ea66:    4405        .D      ADD      r5,r5,r0
        0x0000ea68:    4404        .D      ADD      r4,r4,r0
        0x0000ea6a:    1c71        q.      ADDS     r1,r6,#1
        0x0000ea6c:    7808        .x      LDRB     r0,[r1,#0]
        0x0000ea6e:    2800        .(      CMP      r0,#0
        0x0000ea70:    f47fac7c    ..|.    BNE      0xe36c ; am_util_stdio_vsprintf + 20
        0x0000ea74:    2c00        .,      CMP      r4,#0
        0x0000ea76:    bf1c        ..      ITT      NE
        0x0000ea78:    2000        .       MOVNE    r0,#0
        0x0000ea7a:    7020         p      STRBNE   r0,[r4,#0]
        0x0000ea7c:    4628        (F      MOV      r0,r5
        0x0000ea7e:    b00b        ..      ADD      sp,sp,#0x2c
        0x0000ea80:    e8bd8ff0    ....    POP      {r4-r11,pc}
        0x0000ea84:    4801        .H      LDR      r0,[pc,#4] ; [0xea8c] = 0x302e30
        0x0000ea86:    e7ec        ..      B        0xea62 ; am_util_stdio_vsprintf + 1802
        0x0000ea88:    4802        .H      LDR      r0,[pc,#8] ; [0xea94] = 0x232e23
        0x0000ea8a:    e7ea        ..      B        0xea62 ; am_util_stdio_vsprintf + 1802
    $d
        0x0000ea8c:    00302e30    0.0.    DCD    3157552
        0x0000ea90:    003f2e3f    ?.?.    DCD    4140607
        0x0000ea94:    00232e23    #.#.    DCD    2305571
    $t
    i.calc_func
    calc_func
        0x0000ea98:    b5f0        ..      PUSH     {r4-r7,lr}
        0x0000ea9a:    f9b06000    ...`    LDRSH    r6,[r0,#0]
        0x0000ea9e:    4607        .F      MOV      r7,r0
        0x0000eaa0:    f3c610c0    ....    UBFX     r0,r6,#7,#1
        0x0000eaa4:    b083        ..      SUB      sp,sp,#0xc
        0x0000eaa6:    460c        .F      MOV      r4,r1
        0x0000eaa8:    2800        .(      CMP      r0,#0
        0x0000eaaa:    bf1e        ..      ITTT     NE
        0x0000eaac:    f006007f    ....    ANDNE    r0,r6,#0x7f
        0x0000eab0:    b003        ..      ADDNE    sp,sp,#0xc
        0x0000eab2:    bdf0        ..      POPNE    {r4-r7,pc}
        0x0000eab4:    f0160007    ....    ANDS     r0,r6,#7
        0x0000eab8:    f3c601c3    ....    UBFX     r1,r6,#3,#4
        0x0000eabc:    ea411101    A...    ORR      r1,r1,r1,LSL #4
        0x0000eac0:    d012        ..      BEQ      0xeae8 ; calc_func + 80
        0x0000eac2:    2801        .(      CMP      r0,#1
        0x0000eac4:    bf18        ..      IT       NE
        0x0000eac6:    4635        5F      MOVNE    r5,r6
        0x0000eac8:    d022        ".      BEQ      0xeb10 ; calc_func + 120
        0x0000eaca:    8f21        !.      LDRH     r1,[r4,#0x38]
        0x0000eacc:    b2a8        ..      UXTH     r0,r5
        0x0000eace:    f000fc51    ..Q.    BL       crcu16 ; 0xf374
        0x0000ead2:    8720         .      STRH     r0,[r4,#0x38]
        0x0000ead4:    f005007f    ....    AND      r0,r5,#0x7f
        0x0000ead8:    f406417f    ...A    AND      r1,r6,#0xff00
        0x0000eadc:    4301        .C      ORRS     r1,r1,r0
        0x0000eade:    f0410180    A...    ORR      r1,r1,#0x80
        0x0000eae2:    8039        9.      STRH     r1,[r7,#0]
        0x0000eae4:    b003        ..      ADD      sp,sp,#0xc
        0x0000eae6:    bdf0        ..      POP      {r4-r7,pc}
        0x0000eae8:    2922        ")      CMP      r1,#0x22
        0x0000eaea:    bfb8        ..      IT       LT
        0x0000eaec:    2122        "!      MOVLT    r1,#0x22
        0x0000eaee:    8f20         .      LDRH     r0,[r4,#0x38]
        0x0000eaf0:    e9cd1000    ....    STRD     r1,r0,[sp,#0]
        0x0000eaf4:    e9d41005    ....    LDRD     r1,r0,[r4,#0x14]
        0x0000eaf8:    f9b43002    ...0    LDRSH    r3,[r4,#2]
        0x0000eafc:    f9b42000    ...     LDRSH    r2,[r4,#0]
        0x0000eb00:    f000f90f    ....    BL       core_bench_state ; 0xed22
        0x0000eb04:    b205        ..      SXTH     r5,r0
        0x0000eb06:    8fe0        ..      LDRH     r0,[r4,#0x3e]
        0x0000eb08:    2800        .(      CMP      r0,#0
        0x0000eb0a:    bf08        ..      IT       EQ
        0x0000eb0c:    87e5        ..      STRHEQ   r5,[r4,#0x3e]
        0x0000eb0e:    e7dc        ..      B        0xeaca ; calc_func + 50
        0x0000eb10:    8f22        ".      LDRH     r2,[r4,#0x38]
        0x0000eb12:    f1040028    ..(.    ADD      r0,r4,#0x28
        0x0000eb16:    f000f8f3    ....    BL       core_bench_matrix ; 0xed00
        0x0000eb1a:    b205        ..      SXTH     r5,r0
        0x0000eb1c:    8fa0        ..      LDRH     r0,[r4,#0x3c]
        0x0000eb1e:    2800        .(      CMP      r0,#0
        0x0000eb20:    bf08        ..      IT       EQ
        0x0000eb22:    87a5        ..      STRHEQ   r5,[r4,#0x3c]
        0x0000eb24:    e7d1        ..      B        0xeaca ; calc_func + 50
    i.check_data_types
    check_data_types
        0x0000eb26:    2000        .       MOVS     r0,#0
        0x0000eb28:    4770        pG      BX       lr
    i.cmp_complex
    cmp_complex
        0x0000eb2a:    b570        p.      PUSH     {r4-r6,lr}
        0x0000eb2c:    460e        .F      MOV      r6,r1
        0x0000eb2e:    4615        .F      MOV      r5,r2
        0x0000eb30:    4611        .F      MOV      r1,r2
        0x0000eb32:    f7ffffb1    ....    BL       calc_func ; 0xea98
        0x0000eb36:    4604        .F      MOV      r4,r0
        0x0000eb38:    4629        )F      MOV      r1,r5
        0x0000eb3a:    4630        0F      MOV      r0,r6
        0x0000eb3c:    f7ffffac    ....    BL       calc_func ; 0xea98
        0x0000eb40:    1a20         .      SUBS     r0,r4,r0
        0x0000eb42:    bd70        p.      POP      {r4-r6,pc}
    i.cmp_idx
    cmp_idx
        0x0000eb44:    b96a        j.      CBNZ     r2,0xeb62 ; cmp_idx + 30
        0x0000eb46:    8802        ..      LDRH     r2,[r0,#0]
        0x0000eb48:    f402437f    ...C    AND      r3,r2,#0xff00
        0x0000eb4c:    f3c22207    ..."    UBFX     r2,r2,#8,#8
        0x0000eb50:    431a        .C      ORRS     r2,r2,r3
        0x0000eb52:    8002        ..      STRH     r2,[r0,#0]
        0x0000eb54:    880a        ..      LDRH     r2,[r1,#0]
        0x0000eb56:    f402437f    ...C    AND      r3,r2,#0xff00
        0x0000eb5a:    f3c22207    ..."    UBFX     r2,r2,#8,#8
        0x0000eb5e:    431a        .C      ORRS     r2,r2,r3
        0x0000eb60:    800a        ..      STRH     r2,[r1,#0]
        0x0000eb62:    f9b00002    ....    LDRSH    r0,[r0,#2]
        0x0000eb66:    f9b11002    ....    LDRSH    r1,[r1,#2]
        0x0000eb6a:    1a40        @.      SUBS     r0,r0,r1
        0x0000eb6c:    4770        pG      BX       lr
        0x0000eb6e:    0000        ..      MOVS     r0,r0
    i.core_bench_list
    core_bench_list
        0x0000eb70:    e92d5ff0    -.._    PUSH     {r4-r12,lr}
        0x0000eb74:    f04f0c00    O...    MOV      r12,#0
        0x0000eb78:    468a        .F      MOV      r10,r1
        0x0000eb7a:    f9b0b004    ....    LDRSH    r11,[r0,#4]
        0x0000eb7e:    4667        gF      MOV      r7,r12
        0x0000eb80:    463e        >F      MOV      r6,r7
        0x0000eb82:    6a45        Ej      LDR      r5,[r0,#0x24]
        0x0000eb84:    4602        .F      MOV      r2,r0
        0x0000eb86:    46e1        .F      MOV      r9,r12
        0x0000eb88:    46e0        .F      MOV      r8,r12
        0x0000eb8a:    f36a461f    j..F    BFI      r6,r10,#16,#16
        0x0000eb8e:    4661        aF      MOV      r1,r12
        0x0000eb90:    f1bb0f00    ....    CMP      r11,#0
        0x0000eb94:    dd45        E.      BLE      0xec22 ; core_bench_list + 178
        0x0000eb96:    b2c8        ..      UXTB     r0,r1
        0x0000eb98:    f360060f    `...    BFI      r6,r0,#0,#16
        0x0000eb9c:    462c        ,F      MOV      r4,r5
        0x0000eb9e:    1433        3.      ASRS     r3,r6,#16
        0x0000eba0:    d408        ..      BMI      0xebb4 ; core_bench_list + 68
        0x0000eba2:    b184        ..      CBZ      r4,0xebc6 ; core_bench_list + 86
        0x0000eba4:    6860        `h      LDR      r0,[r4,#4]
        0x0000eba6:    f9b00002    ....    LDRSH    r0,[r0,#2]
        0x0000ebaa:    4298        .B      CMP      r0,r3
        0x0000ebac:    bf18        ..      IT       NE
        0x0000ebae:    6824        $h      LDRNE    r4,[r4,#0]
        0x0000ebb0:    d1f7        ..      BNE      0xeba2 ; core_bench_list + 50
        0x0000ebb2:    e008        ..      B        0xebc6 ; core_bench_list + 86
        0x0000ebb4:    b13c        <.      CBZ      r4,0xebc6 ; core_bench_list + 86
        0x0000ebb6:    f8d4e004    ....    LDR      lr,[r4,#4]
        0x0000ebba:    f89ee000    ....    LDRB     lr,[lr,#0]
        0x0000ebbe:    4586        .E      CMP      lr,r0
        0x0000ebc0:    bf18        ..      IT       NE
        0x0000ebc2:    6824        $h      LDRNE    r4,[r4,#0]
        0x0000ebc4:    d1f6        ..      BNE      0xebb4 ; core_bench_list + 68
        0x0000ebc6:    2000        .       MOVS     r0,#0
        0x0000ebc8:    b13d        =.      CBZ      r5,0xebda ; core_bench_list + 106
        0x0000ebca:    bf00        ..      NOP      
        0x0000ebcc:    f8d5e000    ....    LDR      lr,[r5,#0]
        0x0000ebd0:    6028        (`      STR      r0,[r5,#0]
        0x0000ebd2:    4628        (F      MOV      r0,r5
        0x0000ebd4:    ea5f050e    _...    MOVS     r5,lr
        0x0000ebd8:    d1f8        ..      BNE      0xebcc ; core_bench_list + 92
        0x0000ebda:    4605        .F      MOV      r5,r0
        0x0000ebdc:    2c00        .,      CMP      r4,#0
        0x0000ebde:    d048        H.      BEQ      0xec72 ; core_bench_list + 258
        0x0000ebe0:    f1090001    ....    ADD      r0,r9,#1
        0x0000ebe4:    fa1ff980    ....    UXTH     r9,r0
        0x0000ebe8:    6860        `h      LDR      r0,[r4,#4]
        0x0000ebea:    f9b00000    ....    LDRSH    r0,[r0,#0]
        0x0000ebee:    f0100f01    ....    TST      r0,#1
        0x0000ebf2:    d004        ..      BEQ      0xebfe ; core_bench_list + 142
        0x0000ebf4:    f3c02040    ..@     UBFX     r0,r0,#9,#1
        0x0000ebf8:    4460        `D      ADD      r0,r0,r12
        0x0000ebfa:    fa1ffc80    ....    UXTH     r12,r0
        0x0000ebfe:    6820         h      LDR      r0,[r4,#0]
        0x0000ec00:    b130        0.      CBZ      r0,0xec10 ; core_bench_list + 160
        0x0000ec02:    f8d0e000    ....    LDR      lr,[r0,#0]
        0x0000ec06:    f8c4e000    ....    STR      lr,[r4,#0]
        0x0000ec0a:    682c        ,h      LDR      r4,[r5,#0]
        0x0000ec0c:    6004        .`      STR      r4,[r0,#0]
        0x0000ec0e:    6028        (`      STR      r0,[r5,#0]
        0x0000ec10:    2b00        .+      CMP      r3,#0
        0x0000ec12:    bfa4        ..      ITT      GE
        0x0000ec14:    1c58        X.      ADDGE    r0,r3,#1
        0x0000ec16:    f360461f    `..F    BFIGE    r6,r0,#16,#16
        0x0000ec1a:    1c48        H.      ADDS     r0,r1,#1
        0x0000ec1c:    b201        ..      SXTH     r1,r0
        0x0000ec1e:    4559        YE      CMP      r1,r11
        0x0000ec20:    dbb9        ..      BLT      0xeb96 ; core_bench_list + 38
        0x0000ec22:    ebc80089    ....    RSB      r0,r8,r9,LSL #2
        0x0000ec26:    4460        `D      ADD      r0,r0,r12
        0x0000ec28:    fa1ff880    ....    UXTH     r8,r0
        0x0000ec2c:    f1ba0f00    ....    CMP      r10,#0
        0x0000ec30:    dd04        ..      BLE      0xec3c ; core_bench_list + 204
        0x0000ec32:    4931        1I      LDR      r1,[pc,#196] ; [0xecf8] = 0xeb2b
        0x0000ec34:    4628        (F      MOV      r0,r5
        0x0000ec36:    f000fa4d    ..M.    BL       core_list_mergesort ; 0xf0d4
        0x0000ec3a:    4605        .F      MOV      r5,r0
        0x0000ec3c:    6828        (h      LDR      r0,[r5,#0]
        0x0000ec3e:    e9d09100    ....    LDRD     r9,r1,[r0,#0]
        0x0000ec42:    f8d92004    ...     LDR      r2,[r9,#4]
        0x0000ec46:    6042        B`      STR      r2,[r0,#4]
        0x0000ec48:    f8c91004    ....    STR      r1,[r9,#4]
        0x0000ec4c:    6801        .h      LDR      r1,[r0,#0]
        0x0000ec4e:    6809        .h      LDR      r1,[r1,#0]
        0x0000ec50:    6001        .`      STR      r1,[r0,#0]
        0x0000ec52:    4628        (F      MOV      r0,r5
        0x0000ec54:    f8c97000    ...p    STR      r7,[r9,#0]
        0x0000ec58:    1431        1.      ASRS     r1,r6,#16
        0x0000ec5a:    bf48        H.      IT       MI
        0x0000ec5c:    b231        1.      SXTHMI   r1,r6
        0x0000ec5e:    d415        ..      BMI      0xec8c ; core_bench_list + 284
        0x0000ec60:    b1e8        ..      CBZ      r0,0xec9e ; core_bench_list + 302
        0x0000ec62:    6842        Bh      LDR      r2,[r0,#4]
        0x0000ec64:    f9b22002    ...     LDRSH    r2,[r2,#2]
        0x0000ec68:    428a        .B      CMP      r2,r1
        0x0000ec6a:    bf18        ..      IT       NE
        0x0000ec6c:    6800        .h      LDRNE    r0,[r0,#0]
        0x0000ec6e:    d1f7        ..      BNE      0xec60 ; core_bench_list + 240
        0x0000ec70:    e013        ..      B        0xec9a ; core_bench_list + 298
        0x0000ec72:    f1080001    ....    ADD      r0,r8,#1
        0x0000ec76:    fa1ff880    ....    UXTH     r8,r0
        0x0000ec7a:    6828        (h      LDR      r0,[r5,#0]
        0x0000ec7c:    6840        @h      LDR      r0,[r0,#4]
        0x0000ec7e:    8800        ..      LDRH     r0,[r0,#0]
        0x0000ec80:    f3c02000    ...     UBFX     r0,r0,#8,#1
        0x0000ec84:    4460        `D      ADD      r0,r0,r12
        0x0000ec86:    fa1ffc80    ....    UXTH     r12,r0
        0x0000ec8a:    e7c1        ..      B        0xec10 ; core_bench_list + 160
        0x0000ec8c:    b138        8.      CBZ      r0,0xec9e ; core_bench_list + 302
        0x0000ec8e:    6842        Bh      LDR      r2,[r0,#4]
        0x0000ec90:    7812        .x      LDRB     r2,[r2,#0]
        0x0000ec92:    428a        .B      CMP      r2,r1
        0x0000ec94:    bf18        ..      IT       NE
        0x0000ec96:    6800        .h      LDRNE    r0,[r0,#0]
        0x0000ec98:    d1f8        ..      BNE      0xec8c ; core_bench_list + 284
        0x0000ec9a:    4604        .F      MOV      r4,r0
        0x0000ec9c:    e001        ..      B        0xeca2 ; core_bench_list + 306
        0x0000ec9e:    682c        ,h      LDR      r4,[r5,#0]
        0x0000eca0:    b14c        L.      CBZ      r4,0xecb6 ; core_bench_list + 326
        0x0000eca2:    6868        hh      LDR      r0,[r5,#4]
        0x0000eca4:    4641        AF      MOV      r1,r8
        0x0000eca6:    f9b00000    ....    LDRSH    r0,[r0,#0]
        0x0000ecaa:    f000fb3b    ..;.    BL       crc16 ; 0xf324
        0x0000ecae:    6824        $h      LDR      r4,[r4,#0]
        0x0000ecb0:    4680        .F      MOV      r8,r0
        0x0000ecb2:    2c00        .,      CMP      r4,#0
        0x0000ecb4:    d1f5        ..      BNE      0xeca2 ; core_bench_list + 306
        0x0000ecb6:    6828        (h      LDR      r0,[r5,#0]
        0x0000ecb8:    f8d91004    ....    LDR      r1,[r9,#4]
        0x0000ecbc:    6842        Bh      LDR      r2,[r0,#4]
        0x0000ecbe:    f8c92004    ...     STR      r2,[r9,#4]
        0x0000ecc2:    6041        A`      STR      r1,[r0,#4]
        0x0000ecc4:    6801        .h      LDR      r1,[r0,#0]
        0x0000ecc6:    f8c91000    ....    STR      r1,[r9,#0]
        0x0000ecca:    f8c09000    ....    STR      r9,[r0,#0]
        0x0000ecce:    2200        ."      MOVS     r2,#0
        0x0000ecd0:    490a        .I      LDR      r1,[pc,#40] ; [0xecfc] = 0xeb45
        0x0000ecd2:    4628        (F      MOV      r0,r5
        0x0000ecd4:    f000f9fe    ....    BL       core_list_mergesort ; 0xf0d4
        0x0000ecd8:    6804        .h      LDR      r4,[r0,#0]
        0x0000ecda:    4605        .F      MOV      r5,r0
        0x0000ecdc:    b14c        L.      CBZ      r4,0xecf2 ; core_bench_list + 386
        0x0000ecde:    6868        hh      LDR      r0,[r5,#4]
        0x0000ece0:    4641        AF      MOV      r1,r8
        0x0000ece2:    f9b00000    ....    LDRSH    r0,[r0,#0]
        0x0000ece6:    f000fb1d    ....    BL       crc16 ; 0xf324
        0x0000ecea:    6824        $h      LDR      r4,[r4,#0]
        0x0000ecec:    4680        .F      MOV      r8,r0
        0x0000ecee:    2c00        .,      CMP      r4,#0
        0x0000ecf0:    d1f5        ..      BNE      0xecde ; core_bench_list + 366
        0x0000ecf2:    4640        @F      MOV      r0,r8
        0x0000ecf4:    e8bd9ff0    ....    POP      {r4-r12,pc}
    $d
        0x0000ecf8:    0000eb2b    +...    DCD    60203
        0x0000ecfc:    0000eb45    E...    DCD    60229
    $t
    i.core_bench_matrix
    core_bench_matrix
        0x0000ed00:    b538        8.      PUSH     {r3-r5,lr}
        0x0000ed02:    4615        .F      MOV      r5,r2
        0x0000ed04:    e9d02301    ...#    LDRD     r2,r3,[r0,#4]
        0x0000ed08:    f8d0c000    ....    LDR      r12,[r0,#0]
        0x0000ed0c:    68c4        .h      LDR      r4,[r0,#0xc]
        0x0000ed0e:    9100        ..      STR      r1,[sp,#0]
        0x0000ed10:    4621        !F      MOV      r1,r4
        0x0000ed12:    4660        `F      MOV      r0,r12
        0x0000ed14:    f001f8b0    ....    BL       matrix_test ; 0xfe78
        0x0000ed18:    4629        )F      MOV      r1,r5
        0x0000ed1a:    e8bd4038    ..8@    POP      {r3-r5,lr}
        0x0000ed1e:    f000bb01    ....    B.W      crc16 ; 0xf324
    i.core_bench_state
    core_bench_state
        0x0000ed22:    e92d4ff0    -..O    PUSH     {r4-r11,lr}
        0x0000ed26:    b095        ..      SUB      sp,sp,#0x54
        0x0000ed28:    4680        .F      MOV      r8,r0
        0x0000ed2a:    2000        .       MOVS     r0,#0
        0x0000ed2c:    e9dd6a1e    ...j    LDRD     r6,r10,[sp,#0x78]
        0x0000ed30:    900a        ..      STR      r0,[sp,#0x28]
        0x0000ed32:    900b        ..      STR      r0,[sp,#0x2c]
        0x0000ed34:    900c        ..      STR      r0,[sp,#0x30]
        0x0000ed36:    900f        ..      STR      r0,[sp,#0x3c]
        0x0000ed38:    9010        ..      STR      r0,[sp,#0x40]
        0x0000ed3a:    900d        ..      STR      r0,[sp,#0x34]
        0x0000ed3c:    900e        ..      STR      r0,[sp,#0x38]
        0x0000ed3e:    9011        ..      STR      r0,[sp,#0x44]
        0x0000ed40:    9000        ..      STR      r0,[sp,#0]
        0x0000ed42:    9001        ..      STR      r0,[sp,#4]
        0x0000ed44:    460d        .F      MOV      r5,r1
        0x0000ed46:    9002        ..      STR      r0,[sp,#8]
        0x0000ed48:    9003        ..      STR      r0,[sp,#0xc]
        0x0000ed4a:    9004        ..      STR      r0,[sp,#0x10]
        0x0000ed4c:    9005        ..      STR      r0,[sp,#0x14]
        0x0000ed4e:    9006        ..      STR      r0,[sp,#0x18]
        0x0000ed50:    e9cd0507    ....    STRD     r0,r5,[sp,#0x1c]
        0x0000ed54:    7828        (x      LDRB     r0,[r5,#0]
        0x0000ed56:    4699        .F      MOV      r9,r3
        0x0000ed58:    4693        .F      MOV      r11,r2
        0x0000ed5a:    466f        oF      MOV      r7,sp
        0x0000ed5c:    b160        `.      CBZ      r0,0xed78 ; core_bench_state + 86
        0x0000ed5e:    a90a        ..      ADD      r1,sp,#0x28
        0x0000ed60:    a808        ..      ADD      r0,sp,#0x20
        0x0000ed62:    f000fa0a    ....    BL       core_state_transition ; 0xf17a
        0x0000ed66:    f8571020    W. .    LDR      r1,[r7,r0,LSL #2]
        0x0000ed6a:    1c49        I.      ADDS     r1,r1,#1
        0x0000ed6c:    f8471020    G. .    STR      r1,[r7,r0,LSL #2]
        0x0000ed70:    9808        ..      LDR      r0,[sp,#0x20]
        0x0000ed72:    7800        .x      LDRB     r0,[r0,#0]
        0x0000ed74:    2800        .(      CMP      r0,#0
        0x0000ed76:    d1f2        ..      BNE      0xed5e ; core_bench_state + 60
        0x0000ed78:    eb050008    ....    ADD      r0,r5,r8
        0x0000ed7c:    1b40        @.      SUBS     r0,r0,r5
        0x0000ed7e:    4430        0D      ADD      r0,r0,r6
        0x0000ed80:    f1a00801    ....    SUB      r8,r0,#1
        0x0000ed84:    fb98f0f6    ....    SDIV     r0,r8,r6
        0x0000ed88:    462c        ,F      MOV      r4,r5
        0x0000ed8a:    9508        ..      STR      r5,[sp,#0x20]
        0x0000ed8c:    2800        .(      CMP      r0,#0
        0x0000ed8e:    bfc8        ..      IT       GT
        0x0000ed90:    f00b02ff    ....    ANDGT    r2,r11,#0xff
        0x0000ed94:    dd07        ..      BLE      0xeda6 ; core_bench_state + 132
        0x0000ed96:    7821        !x      LDRB     r1,[r4,#0]
        0x0000ed98:    292c        ,)      CMP      r1,#0x2c
        0x0000ed9a:    bf1c        ..      ITT      NE
        0x0000ed9c:    4051        Q@      EORNE    r1,r1,r2
        0x0000ed9e:    7021        !p      STRBNE   r1,[r4,#0]
        0x0000eda0:    4434        4D      ADD      r4,r4,r6
        0x0000eda2:    1e40        @.      SUBS     r0,r0,#1
        0x0000eda4:    d1f7        ..      BNE      0xed96 ; core_bench_state + 116
        0x0000eda6:    9508        ..      STR      r5,[sp,#0x20]
        0x0000eda8:    7828        (x      LDRB     r0,[r5,#0]
        0x0000edaa:    b160        `.      CBZ      r0,0xedc6 ; core_bench_state + 164
        0x0000edac:    a90a        ..      ADD      r1,sp,#0x28
        0x0000edae:    a808        ..      ADD      r0,sp,#0x20
        0x0000edb0:    f000f9e3    ....    BL       core_state_transition ; 0xf17a
        0x0000edb4:    f8571020    W. .    LDR      r1,[r7,r0,LSL #2]
        0x0000edb8:    1c49        I.      ADDS     r1,r1,#1
        0x0000edba:    f8471020    G. .    STR      r1,[r7,r0,LSL #2]
        0x0000edbe:    9808        ..      LDR      r0,[sp,#0x20]
        0x0000edc0:    7800        .x      LDRB     r0,[r0,#0]
        0x0000edc2:    2800        .(      CMP      r0,#0
        0x0000edc4:    d1f2        ..      BNE      0xedac ; core_bench_state + 138
        0x0000edc6:    fb98f0f6    ....    SDIV     r0,r8,r6
        0x0000edca:    9508        ..      STR      r5,[sp,#0x20]
        0x0000edcc:    2800        .(      CMP      r0,#0
        0x0000edce:    bfc8        ..      IT       GT
        0x0000edd0:    f00902ff    ....    ANDGT    r2,r9,#0xff
        0x0000edd4:    dd07        ..      BLE      0xede6 ; core_bench_state + 196
        0x0000edd6:    7829        )x      LDRB     r1,[r5,#0]
        0x0000edd8:    292c        ,)      CMP      r1,#0x2c
        0x0000edda:    bf1c        ..      ITT      NE
        0x0000eddc:    4051        Q@      EORNE    r1,r1,r2
        0x0000edde:    7029        )p      STRBNE   r1,[r5,#0]
        0x0000ede0:    4435        5D      ADD      r5,r5,r6
        0x0000ede2:    1e40        @.      SUBS     r0,r0,#1
        0x0000ede4:    d1f7        ..      BNE      0xedd6 ; core_bench_state + 180
        0x0000ede6:    2400        .$      MOVS     r4,#0
        0x0000ede8:    ad0a        ..      ADD      r5,sp,#0x28
        0x0000edea:    f8570024    W.$.    LDR      r0,[r7,r4,LSL #2]
        0x0000edee:    4651        QF      MOV      r1,r10
        0x0000edf0:    f000fae5    ....    BL       crcu32 ; 0xf3be
        0x0000edf4:    f8552024    U.$     LDR      r2,[r5,r4,LSL #2]
        0x0000edf8:    4601        .F      MOV      r1,r0
        0x0000edfa:    4610        .F      MOV      r0,r2
        0x0000edfc:    f000fadf    ....    BL       crcu32 ; 0xf3be
        0x0000ee00:    1c64        d.      ADDS     r4,r4,#1
        0x0000ee02:    4682        .F      MOV      r10,r0
        0x0000ee04:    2c08        .,      CMP      r4,#8
        0x0000ee06:    d3f0        ..      BCC      0xedea ; core_bench_state + 200
        0x0000ee08:    b015        ..      ADD      sp,sp,#0x54
        0x0000ee0a:    e8bd8ff0    ....    POP      {r4-r11,pc}
        0x0000ee0e:    0000        ..      MOVS     r0,r0
    i.core_init_matrix
    core_init_matrix
        0x0000ee10:    e92d4ff0    -..O    PUSH     {r4-r11,lr}
        0x0000ee14:    2400        .$      MOVS     r4,#0
        0x0000ee16:    f04f0c01    O...    MOV      r12,#1
        0x0000ee1a:    2a00        .*      CMP      r2,#0
        0x0000ee1c:    bf08        ..      IT       EQ
        0x0000ee1e:    2201        ."      MOVEQ    r2,#1
        0x0000ee20:    2800        .(      CMP      r0,#0
        0x0000ee22:    d905        ..      BLS      0xee30 ; core_init_matrix + 32
        0x0000ee24:    1c64        d.      ADDS     r4,r4,#1
        0x0000ee26:    fb04f504    ....    MUL      r5,r4,r4
        0x0000ee2a:    00ed        ..      LSLS     r5,r5,#3
        0x0000ee2c:    42a8        .B      CMP      r0,r5
        0x0000ee2e:    d8f9        ..      BHI      0xee24 ; core_init_matrix + 20
        0x0000ee30:    1e49        I.      SUBS     r1,r1,#1
        0x0000ee32:    1e60        `.      SUBS     r0,r4,#1
        0x0000ee34:    f0210103    !...    BIC      r1,r1,#3
        0x0000ee38:    f1010b04    ....    ADD      r11,r1,#4
        0x0000ee3c:    fb00fe00    ....    MUL      lr,r0,r0
        0x0000ee40:    eb0b0a4e    ..N.    ADD      r10,r11,lr,LSL #1
        0x0000ee44:    2800        .(      CMP      r0,#0
        0x0000ee46:    bf18        ..      IT       NE
        0x0000ee48:    2100        .!      MOVNE    r1,#0
        0x0000ee4a:    d928        (.      BLS      0xee9e ; core_init_matrix + 142
        0x0000ee4c:    e000        ..      B        0xee50 ; core_init_matrix + 64
        0x0000ee4e:    b318        ..      CBZ      r0,0xee98 ; core_init_matrix + 136
        0x0000ee50:    fb01f400    ....    MUL      r4,r1,r0
        0x0000ee54:    eb0a0644    ..D.    ADD      r6,r10,r4,LSL #1
        0x0000ee58:    eb0b0544    ..D.    ADD      r5,r11,r4,LSL #1
        0x0000ee5c:    f04f0400    O...    MOV      r4,#0
        0x0000ee60:    ea4f0700    O...    MOV.W    r7,r0
        0x0000ee64:    eb0c0904    ....    ADD      r9,r12,r4
        0x0000ee68:    fb09f202    ....    MUL      r2,r9,r2
        0x0000ee6c:    ea4f78e2    O..x    ASR      r8,r2,#31
        0x0000ee70:    eb024818    ...H    ADD      r8,r2,r8,LSR #16
        0x0000ee74:    f36f080f    o...    BFC      r8,#0,#16
        0x0000ee78:    eba20208    ....    SUB      r2,r2,r8
        0x0000ee7c:    eb090802    ....    ADD      r8,r9,r2
        0x0000ee80:    f8268b02    &...    STRH     r8,[r6],#2
        0x0000ee84:    44c8        .D      ADD      r8,r8,r9
        0x0000ee86:    f00808ff    ....    AND      r8,r8,#0xff
        0x0000ee8a:    f8258b02    %...    STRH     r8,[r5],#2
        0x0000ee8e:    f1040401    ....    ADD      r4,r4,#1
        0x0000ee92:    1e7f        ..      SUBS     r7,r7,#1
        0x0000ee94:    d1e6        ..      BNE      0xee64 ; core_init_matrix + 84
        0x0000ee96:    4484        .D      ADD      r12,r12,r0
        0x0000ee98:    1c49        I.      ADDS     r1,r1,#1
        0x0000ee9a:    4281        .B      CMP      r1,r0
        0x0000ee9c:    d3d7        ..      BCC      0xee4e ; core_init_matrix + 62
        0x0000ee9e:    eb0a014e    ..N.    ADD      r1,r10,lr,LSL #1
        0x0000eea2:    e9c3ba01    ....    STRD     r11,r10,[r3,#4]
        0x0000eea6:    1e49        I.      SUBS     r1,r1,#1
        0x0000eea8:    f0210103    !...    BIC      r1,r1,#3
        0x0000eeac:    1d09        ..      ADDS     r1,r1,#4
        0x0000eeae:    60d9        .`      STR      r1,[r3,#0xc]
        0x0000eeb0:    6018        .`      STR      r0,[r3,#0]
        0x0000eeb2:    e8bd8ff0    ....    POP      {r4-r11,pc}
        0x0000eeb6:    0000        ..      MOVS     r0,r0
    i.core_init_state
    core_init_state
        0x0000eeb8:    e92d4ff8    -..O    PUSH     {r3-r11,lr}
        0x0000eebc:    f04f0c00    O...    MOV      r12,#0
        0x0000eec0:    f1a00801    ....    SUB      r8,r0,#1
        0x0000eec4:    4665        eF      MOV      r5,r12
        0x0000eec6:    4666        fF      MOV      r6,r12
        0x0000eec8:    4667        gF      MOV      r7,r12
        0x0000eeca:    f1b80f01    ....    CMP      r8,#1
        0x0000eece:    d94d        M.      BLS      0xef6c ; core_init_state + 180
        0x0000eed0:    f8dfa0e8    ....    LDR      r10,[pc,#232] ; [0xefbc] = 0x1000105c
        0x0000eed4:    f10a0b10    ....    ADD      r11,r10,#0x10
        0x0000eed8:    f10a0e20    .. .    ADD      lr,r10,#0x20
        0x0000eedc:    e01d        ..      B        0xef1a ; core_init_state + 98
        0x0000eede:    b1e5        ..      CBZ      r5,0xef1a ; core_init_state + 98
        0x0000eee0:    eb02000c    ....    ADD      r0,r2,r12
        0x0000eee4:    1e73        s.      SUBS     r3,r6,#1
        0x0000eee6:    9000        ..      STR      r0,[sp,#0]
        0x0000eee8:    1e40        @.      SUBS     r0,r0,#1
        0x0000eeea:    f0150f01    ....    TST      r5,#1
        0x0000eeee:    d003        ..      BEQ      0xeef8 ; core_init_state + 64
        0x0000eef0:    f813cf01    ....    LDRB     r12,[r3,#1]!
        0x0000eef4:    f800cf01    ....    STRB     r12,[r0,#1]!
        0x0000eef8:    ea5f0c55    _.U.    LSRS     r12,r5,#1
        0x0000eefc:    d008        ..      BEQ      0xef10 ; core_init_state + 88
        0x0000eefe:    785c        \x      LDRB     r4,[r3,#1]
        0x0000ef00:    7044        Dp      STRB     r4,[r0,#1]
        0x0000ef02:    f8134f02    ...O    LDRB     r4,[r3,#2]!
        0x0000ef06:    f8004f02    ...O    STRB     r4,[r0,#2]!
        0x0000ef0a:    f1bc0c01    ....    SUBS     r12,r12,#1
        0x0000ef0e:    d1f6        ..      BNE      0xeefe ; core_init_state + 70
        0x0000ef10:    9b00        ..      LDR      r3,[sp,#0]
        0x0000ef12:    202c        ,       MOVS     r0,#0x2c
        0x0000ef14:    f1090c01    ....    ADD      r12,r9,#1
        0x0000ef18:    5558        XU      STRB     r0,[r3,r5]
        0x0000ef1a:    1c48        H.      ADDS     r0,r1,#1
        0x0000ef1c:    b201        ..      SXTH     r1,r0
        0x0000ef1e:    f0010007    ....    AND      r0,r1,#7
        0x0000ef22:    2808        .(      CMP      r0,#8
        0x0000ef24:    d21c        ..      BCS      0xef60 ; core_init_state + 168
        0x0000ef26:    e8dff000    ....    TBB      [pc,r0]
    $d
        0x0000ef2a:    0404        ..      DCW    1028
        0x0000ef2c:    0f0a0a04    ....    DCD    252316164
        0x0000ef30:    150f        ..      DCW    5391
    $t
        0x0000ef32:    f3c100c1    ....    UBFX     r0,r1,#3,#2
        0x0000ef36:    2504        .%      MOVS     r5,#4
        0x0000ef38:    f85a6020    Z. `    LDR      r6,[r10,r0,LSL #2]
        0x0000ef3c:    e010        ..      B        0xef60 ; core_init_state + 168
        0x0000ef3e:    f3c100c1    ....    UBFX     r0,r1,#3,#2
        0x0000ef42:    f85b6020    [. `    LDR      r6,[r11,r0,LSL #2]
        0x0000ef46:    e003        ..      B        0xef50 ; core_init_state + 152
        0x0000ef48:    f3c100c1    ....    UBFX     r0,r1,#3,#2
        0x0000ef4c:    f85e6020    ^. `    LDR      r6,[lr,r0,LSL #2]
        0x0000ef50:    2508        .%      MOVS     r5,#8
        0x0000ef52:    e005        ..      B        0xef60 ; core_init_state + 168
        0x0000ef54:    481a        .H      LDR      r0,[pc,#104] ; [0xefc0] = 0x1000108c
        0x0000ef56:    f3c103c1    ....    UBFX     r3,r1,#3,#2
        0x0000ef5a:    2508        .%      MOVS     r5,#8
        0x0000ef5c:    f8506023    P.#`    LDR      r6,[r0,r3,LSL #2]
        0x0000ef60:    eb0c0905    ....    ADD      r9,r12,r5
        0x0000ef64:    f1090001    ....    ADD      r0,r9,#1
        0x0000ef68:    4540        @E      CMP      r0,r8
        0x0000ef6a:    d3b8        ..      BCC      0xeede ; core_init_state + 38
        0x0000ef6c:    f1080001    ....    ADD      r0,r8,#1
        0x0000ef70:    4584        .E      CMP      r12,r0
        0x0000ef72:    bf38        8.      IT       CC
        0x0000ef74:    f1b04f00    ...O    CMPCC    r0,#0x80000000
        0x0000ef78:    d214        ..      BCS      0xefa4 ; core_init_state + 236
        0x0000ef7a:    eb02010c    ....    ADD      r1,r2,r12
        0x0000ef7e:    eba0000c    ....    SUB      r0,r0,r12
        0x0000ef82:    1e49        I.      SUBS     r1,r1,#1
        0x0000ef84:    f0100f01    ....    TST      r0,#1
        0x0000ef88:    bf18        ..      IT       NE
        0x0000ef8a:    f8017f01    ....    STRBNE   r7,[r1,#1]!
        0x0000ef8e:    0840        @.      LSRS     r0,r0,#1
        0x0000ef90:    bf08        ..      IT       EQ
        0x0000ef92:    e8bd8ff8    ....    POPEQ    {r3-r11,pc}
        0x0000ef96:    704f        Op      STRB     r7,[r1,#1]
        0x0000ef98:    f8017f02    ....    STRB     r7,[r1,#2]!
        0x0000ef9c:    1e40        @.      SUBS     r0,r0,#1
        0x0000ef9e:    d1fa        ..      BNE      0xef96 ; core_init_state + 222
        0x0000efa0:    e8bd8ff8    ....    POP      {r3-r11,pc}
        0x0000efa4:    4560        `E      CMP      r0,r12
        0x0000efa6:    bf98        ..      IT       LS
        0x0000efa8:    e8bd8ff8    ....    POPLS    {r3-r11,pc}
        0x0000efac:    f802700c    ...p    STRB     r7,[r2,r12]
        0x0000efb0:    f10c0c01    ....    ADD      r12,r12,#1
        0x0000efb4:    4584        .E      CMP      r12,r0
        0x0000efb6:    d3f9        ..      BCC      0xefac ; core_init_state + 244
        0x0000efb8:    e8bd8ff8    ....    POP      {r3-r11,pc}
    $d
        0x0000efbc:    1000105c    \...    DCD    268439644
        0x0000efc0:    1000108c    ....    DCD    268439692
    $t
    i.core_list_init
    core_list_init
        0x0000efc4:    e92d0ff0    -...    PUSH     {r4-r11}
        0x0000efc8:    2314        .#      MOVS     r3,#0x14
        0x0000efca:    fbb0f0f3    ....    UDIV     r0,r0,r3
        0x0000efce:    1e87        ..      SUBS     r7,r0,#2
        0x0000efd0:    eb0104c7    ....    ADD      r4,r1,r7,LSL #3
        0x0000efd4:    2300        .#      MOVS     r3,#0
        0x0000efd6:    604c        L`      STR      r4,[r1,#4]
        0x0000efd8:    600b        .`      STR      r3,[r1,#0]
        0x0000efda:    8063        c.      STRH     r3,[r4,#2]
        0x0000efdc:    f8d1c004    ....    LDR      r12,[r1,#4]
        0x0000efe0:    f2480380    H...    MOV      r3,#0x8080
        0x0000efe4:    4608        .F      MOV      r0,r1
        0x0000efe6:    f8ac3000    ...0    STRH     r3,[r12,#0]
        0x0000efea:    f1010c08    ....    ADD      r12,r1,#8
        0x0000efee:    1d23        #.      ADDS     r3,r4,#4
        0x0000eff0:    3110        .1      ADDS     r1,r1,#0x10
        0x0000eff2:    eb040587    ....    ADD      r5,r4,r7,LSL #2
        0x0000eff6:    f64779ff    G..y    MOV      r9,#0x7fff
        0x0000effa:    f04f36ff    O..6    MOV      r6,#0xffffffff
        0x0000effe:    42a1        .B      CMP      r1,r4
        0x0000f000:    bf3c        <.      ITT      CC
        0x0000f002:    f1030804    ....    ADDCC    r8,r3,#4
        0x0000f006:    45a8        .E      CMPCC    r8,r5
        0x0000f008:    d20d        ..      BCS      0xf026 ; core_list_init + 98
        0x0000f00a:    4661        aF      MOV      r1,r12
        0x0000f00c:    f8d08000    ....    LDR      r8,[r0,#0]
        0x0000f010:    f8c18000    ....    STR      r8,[r1,#0]
        0x0000f014:    6001        .`      STR      r1,[r0,#0]
        0x0000f016:    604b        K`      STR      r3,[r1,#4]
        0x0000f018:    4619        .F      MOV      r1,r3
        0x0000f01a:    f10c0c08    ....    ADD      r12,r12,#8
        0x0000f01e:    800e        ..      STRH     r6,[r1,#0]
        0x0000f020:    1d1b        ..      ADDS     r3,r3,#4
        0x0000f022:    f8a19002    ....    STRH     r9,[r1,#2]
        0x0000f026:    2100        .!      MOVS     r1,#0
        0x0000f028:    2f00        ./      CMP      r7,#0
        0x0000f02a:    d922        ".      BLS      0xf072 ; core_list_init + 174
        0x0000f02c:    ea820601    ....    EOR      r6,r2,r1
        0x0000f030:    f006080f    ....    AND      r8,r6,#0xf
        0x0000f034:    460e        .F      MOV      r6,r1
        0x0000f036:    f36806df    h...    BFI      r6,r8,#3,#29
        0x0000f03a:    ea462a06    F..*    ORR      r10,r6,r6,LSL #8
        0x0000f03e:    f10c0608    ....    ADD      r6,r12,#8
        0x0000f042:    42a6        .B      CMP      r6,r4
        0x0000f044:    bf3c        <.      ITT      CC
        0x0000f046:    f1030804    ....    ADDCC    r8,r3,#4
        0x0000f04a:    45a8        .E      CMPCC    r8,r5
        0x0000f04c:    d20e        ..      BCS      0xf06c ; core_list_init + 168
        0x0000f04e:    46e0        .F      MOV      r8,r12
        0x0000f050:    6806        .h      LDR      r6,[r0,#0]
        0x0000f052:    f8c86000    ...`    STR      r6,[r8,#0]
        0x0000f056:    f8c08000    ....    STR      r8,[r0,#0]
        0x0000f05a:    f8c83004    ...0    STR      r3,[r8,#4]
        0x0000f05e:    f8a3a000    ....    STRH     r10,[r3,#0]
        0x0000f062:    f8a39002    ....    STRH     r9,[r3,#2]
        0x0000f066:    f10c0c08    ....    ADD      r12,r12,#8
        0x0000f06a:    1d1b        ..      ADDS     r3,r3,#4
        0x0000f06c:    1c49        I.      ADDS     r1,r1,#1
        0x0000f06e:    42b9        .B      CMP      r1,r7
        0x0000f070:    d3dc        ..      BCC      0xf02c ; core_list_init + 104
        0x0000f072:    6803        .h      LDR      r3,[r0,#0]
        0x0000f074:    2101        .!      MOVS     r1,#1
        0x0000f076:    f8d3c000    ....    LDR      r12,[r3,#0]
        0x0000f07a:    f1bc0f00    ....    CMP      r12,#0
        0x0000f07e:    d01f        ..      BEQ      0xf0c0 ; core_list_init + 252
        0x0000f080:    f8dfc048    ..H.    LDR      r12,[pc,#72] ; [0xf0cc] = 0xcccccccd
        0x0000f084:    fbac4c07    ...L    UMULL    r4,r12,r12,r7
        0x0000f088:    ea4f049c    O...    LSR      r4,r12,#2
        0x0000f08c:    428c        .B      CMP      r4,r1
        0x0000f08e:    d905        ..      BLS      0xf09c ; core_list_init + 216
        0x0000f090:    f8d3c004    ....    LDR      r12,[r3,#4]
        0x0000f094:    f8ac1002    ....    STRH     r1,[r12,#2]
        0x0000f098:    1c49        I.      ADDS     r1,r1,#1
        0x0000f09a:    e00b        ..      B        0xf0b4 ; core_list_init + 240
        0x0000f09c:    ea810c02    ....    EOR      r12,r1,r2
        0x0000f0a0:    1c49        I.      ADDS     r1,r1,#1
        0x0000f0a2:    f0010507    ....    AND      r5,r1,#7
        0x0000f0a6:    ea4c2c05    L..,    ORR      r12,r12,r5,LSL #8
        0x0000f0aa:    685d        ]h      LDR      r5,[r3,#4]
        0x0000f0ac:    f3cc0c0d    ....    UBFX     r12,r12,#0,#14
        0x0000f0b0:    f8a5c002    ....    STRH     r12,[r5,#2]
        0x0000f0b4:    681b        .h      LDR      r3,[r3,#0]
        0x0000f0b6:    f8d3c000    ....    LDR      r12,[r3,#0]
        0x0000f0ba:    f1bc0f00    ....    CMP      r12,#0
        0x0000f0be:    d1e5        ..      BNE      0xf08c ; core_list_init + 200
        0x0000f0c0:    e8bd0ff0    ....    POP      {r4-r11}
        0x0000f0c4:    2200        ."      MOVS     r2,#0
        0x0000f0c6:    4902        .I      LDR      r1,[pc,#8] ; [0xf0d0] = 0xeb45
        0x0000f0c8:    f000b804    ....    B.W      core_list_mergesort ; 0xf0d4
    $d
        0x0000f0cc:    cccccccd    ....    DCD    3435973837
        0x0000f0d0:    0000eb45    E...    DCD    60229
    $t
    i.core_list_mergesort
    core_list_mergesort
        0x0000f0d4:    e92d4ff7    -..O    PUSH     {r0-r2,r4-r11,lr}
        0x0000f0d8:    4682        .F      MOV      r10,r0
        0x0000f0da:    f04f0901    O...    MOV      r9,#1
        0x0000f0de:    bf00        ..      NOP      
        0x0000f0e0:    ea5f050a    _...    MOVS     r5,r10
        0x0000f0e4:    f04f0a00    O...    MOV      r10,#0
        0x0000f0e8:    4657        WF      MOV      r7,r10
        0x0000f0ea:    46d3        .F      MOV      r11,r10
        0x0000f0ec:    d03f        ?.      BEQ      0xf16e ; core_list_mergesort + 154
        0x0000f0ee:    2600        .&      MOVS     r6,#0
        0x0000f0f0:    462c        ,F      MOV      r4,r5
        0x0000f0f2:    4630        0F      MOV      r0,r6
        0x0000f0f4:    f10b0b01    ....    ADD      r11,r11,#1
        0x0000f0f8:    f1b90f00    ....    CMP      r9,#0
        0x0000f0fc:    bfd8        ..      IT       LE
        0x0000f0fe:    46c8        .F      MOVLE    r8,r9
        0x0000f100:    dd24        $.      BLE      0xf14c ; core_list_mergesort + 120
        0x0000f102:    6824        $h      LDR      r4,[r4,#0]
        0x0000f104:    1c76        v.      ADDS     r6,r6,#1
        0x0000f106:    2c00        .,      CMP      r4,#0
        0x0000f108:    bf1c        ..      ITT      NE
        0x0000f10a:    1c40        @.      ADDNE    r0,r0,#1
        0x0000f10c:    4548        HE      CMPNE    r0,r9
        0x0000f10e:    dbf8        ..      BLT      0xf102 ; core_list_mergesort + 46
        0x0000f110:    46c8        .F      MOV      r8,r9
        0x0000f112:    2e00        ..      CMP      r6,#0
        0x0000f114:    dd1a        ..      BLE      0xf14c ; core_list_mergesort + 120
        0x0000f116:    b17e        ~.      CBZ      r6,0xf138 ; core_list_mergesort + 100
        0x0000f118:    f1b80f00    ....    CMP      r8,#0
        0x0000f11c:    bf18        ..      IT       NE
        0x0000f11e:    2c00        .,      CMPNE    r4,#0
        0x0000f120:    d006        ..      BEQ      0xf130 ; core_list_mergesort + 92
        0x0000f122:    e9dd3201    ...2    LDRD     r3,r2,[sp,#4]
        0x0000f126:    6861        ah      LDR      r1,[r4,#4]
        0x0000f128:    6868        hh      LDR      r0,[r5,#4]
        0x0000f12a:    4798        .G      BLX      r3
        0x0000f12c:    2800        .(      CMP      r0,#0
        0x0000f12e:    dc03        ..      BGT      0xf138 ; core_list_mergesort + 100
        0x0000f130:    4628        (F      MOV      r0,r5
        0x0000f132:    682d        -h      LDR      r5,[r5,#0]
        0x0000f134:    1e76        v.      SUBS     r6,r6,#1
        0x0000f136:    e003        ..      B        0xf140 ; core_list_mergesort + 108
        0x0000f138:    4620         F      MOV      r0,r4
        0x0000f13a:    6824        $h      LDR      r4,[r4,#0]
        0x0000f13c:    f1a80801    ....    SUB      r8,r8,#1
        0x0000f140:    2f00        ./      CMP      r7,#0
        0x0000f142:    bf14        ..      ITE      NE
        0x0000f144:    6038        8`      STRNE    r0,[r7,#0]
        0x0000f146:    4682        .F      MOVEQ    r10,r0
        0x0000f148:    4607        .F      MOV      r7,r0
        0x0000f14a:    e7e2        ..      B        0xf112 ; core_list_mergesort + 62
        0x0000f14c:    f1b80f00    ....    CMP      r8,#0
        0x0000f150:    dd02        ..      BLE      0xf158 ; core_list_mergesort + 132
        0x0000f152:    2c00        .,      CMP      r4,#0
        0x0000f154:    d1df        ..      BNE      0xf116 ; core_list_mergesort + 66
        0x0000f156:    e001        ..      B        0xf15c ; core_list_mergesort + 136
        0x0000f158:    0025        %.      MOVS     r5,r4
        0x0000f15a:    d1c8        ..      BNE      0xf0ee ; core_list_mergesort + 26
        0x0000f15c:    2000        .       MOVS     r0,#0
        0x0000f15e:    6038        8`      STR      r0,[r7,#0]
        0x0000f160:    f1bb0f01    ....    CMP      r11,#1
        0x0000f164:    bfc8        ..      IT       GT
        0x0000f166:    ea4f0949    O.I.    LSLGT    r9,r9,#1
        0x0000f16a:    dcb9        ..      BGT      0xf0e0 ; core_list_mergesort + 12
        0x0000f16c:    e001        ..      B        0xf172 ; core_list_mergesort + 158
        0x0000f16e:    2000        .       MOVS     r0,#0
        0x0000f170:    6000        .`      STR      r0,[r0,#0]
        0x0000f172:    b003        ..      ADD      sp,sp,#0xc
        0x0000f174:    4650        PF      MOV      r0,r10
        0x0000f176:    e8bd8ff0    ....    POP      {r4-r11,pc}
    i.core_state_transition
    core_state_transition
        0x0000f17a:    6803        .h      LDR      r3,[r0,#0]
        0x0000f17c:    4684        .F      MOV      r12,r0
        0x0000f17e:    2000        .       MOVS     r0,#0
        0x0000f180:    781a        .x      LDRB     r2,[r3,#0]
        0x0000f182:    2a00        .*      CMP      r2,#0
        0x0000f184:    f00080ca    ....    BEQ.W    0xf31c ; core_state_transition + 418
        0x0000f188:    2a2c        ,*      CMP      r2,#0x2c
        0x0000f18a:    d05b        [.      BEQ      0xf244 ; core_state_transition + 202
        0x0000f18c:    f1a20030    ..0.    SUB      r0,r2,#0x30
        0x0000f190:    2809        .(      CMP      r0,#9
        0x0000f192:    d833        3.      BHI      0xf1fc ; core_state_transition + 130
        0x0000f194:    680a        .h      LDR      r2,[r1,#0]
        0x0000f196:    2004        .       MOVS     r0,#4
        0x0000f198:    1c52        R.      ADDS     r2,r2,#1
        0x0000f19a:    600a        .`      STR      r2,[r1,#0]
        0x0000f19c:    f8132f01    .../    LDRB     r2,[r3,#1]!
        0x0000f1a0:    2a00        .*      CMP      r2,#0
        0x0000f1a2:    d076        v.      BEQ      0xf292 ; core_state_transition + 280
        0x0000f1a4:    2a2c        ,*      CMP      r2,#0x2c
        0x0000f1a6:    d07b        {.      BEQ      0xf2a0 ; core_state_transition + 294
        0x0000f1a8:    e05e        ^.      B        0xf268 ; core_state_transition + 238
        0x0000f1aa:    f1a20030    ..0.    SUB      r0,r2,#0x30
        0x0000f1ae:    2809        .(      CMP      r0,#9
        0x0000f1b0:    d870        p.      BHI      0xf294 ; core_state_transition + 282
        0x0000f1b2:    698a        .i      LDR      r2,[r1,#0x18]
        0x0000f1b4:    2007        .       MOVS     r0,#7
        0x0000f1b6:    1c52        R.      ADDS     r2,r2,#1
        0x0000f1b8:    618a        .a      STR      r2,[r1,#0x18]
        0x0000f1ba:    f8132f01    .../    LDRB     r2,[r3,#1]!
        0x0000f1be:    2a00        .*      CMP      r2,#0
        0x0000f1c0:    d067        g.      BEQ      0xf292 ; core_state_transition + 280
        0x0000f1c2:    2a2c        ,*      CMP      r2,#0x2c
        0x0000f1c4:    d167        g.      BNE      0xf296 ; core_state_transition + 284
        0x0000f1c6:    e06b        k.      B        0xf2a0 ; core_state_transition + 294
        0x0000f1c8:    2a2b        +*      CMP      r2,#0x2b
        0x0000f1ca:    bf18        ..      IT       NE
        0x0000f1cc:    2a2d        -*      CMPNE    r2,#0x2d
        0x0000f1ce:    d077        w.      BEQ      0xf2c0 ; core_state_transition + 326
        0x0000f1d0:    68ca        .h      LDR      r2,[r1,#0xc]
        0x0000f1d2:    f04f0001    O...    MOV      r0,#1
        0x0000f1d6:    f1020201    ....    ADD      r2,r2,#1
        0x0000f1da:    60ca        .`      STR      r2,[r1,#0xc]
        0x0000f1dc:    e060        `.      B        0xf2a0 ; core_state_transition + 294
        0x0000f1de:    f1a20030    ..0.    SUB      r0,r2,#0x30
        0x0000f1e2:    2809        .(      CMP      r0,#9
        0x0000f1e4:    d82f        /.      BHI      0xf246 ; core_state_transition + 204
        0x0000f1e6:    688a        .h      LDR      r2,[r1,#8]
        0x0000f1e8:    2004        .       MOVS     r0,#4
        0x0000f1ea:    1c52        R.      ADDS     r2,r2,#1
        0x0000f1ec:    608a        .`      STR      r2,[r1,#8]
        0x0000f1ee:    f8132f01    .../    LDRB     r2,[r3,#1]!
        0x0000f1f2:    2a00        .*      CMP      r2,#0
        0x0000f1f4:    d04d        M.      BEQ      0xf292 ; core_state_transition + 280
        0x0000f1f6:    2a2c        ,*      CMP      r2,#0x2c
        0x0000f1f8:    d052        R.      BEQ      0xf2a0 ; core_state_transition + 294
        0x0000f1fa:    e035        5.      B        0xf268 ; core_state_transition + 238
        0x0000f1fc:    2a2b        +*      CMP      r2,#0x2b
        0x0000f1fe:    bf18        ..      IT       NE
        0x0000f200:    2a2d        -*      CMPNE    r2,#0x2d
        0x0000f202:    d00a        ..      BEQ      0xf21a ; core_state_transition + 160
        0x0000f204:    2a2e        .*      CMP      r2,#0x2e
        0x0000f206:    d013        ..      BEQ      0xf230 ; core_state_transition + 182
        0x0000f208:    684a        Jh      LDR      r2,[r1,#4]
        0x0000f20a:    2001        .       MOVS     r0,#1
        0x0000f20c:    1c52        R.      ADDS     r2,r2,#1
        0x0000f20e:    604a        J`      STR      r2,[r1,#4]
        0x0000f210:    680a        .h      LDR      r2,[r1,#0]
        0x0000f212:    1c52        R.      ADDS     r2,r2,#1
        0x0000f214:    1c5b        [.      ADDS     r3,r3,#1
        0x0000f216:    600a        .`      STR      r2,[r1,#0]
        0x0000f218:    e080        ..      B        0xf31c ; core_state_transition + 418
        0x0000f21a:    680a        .h      LDR      r2,[r1,#0]
        0x0000f21c:    2002        .       MOVS     r0,#2
        0x0000f21e:    1c52        R.      ADDS     r2,r2,#1
        0x0000f220:    600a        .`      STR      r2,[r1,#0]
        0x0000f222:    f8132f01    .../    LDRB     r2,[r3,#1]!
        0x0000f226:    2a00        .*      CMP      r2,#0
        0x0000f228:    d078        x.      BEQ      0xf31c ; core_state_transition + 418
        0x0000f22a:    2a2c        ,*      CMP      r2,#0x2c
        0x0000f22c:    d038        8.      BEQ      0xf2a0 ; core_state_transition + 294
        0x0000f22e:    e7d6        ..      B        0xf1de ; core_state_transition + 100
        0x0000f230:    680a        .h      LDR      r2,[r1,#0]
        0x0000f232:    2005        .       MOVS     r0,#5
        0x0000f234:    1c52        R.      ADDS     r2,r2,#1
        0x0000f236:    600a        .`      STR      r2,[r1,#0]
        0x0000f238:    f8132f01    .../    LDRB     r2,[r3,#1]!
        0x0000f23c:    2a00        .*      CMP      r2,#0
        0x0000f23e:    d06d        m.      BEQ      0xf31c ; core_state_transition + 418
        0x0000f240:    2a2c        ,*      CMP      r2,#0x2c
        0x0000f242:    d12f        /.      BNE      0xf2a4 ; core_state_transition + 298
        0x0000f244:    e02c        ,.      B        0xf2a0 ; core_state_transition + 294
        0x0000f246:    2a2e        .*      CMP      r2,#0x2e
        0x0000f248:    d004        ..      BEQ      0xf254 ; core_state_transition + 218
        0x0000f24a:    688a        .h      LDR      r2,[r1,#8]
        0x0000f24c:    2001        .       MOVS     r0,#1
        0x0000f24e:    1c52        R.      ADDS     r2,r2,#1
        0x0000f250:    608a        .`      STR      r2,[r1,#8]
        0x0000f252:    e025        %.      B        0xf2a0 ; core_state_transition + 294
        0x0000f254:    688a        .h      LDR      r2,[r1,#8]
        0x0000f256:    2005        .       MOVS     r0,#5
        0x0000f258:    1c52        R.      ADDS     r2,r2,#1
        0x0000f25a:    608a        .`      STR      r2,[r1,#8]
        0x0000f25c:    f8132f01    .../    LDRB     r2,[r3,#1]!
        0x0000f260:    b1ba        ..      CBZ      r2,0xf292 ; core_state_transition + 280
        0x0000f262:    2a2c        ,*      CMP      r2,#0x2c
        0x0000f264:    d11e        ..      BNE      0xf2a4 ; core_state_transition + 298
        0x0000f266:    e01b        ..      B        0xf2a0 ; core_state_transition + 294
        0x0000f268:    2a2e        .*      CMP      r2,#0x2e
        0x0000f26a:    d008        ..      BEQ      0xf27e ; core_state_transition + 260
        0x0000f26c:    3a30        0:      SUBS     r2,r2,#0x30
        0x0000f26e:    2a09        .*      CMP      r2,#9
        0x0000f270:    d812        ..      BHI      0xf298 ; core_state_transition + 286
        0x0000f272:    f8132f01    .../    LDRB     r2,[r3,#1]!
        0x0000f276:    b162        b.      CBZ      r2,0xf292 ; core_state_transition + 280
        0x0000f278:    2a2c        ,*      CMP      r2,#0x2c
        0x0000f27a:    d1f5        ..      BNE      0xf268 ; core_state_transition + 238
        0x0000f27c:    e010        ..      B        0xf2a0 ; core_state_transition + 294
        0x0000f27e:    690a        .i      LDR      r2,[r1,#0x10]
        0x0000f280:    2005        .       MOVS     r0,#5
        0x0000f282:    1c52        R.      ADDS     r2,r2,#1
        0x0000f284:    610a        .a      STR      r2,[r1,#0x10]
        0x0000f286:    f8132f01    .../    LDRB     r2,[r3,#1]!
        0x0000f28a:    b112        ..      CBZ      r2,0xf292 ; core_state_transition + 280
        0x0000f28c:    2a2c        ,*      CMP      r2,#0x2c
        0x0000f28e:    d109        ..      BNE      0xf2a4 ; core_state_transition + 298
        0x0000f290:    e006        ..      B        0xf2a0 ; core_state_transition + 294
        0x0000f292:    e042        B.      B        0xf31a ; core_state_transition + 416
        0x0000f294:    e02e        ..      B        0xf2f4 ; core_state_transition + 378
        0x0000f296:    e032        2.      B        0xf2fe ; core_state_transition + 388
        0x0000f298:    690a        .i      LDR      r2,[r1,#0x10]
        0x0000f29a:    2001        .       MOVS     r0,#1
        0x0000f29c:    1c52        R.      ADDS     r2,r2,#1
        0x0000f29e:    610a        .a      STR      r2,[r1,#0x10]
        0x0000f2a0:    1c5b        [.      ADDS     r3,r3,#1
        0x0000f2a2:    e03b        ;.      B        0xf31c ; core_state_transition + 418
        0x0000f2a4:    2a45        E*      CMP      r2,#0x45
        0x0000f2a6:    bf18        ..      IT       NE
        0x0000f2a8:    2a65        e*      CMPNE    r2,#0x65
        0x0000f2aa:    d00a        ..      BEQ      0xf2c2 ; core_state_transition + 328
        0x0000f2ac:    f1a20230    ..0.    SUB      r2,r2,#0x30
        0x0000f2b0:    2a09        .*      CMP      r2,#9
        0x0000f2b2:    d810        ..      BHI      0xf2d6 ; core_state_transition + 348
        0x0000f2b4:    f8132f01    .../    LDRB     r2,[r3,#1]!
        0x0000f2b8:    b37a        z.      CBZ      r2,0xf31a ; core_state_transition + 416
        0x0000f2ba:    2a2c        ,*      CMP      r2,#0x2c
        0x0000f2bc:    d1f2        ..      BNE      0xf2a4 ; core_state_transition + 298
        0x0000f2be:    e7ef        ..      B        0xf2a0 ; core_state_transition + 294
        0x0000f2c0:    e00e        ..      B        0xf2e0 ; core_state_transition + 358
        0x0000f2c2:    694a        Ji      LDR      r2,[r1,#0x14]
        0x0000f2c4:    2003        .       MOVS     r0,#3
        0x0000f2c6:    1c52        R.      ADDS     r2,r2,#1
        0x0000f2c8:    614a        Ja      STR      r2,[r1,#0x14]
        0x0000f2ca:    f8132f01    .../    LDRB     r2,[r3,#1]!
        0x0000f2ce:    b322        ".      CBZ      r2,0xf31a ; core_state_transition + 416
        0x0000f2d0:    2a2c        ,*      CMP      r2,#0x2c
        0x0000f2d2:    d0e5        ..      BEQ      0xf2a0 ; core_state_transition + 294
        0x0000f2d4:    e778        x.      B        0xf1c8 ; core_state_transition + 78
        0x0000f2d6:    694a        Ji      LDR      r2,[r1,#0x14]
        0x0000f2d8:    2001        .       MOVS     r0,#1
        0x0000f2da:    1c52        R.      ADDS     r2,r2,#1
        0x0000f2dc:    614a        Ja      STR      r2,[r1,#0x14]
        0x0000f2de:    e7df        ..      B        0xf2a0 ; core_state_transition + 294
        0x0000f2e0:    68ca        .h      LDR      r2,[r1,#0xc]
        0x0000f2e2:    2006        .       MOVS     r0,#6
        0x0000f2e4:    1c52        R.      ADDS     r2,r2,#1
        0x0000f2e6:    60ca        .`      STR      r2,[r1,#0xc]
        0x0000f2e8:    f8132f01    .../    LDRB     r2,[r3,#1]!
        0x0000f2ec:    b1aa        ..      CBZ      r2,0xf31a ; core_state_transition + 416
        0x0000f2ee:    2a2c        ,*      CMP      r2,#0x2c
        0x0000f2f0:    d0d6        ..      BEQ      0xf2a0 ; core_state_transition + 294
        0x0000f2f2:    e75a        Z.      B        0xf1aa ; core_state_transition + 48
        0x0000f2f4:    698a        .i      LDR      r2,[r1,#0x18]
        0x0000f2f6:    2001        .       MOVS     r0,#1
        0x0000f2f8:    1c52        R.      ADDS     r2,r2,#1
        0x0000f2fa:    618a        .a      STR      r2,[r1,#0x18]
        0x0000f2fc:    e7d0        ..      B        0xf2a0 ; core_state_transition + 294
        0x0000f2fe:    3a30        0:      SUBS     r2,r2,#0x30
        0x0000f300:    2a09        .*      CMP      r2,#9
        0x0000f302:    d805        ..      BHI      0xf310 ; core_state_transition + 406
        0x0000f304:    f8132f01    .../    LDRB     r2,[r3,#1]!
        0x0000f308:    b13a        :.      CBZ      r2,0xf31a ; core_state_transition + 416
        0x0000f30a:    2a2c        ,*      CMP      r2,#0x2c
        0x0000f30c:    d1f7        ..      BNE      0xf2fe ; core_state_transition + 388
        0x0000f30e:    e7c7        ..      B        0xf2a0 ; core_state_transition + 294
        0x0000f310:    684a        Jh      LDR      r2,[r1,#4]
        0x0000f312:    2001        .       MOVS     r0,#1
        0x0000f314:    1c52        R.      ADDS     r2,r2,#1
        0x0000f316:    604a        J`      STR      r2,[r1,#4]
        0x0000f318:    e7c2        ..      B        0xf2a0 ; core_state_transition + 294
        0x0000f31a:    e7ff        ..      B        0xf31c ; core_state_transition + 418
        0x0000f31c:    f8cc3000    ...0    STR      r3,[r12,#0]
        0x0000f320:    4770        pG      BX       lr
        0x0000f322:    0000        ..      MOVS     r0,r0
    i.crc16
    crc16
        0x0000f324:    fa1ffc80    ....    UXTH     r12,r0
        0x0000f328:    f00c00ff    ....    AND      r0,r12,#0xff
        0x0000f32c:    f05f0208    _...    MOVS.W   r2,#8
        0x0000f330:    ea800301    ....    EOR      r3,r0,r1
        0x0000f334:    f0130f01    ....    TST      r3,#1
        0x0000f338:    ea4f0050    O.P.    LSR      r0,r0,#1
        0x0000f33c:    bf1a        ..      ITTE     NE
        0x0000f33e:    f24a0301    J...    MOVNE    r3,#0xa001
        0x0000f342:    ea830151    ..Q.    EORNE    r1,r3,r1,LSR #1
        0x0000f346:    0849        I.      LSREQ    r1,r1,#1
        0x0000f348:    1e52        R.      SUBS     r2,r2,#1
        0x0000f34a:    d1f1        ..      BNE      0xf330 ; crc16 + 12
        0x0000f34c:    4608        .F      MOV      r0,r1
        0x0000f34e:    ea4f221c    O.."    LSR      r2,r12,#8
        0x0000f352:    2108        .!      MOVS     r1,#8
        0x0000f354:    f24a0c01    J...    MOV      r12,#0xa001
        0x0000f358:    ea820300    ....    EOR      r3,r2,r0
        0x0000f35c:    f0130f01    ....    TST      r3,#1
        0x0000f360:    ea4f0252    O.R.    LSR      r2,r2,#1
        0x0000f364:    bf14        ..      ITE      NE
        0x0000f366:    ea8c0050    ..P.    EORNE    r0,r12,r0,LSR #1
        0x0000f36a:    0840        @.      LSREQ    r0,r0,#1
        0x0000f36c:    1e49        I.      SUBS     r1,r1,#1
        0x0000f36e:    d1f3        ..      BNE      0xf358 ; crc16 + 52
        0x0000f370:    4770        pG      BX       lr
        0x0000f372:    0000        ..      MOVS     r0,r0
    i.crcu16
    crcu16
        0x0000f374:    4603        .F      MOV      r3,r0
        0x0000f376:    b2c0        ..      UXTB     r0,r0
        0x0000f378:    f05f0208    _...    MOVS.W   r2,#8
        0x0000f37c:    ea800c01    ....    EOR      r12,r0,r1
        0x0000f380:    f01c0f01    ....    TST      r12,#1
        0x0000f384:    ea4f0050    O.P.    LSR      r0,r0,#1
        0x0000f388:    bf1a        ..      ITTE     NE
        0x0000f38a:    f24a0c01    J...    MOVNE    r12,#0xa001
        0x0000f38e:    ea8c0151    ..Q.    EORNE    r1,r12,r1,LSR #1
        0x0000f392:    0849        I.      LSREQ    r1,r1,#1
        0x0000f394:    1e52        R.      SUBS     r2,r2,#1
        0x0000f396:    d1f1        ..      BNE      0xf37c ; crcu16 + 8
        0x0000f398:    4608        .F      MOV      r0,r1
        0x0000f39a:    0a1a        ..      LSRS     r2,r3,#8
        0x0000f39c:    2108        .!      MOVS     r1,#8
        0x0000f39e:    f24a0c01    J...    MOV      r12,#0xa001
        0x0000f3a2:    bf00        ..      NOP      
        0x0000f3a4:    ea820300    ....    EOR      r3,r2,r0
        0x0000f3a8:    f0130f01    ....    TST      r3,#1
        0x0000f3ac:    ea4f0252    O.R.    LSR      r2,r2,#1
        0x0000f3b0:    bf14        ..      ITE      NE
        0x0000f3b2:    ea8c0050    ..P.    EORNE    r0,r12,r0,LSR #1
        0x0000f3b6:    0840        @.      LSREQ    r0,r0,#1
        0x0000f3b8:    1e49        I.      SUBS     r1,r1,#1
        0x0000f3ba:    d1f3        ..      BNE      0xf3a4 ; crcu16 + 48
        0x0000f3bc:    4770        pG      BX       lr
    i.crcu32
    crcu32
        0x0000f3be:    b510        ..      PUSH     {r4,lr}
        0x0000f3c0:    4604        .F      MOV      r4,r0
        0x0000f3c2:    b200        ..      SXTH     r0,r0
        0x0000f3c4:    f7ffffae    ....    BL       crc16 ; 0xf324
        0x0000f3c8:    1422        ".      ASRS     r2,r4,#16
        0x0000f3ca:    4601        .F      MOV      r1,r0
        0x0000f3cc:    e8bd4010    ...@    POP      {r4,lr}
        0x0000f3d0:    4610        .F      MOV      r0,r2
        0x0000f3d2:    f7ffbfa7    ....    B.W      crc16 ; 0xf324
        0x0000f3d6:    0000        ..      MOVS     r0,r0
    i.get_seed_32
    get_seed_32
        0x0000f3d8:    2806        .(      CMP      r0,#6
        0x0000f3da:    d210        ..      BCS      0xf3fe ; get_seed_32 + 38
        0x0000f3dc:    e8dff000    ....    TBB      [pc,r0]
    $d
        0x0000f3e0:    0806030f    ....    DCD    134611727
        0x0000f3e4:    0d0b        ..      DCW    3339
    $t
        0x0000f3e6:    4807        .H      LDR      r0,[pc,#28] ; [0xf404] = 0x10001024
        0x0000f3e8:    6800        .h      LDR      r0,[r0,#0]
        0x0000f3ea:    4770        pG      BX       lr
        0x0000f3ec:    4806        .H      LDR      r0,[pc,#24] ; [0xf408] = 0x10001028
        0x0000f3ee:    e000        ..      B        0xf3f2 ; get_seed_32 + 26
        0x0000f3f0:    4806        .H      LDR      r0,[pc,#24] ; [0xf40c] = 0x1000102c
        0x0000f3f2:    6800        .h      LDR      r0,[r0,#0]
        0x0000f3f4:    4770        pG      BX       lr
        0x0000f3f6:    4806        .H      LDR      r0,[pc,#24] ; [0xf410] = 0x10001030
        0x0000f3f8:    e7fb        ..      B        0xf3f2 ; get_seed_32 + 26
        0x0000f3fa:    4806        .H      LDR      r0,[pc,#24] ; [0xf414] = 0x10001034
        0x0000f3fc:    e7f9        ..      B        0xf3f2 ; get_seed_32 + 26
        0x0000f3fe:    2000        .       MOVS     r0,#0
        0x0000f400:    4770        pG      BX       lr
    $d
        0x0000f402:    0000        ..      DCW    0
        0x0000f404:    10001024    $...    DCD    268439588
        0x0000f408:    10001028    (...    DCD    268439592
        0x0000f40c:    1000102c    ,...    DCD    268439596
        0x0000f410:    10001030    0...    DCD    268439600
        0x0000f414:    10001034    4...    DCD    268439604
    $t
    i.get_time
    get_time
        0x0000f418:    4802        .H      LDR      r0,[pc,#8] ; [0xf424] = 0x10001038
        0x0000f41a:    6981        .i      LDR      r1,[r0,#0x18]
        0x0000f41c:    6900        .i      LDR      r0,[r0,#0x10]
        0x0000f41e:    1a08        ..      SUBS     r0,r1,r0
        0x0000f420:    4770        pG      BX       lr
    $d
        0x0000f422:    0000        ..      DCW    0
        0x0000f424:    10001038    8...    DCD    268439608
    $t
    i.main
    main
        0x0000f428:    b510        ..      PUSH     {r4,lr}
        0x0000f42a:    b082        ..      SUB      sp,sp,#8
        0x0000f42c:    4c07        .L      LDR      r4,[pc,#28] ; [0xf44c] = 0x10001038
        0x0000f42e:    2000        .       MOVS     r0,#0
        0x0000f430:    9000        ..      STR      r0,[sp,#0]
        0x0000f432:    7020         p      STRB     r0,[r4,#0]
        0x0000f434:    a901        ..      ADD      r1,sp,#4
        0x0000f436:    4668        hF      MOV      r0,sp
        0x0000f438:    f000f80a    ....    BL       main_loop ; 0xf450
        0x0000f43c:    2001        .       MOVS     r0,#1
        0x0000f43e:    7020         p      STRB     r0,[r4,#0]
        0x0000f440:    a901        ..      ADD      r1,sp,#4
        0x0000f442:    4668        hF      MOV      r0,sp
        0x0000f444:    f000f804    ....    BL       main_loop ; 0xf450
        0x0000f448:    b002        ..      ADD      sp,sp,#8
        0x0000f44a:    bd10        ..      POP      {r4,pc}
    $d
        0x0000f44c:    10001038    8...    DCD    268439608
    $t
    i.main_loop
    main_loop
        0x0000f450:    e92d4ff0    -..O    PUSH     {r4-r11,lr}
        0x0000f454:    2400        .$      MOVS     r4,#0
        0x0000f456:    ed2d8b06    -...    VPUSH    {d8-d10}
        0x0000f45a:    f6ad0d24    ..$.    SUB      sp,sp,#0x824
        0x0000f45e:    460a        .F      MOV      r2,r1
        0x0000f460:    4601        .F      MOV      r1,r0
        0x0000f462:    4625        %F      MOV      r5,r4
        0x0000f464:    f04f38ff    O..8    MOV      r8,#0xffffffff
        0x0000f468:    46a1        .F      MOV      r9,r4
        0x0000f46a:    af02        ..      ADD      r7,sp,#8
        0x0000f46c:    f10d004a    ..J.    ADD      r0,sp,#0x4a
        0x0000f470:    f000ff44    ..D.    BL       portable_init ; 0x102fc
        0x0000f474:    2001        .       MOVS     r0,#1
        0x0000f476:    f7ffffaf    ....    BL       get_seed_32 ; 0xf3d8
        0x0000f47a:    f8ad0008    ....    STRH     r0,[sp,#8]
        0x0000f47e:    2002        .       MOVS     r0,#2
        0x0000f480:    f7ffffaa    ....    BL       get_seed_32 ; 0xf3d8
        0x0000f484:    f8ad000a    ....    STRH     r0,[sp,#0xa]
        0x0000f488:    2003        .       MOVS     r0,#3
        0x0000f48a:    f7ffffa5    ....    BL       get_seed_32 ; 0xf3d8
        0x0000f48e:    f8ad000c    ....    STRH     r0,[sp,#0xc]
        0x0000f492:    2004        .       MOVS     r0,#4
        0x0000f494:    f7ffffa0    ....    BL       get_seed_32 ; 0xf3d8
        0x0000f498:    9009        ..      STR      r0,[sp,#0x24]
        0x0000f49a:    48fd        .H      LDR      r0,[pc,#1012] ; [0xf890] = 0x10001038
        0x0000f49c:    7800        .x      LDRB     r0,[r0,#0]
        0x0000f49e:    2801        .(      CMP      r0,#1
        0x0000f4a0:    d102        ..      BNE      0xf4a8 ; main_loop + 88
        0x0000f4a2:    9809        ..      LDR      r0,[sp,#0x24]
        0x0000f4a4:    0040        @.      LSLS     r0,r0,#1
        0x0000f4a6:    9009        ..      STR      r0,[sp,#0x24]
        0x0000f4a8:    2005        .       MOVS     r0,#5
        0x0000f4aa:    f7ffff95    ....    BL       get_seed_32 ; 0xf3d8
        0x0000f4ae:    900a        ..      STR      r0,[sp,#0x28]
        0x0000f4b0:    2800        .(      CMP      r0,#0
        0x0000f4b2:    bf04        ..      ITT      EQ
        0x0000f4b4:    2007        .       MOVEQ    r0,#7
        0x0000f4b6:    900a        ..      STREQ    r0,[sp,#0x28]
        0x0000f4b8:    f8bd1008    ....    LDRH     r1,[sp,#8]
        0x0000f4bc:    2066        f       MOVS     r0,#0x66
        0x0000f4be:    f04f0a00    O...    MOV      r10,#0
        0x0000f4c2:    2900        .)      CMP      r1,#0
        0x0000f4c4:    bf01        ..      ITTTT    EQ
        0x0000f4c6:    f8bd100a    ....    LDRHEQ   r1,[sp,#0xa]
        0x0000f4ca:    2900        .)      CMPEQ    r1,#0
        0x0000f4cc:    f8bd100c    ....    LDRHEQ   r1,[sp,#0xc]
        0x0000f4d0:    2900        .)      CMPEQ    r1,#0
        0x0000f4d2:    d105        ..      BNE      0xf4e0 ; main_loop + 144
        0x0000f4d4:    f8ada008    ....    STRH     r10,[sp,#8]
        0x0000f4d8:    f8ada00a    ....    STRH     r10,[sp,#0xa]
        0x0000f4dc:    f8ad000c    ....    STRH     r0,[sp,#0xc]
        0x0000f4e0:    f8bd1008    ....    LDRH     r1,[sp,#8]
        0x0000f4e4:    2901        .)      CMP      r1,#1
        0x0000f4e6:    bf01        ..      ITTTT    EQ
        0x0000f4e8:    f8bd100a    ....    LDRHEQ   r1,[sp,#0xa]
        0x0000f4ec:    2900        .)      CMPEQ    r1,#0
        0x0000f4ee:    f8bd100c    ....    LDRHEQ   r1,[sp,#0xc]
        0x0000f4f2:    2900        .)      CMPEQ    r1,#0
        0x0000f4f4:    d107        ..      BNE      0xf506 ; main_loop + 182
        0x0000f4f6:    f2434115    C..A    MOV      r1,#0x3415
        0x0000f4fa:    f8ad1008    ....    STRH     r1,[sp,#8]
        0x0000f4fe:    f8ad100a    ....    STRH     r1,[sp,#0xa]
        0x0000f502:    f8ad000c    ....    STRH     r0,[sp,#0xc]
        0x0000f506:    a814        ..      ADD      r0,sp,#0x50
        0x0000f508:    9004        ..      STR      r0,[sp,#0x10]
        0x0000f50a:    f44f60fa    O..`    MOV      r0,#0x7d0
        0x0000f50e:    9008        ..      STR      r0,[sp,#0x20]
        0x0000f510:    f8bd0008    ....    LDRH     r0,[sp,#8]
        0x0000f514:    f8ad0008    ....    STRH     r0,[sp,#8]
        0x0000f518:    f8bd000a    ....    LDRH     r0,[sp,#0xa]
        0x0000f51c:    f8ad000a    ....    STRH     r0,[sp,#0xa]
        0x0000f520:    f8bd000c    ....    LDRH     r0,[sp,#0xc]
        0x0000f524:    f8ad000c    ....    STRH     r0,[sp,#0xc]
        0x0000f528:    980a        ..      LDR      r0,[sp,#0x28]
        0x0000f52a:    f8ada048    ..H.    STRH     r10,[sp,#0x48]
        0x0000f52e:    f0100f01    ....    TST      r0,#1
        0x0000f532:    f04f0b01    O...    MOV      r11,#1
        0x0000f536:    bf18        ..      IT       NE
        0x0000f538:    2501        .%      MOVNE    r5,#1
        0x0000f53a:    980a        ..      LDR      r0,[sp,#0x28]
        0x0000f53c:    f0100f02    ....    TST      r0,#2
        0x0000f540:    bf18        ..      IT       NE
        0x0000f542:    1c6d        m.      ADDNE    r5,r5,#1
        0x0000f544:    980a        ..      LDR      r0,[sp,#0x28]
        0x0000f546:    f0100f04    ....    TST      r0,#4
        0x0000f54a:    bf18        ..      IT       NE
        0x0000f54c:    1c6d        m.      ADDNE    r5,r5,#1
        0x0000f54e:    9808        ..      LDR      r0,[sp,#0x20]
        0x0000f550:    fbb0f0f5    ....    UDIV     r0,r0,r5
        0x0000f554:    9008        ..      STR      r0,[sp,#0x20]
        0x0000f556:    980a        ..      LDR      r0,[sp,#0x28]
        0x0000f558:    f0100f01    ....    TST      r0,#1
        0x0000f55c:    d006        ..      BEQ      0xf56c ; main_loop + 284
        0x0000f55e:    9908        ..      LDR      r1,[sp,#0x20]
        0x0000f560:    9804        ..      LDR      r0,[sp,#0x10]
        0x0000f562:    fb010004    ....    MLA      r0,r1,r4,r0
        0x0000f566:    f04f0401    O...    MOV      r4,#1
        0x0000f56a:    9005        ..      STR      r0,[sp,#0x14]
        0x0000f56c:    980a        ..      LDR      r0,[sp,#0x28]
        0x0000f56e:    f0100f02    ....    TST      r0,#2
        0x0000f572:    d006        ..      BEQ      0xf582 ; main_loop + 306
        0x0000f574:    9908        ..      LDR      r1,[sp,#0x20]
        0x0000f576:    9804        ..      LDR      r0,[sp,#0x10]
        0x0000f578:    fb010004    ....    MLA      r0,r1,r4,r0
        0x0000f57c:    f1040401    ....    ADD      r4,r4,#1
        0x0000f580:    9006        ..      STR      r0,[sp,#0x18]
        0x0000f582:    980a        ..      LDR      r0,[sp,#0x28]
        0x0000f584:    f0100f04    ....    TST      r0,#4
        0x0000f588:    d004        ..      BEQ      0xf594 ; main_loop + 324
        0x0000f58a:    9908        ..      LDR      r1,[sp,#0x20]
        0x0000f58c:    9804        ..      LDR      r0,[sp,#0x10]
        0x0000f58e:    fb010004    ....    MLA      r0,r1,r4,r0
        0x0000f592:    9007        ..      STR      r0,[sp,#0x1c]
        0x0000f594:    f04f0500    O...    MOV      r5,#0
        0x0000f598:    eb051605    ....    ADD      r6,r5,r5,LSL #4
        0x0000f59c:    eb070486    ....    ADD      r4,r7,r6,LSL #2
        0x0000f5a0:    f8940020    .. .    LDRB     r0,[r4,#0x20]
        0x0000f5a4:    f0100f01    ....    TST      r0,#1
        0x0000f5a8:    d006        ..      BEQ      0xf5b8 ; main_loop + 360
        0x0000f5aa:    f9372026    7.&     LDRSH    r2,[r7,r6,LSL #2]
        0x0000f5ae:    68e1        .h      LDR      r1,[r4,#0xc]
        0x0000f5b0:    9808        ..      LDR      r0,[sp,#0x20]
        0x0000f5b2:    f7fffd07    ....    BL       core_list_init ; 0xefc4
        0x0000f5b6:    6260        `b      STR      r0,[r4,#0x24]
        0x0000f5b8:    f8940020    .. .    LDRB     r0,[r4,#0x20]
        0x0000f5bc:    f0100f02    ....    TST      r0,#2
        0x0000f5c0:    d00a        ..      BEQ      0xf5d8 ; main_loop + 392
        0x0000f5c2:    f9370026    7.&.    LDRSH    r0,[r7,r6,LSL #2]
        0x0000f5c6:    8861        a.      LDRH     r1,[r4,#2]
        0x0000f5c8:    f1040328    ..(.    ADD      r3,r4,#0x28
        0x0000f5cc:    ea404201    @..B    ORR      r2,r0,r1,LSL #16
        0x0000f5d0:    6921        !i      LDR      r1,[r4,#0x10]
        0x0000f5d2:    9808        ..      LDR      r0,[sp,#0x20]
        0x0000f5d4:    f7fffc1c    ....    BL       core_init_matrix ; 0xee10
        0x0000f5d8:    f8940020    .. .    LDRB     r0,[r4,#0x20]
        0x0000f5dc:    f0100f04    ....    TST      r0,#4
        0x0000f5e0:    d005        ..      BEQ      0xf5ee ; main_loop + 414
        0x0000f5e2:    f9371026    7.&.    LDRSH    r1,[r7,r6,LSL #2]
        0x0000f5e6:    6962        bi      LDR      r2,[r4,#0x14]
        0x0000f5e8:    9808        ..      LDR      r0,[sp,#0x20]
        0x0000f5ea:    f7fffc65    ..e.    BL       core_init_state ; 0xeeb8
        0x0000f5ee:    1c68        h.      ADDS     r0,r5,#1
        0x0000f5f0:    0405        ..      LSLS     r5,r0,#16
        0x0000f5f2:    0c2d        -.      LSRS     r5,r5,#16
        0x0000f5f4:    d0d0        ..      BEQ      0xf598 ; main_loop + 328
        0x0000f5f6:    ed9f9ba8    ....    VLDR     d9,[pc,#672] ; [0xf898] = 0
        0x0000f5fa:    9809        ..      LDR      r0,[sp,#0x24]
        0x0000f5fc:    2800        .(      CMP      r0,#0
        0x0000f5fe:    d152        R.      BNE      0xf6a6 ; main_loop + 598
        0x0000f600:    eeb08a49    ..I.    VMOV.F32 s16,s18
        0x0000f604:    eef08a69    ..i.    VMOV.F32 s17,s19
        0x0000f608:    ed9faba5    ....    VLDR     d10,[pc,#660] ; [0xf8a0] = 0
        0x0000f60c:    f8cdb024    ..$.    STR      r11,[sp,#0x24]
        0x0000f610:    e034        4.      B        0xf67c ; main_loop + 556
        0x0000f612:    9809        ..      LDR      r0,[sp,#0x24]
        0x0000f614:    eb000080    ....    ADD      r0,r0,r0,LSL #2
        0x0000f618:    0040        @.      LSLS     r0,r0,#1
        0x0000f61a:    9009        ..      STR      r0,[sp,#0x24]
        0x0000f61c:    f001f85a    ..Z.    BL       start_time ; 0x106d4
        0x0000f620:    9e09        ..      LDR      r6,[sp,#0x24]
        0x0000f622:    f8ada040    ..@.    STRH     r10,[sp,#0x40]
        0x0000f626:    f8ada044    ..D.    STRH     r10,[sp,#0x44]
        0x0000f62a:    2500        .%      MOVS     r5,#0
        0x0000f62c:    ac02        ..      ADD      r4,sp,#8
        0x0000f62e:    f8ada042    ..B.    STRH     r10,[sp,#0x42]
        0x0000f632:    f8ada046    ..F.    STRH     r10,[sp,#0x46]
        0x0000f636:    2e00        ..      CMP      r6,#0
        0x0000f638:    d916        ..      BLS      0xf668 ; main_loop + 536
        0x0000f63a:    2101        .!      MOVS     r1,#1
        0x0000f63c:    4620         F      MOV      r0,r4
        0x0000f63e:    f7fffa97    ....    BL       core_bench_list ; 0xeb70
        0x0000f642:    8f21        !.      LDRH     r1,[r4,#0x38]
        0x0000f644:    f7fffe96    ....    BL       crcu16 ; 0xf374
        0x0000f648:    8720         .      STRH     r0,[r4,#0x38]
        0x0000f64a:    f04f31ff    O..1    MOV      r1,#0xffffffff
        0x0000f64e:    4620         F      MOV      r0,r4
        0x0000f650:    f7fffa8e    ....    BL       core_bench_list ; 0xeb70
        0x0000f654:    8f21        !.      LDRH     r1,[r4,#0x38]
        0x0000f656:    f7fffe8d    ....    BL       crcu16 ; 0xf374
        0x0000f65a:    8720         .      STRH     r0,[r4,#0x38]
        0x0000f65c:    2d00        .-      CMP      r5,#0
        0x0000f65e:    bf08        ..      IT       EQ
        0x0000f660:    8760        `.      STRHEQ   r0,[r4,#0x3a]
        0x0000f662:    1c6d        m.      ADDS     r5,r5,#1
        0x0000f664:    42b5        .B      CMP      r5,r6
        0x0000f666:    d3e8        ..      BCC      0xf63a ; main_loop + 490
        0x0000f668:    f001f860    ..`.    BL       stop_time ; 0x1072c
        0x0000f66c:    f7fffed4    ....    BL       get_time ; 0xf418
        0x0000f670:    f001f87e    ..~.    BL       time_in_secs ; 0x10770
        0x0000f674:    eeb08a40    ..@.    VMOV.F32 s16,s0
        0x0000f678:    eef08a60    ..`.    VMOV.F32 s17,s1
        0x0000f67c:    ec532b1a    S..+    VMOV     r2,r3,d10
        0x0000f680:    ec510b18    Q...    VMOV     r0,r1,d8
        0x0000f684:    f001fb92    ....    BL       __aeabi_cdcmple ; 0x10dac
        0x0000f688:    d3c3        ..      BCC      0xf612 ; main_loop + 450
        0x0000f68a:    ec510b18    Q...    VMOV     r0,r1,d8
        0x0000f68e:    f001fb4d    ..M.    BL       __aeabi_d2uiz ; 0x10d2c
        0x0000f692:    2800        .(      CMP      r0,#0
        0x0000f694:    bf08        ..      IT       EQ
        0x0000f696:    2001        .       MOVEQ    r0,#1
        0x0000f698:    210a        .!      MOVS     r1,#0xa
        0x0000f69a:    fbb1f0f0    ....    UDIV     r0,r1,r0
        0x0000f69e:    9909        ..      LDR      r1,[sp,#0x24]
        0x0000f6a0:    1c40        @.      ADDS     r0,r0,#1
        0x0000f6a2:    4348        HC      MULS     r0,r1,r0
        0x0000f6a4:    9009        ..      STR      r0,[sp,#0x24]
        0x0000f6a6:    f001f815    ....    BL       start_time ; 0x106d4
        0x0000f6aa:    9d09        ..      LDR      r5,[sp,#0x24]
        0x0000f6ac:    f8ada040    ..@.    STRH     r10,[sp,#0x40]
        0x0000f6b0:    f8ada044    ..D.    STRH     r10,[sp,#0x44]
        0x0000f6b4:    2600        .&      MOVS     r6,#0
        0x0000f6b6:    ac02        ..      ADD      r4,sp,#8
        0x0000f6b8:    f8ada042    ..B.    STRH     r10,[sp,#0x42]
        0x0000f6bc:    f8ada046    ..F.    STRH     r10,[sp,#0x46]
        0x0000f6c0:    2d00        .-      CMP      r5,#0
        0x0000f6c2:    d916        ..      BLS      0xf6f2 ; main_loop + 674
        0x0000f6c4:    2101        .!      MOVS     r1,#1
        0x0000f6c6:    4620         F      MOV      r0,r4
        0x0000f6c8:    f7fffa52    ..R.    BL       core_bench_list ; 0xeb70
        0x0000f6cc:    8f21        !.      LDRH     r1,[r4,#0x38]
        0x0000f6ce:    f7fffe51    ..Q.    BL       crcu16 ; 0xf374
        0x0000f6d2:    8720         .      STRH     r0,[r4,#0x38]
        0x0000f6d4:    f04f31ff    O..1    MOV      r1,#0xffffffff
        0x0000f6d8:    4620         F      MOV      r0,r4
        0x0000f6da:    f7fffa49    ..I.    BL       core_bench_list ; 0xeb70
        0x0000f6de:    8f21        !.      LDRH     r1,[r4,#0x38]
        0x0000f6e0:    f7fffe48    ..H.    BL       crcu16 ; 0xf374
        0x0000f6e4:    8720         .      STRH     r0,[r4,#0x38]
        0x0000f6e6:    2e00        ..      CMP      r6,#0
        0x0000f6e8:    bf08        ..      IT       EQ
        0x0000f6ea:    8760        `.      STRHEQ   r0,[r4,#0x3a]
        0x0000f6ec:    1c76        v.      ADDS     r6,r6,#1
        0x0000f6ee:    42ae        .B      CMP      r6,r5
        0x0000f6f0:    d3e8        ..      BCC      0xf6c4 ; main_loop + 628
        0x0000f6f2:    f001f81b    ....    BL       stop_time ; 0x1072c
        0x0000f6f6:    f7fffe8f    ....    BL       get_time ; 0xf418
        0x0000f6fa:    9013        ..      STR      r0,[sp,#0x4c]
        0x0000f6fc:    f9bd0008    ....    LDRSH    r0,[sp,#8]
        0x0000f700:    2100        .!      MOVS     r1,#0
        0x0000f702:    f7fffe0f    ....    BL       crc16 ; 0xf324
        0x0000f706:    f9bd200a    ...     LDRSH    r2,[sp,#0xa]
        0x0000f70a:    4601        .F      MOV      r1,r0
        0x0000f70c:    4610        .F      MOV      r0,r2
        0x0000f70e:    f7fffe09    ....    BL       crc16 ; 0xf324
        0x0000f712:    f9bd200c    ...     LDRSH    r2,[sp,#0xc]
        0x0000f716:    4601        .F      MOV      r1,r0
        0x0000f718:    4610        .F      MOV      r0,r2
        0x0000f71a:    f7fffe03    ....    BL       crc16 ; 0xf324
        0x0000f71e:    4601        .F      MOV      r1,r0
        0x0000f720:    9808        ..      LDR      r0,[sp,#0x20]
        0x0000f722:    b200        ..      SXTH     r0,r0
        0x0000f724:    f7fffdfe    ....    BL       crc16 ; 0xf324
        0x0000f728:    f6473205    G..2    MOV      r2,#0x7b05
        0x0000f72c:    1a81        ..      SUBS     r1,r0,r2
        0x0000f72e:    4d5e        ^M      LDR      r5,[pc,#376] ; [0xf8a8] = 0x10001058
        0x0000f730:    9000        ..      STR      r0,[sp,#0]
        0x0000f732:    4290        .B      CMP      r0,r2
        0x0000f734:    bf04        ..      ITT      EQ
        0x0000f736:    f04f0801    O...    MOVEQ    r8,#1
        0x0000f73a:    a05c        \.      ADREQ    r0,{pc}+0x172 ; 0xf8ac
        0x0000f73c:    d028        (.      BEQ      0xf790 ; main_loop + 832
        0x0000f73e:    dc12        ..      BGT      0xf766 ; main_loop + 790
        0x0000f740:    f200700e    ...p    ADD      r0,r0,#0x70e
        0x0000f744:    f5b05000    ...P    SUBS     r0,r0,#0x2000
        0x0000f748:    bf04        ..      ITT      EQ
        0x0000f74a:    f04f0804    O...    MOVEQ    r8,#4
        0x0000f74e:    a062        b.      ADREQ    r0,{pc}+0x18a ; 0xf8d8
        0x0000f750:    d01e        ..      BEQ      0xf790 ; main_loop + 832
        0x0000f752:    f6002043    ..C     ADD      r0,r0,#0xa43
        0x0000f756:    f5b04f80    ...O    CMP      r0,#0x4000
        0x0000f75a:    bf04        ..      ITT      EQ
        0x0000f75c:    f04f0802    O...    MOVEQ    r8,#2
        0x0000f760:    a068        h.      ADREQ    r0,{pc}+0x1a4 ; 0xf904
        0x0000f762:    d015        ..      BEQ      0xf790 ; main_loop + 832
        0x0000f764:    e00b        ..      B        0xf77e ; main_loop + 814
        0x0000f766:    f5a16060    ..``    SUB      r0,r1,#0xe00
        0x0000f76a:    38fd        .8      SUBS     r0,r0,#0xfd
        0x0000f76c:    d00a        ..      BEQ      0xf784 ; main_loop + 820
        0x0000f76e:    300d        .0      ADDS     r0,r0,#0xd
        0x0000f770:    f5b04fc0    ...O    CMP      r0,#0x6000
        0x0000f774:    bf04        ..      ITT      EQ
        0x0000f776:    f04f0803    O...    MOVEQ    r8,#3
        0x0000f77a:    a06f        o.      ADREQ    r0,{pc}+0x1be ; 0xf938
        0x0000f77c:    d008        ..      BEQ      0xf790 ; main_loop + 832
        0x0000f77e:    f04f39ff    O..9    MOV      r9,#0xffffffff
        0x0000f782:    e05a        Z.      B        0xf83a ; main_loop + 1002
        0x0000f784:    f04f0800    O...    MOV      r8,#0
        0x0000f788:    a077        w.      ADR      r0,{pc}+0x1e0 ; 0xf968
        0x0000f78a:    f7fefd05    ....    BL       am_sprintf ; 0xe198
        0x0000f78e:    e001        ..      B        0xf794 ; main_loop + 836
        0x0000f790:    f7fefd02    ....    BL       am_sprintf ; 0xe198
        0x0000f794:    6828        (h      LDR      r0,[r5,#0]
        0x0000f796:    2400        .$      MOVS     r4,#0
        0x0000f798:    2800        .(      CMP      r0,#0
        0x0000f79a:    bf88        ..      IT       HI
        0x0000f79c:    f8dfb1f8    ....    LDRHI    r11,[pc,#504] ; [0xf998] = 0x10001004
        0x0000f7a0:    d94b        K.      BLS      0xf83a ; main_loop + 1002
        0x0000f7a2:    bf00        ..      NOP      
        0x0000f7a4:    eb041004    ....    ADD      r0,r4,r4,LSL #4
        0x0000f7a8:    eb070680    ....    ADD      r6,r7,r0,LSL #2
        0x0000f7ac:    f8a6a040    ..@.    STRH     r10,[r6,#0x40]
        0x0000f7b0:    f8960020    .. .    LDRB     r0,[r6,#0x20]
        0x0000f7b4:    f0100f01    ....    TST      r0,#1
        0x0000f7b8:    d00d        ..      BEQ      0xf7d6 ; main_loop + 902
        0x0000f7ba:    8f72        r.      LDRH     r2,[r6,#0x3a]
        0x0000f7bc:    f83b3018    ;..0    LDRH     r3,[r11,r8,LSL #1]
        0x0000f7c0:    429a        .B      CMP      r2,r3
        0x0000f7c2:    d008        ..      BEQ      0xf7d6 ; main_loop + 902
        0x0000f7c4:    4621        !F      MOV      r1,r4
        0x0000f7c6:    a075        u.      ADR      r0,{pc}+0x1d6 ; 0xf99c
        0x0000f7c8:    f7fefce6    ....    BL       am_sprintf ; 0xe198
        0x0000f7cc:    f8b60040    ..@.    LDRH     r0,[r6,#0x40]
        0x0000f7d0:    1c40        @.      ADDS     r0,r0,#1
        0x0000f7d2:    f8a60040    ..@.    STRH     r0,[r6,#0x40]
        0x0000f7d6:    f8960020    .. .    LDRB     r0,[r6,#0x20]
        0x0000f7da:    f0100f02    ....    TST      r0,#2
        0x0000f7de:    d00e        ..      BEQ      0xf7fe ; main_loop + 942
        0x0000f7e0:    487a        zH      LDR      r0,[pc,#488] ; [0xf9cc] = 0x1000100e
        0x0000f7e2:    8fb2        ..      LDRH     r2,[r6,#0x3c]
        0x0000f7e4:    f8303018    0..0    LDRH     r3,[r0,r8,LSL #1]
        0x0000f7e8:    429a        .B      CMP      r2,r3
        0x0000f7ea:    d008        ..      BEQ      0xf7fe ; main_loop + 942
        0x0000f7ec:    4621        !F      MOV      r1,r4
        0x0000f7ee:    a078        x.      ADR      r0,{pc}+0x1e2 ; 0xf9d0
        0x0000f7f0:    f7fefcd2    ....    BL       am_sprintf ; 0xe198
        0x0000f7f4:    f8b60040    ..@.    LDRH     r0,[r6,#0x40]
        0x0000f7f8:    1c40        @.      ADDS     r0,r0,#1
        0x0000f7fa:    f8a60040    ..@.    STRH     r0,[r6,#0x40]
        0x0000f7fe:    f8960020    .. .    LDRB     r0,[r6,#0x20]
        0x0000f802:    f0100f04    ....    TST      r0,#4
        0x0000f806:    d00e        ..      BEQ      0xf826 ; main_loop + 982
        0x0000f808:    487e        ~H      LDR      r0,[pc,#504] ; [0xfa04] = 0x10001018
        0x0000f80a:    8ff2        ..      LDRH     r2,[r6,#0x3e]
        0x0000f80c:    f8303018    0..0    LDRH     r3,[r0,r8,LSL #1]
        0x0000f810:    429a        .B      CMP      r2,r3
        0x0000f812:    d008        ..      BEQ      0xf826 ; main_loop + 982
        0x0000f814:    4621        !F      MOV      r1,r4
        0x0000f816:    a07c        |.      ADR      r0,{pc}+0x1f2 ; 0xfa08
        0x0000f818:    f7fefcbe    ....    BL       am_sprintf ; 0xe198
        0x0000f81c:    f8b60040    ..@.    LDRH     r0,[r6,#0x40]
        0x0000f820:    1c40        @.      ADDS     r0,r0,#1
        0x0000f822:    f8a60040    ..@.    STRH     r0,[r6,#0x40]
        0x0000f826:    f8b60040    ..@.    LDRH     r0,[r6,#0x40]
        0x0000f82a:    4448        HD      ADD      r0,r0,r9
        0x0000f82c:    fa0ff980    ....    SXTH     r9,r0
        0x0000f830:    1c60        `.      ADDS     r0,r4,#1
        0x0000f832:    b284        ..      UXTH     r4,r0
        0x0000f834:    6828        (h      LDR      r0,[r5,#0]
        0x0000f836:    4284        .B      CMP      r4,r0
        0x0000f838:    d3b4        ..      BCC      0xf7a4 ; main_loop + 852
        0x0000f83a:    f7fff974    ..t.    BL       check_data_types ; 0xeb26
        0x0000f83e:    4448        HD      ADD      r0,r0,r9
        0x0000f840:    b206        ..      SXTH     r6,r0
        0x0000f842:    a07d        }.      ADR      r0,{pc}+0x1f6 ; 0xfa38
        0x0000f844:    9908        ..      LDR      r1,[sp,#0x20]
        0x0000f846:    f7fefca7    ....    BL       am_sprintf ; 0xe198
        0x0000f84a:    2300        .#      MOVS     r3,#0
        0x0000f84c:    a080        ..      ADR      r0,{pc}+0x204 ; 0xfa50
        0x0000f84e:    9a13        ..      LDR      r2,[sp,#0x4c]
        0x0000f850:    f7fefca2    ....    BL       am_sprintf ; 0xe198
        0x0000f854:    9813        ..      LDR      r0,[sp,#0x4c]
        0x0000f856:    f000ff8b    ....    BL       time_in_secs ; 0x10770
        0x0000f85a:    ec532b10    S..+    VMOV     r2,r3,d0
        0x0000f85e:    a083        ..      ADR      r0,{pc}+0x20e ; 0xfa6c
        0x0000f860:    f7fefc9a    ....    BL       am_sprintf ; 0xe198
        0x0000f864:    9813        ..      LDR      r0,[sp,#0x4c]
        0x0000f866:    f000ff83    ....    BL       time_in_secs ; 0x10770
        0x0000f86a:    ec532b19    S..+    VMOV     r2,r3,d9
        0x0000f86e:    ec510b10    Q...    VMOV     r0,r1,d0
        0x0000f872:    f001fb2b    ..+.    BL       __aeabi_cdrcmple ; 0x10ecc
        0x0000f876:    d207        ..      BCS      0xf888 ; main_loop + 1080
        0x0000f878:    9813        ..      LDR      r0,[sp,#0x4c]
        0x0000f87a:    f000ff79    ..y.    BL       time_in_secs ; 0x10770
        0x0000f87e:    eeb08a40    ..@.    VMOV.F32 s16,s0
        0x0000f882:    eef08a60    ..`.    VMOV.F32 s17,s1
        0x0000f886:    e0fd        ..      B        0xfa84 ; main_loop + 1588
        0x0000f888:    e10c        ..      B        0xfaa4 ; main_loop + 1620
    $d
        0x0000f88a:    0000        ..      DCW    0
        0x0000f88c:    00000000    ....    DCD    0
        0x0000f890:    10001038    8...    DCD    268439608
        0x0000f894:    00000000    ....    DCD    0
        0x0000f898:    00000000    ....    DCD    0
        0x0000f89c:    00000000    ....    DCD    0
        0x0000f8a0:    00000000    ....    DCD    0
        0x0000f8a4:    3ff00000    ...?    DCD    1072693248
        0x0000f8a8:    10001058    X...    DCD    268439640
        0x0000f8ac:    76206b36    6k v    DCD    1981836086
        0x0000f8b0:    64696c61    alid    DCD    1684630625
        0x0000f8b4:    6f697461    atio    DCD    1869182049
        0x0000f8b8:    7572206e    n ru    DCD    1970413678
        0x0000f8bc:    6170206e    n pa    DCD    1634738286
        0x0000f8c0:    656d6172    rame    DCD    1701667186
        0x0000f8c4:    73726574    ters    DCD    1936876916
        0x0000f8c8:    726f6620     for    DCD    1919903264
        0x0000f8cc:    726f6320     cor    DCD    1919902496
        0x0000f8d0:    72616d65    emar    DCD    1918987621
        0x0000f8d4:    000a2e6b    k...    DCD    667243
        0x0000f8d8:    76204b32    2K v    DCD    1981827890
        0x0000f8dc:    64696c61    alid    DCD    1684630625
        0x0000f8e0:    6f697461    atio    DCD    1869182049
        0x0000f8e4:    7572206e    n ru    DCD    1970413678
        0x0000f8e8:    6170206e    n pa    DCD    1634738286
        0x0000f8ec:    656d6172    rame    DCD    1701667186
        0x0000f8f0:    73726574    ters    DCD    1936876916
        0x0000f8f4:    726f6620     for    DCD    1919903264
        0x0000f8f8:    726f6320     cor    DCD    1919902496
        0x0000f8fc:    72616d65    emar    DCD    1918987621
        0x0000f900:    000a2e6b    k...    DCD    667243
        0x0000f904:    666f7250    Prof    DCD    1718579792
        0x0000f908:    20656c69    ile     DCD    543517801
        0x0000f90c:    656e6567    gene    DCD    1701733735
        0x0000f910:    69746172    rati    DCD    1769234802
        0x0000f914:    72206e6f    on r    DCD    1914728047
        0x0000f918:    70206e75    un p    DCD    1881173621
        0x0000f91c:    6d617261    aram    DCD    1835102817
        0x0000f920:    72657465    eter    DCD    1919251557
        0x0000f924:    6f662073    s fo    DCD    1868963955
        0x0000f928:    6f632072    r co    DCD    1868767346
        0x0000f92c:    616d6572    rema    DCD    1634559346
        0x0000f930:    0a2e6b72    rk..    DCD    170814322
        0x0000f934:    00000000    ....    DCD    0
        0x0000f938:    70204b32    2K p    DCD    1881164594
        0x0000f93c:    6f667265    erfo    DCD    1868984933
        0x0000f940:    6e616d72    rman    DCD    1851878770
        0x0000f944:    72206563    ce r    DCD    1914725731
        0x0000f948:    70206e75    un p    DCD    1881173621
        0x0000f94c:    6d617261    aram    DCD    1835102817
        0x0000f950:    72657465    eter    DCD    1919251557
        0x0000f954:    6f662073    s fo    DCD    1868963955
        0x0000f958:    6f632072    r co    DCD    1868767346
        0x0000f95c:    616d6572    rema    DCD    1634559346
        0x0000f960:    0a2e6b72    rk..    DCD    170814322
        0x0000f964:    00000000    ....    DCD    0
        0x0000f968:    70206b36    6k p    DCD    1881172790
        0x0000f96c:    6f667265    erfo    DCD    1868984933
        0x0000f970:    6e616d72    rman    DCD    1851878770
        0x0000f974:    72206563    ce r    DCD    1914725731
        0x0000f978:    70206e75    un p    DCD    1881173621
        0x0000f97c:    6d617261    aram    DCD    1835102817
        0x0000f980:    72657465    eter    DCD    1919251557
        0x0000f984:    6f662073    s fo    DCD    1868963955
        0x0000f988:    6f632072    r co    DCD    1868767346
        0x0000f98c:    616d6572    rema    DCD    1634559346
        0x0000f990:    0a2e6b72    rk..    DCD    170814322
        0x0000f994:    00000000    ....    DCD    0
        0x0000f998:    10001004    ....    DCD    268439556
        0x0000f99c:    5d75255b    [%u]    DCD    1567958363
        0x0000f9a0:    4f525245    ERRO    DCD    1330795077
        0x0000f9a4:    6c202152    R! l    DCD    1814045010
        0x0000f9a8:    20747369    ist     DCD    544502633
        0x0000f9ac:    20637263    crc     DCD    543388259
        0x0000f9b0:    30257830    0x%0    DCD    807761968
        0x0000f9b4:    2d207834    4x -    DCD    757102644
        0x0000f9b8:    6f687320     sho    DCD    1869116192
        0x0000f9bc:    20646c75    uld     DCD    543452277
        0x0000f9c0:    30206562    be 0    DCD    807429474
        0x0000f9c4:    34302578    x%04    DCD    875570552
        0x0000f9c8:    00000a78    x...    DCD    2680
        0x0000f9cc:    1000100e    ....    DCD    268439566
        0x0000f9d0:    5d75255b    [%u]    DCD    1567958363
        0x0000f9d4:    4f525245    ERRO    DCD    1330795077
        0x0000f9d8:    6d202152    R! m    DCD    1830822226
        0x0000f9dc:    69727461    atri    DCD    1769108577
        0x0000f9e0:    72632078    x cr    DCD    1919099000
        0x0000f9e4:    78302063    c 0x    DCD    2016419939
        0x0000f9e8:    78343025    %04x    DCD    2016686117
        0x0000f9ec:    73202d20     - s    DCD    1931488544
        0x0000f9f0:    6c756f68    houl    DCD    1819635560
        0x0000f9f4:    65622064    d be    DCD    1700929636
        0x0000f9f8:    25783020     0x%    DCD    628633632
        0x0000f9fc:    0a783430    04x.    DCD    175649840
        0x0000fa00:    00000000    ....    DCD    0
        0x0000fa04:    10001018    ....    DCD    268439576
        0x0000fa08:    5d75255b    [%u]    DCD    1567958363
        0x0000fa0c:    4f525245    ERRO    DCD    1330795077
        0x0000fa10:    73202152    R! s    DCD    1931485522
        0x0000fa14:    65746174    tate    DCD    1702125940
        0x0000fa18:    63726320     crc    DCD    1668440864
        0x0000fa1c:    25783020     0x%    DCD    628633632
        0x0000fa20:    20783430    04x     DCD    544748592
        0x0000fa24:    6873202d    - sh    DCD    1752375341
        0x0000fa28:    646c756f    ould    DCD    1684829551
        0x0000fa2c:    20656220     be     DCD    543515168
        0x0000fa30:    30257830    0x%0    DCD    807761968
        0x0000fa34:    000a7834    4x..    DCD    686132
        0x0000fa38:    65726f43    Core    DCD    1701998403
        0x0000fa3c:    6b72614d    Mark    DCD    1802658125
        0x0000fa40:    7a695320     Siz    DCD    2053722912
        0x0000fa44:    20202065    e       DCD    538976357
        0x0000fa48:    25203a20     : %    DCD    622869024
        0x0000fa4c:    000a756c    lu..    DCD    685420
        0x0000fa50:    61746f54    Tota    DCD    1635020628
        0x0000fa54:    6974206c    l ti    DCD    1769218156
        0x0000fa58:    20736b63    cks     DCD    544435043
        0x0000fa5c:    20202020            DCD    538976288
        0x0000fa60:    25203a20     : %    DCD    622869024
        0x0000fa64:    0a756c6c    llu.    DCD    175467628
        0x0000fa68:    00000000    ....    DCD    0
        0x0000fa6c:    61746f54    Tota    DCD    1635020628
        0x0000fa70:    6974206c    l ti    DCD    1769218156
        0x0000fa74:    2820656d    me (    DCD    673211757
        0x0000fa78:    73636573    secs    DCD    1935893875
        0x0000fa7c:    25203a29    ): %    DCD    622869033
        0x0000fa80:    00000a66    f...    DCD    2662
    $t
        0x0000fa84:    9809        ..      LDR      r0,[sp,#0x24]
        0x0000fa86:    6829        )h      LDR      r1,[r5,#0]
        0x0000fa88:    4348        HC      MULS     r0,r1,r0
        0x0000fa8a:    f001f97c    ..|.    BL       __aeabi_ui2d ; 0x10d86
        0x0000fa8e:    ec532b18    S..+    VMOV     r2,r3,d8
        0x0000fa92:    f000fff3    ....    BL       __aeabi_ddiv ; 0x10a7c
        0x0000fa96:    ec410b10    A...    VMOV     d0,r0,r1
        0x0000fa9a:    a073        s.      ADR      r0,{pc}+0x1ce ; 0xfc68
        0x0000fa9c:    ec532b10    S..+    VMOV     r2,r3,d0
        0x0000faa0:    f7fefb7a    ..z.    BL       am_sprintf ; 0xe198
        0x0000faa4:    9813        ..      LDR      r0,[sp,#0x4c]
        0x0000faa6:    f000fe63    ..c.    BL       time_in_secs ; 0x10770
        0x0000faaa:    ed9f1b75    ..u.    VLDR     d1,[pc,#468] ; [0xfc80] = 0
        0x0000faae:    ec510b10    Q...    VMOV     r0,r1,d0
        0x0000fab2:    ec532b11    S..+    VMOV     r2,r3,d1
        0x0000fab6:    f001f979    ..y.    BL       __aeabi_cdcmple ; 0x10dac
        0x0000faba:    d204        ..      BCS      0xfac6 ; main_loop + 1654
        0x0000fabc:    a072        r.      ADR      r0,{pc}+0x1cc ; 0xfc88
        0x0000fabe:    f7fefb6b    ..k.    BL       am_sprintf ; 0xe198
        0x0000fac2:    1c70        p.      ADDS     r0,r6,#1
        0x0000fac4:    b206        ..      SXTH     r6,r0
        0x0000fac6:    9809        ..      LDR      r0,[sp,#0x24]
        0x0000fac8:    6829        )h      LDR      r1,[r5,#0]
        0x0000faca:    4341        AC      MULS     r1,r0,r1
        0x0000facc:    a07e        ~.      ADR      r0,{pc}+0x1fc ; 0xfcc8
        0x0000face:    f7fefb63    ..c.    BL       am_sprintf ; 0xe198
        0x0000fad2:    a183        ..      ADR      r1,{pc}+0x20e ; 0xfce0
        0x0000fad4:    a086        ..      ADR      r0,{pc}+0x21c ; 0xfcf0
        0x0000fad6:    f7fefb5f    .._.    BL       am_sprintf ; 0xe198
        0x0000fada:    a18b        ..      ADR      r1,{pc}+0x22e ; 0xfd08
        0x0000fadc:    a08c        ..      ADR      r0,{pc}+0x234 ; 0xfd10
        0x0000fade:    f7fefb5b    ..[.    BL       am_sprintf ; 0xe198
        0x0000fae2:    a091        ..      ADR      r0,{pc}+0x246 ; 0xfd28
        0x0000fae4:    9900        ..      LDR      r1,[sp,#0]
        0x0000fae6:    f7fefb57    ..W.    BL       am_sprintf ; 0xe198
        0x0000faea:    980a        ..      LDR      r0,[sp,#0x28]
        0x0000faec:    f0100f01    ....    TST      r0,#1
        0x0000faf0:    d012        ..      BEQ      0xfb18 ; main_loop + 1736
        0x0000faf2:    6828        (h      LDR      r0,[r5,#0]
        0x0000faf4:    2400        .$      MOVS     r4,#0
        0x0000faf6:    2800        .(      CMP      r0,#0
        0x0000faf8:    d90e        ..      BLS      0xfb18 ; main_loop + 1736
        0x0000fafa:    bf00        ..      NOP      
        0x0000fafc:    eb041004    ....    ADD      r0,r4,r4,LSL #4
        0x0000fb00:    eb070080    ....    ADD      r0,r7,r0,LSL #2
        0x0000fb04:    4621        !F      MOV      r1,r4
        0x0000fb06:    8f42        B.      LDRH     r2,[r0,#0x3a]
        0x0000fb08:    a08e        ..      ADR      r0,{pc}+0x23c ; 0xfd44
        0x0000fb0a:    f7fefb45    ..E.    BL       am_sprintf ; 0xe198
        0x0000fb0e:    1c60        `.      ADDS     r0,r4,#1
        0x0000fb10:    b284        ..      UXTH     r4,r0
        0x0000fb12:    6828        (h      LDR      r0,[r5,#0]
        0x0000fb14:    42a0        .B      CMP      r0,r4
        0x0000fb16:    d8f1        ..      BHI      0xfafc ; main_loop + 1708
        0x0000fb18:    980a        ..      LDR      r0,[sp,#0x28]
        0x0000fb1a:    f0100f02    ....    TST      r0,#2
        0x0000fb1e:    d011        ..      BEQ      0xfb44 ; main_loop + 1780
        0x0000fb20:    6828        (h      LDR      r0,[r5,#0]
        0x0000fb22:    2400        .$      MOVS     r4,#0
        0x0000fb24:    2800        .(      CMP      r0,#0
        0x0000fb26:    d90d        ..      BLS      0xfb44 ; main_loop + 1780
        0x0000fb28:    eb041004    ....    ADD      r0,r4,r4,LSL #4
        0x0000fb2c:    eb070080    ....    ADD      r0,r7,r0,LSL #2
        0x0000fb30:    4621        !F      MOV      r1,r4
        0x0000fb32:    8f82        ..      LDRH     r2,[r0,#0x3c]
        0x0000fb34:    a08a        ..      ADR      r0,{pc}+0x22c ; 0xfd60
        0x0000fb36:    f7fefb2f    ../.    BL       am_sprintf ; 0xe198
        0x0000fb3a:    1c60        `.      ADDS     r0,r4,#1
        0x0000fb3c:    b284        ..      UXTH     r4,r0
        0x0000fb3e:    6828        (h      LDR      r0,[r5,#0]
        0x0000fb40:    42a0        .B      CMP      r0,r4
        0x0000fb42:    d8f1        ..      BHI      0xfb28 ; main_loop + 1752
        0x0000fb44:    980a        ..      LDR      r0,[sp,#0x28]
        0x0000fb46:    f0100f04    ....    TST      r0,#4
        0x0000fb4a:    d011        ..      BEQ      0xfb70 ; main_loop + 1824
        0x0000fb4c:    6828        (h      LDR      r0,[r5,#0]
        0x0000fb4e:    2400        .$      MOVS     r4,#0
        0x0000fb50:    2800        .(      CMP      r0,#0
        0x0000fb52:    d90d        ..      BLS      0xfb70 ; main_loop + 1824
        0x0000fb54:    eb041004    ....    ADD      r0,r4,r4,LSL #4
        0x0000fb58:    eb070080    ....    ADD      r0,r7,r0,LSL #2
        0x0000fb5c:    4621        !F      MOV      r1,r4
        0x0000fb5e:    8fc2        ..      LDRH     r2,[r0,#0x3e]
        0x0000fb60:    a086        ..      ADR      r0,{pc}+0x21c ; 0xfd7c
        0x0000fb62:    f7fefb19    ....    BL       am_sprintf ; 0xe198
        0x0000fb66:    1c60        `.      ADDS     r0,r4,#1
        0x0000fb68:    b284        ..      UXTH     r4,r0
        0x0000fb6a:    6828        (h      LDR      r0,[r5,#0]
        0x0000fb6c:    42a0        .B      CMP      r0,r4
        0x0000fb6e:    d8f1        ..      BHI      0xfb54 ; main_loop + 1796
        0x0000fb70:    6828        (h      LDR      r0,[r5,#0]
        0x0000fb72:    2400        .$      MOVS     r4,#0
        0x0000fb74:    2800        .(      CMP      r0,#0
        0x0000fb76:    d90d        ..      BLS      0xfb94 ; main_loop + 1860
        0x0000fb78:    eb041004    ....    ADD      r0,r4,r4,LSL #4
        0x0000fb7c:    eb070080    ....    ADD      r0,r7,r0,LSL #2
        0x0000fb80:    4621        !F      MOV      r1,r4
        0x0000fb82:    8f02        ..      LDRH     r2,[r0,#0x38]
        0x0000fb84:    a084        ..      ADR      r0,{pc}+0x214 ; 0xfd98
        0x0000fb86:    f7fefb07    ....    BL       am_sprintf ; 0xe198
        0x0000fb8a:    1c60        `.      ADDS     r0,r4,#1
        0x0000fb8c:    b284        ..      UXTH     r4,r0
        0x0000fb8e:    6828        (h      LDR      r0,[r5,#0]
        0x0000fb90:    42a0        .B      CMP      r0,r4
        0x0000fb92:    d8f1        ..      BHI      0xfb78 ; main_loop + 1832
        0x0000fb94:    2e00        ..      CMP      r6,#0
        0x0000fb96:    bfc8        ..      IT       GT
        0x0000fb98:    a086        ..      ADRGT    r0,{pc}+0x21c ; 0xfdb4
        0x0000fb9a:    d004        ..      BEQ      0xfba6 ; main_loop + 1878
        0x0000fb9c:    dd2a        *.      BLE      0xfbf4 ; main_loop + 1956
        0x0000fb9e:    bf00        ..      NOP      
        0x0000fba0:    f7fefafa    ....    BL       am_sprintf ; 0xe198
        0x0000fba4:    e029        ).      B        0xfbfa ; main_loop + 1962
        0x0000fba6:    4888        .H      LDR      r0,[pc,#544] ; [0xfdc8] = 0x115f8
        0x0000fba8:    f7fefaf6    ....    BL       am_sprintf ; 0xe198
        0x0000fbac:    f1b80f03    ....    CMP      r8,#3
        0x0000fbb0:    d123        #.      BNE      0xfbfa ; main_loop + 1962
        0x0000fbb2:    9813        ..      LDR      r0,[sp,#0x4c]
        0x0000fbb4:    f000fddc    ....    BL       time_in_secs ; 0x10770
        0x0000fbb8:    9809        ..      LDR      r0,[sp,#0x24]
        0x0000fbba:    6829        )h      LDR      r1,[r5,#0]
        0x0000fbbc:    eeb08a40    ..@.    VMOV.F32 s16,s0
        0x0000fbc0:    eef08a60    ..`.    VMOV.F32 s17,s1
        0x0000fbc4:    4348        HC      MULS     r0,r1,r0
        0x0000fbc6:    f001f8de    ....    BL       __aeabi_ui2d ; 0x10d86
        0x0000fbca:    ec532b18    S..+    VMOV     r2,r3,d8
        0x0000fbce:    f000ff55    ..U.    BL       __aeabi_ddiv ; 0x10a7c
        0x0000fbd2:    ec410b10    A...    VMOV     d0,r0,r1
        0x0000fbd6:    a17d        }.      ADR      r1,{pc}+0x1f6 ; 0xfdcc
        0x0000fbd8:    a041        A.      ADR      r0,{pc}+0x108 ; 0xfce0
        0x0000fbda:    e9cd0100    ....    STRD     r0,r1,[sp,#0]
        0x0000fbde:    ec532b10    S..+    VMOV     r2,r3,d0
        0x0000fbe2:    a07d        }.      ADR      r0,{pc}+0x1f6 ; 0xfdd8
        0x0000fbe4:    f7fefad8    ....    BL       am_sprintf ; 0xe198
        0x0000fbe8:    a147        G.      ADR      r1,{pc}+0x120 ; 0xfd08
        0x0000fbea:    a082        ..      ADR      r0,{pc}+0x20a ; 0xfdf4
        0x0000fbec:    f7fefad4    ....    BL       am_sprintf ; 0xe198
        0x0000fbf0:    a034        4.      ADR      r0,{pc}+0xd4 ; 0xfcc4
        0x0000fbf2:    e7d5        ..      B        0xfba0 ; main_loop + 1872
        0x0000fbf4:    4881        .H      LDR      r0,[pc,#516] ; [0xfdfc] = 0x11594
        0x0000fbf6:    f7fefacf    ....    BL       am_sprintf ; 0xe198
        0x0000fbfa:    9813        ..      LDR      r0,[sp,#0x4c]
        0x0000fbfc:    f000fdb8    ....    BL       time_in_secs ; 0x10770
        0x0000fc00:    9809        ..      LDR      r0,[sp,#0x24]
        0x0000fc02:    6829        )h      LDR      r1,[r5,#0]
        0x0000fc04:    eeb08a40    ..@.    VMOV.F32 s16,s0
        0x0000fc08:    eef08a60    ..`.    VMOV.F32 s17,s1
        0x0000fc0c:    4348        HC      MULS     r0,r1,r0
        0x0000fc0e:    f001f8ba    ....    BL       __aeabi_ui2d ; 0x10d86
        0x0000fc12:    ec532b18    S..+    VMOV     r2,r3,d8
        0x0000fc16:    f000ff31    ..1.    BL       __aeabi_ddiv ; 0x10a7c
        0x0000fc1a:    f000fef1    ....    BL       __aeabi_d2f ; 0x10a00
        0x0000fc1e:    ee000a90    ....    VMOV     s1,r0
        0x0000fc22:    4877        wH      LDR      r0,[pc,#476] ; [0xfe00] = 0x10001038
        0x0000fc24:    7800        .x      LDRB     r0,[r0,#0]
        0x0000fc26:    2801        .(      CMP      r0,#1
        0x0000fc28:    bf0c        ..      ITE      EQ
        0x0000fc2a:    ed9f1a76    ..v.    VLDREQ   s2,[pc,#472] ; [0xfe04] = 0x42c00000
        0x0000fc2e:    ed9f1a76    ..v.    VLDRNE   s2,[pc,#472] ; [0xfe08] = 0x42400000
        0x0000fc32:    ee800a81    ....    VDIV.F32 s0,s1,s2
        0x0000fc36:    ee100a10    ....    VMOV     r0,s0
        0x0000fc3a:    f001f97d    ..}.    BL       __aeabi_f2d ; 0x10f38
        0x0000fc3e:    ec410b10    A...    VMOV     d0,r0,r1
        0x0000fc42:    a072        r.      ADR      r0,{pc}+0x1ca ; 0xfe0c
        0x0000fc44:    ec532b10    S..+    VMOV     r2,r3,d0
        0x0000fc48:    f7fefaa6    ....    BL       am_sprintf ; 0xe198
        0x0000fc4c:    f1070042    ..B.    ADD      r0,r7,#0x42
        0x0000fc50:    f000fada    ....    BL       portable_fini ; 0x10208
        0x0000fc54:    f60d0d24    ..$.    ADD      sp,sp,#0x824
        0x0000fc58:    2000        .       MOVS     r0,#0
        0x0000fc5a:    ecbd8b06    ....    VPOP     {d8-d10}
        0x0000fc5e:    e8bd8ff0    ....    POP      {r4-r11,pc}
    $d
        0x0000fc62:    0000        ..      DCW    0
        0x0000fc64:    00000000    ....    DCD    0
        0x0000fc68:    72657449    Iter    DCD    1919251529
        0x0000fc6c:    6f697461    atio    DCD    1869182049
        0x0000fc70:    532f736e    ns/S    DCD    1395618670
        0x0000fc74:    20206365    ec      DCD    538993509
        0x0000fc78:    25203a20     : %    DCD    622869024
        0x0000fc7c:    00000a66    f...    DCD    2662
        0x0000fc80:    00000000    ....    DCD    0
        0x0000fc84:    40240000    ..$@    DCD    1076101120
        0x0000fc88:    4f525245    ERRO    DCD    1330795077
        0x0000fc8c:    4d202152    R! M    DCD    1293951314
        0x0000fc90:    20747375    ust     DCD    544502645
        0x0000fc94:    63657865    exec    DCD    1667594341
        0x0000fc98:    20657475    ute     DCD    543519861
        0x0000fc9c:    20726f66    for     DCD    544370534
        0x0000fca0:    6c207461    at l    DCD    1814066273
        0x0000fca4:    74736165    east    DCD    1953718629
        0x0000fca8:    20303120     10     DCD    540029216
        0x0000fcac:    73636573    secs    DCD    1935893875
        0x0000fcb0:    726f6620     for    DCD    1919903264
        0x0000fcb4:    76206120     a v    DCD    1981833504
        0x0000fcb8:    64696c61    alid    DCD    1684630625
        0x0000fcbc:    73657220     res    DCD    1936028192
        0x0000fcc0:    21746c75    ult!    DCD    561278069
        0x0000fcc4:    0000000a    ....    DCD    10
        0x0000fcc8:    72657449    Iter    DCD    1919251529
        0x0000fccc:    6f697461    atio    DCD    1869182049
        0x0000fcd0:    2020736e    ns      DCD    538997614
        0x0000fcd4:    20202020            DCD    538976288
        0x0000fcd8:    25203a20     : %    DCD    622869024
        0x0000fcdc:    000a756c    lu..    DCD    685420
        0x0000fce0:    434d5241    ARMC    DCD    1129140801
        0x0000fce4:    30352043    C 50    DCD    808788035
        0x0000fce8:    35373036    6075    DCD    892809270
        0x0000fcec:    00000030    0...    DCD    48
        0x0000fcf0:    706d6f43    Comp    DCD    1886220099
        0x0000fcf4:    72656c69    iler    DCD    1919249513
        0x0000fcf8:    72657620     ver    DCD    1919252000
        0x0000fcfc:    6e6f6973    sion    DCD    1852795251
        0x0000fd00:    25203a20     : %    DCD    622869024
        0x0000fd04:    00000a73    s...    DCD    2675
        0x0000fd08:    43415453    STAC    DCD    1128354899
        0x0000fd0c:    0000004b    K...    DCD    75
        0x0000fd10:    6f6d654d    Memo    DCD    1869440333
        0x0000fd14:    6c207972    ry l    DCD    1814067570
        0x0000fd18:    7461636f    ocat    DCD    1952539503
        0x0000fd1c:    206e6f69    ion     DCD    544108393
        0x0000fd20:    25203a20     : %    DCD    622869024
        0x0000fd24:    00000a73    s...    DCD    2675
        0x0000fd28:    64656573    seed    DCD    1684366707
        0x0000fd2c:    20637263    crc     DCD    543388259
        0x0000fd30:    20202020            DCD    538976288
        0x0000fd34:    20202020            DCD    538976288
        0x0000fd38:    30203a20     : 0    DCD    807418400
        0x0000fd3c:    34302578    x%04    DCD    875570552
        0x0000fd40:    00000a78    x...    DCD    2680
        0x0000fd44:    5d64255b    [%d]    DCD    1566844251
        0x0000fd48:    6c637263    crcl    DCD    1818456675
        0x0000fd4c:    20747369    ist     DCD    544502633
        0x0000fd50:    20202020            DCD    538976288
        0x0000fd54:    203a2020      :     DCD    540680224
        0x0000fd58:    30257830    0x%0    DCD    807761968
        0x0000fd5c:    000a7834    4x..    DCD    686132
        0x0000fd60:    5d64255b    [%d]    DCD    1566844251
        0x0000fd64:    6d637263    crcm    DCD    1835233891
        0x0000fd68:    69727461    atri    DCD    1769108577
        0x0000fd6c:    20202078    x       DCD    538976376
        0x0000fd70:    203a2020      :     DCD    540680224
        0x0000fd74:    30257830    0x%0    DCD    807761968
        0x0000fd78:    000a7834    4x..    DCD    686132
        0x0000fd7c:    5d64255b    [%d]    DCD    1566844251
        0x0000fd80:    73637263    crcs    DCD    1935897187
        0x0000fd84:    65746174    tate    DCD    1702125940
        0x0000fd88:    20202020            DCD    538976288
        0x0000fd8c:    203a2020      :     DCD    540680224
        0x0000fd90:    30257830    0x%0    DCD    807761968
        0x0000fd94:    000a7834    4x..    DCD    686132
        0x0000fd98:    5d64255b    [%d]    DCD    1566844251
        0x0000fd9c:    66637263    crcf    DCD    1717793379
        0x0000fda0:    6c616e69    inal    DCD    1818324585
        0x0000fda4:    20202020            DCD    538976288
        0x0000fda8:    203a2020      :     DCD    540680224
        0x0000fdac:    30257830    0x%0    DCD    807761968
        0x0000fdb0:    000a7834    4x..    DCD    686132
        0x0000fdb4:    6f727245    Erro    DCD    1869771333
        0x0000fdb8:    64207372    rs d    DCD    1679848306
        0x0000fdbc:    63657465    etec    DCD    1667593317
        0x0000fdc0:    0a646574    ted.    DCD    174351732
        0x0000fdc4:    00000000    ....    DCD    0
        0x0000fdc8:    000115f8    ....    DCD    71160
        0x0000fdcc:    67616c66    flag    DCD    1734437990
        0x0000fdd0:    2d203a73    s: -    DCD    757086835
        0x0000fdd4:    0000336f    o3..    DCD    13167
        0x0000fdd8:    65726f43    Core    DCD    1701998403
        0x0000fddc:    6b72614d    Mark    DCD    1802658125
        0x0000fde0:    302e3120     1.0    DCD    808333600
        0x0000fde4:    25203a20     : %    DCD    622869024
        0x0000fde8:    202f2066    f /     DCD    539959398
        0x0000fdec:    25207325    %s %    DCD    622883621
        0x0000fdf0:    00000073    s...    DCD    115
        0x0000fdf4:    25202f20     / %    DCD    622866208
        0x0000fdf8:    00000073    s...    DCD    115
        0x0000fdfc:    00011594    ....    DCD    71060
        0x0000fe00:    10001038    8...    DCD    268439608
        0x0000fe04:    42c00000    ...B    DCD    1119879168
        0x0000fe08:    42400000    ..@B    DCD    1111490560
        0x0000fe0c:    4d2f4d43    CM/M    DCD    1294945603
        0x0000fe10:    253d7a48    Hz=%    DCD    624785992
        0x0000fe14:    2e66332e    .3f.    DCD    778449710
        0x0000fe18:    0000000a    ....    DCD    10
    $t
    i.matrix_sum
    matrix_sum
        0x0000fe1c:    e92d01f0    -...    PUSH     {r4-r8}
        0x0000fe20:    2400        .$      MOVS     r4,#0
        0x0000fe22:    46a0        .F      MOV      r8,r4
        0x0000fe24:    46a4        .F      MOV      r12,r4
        0x0000fe26:    2800        .(      CMP      r0,#0
        0x0000fe28:    bf18        ..      IT       NE
        0x0000fe2a:    2500        .%      MOVNE    r5,#0
        0x0000fe2c:    d916        ..      BLS      0xfe5c ; matrix_sum + 64
        0x0000fe2e:    e000        ..      B        0xfe32 ; matrix_sum + 22
        0x0000fe30:    b188        ..      CBZ      r0,0xfe56 ; matrix_sum + 58
        0x0000fe32:    fb05f300    ....    MUL      r3,r5,r0
        0x0000fe36:    eb010683    ....    ADD      r6,r1,r3,LSL #2
        0x0000fe3a:    4607        .F      MOV      r7,r0
        0x0000fe3c:    6833        3h      LDR      r3,[r6,#0]
        0x0000fe3e:    441c        .D      ADD      r4,r4,r3
        0x0000fe40:    4294        .B      CMP      r4,r2
        0x0000fe42:    dd0f        ..      BLE      0xfe64 ; matrix_sum + 72
        0x0000fe44:    f10c0c0a    ....    ADD      r12,r12,#0xa
        0x0000fe48:    fa0ffc8c    ....    SXTH     r12,r12
        0x0000fe4c:    2400        .$      MOVS     r4,#0
        0x0000fe4e:    1d36        6.      ADDS     r6,r6,#4
        0x0000fe50:    4698        .F      MOV      r8,r3
        0x0000fe52:    1e7f        ..      SUBS     r7,r7,#1
        0x0000fe54:    d1f2        ..      BNE      0xfe3c ; matrix_sum + 32
        0x0000fe56:    1c6d        m.      ADDS     r5,r5,#1
        0x0000fe58:    4285        .B      CMP      r5,r0
        0x0000fe5a:    d3e9        ..      BCC      0xfe30 ; matrix_sum + 20
        0x0000fe5c:    e8bd01f0    ....    POP      {r4-r8}
        0x0000fe60:    4660        `F      MOV      r0,r12
        0x0000fe62:    4770        pG      BX       lr
        0x0000fe64:    4543        CE      CMP      r3,r8
        0x0000fe66:    bfcc        ..      ITE      GT
        0x0000fe68:    f04f0801    O...    MOVGT    r8,#1
        0x0000fe6c:    f04f0800    O...    MOVLE    r8,#0
        0x0000fe70:    44c4        .D      ADD      r12,r12,r8
        0x0000fe72:    fa0ffc8c    ....    SXTH     r12,r12
        0x0000fe76:    e7ea        ..      B        0xfe4e ; matrix_sum + 50
    i.matrix_test
    matrix_test
        0x0000fe78:    e92d4fff    -..O    PUSH     {r0-r11,lr}
        0x0000fe7c:    b091        ..      SUB      sp,sp,#0x44
        0x0000fe7e:    2600        .&      MOVS     r6,#0
        0x0000fe80:    981e        ..      LDR      r0,[sp,#0x78]
        0x0000fe82:    9a13        ..      LDR      r2,[sp,#0x4c]
        0x0000fe84:    f4404070    @.p@    ORR      r0,r0,#0xf000
        0x0000fe88:    b200        ..      SXTH     r0,r0
        0x0000fe8a:    900c        ..      STR      r0,[sp,#0x30]
        0x0000fe8c:    9811        ..      LDR      r0,[sp,#0x44]
        0x0000fe8e:    991e        ..      LDR      r1,[sp,#0x78]
        0x0000fe90:    fb00f300    ....    MUL      r3,r0,r0
        0x0000fe94:    930b        ..      STR      r3,[sp,#0x2c]
        0x0000fe96:    2800        .(      CMP      r0,#0
        0x0000fe98:    bf18        ..      IT       NE
        0x0000fe9a:    ea5f0c03    _...    MOVSNE   r12,r3
        0x0000fe9e:    d014        ..      BEQ      0xfeca ; matrix_test + 82
        0x0000fea0:    f0100001    ....    ANDS     r0,r0,#1
        0x0000fea4:    d002        ..      BEQ      0xfeac ; matrix_test + 52
        0x0000fea6:    8813        ..      LDRH     r3,[r2,#0]
        0x0000fea8:    440b        .D      ADD      r3,r3,r1
        0x0000feaa:    8013        ..      STRH     r3,[r2,#0]
        0x0000feac:    4584        .E      CMP      r12,r0
        0x0000feae:    d90c        ..      BLS      0xfeca ; matrix_test + 82
        0x0000feb0:    f8323010    2..0    LDRH     r3,[r2,r0,LSL #1]
        0x0000feb4:    440b        .D      ADD      r3,r3,r1
        0x0000feb6:    f8223010    "..0    STRH     r3,[r2,r0,LSL #1]
        0x0000feba:    eb020340    ..@.    ADD      r3,r2,r0,LSL #1
        0x0000febe:    1c80        ..      ADDS     r0,r0,#2
        0x0000fec0:    885c        \.      LDRH     r4,[r3,#2]
        0x0000fec2:    4584        .E      CMP      r12,r0
        0x0000fec4:    440c        .D      ADD      r4,r4,r1
        0x0000fec6:    805c        \.      STRH     r4,[r3,#2]
        0x0000fec8:    d8f2        ..      BHI      0xfeb0 ; matrix_test + 56
        0x0000feca:    e9dd0911    ....    LDRD     r0,r9,[sp,#0x44]
        0x0000fece:    f8dd804c    ..L.    LDR      r8,[sp,#0x4c]
        0x0000fed2:    9d1e        ..      LDR      r5,[sp,#0x78]
        0x0000fed4:    2800        .(      CMP      r0,#0
        0x0000fed6:    bf18        ..      IT       NE
        0x0000fed8:    2400        .$      MOVNE    r4,#0
        0x0000feda:    bf88        ..      IT       HI
        0x0000fedc:    0847        G.      LSRHI    r7,r0,#1
        0x0000fede:    d926        &.      BLS      0xff2e ; matrix_test + 182
        0x0000fee0:    fb04f100    ....    MUL      r1,r4,r0
        0x0000fee4:    eb080241    ..A.    ADD      r2,r8,r1,LSL #1
        0x0000fee8:    eb090181    ....    ADD      r1,r9,r1,LSL #2
        0x0000feec:    f1a20c02    ....    SUB      r12,r2,#2
        0x0000fef0:    f1a10304    ....    SUB      r3,r1,#4
        0x0000fef4:    f0100f01    ....    TST      r0,#1
        0x0000fef8:    d005        ..      BEQ      0xff06 ; matrix_test + 142
        0x0000fefa:    f93c1f02    <...    LDRSH    r1,[r12,#2]!
        0x0000fefe:    fb01f105    ....    MUL      r1,r1,r5
        0x0000ff02:    f8431f04    C...    STR      r1,[r3,#4]!
        0x0000ff06:    003a        :.      MOVS     r2,r7
        0x0000ff08:    d00b        ..      BEQ      0xff22 ; matrix_test + 170
        0x0000ff0a:    bf00        ..      NOP      
        0x0000ff0c:    f9bc1002    ....    LDRSH    r1,[r12,#2]
        0x0000ff10:    4369        iC      MULS     r1,r5,r1
        0x0000ff12:    6059        Y`      STR      r1,[r3,#4]
        0x0000ff14:    f93c1f04    <...    LDRSH    r1,[r12,#4]!
        0x0000ff18:    4369        iC      MULS     r1,r5,r1
        0x0000ff1a:    f8431f08    C...    STR      r1,[r3,#8]!
        0x0000ff1e:    1e52        R.      SUBS     r2,r2,#1
        0x0000ff20:    d1f4        ..      BNE      0xff0c ; matrix_test + 148
        0x0000ff22:    1c64        d.      ADDS     r4,r4,#1
        0x0000ff24:    4284        .B      CMP      r4,r0
        0x0000ff26:    d202        ..      BCS      0xff2e ; matrix_test + 182
        0x0000ff28:    2800        .(      CMP      r0,#0
        0x0000ff2a:    d1d9        ..      BNE      0xfee0 ; matrix_test + 104
        0x0000ff2c:    e7f9        ..      B        0xff22 ; matrix_test + 170
        0x0000ff2e:    e9dd0111    ....    LDRD     r0,r1,[sp,#0x44]
        0x0000ff32:    9a0c        ..      LDR      r2,[sp,#0x30]
        0x0000ff34:    f7ffff72    ..r.    BL       matrix_sum ; 0xfe1c
        0x0000ff38:    4631        1F      MOV      r1,r6
        0x0000ff3a:    f7fff9f3    ....    BL       crc16 ; 0xf324
        0x0000ff3e:    9001        ..      STR      r0,[sp,#4]
        0x0000ff40:    e9ddc811    ....    LDRD     r12,r8,[sp,#0x44]
        0x0000ff44:    e9ddba13    ....    LDRD     r11,r10,[sp,#0x4c]
        0x0000ff48:    f1bc0f00    ....    CMP      r12,#0
        0x0000ff4c:    bf18        ..      IT       NE
        0x0000ff4e:    2400        .$      MOVNE    r4,#0
        0x0000ff50:    bf84        ..      ITT      HI
        0x0000ff52:    ea4f095c    O.\.    LSRHI    r9,r12,#1
        0x0000ff56:    2700        .'      MOVHI    r7,#0
        0x0000ff58:    d92c        ,.      BLS      0xffb4 ; matrix_test + 316
        0x0000ff5a:    4638        8F      MOV      r0,r7
        0x0000ff5c:    f8487024    H.$p    STR      r7,[r8,r4,LSL #2]
        0x0000ff60:    f1bc0f00    ....    CMP      r12,#0
        0x0000ff64:    d023        #.      BEQ      0xffae ; matrix_test + 310
        0x0000ff66:    fb04f10c    ....    MUL      r1,r4,r12
        0x0000ff6a:    eb0b0141    ..A.    ADD      r1,r11,r1,LSL #1
        0x0000ff6e:    1e8a        ..      SUBS     r2,r1,#2
        0x0000ff70:    f1aa0302    ....    SUB      r3,r10,#2
        0x0000ff74:    f01c0f01    ....    TST      r12,#1
        0x0000ff78:    d005        ..      BEQ      0xff86 ; matrix_test + 270
        0x0000ff7a:    f8321f02    2...    LDRH     r1,[r2,#2]!
        0x0000ff7e:    f8335f02    3.._    LDRH     r5,[r3,#2]!
        0x0000ff82:    fb110005    ....    SMLABB   r0,r1,r5,r0
        0x0000ff86:    2500        .%      MOVS     r5,#0
        0x0000ff88:    ea5f0109    _...    MOVS     r1,r9
        0x0000ff8c:    d00c        ..      BEQ      0xffa8 ; matrix_test + 304
        0x0000ff8e:    8856        V.      LDRH     r6,[r2,#2]
        0x0000ff90:    f8b3e002    ....    LDRH     lr,[r3,#2]
        0x0000ff94:    fb16000e    ....    SMLABB   r0,r6,lr,r0
        0x0000ff98:    f8326f04    2..o    LDRH     r6,[r2,#4]!
        0x0000ff9c:    f833ef04    3...    LDRH     lr,[r3,#4]!
        0x0000ffa0:    fb16550e    ...U    SMLABB   r5,r6,lr,r5
        0x0000ffa4:    1e49        I.      SUBS     r1,r1,#1
        0x0000ffa6:    d1f2        ..      BNE      0xff8e ; matrix_test + 278
        0x0000ffa8:    4428        (D      ADD      r0,r0,r5
        0x0000ffaa:    f8480024    H.$.    STR      r0,[r8,r4,LSL #2]
        0x0000ffae:    1c64        d.      ADDS     r4,r4,#1
        0x0000ffb0:    4564        dE      CMP      r4,r12
        0x0000ffb2:    d3d2        ..      BCC      0xff5a ; matrix_test + 226
        0x0000ffb4:    e9dd0111    ....    LDRD     r0,r1,[sp,#0x44]
        0x0000ffb8:    9a0c        ..      LDR      r2,[sp,#0x30]
        0x0000ffba:    f7ffff2f    ../.    BL       matrix_sum ; 0xfe1c
        0x0000ffbe:    9901        ..      LDR      r1,[sp,#4]
        0x0000ffc0:    f7fff9b0    ....    BL       crc16 ; 0xf324
        0x0000ffc4:    9001        ..      STR      r0,[sp,#4]
        0x0000ffc6:    e9dd0711    ....    LDRD     r0,r7,[sp,#0x44]
        0x0000ffca:    9913        ..      LDR      r1,[sp,#0x4c]
        0x0000ffcc:    9109        ..      STR      r1,[sp,#0x24]
        0x0000ffce:    9914        ..      LDR      r1,[sp,#0x50]
        0x0000ffd0:    910d        ..      STR      r1,[sp,#0x34]
        0x0000ffd2:    2800        .(      CMP      r0,#0
        0x0000ffd4:    bf18        ..      IT       NE
        0x0000ffd6:    2500        .%      MOVNE    r5,#0
        0x0000ffd8:    bf88        ..      IT       HI
        0x0000ffda:    ea4f0850    O.P.    LSRHI    r8,r0,#1
        0x0000ffde:    d93f        ?.      BLS      0x10060 ; matrix_test + 488
        0x0000ffe0:    f04f0600    O...    MOV      r6,#0
        0x0000ffe4:    2800        .(      CMP      r0,#0
        0x0000ffe6:    d935        5.      BLS      0x10054 ; matrix_test + 476
        0x0000ffe8:    9a09        ..      LDR      r2,[sp,#0x24]
        0x0000ffea:    fb05f100    ....    MUL      r1,r5,r0
        0x0000ffee:    eb020a41    ..A.    ADD      r10,r2,r1,LSL #1
        0x0000fff2:    fb056900    ...i    MLA      r9,r5,r0,r6
        0x0000fff6:    2100        .!      MOVS     r1,#0
        0x0000fff8:    f8471029    G.).    STR      r1,[r7,r9,LSL #2]
        0x0000fffc:    b338        8.      CBZ      r0,0x1004e ; matrix_test + 470
        0x0000fffe:    1a33        3.      SUBS     r3,r6,r0
        0x00010000:    9a0d        ..      LDR      r2,[sp,#0x34]
        0x00010002:    f1aa0c02    ....    SUB      r12,r10,#2
        0x00010006:    eb020343    ..C.    ADD      r3,r2,r3,LSL #1
        0x0001000a:    f0100f01    ....    TST      r0,#1
        0x0001000e:    d006        ..      BEQ      0x1001e ; matrix_test + 422
        0x00010010:    eb030340    ..@.    ADD      r3,r3,r0,LSL #1
        0x00010014:    f83c2f02    <../    LDRH     r2,[r12,#2]!
        0x00010018:    881c        ..      LDRH     r4,[r3,#0]
        0x0001001a:    fb121104    ....    SMLABB   r1,r2,r4,r1
        0x0001001e:    2400        .$      MOVS     r4,#0
        0x00010020:    ea5f0208    _...    MOVS     r2,r8
        0x00010024:    d010        ..      BEQ      0x10048 ; matrix_test + 464
        0x00010026:    bf00        ..      NOP      
        0x00010028:    f8bcb002    ....    LDRH     r11,[r12,#2]
        0x0001002c:    f833e010    3...    LDRH     lr,[r3,r0,LSL #1]
        0x00010030:    fb1b110e    ....    SMLABB   r1,r11,lr,r1
        0x00010034:    eb030380    ....    ADD      r3,r3,r0,LSL #2
        0x00010038:    f83cbf04    <...    LDRH     r11,[r12,#4]!
        0x0001003c:    f8b3e000    ....    LDRH     lr,[r3,#0]
        0x00010040:    fb1b440e    ...D    SMLABB   r4,r11,lr,r4
        0x00010044:    1e52        R.      SUBS     r2,r2,#1
        0x00010046:    d1ef        ..      BNE      0x10028 ; matrix_test + 432
        0x00010048:    4421        !D      ADD      r1,r1,r4
        0x0001004a:    f8471029    G.).    STR      r1,[r7,r9,LSL #2]
        0x0001004e:    1c76        v.      ADDS     r6,r6,#1
        0x00010050:    4286        .B      CMP      r6,r0
        0x00010052:    d3ce        ..      BCC      0xfff2 ; matrix_test + 378
        0x00010054:    1c6d        m.      ADDS     r5,r5,#1
        0x00010056:    4285        .B      CMP      r5,r0
        0x00010058:    d202        ..      BCS      0x10060 ; matrix_test + 488
        0x0001005a:    2800        .(      CMP      r0,#0
        0x0001005c:    d0fa        ..      BEQ      0x10054 ; matrix_test + 476
        0x0001005e:    e7bf        ..      B        0xffe0 ; matrix_test + 360
        0x00010060:    e9dd0111    ....    LDRD     r0,r1,[sp,#0x44]
        0x00010064:    9a0c        ..      LDR      r2,[sp,#0x30]
        0x00010066:    f7fffed9    ....    BL       matrix_sum ; 0xfe1c
        0x0001006a:    9901        ..      LDR      r1,[sp,#4]
        0x0001006c:    f7fff95a    ..Z.    BL       crc16 ; 0xf324
        0x00010070:    9001        ..      STR      r0,[sp,#4]
        0x00010072:    e9dd0811    ....    LDRD     r0,r8,[sp,#0x44]
        0x00010076:    9913        ..      LDR      r1,[sp,#0x4c]
        0x00010078:    910a        ..      STR      r1,[sp,#0x28]
        0x0001007a:    f8ddb050    ..P.    LDR      r11,[sp,#0x50]
        0x0001007e:    2800        .(      CMP      r0,#0
        0x00010080:    bf18        ..      IT       NE
        0x00010082:    2600        .&      MOVNE    r6,#0
        0x00010084:    bf88        ..      IT       HI
        0x00010086:    f04f0900    O...    MOVHI    r9,#0
        0x0001008a:    d92d        -.      BLS      0x100e8 ; matrix_test + 624
        0x0001008c:    f04f0400    O...    MOV      r4,#0
        0x00010090:    2800        .(      CMP      r0,#0
        0x00010092:    d923        #.      BLS      0x100dc ; matrix_test + 612
        0x00010094:    9a0a        ..      LDR      r2,[sp,#0x28]
        0x00010096:    fb06f100    ....    MUL      r1,r6,r0
        0x0001009a:    eb020a41    ..A.    ADD      r10,r2,r1,LSL #1
        0x0001009e:    fb064e00    ...N    MLA      lr,r6,r0,r4
        0x000100a2:    4649        IF      MOV      r1,r9
        0x000100a4:    f848902e    H...    STR      r9,[r8,lr,LSL #2]
        0x000100a8:    b1a8        ..      CBZ      r0,0x100d6 ; matrix_test + 606
        0x000100aa:    4652        RF      MOV      r2,r10
        0x000100ac:    eb0b0344    ..D.    ADD      r3,r11,r4,LSL #1
        0x000100b0:    ea4f0500    O...    MOV.W    r5,r0
        0x000100b4:    f832cb02    2...    LDRH     r12,[r2],#2
        0x000100b8:    881f        ..      LDRH     r7,[r3,#0]
        0x000100ba:    fb1cfc07    ....    SMULBB   r12,r12,r7
        0x000100be:    f3cc0783    ....    UBFX     r7,r12,#2,#4
        0x000100c2:    f3cc1c46    ..F.    UBFX     r12,r12,#5,#7
        0x000100c6:    fb17110c    ....    SMLABB   r1,r7,r12,r1
        0x000100ca:    eb030340    ..@.    ADD      r3,r3,r0,LSL #1
        0x000100ce:    1e6d        m.      SUBS     r5,r5,#1
        0x000100d0:    d1f0        ..      BNE      0x100b4 ; matrix_test + 572
        0x000100d2:    f848102e    H...    STR      r1,[r8,lr,LSL #2]
        0x000100d6:    1c64        d.      ADDS     r4,r4,#1
        0x000100d8:    4284        .B      CMP      r4,r0
        0x000100da:    d3e0        ..      BCC      0x1009e ; matrix_test + 550
        0x000100dc:    1c76        v.      ADDS     r6,r6,#1
        0x000100de:    4286        .B      CMP      r6,r0
        0x000100e0:    d202        ..      BCS      0x100e8 ; matrix_test + 624
        0x000100e2:    2800        .(      CMP      r0,#0
        0x000100e4:    d0fa        ..      BEQ      0x100dc ; matrix_test + 612
        0x000100e6:    e7d1        ..      B        0x1008c ; matrix_test + 532
        0x000100e8:    e9dd0111    ....    LDRD     r0,r1,[sp,#0x44]
        0x000100ec:    9a0c        ..      LDR      r2,[sp,#0x30]
        0x000100ee:    f7fffe95    ....    BL       matrix_sum ; 0xfe1c
        0x000100f2:    9901        ..      LDR      r1,[sp,#4]
        0x000100f4:    f7fff916    ....    BL       crc16 ; 0xf324
        0x000100f8:    9a1e        ..      LDR      r2,[sp,#0x78]
        0x000100fa:    9911        ..      LDR      r1,[sp,#0x44]
        0x000100fc:    4252        RB      RSBS     r2,r2,#0
        0x000100fe:    9b13        ..      LDR      r3,[sp,#0x4c]
        0x00010100:    fa0ffc82    ....    SXTH     r12,r2
        0x00010104:    2900        .)      CMP      r1,#0
        0x00010106:    bf1c        ..      ITT      NE
        0x00010108:    9c0b        ..      LDRNE    r4,[sp,#0x2c]
        0x0001010a:    2c00        .,      CMPNE    r4,#0
        0x0001010c:    d015        ..      BEQ      0x1013a ; matrix_test + 706
        0x0001010e:    f0110101    ....    ANDS     r1,r1,#1
        0x00010112:    d002        ..      BEQ      0x1011a ; matrix_test + 674
        0x00010114:    881a        ..      LDRH     r2,[r3,#0]
        0x00010116:    4462        bD      ADD      r2,r2,r12
        0x00010118:    801a        ..      STRH     r2,[r3,#0]
        0x0001011a:    428c        .B      CMP      r4,r1
        0x0001011c:    d90d        ..      BLS      0x1013a ; matrix_test + 706
        0x0001011e:    bf00        ..      NOP      
        0x00010120:    f8332011    3..     LDRH     r2,[r3,r1,LSL #1]
        0x00010124:    4462        bD      ADD      r2,r2,r12
        0x00010126:    f8232011    #..     STRH     r2,[r3,r1,LSL #1]
        0x0001012a:    eb030241    ..A.    ADD      r2,r3,r1,LSL #1
        0x0001012e:    1c89        ..      ADDS     r1,r1,#2
        0x00010130:    8855        U.      LDRH     r5,[r2,#2]
        0x00010132:    428c        .B      CMP      r4,r1
        0x00010134:    4465        eD      ADD      r5,r5,r12
        0x00010136:    8055        U.      STRH     r5,[r2,#2]
        0x00010138:    d8f2        ..      BHI      0x10120 ; matrix_test + 680
        0x0001013a:    b015        ..      ADD      sp,sp,#0x54
        0x0001013c:    b200        ..      SXTH     r0,r0
        0x0001013e:    e8bd8ff0    ....    POP      {r4-r11,pc}
    i.ndigits_in_u64
    ndigits_in_u64
        0x00010142:    e92d01f0    -...    PUSH     {r4-r8}
        0x00010146:    ea500201    P...    ORRS     r2,r0,r1
        0x0001014a:    bf0e        ..      ITEE     EQ
        0x0001014c:    2301        .#      MOVEQ    r3,#1
        0x0001014e:    2300        .#      MOVNE    r3,#0
        0x00010150:    f04f0c00    O...    MOVNE    r12,#0
        0x00010154:    d054        T.      BEQ      0x10200 ; ndigits_in_u64 + 190
        0x00010156:    2900        .)      CMP      r1,#0
        0x00010158:    d03b        ;.      BEQ      0x101d2 ; ndigits_in_u64 + 144
        0x0001015a:    084c        L.      LSRS     r4,r1,#1
        0x0001015c:    ea4f0690    O...    LSR      r6,r0,#2
        0x00010160:    ea4f0230    O.0.    RRX      r2,r0
        0x00010164:    ea467681    F..v    ORR      r6,r6,r1,LSL #30
        0x00010168:    1992        ..      ADDS     r2,r2,r6
        0x0001016a:    eb440491    D...    ADC      r4,r4,r1,LSR #2
        0x0001016e:    ea4f1612    O...    LSR      r6,r2,#4
        0x00010172:    ea467504    F..u    ORR      r5,r6,r4,LSL #28
        0x00010176:    18aa        ..      ADDS     r2,r5,r2
        0x00010178:    eb441414    D...    ADC      r4,r4,r4,LSR #4
        0x0001017c:    ea4f2612    O..&    LSR      r6,r2,#8
        0x00010180:    ea466504    F..e    ORR      r5,r6,r4,LSL #24
        0x00010184:    18aa        ..      ADDS     r2,r5,r2
        0x00010186:    eb442514    D..%    ADC      r5,r4,r4,LSR #8
        0x0001018a:    ea4f4612    O..F    LSR      r6,r2,#16
        0x0001018e:    ea464405    F..D    ORR      r4,r6,r5,LSL #16
        0x00010192:    18a4        ..      ADDS     r4,r4,r2
        0x00010194:    eb454215    E..B    ADC      r2,r5,r5,LSR #16
        0x00010198:    18a4        ..      ADDS     r4,r4,r2
        0x0001019a:    eb42020c    B...    ADC      r2,r2,r12
        0x0001019e:    08e4        ..      LSRS     r4,r4,#3
        0x000101a0:    ea447442    D.Bt    ORR      r4,r4,r2,LSL #29
        0x000101a4:    270a        .'      MOVS     r7,#0xa
        0x000101a6:    fba45807    ...X    UMULL    r5,r8,r4,r7
        0x000101aa:    08d2        ..      LSRS     r2,r2,#3
        0x000101ac:    fb028707    ....    MLA      r7,r2,r7,r8
        0x000101b0:    2600        .&      MOVS     r6,#0
        0x000101b2:    fb047606    ...v    MLA      r6,r4,r6,r7
        0x000101b6:    1b40        @.      SUBS     r0,r0,r5
        0x000101b8:    eb610106    a...    SBC      r1,r1,r6
        0x000101bc:    1d85        ..      ADDS     r5,r0,#6
        0x000101be:    f1410000    A...    ADC      r0,r1,#0
        0x000101c2:    092d        -.      LSRS     r5,r5,#4
        0x000101c4:    ea457100    E..q    ORR      r1,r5,r0,LSL #28
        0x000101c8:    0905        ..      LSRS     r5,r0,#4
        0x000101ca:    1908        ..      ADDS     r0,r1,r4
        0x000101cc:    eb450102    E...    ADC      r1,r5,r2
        0x000101d0:    e012        ..      B        0x101f8 ; ndigits_in_u64 + 182
        0x000101d2:    0841        A.      LSRS     r1,r0,#1
        0x000101d4:    eb010190    ....    ADD      r1,r1,r0,LSR #2
        0x000101d8:    eb011111    ....    ADD      r1,r1,r1,LSR #4
        0x000101dc:    eb012111    ...!    ADD      r1,r1,r1,LSR #8
        0x000101e0:    eb014111    ...A    ADD      r1,r1,r1,LSR #16
        0x000101e4:    08c9        ..      LSRS     r1,r1,#3
        0x000101e6:    424a        JB      RSBS     r2,r1,#0
        0x000101e8:    eb020282    ....    ADD      r2,r2,r2,LSL #2
        0x000101ec:    eb000042    ..B.    ADD      r0,r0,r2,LSL #1
        0x000101f0:    1d80        ..      ADDS     r0,r0,#6
        0x000101f2:    eb011010    ....    ADD      r0,r1,r0,LSR #4
        0x000101f6:    4661        aF      MOV      r1,r12
        0x000101f8:    1c5b        [.      ADDS     r3,r3,#1
        0x000101fa:    ea500201    P...    ORRS     r2,r0,r1
        0x000101fe:    d1aa        ..      BNE      0x10156 ; ndigits_in_u64 + 20
        0x00010200:    e8bd01f0    ....    POP      {r4-r8}
        0x00010204:    4618        .F      MOV      r0,r3
        0x00010206:    4770        pG      BX       lr
    i.portable_fini
    portable_fini
        0x00010208:    e92d41f0    -..A    PUSH     {r4-r8,lr}
        0x0001020c:    2100        .!      MOVS     r1,#0
        0x0001020e:    7001        .p      STRB     r1,[r0,#0]
        0x00010210:    f7fcf8da    ....    BL       am_bsp_uart_printf_enable ; 0xc3c8
        0x00010214:    a02b        +.      ADR      r0,{pc}+0xb0 ; 0x102c4
        0x00010216:    f7fef875    ..u.    BL       am_util_stdio_printf ; 0xe304
        0x0001021a:    4c35        5L      LDR      r4,[pc,#212] ; [0x102f0] = 0x10001108
        0x0001021c:    2500        .%      MOVS     r5,#0
        0x0001021e:    e00c        ..      B        0x1023a ; portable_fini + 50
        0x00010220:    4620         F      MOV      r0,r4
        0x00010222:    f7fef86f    ..o.    BL       am_util_stdio_printf ; 0xe304
        0x00010226:    7820         x      LDRB     r0,[r4,#0]
        0x00010228:    b128        (.      CBZ      r0,0x10236 ; portable_fini + 46
        0x0001022a:    bf00        ..      NOP      
        0x0001022c:    f8140f01    ....    LDRB     r0,[r4,#1]!
        0x00010230:    1c6d        m.      ADDS     r5,r5,#1
        0x00010232:    2800        .(      CMP      r0,#0
        0x00010234:    d1fa        ..      BNE      0x1022c ; portable_fini + 36
        0x00010236:    1c64        d.      ADDS     r4,r4,#1
        0x00010238:    1c6d        m.      ADDS     r5,r5,#1
        0x0001023a:    7820         x      LDRB     r0,[r4,#0]
        0x0001023c:    2800        .(      CMP      r0,#0
        0x0001023e:    bf18        ..      IT       NE
        0x00010240:    f5b56f80    ...o    CMPNE    r5,#0x400
        0x00010244:    dbec        ..      BLT      0x10220 ; portable_fini + 24
        0x00010246:    f7fcf89f    ....    BL       am_bsp_uart_printf_disable ; 0xc388
        0x0001024a:    2105        .!      MOVS     r1,#5
        0x0001024c:    4829        )H      LDR      r0,[pc,#164] ; [0x102f4] = 0x100010ac
        0x0001024e:    f7fcf907    ....    BL       am_devices_led_array_init ; 0xc460
        0x00010252:    2400        .$      MOVS     r4,#0
        0x00010254:    4d28        (M      LDR      r5,[pc,#160] ; [0x102f8] = 0xcccccccd
        0x00010256:    2601        .&      MOVS     r6,#1
        0x00010258:    f05f0710    _...    MOVS.W   r7,#0x10
        0x0001025c:    fba51004    ....    UMULL    r1,r0,r5,r4
        0x00010260:    08c0        ..      LSRS     r0,r0,#3
        0x00010262:    4240        @B      RSBS     r0,r0,#0
        0x00010264:    eb000080    ....    ADD      r0,r0,r0,LSL #2
        0x00010268:    eb040040    ..@.    ADD      r0,r4,r0,LSL #1
        0x0001026c:    2805        .(      CMP      r0,#5
        0x0001026e:    bf32        2.      ITEE     CC
        0x00010270:    fa06f200    ....    LSLCC    r2,r6,r0
        0x00010274:    1f40        @.      SUBCS    r0,r0,#5
        0x00010276:    fa27f200    '...    LSRCS    r2,r7,r0
        0x0001027a:    f04f08c8    O...    MOV      r8,#0xc8
        0x0001027e:    2105        .!      MOVS     r1,#5
        0x00010280:    481c        .H      LDR      r0,[pc,#112] ; [0x102f4] = 0x100010ac
        0x00010282:    f7fcf931    ..1.    BL       am_devices_led_array_out ; 0xc4e8
        0x00010286:    4640        @F      MOV      r0,r8
        0x00010288:    f7fdffd2    ....    BL       am_util_delay_ms ; 0xe230
        0x0001028c:    1c64        d.      ADDS     r4,r4,#1
        0x0001028e:    2c14        .,      CMP      r4,#0x14
        0x00010290:    d3e4        ..      BCC      0x1025c ; portable_fini + 84
        0x00010292:    2400        .$      MOVS     r4,#0
        0x00010294:    221f        ."      MOVS     r2,#0x1f
        0x00010296:    f44f7596    O..u    MOV      r5,#0x12c
        0x0001029a:    2105        .!      MOVS     r1,#5
        0x0001029c:    4815        .H      LDR      r0,[pc,#84] ; [0x102f4] = 0x100010ac
        0x0001029e:    f7fcf923    ..#.    BL       am_devices_led_array_out ; 0xc4e8
        0x000102a2:    4628        (F      MOV      r0,r5
        0x000102a4:    f7fdffc4    ....    BL       am_util_delay_ms ; 0xe230
        0x000102a8:    2200        ."      MOVS     r2,#0
        0x000102aa:    2105        .!      MOVS     r1,#5
        0x000102ac:    4811        .H      LDR      r0,[pc,#68] ; [0x102f4] = 0x100010ac
        0x000102ae:    f7fcf91b    ....    BL       am_devices_led_array_out ; 0xc4e8
        0x000102b2:    4628        (F      MOV      r0,r5
        0x000102b4:    f7fdffbc    ....    BL       am_util_delay_ms ; 0xe230
        0x000102b8:    1c64        d.      ADDS     r4,r4,#1
        0x000102ba:    2c03        .,      CMP      r4,#3
        0x000102bc:    d3ea        ..      BCC      0x10294 ; portable_fini + 140
        0x000102be:    e8bd81f0    ....    POP      {r4-r8,pc}
    $d
        0x000102c2:    0000        ..      DCW    0
        0x000102c4:    0a0a0a0a    ....    DCD    168430090
        0x000102c8:    69626d41    Ambi    DCD    1768058177
        0x000102cc:    694d2071    q Mi    DCD    1766662257
        0x000102d0:    206f7263    cro     DCD    544174691
        0x000102d4:    65726f43    Core    DCD    1701998403
        0x000102d8:    6b72616d    mark    DCD    1802658157
        0x000102dc:    6e757220     run    DCD    1853190688
        0x000102e0:    6e696620     fin    DCD    1852401184
        0x000102e4:    65687369    ishe    DCD    1701344105
        0x000102e8:    0a0a2164    d!..    DCD    168436068
        0x000102ec:    00000000    ....    DCD    0
        0x000102f0:    10001108    ....    DCD    268439816
        0x000102f4:    100010ac    ....    DCD    268439724
        0x000102f8:    cccccccd    ....    DCD    3435973837
    $t
    i.portable_init
    portable_init
        0x000102fc:    b510        ..      PUSH     {r4,lr}
        0x000102fe:    b082        ..      SUB      sp,sp,#8
        0x00010300:    2101        .!      MOVS     r1,#1
        0x00010302:    7001        .p      STRB     r1,[r0,#0]
        0x00010304:    0289        ..      LSLS     r1,r1,#10
        0x00010306:    483b        ;H      LDR      r0,[pc,#236] ; [0x103f4] = 0x10001108
        0x00010308:    f7fbff8e    ....    BL       __aeabi_memclr ; 0xc228
        0x0001030c:    4c3a        :L      LDR      r4,[pc,#232] ; [0x103f8] = 0x10001038
        0x0001030e:    4839        9H      LDR      r0,[pc,#228] ; [0x103f4] = 0x10001108
        0x00010310:    60a0        .`      STR      r0,[r4,#8]
        0x00010312:    2000        .       MOVS     r0,#0
        0x00010314:    6060        ``      STR      r0,[r4,#4]
        0x00010316:    4601        .F      MOV      r1,r0
        0x00010318:    f7fcfcdc    ....    BL       am_hal_clkgen_control ; 0xccd4
        0x0001031c:    4837        7H      LDR      r0,[pc,#220] ; [0x103fc] = 0x11030
        0x0001031e:    6800        .h      LDR      r0,[r0,#0]
        0x00010320:    9000        ..      STR      r0,[sp,#0]
        0x00010322:    4668        hF      MOV      r0,sp
        0x00010324:    f7fcfad0    ....    BL       am_hal_cachectrl_config ; 0xc8c8
        0x00010328:    f7fcfcca    ....    BL       am_hal_cachectrl_enable ; 0xccc0
        0x0001032c:    2100        .!      MOVS     r1,#0
        0x0001032e:    200d        .       MOVS     r0,#0xd
        0x00010330:    f7fcfaf0    ....    BL       am_hal_cachectrl_control ; 0xc914
        0x00010334:    b118        ..      CBZ      r0,0x1033e ; portable_init + 66
        0x00010336:    a032        2.      ADR      r0,{pc}+0xca ; 0x10400
        0x00010338:    f7fdffe4    ....    BL       am_util_stdio_printf ; 0xe304
        0x0001033c:    e7fe        ..      B        0x1033c ; portable_init + 64
        0x0001033e:    f7fdfb09    ....    BL       am_hal_sysctrl_fpu_enable ; 0xd954
        0x00010342:    2001        .       MOVS     r0,#1
        0x00010344:    f7fdfb0e    ....    BL       am_hal_sysctrl_fpu_stacking_enable ; 0xd964
        0x00010348:    f7fbfffc    ....    BL       am_bsp_low_power_init ; 0xc344
        0x0001034c:    f7fcf83c    ..<.    BL       am_bsp_uart_printf_enable ; 0xc3c8
        0x00010350:    7820         x      LDRB     r0,[r4,#0]
        0x00010352:    2801        .(      CMP      r0,#1
        0x00010354:    bf14        ..      ITE      NE
        0x00010356:    a036        6.      ADRNE    r0,{pc}+0xda ; 0x10430
        0x00010358:    a040        @.      ADREQ    r0,{pc}+0x104 ; 0x1045c
        0x0001035a:    f7fdffd3    ....    BL       am_util_stdio_printf ; 0xe304
        0x0001035e:    200e        .       MOVS     r0,#0xe
        0x00010360:    f7fdf92c    ..,.    BL       am_hal_pwrctrl_memory_enable ; 0xd5bc
        0x00010364:    b118        ..      CBZ      r0,0x1036e ; portable_init + 114
        0x00010366:    a048        H.      ADR      r0,{pc}+0x122 ; 0x10488
        0x00010368:    f7fdffcc    ....    BL       am_util_stdio_printf ; 0xe304
        0x0001036c:    e7fe        ..      B        0x1036c ; portable_init + 112
        0x0001036e:    2001        .       MOVS     r0,#1
        0x00010370:    f7fdf924    ..$.    BL       am_hal_pwrctrl_memory_enable ; 0xd5bc
        0x00010374:    b118        ..      CBZ      r0,0x1037e ; portable_init + 130
        0x00010376:    a04f        O.      ADR      r0,{pc}+0x13e ; 0x104b4
        0x00010378:    f7fdffc4    ....    BL       am_util_stdio_printf ; 0xe304
        0x0001037c:    e7fe        ..      B        0x1037c ; portable_init + 128
        0x0001037e:    4855        UH      LDR      r0,[pc,#340] ; [0x104d4] = 0x1128c
        0x00010380:    6801        .h      LDR      r1,[r0,#0]
        0x00010382:    2000        .       MOVS     r0,#0
        0x00010384:    f7fcfd96    ....    BL       am_hal_gpio_pinconfig ; 0xceb4
        0x00010388:    7820         x      LDRB     r0,[r4,#0]
        0x0001038a:    2801        .(      CMP      r0,#1
        0x0001038c:    d114        ..      BNE      0x103b8 ; portable_init + 188
        0x0001038e:    f44f60fa    O..`    MOV      r0,#0x7d0
        0x00010392:    f7fdff4d    ..M.    BL       am_util_delay_ms ; 0xe230
        0x00010396:    a801        ..      ADD      r0,sp,#4
        0x00010398:    f7fcfa20    .. .    BL       am_hal_burst_mode_initialize ; 0xc7dc
        0x0001039c:    2800        .(      CMP      r0,#0
        0x0001039e:    d01a        ..      BEQ      0x103d6 ; portable_init + 218
        0x000103a0:    a04d        M.      ADR      r0,{pc}+0x138 ; 0x104d8
        0x000103a2:    f7fdffaf    ....    BL       am_util_stdio_printf ; 0xe304
        0x000103a6:    4858        XH      LDR      r0,[pc,#352] ; [0x10508] = 0x10001039
        0x000103a8:    f7fcf93a    ..:.    BL       am_hal_burst_mode_enable ; 0xc620
        0x000103ac:    2800        .(      CMP      r0,#0
        0x000103ae:    bf18        ..      IT       NE
        0x000103b0:    a056        V.      ADRNE    r0,{pc}+0x15c ; 0x1050c
        0x000103b2:    d019        ..      BEQ      0x103e8 ; portable_init + 236
        0x000103b4:    f7fdffa6    ....    BL       am_util_stdio_printf ; 0xe304
        0x000103b8:    2101        .!      MOVS     r1,#1
        0x000103ba:    2000        .       MOVS     r0,#0
        0x000103bc:    f7fcfeba    ....    BL       am_hal_gpio_state_write ; 0xd134
        0x000103c0:    20a0        .       MOVS     r0,#0xa0
        0x000103c2:    f7fcfd1f    ....    BL       am_hal_flash_delay ; 0xce04
        0x000103c6:    2100        .!      MOVS     r1,#0
        0x000103c8:    4608        .F      MOV      r0,r1
        0x000103ca:    f7fcfeb3    ....    BL       am_hal_gpio_state_write ; 0xd134
        0x000103ce:    f7fbffdb    ....    BL       am_bsp_uart_printf_disable ; 0xc388
        0x000103d2:    b002        ..      ADD      sp,sp,#8
        0x000103d4:    bd10        ..      POP      {r4,pc}
        0x000103d6:    f89d0004    ....    LDRB     r0,[sp,#4]
        0x000103da:    2800        .(      CMP      r0,#0
        0x000103dc:    bf14        ..      ITE      NE
        0x000103de:    a055        U.      ADRNE    r0,{pc}+0x156 ; 0x10534
        0x000103e0:    a05e        ^.      ADREQ    r0,{pc}+0x17c ; 0x1055c
        0x000103e2:    f7fdff8f    ....    BL       am_util_stdio_printf ; 0xe304
        0x000103e6:    e7de        ..      B        0x103a6 ; portable_init + 170
        0x000103e8:    7860        `x      LDRB     r0,[r4,#1]
        0x000103ea:    2800        .(      CMP      r0,#0
        0x000103ec:    bf08        ..      IT       EQ
        0x000103ee:    a064        d.      ADREQ    r0,{pc}+0x192 ; 0x10580
        0x000103f0:    d1e2        ..      BNE      0x103b8 ; portable_init + 188
        0x000103f2:    e7df        ..      B        0x103b4 ; portable_init + 184
    $d
        0x000103f4:    10001108    ....    DCD    268439816
        0x000103f8:    10001038    8...    DCD    268439608
        0x000103fc:    00011030    0...    DCD    69680
        0x00010400:    6c696146    Fail    DCD    1818845510
        0x00010404:    74206465    ed t    DCD    1948279909
        0x00010408:    6573206f    o se    DCD    1702043759
        0x0001040c:    61632074    t ca    DCD    1633886324
        0x00010410:    20656863    che     DCD    543516771
        0x00010414:    6f746e69    into    DCD    1869901417
        0x00010418:    4d504c20     LPM    DCD    1297108000
        0x0001041c:    45444f4d    MODE    DCD    1162104653
        0x00010420:    4747415f    _AGG    DCD    1195852127
        0x00010424:    53534552    RESS    DCD    1397966162
        0x00010428:    2e455649    IVE.    DCD    776296009
        0x0001042c:    0000000a    ....    DCD    10
        0x00010430:    0a0a0a0a    ....    DCD    168430090
        0x00010434:    69626d41    Ambi    DCD    1768058177
        0x00010438:    694d2071    q Mi    DCD    1766662257
        0x0001043c:    206f7263    cro     DCD    544174691
        0x00010440:    65726f43    Core    DCD    1701998403
        0x00010444:    6b72616d    mark    DCD    1802658157
        0x00010448:    4d383420     48M    DCD    1295528992
        0x0001044c:    74207a48    Hz t    DCD    1948285512
        0x00010450:    2e747365    est.    DCD    779383653
        0x00010454:    0a0a2e2e    ....    DCD    168439342
        0x00010458:    00000000    ....    DCD    0
        0x0001045c:    0a0a0a0a    ....    DCD    168430090
        0x00010460:    69626d41    Ambi    DCD    1768058177
        0x00010464:    694d2071    q Mi    DCD    1766662257
        0x00010468:    206f7263    cro     DCD    544174691
        0x0001046c:    65726f43    Core    DCD    1701998403
        0x00010470:    6b72616d    mark    DCD    1802658157
        0x00010474:    4d363920     96M    DCD    1295399200
        0x00010478:    74207a48    Hz t    DCD    1948285512
        0x0001047c:    2e747365    est.    DCD    779383653
        0x00010480:    0a0a2e2e    ....    DCD    168439342
        0x00010484:    00000000    ....    DCD    0
        0x00010488:    6c696146    Fail    DCD    1818845510
        0x0001048c:    74206465    ed t    DCD    1948279909
        0x00010490:    6572206f    o re    DCD    1701978223
        0x00010494:    666e6f63    conf    DCD    1718513507
        0x00010498:    72756769    igur    DCD    1920296809
        0x0001049c:    6c462065    e Fl    DCD    1816535141
        0x000104a0:    20687361    ash     DCD    543716193
        0x000104a4:    20726f66    for     DCD    544370534
        0x000104a8:    696e696d    mini    DCD    1768843629
        0x000104ac:    2e6d756d    mum.    DCD    778925421
        0x000104b0:    0000000a    ....    DCD    10
        0x000104b4:    6c696146    Fail    DCD    1818845510
        0x000104b8:    74206465    ed t    DCD    1948279909
        0x000104bc:    6572206f    o re    DCD    1701978223
        0x000104c0:    666e6f63    conf    DCD    1718513507
        0x000104c4:    72756769    igur    DCD    1920296809
        0x000104c8:    52532065    e SR    DCD    1381179493
        0x000104cc:    0a2e4d41    AM..    DCD    170806593
        0x000104d0:    00000000    ....    DCD    0
        0x000104d4:    0001128c    ....    DCD    70284
        0x000104d8:    6c696146    Fail    DCD    1818845510
        0x000104dc:    74206465    ed t    DCD    1948279909
        0x000104e0:    6e49206f    o In    DCD    1850286191
        0x000104e4:    61697469    itia    DCD    1634301033
        0x000104e8:    657a696c    lize    DCD    1702521196
        0x000104ec:    726f6620     for    DCD    1919903264
        0x000104f0:    72754220     Bur    DCD    1920287264
        0x000104f4:    4d207473    st M    DCD    1293972595
        0x000104f8:    2065646f    ode     DCD    543515759
        0x000104fc:    7265706f    oper    DCD    1919250543
        0x00010500:    6f697461    atio    DCD    1869182049
        0x00010504:    00000a6e    n...    DCD    2670
        0x00010508:    10001039    9...    DCD    268439609
        0x0001050c:    6c696146    Fail    DCD    1818845510
        0x00010510:    74206465    ed t    DCD    1948279909
        0x00010514:    6e45206f    o En    DCD    1850024047
        0x00010518:    656c6261    able    DCD    1701601889
        0x0001051c:    72754220     Bur    DCD    1920287264
        0x00010520:    4d207473    st M    DCD    1293972595
        0x00010524:    2065646f    ode     DCD    543515759
        0x00010528:    7265706f    oper    DCD    1919250543
        0x0001052c:    6f697461    atio    DCD    1869182049
        0x00010530:    00000a6e    n...    DCD    2670
        0x00010534:    6c6f7041    Apol    DCD    1819242561
        0x00010538:    20336f6c    lo3     DCD    540241772
        0x0001053c:    73727542    Burs    DCD    1936880962
        0x00010540:    6f4d2074    t Mo    DCD    1867325556
        0x00010544:    69206564    de i    DCD    1763730788
        0x00010548:    6f4e2073    s No    DCD    1867391091
        0x0001054c:    76412074    t Av    DCD    1983979636
        0x00010550:    616c6961    aila    DCD    1634494817
        0x00010554:    0a656c62    ble.    DCD    174419042
        0x00010558:    00000000    ....    DCD    0
        0x0001055c:    6c6f7041    Apol    DCD    1819242561
        0x00010560:    20336f6c    lo3     DCD    540241772
        0x00010564:    73727542    Burs    DCD    1936880962
        0x00010568:    6f4d2074    t Mo    DCD    1867325556
        0x0001056c:    69206564    de i    DCD    1763730788
        0x00010570:    76412073    s Av    DCD    1983979635
        0x00010574:    616c6961    aila    DCD    1634494817
        0x00010578:    0a656c62    ble.    DCD    174419042
        0x0001057c:    00000000    ....    DCD    0
        0x00010580:    6c6f7041    Apol    DCD    1819242561
        0x00010584:    20336f6c    lo3     DCD    540241772
        0x00010588:    7265706f    oper    DCD    1919250543
        0x0001058c:    6e697461    atin    DCD    1852404833
        0x00010590:    6e692067    g in    DCD    1852383335
        0x00010594:    72754220     Bur    DCD    1920287264
        0x00010598:    4d207473    st M    DCD    1293972595
        0x0001059c:    2065646f    ode     DCD    543515759
        0x000105a0:    4d363928    (96M    DCD    1295399208
        0x000105a4:    0a297a48    Hz).    DCD    170490440
        0x000105a8:    00000000    ....    DCD    0
    $t
    i.read_nonblocking
    read_nonblocking
        0x000105ac:    e92d4ff0    -..O    PUSH     {r4-r11,lr}
        0x000105b0:    b093        ..      SUB      sp,sp,#0x4c
        0x000105b2:    461f        .F      MOV      r7,r3
        0x000105b4:    4614        .F      MOV      r4,r2
        0x000105b6:    4688        .F      MOV      r8,r1
        0x000105b8:    1e06        ..      SUBS     r6,r0,#0
        0x000105ba:    bf1c        ..      ITT      NE
        0x000105bc:    6801        .h      LDRNE    r1,[r0,#0]
        0x000105be:    f0117f80    ....    TSTNE    r1,#0x1000000
        0x000105c2:    d004        ..      BEQ      0x105ce ; read_nonblocking + 34
        0x000105c4:    4a41        AJ      LDR      r2,[pc,#260] ; [0x106cc] = 0xea9e06
        0x000105c6:    f021417f    !..A    BIC      r1,r1,#0xff000000
        0x000105ca:    4291        .B      CMP      r1,r2
        0x000105cc:    d003        ..      BEQ      0x105d6 ; read_nonblocking + 42
        0x000105ce:    b013        ..      ADD      sp,sp,#0x4c
        0x000105d0:    2002        .       MOVS     r0,#2
        0x000105d2:    e8bd8ff0    ....    POP      {r4-r11,pc}
        0x000105d6:    2f00        ./      CMP      r7,#0
        0x000105d8:    bf1c        ..      ITT      NE
        0x000105da:    2100        .!      MOVNE    r1,#0
        0x000105dc:    6039        9`      STRNE    r1,[r7,#0]
        0x000105de:    2c00        .,      CMP      r4,#0
        0x000105e0:    bf02        ..      ITTT     EQ
        0x000105e2:    2000        .       MOVEQ    r0,#0
        0x000105e4:    b013        ..      ADDEQ    sp,sp,#0x4c
        0x000105e6:    e8bd8ff0    ....    POPEQ    {r4-r11,pc}
        0x000105ea:    f8961044    ..D.    LDRB     r1,[r6,#0x44]
        0x000105ee:    2900        .)      CMP      r1,#0
        0x000105f0:    d045        E.      BEQ      0x1067e ; read_nonblocking + 210
        0x000105f2:    46b1        .F      MOV      r9,r6
        0x000105f4:    f7fbfe04    ....    BL       am_hal_interrupt_master_disable ; 0xc200
        0x000105f8:    900d        ..      STR      r0,[sp,#0x34]
        0x000105fa:    2000        .       MOVS     r0,#0
        0x000105fc:    f8d91024    ..$.    LDR      r1,[r9,#0x24]
        0x00010600:    2320         #      MOVS     r3,#0x20
        0x00010602:    0309        ..      LSLS     r1,r1,#12
        0x00010604:    f1014280    ...B    ADD      r2,r1,#0x40000000
        0x00010608:    f10d0c10    ....    ADD      r12,sp,#0x10
        0x0001060c:    f10d0a38    ..8.    ADD      r10,sp,#0x38
        0x00010610:    4605        .F      MOV      r5,r0
        0x00010612:    f50232e0    ...2    ADD      r2,r2,#0x1c000
        0x00010616:    6991        .i      LDR      r1,[r2,#0x18]
        0x00010618:    f0110f10    ....    TST      r1,#0x10
        0x0001061c:    d10b        ..      BNE      0x10636 ; read_nonblocking + 138
        0x0001061e:    6811        .h      LDR      r1,[r2,#0]
        0x00010620:    f4116f70    ..po    TST      r1,#0xf00
        0x00010624:    d002        ..      BEQ      0x1062c ; read_nonblocking + 128
        0x00010626:    f04f6500    O..e    MOV      r5,#0x8000000
        0x0001062a:    e004        ..      B        0x10636 ; read_nonblocking + 138
        0x0001062c:    f80c1000    ....    STRB     r1,[r12,r0]
        0x00010630:    1c40        @.      ADDS     r0,r0,#1
        0x00010632:    4298        .B      CMP      r0,r3
        0x00010634:    d3ef        ..      BCC      0x10616 ; read_nonblocking + 106
        0x00010636:    f1ba0f00    ....    CMP      r10,#0
        0x0001063a:    bf18        ..      IT       NE
        0x0001063c:    900e        ..      STRNE    r0,[sp,#0x38]
        0x0001063e:    b11d        ..      CBZ      r5,0x10648 ; read_nonblocking + 156
        0x00010640:    980d        ..      LDR      r0,[sp,#0x34]
        0x00010642:    f7fbfde1    ....    BL       am_hal_interrupt_master_set ; 0xc208
        0x00010646:    e03d        =.      B        0x106c4 ; read_nonblocking + 280
        0x00010648:    4661        aF      MOV      r1,r12
        0x0001064a:    f1090048    ..H.    ADD      r0,r9,#0x48
        0x0001064e:    9a0e        ..      LDR      r2,[sp,#0x38]
        0x00010650:    f7fdf922    ..".    BL       am_hal_queue_item_add ; 0xd898
        0x00010654:    b170        p.      CBZ      r0,0x10674 ; read_nonblocking + 200
        0x00010656:    980d        ..      LDR      r0,[sp,#0x34]
        0x00010658:    f7fbfdd6    ....    BL       am_hal_interrupt_master_set ; 0xc208
        0x0001065c:    6d30        0m      LDR      r0,[r6,#0x50]
        0x0001065e:    4284        .B      CMP      r4,r0
        0x00010660:    bf28        (.      IT       CS
        0x00010662:    4604        .F      MOVCS    r4,r0
        0x00010664:    4622        "F      MOV      r2,r4
        0x00010666:    4641        AF      MOV      r1,r8
        0x00010668:    f1060048    ..H.    ADD      r0,r6,#0x48
        0x0001066c:    9401        ..      STR      r4,[sp,#4]
        0x0001066e:    f7fdf93e    ..>.    BL       am_hal_queue_item_get ; 0xd8ee
        0x00010672:    e023        #.      B        0x106bc ; read_nonblocking + 272
        0x00010674:    4d16        .M      LDR      r5,[pc,#88] ; [0x106d0] = 0x8000001
        0x00010676:    980d        ..      LDR      r0,[sp,#0x34]
        0x00010678:    f7fbfdc6    ....    BL       am_hal_interrupt_master_set ; 0xc208
        0x0001067c:    e022        ".      B        0x106c4 ; read_nonblocking + 280
        0x0001067e:    2100        .!      MOVS     r1,#0
        0x00010680:    6a70        pj      LDR      r0,[r6,#0x24]
        0x00010682:    ab01        ..      ADD      r3,sp,#4
        0x00010684:    460d        .F      MOV      r5,r1
        0x00010686:    2c00        .,      CMP      r4,#0
        0x00010688:    bf82        ..      ITTT     HI
        0x0001068a:    0300        ..      LSLHI    r0,r0,#12
        0x0001068c:    f1004280    ...B    ADDHI    r2,r0,#0x40000000
        0x00010690:    f50232e0    ...2    ADDHI    r2,r2,#0x1c000
        0x00010694:    d90f        ..      BLS      0x106b6 ; read_nonblocking + 266
        0x00010696:    6990        .i      LDR      r0,[r2,#0x18]
        0x00010698:    f0100f10    ....    TST      r0,#0x10
        0x0001069c:    d10b        ..      BNE      0x106b6 ; read_nonblocking + 266
        0x0001069e:    6810        .h      LDR      r0,[r2,#0]
        0x000106a0:    f4106f70    ..po    TST      r0,#0xf00
        0x000106a4:    d002        ..      BEQ      0x106ac ; read_nonblocking + 256
        0x000106a6:    f04f6500    O..e    MOV      r5,#0x8000000
        0x000106aa:    e004        ..      B        0x106b6 ; read_nonblocking + 266
        0x000106ac:    f8080001    ....    STRB     r0,[r8,r1]
        0x000106b0:    1c49        I.      ADDS     r1,r1,#1
        0x000106b2:    42a1        .B      CMP      r1,r4
        0x000106b4:    d3ef        ..      BCC      0x10696 ; read_nonblocking + 234
        0x000106b6:    2b00        .+      CMP      r3,#0
        0x000106b8:    bf18        ..      IT       NE
        0x000106ba:    9101        ..      STRNE    r1,[sp,#4]
        0x000106bc:    2f00        ./      CMP      r7,#0
        0x000106be:    bf1c        ..      ITT      NE
        0x000106c0:    9801        ..      LDRNE    r0,[sp,#4]
        0x000106c2:    6038        8`      STRNE    r0,[r7,#0]
        0x000106c4:    4628        (F      MOV      r0,r5
        0x000106c6:    b013        ..      ADD      sp,sp,#0x4c
        0x000106c8:    e8bd8ff0    ....    POP      {r4-r11,pc}
    $d
        0x000106cc:    00ea9e06    ....    DCD    15375878
        0x000106d0:    08000001    ....    DCD    134217729
    $t
    i.start_time
    start_time
        0x000106d4:    b510        ..      PUSH     {r4,lr}
        0x000106d6:    f7fdf97a    ..z.    BL       am_hal_systick_stop ; 0xd9ce
        0x000106da:    f7fdf96c    ..l.    BL       am_hal_systick_reset ; 0xd9b6
        0x000106de:    f06f407f    o..@    MVN      r0,#0xff000000
        0x000106e2:    f7fdf962    ..b.    BL       am_hal_systick_load ; 0xd9aa
        0x000106e6:    f7fdf959    ..Y.    BL       am_hal_systick_int_enable ; 0xd99c
        0x000106ea:    f7fbfd85    ....    BL       am_hal_interrupt_master_enable ; 0xc1f8
        0x000106ee:    f7fdf967    ..g.    BL       am_hal_systick_start ; 0xd9c0
        0x000106f2:    f7fdf94f    ..O.    BL       am_hal_systick_count ; 0xd994
        0x000106f6:    4a0a        .J      LDR      r2,[pc,#40] ; [0x10720] = 0x10001000
        0x000106f8:    f06f417f    o..A    MVN      r1,#0xff000000
        0x000106fc:    1a09        ..      SUBS     r1,r1,r0
        0x000106fe:    6812        .h      LDR      r2,[r2,#0]
        0x00010700:    2000        .       MOVS     r0,#0
        0x00010702:    ea4f6c00    O..l    LSL      r12,r0,#24
        0x00010706:    ea4c2312    L..#    ORR      r3,r12,r2,LSR #8
        0x0001070a:    0612        ..      LSLS     r2,r2,#24
        0x0001070c:    1889        ..      ADDS     r1,r1,r2
        0x0001070e:    4a05        .J      LDR      r2,[pc,#20] ; [0x10724] = 0x10001038
        0x00010710:    4158        XA      ADCS     r0,r0,r3
        0x00010712:    e9c21004    ....    STRD     r1,r0,[r2,#0x10]
        0x00010716:    4904        .I      LDR      r1,[pc,#16] ; [0x10728] = 0x4ffff000
        0x00010718:    2001        .       MOVS     r0,#1
        0x0001071a:    6148        Ha      STR      r0,[r1,#0x14]
        0x0001071c:    bd10        ..      POP      {r4,pc}
    $d
        0x0001071e:    0000        ..      DCW    0
        0x00010720:    10001000    ....    DCD    268439552
        0x00010724:    10001038    8...    DCD    268439608
        0x00010728:    4ffff000    ...O    DCD    1342173184
    $t
    i.stop_time
    stop_time
        0x0001072c:    b510        ..      PUSH     {r4,lr}
        0x0001072e:    f7fdf94e    ..N.    BL       am_hal_systick_stop ; 0xd9ce
        0x00010732:    f7fdf92f    ../.    BL       am_hal_systick_count ; 0xd994
        0x00010736:    4a0a        .J      LDR      r2,[pc,#40] ; [0x10760] = 0x10001000
        0x00010738:    f06f417f    o..A    MVN      r1,#0xff000000
        0x0001073c:    1a09        ..      SUBS     r1,r1,r0
        0x0001073e:    6812        .h      LDR      r2,[r2,#0]
        0x00010740:    2000        .       MOVS     r0,#0
        0x00010742:    ea4f6c00    O..l    LSL      r12,r0,#24
        0x00010746:    ea4c2312    L..#    ORR      r3,r12,r2,LSR #8
        0x0001074a:    0612        ..      LSLS     r2,r2,#24
        0x0001074c:    1889        ..      ADDS     r1,r1,r2
        0x0001074e:    eb400203    @...    ADC      r2,r0,r3
        0x00010752:    4b04        .K      LDR      r3,[pc,#16] ; [0x10764] = 0x10001038
        0x00010754:    e9c31206    ....    STRD     r1,r2,[r3,#0x18]
        0x00010758:    4903        .I      LDR      r1,[pc,#12] ; [0x10768] = 0x4ffff000
        0x0001075a:    6148        Ha      STR      r0,[r1,#0x14]
        0x0001075c:    bd10        ..      POP      {r4,pc}
    $d
        0x0001075e:    0000        ..      DCW    0
        0x00010760:    10001000    ....    DCD    268439552
        0x00010764:    10001038    8...    DCD    268439608
        0x00010768:    4ffff000    ...O    DCD    1342173184
        0x0001076c:    00000000    ....    DCD    0
    $t
    i.time_in_secs
    time_in_secs
        0x00010770:    490f        .I      LDR      r1,[pc,#60] ; [0x107b0] = 0x10001038
        0x00010772:    b510        ..      PUSH     {r4,lr}
        0x00010774:    780c        .x      LDRB     r4,[r1,#0]
        0x00010776:    f000fb06    ....    BL       __aeabi_ui2d ; 0x10d86
        0x0001077a:    ec410b10    A...    VMOV     d0,r0,r1
        0x0001077e:    2c01        .,      CMP      r4,#1
        0x00010780:    d00a        ..      BEQ      0x10798 ; time_in_secs + 40
        0x00010782:    ec510b10    Q...    VMOV     r0,r1,d0
        0x00010786:    ed9f1b0c    ....    VLDR     d1,[pc,#48] ; [0x107b8] = 0
        0x0001078a:    ec532b11    S..+    VMOV     r2,r3,d1
        0x0001078e:    f000f975    ..u.    BL       __aeabi_ddiv ; 0x10a7c
        0x00010792:    ec410b10    A...    VMOV     d0,r0,r1
        0x00010796:    bd10        ..      POP      {r4,pc}
        0x00010798:    ed9f1b09    ....    VLDR     d1,[pc,#36] ; [0x107c0] = 0
        0x0001079c:    ec510b10    Q...    VMOV     r0,r1,d0
        0x000107a0:    ec532b11    S..+    VMOV     r2,r3,d1
        0x000107a4:    f000f96a    ..j.    BL       __aeabi_ddiv ; 0x10a7c
        0x000107a8:    ec410b10    A...    VMOV     d0,r0,r1
        0x000107ac:    bd10        ..      POP      {r4,pc}
    $d
        0x000107ae:    0000        ..      DCW    0
        0x000107b0:    10001038    8...    DCD    268439608
        0x000107b4:    00000000    ....    DCD    0
        0x000107b8:    00000000    ....    DCD    0
        0x000107bc:    4186e360    `..A    DCD    1099359072
        0x000107c0:    00000000    ....    DCD    0
        0x000107c4:    4196e360    `..A    DCD    1100407648
    $t
    i.uint64_to_str
    uint64_to_str
        0x000107c8:    e92d07f0    -...    PUSH     {r4-r10}
        0x000107cc:    b087        ..      SUB      sp,sp,#0x1c
        0x000107ce:    f04f0c00    O...    MOV      r12,#0
        0x000107d2:    4666        fF      MOV      r6,r12
        0x000107d4:    466d        mF      MOV      r5,sp
        0x000107d6:    2900        .)      CMP      r1,#0
        0x000107d8:    d03f        ?.      BEQ      0x1085a ; uint64_to_str + 146
        0x000107da:    084f        O.      LSRS     r7,r1,#1
        0x000107dc:    ea4f0390    O...    LSR      r3,r0,#2
        0x000107e0:    ea4f0430    O.0.    RRX      r4,r0
        0x000107e4:    ea437381    C..s    ORR      r3,r3,r1,LSL #30
        0x000107e8:    18e4        ..      ADDS     r4,r4,r3
        0x000107ea:    eb470391    G...    ADC      r3,r7,r1,LSR #2
        0x000107ee:    ea4f1814    O...    LSR      r8,r4,#4
        0x000107f2:    ea487803    H..x    ORR      r8,r8,r3,LSL #28
        0x000107f6:    eb180404    ....    ADDS     r4,r8,r4
        0x000107fa:    eb431313    C...    ADC      r3,r3,r3,LSR #4
        0x000107fe:    ea4f2814    O..(    LSR      r8,r4,#8
        0x00010802:    ea486803    H..h    ORR      r8,r8,r3,LSL #24
        0x00010806:    eb180404    ....    ADDS     r4,r8,r4
        0x0001080a:    eb432313    C..#    ADC      r3,r3,r3,LSR #8
        0x0001080e:    ea4f4814    O..H    LSR      r8,r4,#16
        0x00010812:    ea484803    H..H    ORR      r8,r8,r3,LSL #16
        0x00010816:    eb180404    ....    ADDS     r4,r8,r4
        0x0001081a:    eb434313    C..C    ADC      r3,r3,r3,LSR #16
        0x0001081e:    18e7        ..      ADDS     r7,r4,r3
        0x00010820:    eb430406    C...    ADC      r4,r3,r6
        0x00010824:    08ff        ..      LSRS     r7,r7,#3
        0x00010826:    ea477344    G.Ds    ORR      r3,r7,r4,LSL #29
        0x0001082a:    270a        .'      MOVS     r7,#0xa
        0x0001082c:    fba39a07    ....    UMULL    r9,r10,r3,r7
        0x00010830:    08e4        ..      LSRS     r4,r4,#3
        0x00010832:    fb04a707    ....    MLA      r7,r4,r7,r10
        0x00010836:    f04f0800    O...    MOV      r8,#0
        0x0001083a:    fb037808    ...x    MLA      r8,r3,r8,r7
        0x0001083e:    ebb00709    ....    SUBS     r7,r0,r9
        0x00010842:    eb610108    a...    SBC      r1,r1,r8
        0x00010846:    1dbf        ..      ADDS     r7,r7,#6
        0x00010848:    f1410100    A...    ADC      r1,r1,#0
        0x0001084c:    093f        ?.      LSRS     r7,r7,#4
        0x0001084e:    ea477701    G..w    ORR      r7,r7,r1,LSL #28
        0x00010852:    18fb        ..      ADDS     r3,r7,r3
        0x00010854:    eb441411    D...    ADC      r4,r4,r1,LSR #4
        0x00010858:    e012        ..      B        0x10880 ; uint64_to_str + 184
        0x0001085a:    0843        C.      LSRS     r3,r0,#1
        0x0001085c:    eb030390    ....    ADD      r3,r3,r0,LSR #2
        0x00010860:    eb031313    ....    ADD      r3,r3,r3,LSR #4
        0x00010864:    eb032313    ...#    ADD      r3,r3,r3,LSR #8
        0x00010868:    eb034313    ...C    ADD      r3,r3,r3,LSR #16
        0x0001086c:    08db        ..      LSRS     r3,r3,#3
        0x0001086e:    425c        \B      RSBS     r4,r3,#0
        0x00010870:    eb040484    ....    ADD      r4,r4,r4,LSL #2
        0x00010874:    eb000144    ..D.    ADD      r1,r0,r4,LSL #1
        0x00010878:    1d89        ..      ADDS     r1,r1,#6
        0x0001087a:    eb031311    ....    ADD      r3,r3,r1,LSR #4
        0x0001087e:    4634        4F      MOV      r4,r6
        0x00010880:    4621        !F      MOV      r1,r4
        0x00010882:    240a        .$      MOVS     r4,#0xa
        0x00010884:    fba34704    ...G    UMULL    r4,r7,r3,r4
        0x00010888:    1b00        ..      SUBS     r0,r0,r4
        0x0001088a:    f1000030    ..0.    ADD      r0,r0,#0x30
        0x0001088e:    f805000c    ....    STRB     r0,[r5,r12]
        0x00010892:    4618        .F      MOV      r0,r3
        0x00010894:    f10c0c01    ....    ADD      r12,r12,#1
        0x00010898:    430b        .C      ORRS     r3,r3,r1
        0x0001089a:    d19c        ..      BNE      0x107d6 ; uint64_to_str + 14
        0x0001089c:    4660        `F      MOV      r0,r12
        0x0001089e:    2a00        .*      CMP      r2,#0
        0x000108a0:    bf02        ..      ITTT     EQ
        0x000108a2:    b007        ..      ADDEQ    sp,sp,#0x1c
        0x000108a4:    e8bd07f0    ....    POPEQ    {r4-r10}
        0x000108a8:    4770        pG      BXEQ     lr
        0x000108aa:    1e47        G.      SUBS     r7,r0,#1
        0x000108ac:    f1b00c00    ....    SUBS     r12,r0,#0
        0x000108b0:    dd18        ..      BLE      0x108e4 ; uint64_to_str + 284
        0x000108b2:    19e9        ..      ADDS     r1,r5,r7
        0x000108b4:    1c4b        K.      ADDS     r3,r1,#1
        0x000108b6:    1e51        Q.      SUBS     r1,r2,#1
        0x000108b8:    f0170f01    ....    TST      r7,#1
        0x000108bc:    d103        ..      BNE      0x108c6 ; uint64_to_str + 254
        0x000108be:    f8134d01    ...M    LDRB     r4,[r3,#-1]!
        0x000108c2:    f8014f01    ...O    STRB     r4,[r1,#1]!
        0x000108c6:    ea5f046c    _.l.    ASRS     r4,r12,#1
        0x000108ca:    d009        ..      BEQ      0x108e0 ; uint64_to_str + 280
        0x000108cc:    f813cc01    ....    LDRB     r12,[r3,#-1]
        0x000108d0:    f881c001    ....    STRB     r12,[r1,#1]
        0x000108d4:    f813cd02    ....    LDRB     r12,[r3,#-2]!
        0x000108d8:    f801cf02    ....    STRB     r12,[r1,#2]!
        0x000108dc:    1e64        d.      SUBS     r4,r4,#1
        0x000108de:    d1f5        ..      BNE      0x108cc ; uint64_to_str + 260
        0x000108e0:    19d1        ..      ADDS     r1,r2,r7
        0x000108e2:    1c4a        J.      ADDS     r2,r1,#1
        0x000108e4:    7016        .p      STRB     r6,[r2,#0]
        0x000108e6:    b007        ..      ADD      sp,sp,#0x1c
        0x000108e8:    e8bd07f0    ....    POP      {r4-r10}
        0x000108ec:    4770        pG      BX       lr
        0x000108ee:    0000        ..      MOVS     r0,r0
    i.write_nonblocking
    write_nonblocking
        0x000108f0:    b570        p.      PUSH     {r4-r6,lr}
        0x000108f2:    b088        ..      SUB      sp,sp,#0x20
        0x000108f4:    461d        .F      MOV      r5,r3
        0x000108f6:    0004        ..      MOVS     r4,r0
        0x000108f8:    bf1c        ..      ITT      NE
        0x000108fa:    6820         h      LDRNE    r0,[r4,#0]
        0x000108fc:    f0107f80    ....    TSTNE    r0,#0x1000000
        0x00010900:    d004        ..      BEQ      0x1090c ; write_nonblocking + 28
        0x00010902:    4b3e        >K      LDR      r3,[pc,#248] ; [0x109fc] = 0xea9e06
        0x00010904:    f020407f     ..@    BIC      r0,r0,#0xff000000
        0x00010908:    4298        .B      CMP      r0,r3
        0x0001090a:    d002        ..      BEQ      0x10912 ; write_nonblocking + 34
        0x0001090c:    b008        ..      ADD      sp,sp,#0x20
        0x0001090e:    2002        .       MOVS     r0,#2
        0x00010910:    bd70        p.      POP      {r4-r6,pc}
        0x00010912:    2000        .       MOVS     r0,#0
        0x00010914:    2d00        .-      CMP      r5,#0
        0x00010916:    bf18        ..      IT       NE
        0x00010918:    6028        (`      STRNE    r0,[r5,#0]
        0x0001091a:    2a00        .*      CMP      r2,#0
        0x0001091c:    d05a        Z.      BEQ      0x109d4 ; write_nonblocking + 228
        0x0001091e:    f8940028    ..(.    LDRB     r0,[r4,#0x28]
        0x00010922:    2800        .(      CMP      r0,#0
        0x00010924:    d033        3.      BEQ      0x1098e ; write_nonblocking + 158
        0x00010926:    6ba3        .k      LDR      r3,[r4,#0x38]
        0x00010928:    6b60        `k      LDR      r0,[r4,#0x34]
        0x0001092a:    1a18        ..      SUBS     r0,r3,r0
        0x0001092c:    4282        .B      CMP      r2,r0
        0x0001092e:    bf28        (.      IT       CS
        0x00010930:    4602        .F      MOVCS    r2,r0
        0x00010932:    f104002c    ..,.    ADD      r0,r4,#0x2c
        0x00010936:    9202        ..      STR      r2,[sp,#8]
        0x00010938:    f7fcffae    ....    BL       am_hal_queue_item_add ; 0xd898
        0x0001093c:    6a66        fj      LDR      r6,[r4,#0x24]
        0x0001093e:    f7fbfc5f    .._.    BL       am_hal_interrupt_master_disable ; 0xc200
        0x00010942:    9004        ..      STR      r0,[sp,#0x10]
        0x00010944:    0330        0.      LSLS     r0,r6,#12
        0x00010946:    f1004680    ...F    ADD      r6,r0,#0x40000000
        0x0001094a:    f50636e0    ...6    ADD      r6,r6,#0x1c000
        0x0001094e:    69b0        .i      LDR      r0,[r6,#0x18]
        0x00010950:    f0100f20    .. .    TST      r0,#0x20
        0x00010954:    d117        ..      BNE      0x10986 ; write_nonblocking + 150
        0x00010956:    2201        ."      MOVS     r2,#1
        0x00010958:    4669        iF      MOV      r1,sp
        0x0001095a:    f104002c    ..,.    ADD      r0,r4,#0x2c
        0x0001095e:    f7fcffc6    ....    BL       am_hal_queue_item_get ; 0xd8ee
        0x00010962:    b180        ..      CBZ      r0,0x10986 ; write_nonblocking + 150
        0x00010964:    6a60        `j      LDR      r0,[r4,#0x24]
        0x00010966:    0300        ..      LSLS     r0,r0,#12
        0x00010968:    f1004080    ...@    ADD      r0,r0,#0x40000000
        0x0001096c:    f50030e0    ...0    ADD      r0,r0,#0x1c000
        0x00010970:    6981        .i      LDR      r1,[r0,#0x18]
        0x00010972:    f0110f20    .. .    TST      r1,#0x20
        0x00010976:    bf04        ..      ITT      EQ
        0x00010978:    f89d1000    ....    LDRBEQ   r1,[sp,#0]
        0x0001097c:    6001        .`      STREQ    r1,[r0,#0]
        0x0001097e:    69b0        .i      LDR      r0,[r6,#0x18]
        0x00010980:    f0100f20    .. .    TST      r0,#0x20
        0x00010984:    d0e7        ..      BEQ      0x10956 ; write_nonblocking + 102
        0x00010986:    9804        ..      LDR      r0,[sp,#0x10]
        0x00010988:    f7fbfc3e    ..>.    BL       am_hal_interrupt_master_set ; 0xc208
        0x0001098c:    e01e        ..      B        0x109cc ; write_nonblocking + 220
        0x0001098e:    6a63        cj      LDR      r3,[r4,#0x24]
        0x00010990:    ae02        ..      ADD      r6,sp,#8
        0x00010992:    f04f0c00    O...    MOV      r12,#0
        0x00010996:    f1b24f00    ...O    CMP      r2,#0x80000000
        0x0001099a:    d21e        ..      BCS      0x109da ; write_nonblocking + 234
        0x0001099c:    2001        .       MOVS     r0,#1
        0x0001099e:    2a01        .*      CMP      r2,#1
        0x000109a0:    db10        ..      BLT      0x109c4 ; write_nonblocking + 212
        0x000109a2:    031b        ..      LSLS     r3,r3,#12
        0x000109a4:    f1034380    ...C    ADD      r3,r3,#0x40000000
        0x000109a8:    f50333e0    ...3    ADD      r3,r3,#0x1c000
        0x000109ac:    699c        .i      LDR      r4,[r3,#0x18]
        0x000109ae:    f0140f20    .. .    TST      r4,#0x20
        0x000109b2:    d107        ..      BNE      0x109c4 ; write_nonblocking + 212
        0x000109b4:    f811400c    ...@    LDRB     r4,[r1,r12]
        0x000109b8:    601c        .`      STR      r4,[r3,#0]
        0x000109ba:    1c40        @.      ADDS     r0,r0,#1
        0x000109bc:    f10c0c01    ....    ADD      r12,r12,#1
        0x000109c0:    4290        .B      CMP      r0,r2
        0x000109c2:    ddf3        ..      BLE      0x109ac ; write_nonblocking + 188
        0x000109c4:    2e00        ..      CMP      r6,#0
        0x000109c6:    bf18        ..      IT       NE
        0x000109c8:    f8cdc008    ....    STRNE    r12,[sp,#8]
        0x000109cc:    2d00        .-      CMP      r5,#0
        0x000109ce:    bf1c        ..      ITT      NE
        0x000109d0:    9802        ..      LDRNE    r0,[sp,#8]
        0x000109d2:    6028        (`      STRNE    r0,[r5,#0]
        0x000109d4:    2000        .       MOVS     r0,#0
        0x000109d6:    b008        ..      ADD      sp,sp,#0x20
        0x000109d8:    bd70        p.      POP      {r4-r6,pc}
        0x000109da:    0318        ..      LSLS     r0,r3,#12
        0x000109dc:    f1004080    ...@    ADD      r0,r0,#0x40000000
        0x000109e0:    f50030e0    ...0    ADD      r0,r0,#0x1c000
        0x000109e4:    6983        .i      LDR      r3,[r0,#0x18]
        0x000109e6:    f0130f20    .. .    TST      r3,#0x20
        0x000109ea:    d1eb        ..      BNE      0x109c4 ; write_nonblocking + 212
        0x000109ec:    f811300c    ...0    LDRB     r3,[r1,r12]
        0x000109f0:    6003        .`      STR      r3,[r0,#0]
        0x000109f2:    f10c0c01    ....    ADD      r12,r12,#1
        0x000109f6:    4594        .E      CMP      r12,r2
        0x000109f8:    d3f4        ..      BCC      0x109e4 ; write_nonblocking + 244
        0x000109fa:    e7e3        ..      B        0x109c4 ; write_nonblocking + 212
    $d
        0x000109fc:    00ea9e06    ....    DCD    15375878
    $t
    x$fpl$d2f
    $v0
    __aeabi_d2f
    _d2f
        0x00010a00:    f0214200    !..B    BIC      r2,r1,#0x80000000
        0x00010a04:    f1a25260    ..`R    SUB      r2,r2,#0x38000000
        0x00010a08:    f5b21f80    ....    CMP      r2,#0x100000
        0x00010a0c:    f0014300    ...C    AND      r3,r1,#0x80000000
        0x00010a10:    bf28        (.      IT       CS
        0x00010a12:    f1d26c7f    ...l    RSBSCS   r12,r2,#0xff00000
        0x00010a16:    d90b        ..      BLS      0x10a30 ; __aeabi_d2f + 48
        0x00010a18:    ea5f1c00    _...    LSLS     r12,r0,#4
        0x00010a1c:    ea4302c2    C...    ORR      r2,r3,r2,LSL #3
        0x00010a20:    eb427050    B.Pp    ADC      r0,r2,r0,LSR #29
        0x00010a24:    bf18        ..      IT       NE
        0x00010a26:    4770        pG      BXNE     lr
        0x00010a28:    bf28        (.      IT       CS
        0x00010a2a:    f0200001     ...    BICCS    r0,r0,#1
        0x00010a2e:    4770        pG      BX       lr
        0x00010a30:    f5b21f80    ....    CMP      r2,#0x100000
        0x00010a34:    bfbc        ..      ITT      LT
        0x00010a36:    4618        .F      MOVLT    r0,r3
        0x00010a38:    4770        pG      BXLT     lr
        0x00010a3a:    ea4f0c41    O.A.    LSL      r12,r1,#1
        0x00010a3e:    f51c1f00    ....    CMN      r12,#0x200000
        0x00010a42:    d202        ..      BCS      0x10a4a ; __aeabi_d2f + 74
        0x00010a44:    4608        .F      MOV      r0,r1
        0x00010a46:    f000baed    ....    B.W      __fpl_fretinf ; 0x11024
        0x00010a4a:    b570        p.      PUSH     {r4-r6,lr}
        0x00010a4c:    f000f9ea    ....    BL       __fpl_dnaninf ; 0x10e24
    $d
        0x00010a50:    89000000    ....    DCD    2298478592
    $t
        0x00010a54:    f7ffbff6    ....    B.W      0x10a44 ; __aeabi_d2f + 68
        0x00010a58:    f04f4000    O..@    MOV      r0,#0x80000000
        0x00010a5c:    f5a00080    ....    SUB      r0,r0,#0x400000
        0x00010a60:    4770        pG      BX       lr
    x$fpl$dcmpinf
    $v0
    __fpl_dcmp_Inf
        0x00010a62:    1049        I.      ASRS     r1,r1,#1
        0x00010a64:    bf58        X.      IT       PL
        0x00010a66:    f1c14140    ..@A    RSBPL    r1,r1,#0xc0000000
        0x00010a6a:    105b        [.      ASRS     r3,r3,#1
        0x00010a6c:    bf58        X.      IT       PL
        0x00010a6e:    f1c34340    ..@C    RSBPL    r3,r3,#0xc0000000
        0x00010a72:    428b        .B      CMP      r3,r1
        0x00010a74:    f3ef8000    ....    MRS      r0,APSR ; formerly CPSR
        0x00010a78:    4770        pG      BX       lr
        0x00010a7a:    0000        ..      MOVS     r0,r0
    x$fpl$ddiv
    $v0
    __aeabi_ddiv
    _ddiv
        0x00010a7c:    e92d41c0    -..A    PUSH     {r6-r8,lr}
        0x00010a80:    b430        0.      PUSH     {r4,r5}
    ddiv_entry
        0x00010a82:    f8dfc2a0    ....    LDR      r12,[pc,#672] ; [0x10d24] = 0x7ff0000
        0x00010a86:    ea3c1411    <...    BICS     r4,r12,r1,LSR #4
        0x00010a8a:    bf18        ..      IT       NE
        0x00010a8c:    ea3c1413    <...    BICSNE   r4,r12,r3,LSR #4
        0x00010a90:    f00080ec    ....    BEQ.W    0x10c6c ; ddiv_entry + 490
        0x00010a94:    ea810503    ....    EOR      r5,r1,r3
        0x00010a98:    ea1c1411    ....    ANDS     r4,r12,r1,LSR #4
        0x00010a9c:    ea4474d5    D..t    ORR      r4,r4,r5,LSR #31
        0x00010aa0:    bf18        ..      IT       NE
        0x00010aa2:    ea1c1513    ....    ANDSNE   r5,r12,r3,LSR #4
        0x00010aa6:    f00080c7    ....    BEQ.W    0x10c38 ; ddiv_entry + 438
        0x00010aaa:    eba40405    ....    SUB      r4,r4,r5
        0x00010aae:    f04f4500    O..E    MOV      r5,#0x80000000
        0x00010ab2:    ea4521c1    E..!    ORR      r1,r5,r1,LSL #11
        0x00010ab6:    ea4523c3    E..#    ORR      r3,r5,r3,LSL #11
        0x00010aba:    ea415150    A.PQ    ORR      r1,r1,r0,LSR #21
        0x00010abe:    ea435352    C.RS    ORR      r3,r3,r2,LSR #21
        0x00010ac2:    f104747f    ...t    ADD      r4,r4,#0x3fc0000
        0x00010ac6:    4299        .B      CMP      r1,r3
        0x00010ac8:    f5043400    ...4    ADD      r4,r4,#0x20000
        0x00010acc:    ea4f20c0    O..     LSL      r0,r0,#11
        0x00010ad0:    ea4f22c2    O.."    LSL      r2,r2,#11
        0x00010ad4:    bf08        ..      IT       EQ
        0x00010ad6:    4290        .B      CMPEQ    r0,r2
        0x00010ad8:    f000809c    ....    BEQ.W    0x10c14 ; ddiv_entry + 402
        0x00010adc:    ea4f6513    O..e    LSR      r5,r3,#24
        0x00010ae0:    f20f1640    ..@.    ADR.W    r6,{pc}+0x144 ; 0x10c24
        0x00010ae4:    5d76        v]      LDRB     r6,[r6,r5]
        0x00010ae6:    ea4f4513    O..E    LSR      r5,r3,#16
        0x00010aea:    fb06f705    ....    MUL      r7,r6,r5
        0x00010aee:    f1c77780    ...w    RSB      r7,r7,#0x1000000
        0x00010af2:    fb06f707    ....    MUL      r7,r6,r7
        0x00010af6:    ea4f37d7    O..7    LSR      r7,r7,#15
        0x00010afa:    fba76803    ...h    UMULL    r6,r8,r7,r3
        0x00010afe:    4276        vB      RSBS     r6,r6,#0
        0x00010b00:    f5c83880    ...8    RSB      r8,r8,#0x10000
        0x00010b04:    fba7ce06    ....    UMULL    r12,lr,r7,r6
        0x00010b08:    bf38        8.      IT       CC
        0x00010b0a:    f1a80801    ....    SUBCC    r8,r8,#1
        0x00010b0e:    fb07e608    ....    MLA      r6,r7,r8,lr
        0x00010b12:    f04f0e00    O...    MOV      lr,#0
        0x00010b16:    fba68c02    ....    UMULL    r8,r12,r6,r2
        0x00010b1a:    fbe6ce03    ....    UMLAL    r12,lr,r6,r3
        0x00010b1e:    f1dc0c00    ....    RSBS     r12,r12,#0
        0x00010b22:    f1ce4e00    ...N    RSB      lr,lr,#0x80000000
        0x00010b26:    bf38        8.      IT       CC
        0x00010b28:    f1ae0e01    ....    SUBCC    lr,lr,#1
        0x00010b2c:    fba6580c    ...X    UMULL    r5,r8,r6,r12
        0x00010b30:    f04f0700    O...    MOV      r7,#0
        0x00010b34:    f04f0500    O...    MOV      r5,#0
        0x00010b38:    fbe6870e    ....    UMLAL    r8,r7,r6,lr
        0x00010b3c:    fba1c608    ....    UMULL    r12,r6,r1,r8
        0x00010b40:    fba0ce07    ....    UMULL    r12,lr,r0,r7
        0x00010b44:    eb16060e    ....    ADDS     r6,r6,lr
        0x00010b48:    f1450500    E...    ADC      r5,r5,#0
        0x00010b4c:    fbe16507    ...e    UMLAL    r6,r5,r1,r7
        0x00010b50:    f1154ee0    ...N    ADDS     lr,r5,#0x70000000
        0x00010b54:    bf7e        ~.      ITTT     VC
        0x00010b56:    f5a43480    ...4    SUBVC    r4,r4,#0x10000
        0x00010b5a:    ea5f0646    _.F.    LSLSVC   r6,r6,#1
        0x00010b5e:    416d        mA      ADCVC    r5,r5,r5
        0x00010b60:    f1160780    ....    ADDS     r7,r6,#0x80
        0x00010b64:    f1450500    E...    ADC      r5,r5,#0
        0x00010b68:    ea4f2717    O..'    LSR      r7,r7,#8
        0x00010b6c:    ea4f6606    O..f    LSL      r6,r6,#24
        0x00010b70:    ea476705    G..g    ORR      r7,r7,r5,LSL #24
        0x00010b74:    f1a646de    ...F    SUB      r6,r6,#0x6f000000
        0x00010b78:    f1b65f80    ..._    CMP      r6,#0x10000000
        0x00010b7c:    ea4f2515    O..%    LSR      r5,r5,#8
        0x00010b80:    d91f        ..      BLS      0x10bc2 ; ddiv_entry + 320
        0x00010b82:    4638        8F      MOV      r0,r7
        0x00010b84:    f0240c01    $...    BIC      r12,r4,#1
        0x00010b88:    eb0571c4    ...q    ADD      r1,r5,r4,LSL #31
        0x00010b8c:    f1bc6ffe    ...o    CMP      r12,#0x7f00000
        0x00010b90:    eb01110c    ....    ADD      r1,r1,r12,LSL #4
        0x00010b94:    d802        ..      BHI      0x10b9c ; ddiv_entry + 282
        0x00010b96:    bcf0        ..      POP      {r4-r7}
        0x00010b98:    e8bd8100    ....    POP      {r8,pc}
        0x00010b9c:    4224        $B      TST      r4,r4
        0x00010b9e:    bf5c        \.      ITT      PL
        0x00010ba0:    f5011e80    ....    ADDPL    lr,r1,#0x100000
        0x00010ba4:    ea9e7fc4    ....    TEQPL    lr,r4,LSL #31
        0x00010ba8:    d402        ..      BMI      0x10bb0 ; ddiv_entry + 302
        0x00010baa:    bcf0        ..      POP      {r4-r7}
        0x00010bac:    e8bd8100    ....    POP      {r8,pc}
        0x00010bb0:    4224        $B      TST      r4,r4
        0x00010bb2:    d438        8.      BMI      0x10c26 ; ddiv_entry + 420
        0x00010bb4:    bcf0        ..      POP      {r4-r7}
        0x00010bb6:    f1a141c0    ...A    SUB      r1,r1,#0x60000000
        0x00010bba:    e8bd4100    ...A    POP      {r8,lr}
        0x00010bbe:    f000b97f    ....    B.W      __fpl_dretinf ; 0x10ec0
        0x00010bc2:    ea4f22d2    O.."    LSR      r2,r2,#11
        0x00010bc6:    ea425243    B.CR    ORR      r2,r2,r3,LSL #21
        0x00010bca:    ea4f23d3    O..#    LSR      r3,r3,#11
        0x00010bce:    fba78602    ....    UMULL    r8,r6,r7,r2
        0x00010bd2:    ea4f20d0    O..     LSR      r0,r0,#11
        0x00010bd6:    ea405041    @.AP    ORR      r0,r0,r1,LSL #21
        0x00010bda:    fb076603    ...f    MLA      r6,r7,r3,r6
        0x00010bde:    ea1e0f0e    ....    TST      lr,lr
        0x00010be2:    ea4f21d1    O..!    LSR      r1,r1,#11
        0x00010be6:    fb056602    ...f    MLA      r6,r5,r2,r6
        0x00010bea:    bf58        X.      IT       PL
        0x00010bec:    eba65600    ...V    SUBPL    r6,r6,r0,LSL #20
        0x00010bf0:    ebb65600    ...V    SUBS     r6,r6,r0,LSL #20
        0x00010bf4:    ea4f0e52    O.R.    LSR      lr,r2,#1
        0x00010bf8:    ea4e7ec3    N..~    ORR      lr,lr,r3,LSL #31
        0x00010bfc:    eb180e0e    ....    ADDS     lr,r8,lr
        0x00010c00:    eb560e53    V.S.    ADCS     lr,r6,r3,LSR #1
        0x00010c04:    d5bd        ..      BPL      0x10b82 ; ddiv_entry + 256
        0x00010c06:    eb180802    ....    ADDS     r8,r8,r2
        0x00010c0a:    415e        ^A      ADCS     r6,r6,r3
        0x00010c0c:    1c7f        ..      ADDS     r7,r7,#1
        0x00010c0e:    f1550500    U...    ADCS     r5,r5,#0
        0x00010c12:    e7b6        ..      B        0x10b82 ; ddiv_entry + 256
        0x00010c14:    f44f1580    O...    MOV      r5,#0x100000
        0x00010c18:    f04f0700    O...    MOV      r7,#0
        0x00010c1c:    f04f0600    O...    MOV      r6,#0
        0x00010c20:    f04f0800    O...    MOV      r8,#0
        0x00010c24:    e7ad        ..      B        0x10b82 ; ddiv_entry + 256
        0x00010c26:    bcf0        ..      POP      {r4-r7}
        0x00010c28:    f04f0000    O...    MOV      r0,#0
        0x00010c2c:    f10141c0    ...A    ADD      r1,r1,#0x60000000
        0x00010c30:    f0014100    ...A    AND      r1,r1,#0x80000000
        0x00010c34:    e8bd8100    ....    POP      {r8,pc}
        0x00010c38:    ea111f0c    ....    TST      r1,r12,LSL #4
        0x00010c3c:    ea0c1513    ....    AND      r5,r12,r3,LSR #4
        0x00010c40:    d000        ..      BEQ      0x10c44 ; ddiv_entry + 450
        0x00010c42:    e00c        ..      B        0x10c5e ; ddiv_entry + 476
        0x00010c44:    ea131f0c    ....    TST      r3,r12,LSL #4
        0x00010c48:    f0008025    ..%.    BEQ.W    0x10c96 ; ddiv_entry + 532
        0x00010c4c:    f04f0000    O...    MOV      r0,#0
        0x00010c50:    bcf0        ..      POP      {r4-r7}
        0x00010c52:    ea810103    ....    EOR      r1,r1,r3
        0x00010c56:    f0014100    ...A    AND      r1,r1,#0x80000000
        0x00010c5a:    e8bd8100    ....    POP      {r8,pc}
        0x00010c5e:    bcf0        ..      POP      {r4-r7}
        0x00010c60:    e8bd4100    ...A    POP      {r8,lr}
        0x00010c64:    ea810103    ....    EOR      r1,r1,r3
        0x00010c68:    f000b92a    ..*.    B.W      __fpl_dretinf ; 0x10ec0
        0x00010c6c:    bcf0        ..      POP      {r4-r7}
        0x00010c6e:    e8bd4100    ...A    POP      {r8,lr}
        0x00010c72:    b570        p.      PUSH     {r4-r6,lr}
        0x00010c74:    f000f8d6    ....    BL       __fpl_dnaninf ; 0x10e24
    $d
        0x00010c78:    3efc7e09    .~.>    DCD    1056734729
    $t
        0x00010c7c:    f000b807    ....    B.W      0x10c8e ; ddiv_entry + 524
        0x00010c80:    ea810103    ....    EOR      r1,r1,r3
        0x00010c84:    f04f0000    O...    MOV      r0,#0
        0x00010c88:    f0014100    ...A    AND      r1,r1,#0x80000000
        0x00010c8c:    4770        pG      BX       lr
        0x00010c8e:    ea810103    ....    EOR      r1,r1,r3
        0x00010c92:    f000b915    ....    B.W      __fpl_dretinf ; 0x10ec0
        0x00010c96:    bcf0        ..      POP      {r4-r7}
        0x00010c98:    e8bd4100    ...A    POP      {r8,lr}
        0x00010c9c:    f04f0000    O...    MOV      r0,#0
        0x00010ca0:    4921        !I      LDR      r1,[pc,#132] ; [0x10d28] = 0x7ff80000
        0x00010ca2:    4770        pG      BX       lr
    $d
        0x00010ca4:    f9fbfdff    ....    DCD    4194041343
        0x00010ca8:    f2f4f5f7    ....    DCD    4076140023
        0x00010cac:    ebedeef0    ....    DCD    3958238960
        0x00010cb0:    e4e6e8e9    ....    DCD    3840338153
        0x00010cb4:    dee0e1e3    ....    DCD    3739279843
        0x00010cb8:    d8dadbdd    ....    DCD    3638221789
        0x00010cbc:    d3d4d5d7    ....    DCD    3553940951
        0x00010cc0:    cdcfd0d1    ....    DCD    3452948689
        0x00010cc4:    c8cacbcc    ....    DCD    3368733644
        0x00010cc8:    c4c5c6c7    ....    DCD    3301295815
        0x00010ccc:    bfc0c1c2    ....    DCD    3217080770
        0x00010cd0:    bbbcbdbe    ....    DCD    3149708734
        0x00010cd4:    b7b8b9ba    ....    DCD    3082336698
        0x00010cd8:    b3b4b5b6    ....    DCD    3014964662
        0x00010cdc:    afb0b1b2    ....    DCD    2947592626
        0x00010ce0:    abacadae    ....    DCD    2880220590
        0x00010ce4:    a8a8a9aa    ....    DCD    2829625770
        0x00010ce8:    a4a5a6a7    ....    DCD    2762319527
        0x00010cec:    a1a2a3a3    ....    DCD    2711790499
        0x00010cf0:    9e9f9fa0    ....    DCD    2661261216
        0x00010cf4:    9b9c9c9d    ....    DCD    2610732189
        0x00010cf8:    9899999a    ....    DCD    2560203162
        0x00010cfc:    95969797    ....    DCD    2509674391
        0x00010d00:    93939495    ....    DCD    2475922581
        0x00010d04:    90919192    ....    DCD    2425459090
        0x00010d08:    8e8e8f8f    ....    DCD    2391707535
        0x00010d0c:    8b8c8c8d    ....    DCD    2341244045
        0x00010d10:    89898a8b    ....    DCD    2307492491
        0x00010d14:    87878888    ....    DCD    2273806472
        0x00010d18:    84858586    ....    DCD    2223342982
        0x00010d1c:    82838384    ....    DCD    2189656964
        0x00010d20:    80818182    ....    DCD    2155970946
        0x00010d24:    07ff0000    ....    DCD    134152192
        0x00010d28:    7ff80000    ....    DCD    2146959360
    $t
    x$fpl$dfixu
    $v0
    __aeabi_d2uiz
    _dfixu
        0x00010d2c:    ea4f5311    O..S    LSR      r3,r1,#20
        0x00010d30:    f5a36380    ...c    SUB      r3,r3,#0x400
        0x00010d34:    f1d3031e    ....    RSBS     r3,r3,#0x1e
        0x00010d38:    bfa8        ..      IT       GE
        0x00010d3a:    f1d30c20    .. .    RSBSGE   r12,r3,#0x20
        0x00010d3e:    db08        ..      BLT      0x10d52 ; __aeabi_d2uiz + 38
        0x00010d40:    f04f4200    O..B    MOV      r2,#0x80000000
        0x00010d44:    ea4222c1    B.."    ORR      r2,r2,r1,LSL #11
        0x00010d48:    ea525250    R.PR    ORRS     r2,r2,r0,LSR #21
        0x00010d4c:    fa32f003    2...    LSRS     r0,r2,r3
        0x00010d50:    4770        pG      BX       lr
        0x00010d52:    4209        .B      TST      r1,r1
        0x00010d54:    d40b        ..      BMI      0x10d6e ; __aeabi_d2uiz + 66
        0x00010d56:    2b10        .+      CMP      r3,#0x10
        0x00010d58:    bfc4        ..      ITT      GT
        0x00010d5a:    2000        .       MOVGT    r0,#0
        0x00010d5c:    4770        pG      BXGT     lr
        0x00010d5e:    f5037c78    ..x|    ADD      r12,r3,#0x3e0
        0x00010d62:    f1bc3fff    ...?    CMP      r12,#0xffffffff
        0x00010d66:    d005        ..      BEQ      0x10d74 ; __aeabi_d2uiz + 72
        0x00010d68:    f04f30ff    O..0    MOV      r0,#0xffffffff
        0x00010d6c:    4770        pG      BX       lr
        0x00010d6e:    f04f0000    O...    MOV      r0,#0
        0x00010d72:    4770        pG      BX       lr
        0x00010d74:    b570        p.      PUSH     {r4-r6,lr}
        0x00010d76:    f000f855    ..U.    BL       __fpl_dnaninf ; 0x10e24
        0x00010d7a:    bf00        ..      NOP      
    $d
        0x00010d7c:    80249249    I.$.    DCD    2149880393
    $t
        0x00010d80:    2000        .       MOVS     r0,#0
        0x00010d82:    4770        pG      BX       lr
        0x00010d84:    e7f0        ..      B        0x10d68 ; __aeabi_d2uiz + 60
    x$fpl$dfltu
    $v0
    __aeabi_ui2d
    _dfltu
        0x00010d86:    fab0f380    ....    CLZ      r3,r0
        0x00010d8a:    fa10f103    ....    LSLS     r1,r0,r3
        0x00010d8e:    d00a        ..      BEQ      0x10da6 ; __aeabi_ui2d + 32
        0x00010d90:    f1c3031d    ....    RSB      r3,r3,#0x1d
        0x00010d94:    f5036380    ...c    ADD      r3,r3,#0x400
        0x00010d98:    ea4f5041    O.AP    LSL      r0,r1,#21
        0x00010d9c:    ea4f5203    O..R    LSL      r2,r3,#20
        0x00010da0:    eb0221d1    ...!    ADD      r1,r2,r1,LSR #11
        0x00010da4:    4770        pG      BX       lr
        0x00010da6:    f04f0000    O...    MOV      r0,#0
        0x00010daa:    4770        pG      BX       lr
    x$fpl$dleqf
    $v0
    __aeabi_cdcmple
    _dcmple
        0x00010dac:    ea510c03    Q...    ORRS     r12,r1,r3
        0x00010db0:    d417        ..      BMI      0x10de2 ; __aeabi_cdcmple + 54
        0x00010db2:    f51c1f80    ....    CMN      r12,#0x100000
        0x00010db6:    bf58        X.      IT       PL
        0x00010db8:    f5bc1f80    ....    CMPPL    r12,#0x100000
        0x00010dbc:    f1008006    ....    BMI.W    0x10dcc ; __aeabi_cdcmple + 32
        0x00010dc0:    4299        .B      CMP      r1,r3
        0x00010dc2:    bf18        ..      IT       NE
        0x00010dc4:    4770        pG      BXNE     lr
        0x00010dc6:    bf08        ..      IT       EQ
        0x00010dc8:    4290        .B      CMPEQ    r0,r2
        0x00010dca:    4770        pG      BX       lr
        0x00010dcc:    d707        ..      BVC      0x10dde ; __aeabi_cdcmple + 50
        0x00010dce:    f5111f80    ....    CMN      r1,#0x100000
        0x00010dd2:    bf58        X.      IT       PL
        0x00010dd4:    f5131f80    ....    CMNPL    r3,#0x100000
        0x00010dd8:    d419        ..      BMI      __fpl_dcmple_InfNaN ; 0x10e0e
        0x00010dda:    4299        .B      CMP      r1,r3
        0x00010ddc:    4770        pG      BX       lr
        0x00010dde:    4289        .B      CMP      r1,r1
        0x00010de0:    4770        pG      BX       lr
        0x00010de2:    f51c1f80    ....    CMN      r12,#0x100000
        0x00010de6:    d508        ..      BPL      0x10dfa ; __aeabi_cdcmple + 78
        0x00010de8:    f5bc1f80    ....    CMP      r12,#0x100000
        0x00010dec:    d5f7        ..      BPL      0x10dde ; __aeabi_cdcmple + 50
        0x00010dee:    428b        .B      CMP      r3,r1
        0x00010df0:    bf18        ..      IT       NE
        0x00010df2:    4770        pG      BXNE     lr
        0x00010df4:    bf08        ..      IT       EQ
        0x00010df6:    4282        .B      CMPEQ    r2,r0
        0x00010df8:    4770        pG      BX       lr
        0x00010dfa:    f44f1c00    O...    MOV      r12,#0x200000
        0x00010dfe:    eb1c0f41    ..A.    CMN      r12,r1,LSL #1
        0x00010e02:    bf38        8.      IT       CC
        0x00010e04:    eb1c0f43    ..C.    CMNCC    r12,r3,LSL #1
        0x00010e08:    d201        ..      BCS      __fpl_dcmple_InfNaN ; 0x10e0e
        0x00010e0a:    428b        .B      CMP      r3,r1
        0x00010e0c:    4770        pG      BX       lr
    __fpl_dcmple_InfNaN
        0x00010e0e:    b570        p.      PUSH     {r4-r6,lr}
        0x00010e10:    f000f808    ....    BL       __fpl_dnaninf ; 0x10e24
    $d
        0x00010e14:    00492492    .$I.    DCD    4793490
    $t
        0x00010e18:    f04f5100    O..Q    MOV      r1,#0x20000000
        0x00010e1c:    f04f5380    O..S    MOV      r3,#0x10000000
        0x00010e20:    f7ffbe1f    ....    B.W      __fpl_dcmp_Inf ; 0x10a62
    x$fpl$dnaninf
    $v0
    __fpl_dnaninf
        0x00010e24:    f10e0e02    ....    ADD      lr,lr,#2
        0x00010e28:    f02e0e03    ....    BIC      lr,lr,#3
        0x00010e2c:    f85e6b04    ^..k    LDR      r6,[lr],#4
        0x00010e30:    4236        6B      TST      r6,r6
        0x00010e32:    d405        ..      BMI      0x10e40 ; __fpl_dnaninf + 28
        0x00010e34:    2a01        .*      CMP      r2,#1
        0x00010e36:    eb430503    C...    ADC      r5,r3,r3
        0x00010e3a:    f5151f00    ....    CMN      r5,#0x200000
        0x00010e3e:    d812        ..      BHI      0x10e66 ; __fpl_dnaninf + 66
        0x00010e40:    2801        .(      CMP      r0,#1
        0x00010e42:    eb410c01    A...    ADC      r12,r1,r1
        0x00010e46:    f51c1f00    ....    CMN      r12,#0x200000
        0x00010e4a:    d80c        ..      BHI      0x10e66 ; __fpl_dnaninf + 66
        0x00010e4c:    d10e        ..      BNE      0x10e6c ; __fpl_dnaninf + 72
        0x00010e4e:    ea4f7cd1    O..|    LSR      r12,r1,#31
        0x00010e52:    f5151f00    ....    CMN      r5,#0x200000
        0x00010e56:    eb0c0c4c    ..L.    ADD      r12,r12,r12,LSL #1
        0x00010e5a:    f10c0c02    ....    ADD      r12,r12,#2
        0x00010e5e:    bf08        ..      IT       EQ
        0x00010e60:    eb4c7cd3    L..|    ADCEQ    r12,r12,r3,LSR #31
        0x00010e64:    e004        ..      B        0x10e70 ; __fpl_dnaninf + 76
        0x00010e66:    f04f0c08    O...    MOV      r12,#8
        0x00010e6a:    e001        ..      B        0x10e70 ; __fpl_dnaninf + 76
        0x00010e6c:    ea4f7cd3    O..|    LSR      r12,r3,#31
        0x00010e70:    eb0c054c    ..L.    ADD      r5,r12,r12,LSL #1
        0x00010e74:    fa26f605    &...    LSR      r6,r6,r5
        0x00010e78:    f0060607    ....    AND      r6,r6,#7
        0x00010e7c:    f1b60c04    ....    SUBS     r12,r6,#4
        0x00010e80:    d206        ..      BCS      0x10e90 ; __fpl_dnaninf + 108
        0x00010e82:    eb0e0c86    ....    ADD      r12,lr,r6,LSL #2
        0x00010e86:    e8bd4070    ..p@    POP      {r4-r6,lr}
        0x00010e8a:    f04c0c01    L...    ORR      r12,r12,#1
        0x00010e8e:    4760        `G      BX       r12
        0x00010e90:    e8dff00c    ....    TBB      [pc,r12]
    $d
        0x00010e94:    02020b09    ....    DCD    33688329
    $t
        0x00010e98:    f04f4100    O..A    MOV      r1,#0x80000000
        0x00010e9c:    f04f0000    O...    MOV      r0,#0
        0x00010ea0:    f5a12100    ...!    SUB      r1,r1,#0x80000
        0x00010ea4:    bd70        p.      POP      {r4-r6,pc}
        0x00010ea6:    4619        .F      MOV      r1,r3
        0x00010ea8:    4610        .F      MOV      r0,r2
        0x00010eaa:    2801        .(      CMP      r0,#1
        0x00010eac:    eb510401    Q...    ADCS     r4,r1,r1
        0x00010eb0:    bf18        ..      IT       NE
        0x00010eb2:    f5d41400    ....    RSBSNE   r4,r4,#0x200000
        0x00010eb6:    bf84        ..      ITT      HI
        0x00010eb8:    2000        .       MOVHI    r0,#0
        0x00010eba:    f0014100    ...A    ANDHI    r1,r1,#0x80000000
        0x00010ebe:    bd70        p.      POP      {r4-r6,pc}
    x$fpl$dretinf
    $v0
    __fpl_dretinf
        0x00010ec0:    0808        ..      LSRS     r0,r1,#32
        0x00010ec2:    f5a01100    ....    SUB      r1,r0,#0x200000
        0x00010ec6:    ea4f0131    O.1.    RRX      r1,r1
        0x00010eca:    4770        pG      BX       lr
    x$fpl$drleqf
    $v0
    __aeabi_cdrcmple
    _drcmple
        0x00010ecc:    ea530c01    S...    ORRS     r12,r3,r1
        0x00010ed0:    d417        ..      BMI      0x10f02 ; __aeabi_cdrcmple + 54
        0x00010ed2:    f51c1f80    ....    CMN      r12,#0x100000
        0x00010ed6:    bf58        X.      IT       PL
        0x00010ed8:    f5bc1f80    ....    CMPPL    r12,#0x100000
        0x00010edc:    f1008006    ....    BMI.W    0x10eec ; __aeabi_cdrcmple + 32
        0x00010ee0:    428b        .B      CMP      r3,r1
        0x00010ee2:    bf18        ..      IT       NE
        0x00010ee4:    4770        pG      BXNE     lr
        0x00010ee6:    bf08        ..      IT       EQ
        0x00010ee8:    4282        .B      CMPEQ    r2,r0
        0x00010eea:    4770        pG      BX       lr
        0x00010eec:    d707        ..      BVC      0x10efe ; __aeabi_cdrcmple + 50
        0x00010eee:    f5131f80    ....    CMN      r3,#0x100000
        0x00010ef2:    bf58        X.      IT       PL
        0x00010ef4:    f5111f80    ....    CMNPL    r1,#0x100000
        0x00010ef8:    d419        ..      BMI      0x10f2e ; __aeabi_cdrcmple + 98
        0x00010efa:    428b        .B      CMP      r3,r1
        0x00010efc:    4770        pG      BX       lr
        0x00010efe:    429b        .B      CMP      r3,r3
        0x00010f00:    4770        pG      BX       lr
        0x00010f02:    f51c1f80    ....    CMN      r12,#0x100000
        0x00010f06:    d508        ..      BPL      0x10f1a ; __aeabi_cdrcmple + 78
        0x00010f08:    f5bc1f80    ....    CMP      r12,#0x100000
        0x00010f0c:    d5f7        ..      BPL      0x10efe ; __aeabi_cdrcmple + 50
        0x00010f0e:    4299        .B      CMP      r1,r3
        0x00010f10:    bf18        ..      IT       NE
        0x00010f12:    4770        pG      BXNE     lr
        0x00010f14:    bf08        ..      IT       EQ
        0x00010f16:    4290        .B      CMPEQ    r0,r2
        0x00010f18:    4770        pG      BX       lr
        0x00010f1a:    f44f1c00    O...    MOV      r12,#0x200000
        0x00010f1e:    eb1c0f43    ..C.    CMN      r12,r3,LSL #1
        0x00010f22:    bf38        8.      IT       CC
        0x00010f24:    eb1c0f41    ..A.    CMNCC    r12,r1,LSL #1
        0x00010f28:    d201        ..      BCS      0x10f2e ; __aeabi_cdrcmple + 98
        0x00010f2a:    4299        .B      CMP      r1,r3
        0x00010f2c:    4770        pG      BX       lr
        0x00010f2e:    b40f        ..      PUSH     {r0-r3}
        0x00010f30:    bc0c        ..      POP      {r2,r3}
        0x00010f32:    bc03        ..      POP      {r0,r1}
        0x00010f34:    f7ffbf6b    ..k.    B.W      __fpl_dcmple_InfNaN ; 0x10e0e
    x$fpl$f2d
    $v0
    __aeabi_f2d
    _f2d
        0x00010f38:    0043        C.      LSLS     r3,r0,#1
        0x00010f3a:    ea4f0cd3    O...    LSR      r12,r3,#3
        0x00010f3e:    ea4f0c3c    O.<.    RRX      r12,r12
        0x00010f42:    4043        C@      EORS     r3,r3,r0
        0x00010f44:    bf1f        ..      ITTTT    NE
        0x00010f46:    0740        @.      LSLNE    r0,r0,#29
        0x00010f48:    f10c5160    ..`Q    ADDNE    r1,r12,#0x38000000
        0x00010f4c:    f0134ffe    ...O    TSTNE    r3,#0x7f000000
        0x00010f50:    4770        pG      BXNE     lr
        0x00010f52:    f01c6f00    ...o    TST      r12,#0x8000000
        0x00010f56:    d103        ..      BNE      0x10f60 ; __aeabi_f2d + 40
        0x00010f58:    2000        .       MOVS     r0,#0
        0x00010f5a:    f00c4100    ...A    AND      r1,r12,#0x80000000
        0x00010f5e:    4770        pG      BX       lr
        0x00010f60:    f00c4300    ...C    AND      r3,r12,#0x80000000
        0x00010f64:    ea437050    C.Pp    ORR      r0,r3,r0,LSR #29
        0x00010f68:    b510        ..      PUSH     {r4,lr}
        0x00010f6a:    ea4000cc    @...    ORR      r0,r0,r12,LSL #3
        0x00010f6e:    f000f80e    ....    BL       __fpl_fnaninf ; 0x10f8e
        0x00010f72:    bf00        ..      NOP      
    $d
        0x00010f74:    92000000    ....    DCD    2449473536
    $t
        0x00010f78:    ea4f0100    O...    MOV.W    r1,r0
        0x00010f7c:    f7ffbfa0    ....    B.W      __fpl_dretinf ; 0x10ec0
        0x00010f80:    f04f4100    O..A    MOV      r1,#0x80000000
        0x00010f84:    f04f0000    O...    MOV      r0,#0
        0x00010f88:    f5a12100    ...!    SUB      r1,r1,#0x80000
        0x00010f8c:    4770        pG      BX       lr
    x$fpl$fnaninf
    $v0
    __fpl_fnaninf
        0x00010f8e:    f10e0e02    ....    ADD      lr,lr,#2
        0x00010f92:    f02e0e03    ....    BIC      lr,lr,#3
        0x00010f96:    f85e4b04    ^..K    LDR      r4,[lr],#4
        0x00010f9a:    4224        $B      TST      r4,r4
        0x00010f9c:    d404        ..      BMI      0x10fa8 ; __fpl_fnaninf + 26
        0x00010f9e:    ea4f0241    O.A.    LSL      r2,r1,#1
        0x00010fa2:    f1b24f7f    ...O    CMP      r2,#0xff000000
        0x00010fa6:    d811        ..      BHI      0x10fcc ; __fpl_fnaninf + 62
        0x00010fa8:    ea4f0340    O.@.    LSL      r3,r0,#1
        0x00010fac:    f1b34f7f    ...O    CMP      r3,#0xff000000
        0x00010fb0:    d80c        ..      BHI      0x10fcc ; __fpl_fnaninf + 62
        0x00010fb2:    d10e        ..      BNE      0x10fd2 ; __fpl_fnaninf + 68
        0x00010fb4:    ea4f7cd0    O..|    LSR      r12,r0,#31
        0x00010fb8:    f1b24f7f    ...O    CMP      r2,#0xff000000
        0x00010fbc:    eb0c0c4c    ..L.    ADD      r12,r12,r12,LSL #1
        0x00010fc0:    f10c0c02    ....    ADD      r12,r12,#2
        0x00010fc4:    bf08        ..      IT       EQ
        0x00010fc6:    eb4c7cd1    L..|    ADCEQ    r12,r12,r1,LSR #31
        0x00010fca:    e004        ..      B        0x10fd6 ; __fpl_fnaninf + 72
        0x00010fcc:    f04f0c08    O...    MOV      r12,#8
        0x00010fd0:    e001        ..      B        0x10fd6 ; __fpl_fnaninf + 72
        0x00010fd2:    ea4f7cd1    O..|    LSR      r12,r1,#31
        0x00010fd6:    eb0c034c    ..L.    ADD      r3,r12,r12,LSL #1
        0x00010fda:    fa24f403    $...    LSR      r4,r4,r3
        0x00010fde:    f0040407    ....    AND      r4,r4,#7
        0x00010fe2:    f1b40c04    ....    SUBS     r12,r4,#4
        0x00010fe6:    d206        ..      BCS      0x10ff6 ; __fpl_fnaninf + 104
        0x00010fe8:    eb0e0c84    ....    ADD      r12,lr,r4,LSL #2
        0x00010fec:    e8bd4010    ...@    POP      {r4,lr}
        0x00010ff0:    f04c0c01    L...    ORR      r12,r12,#1
        0x00010ff4:    4760        `G      BX       r12
        0x00010ff6:    e8dff00c    ....    TBB      [pc,r12]
    $d
        0x00010ffa:    0807        ..      DCW    2055
        0x00010ffc:    0202        ..      DCW    514
    $t
        0x00010ffe:    f04f4000    O..@    MOV      r0,#0x80000000
        0x00011002:    f5a00080    ....    SUB      r0,r0,#0x400000
        0x00011006:    bd10        ..      POP      {r4,pc}
        0x00011008:    4608        .F      MOV      r0,r1
        0x0001100a:    0042        B.      LSLS     r2,r0,#1
        0x0001100c:    bf18        ..      IT       NE
        0x0001100e:    f1d27280    ...r    RSBSNE   r2,r2,#0x1000000
        0x00011012:    bf88        ..      IT       HI
        0x00011014:    f0004000    ...@    ANDHI    r0,r0,#0x80000000
        0x00011018:    bd10        ..      POP      {r4,pc}
    x$fpl$fpinit
    $v0
    _fp_init
        0x0001101a:    f04f7040    O.@p    MOV      r0,#0x3000000
        0x0001101e:    eee10a10    ....    VMSR     FPSCR,r0
    __fplib_config_fpu_vfp
    __fplib_config_pureend_doubles
        0x00011022:    4770        pG      BX       lr
    x$fpl$fretinf
    $v0
    __fpl_fretinf
        0x00011024:    21ff        .!      MOVS     r1,#0xff
        0x00011026:    ea4150d0    A..P    ORR      r0,r1,r0,LSR #23
        0x0001102a:    05c0        ..      LSLS     r0,r0,#23
        0x0001102c:    4770        pG      BX       lr
    x$fpl$usenofp
    __I$use$fp
        0x0001102e:    0000        ..      MOVS     r0,r0
    $d.realdata
    .constdata
        0x00011030:    00000104    ....    DCD    260
    .constdata
    g_sBspUartConfig
        0x00011034:    0001c200    ....    DCD    115200
        0x00011038:    00000060    `...    DCD    96
        0x0001103c:    00000000    ....    DCD    0
        0x00011040:    00000000    ....    DCD    0
        0x00011044:    00000000    ....    DCD    0
        0x00011048:    00000012    ....    DCD    18
        0x0001104c:    00000000    ....    DCD    0
        0x00011050:    00000000    ....    DCD    0
        0x00011054:    00000000    ....    DCD    0
        0x00011058:    00000000    ....    DCD    0
        0x0001105c:    00000000    ....    DCD    0
        0x00011060:    00000000    ....    DCD    0
        0x00011064:    00000000    ....    DCD    0
        0x00011068:    ffffffff    ....    DCD    4294967295
        0x0001106c:    00000000    ....    DCD    0
    .constdata
        0x00011070:    bf006001    .`..    DCD    3204472833
        0x00011074:    bf006800    .h..    DCD    3204474880
        0x00011078:    bf004770    pG..    DCD    3204466544
    .constdata
    g_AM_HAL_GPIO_DISABLE
        0x0001107c:    00000003    ....    DCD    3
    g_ui8Inpen
        0x00011080:    62272323    ##'b    DCD    1646732067
        0x00011084:    108703a1    ....    DCD    277283745
        0x00011088:    e1005303    .S..    DCD    3774894851
        0x0001108c:    55418151    Q.AU    DCD    1430356305
        0x00011090:    4080c405    ...@    DCD    1082180613
        0x00011094:    4140b101    ..@A    DCD    1094758657
        0x00011098:    31a03114    .1.1    DCD    832581908
        0x0001109c:    1180f100    ....    DCD    293662976
        0x000110a0:    11c12191    .!..    DCD    297869713
        0x000110a4:    304511e5    ..E0    DCD    809832933
        0x000110a8:    31300037    7.01    DCD    825229367
        0x000110ac:    40007100    .q.@    DCD    1073770752
        0x000110b0:    01003130    01..    DCD    16789808
        0x000110b4:    01010101    ....    DCD    16843009
        0x000110b8:    01010101    ....    DCD    16843009
        0x000110bc:    a050a001    ..P.    DCD    2689638401
        0x000110c0:    01010101    ....    DCD    16843009
        0x000110c4:    a0a0a001    ....    DCD    2694881281
        0x000110c8:    50a0        .P      DCW    20640
    g_ui8Bit76Capabilities
        0x000110ca:    0101        ..      DCW    257
        0x000110cc:    01800280    ....    DCD    25166464
        0x000110d0:    01018001    ....    DCD    16875521
        0x000110d4:    80808080    ....    DCD    2155905152
        0x000110d8:    80808080    ....    DCD    2155905152
        0x000110dc:    80088080    ....    DCD    2148040832
        0x000110e0:    01808080    ....    DCD    25198720
        0x000110e4:    80800180    ....    DCD    2155872640
        0x000110e8:    80808080    ....    DCD    2155905152
        0x000110ec:    04028080    ....    DCD    67272832
        0x000110f0:    04010180    ....    DCD    67174784
        0x000110f4:    80800101    ....    DCD    2155872513
        0x000110f8:    01018080    ....    DCD    16875648
        0x000110fc:    80808080    ....    DCD    2155905152
        0x00011100:    80808080    ....    DCD    2155905152
        0x00011104:    80808080    ....    DCD    2155905152
        0x00011108:    80808080    ....    DCD    2155905152
        0x0001110c:    80808080    ....    DCD    2155905152
        0x00011110:    80808080    ....    DCD    2155905152
    g_ui8nCEpins
        0x00011114:    02070707    ....    DCD    34014983
        0x00011118:    00080802    ....    DCD    526338
        0x0001111c:    01020202    ....    DCD    16908802
        0x00011120:    01010101    ....    DCD    16843009
        0x00011124:    01010101    ....    DCD    16843009
        0x00011128:    01010101    ....    DCD    16843009
        0x0001112c:    01010101    ....    DCD    16843009
        0x00011130:    01010101    ....    DCD    16843009
        0x00011134:    01010101    ....    DCD    16843009
        0x00011138:    08010101    ....    DCD    134283521
        0x0001113c:    01010008    ....    DCD    16842760
        0x00011140:    01010101    ....    DCD    16843009
        0x00011144:    01010101    ....    DCD    16843009
        0x00011148:    01010101    ....    DCD    16843009
        0x0001114c:    01010101    ....    DCD    16843009
        0x00011150:    01010101    ....    DCD    16843009
        0x00011154:    01010101    ....    DCD    16843009
        0x00011158:    01010101    ....    DCD    16843009
        0x0001115c:    0101        ..      DCW    257
    g_ui8NCEtable
        0x0001115e:    a4a3        ..      DCW    42147
        0x00011160:    a1a00112    ....    DCD    2711617810
        0x00011164:    02b3a4a2    ....    DCD    45327522
        0x00011168:    848392b5    ....    DCD    2223215285
        0x0001116c:    94938285    ....    DCD    2492695173
        0x00011170:    ffff9101    ....    DCD    4294938881
        0x00011174:    ffffffff    ....    DCD    4294967295
        0x00011178:    1201ffff    ....    DCD    302120959
        0x0001117c:    84830095    ....    DCD    2223177877
        0x00011180:    b4018002    ....    DCD    3019997186
        0x00011184:    a4a3b2b5    ....    DCD    2762191541
        0x00011188:    81800011    ....    DCD    2172649489
        0x0001118c:    02838382    ....    DCD    42173314
        0x00011190:    94931085    ....    DCD    2492665989
        0x00011194:    12a09095    ....    DCD    312512661
        0x00011198:    b101a4a2    ....    DCD    2969674914
        0x0001119c:    028000b2    ....    DCD    41943218
        0x000111a0:    919085b2    ....    DCD    2442167730
        0x000111a4:    a1029402    ....    DCD    2701300738
        0x000111a8:    11b0a3a2    ....    DCD    296788898
        0x000111ac:    001200b3    ....    DCD    1179827
        0x000111b0:    a4a39295    ....    DCD    2762183317
        0x000111b4:    b4b30102    ....    DCD    3031630082
        0x000111b8:    818002b5    ....    DCD    2172650165
        0x000111bc:    01908482    ....    DCD    26248322
        0x000111c0:    01a39592    ....    DCD    27497874
        0x000111c4:    b4b3a0a5    ....    DCD    3031670949
        0x000111c8:    8402b1b5    ....    DCD    2214769077
        0x000111cc:    94938100    ....    DCD    2492694784
        0x000111d0:    12a30095    ....    DCD    312672405
        0x000111d4:    b400a1a5    ....    DCD    3019940261
        0x000111d8:    0201b002    ....    DCD    33665026
        0x000111dc:    b1908482    ....    DCD    2979038338
        0x000111e0:    11a01001    ....    DCD    295702529
        0x000111e4:    02b0a592    ....    DCD    45131154
        0x000111e8:    810111b2    ....    DCD    2164330930
        0x000111ec:    94930282    ....    DCD    2492662402
        0x000111f0:    a4931095    ....    DCD    2761101461
        0x000111f4:    b1b000a5    ....    DCD    2981101733
        0x000111f8:    ffffb512    ....    DCD    4294948114
        0x000111fc:    ffffffff    ....    DCD    4294967295
        0x00011200:    9102ffff    ....    DCD    2432892927
        0x00011204:    01801011    ....    DCD    25169937
        0x00011208:    91908582    ....    DCD    2442167682
        0x0001120c:    00a01002    ....    DCD    10489858
        0x00011210:    b4b3a5a2    ....    DCD    3031672226
        0x00011214:    0183b185    ....    DCD    25407877
        0x00011218:    81111002    ....    DCD    2165379074
        0x0001121c:    a1019392    ....    DCD    2701235090
        0x00011220:    11b012a2    ....    DCD    296751778
        0x00011224:    020181b2    ....    DCD    33653170
        0x00011228:    91a480b2    ....    DCD    2443477170
        0x0001122c:    a1908092    ....    DCD    2710601874
        0x00011230:    b1a09200    ....    DCD    2980090368
        0x00011234:    84028202    ....    DCD    2214756866
        0x00011238:    00838385    ....    DCD    8618885
        0x0001123c:    b4a38495    ....    DCD    3030615189
        0x00011240:    b40010a5    ....    DCD    3019903141
        0x00011244:    81b390b5    ....    DCD    2176028853
        0x00011248:    9111b500    ....    DCD    2433856768
        0x0001124c:    a1100092    ....    DCD    2702180498
        0x00011250:    b100b0a2    ....    DCD    2969612450
        0x00011254:    84100102    ....    DCD    2215641346
        0x00011258:    94011185    ....    DCD    2483097989
        0x0001125c:    a4800002    ....    DCD    2759852034
        0x00011260:    009010a5    ....    DCD    9441445
        0x00011264:    810193a5    ....    DCD    2164364197
        0x00011268:    91b09482    ....    DCD    2444268674
        0x0001126c:    008395b2    ....    DCD    8623538
        0x00011270:    b193a0a2    ....    DCD    2979242146
        0x00011274:    02a30100    ....    DCD    44237056
        0x00011278:    94b31185    ....    DCD    2494763397
        0x0001127c:    0200a1b0    ....    DCD    33595824
        0x00011280:    b401a201    ....    DCD    3020005889
        0x00011284:    000002b5    ....    DCD    693
    .constdata
    g_AM_HAL_GPIO_TRISTATE
        0x00011288:    00000c03    ....    DCD    3075
    .constdata
    g_AM_HAL_GPIO_OUTPUT
        0x0001128c:    00000403    ....    DCD    1027
    .constdata
    g_am_hal_mcuctrl_flash_size
        0x00011290:    00004000    .@..    DCD    16384
        0x00011294:    00008000    ....    DCD    32768
        0x00011298:    00010000    ....    DCD    65536
        0x0001129c:    00020000    ....    DCD    131072
        0x000112a0:    00040000    ....    DCD    262144
        0x000112a4:    00080000    ....    DCD    524288
        0x000112a8:    00100000    ....    DCD    1048576
        0x000112ac:    00200000    .. .    DCD    2097152
        0x000112b0:    00180000    ....    DCD    1572864
        0x000112b4:    00000000    ....    DCD    0
        0x000112b8:    00000000    ....    DCD    0
        0x000112bc:    00000000    ....    DCD    0
        0x000112c0:    00000000    ....    DCD    0
        0x000112c4:    00000000    ....    DCD    0
        0x000112c8:    00000000    ....    DCD    0
        0x000112cc:    00000000    ....    DCD    0
    g_am_hal_mcuctrl_sram_size
        0x000112d0:    00004000    .@..    DCD    16384
        0x000112d4:    00008000    ....    DCD    32768
        0x000112d8:    00010000    ....    DCD    65536
        0x000112dc:    00020000    ....    DCD    131072
        0x000112e0:    00040000    ....    DCD    262144
        0x000112e4:    00080000    ....    DCD    524288
        0x000112e8:    00100000    ....    DCD    1048576
        0x000112ec:    00060000    ....    DCD    393216
        0x000112f0:    000c0000    ....    DCD    786432
        0x000112f4:    00000000    ....    DCD    0
        0x000112f8:    00000000    ....    DCD    0
        0x000112fc:    00000000    ....    DCD    0
        0x00011300:    00000000    ....    DCD    0
        0x00011304:    00000000    ....    DCD    0
        0x00011308:    00000000    ....    DCD    0
        0x0001130c:    00000000    ....    DCD    0
    .constdata
    am_hal_pwrctrl_peripheral_control
        0x00011310:    00000000    ....    DCD    0
        0x00011314:    00000000    ....    DCD    0
        0x00011318:    00000000    ....    DCD    0
        0x0001131c:    00000001    ....    DCD    1
        0x00011320:    00000004    ....    DCD    4
        0x00011324:    00000004    ....    DCD    4
        0x00011328:    00000002    ....    DCD    2
        0x0001132c:    00000008    ....    DCD    8
        0x00011330:    00000008    ....    DCD    8
        0x00011334:    00000004    ....    DCD    4
        0x00011338:    00000008    ....    DCD    8
        0x0001133c:    00000008    ....    DCD    8
        0x00011340:    00000008    ....    DCD    8
        0x00011344:    00000008    ....    DCD    8
        0x00011348:    00000008    ....    DCD    8
        0x0001134c:    00000010    ....    DCD    16
        0x00011350:    00000010    ....    DCD    16
        0x00011354:    00000010    ....    DCD    16
        0x00011358:    00000020     ...    DCD    32
        0x0001135c:    00000010    ....    DCD    16
        0x00011360:    00000010    ....    DCD    16
        0x00011364:    00000040    @...    DCD    64
        0x00011368:    00000010    ....    DCD    16
        0x0001136c:    00000010    ....    DCD    16
        0x00011370:    00000080    ....    DCD    128
        0x00011374:    00000004    ....    DCD    4
        0x00011378:    00000004    ....    DCD    4
        0x0001137c:    00000100    ....    DCD    256
        0x00011380:    00000004    ....    DCD    4
        0x00011384:    00000004    ....    DCD    4
        0x00011388:    00000200    ....    DCD    512
        0x0001138c:    00000020     ...    DCD    32
        0x00011390:    00000020     ...    DCD    32
        0x00011394:    00000400    ....    DCD    1024
        0x00011398:    00000004    ....    DCD    4
        0x0001139c:    00000004    ....    DCD    4
        0x000113a0:    00000800    ....    DCD    2048
        0x000113a4:    00000040    @...    DCD    64
        0x000113a8:    00000040    @...    DCD    64
        0x000113ac:    00001000    ....    DCD    4096
        0x000113b0:    00000040    @...    DCD    64
        0x000113b4:    00000040    @...    DCD    64
        0x000113b8:    00002000    . ..    DCD    8192
        0x000113bc:    00000040    @...    DCD    64
        0x000113c0:    00000040    @...    DCD    64
        0x000113c4:    00004000    .@..    DCD    16384
        0x000113c8:    00000080    ....    DCD    128
        0x000113cc:    00000080    ....    DCD    128
        0x000113d0:    00008000    ....    DCD    32768
        0x000113d4:    00000100    ....    DCD    256
        0x000113d8:    00000100    ....    DCD    256
    am_hal_pwrctrl_memory_control
        0x000113dc:    00000000    ....    DCD    0
        0x000113e0:    00000000    ....    DCD    0
        0x000113e4:    00000000    ....    DCD    0
        0x000113e8:    00000000    ....    DCD    0
        0x000113ec:    00000000    ....    DCD    0
        0x000113f0:    00000000    ....    DCD    0
        0x000113f4:    00000001    ....    DCD    1
        0x000113f8:    00000001    ....    DCD    1
        0x000113fc:    00000001    ....    DCD    1
        0x00011400:    00001fff    ....    DCD    8191
        0x00011404:    00001fff    ....    DCD    8191
        0x00011408:    00000001    ....    DCD    1
        0x0001140c:    00000003    ....    DCD    3
        0x00011410:    00000003    ....    DCD    3
        0x00011414:    00000003    ....    DCD    3
        0x00011418:    00001fff    ....    DCD    8191
        0x0001141c:    00001fff    ....    DCD    8191
        0x00011420:    00000003    ....    DCD    3
        0x00011424:    00000007    ....    DCD    7
        0x00011428:    00000007    ....    DCD    7
        0x0001142c:    00000007    ....    DCD    7
        0x00011430:    00001fff    ....    DCD    8191
        0x00011434:    00001fff    ....    DCD    8191
        0x00011438:    00000007    ....    DCD    7
        0x0001143c:    0000000f    ....    DCD    15
        0x00011440:    0000000f    ....    DCD    15
        0x00011444:    0000000f    ....    DCD    15
        0x00011448:    00001fff    ....    DCD    8191
        0x0001144c:    00001fff    ....    DCD    8191
        0x00011450:    0000000f    ....    DCD    15
        0x00011454:    0000001f    ....    DCD    31
        0x00011458:    0000001f    ....    DCD    31
        0x0001145c:    0000001f    ....    DCD    31
        0x00011460:    00001fff    ....    DCD    8191
        0x00011464:    00001fff    ....    DCD    8191
        0x00011468:    0000001f    ....    DCD    31
        0x0001146c:    0000003f    ?...    DCD    63
        0x00011470:    0000003f    ?...    DCD    63
        0x00011474:    0000003f    ?...    DCD    63
        0x00011478:    00001fff    ....    DCD    8191
        0x0001147c:    00001fff    ....    DCD    8191
        0x00011480:    0000003f    ?...    DCD    63
        0x00011484:    0000007f    ....    DCD    127
        0x00011488:    0000007f    ....    DCD    127
        0x0001148c:    0000007f    ....    DCD    127
        0x00011490:    00001fff    ....    DCD    8191
        0x00011494:    00001fff    ....    DCD    8191
        0x00011498:    0000007f    ....    DCD    127
        0x0001149c:    000000ff    ....    DCD    255
        0x000114a0:    000000ff    ....    DCD    255
        0x000114a4:    000000ff    ....    DCD    255
        0x000114a8:    00001fff    ....    DCD    8191
        0x000114ac:    00001fff    ....    DCD    8191
        0x000114b0:    000000ff    ....    DCD    255
        0x000114b4:    000001ff    ....    DCD    511
        0x000114b8:    000001ff    ....    DCD    511
        0x000114bc:    000001ff    ....    DCD    511
        0x000114c0:    00001fff    ....    DCD    8191
        0x000114c4:    00001fff    ....    DCD    8191
        0x000114c8:    000001ff    ....    DCD    511
        0x000114cc:    000003ff    ....    DCD    1023
        0x000114d0:    000003ff    ....    DCD    1023
        0x000114d4:    000003ff    ....    DCD    1023
        0x000114d8:    00001fff    ....    DCD    8191
        0x000114dc:    00001fff    ....    DCD    8191
        0x000114e0:    000003ff    ....    DCD    1023
        0x000114e4:    000007ff    ....    DCD    2047
        0x000114e8:    000007ff    ....    DCD    2047
        0x000114ec:    000007ff    ....    DCD    2047
        0x000114f0:    00001fff    ....    DCD    8191
        0x000114f4:    00001fff    ....    DCD    8191
        0x000114f8:    000007ff    ....    DCD    2047
        0x000114fc:    00000fff    ....    DCD    4095
        0x00011500:    00000fff    ....    DCD    4095
        0x00011504:    00000fff    ....    DCD    4095
        0x00011508:    00001fff    ....    DCD    8191
        0x0001150c:    00001fff    ....    DCD    8191
        0x00011510:    00000fff    ....    DCD    4095
        0x00011514:    00001fff    ....    DCD    8191
        0x00011518:    00001fff    ....    DCD    8191
        0x0001151c:    00001fff    ....    DCD    8191
        0x00011520:    00001fff    ....    DCD    8191
        0x00011524:    00001fff    ....    DCD    8191
        0x00011528:    00001fff    ....    DCD    8191
        0x0001152c:    00002000    . ..    DCD    8192
        0x00011530:    00002000    . ..    DCD    8192
        0x00011534:    00002000    . ..    DCD    8192
        0x00011538:    00006000    .`..    DCD    24576
        0x0001153c:    00006000    .`..    DCD    24576
        0x00011540:    00002000    . ..    DCD    8192
        0x00011544:    00006000    .`..    DCD    24576
        0x00011548:    00006000    .`..    DCD    24576
        0x0001154c:    00006000    .`..    DCD    24576
        0x00011550:    00006000    .`..    DCD    24576
        0x00011554:    00006000    .`..    DCD    24576
        0x00011558:    00006000    .`..    DCD    24576
        0x0001155c:    c0000000    ....    DCD    3221225472
        0x00011560:    00000000    ....    DCD    0
        0x00011564:    c0000000    ....    DCD    3221225472
        0x00011568:    c0000000    ....    DCD    3221225472
        0x0001156c:    00000000    ....    DCD    0
        0x00011570:    80000000    ....    DCD    2147483648
        0x00011574:    c0007fff    ....    DCD    3221258239
        0x00011578:    00007fff    ....    DCD    32767
        0x0001157c:    c0007fff    ....    DCD    3221258239
        0x00011580:    c0007fff    ....    DCD    3221258239
        0x00011584:    00007fff    ....    DCD    32767
        0x00011588:    80007fff    ....    DCD    2147516415
    .constdata
    g_AM_BSP_GPIO_COM_UART_TX
        0x0001158c:    00000000    ....    DCD    0
    .constdata
    g_AM_BSP_GPIO_COM_UART_RX
        0x00011590:    00000000    ....    DCD    0
    .conststring
        0x00011594:    6e6e6143    Cann    DCD    1852727619
        0x00011598:    7620746f    ot v    DCD    1981838447
        0x0001159c:    64696c61    alid    DCD    1684630625
        0x000115a0:    20657461    ate     DCD    543519841
        0x000115a4:    7265706f    oper    DCD    1919250543
        0x000115a8:    6f697461    atio    DCD    1869182049
        0x000115ac:    6f66206e    n fo    DCD    1868963950
        0x000115b0:    68742072    r th    DCD    1752440946
        0x000115b4:    20657365    ese     DCD    543519589
        0x000115b8:    64656573    seed    DCD    1684366707
        0x000115bc:    6c617620     val    DCD    1818326560
        0x000115c0:    2c736575    ues,    DCD    745760117
        0x000115c4:    656c7020     ple    DCD    1701605408
        0x000115c8:    20657361    ase     DCD    543519585
        0x000115cc:    706d6f63    comp    DCD    1886220131
        0x000115d0:    20657261    are     DCD    543519329
        0x000115d4:    68746977    with    DCD    1752459639
        0x000115d8:    73657220     res    DCD    1936028192
        0x000115dc:    73746c75    ults    DCD    1937009781
        0x000115e0:    206e6f20     on     DCD    544108320
        0x000115e4:    6e6b2061    a kn    DCD    1852514401
        0x000115e8:    206e776f    own     DCD    544110447
        0x000115ec:    74616c70    plat    DCD    1952541808
        0x000115f0:    6d726f66    form    DCD    1836216166
        0x000115f4:    00000a2e    ....    DCD    2606
        0x000115f8:    72726f43    Corr    DCD    1920102211
        0x000115fc:    20746365    ect     DCD    544498533
        0x00011600:    7265706f    oper    DCD    1919250543
        0x00011604:    6f697461    atio    DCD    1869182049
        0x00011608:    6176206e    n va    DCD    1635131502
        0x0001160c:    6164696c    lida    DCD    1633970540
        0x00011610:    2e646574    ted.    DCD    778331508
        0x00011614:    65655320     See    DCD    1701139232
        0x00011618:    61657220     rea    DCD    1634038304
        0x0001161c:    2e656d64    dme.    DCD    778399076
        0x00011620:    20747874    txt     DCD    544503924
        0x00011624:    20726f66    for     DCD    544370534
        0x00011628:    206e7572    run     DCD    544109938
        0x0001162c:    20646e61    and     DCD    543452769
        0x00011630:    6f706572    repo    DCD    1869636978
        0x00011634:    6e697472    rtin    DCD    1852404850
        0x00011638:    75722067    g ru    DCD    1970413671
        0x0001163c:    2e73656c    les.    DCD    779314540
        0x00011640:    0000000a    ....    DCD    10
    .conststring
        0x00011644:    352e3533    35.5    DCD    892220723
        0x00011648:    30303434    4400    DCD    808465460
        0x0001164c:    00000000    ....    DCD    0
        0x00011650:    362e302b    +0.6    DCD    908996651
        0x00011654:    30303434    4400    DCD    808465460
        0x00011658:    00000000    ....    DCD    0
        0x0001165c:    3332312e    .123    DCD    858927406
        0x00011660:    30303534    4500    DCD    808465716
        0x00011664:    00000000    ....    DCD    0
        0x00011668:    3031312d    -110    DCD    808530221
        0x0001166c:    3030372e    .700    DCD    808466222
        0x00011670:    00000000    ....    DCD    0
        0x00011674:    32312e2d    -.12    DCD    842083885
        0x00011678:    322d6533    3e-2    DCD    841835827
        0x0001167c:    00000000    ....    DCD    0
        0x00011680:    362e302b    +0.6    DCD    908996651
        0x00011684:    32312d65    e-12    DCD    842083685
        0x00011688:    00000000    ....    DCD    0
        0x0001168c:    32313035    5012    DCD    842084405
        0x00011690:    00000000    ....    DCD    0
        0x00011694:    3232312b    +122    DCD    842150187
        0x00011698:    00000000    ....    DCD    0
        0x0001169c:    6537382d    -87e    DCD    1698117677
        0x000116a0:    3233382b    +832    DCD    842217515
        0x000116a4:    00000000    ....    DCD    0
        0x000116a8:    30352e35    5.50    DCD    808791605
        0x000116ac:    332b6530    0e+3    DCD    858481968
        0x000116b0:    00000000    ....    DCD    0
        0x000116b4:    34333231    1234    DCD    875770417
        0x000116b8:    00000000    ....    DCD    0
        0x000116bc:    3437382d    -874    DCD    876034093
        0x000116c0:    00000000    ....    DCD    0
        0x000116c4:    332e3054    T0.3    DCD    858665044
        0x000116c8:    46312d65    e-1F    DCD    1177628005
        0x000116cc:    00000000    ....    DCD    0
        0x000116d0:    302e3433    34.0    DCD    808334387
        0x000116d4:    5e542d65    e-T^    DCD    1582574949
        0x000116d8:    00000000    ....    DCD    0
        0x000116dc:    542e542d    -T.T    DCD    1412322349
        0x000116e0:    71542b2b    ++Tq    DCD    1901341483
        0x000116e4:    00000000    ....    DCD    0
        0x000116e8:    2e335431    1T3.    DCD    775115825
        0x000116ec:    7a346534    4e4z    DCD    2050254132
        0x000116f0:    00000000    ....    DCD    0
    Region$$Table$$Base
        0x000116f4:    00011724    $...    DCD    71460
        0x000116f8:    10001000    ....    DCD    268439552
        0x000116fc:    00000108    ....    DCD    264
        0x00011700:    0000c170    p...    DCD    49520
        0x00011704:    0001182c    ,...    DCD    71724
        0x00011708:    10001108    ....    DCD    268439816
        0x0001170c:    00000e30    0...    DCD    3632
        0x00011710:    0000c18c    ....    DCD    49548
        0x00011714:    0001182c    ,...    DCD    71724
        0x00011718:    10000000    ....    DCD    268435456
        0x0001171c:    00001000    ....    DCD    4096
        0x00011720:    0000c18c    ....    DCD    49548
    Region$$Table$$Limit

** Section #2 'RWMEM' (SHT_PROGBITS) [SHF_ALLOC + SHF_WRITE]
    Size   : 264 bytes (alignment 8)
    Address: 0x10001000

    0x10001000:   00 00 00 00 b0 d4 40 33 79 6a 14 e7 c1 e3 52 be    ......@3yj....R.
    0x10001010:   99 11 08 56 d7 1f 47 07 47 5e bf 39 a4 e5 3a 8e    ...V..G.G^.9..:.
    0x10001020:   84 8d 00 00 00 00 00 00 00 00 00 00 66 00 00 00    ............f...
    0x10001030:   d0 07 00 00 00 00 00 00 00 00 00 00 00 00 00 00    ................
    0x10001040:   00 00 00 00 00 00 00 00 00 00 00 00 00 00 00 00    ................
    0x10001050:   00 00 00 00 00 00 00 00 01 00 00 00 8c 16 01 00    ................
    0x10001060:   b4 16 01 00 bc 16 01 00 94 16 01 00 44 16 01 00    ............D...
    0x10001070:   5c 16 01 00 68 16 01 00 50 16 01 00 a8 16 01 00    \...h...P.......
    0x10001080:   74 16 01 00 9c 16 01 00 80 16 01 00 c4 16 01 00    t...............
    0x10001090:   dc 16 01 00 e8 16 01 00 d0 16 01 00 00 00 00 00    ................
    0x100010a0:   00 00 00 00 00 00 00 00 00 00 00 00 0a 00 00 00    ................
    0x100010b0:   03 00 00 00 1e 00 00 00 03 00 00 00 0f 00 00 00    ................
    0x100010c0:   03 00 00 00 0e 00 00 00 03 00 00 00 11 00 00 00    ................
    0x100010d0:   03 00 00 00 00 c2 01 00 60 00 00 00 00 00 00 00    ........`.......
    0x100010e0:   00 00 00 00 00 00 00 00 12 00 00 00 08 16 00 10    ................
    0x100010f0:   00 04 00 00 08 1a 00 10 00 04 00 00 00 00 00 00    ................
    0x10001100:   00 00 00 00 00 00 00 00                            ........


** Section #3 'RWMEM' (SHT_NOBITS) [SHF_ALLOC + SHF_WRITE]
    Size   : 3632 bytes (alignment 8)
    Address: 0x10001108


** Section #4 'STACKMEM' (SHT_NOBITS) [SHF_ALLOC + SHF_WRITE]
    Size   : 4096 bytes (alignment 8)
    Address: 0x10000000


** Section #5 '.debug_abbrev' (SHT_PROGBITS)
    Size   : 1476 bytes


** Section #6 '.debug_frame' (SHT_PROGBITS)
    Size   : 4780 bytes


** Section #7 '.debug_info' (SHT_PROGBITS)
    Size   : 40588 bytes


** Section #8 '.debug_line' (SHT_PROGBITS)
    Size   : 13800 bytes


** Section #9 '.debug_loc' (SHT_PROGBITS)
    Size   : 9492 bytes


** Section #10 '.debug_macinfo' (SHT_PROGBITS)
    Size   : 9712 bytes


** Section #11 '.debug_pubnames' (SHT_PROGBITS)
    Size   : 2515 bytes


** Section #12 '.symtab' (SHT_SYMTAB)
    Size   : 12640 bytes (alignment 4)
    String table #13 '.strtab'
    Last local symbol no. 530

    Symbol table .symtab (789 symbols, 530 local)

      #  Symbol Name                Value      Bind  Sec  Type  Vis  Size
    ========================================================================

      1  $d                         0x0000c000   Lc    1   --   De 
      2  $t                         0x0000c100   Lc    1   --   De 
      3  $d                         0x0000c130   Lc    1   --   De 
      4  $t                         0x0000c134   Lc    1   --   De 
      5  $d                         0x0000c168   Lc    1   --   De 
      6  $t                         0x0000c170   Lc    1   --   De 
      7  $d                         0x0000c21a   Lc    1   --   De 
      8  $t                         0x0000c228   Lc    1   --   De 
      9  $d                         0x0000c320   Lc    1   --   De 
     10  $t                         0x0000c324   Lc    1   --   De 
     11  $d                         0x0000c32c   Lc    1   --   De 
     12  $t                         0x0000c330   Lc    1   --   De 
     13  $d                         0x0000c33e   Lc    1   --   De 
     14  $t                         0x0000c344   Lc    1   --   De 
     15  $d                         0x0000c37e   Lc    1   --   De 
     16  $t                         0x0000c388   Lc    1   --   De 
     17  $d                         0x0000c3be   Lc    1   --   De 
     18  $t                         0x0000c3c8   Lc    1   --   De 
     19  $d                         0x0000c408   Lc    1   --   De 
     20  $t                         0x0000c41c   Lc    1   --   De 
     21  $d                         0x0000c458   Lc    1   --   De 
     22  $t                         0x0000c460   Lc    1   --   De 
     23  $d                         0x0000c4e0   Lc    1   --   De 
     24  $t                         0x0000c4e8   Lc    1   --   De 
     25  $d                         0x0000c5fe   Lc    1   --   De 
     26  $t                         0x0000c60c   Lc    1   --   De 
     27  $d                         0x0000c61c   Lc    1   --   De 
     28  $t                         0x0000c620   Lc    1   --   De 
     29  $d                         0x0000c688   Lc    1   --   De 
     30  $t                         0x0000c690   Lc    1   --   De 
     31  $d                         0x0000c7ca   Lc    1   --   De 
     32  $t                         0x0000c7dc   Lc    1   --   De 
     33  $d                         0x0000c8b2   Lc    1   --   De 
     34  $t                         0x0000c8c8   Lc    1   --   De 
     35  $d                         0x0000c90e   Lc    1   --   De 
     36  $t                         0x0000c914   Lc    1   --   De 
     37  $d                         0x0000c920   Lc    1   --   De 
     38  $t                         0x0000c932   Lc    1   --   De 
     39  $d                         0x0000ccb8   Lc    1   --   De 
     40  $t                         0x0000ccc0   Lc    1   --   De 
     41  $d                         0x0000ccce   Lc    1   --   De 
     42  $t                         0x0000ccd4   Lc    1   --   De 
     43  $d                         0x0000ccec   Lc    1   --   De 
     44  $t                         0x0000ccf6   Lc    1   --   De 
     45  $d                         0x0000cdc0   Lc    1   --   De 
     46  $t                         0x0000cdd0   Lc    1   --   De 
     47  $d                         0x0000cdfc   Lc    1   --   De 
     48  $t                         0x0000ce04   Lc    1   --   De 
     49  $d                         0x0000ce22   Lc    1   --   De 
     50  $t                         0x0000ce28   Lc    1   --   De 
     51  $d                         0x0000ce7e   Lc    1   --   De 
     52  $t                         0x0000ce84   Lc    1   --   De 
     53  $d                         0x0000ce88   Lc    1   --   De 
     54  $t                         0x0000ce8c   Lc    1   --   De 
     55  $d                         0x0000ceb0   Lc    1   --   De 
     56  $t                         0x0000ceb4   Lc    1   --   De 
     57  $d                         0x0000d0fe   Lc    1   --   De 
     58  $t                         0x0000d134   Lc    1   --   De 
     59  $d                         0x0000d172   Lc    1   --   De 
     60  $t                         0x0000d178   Lc    1   --   De 
     61  $d                         0x0000d2c8   Lc    1   --   De 
     62  $t                         0x0000d2ec   Lc    1   --   De 
     63  $d                         0x0000d38e   Lc    1   --   De 
     64  $t                         0x0000d3a0   Lc    1   --   De 
     65  $d                         0x0000d424   Lc    1   --   De 
     66  $t                         0x0000d430   Lc    1   --   De 
     67  $d                         0x0000d5a4   Lc    1   --   De 
     68  $t                         0x0000d5bc   Lc    1   --   De 
     69  $d                         0x0000d61e   Lc    1   --   De 
     70  $t                         0x0000d628   Lc    1   --   De 
     71  $d                         0x0000d6ee   Lc    1   --   De 
     72  $t                         0x0000d6f8   Lc    1   --   De 
     73  $d                         0x0000d760   Lc    1   --   De 
     74  $t                         0x0000d768   Lc    1   --   De 
     75  $d                         0x0000d800   Lc    1   --   De 
     76  $t                         0x0000d808   Lc    1   --   De 
     77  $d                         0x0000d83e   Lc    1   --   De 
     78  $t                         0x0000d844   Lc    1   --   De 
     79  $d                         0x0000d87a   Lc    1   --   De 
     80  $t                         0x0000d880   Lc    1   --   De 
     81  $d                         0x0000d95e   Lc    1   --   De 
     82  $t                         0x0000d964   Lc    1   --   De 
     83  $d                         0x0000d990   Lc    1   --   De 
     84  $t                         0x0000d994   Lc    1   --   De 
     85  $d                         0x0000dc10   Lc    1   --   De 
     86  $t                         0x0000dc2c   Lc    1   --   De 
     87  $d                         0x0000dc56   Lc    1   --   De 
     88  $t                         0x0000dc5c   Lc    1   --   De 
     89  $d                         0x0000dca8   Lc    1   --   De 
     90  $t                         0x0000dcb0   Lc    1   --   De 
     91  $d                         0x0000ddb0   Lc    1   --   De 
     92  $t                         0x0000ddb4   Lc    1   --   De 
     93  $d                         0x0000e134   Lc    1   --   De 
     94  $t                         0x0000e13c   Lc    1   --   De 
     95  $d                         0x0000e194   Lc    1   --   De 
     96  $t                         0x0000e198   Lc    1   --   De 
     97  $d                         0x0000e1fe   Lc    1   --   De 
     98  $t                         0x0000e230   Lc    1   --   De 
     99  $d                         0x0000e2fa   Lc    1   --   De 
    100  $t                         0x0000e304   Lc    1   --   De 
    101  $d                         0x0000e330   Lc    1   --   De 
    102  $t                         0x0000e338   Lc    1   --   De 
    103  $d                         0x0000e33e   Lc    1   --   De 
    104  $t                         0x0000e344   Lc    1   --   De 
    105  $d                         0x0000e778   Lc    1   --   De 
    106  $t                         0x0000e77c   Lc    1   --   De 
    107  $d                         0x0000ea8c   Lc    1   --   De 
    108  $t                         0x0000ea98   Lc    1   --   De 
    109  $d                         0x0000ecf8   Lc    1   --   De 
    110  $t                         0x0000ed00   Lc    1   --   De 
    111  $d                         0x0000ef2a   Lc    1   --   De 
    112  $t                         0x0000ef32   Lc    1   --   De 
    113  $d                         0x0000efbc   Lc    1   --   De 
    114  $t                         0x0000efc4   Lc    1   --   De 
    115  $d                         0x0000f0cc   Lc    1   --   De 
    116  $t                         0x0000f0d4   Lc    1   --   De 
    117  $d                         0x0000f3e0   Lc    1   --   De 
    118  $t                         0x0000f3e6   Lc    1   --   De 
    119  $d                         0x0000f402   Lc    1   --   De 
    120  $t                         0x0000f418   Lc    1   --   De 
    121  $d                         0x0000f422   Lc    1   --   De 
    122  $t                         0x0000f428   Lc    1   --   De 
    123  $d                         0x0000f44c   Lc    1   --   De 
    124  $t                         0x0000f450   Lc    1   --   De 
    125  $d                         0x0000f88a   Lc    1   --   De 
    126  $t                         0x0000fa84   Lc    1   --   De 
    127  $d                         0x0000fc62   Lc    1   --   De 
    128  $t                         0x0000fe1c   Lc    1   --   De 
    129  $d                         0x000102c2   Lc    1   --   De 
    130  $t                         0x000102fc   Lc    1   --   De 
    131  $d                         0x000103f4   Lc    1   --   De 
    132  $t                         0x000105ac   Lc    1   --   De 
    133  $d                         0x000106cc   Lc    1   --   De 
    134  $t                         0x000106d4   Lc    1   --   De 
    135  $d                         0x0001071e   Lc    1   --   De 
    136  $t                         0x0001072c   Lc    1   --   De 
    137  $d                         0x0001075e   Lc    1   --   De 
    138  $t                         0x00010770   Lc    1   --   De 
    139  $d                         0x000107ae   Lc    1   --   De 
    140  $t                         0x000107c8   Lc    1   --   De 
    141  $d                         0x000109fc   Lc    1   --   De 
    142  $t                         0x00010a00   Lc    1   --   De 
    143  $d                         0x00010a50   Lc    1   --   De 
    144  $t                         0x00010a54   Lc    1   --   De 
    145  $d                         0x00010c78   Lc    1   --   De 
    146  $t                         0x00010c7c   Lc    1   --   De 
    147  $d                         0x00010ca4   Lc    1   --   De 
    148  $t                         0x00010d2c   Lc    1   --   De 
    149  $d                         0x00010d7c   Lc    1   --   De 
    150  $t                         0x00010d80   Lc    1   --   De 
    151  $d                         0x00010e14   Lc    1   --   De 
    152  $t                         0x00010e18   Lc    1   --   De 
    153  $d                         0x00010e94   Lc    1   --   De 
    154  $t                         0x00010e98   Lc    1   --   De 
    155  $d                         0x00010f74   Lc    1   --   De 
    156  $t                         0x00010f78   Lc    1   --   De 
    157  $d                         0x00010ffa   Lc    1   --   De 
    158  $t                         0x00010ffe   Lc    1   --   De 
    159  $d.realdata                0x00011030   Lc    1   --   De 
    160  $d.realdata                0x10001000   Lc    2   --   De 
    161  $d.realdata                0x10000000   Lc    4   --   De 
    162  ..\src\am_time.c           0x00000000   Lc  Abs  File  De 
    163  ../src/am_time.c           0x00000000   Lc  Abs  File  De 
    164  i.SysTick_Handler          0x0000c334   Lc    1  Sect  De 
    165  .data                      0x10001000   Lc    2  Sect  De   0x4
    166  ../src/coremark.c          0x00000000   Lc  Abs  File  De 
    167  ..\src\core_list_join.c    0x00000000   Lc  Abs  File  De 
    168  ../src/core_list_join.c    0x00000000   Lc  Abs  File  De 
    169  i.calc_func                0x0000ea98   Lc    1  Sect  De 
    170  i.cmp_complex              0x0000eb2a   Lc    1  Sect  De 
    171  i.cmp_idx                  0x0000eb44   Lc    1  Sect  De 
    172  i.core_bench_list          0x0000eb70   Lc    1  Sect  De 
    173  i.core_list_init           0x0000efc4   Lc    1  Sect  De 
    174  i.core_list_mergesort      0x0000f0d4   Lc    1  Sect  De 
    175  ..\src\core_main.c         0x00000000   Lc  Abs  File  De 
    176  ../src/core_main.c         0x00000000   Lc  Abs  File  De 
    177  i.main                     0x0000f428   Lc    1  Sect  De 
    178  i.main_loop                0x0000f450   Lc    1  Sect  De 
    179  .conststring               0x00011594   Lc    1  Sect  De   0xae
    180  .data                      0x10001004   Lc    2  Sect  De   0x1e
    181  list_known_crc             0x10001004   Lc    2  Data  De   0xa
    182  matrix_known_crc           0x1000100e   Lc    2  Data  De   0xa
    183  state_known_crc            0x10001018   Lc    2  Data  De   0xa
    184  ..\src\core_matrix.c       0x00000000   Lc  Abs  File  De 
    185  ../src/core_matrix.c       0x00000000   Lc  Abs  File  De 
    186  i.core_bench_matrix        0x0000ed00   Lc    1  Sect  De 
    187  i.core_init_matrix         0x0000ee10   Lc    1  Sect  De 
    188  i.matrix_sum               0x0000fe1c   Lc    1  Sect  De 
    189  i.matrix_test              0x0000fe78   Lc    1  Sect  De 
    190  ..\src\core_portme.c       0x00000000   Lc  Abs  File  De 
    191  ../src/core_portme.c       0x00000000   Lc  Abs  File  De 
    192  i.am_sprintf               0x0000e198   Lc    1  Sect  De 
    193  i.get_time                 0x0000f418   Lc    1  Sect  De 
    194  i.portable_fini            0x00010208   Lc    1  Sect  De 
    195  i.portable_init            0x000102fc   Lc    1  Sect  De 
    196  i.start_time               0x000106d4   Lc    1  Sect  De 
    197  i.stop_time                0x0001072c   Lc    1  Sect  De 
    198  i.time_in_secs             0x00010770   Lc    1  Sect  De 
    199  .bss                       0x10001108   Lc    3  Sect  De   0x400
    200  .constdata                 0x00011030   Lc    1  Sect  De   0x3
    201  .data                      0x10001024   Lc    2  Sect  De   0x4
    202  .data                      0x10001028   Lc    2  Sect  De   0x4
    203  .data                      0x1000102c   Lc    2  Sect  De   0x4
    204  .data                      0x10001030   Lc    2  Sect  De   0x4
    205  .data                      0x10001034   Lc    2  Sect  De   0x4
    206  .data                      0x10001038   Lc    2  Sect  De   0x20
    207  start_time_val             0x10001048   Lc    2  Data  De   0x8
    208  stop_time_val              0x10001050   Lc    2  Data  De   0x8
    209  .data                      0x10001058   Lc    2  Sect  De   0x4
    210  ..\src\core_state.c        0x00000000   Lc  Abs  File  De 
    211  ../src/core_state.c        0x00000000   Lc  Abs  File  De 
    212  i.core_bench_state         0x0000ed22   Lc    1  Sect  De 
    213  i.core_init_state          0x0000eeb8   Lc    1  Sect  De 
    214  i.core_state_transition    0x0000f17a   Lc    1  Sect  De 
    215  .conststring               0x00011644   Lc    1  Sect  De   0xad
    216  .data                      0x1000105c   Lc    2  Sect  De   0x40
    217  intpat                     0x1000105c   Lc    2  Data  De   0x10
    218  floatpat                   0x1000106c   Lc    2  Data  De   0x10
    219  scipat                     0x1000107c   Lc    2  Data  De   0x10
    220  errpat                     0x1000108c   Lc    2  Data  De   0x10
    221  ..\src\core_util.c         0x00000000   Lc  Abs  File  De 
    222  ../src/core_util.c         0x00000000   Lc  Abs  File  De 
    223  i.check_data_types         0x0000eb26   Lc    1  Sect  De 
    224  i.crc16                    0x0000f324   Lc    1  Sect  De 
    225  i.crcu16                   0x0000f374   Lc    1  Sect  De 
    226  i.crcu32                   0x0000f3be   Lc    1  Sect  De 
    227  i.get_seed_32              0x0000f3d8   Lc    1  Sect  De 
    228  ..\..\..\..\..\utils\am_util_delay.c
                                    0x00000000   Lc  Abs  File  De 
    229  ../../../../../utils/am_util_delay.c
                                    0x00000000   Lc  Abs  File  De 
    230  i.am_util_delay_ms         0x0000e230   Lc    1  Sect  De 
    231  ..\..\..\..\..\utils\am_util_faultisr.c
                                    0x00000000   Lc  Abs  File  De 
    232  .emb_text                  0x0000c1d4   Lc    1  Sect  De   0x22
    233  $v0                        0x0000c1d4   Lc    1   --   De 
    234  ../../../../../utils/am_util_faultisr.c
                                    0x00000000   Lc  Abs  File  De 
    235  i.am_util_faultisr_collect_data
                                    0x0000e250   Lc    1  Sect  De 
    236  ../../../../../utils/am_util_stdio.c
                                    0x00000000   Lc  Abs  File  De 
    237  i.am_util_stdio_printf     0x0000e304   Lc    1  Sect  De 
    238  i.am_util_stdio_printf_init
                                    0x0000e338   Lc    1  Sect  De 
    239  i.am_util_stdio_sprintf    0x0000e344   Lc    1  Sect  De 
    240  i.am_util_stdio_vsprintf   0x0000e358   Lc    1  Sect  De 
    241  i.ndigits_in_u64           0x00010142   Lc    1  Sect  De 
    242  ndigits_in_u64             0x00010143   Lc    1  Code  De   0xc6
    243  i.uint64_to_str            0x000107c8   Lc    1  Sect  De 
    244  uint64_to_str              0x000107c9   Lc    1  Code  De   0x126
    245  .bss                       0x10001508   Lc    3  Sect  De   0x100
    246  g_prfbuf                   0x10001508   Lc    3  Data  De   0x100
    247  .data                      0x1000109c   Lc    2  Sect  De   0x8
    248  g_bTxtXlate                0x1000109c   Lc    2  Data  De   0x1
    249  ..\..\..\..\..\devices\am_devices_led.c
                                    0x00000000   Lc  Abs  File  De 
    250  ../../../../../devices/am_devices_led.c
                                    0x00000000   Lc  Abs  File  De 
    251  i.am_devices_led_array_init
                                    0x0000c460   Lc    1  Sect  De 
    252  i.am_devices_led_array_out 0x0000c4e8   Lc    1  Sect  De 
    253  ../keil/startup_keil.s     0x00000000   Lc  Abs  File  De 
    254  STACK                      0x10000000   Lc    4  Sect  De   0x1000
    255  StackMem                   0x10000000   Lc    4  Data  De 
    256  HEAP                       0x10001f38   Lc    3  Sect  De 
    257  HeapMem                    0x10001f38   Lc    3  Data  De 
    258  RESET                      0x0000c000   Lc    1  Sect  De   0x134
    259  $v0                        0x0000c100   Lc    1   --   De 
    260  .text                      0x0000c210   Lc    1  Sect  De   0x18
    261  $v0                        0x0000c210   Lc    1   --   De 
    262  ..\am_hal_global.c         0x00000000   Lc  Abs  File  De 
    263  ../am_hal_global.c         0x00000000   Lc  Abs  File  De 
    264  ..\am_bsp.c                0x00000000   Lc  Abs  File  De 
    265  ../am_bsp.c                0x00000000   Lc  Abs  File  De 
    266  i.am_bsp_low_power_init    0x0000c344   Lc    1  Sect  De 
    267  i.am_bsp_uart_printf_disable
                                    0x0000c388   Lc    1  Sect  De 
    268  i.am_bsp_uart_printf_enable
                                    0x0000c3c8   Lc    1  Sect  De 
    269  i.am_bsp_uart_string_print 0x0000c41c   Lc    1  Sect  De 
    270  .bss                       0x10001608   Lc    3  Sect  De   0x400
    271  pui8UartTxBuffer           0x10001608   Lc    3  Data  De   0x400
    272  .bss                       0x10001a08   Lc    3  Sect  De   0x400
    273  pui8UartRxBuffer           0x10001a08   Lc    3  Data  De   0x400
    274  .constdata                 0x00011034   Lc    1  Sect  De   0x3c
    275  g_sBspUartConfig           0x00011034   Lc    1  Data  De   0x28
    276  .data                      0x100010a4   Lc    2  Sect  De   0x58
    277  g_ui32PrintInterface       0x100010a4   Lc    2  Data  De   0x4
    278  g_sCOMUART                 0x100010a8   Lc    2  Data  De   0x4
    279  g_sBspUartBufferedConfig   0x100010d4   Lc    2  Data  De   0x28
    280  ..\am_hal_burst.c          0x00000000   Lc  Abs  File  De 
    281  ../am_hal_burst.c          0x00000000   Lc  Abs  File  De 
    282  i.am_hal_burst_ldo_charge  0x0000c560   Lc    1  Sect  De 
    283  i.am_hal_burst_ldo_patch_check
                                    0x0000c60c   Lc    1  Sect  De 
    284  i.am_hal_burst_mode_enable 0x0000c620   Lc    1  Sect  De 
    285  i.am_hal_burst_mode_enable_w_manual_sequence
                                    0x0000c690   Lc    1  Sect  De 
    286  i.am_hal_burst_mode_initialize
                                    0x0000c7dc   Lc    1  Sect  De 
    287  .data                      0x100010fc   Lc    2  Sect  De   0x3
    288  g_bEnFromManual            0x100010fd   Lc    2  Data  De   0x1
    289  g_bDisFromManual           0x100010fe   Lc    2  Data  De   0x1
    290  ..\am_hal_cachectrl.c      0x00000000   Lc  Abs  File  De 
    291  ../am_hal_cachectrl.c      0x00000000   Lc  Abs  File  De 
    292  i.am_hal_cachectrl_config  0x0000c8c8   Lc    1  Sect  De 
    293  i.am_hal_cachectrl_control 0x0000c914   Lc    1  Sect  De 
    294  i.am_hal_cachectrl_enable  0x0000ccc0   Lc    1  Sect  De 
    295  ..\am_hal_clkgen.c         0x00000000   Lc  Abs  File  De 
    296  ../am_hal_clkgen.c         0x00000000   Lc  Abs  File  De 
    297  i.am_hal_clkgen_control    0x0000ccd4   Lc    1  Sect  De 
    298  i.am_hal_clkgen_status_get 0x0000cdd0   Lc    1  Sect  De 
    299  ..\am_hal_flash.c          0x00000000   Lc  Abs  File  De 
    300  ../am_hal_flash.c          0x00000000   Lc  Abs  File  De 
    301  i.am_hal_flash_delay       0x0000ce04   Lc    1  Sect  De 
    302  i.am_hal_flash_delay_status_check
                                    0x0000ce28   Lc    1  Sect  De 
    303  i.am_hal_flash_load_ui32   0x0000ce84   Lc    1  Sect  De 
    304  i.am_hal_flash_store_ui32  0x0000ce8c   Lc    1  Sect  De 
    305  .constdata                 0x00011070   Lc    1  Sect  De   0xc
    306  ..\am_hal_gpio.c           0x00000000   Lc  Abs  File  De 
    307  ../am_hal_gpio.c           0x00000000   Lc  Abs  File  De 
    308  i.am_hal_gpio_pinconfig    0x0000ceb4   Lc    1  Sect  De 
    309  i.am_hal_gpio_state_write  0x0000d134   Lc    1  Sect  De 
    310  .constdata                 0x0001107c   Lc    1  Sect  De   0x20a
    311  g_ui8Inpen                 0x00011080   Lc    1  Data  De   0x4a
    312  g_ui8Bit76Capabilities     0x000110ca   Lc    1  Data  De   0x4a
    313  g_ui8nCEpins               0x00011114   Lc    1  Data  De   0x4a
    314  g_ui8NCEtable              0x0001115e   Lc    1  Data  De   0x128
    315  .constdata                 0x00011288   Lc    1  Sect  De   0x4
    316  .constdata                 0x0001128c   Lc    1  Sect  De   0x4
    317  ..\am_hal_interrupt.c      0x00000000   Lc  Abs  File  De 
    318  .emb_text                  0x0000c1f8   Lc    1  Sect  De   0x16
    319  $v0                        0x0000c1f8   Lc    1   --   De 
    320  ../am_hal_interrupt.c      0x00000000   Lc  Abs  File  De 
    321  ..\am_hal_mcuctrl.c        0x00000000   Lc  Abs  File  De 
    322  ../am_hal_mcuctrl.c        0x00000000   Lc  Abs  File  De 
    323  i.am_hal_mcuctrl_info_get  0x0000d1b4   Lc    1  Sect  De 
    324  .constdata                 0x00011290   Lc    1  Sect  De   0x80
    325  ..\am_hal_pwrctrl.c        0x00000000   Lc  Abs  File  De 
    326  ../am_hal_pwrctrl.c        0x00000000   Lc  Abs  File  De 
    327  i.am_hal_pwrctrl_bleif_workaround
                                    0x0000d2ec   Lc    1  Sect  De 
    328  i.am_hal_pwrctrl_ldo_vddx_active_trim_adj_default
                                    0x0000d3a0   Lc    1  Sect  De 
    329  i.am_hal_pwrctrl_low_power_init
                                    0x0000d430   Lc    1  Sect  De 
    330  i.am_hal_pwrctrl_memory_enable
                                    0x0000d5bc   Lc    1  Sect  De 
    331  i.am_hal_pwrctrl_periph_disable
                                    0x0000d628   Lc    1  Sect  De 
    332  i.am_hal_pwrctrl_periph_enable
                                    0x0000d6f8   Lc    1  Sect  De 
    333  i.am_hal_pwrctrl_simobuck_vddx_active_trim_adj_default
                                    0x0000d768   Lc    1  Sect  De 
    334  i.am_hal_pwrctrl_wa_vddf_boost
                                    0x0000d808   Lc    1  Sect  De 
    335  i.am_hal_pwrctrl_wa_vddf_restore
                                    0x0000d844   Lc    1  Sect  De 
    336  .constdata                 0x00011310   Lc    1  Sect  De   0x27c
    337  .data                      0x100010ff   Lc    2  Sect  De   0x2
    338  ..\am_hal_sysctrl.c        0x00000000   Lc  Abs  File  De 
    339  ../am_hal_sysctrl.c        0x00000000   Lc  Abs  File  De 
    340  i.am_hal_sysctrl_fpu_enable
                                    0x0000d954   Lc    1  Sect  De 
    341  i.am_hal_sysctrl_fpu_stacking_enable
                                    0x0000d964   Lc    1  Sect  De 
    342  ..\am_hal_systick.c        0x00000000   Lc  Abs  File  De 
    343  ../am_hal_systick.c        0x00000000   Lc  Abs  File  De 
    344  i.am_hal_systick_count     0x0000d994   Lc    1  Sect  De 
    345  i.am_hal_systick_int_enable
                                    0x0000d99c   Lc    1  Sect  De 
    346  i.am_hal_systick_load      0x0000d9aa   Lc    1  Sect  De 
    347  i.am_hal_systick_reset     0x0000d9b6   Lc    1  Sect  De 
    348  i.am_hal_systick_start     0x0000d9c0   Lc    1  Sect  De 
    349  i.am_hal_systick_stop      0x0000d9ce   Lc    1  Sect  De 
    350  ..\am_bsp_pins.c           0x00000000   Lc  Abs  File  De 
    351  ../am_bsp_pins.c           0x00000000   Lc  Abs  File  De 
    352  .constdata                 0x0001158c   Lc    1  Sect  De   0x4
    353  .constdata                 0x00011590   Lc    1  Sect  De   0x4
    354  ..\am_hal_itm.c            0x00000000   Lc  Abs  File  De 
    355  ../am_hal_itm.c            0x00000000   Lc  Abs  File  De 
    356  ..\am_hal_reset.c          0x00000000   Lc  Abs  File  De 
    357  ../am_hal_reset.c          0x00000000   Lc  Abs  File  De 
    358  .data                      0x10001104   Lc    2  Sect  De   0x4
    359  ..\am_hal_rtc.c            0x00000000   Lc  Abs  File  De 
    360  ../am_hal_rtc.c            0x00000000   Lc  Abs  File  De 
    361  i.am_hal_rtc_osc_disable   0x0000d940   Lc    1  Sect  De 
    362  ..\am_hal_tpiu.c           0x00000000   Lc  Abs  File  De 
    363  ../am_hal_tpiu.c           0x00000000   Lc  Abs  File  De 
    364  ..\am_hal_uart.c           0x00000000   Lc  Abs  File  De 
    365  ../am_hal_uart.c           0x00000000   Lc  Abs  File  De 
    366  i.am_hal_uart_configure    0x0000d9dc   Lc    1  Sect  De 
    367  i.am_hal_uart_deinitialize 0x0000dc2c   Lc    1  Sect  De 
    368  i.am_hal_uart_initialize   0x0000dc5c   Lc    1  Sect  De 
    369  i.am_hal_uart_power_control
                                    0x0000dcb0   Lc    1  Sect  De 
    370  i.am_hal_uart_transfer     0x0000ddb4   Lc    1  Sect  De 
    371  i.am_hal_uart_tx_flush     0x0000e13c   Lc    1  Sect  De 
    372  i.read_nonblocking         0x000105ac   Lc    1  Sect  De 
    373  read_nonblocking           0x000105ad   Lc    1  Code  De   0x120
    374  i.write_nonblocking        0x000108f0   Lc    1  Sect  De 
    375  write_nonblocking          0x000108f1   Lc    1  Code  De   0x10c
    376  .bss                       0x10001e08   Lc    3  Sect  De   0xd0
    377  g_am_hal_uart_states       0x10001e08   Lc    3  Data  De   0xd0
    378  ..\am_hal_queue.c          0x00000000   Lc  Abs  File  De 
    379  ../am_hal_queue.c          0x00000000   Lc  Abs  File  De 
    380  i.am_hal_queue_init        0x0000d880   Lc    1  Sect  De 
    381  i.am_hal_queue_item_add    0x0000d898   Lc    1  Sect  De 
    382  i.am_hal_queue_item_get    0x0000d8ee   Lc    1  Sect  De 
    383  dc.s                       0x00000000   Lc  Abs  File  De 
    384  ../clib/longlong.s         0x00000000   Lc  Abs  File  De 
    385  ../clib/memcpset.s         0x00000000   Lc  Abs  File  De 
    386  .text                      0x0000c228   Lc    1  Sect  De   0x44
    387  ../clib/heapaux.c          0x00000000   Lc  Abs  File  De 
    388  .text                      0x0000c26c   Lc    1  Sect  De 
    389  ../clib/angel/startup.s    0x00000000   Lc  Abs  File  De 
    390  !!!main                    0x0000c134   Lc    1  Sect  De   0x8
    391  ../fplib/d2f.s             0x00000000   Lc  Abs  File  De 
    392  x$fpl$d2f                  0x00010a00   Lc    1  Sect  De   0x62
    393  $v0                        0x00010a00   Lc    1   --   De 
    394  ../fplib/ddiv.s            0x00000000   Lc  Abs  File  De 
    395  x$fpl$ddiv                 0x00010a7c   Lc    1  Sect  De   0x2b0
    396  $v0                        0x00010a7c   Lc    1   --   De 
    397  ddiv_entry                 0x00010a83   Lc    1  Code  De 
    398  ../fplib/dfixu.s           0x00000000   Lc  Abs  File  De 
    399  x$fpl$dfixu                0x00010d2c   Lc    1  Sect  De   0x5a
    400  $v0                        0x00010d2c   Lc    1   --   De 
    401  ../fplib/dflt.s            0x00000000   Lc  Abs  File  De 
    402  x$fpl$dfltu                0x00010d86   Lc    1  Sect  De   0x26
    403  $v0                        0x00010d86   Lc    1   --   De 
    404  ../fplib/dleqf.s           0x00000000   Lc  Abs  File  De 
    405  x$fpl$dleqf                0x00010dac   Lc    1  Sect  De   0x78
    406  $v0                        0x00010dac   Lc    1   --   De 
    407  ../fplib/drleqf.s          0x00000000   Lc  Abs  File  De 
    408  x$fpl$drleqf               0x00010ecc   Lc    1  Sect  De   0x6c
    409  $v0                        0x00010ecc   Lc    1   --   De 
    410  ../fplib/f2d.s             0x00000000   Lc  Abs  File  De 
    411  x$fpl$f2d                  0x00010f38   Lc    1  Sect  De   0x56
    412  $v0                        0x00010f38   Lc    1   --   De 
    413  ../clib/angel/kernel.s     0x00000000   Lc  Abs  File  De 
    414  .ARM.Collect$$rtentry$$00000000
                                    0x0000c1b4   Lc    1  Sect  De 
    415  ../clib/memcpset.s         0x00000000   Lc  Abs  File  De 
    416  .text                      0x0000c272   Lc    1  Sect  De   0x4e
    417  ../fplib/dcmpi.s           0x00000000   Lc  Abs  File  De 
    418  x$fpl$dcmpinf              0x00010a62   Lc    1  Sect  De   0x18
    419  $v0                        0x00010a62   Lc    1   --   De 
    420  ../fplib/dnaninf.s         0x00000000   Lc  Abs  File  De 
    421  x$fpl$dnaninf              0x00010e24   Lc    1  Sect  De   0x9c
    422  $v0                        0x00010e24   Lc    1   --   De 
    423  ../fplib/dretinf.s         0x00000000   Lc  Abs  File  De 
    424  x$fpl$dretinf              0x00010ec0   Lc    1  Sect  De   0xc
    425  $v0                        0x00010ec0   Lc    1   --   De 
    426  ../fplib/fnaninf.s         0x00000000   Lc  Abs  File  De 
    427  x$fpl$fnaninf              0x00010f8e   Lc    1  Sect  De   0x8c
    428  $v0                        0x00010f8e   Lc    1   --   De 
    429  ../fplib/fretinf.s         0x00000000   Lc  Abs  File  De 
    430  x$fpl$fretinf              0x00011024   Lc    1  Sect  De   0xa
    431  $v0                        0x00011024   Lc    1   --   De 
    432  ../fplib/usenofp.s         0x00000000   Lc  Abs  File  De 
    433  x$fpl$usenofp              0x0001102e   Lc    1  Sect  De 
    434  ../clib/angel/kernel.s     0x00000000   Lc  Abs  File  De 
    435  .ARM.Collect$$rtentry$$00000002
                                    0x0000c1b4   Lc    1  Sect  De 
    436  .ARM.Collect$$rtentry$$00000009
                                    0x0000c1ba   Lc    1  Sect  De 
    437  .ARM.Collect$$rtentry$$0000000A
                                    0x0000c1ba   Lc    1  Sect  De   0x4
    438  .ARM.Collect$$rtentry$$0000000C
                                    0x0000c1be   Lc    1  Sect  De 
    439  .ARM.Collect$$rtentry$$0000000D
                                    0x0000c1be   Lc    1  Sect  De   0x8
    440  ../clib/angel/kernel.s     0x00000000   Lc  Abs  File  De 
    441  .ARM.Collect$$rtentry$$00000004
                                    0x0000c1b4   Lc    1  Sect  De   0x6
    442  ../clib/angel/sys.s        0x00000000   Lc  Abs  File  De 
    443  .text                      0x0000c2c0   Lc    1  Sect  De   0x4a
    444  ../clib/stdlib.c           0x00000000   Lc  Abs  File  De 
    445  .text                      0x0000c30a   Lc    1  Sect  De 
    446  ../clib/angel/boardlib.s   0x00000000   Lc  Abs  File  De 
    447  ../clib/angel/boardlib.s   0x00000000   Lc  Abs  File  De 
    448  ../clib/angel/boardlib.s   0x00000000   Lc  Abs  File  De 
    449  ../clib/libinit.s          0x00000000   Lc  Abs  File  De 
    450  .ARM.Collect$$libinit$$00000000
                                    0x0000c1a8   Lc    1  Sect  De   0x2
    451  ../clib/angel/sys.s        0x00000000   Lc  Abs  File  De 
    452  .text                      0x0000c31c   Lc    1  Sect  De   0x8
    453  .bss                       0x10001ed8   Lc    3  Sect  De   0x60
    454  ../clib/angel/kernel.s     0x00000000   Lc  Abs  File  De 
    455  .ARM.Collect$$rtexit$$00000000
                                    0x0000c1c6   Lc    1  Sect  De   0x2
    456  ../clib/libinit.s          0x00000000   Lc  Abs  File  De 
    457  .ARM.Collect$$libinit$$00000001
                                    0x0000c1aa   Lc    1  Sect  De   0x4
    458  .ARM.Collect$$libinit$$00000004
                                    0x0000c1ae   Lc    1  Sect  De 
    459  .ARM.Collect$$libinit$$0000000A
                                    0x0000c1ae   Lc    1  Sect  De 
    460  .ARM.Collect$$libinit$$0000000C
                                    0x0000c1ae   Lc    1  Sect  De 
    461  .ARM.Collect$$libinit$$0000000E
                                    0x0000c1ae   Lc    1  Sect  De 
    462  .ARM.Collect$$libinit$$00000011
                                    0x0000c1ae   Lc    1  Sect  De 
    463  .ARM.Collect$$libinit$$00000013
                                    0x0000c1ae   Lc    1  Sect  De 
    464  .ARM.Collect$$libinit$$00000015
                                    0x0000c1ae   Lc    1  Sect  De 
    465  .ARM.Collect$$libinit$$00000017
                                    0x0000c1ae   Lc    1  Sect  De 
    466  .ARM.Collect$$libinit$$00000019
                                    0x0000c1ae   Lc    1  Sect  De 
    467  .ARM.Collect$$libinit$$0000001B
                                    0x0000c1ae   Lc    1  Sect  De 
    468  .ARM.Collect$$libinit$$0000001D
                                    0x0000c1ae   Lc    1  Sect  De 
    469  .ARM.Collect$$libinit$$0000001F
                                    0x0000c1ae   Lc    1  Sect  De 
    470  .ARM.Collect$$libinit$$00000021
                                    0x0000c1ae   Lc    1  Sect  De 
    471  .ARM.Collect$$libinit$$00000023
                                    0x0000c1ae   Lc    1  Sect  De 
    472  .ARM.Collect$$libinit$$00000025
                                    0x0000c1ae   Lc    1  Sect  De 
    473  .ARM.Collect$$libinit$$0000002C
                                    0x0000c1ae   Lc    1  Sect  De 
    474  .ARM.Collect$$libinit$$0000002E
                                    0x0000c1ae   Lc    1  Sect  De 
    475  .ARM.Collect$$libinit$$00000030
                                    0x0000c1ae   Lc    1  Sect  De 
    476  .ARM.Collect$$libinit$$00000032
                                    0x0000c1ae   Lc    1  Sect  De 
    477  .ARM.Collect$$libinit$$00000033
                                    0x0000c1ae   Lc    1  Sect  De   0x2
    478  ../clib/angel/kernel.s     0x00000000   Lc  Abs  File  De 
    479  .ARM.Collect$$rtexit$$00000002
                                    0x0000c1c8   Lc    1  Sect  De 
    480  .ARM.Collect$$rtexit$$00000003
                                    0x0000c1c8   Lc    1  Sect  De   0x4
    481  .ARM.Collect$$rtexit$$00000004
                                    0x0000c1cc   Lc    1  Sect  De   0x6
    482  ../clib/armsys.c           0x00000000   Lc  Abs  File  De 
    483  ../clib/armsys.c           0x00000000   Lc  Abs  File  De 
    484  ../fplib/fpinit.s          0x00000000   Lc  Abs  File  De 
    485  x$fpl$fpinit               0x0001101a   Lc    1  Sect  De   0xa
    486  $v0                        0x0001101a   Lc    1   --   De 
    487  ../clib/angel/sysapp.c     0x00000000   Lc  Abs  File  De 
    488  .text                      0x0000c324   Lc    1  Sect  De 
    489  ../clib/angel/boardlib.s   0x00000000   Lc  Abs  File  De 
    490  ../clib/armsys.c           0x00000000   Lc  Abs  File  De 
    491  ../clib/armsys.c           0x00000000   Lc  Abs  File  De 
    492  ../clib/libinit.s          0x00000000   Lc  Abs  File  De 
    493  .ARM.Collect$$libshutdown$$00000000
                                    0x0000c1b0   Lc    1  Sect  De   0x2
    494  ../clib/angel/sysapp.c     0x00000000   Lc  Abs  File  De 
    495  ../clib/angel/sys.s        0x00000000   Lc  Abs  File  De 
    496  .text                      0x0000c330   Lc    1  Sect  De   0x2
    497  ../clib/angel/sys.s        0x00000000   Lc  Abs  File  De 
    498  .text                      0x0000c332   Lc    1  Sect  De 
    499  ../clib/heapalloc.c        0x00000000   Lc  Abs  File  De 
    500  ../clib/signal.c           0x00000000   Lc  Abs  File  De 
    501  ../clib/signal.c           0x00000000   Lc  Abs  File  De 
    502  ../clib/libinit.s          0x00000000   Lc  Abs  File  De 
    503  .ARM.Collect$$libshutdown$$00000002
                                    0x0000c1b2   Lc    1  Sect  De 
    504  .ARM.Collect$$libshutdown$$00000004
                                    0x0000c1b2   Lc    1  Sect  De 
    505  .ARM.Collect$$libshutdown$$00000007
                                    0x0000c1b2   Lc    1  Sect  De 
    506  .ARM.Collect$$libshutdown$$0000000A
                                    0x0000c1b2   Lc    1  Sect  De 
    507  .ARM.Collect$$libshutdown$$0000000C
                                    0x0000c1b2   Lc    1  Sect  De 
    508  .ARM.Collect$$libshutdown$$0000000F
                                    0x0000c1b2   Lc    1  Sect  De 
    509  .ARM.Collect$$libshutdown$$00000010
                                    0x0000c1b2   Lc    1  Sect  De   0x2
    510  ../clib/angel/rt.s         0x00000000   Lc  Abs  File  De 
    511  ../clib/signal.c           0x00000000   Lc  Abs  File  De 
    512  ../clib/signal.c           0x00000000   Lc  Abs  File  De 
    513  ../clib/signal.c           0x00000000   Lc  Abs  File  De 
    514  ../clib/signal.c           0x00000000   Lc  Abs  File  De 
    515  ../clib/angel/sysapp.c     0x00000000   Lc  Abs  File  De 
    516  ../clib/signal.s           0x00000000   Lc  Abs  File  De 
    517  ../clib/signal.c           0x00000000   Lc  Abs  File  De 
    518  ../clib/signal.c           0x00000000   Lc  Abs  File  De 
    519  ../clib/signal.c           0x00000000   Lc  Abs  File  De 
    520  ../clib/signal.c           0x00000000   Lc  Abs  File  De 
    521  ../clib/signal.c           0x00000000   Lc  Abs  File  De 
    522  ../clib/signal.c           0x00000000   Lc  Abs  File  De 
    523  ../clib/signal.c           0x00000000   Lc  Abs  File  De 
    524  ../clib/signal.c           0x00000000   Lc  Abs  File  De 
    525  ../clib/angel/scatter.s    0x00000000   Lc  Abs  File  De 
    526  !!!scatter                 0x0000c13c   Lc    1  Sect  De   0x34
    527  ../clib/angel/handlers.s   0x00000000   Lc  Abs  File  De 
    528  !!handler_copy             0x0000c170   Lc    1  Sect  De   0x1a
    529  ../clib/angel/handlers.s   0x00000000   Lc  Abs  File  De 
    530  !!handler_zi               0x0000c18c   Lc    1  Sect  De   0x1c
    531  BuildAttributes$$THM_ISAv4$E$P$D$K$B$S$7EM$VFPi3$EXTD16$VFPS$VFMA$PE$A:L22UL41UL21$X:L11$S22US41US21$IEEE1$IW$USESV6$~STKCKD$USESV7$~SHL$OTIME$ROPI$EBA8$UX$STANDARDLIB$REQ8$PRES8$EABIv2
                                    0x00000000   Gb  Abs   --   Hi 
    532  __ARM_use_no_argv          0x00000000   Gb  Abs   --   Hi 
    533  __Vectors                  0x0000c000   Gb    1  Data  Hi 
    534  __Patchable                0x0000c0c8   Gb    1  Data  Hi 
    535  Reset_Handler              0x0000c101   Wk    1  Code  Hi   0x1c
    536  NMI_Handler                0x0000c11f   Wk    1  Code  Hi   0x2
    537  MemManage_Handler          0x0000c121   Wk    1  Code  Hi   0x2
    538  BusFault_Handler           0x0000c123   Wk    1  Code  Hi   0x2
    539  UsageFault_Handler         0x0000c125   Wk    1  Code  Hi   0x2
    540  SVC_Handler                0x0000c127   Wk    1  Code  Hi   0x2
    541  DebugMon_Handler           0x0000c129   Wk    1  Code  Hi   0x2
    542  PendSV_Handler             0x0000c12b   Wk    1  Code  Hi   0x2
    543  am_adc_isr                 0x0000c12f   Wk    1  Code  Hi 
    544  am_ble_isr                 0x0000c12f   Wk    1  Code  Hi 
    545  am_brownout_isr            0x0000c12f   Wk    1  Code  Hi 
    546  am_clkgen_isr              0x0000c12f   Wk    1  Code  Hi 
    547  am_ctimer_isr              0x0000c12f   Wk    1  Code  Hi 
    548  am_gpio_isr                0x0000c12f   Wk    1  Code  Hi 
    549  am_iomaster0_isr           0x0000c12f   Wk    1  Code  Hi 
    550  am_iomaster1_isr           0x0000c12f   Wk    1  Code  Hi 
    551  am_iomaster2_isr           0x0000c12f   Wk    1  Code  Hi 
    552  am_iomaster3_isr           0x0000c12f   Wk    1  Code  Hi 
    553  am_iomaster4_isr           0x0000c12f   Wk    1  Code  Hi 
    554  am_iomaster5_isr           0x0000c12f   Wk    1  Code  Hi 
    555  am_ioslave_acc_isr         0x0000c12f   Wk    1  Code  Hi 
    556  am_ioslave_ios_isr         0x0000c12f   Wk    1  Code  Hi 
    557  am_mspi0_isr               0x0000c12f   Wk    1  Code  Hi 
    558  am_mspi1_isr               0x0000c12f   Wk    1  Code  Hi 
    559  am_mspi2_isr               0x0000c12f   Wk    1  Code  Hi 
    560  am_pdm0_isr                0x0000c12f   Wk    1  Code  Hi 
    561  am_rtc_isr                 0x0000c12f   Wk    1  Code  Hi 
    562  am_scard_isr               0x0000c12f   Wk    1  Code  Hi 
    563  am_software0_isr           0x0000c12f   Wk    1  Code  Hi 
    564  am_stimer_cmpr0_isr        0x0000c12f   Wk    1  Code  Hi 
    565  am_stimer_cmpr1_isr        0x0000c12f   Wk    1  Code  Hi 
    566  am_stimer_cmpr2_isr        0x0000c12f   Wk    1  Code  Hi 
    567  am_stimer_cmpr3_isr        0x0000c12f   Wk    1  Code  Hi 
    568  am_stimer_cmpr4_isr        0x0000c12f   Wk    1  Code  Hi 
    569  am_stimer_cmpr5_isr        0x0000c12f   Wk    1  Code  Hi 
    570  am_stimer_cmpr6_isr        0x0000c12f   Wk    1  Code  Hi 
    571  am_stimer_cmpr7_isr        0x0000c12f   Wk    1  Code  Hi 
    572  am_stimer_isr              0x0000c12f   Wk    1  Code  Hi 
    573  am_uart0_isr               0x0000c12f   Wk    1  Code  Hi 
    574  am_uart1_isr               0x0000c12f   Wk    1  Code  Hi 
    575  am_uart_isr                0x0000c12f   Wk    1  Code  Hi 
    576  am_vcomp_isr               0x0000c12f   Wk    1  Code  Hi 
    577  am_watchdog_isr            0x0000c12f   Wk    1  Code  Hi 
    578  __main                     0x0000c135   Gb    1  Code  Hi   0x8
    579  __scatterload              0x0000c13d   Gb    1  Code  Hi 
    580  __scatterload_rt2          0x0000c13d   Gb    1  Code  Hi   0x2c
    581  __scatterload_rt2_thumb_only
                                    0x0000c13d   Gb    1  Code  Hi 
    582  __scatterload_null         0x0000c14b   Gb    1  Code  Hi 
    583  __scatterload_copy         0x0000c171   Gb    1  Code  Hi   0x1a
    584  __scatterload_zeroinit     0x0000c18d   Gb    1  Code  Hi   0x1c
    585  __rt_lib_init              0x0000c1a9   Gb    1  Code  De 
    586  __rt_lib_init_fp_1         0x0000c1ab   Gb    1  Code  Hi 
    587  __rt_lib_init_alloca_1     0x0000c1af   Gb    1  Code  Hi 
    588  __rt_lib_init_argv_1       0x0000c1af   Gb    1  Code  Hi 
    589  __rt_lib_init_atexit_1     0x0000c1af   Gb    1  Code  Hi 
    590  __rt_lib_init_clock_1      0x0000c1af   Gb    1  Code  Hi 
    591  __rt_lib_init_cpp_1        0x0000c1af   Gb    1  Code  Hi 
    592  __rt_lib_init_exceptions_1 0x0000c1af   Gb    1  Code  Hi 
    593  __rt_lib_init_fp_trap_1    0x0000c1af   Gb    1  Code  Hi 
    594  __rt_lib_init_getenv_1     0x0000c1af   Gb    1  Code  Hi 
    595  __rt_lib_init_heap_1       0x0000c1af   Gb    1  Code  Hi 
    596  __rt_lib_init_lc_collate_1 0x0000c1af   Gb    1  Code  Hi 
    597  __rt_lib_init_lc_ctype_1   0x0000c1af   Gb    1  Code  Hi 
    598  __rt_lib_init_lc_monetary_1
                                    0x0000c1af   Gb    1  Code  Hi 
    599  __rt_lib_init_lc_numeric_1 0x0000c1af   Gb    1  Code  Hi 
    600  __rt_lib_init_lc_time_1    0x0000c1af   Gb    1  Code  Hi 
    601  __rt_lib_init_preinit_1    0x0000c1af   Gb    1  Code  Hi 
    602  __rt_lib_init_rand_1       0x0000c1af   Gb    1  Code  Hi 
    603  __rt_lib_init_return       0x0000c1af   Gb    1  Code  Hi 
    604  __rt_lib_init_signal_1     0x0000c1af   Gb    1  Code  Hi 
    605  __rt_lib_init_stdio_1      0x0000c1af   Gb    1  Code  Hi 
    606  __rt_lib_init_user_alloc_1 0x0000c1af   Gb    1  Code  Hi 
    607  __rt_lib_shutdown          0x0000c1b1   Gb    1  Code  De 
    608  __rt_lib_shutdown_cpp_1    0x0000c1b3   Gb    1  Code  Hi 
    609  __rt_lib_shutdown_fp_trap_1
                                    0x0000c1b3   Gb    1  Code  Hi 
    610  __rt_lib_shutdown_heap_1   0x0000c1b3   Gb    1  Code  Hi 
    611  __rt_lib_shutdown_return   0x0000c1b3   Gb    1  Code  Hi 
    612  __rt_lib_shutdown_signal_1 0x0000c1b3   Gb    1  Code  Hi 
    613  __rt_lib_shutdown_stdio_1  0x0000c1b3   Gb    1  Code  Hi 
    614  __rt_lib_shutdown_user_alloc_1
                                    0x0000c1b3   Gb    1  Code  Hi 
    615  __rt_entry                 0x0000c1b5   Gb    1  Code  Hi 
    616  __rt_entry_presh_1         0x0000c1b5   Gb    1  Code  Hi 
    617  __rt_entry_sh              0x0000c1b5   Gb    1  Code  Hi 
    618  __rt_entry_li              0x0000c1bb   Gb    1  Code  Hi 
    619  __rt_entry_postsh_1        0x0000c1bb   Gb    1  Code  Hi 
    620  __rt_entry_main            0x0000c1bf   Gb    1  Code  Hi 
    621  __rt_entry_postli_1        0x0000c1bf   Gb    1  Code  Hi 
    622  __rt_exit                  0x0000c1c7   Gb    1  Code  De 
    623  __rt_exit_ls               0x0000c1c9   Gb    1  Code  Hi 
    624  __rt_exit_prels_1          0x0000c1c9   Gb    1  Code  Hi 
    625  __rt_exit_exit             0x0000c1cd   Gb    1  Code  Hi 
    626  HardFault_Handler          0x0000c1d5   Gb    1  Code  Hi   0x1a
    627  getStackedReg              0x0000c1ef   Gb    1  Code  Hi   0x8
    628  am_hal_interrupt_master_enable
                                    0x0000c1f9   Gb    1  Code  Hi   0x8
    629  am_hal_interrupt_master_disable
                                    0x0000c201   Gb    1  Code  Hi   0x8
    630  am_hal_interrupt_master_set
                                    0x0000c209   Gb    1  Code  Hi   0x6
    631  __user_initial_stackheap   0x0000c211   Gb    1  Code  Hi   0xa
    632  __aeabi_memclr             0x0000c229   Gb    1  Code  Hi 
    633  __rt_memclr                0x0000c229   Gb    1  Code  De   0x44
    634  _memset                    0x0000c22d   Gb    1  Code  De 
    635  __use_two_region_memory    0x0000c26d   Gb    1  Code  Hi   0x2
    636  __rt_heap_escrow$2region   0x0000c26f   Gb    1  Code  De   0x2
    637  __rt_heap_expand$2region   0x0000c271   Gb    1  Code  De   0x2
    638  __aeabi_memclr4            0x0000c273   Gb    1  Code  De 
    639  __aeabi_memclr8            0x0000c273   Gb    1  Code  De 
    640  __rt_memclr_w              0x0000c273   Gb    1  Code  De   0x4e
    641  _memset_w                  0x0000c277   Gb    1  Code  De 
    642  __user_setup_stackheap     0x0000c2c1   Gb    1  Code  De   0x4a
    643  exit                       0x0000c30b   Gb    1  Code  De   0x12
    644  __user_libspace            0x0000c31d   Wk    1  Code  De   0x8
    645  __user_perproc_libspace    0x0000c31d   Wk    1  Code  De 
    646  __user_perthread_libspace  0x0000c31d   Wk    1  Code  De 
    647  _sys_exit                  0x0000c325   Gb    1  Code  De   0x8
    648  __I$use$semihosting        0x0000c331   Gb    1  Code  Hi 
    649  __use_no_semihosting_swi   0x0000c331   Gb    1  Code  Hi   0x2
    650  __semihosting_library_function
                                    0x0000c333   Gb    1  Code  Hi 
    651  SysTick_Handler            0x0000c335   Gb    1  Code  Hi   0xa
    652  am_bsp_low_power_init      0x0000c345   Gb    1  Code  Hi   0x3a
    653  am_bsp_uart_printf_disable 0x0000c389   Gb    1  Code  Hi   0x36
    654  am_bsp_uart_printf_enable  0x0000c3c9   Gb    1  Code  Hi   0x40
    655  am_bsp_uart_string_print   0x0000c41d   Gb    1  Code  Hi   0x3c
    656  am_devices_led_array_init  0x0000c461   Gb    1  Code  Hi   0x80
    657  am_devices_led_array_out   0x0000c4e9   Gb    1  Code  Hi   0x78
    658  am_hal_burst_ldo_charge    0x0000c561   Gb    1  Code  Hi   0x9e
    659  am_hal_burst_ldo_patch_check
                                    0x0000c60d   Gb    1  Code  Hi   0x10
    660  am_hal_burst_mode_enable   0x0000c621   Gb    1  Code  Hi   0x68
    661  am_hal_burst_mode_enable_w_manual_sequence
                                    0x0000c691   Gb    1  Code  Hi   0x13a
    662  am_hal_burst_mode_initialize
                                    0x0000c7dd   Gb    1  Code  Hi   0xd6
    663  am_hal_cachectrl_config    0x0000c8c9   Gb    1  Code  Hi   0x46
    664  am_hal_cachectrl_control   0x0000c915   Gb    1  Code  Hi   0x3a4
    665  am_hal_cachectrl_enable    0x0000ccc1   Gb    1  Code  Hi   0xe
    666  am_hal_clkgen_control      0x0000ccd5   Gb    1  Code  Hi   0xec
    667  am_hal_clkgen_status_get   0x0000cdd1   Gb    1  Code  Hi   0x2c
    668  am_hal_flash_delay         0x0000ce05   Gb    1  Code  Hi   0x1e
    669  am_hal_flash_delay_status_check
                                    0x0000ce29   Gb    1  Code  Hi   0x56
    670  am_hal_flash_load_ui32     0x0000ce85   Gb    1  Code  Hi   0x4
    671  am_hal_flash_store_ui32    0x0000ce8d   Gb    1  Code  Hi   0x24
    672  am_hal_gpio_pinconfig      0x0000ceb5   Gb    1  Code  Hi   0x24a
    673  am_hal_gpio_state_write    0x0000d135   Gb    1  Code  Hi   0x80
    674  am_hal_mcuctrl_info_get    0x0000d1b5   Gb    1  Code  Hi   0x114
    675  am_hal_pwrctrl_bleif_workaround
                                    0x0000d2ed   Gb    1  Code  Hi   0xa2
    676  am_hal_pwrctrl_ldo_vddx_active_trim_adj_default
                                    0x0000d3a1   Gb    1  Code  Hi   0x84
    677  am_hal_pwrctrl_low_power_init
                                    0x0000d431   Gb    1  Code  Hi   0x174
    678  am_hal_pwrctrl_memory_enable
                                    0x0000d5bd   Gb    1  Code  Hi   0x62
    679  am_hal_pwrctrl_periph_disable
                                    0x0000d629   Gb    1  Code  Hi   0xc6
    680  am_hal_pwrctrl_periph_enable
                                    0x0000d6f9   Gb    1  Code  Hi   0x68
    681  am_hal_pwrctrl_simobuck_vddx_active_trim_adj_default
                                    0x0000d769   Gb    1  Code  Hi   0x98
    682  am_hal_pwrctrl_wa_vddf_boost
                                    0x0000d809   Gb    1  Code  Hi   0x36
    683  am_hal_pwrctrl_wa_vddf_restore
                                    0x0000d845   Gb    1  Code  Hi   0x36
    684  am_hal_queue_init          0x0000d881   Gb    1  Code  Hi   0x18
    685  am_hal_queue_item_add      0x0000d899   Gb    1  Code  Hi   0x56
    686  am_hal_queue_item_get      0x0000d8ef   Gb    1  Code  Hi   0x52
    687  am_hal_rtc_osc_disable     0x0000d941   Gb    1  Code  Hi   0x12
    688  am_hal_sysctrl_fpu_enable  0x0000d955   Gb    1  Code  Hi   0xa
    689  am_hal_sysctrl_fpu_stacking_enable
                                    0x0000d965   Gb    1  Code  Hi   0x2c
    690  am_hal_systick_count       0x0000d995   Gb    1  Code  Hi   0x8
    691  am_hal_systick_int_enable  0x0000d99d   Gb    1  Code  Hi   0xe
    692  am_hal_systick_load        0x0000d9ab   Gb    1  Code  Hi   0xc
    693  am_hal_systick_reset       0x0000d9b7   Gb    1  Code  Hi   0xa
    694  am_hal_systick_start       0x0000d9c1   Gb    1  Code  Hi   0xe
    695  am_hal_systick_stop        0x0000d9cf   Gb    1  Code  Hi   0xe
    696  am_hal_uart_configure      0x0000d9dd   Gb    1  Code  Hi   0x234
    697  am_hal_uart_deinitialize   0x0000dc2d   Gb    1  Code  Hi   0x2a
    698  am_hal_uart_initialize     0x0000dc5d   Gb    1  Code  Hi   0x4c
    699  am_hal_uart_power_control  0x0000dcb1   Gb    1  Code  Hi   0x100
    700  am_hal_uart_transfer       0x0000ddb5   Gb    1  Code  Hi   0x380
    701  am_hal_uart_tx_flush       0x0000e13d   Gb    1  Code  Hi   0x58
    702  am_sprintf                 0x0000e199   Gb    1  Code  Hi   0x66
    703  am_util_delay_ms           0x0000e231   Gb    1  Code  Hi   0x20
    704  am_util_faultisr_collect_data
                                    0x0000e251   Gb    1  Code  Hi   0xaa
    705  am_util_stdio_printf       0x0000e305   Gb    1  Code  Hi   0x2c
    706  am_util_stdio_printf_init  0x0000e339   Gb    1  Code  Hi   0x6
    707  am_util_stdio_sprintf      0x0000e345   Gb    1  Code  Hi   0x12
    708  am_util_stdio_vsprintf     0x0000e359   Gb    1  Code  Hi   0x734
    709  calc_func                  0x0000ea99   Gb    1  Code  Hi   0x8e
    710  check_data_types           0x0000eb27   Gb    1  Code  Hi   0x4
    711  cmp_complex                0x0000eb2b   Gb    1  Code  Hi   0x1a
    712  cmp_idx                    0x0000eb45   Gb    1  Code  Hi   0x2a
    713  core_bench_list            0x0000eb71   Gb    1  Code  Hi   0x188
    714  core_bench_matrix          0x0000ed01   Gb    1  Code  Hi   0x22
    715  core_bench_state           0x0000ed23   Gb    1  Code  Hi   0xec
    716  core_init_matrix           0x0000ee11   Gb    1  Code  Hi   0xa6
    717  core_init_state            0x0000eeb9   Gb    1  Code  Hi   0x104
    718  core_list_init             0x0000efc5   Gb    1  Code  Hi   0x108
    719  core_list_mergesort        0x0000f0d5   Gb    1  Code  Hi   0xa6
    720  core_state_transition      0x0000f17b   Gb    1  Code  Hi   0x1a8
    721  crc16                      0x0000f325   Gb    1  Code  Hi   0x4e
    722  crcu16                     0x0000f375   Gb    1  Code  Hi   0x4a
    723  crcu32                     0x0000f3bf   Gb    1  Code  Hi   0x18
    724  get_seed_32                0x0000f3d9   Gb    1  Code  Hi   0x2a
    725  get_time                   0x0000f419   Gb    1  Code  Hi   0xa
    726  main                       0x0000f429   Gb    1  Code  Hi   0x24
    727  main_loop                  0x0000f451   Gb    1  Code  Hi   0x812
    728  matrix_sum                 0x0000fe1d   Gb    1  Code  Hi   0x5c
    729  matrix_test                0x0000fe79   Gb    1  Code  Hi   0x2ca
    730  portable_fini              0x00010209   Gb    1  Code  Hi   0xba
    731  portable_init              0x000102fd   Gb    1  Code  Hi   0xf8
    732  start_time                 0x000106d5   Gb    1  Code  Hi   0x4a
    733  stop_time                  0x0001072d   Gb    1  Code  Hi   0x32
    734  time_in_secs               0x00010771   Gb    1  Code  Hi   0x3e
    735  __aeabi_d2f                0x00010a01   Gb    1  Code  Hi 
    736  _d2f                       0x00010a01   Gb    1  Code  De   0x62
    737  __fpl_dcmp_Inf             0x00010a63   Gb    1  Code  De   0x18
    738  __aeabi_ddiv               0x00010a7d   Gb    1  Code  Hi 
    739  _ddiv                      0x00010a7d   Gb    1  Code  De   0x228
    740  __aeabi_d2uiz              0x00010d2d   Gb    1  Code  Hi 
    741  _dfixu                     0x00010d2d   Gb    1  Code  De   0x5a
    742  __aeabi_ui2d               0x00010d87   Gb    1  Code  Hi 
    743  _dfltu                     0x00010d87   Gb    1  Code  De   0x26
    744  __aeabi_cdcmple            0x00010dad   Gb    1  Code  Hi 
    745  _dcmple                    0x00010dad   Gb    1  Code  De   0x78
    746  __fpl_dcmple_InfNaN        0x00010e0f   Gb    1  Code  Pr 
    747  __fpl_dnaninf              0x00010e25   Gb    1  Code  De   0x9c
    748  __fpl_dretinf              0x00010ec1   Gb    1  Code  De   0xc
    749  __aeabi_cdrcmple           0x00010ecd   Gb    1  Code  Hi 
    750  _drcmple                   0x00010ecd   Gb    1  Code  De   0x6c
    751  __aeabi_f2d                0x00010f39   Gb    1  Code  Hi 
    752  _f2d                       0x00010f39   Gb    1  Code  De   0x56
    753  __fpl_fnaninf              0x00010f8f   Gb    1  Code  De   0x8c
    754  _fp_init                   0x0001101b   Gb    1  Code  De   0xa
    755  __fplib_config_fpu_vfp     0x00011023   Gb    1  Code  De 
    756  __fplib_config_pureend_doubles
                                    0x00011023   Gb    1  Code  De 
    757  __fpl_fretinf              0x00011025   Gb    1  Code  De   0xa
    758  __I$use$fp                 0x0001102e   Gb    1   --   De 
    759  g_AM_HAL_GPIO_DISABLE      0x0001107c   Gb    1  Data  Hi   0x4
    760  g_AM_HAL_GPIO_TRISTATE     0x00011288   Gb    1  Data  Hi   0x4
    761  g_AM_HAL_GPIO_OUTPUT       0x0001128c   Gb    1  Data  Hi   0x4
    762  g_am_hal_mcuctrl_flash_size
                                    0x00011290   Gb    1  Data  Hi   0x40
    763  g_am_hal_mcuctrl_sram_size 0x000112d0   Gb    1  Data  Hi   0x40
    764  am_hal_pwrctrl_peripheral_control
                                    0x00011310   Gb    1  Data  Hi   0xcc
    765  am_hal_pwrctrl_memory_control
                                    0x000113dc   Gb    1  Data  Hi   0x1b0
    766  g_AM_BSP_GPIO_COM_UART_TX  0x0001158c   Gb    1  Data  Hi   0x4
    767  g_AM_BSP_GPIO_COM_UART_RX  0x00011590   Gb    1  Data  Hi   0x4
    768  Region$$Table$$Base        0x000116f4   Gb    1   --   Hi 
    769  Region$$Table$$Limit       0x00011724   Gb    1   --   Hi 
    770  g_ui32SysTickWrappedTime   0x10001000   Gb    2  Data  Hi   0x4
    771  seed1_volatile             0x10001024   Gb    2  Data  Hi   0x4
    772  seed2_volatile             0x10001028   Gb    2  Data  Hi   0x4
    773  seed3_volatile             0x1000102c   Gb    2  Data  Hi   0x4
    774  seed4_volatile             0x10001030   Gb    2  Data  Hi   0x4
    775  seed5_volatile             0x10001034   Gb    2  Data  Hi   0x4
    776  g_eAmbClkSpd               0x10001038   Gb    2  Data  Hi   0x1
    777  eBurstMode                 0x10001039   Gb    2  Data  Hi   0x1
    778  am_bufcnt                  0x1000103c   Gb    2  Data  Hi   0x4
    779  am_pcBuf                   0x10001040   Gb    2  Data  Hi   0x4
    780  default_num_contexts       0x10001058   Gb    2  Data  Hi   0x4
    781  g_pfnCharPrint             0x100010a0   Gb    2  Data  Hi   0x4
    782  am_bsp_psLEDs              0x100010ac   Gb    2  Data  Hi   0x28
    783  g_am_hal_burst_mode_available
                                    0x100010fc   Gb    2  Data  Hi   0x1
    784  g_bSimobuckTrimsDone       0x100010ff   Gb    2  Data  Hi   0x1
    785  g_bVddfTrimsDone           0x10001100   Gb    2  Data  Hi   0x1
    786  gAmHalResetStatus          0x10001104   Gb    2  Data  Hi   0x4
    787  am_prtbuf                  0x10001108   Gb    3  Data  Hi   0x400
    788  __libspace_start           0x10001ed8   Gb    3  Data  De   0x60
    789  __temporary_stack_top$libspace
                                    0x10001f38   Gb    3  Data  De 


** Section #13 '.strtab' (SHT_STRTAB)
    Size   : 11164 bytes

            #  Offset String
        ====================================

            1      1: $d
            2      4: $t
            3      7: $d.realdata
            4     19: ..\src\am_time.c
            5     36: ../src/am_time.c
            6     53: i.SysTick_Handler
            7     71: .data
            8     77: ../src/coremark.c
            9     95: ..\src\core_list_join.c
           10    119: ../src/core_list_join.c
           11    143: i.calc_func
           12    155: i.cmp_complex
           13    169: i.cmp_idx
           14    179: i.core_bench_list
           15    197: i.core_list_init
           16    214: i.core_list_mergesort
           17    236: ..\src\core_main.c
           18    255: ../src/core_main.c
           19    274: i.main
           20    281: i.main_loop
           21    293: .conststring
           22    306: list_known_crc
           23    321: matrix_known_crc
           24    338: state_known_crc
           25    354: ..\src\core_matrix.c
           26    375: ../src/core_matrix.c
           27    396: i.core_bench_matrix
           28    416: i.core_init_matrix
           29    435: i.matrix_sum
           30    448: i.matrix_test
           31    462: ..\src\core_portme.c
           32    483: ../src/core_portme.c
           33    504: i.am_sprintf
           34    517: i.get_time
           35    528: i.portable_fini
           36    544: i.portable_init
           37    560: i.start_time
           38    573: i.stop_time
           39    585: i.time_in_secs
           40    600: .bss
           41    605: .constdata
           42    616: start_time_val
           43    631: stop_time_val
           44    645: ..\src\core_state.c
           45    665: ../src/core_state.c
           46    685: i.core_bench_state
           47    704: i.core_init_state
           48    722: i.core_state_transition
           49    746: intpat
           50    753: floatpat
           51    762: scipat
           52    769: errpat
           53    776: ..\src\core_util.c
           54    795: ../src/core_util.c
           55    814: i.check_data_types
           56    833: i.crc16
           57    841: i.crcu16
           58    850: i.crcu32
           59    859: i.get_seed_32
           60    873: ..\..\..\..\..\utils\am_util_delay.c
           61    910: ../../../../../utils/am_util_delay.c
           62    947: i.am_util_delay_ms
           63    966: ..\..\..\..\..\utils\am_util_faultisr.c
           64   1006: .emb_text
           65   1016: $v0
           66   1020: ../../../../../utils/am_util_faultisr.c
           67   1060: i.am_util_faultisr_collect_data
           68   1092: ../../../../../utils/am_util_stdio.c
           69   1129: i.am_util_stdio_printf
           70   1152: i.am_util_stdio_printf_init
           71   1180: i.am_util_stdio_sprintf
           72   1204: i.am_util_stdio_vsprintf
           73   1229: i.ndigits_in_u64
           74   1246: ndigits_in_u64
           75   1261: i.uint64_to_str
           76   1277: uint64_to_str
           77   1291: g_prfbuf
           78   1300: g_bTxtXlate
           79   1312: ..\..\..\..\..\devices\am_devices_led.c
           80   1352: ../../../../../devices/am_devices_led.c
           81   1392: i.am_devices_led_array_init
           82   1420: i.am_devices_led_array_out
           83   1447: ../keil/startup_keil.s
           84   1470: STACK
           85   1476: StackMem
           86   1485: HEAP
           87   1490: HeapMem
           88   1498: RESET
           89   1504: .text
           90   1510: ..\am_hal_global.c
           91   1529: ../am_hal_global.c
           92   1548: ..\am_bsp.c
           93   1560: ../am_bsp.c
           94   1572: i.am_bsp_low_power_init
           95   1596: i.am_bsp_uart_printf_disable
           96   1625: i.am_bsp_uart_printf_enable
           97   1653: i.am_bsp_uart_string_print
           98   1680: pui8UartTxBuffer
           99   1697: pui8UartRxBuffer
          100   1714: g_sBspUartConfig
          101   1731: g_ui32PrintInterface
          102   1752: g_sCOMUART
          103   1763: g_sBspUartBufferedConfig
          104   1788: ..\am_hal_burst.c
          105   1806: ../am_hal_burst.c
          106   1824: i.am_hal_burst_ldo_charge
          107   1850: i.am_hal_burst_ldo_patch_check
          108   1881: i.am_hal_burst_mode_enable
          109   1908: i.am_hal_burst_mode_enable_w_manual_sequence
          110   1953: i.am_hal_burst_mode_initialize
          111   1984: g_bEnFromManual
          112   2000: g_bDisFromManual
          113   2017: ..\am_hal_cachectrl.c
          114   2039: ../am_hal_cachectrl.c
          115   2061: i.am_hal_cachectrl_config
          116   2087: i.am_hal_cachectrl_control
          117   2114: i.am_hal_cachectrl_enable
          118   2140: ..\am_hal_clkgen.c
          119   2159: ../am_hal_clkgen.c
          120   2178: i.am_hal_clkgen_control
          121   2202: i.am_hal_clkgen_status_get
          122   2229: ..\am_hal_flash.c
          123   2247: ../am_hal_flash.c
          124   2265: i.am_hal_flash_delay
          125   2286: i.am_hal_flash_delay_status_check
          126   2320: i.am_hal_flash_load_ui32
          127   2345: i.am_hal_flash_store_ui32
          128   2371: ..\am_hal_gpio.c
          129   2388: ../am_hal_gpio.c
          130   2405: i.am_hal_gpio_pinconfig
          131   2429: i.am_hal_gpio_state_write
          132   2455: g_ui8Inpen
          133   2466: g_ui8Bit76Capabilities
          134   2489: g_ui8nCEpins
          135   2502: g_ui8NCEtable
          136   2516: ..\am_hal_interrupt.c
          137   2538: ../am_hal_interrupt.c
          138   2560: ..\am_hal_mcuctrl.c
          139   2580: ../am_hal_mcuctrl.c
          140   2600: i.am_hal_mcuctrl_info_get
          141   2626: ..\am_hal_pwrctrl.c
          142   2646: ../am_hal_pwrctrl.c
          143   2666: i.am_hal_pwrctrl_bleif_workaround
          144   2700: i.am_hal_pwrctrl_ldo_vddx_active_trim_adj_default
          145   2750: i.am_hal_pwrctrl_low_power_init
          146   2782: i.am_hal_pwrctrl_memory_enable
          147   2813: i.am_hal_pwrctrl_periph_disable
          148   2845: i.am_hal_pwrctrl_periph_enable
          149   2876: i.am_hal_pwrctrl_simobuck_vddx_active_trim_adj_default
          150   2931: i.am_hal_pwrctrl_wa_vddf_boost
          151   2962: i.am_hal_pwrctrl_wa_vddf_restore
          152   2995: ..\am_hal_sysctrl.c
          153   3015: ../am_hal_sysctrl.c
          154   3035: i.am_hal_sysctrl_fpu_enable
          155   3063: i.am_hal_sysctrl_fpu_stacking_enable
          156   3100: ..\am_hal_systick.c
          157   3120: ../am_hal_systick.c
          158   3140: i.am_hal_systick_count
          159   3163: i.am_hal_systick_int_enable
          160   3191: i.am_hal_systick_load
          161   3213: i.am_hal_systick_reset
          162   3236: i.am_hal_systick_start
          163   3259: i.am_hal_systick_stop
          164   3281: ..\am_bsp_pins.c
          165   3298: ../am_bsp_pins.c
          166   3315: ..\am_hal_itm.c
          167   3331: ../am_hal_itm.c
          168   3347: ..\am_hal_reset.c
          169   3365: ../am_hal_reset.c
          170   3383: ..\am_hal_rtc.c
          171   3399: ../am_hal_rtc.c
          172   3415: i.am_hal_rtc_osc_disable
          173   3440: ..\am_hal_tpiu.c
          174   3457: ../am_hal_tpiu.c
          175   3474: ..\am_hal_uart.c
          176   3491: ../am_hal_uart.c
          177   3508: i.am_hal_uart_configure
          178   3532: i.am_hal_uart_deinitialize
          179   3559: i.am_hal_uart_initialize
          180   3584: i.am_hal_uart_power_control
          181   3612: i.am_hal_uart_transfer
          182   3635: i.am_hal_uart_tx_flush
          183   3658: i.read_nonblocking
          184   3677: read_nonblocking
          185   3694: i.write_nonblocking
          186   3714: write_nonblocking
          187   3732: g_am_hal_uart_states
          188   3753: ..\am_hal_queue.c
          189   3771: ../am_hal_queue.c
          190   3789: i.am_hal_queue_init
          191   3809: i.am_hal_queue_item_add
          192   3833: i.am_hal_queue_item_get
          193   3857: dc.s
          194   3862: ../clib/longlong.s
          195   3881: ../clib/memcpset.s
          196   3900: ../clib/heapaux.c
          197   3918: ../clib/angel/startup.s
          198   3942: !!!main
          199   3950: ../fplib/d2f.s
          200   3965: x$fpl$d2f
          201   3975: ../fplib/ddiv.s
          202   3991: x$fpl$ddiv
          203   4002: ddiv_entry
          204   4013: ../fplib/dfixu.s
          205   4030: x$fpl$dfixu
          206   4042: ../fplib/dflt.s
          207   4058: x$fpl$dfltu
          208   4070: ../fplib/dleqf.s
          209   4087: x$fpl$dleqf
          210   4099: ../fplib/drleqf.s
          211   4117: x$fpl$drleqf
          212   4130: ../fplib/f2d.s
          213   4145: x$fpl$f2d
          214   4155: ../clib/angel/kernel.s
          215   4178: .ARM.Collect$$rtentry$$00000000
          216   4210: ../fplib/dcmpi.s
          217   4227: x$fpl$dcmpinf
          218   4241: ../fplib/dnaninf.s
          219   4260: x$fpl$dnaninf
          220   4274: ../fplib/dretinf.s
          221   4293: x$fpl$dretinf
          222   4307: ../fplib/fnaninf.s
          223   4326: x$fpl$fnaninf
          224   4340: ../fplib/fretinf.s
          225   4359: x$fpl$fretinf
          226   4373: ../fplib/usenofp.s
          227   4392: x$fpl$usenofp
          228   4406: .ARM.Collect$$rtentry$$00000002
          229   4438: .ARM.Collect$$rtentry$$00000009
          230   4470: .ARM.Collect$$rtentry$$0000000A
          231   4502: .ARM.Collect$$rtentry$$0000000C
          232   4534: .ARM.Collect$$rtentry$$0000000D
          233   4566: .ARM.Collect$$rtentry$$00000004
          234   4598: ../clib/angel/sys.s
          235   4618: ../clib/stdlib.c
          236   4635: ../clib/angel/boardlib.s
          237   4660: ../clib/libinit.s
          238   4678: .ARM.Collect$$libinit$$00000000
          239   4710: .ARM.Collect$$rtexit$$00000000
          240   4741: .ARM.Collect$$libinit$$00000001
          241   4773: .ARM.Collect$$libinit$$00000004
          242   4805: .ARM.Collect$$libinit$$0000000A
          243   4837: .ARM.Collect$$libinit$$0000000C
          244   4869: .ARM.Collect$$libinit$$0000000E
          245   4901: .ARM.Collect$$libinit$$00000011
          246   4933: .ARM.Collect$$libinit$$00000013
          247   4965: .ARM.Collect$$libinit$$00000015
          248   4997: .ARM.Collect$$libinit$$00000017
          249   5029: .ARM.Collect$$libinit$$00000019
          250   5061: .ARM.Collect$$libinit$$0000001B
          251   5093: .ARM.Collect$$libinit$$0000001D
          252   5125: .ARM.Collect$$libinit$$0000001F
          253   5157: .ARM.Collect$$libinit$$00000021
          254   5189: .ARM.Collect$$libinit$$00000023
          255   5221: .ARM.Collect$$libinit$$00000025
          256   5253: .ARM.Collect$$libinit$$0000002C
          257   5285: .ARM.Collect$$libinit$$0000002E
          258   5317: .ARM.Collect$$libinit$$00000030
          259   5349: .ARM.Collect$$libinit$$00000032
          260   5381: .ARM.Collect$$libinit$$00000033
          261   5413: .ARM.Collect$$rtexit$$00000002
          262   5444: .ARM.Collect$$rtexit$$00000003
          263   5475: .ARM.Collect$$rtexit$$00000004
          264   5506: ../clib/armsys.c
          265   5523: ../fplib/fpinit.s
          266   5541: x$fpl$fpinit
          267   5554: ../clib/angel/sysapp.c
          268   5577: .ARM.Collect$$libshutdown$$00000000
          269   5613: ../clib/heapalloc.c
          270   5633: ../clib/signal.c
          271   5650: .ARM.Collect$$libshutdown$$00000002
          272   5686: .ARM.Collect$$libshutdown$$00000004
          273   5722: .ARM.Collect$$libshutdown$$00000007
          274   5758: .ARM.Collect$$libshutdown$$0000000A
          275   5794: .ARM.Collect$$libshutdown$$0000000C
          276   5830: .ARM.Collect$$libshutdown$$0000000F
          277   5866: .ARM.Collect$$libshutdown$$00000010
          278   5902: ../clib/angel/rt.s
          279   5921: ../clib/signal.s
          280   5938: ../clib/angel/scatter.s
          281   5962: !!!scatter
          282   5973: ../clib/angel/handlers.s
          283   5998: !!handler_copy
          284   6013: !!handler_zi
          285   6026: BuildAttributes$$THM_ISAv4$E$P$D$K$B$S$7EM$VFPi3$EXTD16$VFPS$VFMA$PE$A:L22UL41UL21$X:L11$S22US41US21$IEEE1$IW$USESV6$~STKCKD$USESV7$~SHL$OTIME$ROPI$EBA8$UX$STANDARDLIB$REQ8$PRES8$EABIv2
          286   6212: __ARM_use_no_argv
          287   6230: __Vectors
          288   6240: __Patchable
          289   6252: Reset_Handler
          290   6266: NMI_Handler
          291   6278: MemManage_Handler
          292   6296: BusFault_Handler
          293   6313: UsageFault_Handler
          294   6332: SVC_Handler
          295   6344: DebugMon_Handler
          296   6361: PendSV_Handler
          297   6376: am_adc_isr
          298   6387: am_ble_isr
          299   6398: am_brownout_isr
          300   6414: am_clkgen_isr
          301   6428: am_ctimer_isr
          302   6442: am_gpio_isr
          303   6454: am_iomaster0_isr
          304   6471: am_iomaster1_isr
          305   6488: am_iomaster2_isr
          306   6505: am_iomaster3_isr
          307   6522: am_iomaster4_isr
          308   6539: am_iomaster5_isr
          309   6556: am_ioslave_acc_isr
          310   6575: am_ioslave_ios_isr
          311   6594: am_mspi0_isr
          312   6607: am_mspi1_isr
          313   6620: am_mspi2_isr
          314   6633: am_pdm0_isr
          315   6645: am_rtc_isr
          316   6656: am_scard_isr
          317   6669: am_software0_isr
          318   6686: am_stimer_cmpr0_isr
          319   6706: am_stimer_cmpr1_isr
          320   6726: am_stimer_cmpr2_isr
          321   6746: am_stimer_cmpr3_isr
          322   6766: am_stimer_cmpr4_isr
          323   6786: am_stimer_cmpr5_isr
          324   6806: am_stimer_cmpr6_isr
          325   6826: am_stimer_cmpr7_isr
          326   6846: am_stimer_isr
          327   6860: am_uart0_isr
          328   6873: am_uart1_isr
          329   6886: am_uart_isr
          330   6898: am_vcomp_isr
          331   6911: am_watchdog_isr
          332   6927: __main
          333   6934: __scatterload
          334   6948: __scatterload_rt2
          335   6966: __scatterload_rt2_thumb_only
          336   6995: __scatterload_null
          337   7014: __scatterload_copy
          338   7033: __scatterload_zeroinit
          339   7056: __rt_lib_init
          340   7070: __rt_lib_init_fp_1
          341   7089: __rt_lib_init_alloca_1
          342   7112: __rt_lib_init_argv_1
          343   7133: __rt_lib_init_atexit_1
          344   7156: __rt_lib_init_clock_1
          345   7178: __rt_lib_init_cpp_1
          346   7198: __rt_lib_init_exceptions_1
          347   7225: __rt_lib_init_fp_trap_1
          348   7249: __rt_lib_init_getenv_1
          349   7272: __rt_lib_init_heap_1
          350   7293: __rt_lib_init_lc_collate_1
          351   7320: __rt_lib_init_lc_ctype_1
          352   7345: __rt_lib_init_lc_monetary_1
          353   7373: __rt_lib_init_lc_numeric_1
          354   7400: __rt_lib_init_lc_time_1
          355   7424: __rt_lib_init_preinit_1
          356   7448: __rt_lib_init_rand_1
          357   7469: __rt_lib_init_return
          358   7490: __rt_lib_init_signal_1
          359   7513: __rt_lib_init_stdio_1
          360   7535: __rt_lib_init_user_alloc_1
          361   7562: __rt_lib_shutdown
          362   7580: __rt_lib_shutdown_cpp_1
          363   7604: __rt_lib_shutdown_fp_trap_1
          364   7632: __rt_lib_shutdown_heap_1
          365   7657: __rt_lib_shutdown_return
          366   7682: __rt_lib_shutdown_signal_1
          367   7709: __rt_lib_shutdown_stdio_1
          368   7735: __rt_lib_shutdown_user_alloc_1
          369   7766: __rt_entry
          370   7777: __rt_entry_presh_1
          371   7796: __rt_entry_sh
          372   7810: __rt_entry_li
          373   7824: __rt_entry_postsh_1
          374   7844: __rt_entry_main
          375   7860: __rt_entry_postli_1
          376   7880: __rt_exit
          377   7890: __rt_exit_ls
          378   7903: __rt_exit_prels_1
          379   7921: __rt_exit_exit
          380   7936: HardFault_Handler
          381   7954: getStackedReg
          382   7968: am_hal_interrupt_master_enable
          383   7999: am_hal_interrupt_master_disable
          384   8031: am_hal_interrupt_master_set
          385   8059: __user_initial_stackheap
          386   8084: __aeabi_memclr
          387   8099: __rt_memclr
          388   8111: _memset
          389   8119: __use_two_region_memory
          390   8143: __rt_heap_escrow$2region
          391   8168: __rt_heap_expand$2region
          392   8193: __aeabi_memclr4
          393   8209: __aeabi_memclr8
          394   8225: __rt_memclr_w
          395   8239: _memset_w
          396   8249: __user_setup_stackheap
          397   8272: exit
          398   8277: __user_libspace
          399   8293: __user_perproc_libspace
          400   8317: __user_perthread_libspace
          401   8343: _sys_exit
          402   8353: __I$use$semihosting
          403   8373: __use_no_semihosting_swi
          404   8398: __semihosting_library_function
          405   8429: SysTick_Handler
          406   8445: am_bsp_low_power_init
          407   8467: am_bsp_uart_printf_disable
          408   8494: am_bsp_uart_printf_enable
          409   8520: am_bsp_uart_string_print
          410   8545: am_devices_led_array_init
          411   8571: am_devices_led_array_out
          412   8596: am_hal_burst_ldo_charge
          413   8620: am_hal_burst_ldo_patch_check
          414   8649: am_hal_burst_mode_enable
          415   8674: am_hal_burst_mode_enable_w_manual_sequence
          416   8717: am_hal_burst_mode_initialize
          417   8746: am_hal_cachectrl_config
          418   8770: am_hal_cachectrl_control
          419   8795: am_hal_cachectrl_enable
          420   8819: am_hal_clkgen_control
          421   8841: am_hal_clkgen_status_get
          422   8866: am_hal_flash_delay
          423   8885: am_hal_flash_delay_status_check
          424   8917: am_hal_flash_load_ui32
          425   8940: am_hal_flash_store_ui32
          426   8964: am_hal_gpio_pinconfig
          427   8986: am_hal_gpio_state_write
          428   9010: am_hal_mcuctrl_info_get
          429   9034: am_hal_pwrctrl_bleif_workaround
          430   9066: am_hal_pwrctrl_ldo_vddx_active_trim_adj_default
          431   9114: am_hal_pwrctrl_low_power_init
          432   9144: am_hal_pwrctrl_memory_enable
          433   9173: am_hal_pwrctrl_periph_disable
          434   9203: am_hal_pwrctrl_periph_enable
          435   9232: am_hal_pwrctrl_simobuck_vddx_active_trim_adj_default
          436   9285: am_hal_pwrctrl_wa_vddf_boost
          437   9314: am_hal_pwrctrl_wa_vddf_restore
          438   9345: am_hal_queue_init
          439   9363: am_hal_queue_item_add
          440   9385: am_hal_queue_item_get
          441   9407: am_hal_rtc_osc_disable
          442   9430: am_hal_sysctrl_fpu_enable
          443   9456: am_hal_sysctrl_fpu_stacking_enable
          444   9491: am_hal_systick_count
          445   9512: am_hal_systick_int_enable
          446   9538: am_hal_systick_load
          447   9558: am_hal_systick_reset
          448   9579: am_hal_systick_start
          449   9600: am_hal_systick_stop
          450   9620: am_hal_uart_configure
          451   9642: am_hal_uart_deinitialize
          452   9667: am_hal_uart_initialize
          453   9690: am_hal_uart_power_control
          454   9716: am_hal_uart_transfer
          455   9737: am_hal_uart_tx_flush
          456   9758: am_sprintf
          457   9769: am_util_delay_ms
          458   9786: am_util_faultisr_collect_data
          459   9816: am_util_stdio_printf
          460   9837: am_util_stdio_printf_init
          461   9863: am_util_stdio_sprintf
          462   9885: am_util_stdio_vsprintf
          463   9908: calc_func
          464   9918: check_data_types
          465   9935: cmp_complex
          466   9947: cmp_idx
          467   9955: core_bench_list
          468   9971: core_bench_matrix
          469   9989: core_bench_state
          470  10006: core_init_matrix
          471  10023: core_init_state
          472  10039: core_list_init
          473  10054: core_list_mergesort
          474  10074: core_state_transition
          475  10096: crc16
          476  10102: crcu16
          477  10109: crcu32
          478  10116: get_seed_32
          479  10128: get_time
          480  10137: main
          481  10142: main_loop
          482  10152: matrix_sum
          483  10163: matrix_test
          484  10175: portable_fini
          485  10189: portable_init
          486  10203: start_time
          487  10214: stop_time
          488  10224: time_in_secs
          489  10237: __aeabi_d2f
          490  10249: _d2f
          491  10254: __fpl_dcmp_Inf
          492  10269: __aeabi_ddiv
          493  10282: _ddiv
          494  10288: __aeabi_d2uiz
          495  10302: _dfixu
          496  10309: __aeabi_ui2d
          497  10322: _dfltu
          498  10329: __aeabi_cdcmple
          499  10345: _dcmple
          500  10353: __fpl_dcmple_InfNaN
          501  10373: __fpl_dnaninf
          502  10387: __fpl_dretinf
          503  10401: __aeabi_cdrcmple
          504  10418: _drcmple
          505  10427: __aeabi_f2d
          506  10439: _f2d
          507  10444: __fpl_fnaninf
          508  10458: _fp_init
          509  10467: __fplib_config_fpu_vfp
          510  10490: __fplib_config_pureend_doubles
          511  10521: __fpl_fretinf
          512  10535: __I$use$fp
          513  10546: g_AM_HAL_GPIO_DISABLE
          514  10568: g_AM_HAL_GPIO_TRISTATE
          515  10591: g_AM_HAL_GPIO_OUTPUT
          516  10612: g_am_hal_mcuctrl_flash_size
          517  10640: g_am_hal_mcuctrl_sram_size
          518  10667: am_hal_pwrctrl_peripheral_control
          519  10701: am_hal_pwrctrl_memory_control
          520  10731: g_AM_BSP_GPIO_COM_UART_TX
          521  10757: g_AM_BSP_GPIO_COM_UART_RX
          522  10783: Region$$Table$$Base
          523  10803: Region$$Table$$Limit
          524  10824: g_ui32SysTickWrappedTime
          525  10849: seed1_volatile
          526  10864: seed2_volatile
          527  10879: seed3_volatile
          528  10894: seed4_volatile
          529  10909: seed5_volatile
          530  10924: g_eAmbClkSpd
          531  10937: eBurstMode
          532  10948: am_bufcnt
          533  10958: am_pcBuf
          534  10967: default_num_contexts
          535  10988: g_pfnCharPrint
          536  11003: am_bsp_psLEDs
          537  11017: g_am_hal_burst_mode_available
          538  11047: g_bSimobuckTrimsDone
          539  11068: g_bVddfTrimsDone
          540  11085: gAmHalResetStatus
          541  11103: am_prtbuf
          542  11113: __libspace_start
          543  11130: __temporary_stack_top$libspace
          544  11161: 
          545  11162: 
          546  11163: 


** Section #14 '.note' (SHT_NOTE)
    Size   : 32 bytes (alignment 4)


** Section #15 '.comment' (SHT_PROGBITS)
    Size   : 36708 bytes


** Section #16 '.shstrtab' (SHT_STRTAB)
    Size   : 160 bytes

            #  Offset String
        ====================================

            1      1: ROMEM
            2      7: RWMEM
            3     13: TCM
            4     17: STACKMEM
            5     26: .debug_abbrev
            6     40: .debug_frame
            7     53: .debug_info
            8     65: .debug_line
            9     77: .debug_loc
           10     88: .debug_macinfo
           11    103: .debug_pubnames
           12    119: .symtab
           13    127: .strtab
           14    135: .note
           15    141: .comment
           16    150: .shstrtab


