
========================================================================

** ELF Header Information

    File Name: bin\ios_fifo_host.axf

    Machine class: ELFCLASS32 (32-bit)
    Data encoding: ELFDATA2LSB (Little endian)
    Header version: EV_CURRENT (Current version)
    Operating System ABI: none
    ABI Version: 0
    File Type: ET_EXEC (Executable) (2)
    Machine: EM_ARM (ARM)

    Image Entry point: 0x0000c135
    Flags: EF_ARM_HASENTRY + EF_ARM_ABI_FLOAT_HARD (0x05000402)

    ARM ELF revision: 5 (ABI version 2)

    Conforms to Hard float procedure-call standard

    Built with
    Component: ARM Compiler 6.16 Tool: armasm [5dfea300]
    Component: ARM Compiler 6.16 Tool: armlink [5dfeaa00]

    Header size: 52 bytes (0x34)
    Program header entry size: 32 bytes (0x20)
    Section header entry size: 40 bytes (0x28)

    Program header entries: 1
    Section header entries: 15

    Program header offset: 53212 (0x0000cfdc)
    Section header offset: 53244 (0x0000cffc)

    Section header string table index: 14

========================================================================

** Program header #0 (PT_LOAD) [PF_X + PF_W + PF_R + PF_ARM_ENTRY]
    Size : 34392 bytes (14088 bytes in file)
    Virtual address: 0x0000c000 (Alignment 8)


========================================================================

** Section #1 'FLASH' (SHT_PROGBITS) [SHF_ALLOC + SHF_EXECINSTR]
    Size   : 14004 bytes (alignment 4)
    Address: 0x0000c000

    $d
    RESET
    __Vectors
        0x0000c000:    10001050    P...    DCD    268439632
        0x0000c004:    0000c101    ....    DCD    49409
        0x0000c008:    0000c11f    ....    DCD    49439
        0x0000c00c:    0000c11d    ....    DCD    49437
        0x0000c010:    0000c121    !...    DCD    49441
        0x0000c014:    0000c123    #...    DCD    49443
        0x0000c018:    0000c125    %...    DCD    49445
        0x0000c01c:    00000000    ....    DCD    0
        0x0000c020:    00000000    ....    DCD    0
        0x0000c024:    00000000    ....    DCD    0
        0x0000c028:    00000000    ....    DCD    0
        0x0000c02c:    0000c127    '...    DCD    49447
        0x0000c030:    0000c129    )...    DCD    49449
        0x0000c034:    00000000    ....    DCD    0
        0x0000c038:    0000c12b    +...    DCD    49451
        0x0000c03c:    0000c12d    -...    DCD    49453
        0x0000c040:    0000c12f    /...    DCD    49455
        0x0000c044:    0000c12f    /...    DCD    49455
        0x0000c048:    0000c12f    /...    DCD    49455
        0x0000c04c:    0000c12f    /...    DCD    49455
        0x0000c050:    0000c12f    /...    DCD    49455
        0x0000c054:    0000c12f    /...    DCD    49455
        0x0000c058:    0000c12f    /...    DCD    49455
        0x0000c05c:    0000c12f    /...    DCD    49455
        0x0000c060:    0000c12f    /...    DCD    49455
        0x0000c064:    0000c12f    /...    DCD    49455
        0x0000c068:    0000c12f    /...    DCD    49455
        0x0000c06c:    0000c12f    /...    DCD    49455
        0x0000c070:    0000c12f    /...    DCD    49455
        0x0000c074:    0000c599    ....    DCD    50585
        0x0000c078:    0000c12f    /...    DCD    49455
        0x0000c07c:    0000c12f    /...    DCD    49455
        0x0000c080:    0000c12f    /...    DCD    49455
        0x0000c084:    0000c12f    /...    DCD    49455
        0x0000c088:    0000c12f    /...    DCD    49455
        0x0000c08c:    0000c12f    /...    DCD    49455
        0x0000c090:    0000c12f    /...    DCD    49455
        0x0000c094:    0000c12f    /...    DCD    49455
        0x0000c098:    0000c12f    /...    DCD    49455
        0x0000c09c:    0000c12f    /...    DCD    49455
        0x0000c0a0:    0000c12f    /...    DCD    49455
        0x0000c0a4:    0000c12f    /...    DCD    49455
        0x0000c0a8:    0000c12f    /...    DCD    49455
        0x0000c0ac:    0000c12f    /...    DCD    49455
        0x0000c0b0:    0000c12f    /...    DCD    49455
        0x0000c0b4:    0000c12f    /...    DCD    49455
        0x0000c0b8:    0000c12f    /...    DCD    49455
        0x0000c0bc:    0000c12f    /...    DCD    49455
    __Patchable
        0x0000c0c0:    00000000    ....    DCD    0
        0x0000c0c4:    00000000    ....    DCD    0
        0x0000c0c8:    00000000    ....    DCD    0
        0x0000c0cc:    00000000    ....    DCD    0
        0x0000c0d0:    00000000    ....    DCD    0
        0x0000c0d4:    00000000    ....    DCD    0
        0x0000c0d8:    00000000    ....    DCD    0
        0x0000c0dc:    00000000    ....    DCD    0
        0x0000c0e0:    00000000    ....    DCD    0
        0x0000c0e4:    00000000    ....    DCD    0
        0x0000c0e8:    00000000    ....    DCD    0
        0x0000c0ec:    00000000    ....    DCD    0
        0x0000c0f0:    00000000    ....    DCD    0
        0x0000c0f4:    00000000    ....    DCD    0
        0x0000c0f8:    00000000    ....    DCD    0
        0x0000c0fc:    00000000    ....    DCD    0
    $t
    $v0
    Reset_Handler
        0x0000c100:    f64e5088    N..P    MOV      r0,#0xed88
        0x0000c104:    f2ce0000    ....    MOVT     r0,#0xe000
        0x0000c108:    6801        .h      LDR      r1,[r0,#0]
        0x0000c10a:    f4410170    A.p.    ORR      r1,r1,#0xf00000
        0x0000c10e:    6001        .`      STR      r1,[r0,#0]
        0x0000c110:    f3bf8f4f    ..O.    DSB      
        0x0000c114:    f3bf8f6f    ..o.    ISB      
        0x0000c118:    4805        .H      LDR      r0,[pc,#20] ; [0xc130] = 0xc135
        0x0000c11a:    4700        .G      BX       r0
    HardFault_Handler
        0x0000c11c:    e7fe        ..      B        HardFault_Handler ; 0xc11c
    NMI_Handler
        0x0000c11e:    e7fe        ..      B        NMI_Handler ; 0xc11e
    MemManage_Handler
        0x0000c120:    e7fe        ..      B        MemManage_Handler ; 0xc120
    BusFault_Handler
        0x0000c122:    e7fe        ..      B        BusFault_Handler ; 0xc122
    UsageFault_Handler
        0x0000c124:    e7fe        ..      B        UsageFault_Handler ; 0xc124
    SVC_Handler
        0x0000c126:    e7fe        ..      B        SVC_Handler ; 0xc126
    DebugMon_Handler
        0x0000c128:    e7fe        ..      B        DebugMon_Handler ; 0xc128
    PendSV_Handler
        0x0000c12a:    e7fe        ..      B        PendSV_Handler ; 0xc12a
    SysTick_Handler
        0x0000c12c:    e7fe        ..      B        SysTick_Handler ; 0xc12c
    am_adc_isr
    am_ble_isr
    am_brownout_isr
    am_clkgen_isr
    am_ctimer_isr
    am_iomaster0_isr
    am_iomaster1_isr
    am_iomaster2_isr
    am_iomaster3_isr
    am_iomaster4_isr
    am_iomaster5_isr
    am_ioslave_acc_isr
    am_ioslave_ios_isr
    am_mspi0_isr
    am_pdm0_isr
    am_rtc_isr
    am_scard_isr
    am_software0_isr
    am_stimer_cmpr0_isr
    am_stimer_cmpr1_isr
    am_stimer_cmpr2_isr
    am_stimer_cmpr3_isr
    am_stimer_cmpr4_isr
    am_stimer_cmpr5_isr
    am_stimer_cmpr6_isr
    am_stimer_cmpr7_isr
    am_stimer_isr
    am_uart0_isr
    am_uart1_isr
    am_uart_isr
    am_vcomp_isr
    am_watchdog_isr
        0x0000c12e:    e7fe        ..      B        am_adc_isr ; 0xc12e
    $d
        0x0000c130:    0000c135    5...    DCD    49461
    $t
    !!!main
    __main
        0x0000c134:    f000f802    ....    BL       __scatterload ; 0xc13c
        0x0000c138:    f000f83c    ..<.    BL       __rt_entry ; 0xc1b4
    !!!scatter
    __scatterload
    __scatterload_rt2
    __scatterload_rt2_thumb_only
        0x0000c13c:    a00a        ..      ADR      r0,{pc}+0x2c ; 0xc168
        0x0000c13e:    e8900c00    ....    LDM      r0,{r10,r11}
        0x0000c142:    4482        .D      ADD      r10,r10,r0
        0x0000c144:    4483        .D      ADD      r11,r11,r0
        0x0000c146:    f1aa0701    ....    SUB      r7,r10,#1
    __scatterload_null
        0x0000c14a:    45da        .E      CMP      r10,r11
        0x0000c14c:    d101        ..      BNE      0xc152 ; __scatterload_null + 8
        0x0000c14e:    f000f831    ..1.    BL       __rt_entry ; 0xc1b4
        0x0000c152:    f2af0e09    ....    ADR      lr,{pc}-7 ; 0xc14b
        0x0000c156:    e8ba000f    ....    LDM      r10!,{r0-r3}
        0x0000c15a:    f0130f01    ....    TST      r3,#1
        0x0000c15e:    bf18        ..      IT       NE
        0x0000c160:    1afb        ..      SUBNE    r3,r7,r3
        0x0000c162:    f0430301    C...    ORR      r3,r3,#1
        0x0000c166:    4718        .G      BX       r3
    $d
        0x0000c168:    0000352c    ,5..    DCD    13612
        0x0000c16c:    0000354c    L5..    DCD    13644
    $t
    !!handler_copy
    __scatterload_copy
        0x0000c170:    3a10        .:      SUBS     r2,r2,#0x10
        0x0000c172:    bf24        $.      ITT      CS
        0x0000c174:    c878        x.      LDMCS    r0!,{r3-r6}
        0x0000c176:    c178        x.      STMCS    r1!,{r3-r6}
        0x0000c178:    d8fa        ..      BHI      __scatterload_copy ; 0xc170
        0x0000c17a:    0752        R.      LSLS     r2,r2,#29
        0x0000c17c:    bf24        $.      ITT      CS
        0x0000c17e:    c830        0.      LDMCS    r0!,{r4,r5}
        0x0000c180:    c130        0.      STMCS    r1!,{r4,r5}
        0x0000c182:    bf44        D.      ITT      MI
        0x0000c184:    6804        .h      LDRMI    r4,[r0,#0]
        0x0000c186:    600c        .`      STRMI    r4,[r1,#0]
        0x0000c188:    4770        pG      BX       lr
        0x0000c18a:    0000        ..      MOVS     r0,r0
    !!handler_zi
    __scatterload_zeroinit
        0x0000c18c:    2300        .#      MOVS     r3,#0
        0x0000c18e:    2400        .$      MOVS     r4,#0
        0x0000c190:    2500        .%      MOVS     r5,#0
        0x0000c192:    2600        .&      MOVS     r6,#0
        0x0000c194:    3a10        .:      SUBS     r2,r2,#0x10
        0x0000c196:    bf28        (.      IT       CS
        0x0000c198:    c178        x.      STMCS    r1!,{r3-r6}
        0x0000c19a:    d8fb        ..      BHI      0xc194 ; __scatterload_zeroinit + 8
        0x0000c19c:    0752        R.      LSLS     r2,r2,#29
        0x0000c19e:    bf28        (.      IT       CS
        0x0000c1a0:    c130        0.      STMCS    r1!,{r4,r5}
        0x0000c1a2:    bf48        H.      IT       MI
        0x0000c1a4:    600b        .`      STRMI    r3,[r1,#0]
        0x0000c1a6:    4770        pG      BX       lr
    .ARM.Collect$$libinit$$00000000
    __rt_lib_init
        0x0000c1a8:    b51f        ..      PUSH     {r0-r4,lr}
    .ARM.Collect$$libinit$$00000001
    __rt_lib_init_fp_1
        0x0000c1aa:    f003f830    ..0.    BL       _fp_init ; 0xf20e
    .ARM.Collect$$libinit$$00000004
    .ARM.Collect$$libinit$$0000000A
    .ARM.Collect$$libinit$$0000000C
    .ARM.Collect$$libinit$$0000000E
    .ARM.Collect$$libinit$$00000011
    .ARM.Collect$$libinit$$00000013
    .ARM.Collect$$libinit$$00000015
    .ARM.Collect$$libinit$$00000017
    .ARM.Collect$$libinit$$00000019
    .ARM.Collect$$libinit$$0000001B
    .ARM.Collect$$libinit$$0000001D
    .ARM.Collect$$libinit$$0000001F
    .ARM.Collect$$libinit$$00000021
    .ARM.Collect$$libinit$$00000023
    .ARM.Collect$$libinit$$00000025
    .ARM.Collect$$libinit$$0000002C
    .ARM.Collect$$libinit$$0000002E
    .ARM.Collect$$libinit$$00000030
    .ARM.Collect$$libinit$$00000032
    .ARM.Collect$$libinit$$00000033
    __rt_lib_init_alloca_1
    __rt_lib_init_argv_1
    __rt_lib_init_atexit_1
    __rt_lib_init_clock_1
    __rt_lib_init_cpp_1
    __rt_lib_init_exceptions_1
    __rt_lib_init_fp_trap_1
    __rt_lib_init_getenv_1
    __rt_lib_init_heap_1
    __rt_lib_init_lc_collate_1
    __rt_lib_init_lc_ctype_1
    __rt_lib_init_lc_monetary_1
    __rt_lib_init_lc_numeric_1
    __rt_lib_init_lc_time_1
    __rt_lib_init_preinit_1
    __rt_lib_init_rand_1
    __rt_lib_init_return
    __rt_lib_init_signal_1
    __rt_lib_init_stdio_1
    __rt_lib_init_user_alloc_1
        0x0000c1ae:    bd1f        ..      POP      {r0-r4,pc}
    .ARM.Collect$$libshutdown$$00000000
    __rt_lib_shutdown
        0x0000c1b0:    b510        ..      PUSH     {r4,lr}
    .ARM.Collect$$libshutdown$$00000002
    .ARM.Collect$$libshutdown$$00000004
    .ARM.Collect$$libshutdown$$00000007
    .ARM.Collect$$libshutdown$$0000000A
    .ARM.Collect$$libshutdown$$0000000C
    .ARM.Collect$$libshutdown$$0000000F
    .ARM.Collect$$libshutdown$$00000010
    __rt_lib_shutdown_cpp_1
    __rt_lib_shutdown_fp_trap_1
    __rt_lib_shutdown_heap_1
    __rt_lib_shutdown_return
    __rt_lib_shutdown_signal_1
    __rt_lib_shutdown_stdio_1
    __rt_lib_shutdown_user_alloc_1
        0x0000c1b2:    bd10        ..      POP      {r4,pc}
    .ARM.Collect$$rtentry$$00000000
    .ARM.Collect$$rtentry$$00000002
    .ARM.Collect$$rtentry$$00000004
    __rt_entry
    __rt_entry_presh_1
    __rt_entry_sh
        0x0000c1b4:    f000f81d    ....    BL       __user_setup_stackheap ; 0xc1f2
        0x0000c1b8:    4611        .F      MOV      r1,r2
    .ARM.Collect$$rtentry$$00000009
    .ARM.Collect$$rtentry$$0000000A
    __rt_entry_li
    __rt_entry_postsh_1
        0x0000c1ba:    f7fffff5    ....    BL       __rt_lib_init ; 0xc1a8
    .ARM.Collect$$rtentry$$0000000C
    .ARM.Collect$$rtentry$$0000000D
    __rt_entry_main
    __rt_entry_postli_1
        0x0000c1be:    f002fc6b    ..k.    BL       main ; 0xea98
        0x0000c1c2:    f000f83b    ..;.    BL       exit ; 0xc23c
    .ARM.Collect$$rtexit$$00000000
    __rt_exit
        0x0000c1c6:    b403        ..      PUSH     {r0,r1}
    .ARM.Collect$$rtexit$$00000002
    .ARM.Collect$$rtexit$$00000003
    __rt_exit_ls
    __rt_exit_prels_1
        0x0000c1c8:    f7fffff2    ....    BL       __rt_lib_shutdown ; 0xc1b0
    .ARM.Collect$$rtexit$$00000004
    __rt_exit_exit
        0x0000c1cc:    bc03        ..      POP      {r0,r1}
        0x0000c1ce:    f000f843    ..C.    BL       _sys_exit ; 0xc258
        0x0000c1d2:    0000        ..      MOVS     r0,r0
    .text
    $v0
    __user_initial_stackheap
        0x0000c1d4:    4802        .H      LDR      r0,[pc,#8] ; [0xc1e0] = 0x10004fa0
        0x0000c1d6:    4903        .I      LDR      r1,[pc,#12] ; [0xc1e4] = 0x10001050
        0x0000c1d8:    4a01        .J      LDR      r2,[pc,#4] ; [0xc1e0] = 0x10004fa0
        0x0000c1da:    4b03        .K      LDR      r3,[pc,#12] ; [0xc1e8] = 0x10000050
        0x0000c1dc:    4770        pG      BX       lr
    $d
        0x0000c1de:    0000        ..      DCW    0
        0x0000c1e0:    10004fa0    .O..    DCD    268455840
        0x0000c1e4:    10001050    P...    DCD    268439632
        0x0000c1e8:    10000050    P...    DCD    268435536
    $t
    .text
    __use_two_region_memory
        0x0000c1ec:    4770        pG      BX       lr
    __rt_heap_escrow$2region
        0x0000c1ee:    4770        pG      BX       lr
    __rt_heap_expand$2region
        0x0000c1f0:    4770        pG      BX       lr
    .text
    __user_setup_stackheap
        0x0000c1f2:    4675        uF      MOV      r5,lr
        0x0000c1f4:    f000f82c    ..,.    BL       __user_libspace ; 0xc250
        0x0000c1f8:    46ae        .F      MOV      lr,r5
        0x0000c1fa:    0005        ..      MOVS     r5,r0
        0x0000c1fc:    4669        iF      MOV      r1,sp
        0x0000c1fe:    4653        SF      MOV      r3,r10
        0x0000c200:    f0200007     ...    BIC      r0,r0,#7
        0x0000c204:    4685        .F      MOV      sp,r0
        0x0000c206:    b018        ..      ADD      sp,sp,#0x60
        0x0000c208:    b520         .      PUSH     {r5,lr}
        0x0000c20a:    f7ffffe3    ....    BL       __user_initial_stackheap ; 0xc1d4
        0x0000c20e:    e8bd4020    .. @    POP      {r5,lr}
        0x0000c212:    f04f0600    O...    MOV      r6,#0
        0x0000c216:    f04f0700    O...    MOV      r7,#0
        0x0000c21a:    f04f0800    O...    MOV      r8,#0
        0x0000c21e:    f04f0b00    O...    MOV      r11,#0
        0x0000c222:    46ac        .F      MOV      r12,r5
        0x0000c224:    e8ac09c0    ....    STM      r12!,{r6-r8,r11}
        0x0000c228:    e8ac09c0    ....    STM      r12!,{r6-r8,r11}
        0x0000c22c:    e8ac09c0    ....    STM      r12!,{r6-r8,r11}
        0x0000c230:    e8ac09c0    ....    STM      r12!,{r6-r8,r11}
        0x0000c234:    f0210107    !...    BIC      r1,r1,#7
        0x0000c238:    468d        .F      MOV      sp,r1
        0x0000c23a:    4770        pG      BX       lr
    .text
    exit
        0x0000c23c:    b510        ..      PUSH     {r4,lr}
        0x0000c23e:    4604        .F      MOV      r4,r0
        0x0000c240:    f3af8000    ....    NOP.W    
        0x0000c244:    4620         F      MOV      r0,r4
        0x0000c246:    e8bd4010    ...@    POP      {r4,lr}
        0x0000c24a:    f7ffbfbc    ....    B.W      __rt_exit ; 0xc1c6
        0x0000c24e:    0000        ..      MOVS     r0,r0
    .text
    __user_libspace
    __user_perproc_libspace
    __user_perthread_libspace
        0x0000c250:    4800        .H      LDR      r0,[pc,#0] ; [0xc254] = 0x10001050
        0x0000c252:    4770        pG      BX       lr
    $d
        0x0000c254:    10001050    P...    DCD    268439632
    $t
    .text
    _sys_exit
        0x0000c258:    4901        .I      LDR      r1,[pc,#4] ; [0xc260] = 0x20026
        0x0000c25a:    2018        .       MOVS     r0,#0x18
        0x0000c25c:    beab        ..      BKPT     #0xab
        0x0000c25e:    e7fe        ..      B        0xc25e ; _sys_exit + 6
    $d
        0x0000c260:    00020026    &...    DCD    131110
    $t
    .text
    __I$use$semihosting
    __use_no_semihosting_swi
        0x0000c264:    4770        pG      BX       lr
    .text
    __semihosting_library_function
        0x0000c266:    0000        ..      MOVS     r0,r0
    $t.9
    __NVIC_EnableIRQ
        0x0000c268:    b081        ..      SUB      sp,sp,#4
        0x0000c26a:    f88d0003    ....    STRB     r0,[sp,#3]
        0x0000c26e:    f99d0003    ....    LDRSB    r0,[sp,#3]
        0x0000c272:    2800        .(      CMP      r0,#0
        0x0000c274:    d40e        ..      BMI      0xc294 ; __NVIC_EnableIRQ + 44
        0x0000c276:    e7ff        ..      B        0xc278 ; __NVIC_EnableIRQ + 16
        0x0000c278:    f99d1003    ....    LDRSB    r1,[sp,#3]
        0x0000c27c:    f001021f    ....    AND      r2,r1,#0x1f
        0x0000c280:    2001        .       MOVS     r0,#1
        0x0000c282:    4090        .@      LSLS     r0,r0,r2
        0x0000c284:    094a        J.      LSRS     r2,r1,#5
        0x0000c286:    f24e1100    N...    MOVW     r1,#0xe100
        0x0000c28a:    f2ce0100    ....    MOVT     r1,#0xe000
        0x0000c28e:    f8410022    A.".    STR      r0,[r1,r2,LSL #2]
        0x0000c292:    e7ff        ..      B        0xc294 ; __NVIC_EnableIRQ + 44
        0x0000c294:    b001        ..      ADD      sp,sp,#4
        0x0000c296:    4770        pG      BX       lr
    am_bsp_iom_pins_enable
        0x0000c298:    b580        ..      PUSH     {r7,lr}
        0x0000c29a:    2805        .(      CMP      r0,#5
        0x0000c29c:    d900        ..      BLS      0xc2a0 ; am_bsp_iom_pins_enable + 8
        0x0000c29e:    bd80        ..      POP      {r7,pc}
        0x0000c2a0:    ea410080    A...    ORR      r0,r1,r0,LSL #2
        0x0000c2a4:    2815        .(      CMP      r0,#0x15
        0x0000c2a6:    bf88        ..      IT       HI
        0x0000c2a8:    bd80        ..      POPHI    {r7,pc}
        0x0000c2aa:    e8dff010    ....    TBH      [pc,r0,LSL #1]
    $d.9
        0x0000c2ae:    0017        ..      DCW    23
        0x0000c2b0:    00160036    6...    DCD    1441846
        0x0000c2b4:    00450016    ..E.    DCD    4522006
        0x0000c2b8:    00160064    d...    DCD    1441892
        0x0000c2bc:    00730016    ..s.    DCD    7536662
        0x0000c2c0:    00160092    ....    DCD    1441938
        0x0000c2c4:    00a10016    ....    DCD    10551318
        0x0000c2c8:    001600c0    ....    DCD    1441984
        0x0000c2cc:    00cf0016    ....    DCD    13565974
        0x0000c2d0:    001600ee    ....    DCD    1442030
        0x0000c2d4:    00fd0016    ....    DCD    16580630
        0x0000c2d8:    011c        ..      DCW    284
    $t.10
        0x0000c2da:    e7e0        ..      B        0xc29e ; am_bsp_iom_pins_enable + 6
        0x0000c2dc:    f24f4048    O.H@    MOV      r0,#0xf448
        0x0000c2e0:    f2c00000    ....    MOVT     r0,#0
        0x0000c2e4:    6801        .h      LDR      r1,[r0,#0]
        0x0000c2e6:    2005        .       MOVS     r0,#5
        0x0000c2e8:    f000fcb8    ....    BL       am_hal_gpio_pinconfig ; 0xcc5c
        0x0000c2ec:    f24f4040    O.@@    MOV      r0,#0xf440
        0x0000c2f0:    f2c00000    ....    MOVT     r0,#0
        0x0000c2f4:    6801        .h      LDR      r1,[r0,#0]
        0x0000c2f6:    2006        .       MOVS     r0,#6
        0x0000c2f8:    f000fcb0    ....    BL       am_hal_gpio_pinconfig ; 0xcc5c
        0x0000c2fc:    f24f4044    O.D@    MOV      r0,#0xf444
        0x0000c300:    f2c00000    ....    MOVT     r0,#0
        0x0000c304:    6801        .h      LDR      r1,[r0,#0]
        0x0000c306:    2007        .       MOVS     r0,#7
        0x0000c308:    f000fca8    ....    BL       am_hal_gpio_pinconfig ; 0xcc5c
        0x0000c30c:    f24f403c    O.<@    MOV      r0,#0xf43c
        0x0000c310:    f2c00000    ....    MOVT     r0,#0
        0x0000c314:    6801        .h      LDR      r1,[r0,#0]
        0x0000c316:    200b        .       MOVS     r0,#0xb
        0x0000c318:    e0f3        ..      B        0xc502 ; am_bsp_iom_pins_enable + 618
        0x0000c31a:    f24f404c    O.L@    MOV      r0,#0xf44c
        0x0000c31e:    f2c00000    ....    MOVT     r0,#0
        0x0000c322:    6801        .h      LDR      r1,[r0,#0]
        0x0000c324:    2005        .       MOVS     r0,#5
        0x0000c326:    f000fc99    ....    BL       am_hal_gpio_pinconfig ; 0xcc5c
        0x0000c32a:    f24f4050    O.P@    MOV      r0,#0xf450
        0x0000c32e:    f2c00000    ....    MOVT     r0,#0
        0x0000c332:    6801        .h      LDR      r1,[r0,#0]
        0x0000c334:    2006        .       MOVS     r0,#6
        0x0000c336:    e0e4        ..      B        0xc502 ; am_bsp_iom_pins_enable + 618
        0x0000c338:    f24f4060    O.`@    MOV      r0,#0xf460
        0x0000c33c:    f2c00000    ....    MOVT     r0,#0
        0x0000c340:    6801        .h      LDR      r1,[r0,#0]
        0x0000c342:    2008        .       MOVS     r0,#8
        0x0000c344:    f000fc8a    ....    BL       am_hal_gpio_pinconfig ; 0xcc5c
        0x0000c348:    f24f4058    O.X@    MOV      r0,#0xf458
        0x0000c34c:    f2c00000    ....    MOVT     r0,#0
        0x0000c350:    6801        .h      LDR      r1,[r0,#0]
        0x0000c352:    2009        .       MOVS     r0,#9
        0x0000c354:    f000fc82    ....    BL       am_hal_gpio_pinconfig ; 0xcc5c
        0x0000c358:    f24f405c    O.\@    MOV      r0,#0xf45c
        0x0000c35c:    f2c00000    ....    MOVT     r0,#0
        0x0000c360:    6801        .h      LDR      r1,[r0,#0]
        0x0000c362:    200a        .       MOVS     r0,#0xa
        0x0000c364:    f000fc7a    ..z.    BL       am_hal_gpio_pinconfig ; 0xcc5c
        0x0000c368:    f24f4054    O.T@    MOV      r0,#0xf454
        0x0000c36c:    f2c00000    ....    MOVT     r0,#0
        0x0000c370:    6801        .h      LDR      r1,[r0,#0]
        0x0000c372:    200e        .       MOVS     r0,#0xe
        0x0000c374:    e0c5        ..      B        0xc502 ; am_bsp_iom_pins_enable + 618
        0x0000c376:    f24f4064    O.d@    MOV      r0,#0xf464
        0x0000c37a:    f2c00000    ....    MOVT     r0,#0
        0x0000c37e:    6801        .h      LDR      r1,[r0,#0]
        0x0000c380:    2008        .       MOVS     r0,#8
        0x0000c382:    f000fc6b    ..k.    BL       am_hal_gpio_pinconfig ; 0xcc5c
        0x0000c386:    f24f4068    O.h@    MOV      r0,#0xf468
        0x0000c38a:    f2c00000    ....    MOVT     r0,#0
        0x0000c38e:    6801        .h      LDR      r1,[r0,#0]
        0x0000c390:    2009        .       MOVS     r0,#9
        0x0000c392:    e0b6        ..      B        0xc502 ; am_bsp_iom_pins_enable + 618
        0x0000c394:    f24f4078    O.x@    MOV      r0,#0xf478
        0x0000c398:    f2c00000    ....    MOVT     r0,#0
        0x0000c39c:    6801        .h      LDR      r1,[r0,#0]
        0x0000c39e:    201b        .       MOVS     r0,#0x1b
        0x0000c3a0:    f000fc5c    ..\.    BL       am_hal_gpio_pinconfig ; 0xcc5c
        0x0000c3a4:    f24f4070    O.p@    MOV      r0,#0xf470
        0x0000c3a8:    f2c00000    ....    MOVT     r0,#0
        0x0000c3ac:    6801        .h      LDR      r1,[r0,#0]
        0x0000c3ae:    2019        .       MOVS     r0,#0x19
        0x0000c3b0:    f000fc54    ..T.    BL       am_hal_gpio_pinconfig ; 0xcc5c
        0x0000c3b4:    f24f4074    O.t@    MOV      r0,#0xf474
        0x0000c3b8:    f2c00000    ....    MOVT     r0,#0
        0x0000c3bc:    6801        .h      LDR      r1,[r0,#0]
        0x0000c3be:    201c        .       MOVS     r0,#0x1c
        0x0000c3c0:    f000fc4c    ..L.    BL       am_hal_gpio_pinconfig ; 0xcc5c
        0x0000c3c4:    f24f406c    O.l@    MOV      r0,#0xf46c
        0x0000c3c8:    f2c00000    ....    MOVT     r0,#0
        0x0000c3cc:    6801        .h      LDR      r1,[r0,#0]
        0x0000c3ce:    200f        .       MOVS     r0,#0xf
        0x0000c3d0:    e097        ..      B        0xc502 ; am_bsp_iom_pins_enable + 618
        0x0000c3d2:    f24f407c    O.|@    MOV      r0,#0xf47c
        0x0000c3d6:    f2c00000    ....    MOVT     r0,#0
        0x0000c3da:    6801        .h      LDR      r1,[r0,#0]
        0x0000c3dc:    201b        .       MOVS     r0,#0x1b
        0x0000c3de:    f000fc3d    ..=.    BL       am_hal_gpio_pinconfig ; 0xcc5c
        0x0000c3e2:    f24f4080    O..@    MOV      r0,#0xf480
        0x0000c3e6:    f2c00000    ....    MOVT     r0,#0
        0x0000c3ea:    6801        .h      LDR      r1,[r0,#0]
        0x0000c3ec:    2019        .       MOVS     r0,#0x19
        0x0000c3ee:    e088        ..      B        0xc502 ; am_bsp_iom_pins_enable + 618
        0x0000c3f0:    f24f4090    O..@    MOV      r0,#0xf490
        0x0000c3f4:    f2c00000    ....    MOVT     r0,#0
        0x0000c3f8:    6801        .h      LDR      r1,[r0,#0]
        0x0000c3fa:    202a        *       MOVS     r0,#0x2a
        0x0000c3fc:    f000fc2e    ....    BL       am_hal_gpio_pinconfig ; 0xcc5c
        0x0000c400:    f24f4088    O..@    MOV      r0,#0xf488
        0x0000c404:    f2c00000    ....    MOVT     r0,#0
        0x0000c408:    6801        .h      LDR      r1,[r0,#0]
        0x0000c40a:    202b        +       MOVS     r0,#0x2b
        0x0000c40c:    f000fc26    ..&.    BL       am_hal_gpio_pinconfig ; 0xcc5c
        0x0000c410:    f24f408c    O..@    MOV      r0,#0xf48c
        0x0000c414:    f2c00000    ....    MOVT     r0,#0
        0x0000c418:    6801        .h      LDR      r1,[r0,#0]
        0x0000c41a:    2026        &       MOVS     r0,#0x26
        0x0000c41c:    f000fc1e    ....    BL       am_hal_gpio_pinconfig ; 0xcc5c
        0x0000c420:    f24f4084    O..@    MOV      r0,#0xf484
        0x0000c424:    f2c00000    ....    MOVT     r0,#0
        0x0000c428:    6801        .h      LDR      r1,[r0,#0]
        0x0000c42a:    200c        .       MOVS     r0,#0xc
        0x0000c42c:    e069        i.      B        0xc502 ; am_bsp_iom_pins_enable + 618
        0x0000c42e:    f24f4094    O..@    MOV      r0,#0xf494
        0x0000c432:    f2c00000    ....    MOVT     r0,#0
        0x0000c436:    6801        .h      LDR      r1,[r0,#0]
        0x0000c438:    202a        *       MOVS     r0,#0x2a
        0x0000c43a:    f000fc0f    ....    BL       am_hal_gpio_pinconfig ; 0xcc5c
        0x0000c43e:    f24f4098    O..@    MOV      r0,#0xf498
        0x0000c442:    f2c00000    ....    MOVT     r0,#0
        0x0000c446:    6801        .h      LDR      r1,[r0,#0]
        0x0000c448:    202b        +       MOVS     r0,#0x2b
        0x0000c44a:    e05a        Z.      B        0xc502 ; am_bsp_iom_pins_enable + 618
        0x0000c44c:    f24f40a8    O..@    MOV      r0,#0xf4a8
        0x0000c450:    f2c00000    ....    MOVT     r0,#0
        0x0000c454:    6801        .h      LDR      r1,[r0,#0]
        0x0000c456:    2027        '       MOVS     r0,#0x27
        0x0000c458:    f000fc00    ....    BL       am_hal_gpio_pinconfig ; 0xcc5c
        0x0000c45c:    f24f40a0    O..@    MOV      r0,#0xf4a0
        0x0000c460:    f2c00000    ....    MOVT     r0,#0
        0x0000c464:    6801        .h      LDR      r1,[r0,#0]
        0x0000c466:    2028        (       MOVS     r0,#0x28
        0x0000c468:    f000fbf8    ....    BL       am_hal_gpio_pinconfig ; 0xcc5c
        0x0000c46c:    f24f40a4    O..@    MOV      r0,#0xf4a4
        0x0000c470:    f2c00000    ....    MOVT     r0,#0
        0x0000c474:    6801        .h      LDR      r1,[r0,#0]
        0x0000c476:    202c        ,       MOVS     r0,#0x2c
        0x0000c478:    f000fbf0    ....    BL       am_hal_gpio_pinconfig ; 0xcc5c
        0x0000c47c:    f24f409c    O..@    MOV      r0,#0xf49c
        0x0000c480:    f2c00000    ....    MOVT     r0,#0
        0x0000c484:    6801        .h      LDR      r1,[r0,#0]
        0x0000c486:    200d        .       MOVS     r0,#0xd
        0x0000c488:    e03b        ;.      B        0xc502 ; am_bsp_iom_pins_enable + 618
        0x0000c48a:    f24f40ac    O..@    MOV      r0,#0xf4ac
        0x0000c48e:    f2c00000    ....    MOVT     r0,#0
        0x0000c492:    6801        .h      LDR      r1,[r0,#0]
        0x0000c494:    2027        '       MOVS     r0,#0x27
        0x0000c496:    f000fbe1    ....    BL       am_hal_gpio_pinconfig ; 0xcc5c
        0x0000c49a:    f24f40b0    O..@    MOV      r0,#0xf4b0
        0x0000c49e:    f2c00000    ....    MOVT     r0,#0
        0x0000c4a2:    6801        .h      LDR      r1,[r0,#0]
        0x0000c4a4:    2028        (       MOVS     r0,#0x28
        0x0000c4a6:    e02c        ,.      B        0xc502 ; am_bsp_iom_pins_enable + 618
        0x0000c4a8:    f24f40c0    O..@    MOV      r0,#0xf4c0
        0x0000c4ac:    f2c00000    ....    MOVT     r0,#0
        0x0000c4b0:    6801        .h      LDR      r1,[r0,#0]
        0x0000c4b2:    2030        0       MOVS     r0,#0x30
        0x0000c4b4:    f000fbd2    ....    BL       am_hal_gpio_pinconfig ; 0xcc5c
        0x0000c4b8:    f24f40b8    O..@    MOV      r0,#0xf4b8
        0x0000c4bc:    f2c00000    ....    MOVT     r0,#0
        0x0000c4c0:    6801        .h      LDR      r1,[r0,#0]
        0x0000c4c2:    2031        1       MOVS     r0,#0x31
        0x0000c4c4:    f000fbca    ....    BL       am_hal_gpio_pinconfig ; 0xcc5c
        0x0000c4c8:    f24f40bc    O..@    MOV      r0,#0xf4bc
        0x0000c4cc:    f2c00000    ....    MOVT     r0,#0
        0x0000c4d0:    6801        .h      LDR      r1,[r0,#0]
        0x0000c4d2:    202f        /       MOVS     r0,#0x2f
        0x0000c4d4:    f000fbc2    ....    BL       am_hal_gpio_pinconfig ; 0xcc5c
        0x0000c4d8:    f24f40b4    O..@    MOV      r0,#0xf4b4
        0x0000c4dc:    f2c00000    ....    MOVT     r0,#0
        0x0000c4e0:    6801        .h      LDR      r1,[r0,#0]
        0x0000c4e2:    2010        .       MOVS     r0,#0x10
        0x0000c4e4:    e00d        ..      B        0xc502 ; am_bsp_iom_pins_enable + 618
        0x0000c4e6:    f24f40c4    O..@    MOV      r0,#0xf4c4
        0x0000c4ea:    f2c00000    ....    MOVT     r0,#0
        0x0000c4ee:    6801        .h      LDR      r1,[r0,#0]
        0x0000c4f0:    2030        0       MOVS     r0,#0x30
        0x0000c4f2:    f000fbb3    ....    BL       am_hal_gpio_pinconfig ; 0xcc5c
        0x0000c4f6:    f24f40c8    O..@    MOV      r0,#0xf4c8
        0x0000c4fa:    f2c00000    ....    MOVT     r0,#0
        0x0000c4fe:    6801        .h      LDR      r1,[r0,#0]
        0x0000c500:    2031        1       MOVS     r0,#0x31
        0x0000c502:    e8bd4080    ...@    POP      {r7,lr}
        0x0000c506:    f000bba9    ....    B.W      am_hal_gpio_pinconfig ; 0xcc5c
    am_bsp_itm_printf_enable
        0x0000c50a:    b580        ..      PUSH     {r7,lr}
        0x0000c50c:    b086        ..      SUB      sp,sp,#0x18
        0x0000c50e:    f6446008    D..`    MOV      r0,#0x4e08
        0x0000c512:    f2c10000    ....    MOVT     r0,#0x1000
        0x0000c516:    2101        .!      MOVS     r1,#1
        0x0000c518:    6001        .`      STR      r1,[r0,#0]
        0x0000c51a:    f001f99f    ....    BL       am_hal_itm_enable ; 0xd85c
        0x0000c51e:    f2442040    D.@     MOV      r0,#0x4240
        0x0000c522:    f2c0000f    ....    MOVT     r0,#0xf
        0x0000c526:    9001        ..      STR      r0,[sp,#4]
        0x0000c528:    a801        ..      ADD      r0,sp,#4
        0x0000c52a:    f001fb74    ..t.    BL       am_hal_tpiu_enable ; 0xdc16
        0x0000c52e:    f24f40cc    O..@    MOV      r0,#0xf4cc
        0x0000c532:    f2c00000    ....    MOVT     r0,#0
        0x0000c536:    6801        .h      LDR      r1,[r0,#0]
        0x0000c538:    2029        )       MOVS     r0,#0x29
        0x0000c53a:    f000fb8f    ....    BL       am_hal_gpio_pinconfig ; 0xcc5c
        0x0000c53e:    f64d00a1    M...    MOV      r0,#0xd8a1
        0x0000c542:    f2c00000    ....    MOVT     r0,#0
        0x0000c546:    f001fbf7    ....    BL       am_util_stdio_printf_init ; 0xdd38
        0x0000c54a:    b006        ..      ADD      sp,sp,#0x18
        0x0000c54c:    bd80        ..      POP      {r7,pc}
        0x0000c54e:    0000        ..      MOVS     r0,r0
    am_bsp_low_power_init
        0x0000c550:    b5f0        ..      PUSH     {r4-r7,lr}
        0x0000c552:    b081        ..      SUB      sp,sp,#4
        0x0000c554:    f001f9e4    ....    BL       am_hal_pwrctrl_low_power_init ; 0xd920
        0x0000c558:    f001faf3    ....    BL       am_hal_rtc_osc_disable ; 0xdb42
        0x0000c55c:    f24f40d0    O..@    MOV      r0,#0xf4d0
        0x0000c560:    f2c00000    ....    MOVT     r0,#0
        0x0000c564:    6804        .h      LDR      r4,[r0,#0]
        0x0000c566:    f2400700    @...    MOVW     r7,#0
        0x0000c56a:    2600        .&      MOVS     r6,#0
        0x0000c56c:    f2c10700    ....    MOVT     r7,#0x1000
        0x0000c570:    f8575036    W.6P    LDR      r5,[r7,r6,LSL #3]
        0x0000c574:    4621        !F      MOV      r1,r4
        0x0000c576:    4628        (F      MOV      r0,r5
        0x0000c578:    f000fb70    ..p.    BL       am_hal_gpio_pinconfig ; 0xcc5c
        0x0000c57c:    4628        (F      MOV      r0,r5
        0x0000c57e:    2103        .!      MOVS     r1,#3
        0x0000c580:    f000fc98    ....    BL       am_hal_gpio_state_write ; 0xceb4
        0x0000c584:    4628        (F      MOV      r0,r5
        0x0000c586:    2100        .!      MOVS     r1,#0
        0x0000c588:    f000fc94    ....    BL       am_hal_gpio_state_write ; 0xceb4
        0x0000c58c:    3601        .6      ADDS     r6,#1
        0x0000c58e:    2e05        ..      CMP      r6,#5
        0x0000c590:    d1ee        ..      BNE      0xc570 ; am_bsp_low_power_init + 32
        0x0000c592:    b001        ..      ADD      sp,sp,#4
        0x0000c594:    bdf0        ..      POP      {r4-r7,pc}
        0x0000c596:    0000        ..      MOVS     r0,r0
    am_gpio_isr
        0x0000c598:    b580        ..      PUSH     {r7,lr}
        0x0000c59a:    b082        ..      SUB      sp,sp,#8
        0x0000c59c:    2000        .       MOVS     r0,#0
        0x0000c59e:    4669        iF      MOV      r1,sp
        0x0000c5a0:    f000fb39    ..9.    BL       am_hal_gpio_interrupt_status_get ; 0xcc16
        0x0000c5a4:    9800        ..      LDR      r0,[sp,#0]
        0x0000c5a6:    9901        ..      LDR      r1,[sp,#4]
        0x0000c5a8:    f000fa97    ....    BL       am_hal_gpio_interrupt_clear ; 0xcada
        0x0000c5ac:    9800        ..      LDR      r0,[sp,#0]
        0x0000c5ae:    9901        ..      LDR      r1,[sp,#4]
        0x0000c5b0:    f000fada    ....    BL       am_hal_gpio_interrupt_service ; 0xcb68
        0x0000c5b4:    b002        ..      ADD      sp,sp,#8
        0x0000c5b6:    bd80        ..      POP      {r7,pc}
    am_hal_cachectrl_config
        0x0000c5b8:    b5b0        ..      PUSH     {r4,r5,r7,lr}
        0x0000c5ba:    b082        ..      SUB      sp,sp,#8
        0x0000c5bc:    4604        .F      MOV      r4,r0
        0x0000c5be:    f000fcc5    ....    BL       am_hal_interrupt_master_disable ; 0xcf4c
        0x0000c5c2:    f2480500    H...    MOVW     r5,#0x8000
        0x0000c5c6:    9001        ..      STR      r0,[sp,#4]
        0x0000c5c8:    f2c40501    ....    MOVT     r5,#0x4001
        0x0000c5cc:    6828        (h      LDR      r0,[r5,#0]
        0x0000c5ce:    f4207040     .@p    BIC      r0,r0,#0x300
        0x0000c5d2:    6028        (`      STR      r0,[r5,#0]
        0x0000c5d4:    9801        ..      LDR      r0,[sp,#4]
        0x0000c5d6:    f000fcc1    ....    BL       am_hal_interrupt_master_set ; 0xcf5c
        0x0000c5da:    78a1        .x      LDRB     r1,[r4,#2]
        0x0000c5dc:    7820         x      LDRB     r0,[r4,#0]
        0x0000c5de:    7862        bx      LDRB     r2,[r4,#1]
        0x0000c5e0:    0049        I.      LSLS     r1,r1,#1
        0x0000c5e2:    b2c9        ..      UXTB     r1,r1
        0x0000c5e4:    f0020203    ....    AND      r2,r2,#3
        0x0000c5e8:    f3601107    `...    BFI      r1,r0,#4,#4
        0x0000c5ec:    ea412002    A..     ORR      r0,r1,r2,LSL #8
        0x0000c5f0:    f4401080    @...    ORR      r0,r0,#0x100000
        0x0000c5f4:    f4406180    @..a    ORR      r1,r0,#0x400
        0x0000c5f8:    2000        .       MOVS     r0,#0
        0x0000c5fa:    6029        )`      STR      r1,[r5,#0]
        0x0000c5fc:    b002        ..      ADD      sp,sp,#8
        0x0000c5fe:    bdb0        ..      POP      {r4,r5,r7,pc}
    am_hal_cachectrl_control
        0x0000c600:    b510        ..      PUSH     {r4,lr}
        0x0000c602:    b082        ..      SUB      sp,sp,#8
        0x0000c604:    1e42        B.      SUBS     r2,r0,#1
        0x0000c606:    2a10        .*      CMP      r2,#0x10
        0x0000c608:    f200807e    ..~.    BHI.W    0xc708 ; am_hal_cachectrl_control + 264
        0x0000c60c:    2001        .       MOVS     r0,#1
        0x0000c60e:    e8dff002    ....    TBB      [pc,r2]
    $d.4
        0x0000c612:    097e        ~.      DCW    2430
        0x0000c614:    1a181512    ....    DCD    437785874
        0x0000c618:    2f221f1c    .."/    DCD    790765340
        0x0000c61c:    604f483e    >HO`    DCD    1615808574
        0x0000c620:    00716a65    ejq.    DCD    7432805
    $t.5
        0x0000c624:    f2480000    H...    MOVW     r0,#0x8000
        0x0000c628:    f2c40001    ....    MOVT     r0,#0x4001
        0x0000c62c:    6800        .h      LDR      r0,[r0,#0]
        0x0000c62e:    01c0        ..      LSLS     r0,r0,#7
        0x0000c630:    d46c        l.      BMI      0xc70c ; am_hal_cachectrl_control + 268
        0x0000c632:    2407        .$      MOVS     r4,#7
        0x0000c634:    e071        q.      B        0xc71a ; am_hal_cachectrl_control + 282
        0x0000c636:    f44f6088    O..`    MOV      r0,#0x440
        0x0000c63a:    e068        h.      B        0xc70e ; am_hal_cachectrl_control + 270
        0x0000c63c:    f44f7008    O..p    MOV      r0,#0x220
        0x0000c640:    e065        e.      B        0xc70e ; am_hal_cachectrl_control + 270
        0x0000c642:    2040        @       MOVS     r0,#0x40
        0x0000c644:    e063        c.      B        0xc70e ; am_hal_cachectrl_control + 270
        0x0000c646:    2020                MOVS     r0,#0x20
        0x0000c648:    e061        a.      B        0xc70e ; am_hal_cachectrl_control + 270
        0x0000c64a:    f44f6080    O..`    MOV      r0,#0x400
        0x0000c64e:    e05e        ^.      B        0xc70e ; am_hal_cachectrl_control + 270
        0x0000c650:    f44f7000    O..p    MOV      r0,#0x200
        0x0000c654:    e05b        [.      B        0xc70e ; am_hal_cachectrl_control + 270
        0x0000c656:    f000fc79    ..y.    BL       am_hal_interrupt_master_disable ; 0xcf4c
        0x0000c65a:    9001        ..      STR      r0,[sp,#4]
        0x0000c65c:    f2480000    H...    MOVW     r0,#0x8000
        0x0000c660:    f2c40001    ....    MOVT     r0,#0x4001
        0x0000c664:    6801        .h      LDR      r1,[r0,#0]
        0x0000c666:    f0417180    A..q    ORR      r1,r1,#0x1000000
        0x0000c66a:    6001        .`      STR      r1,[r0,#0]
        0x0000c66c:    9801        ..      LDR      r0,[sp,#4]
        0x0000c66e:    e00b        ..      B        0xc688 ; am_hal_cachectrl_control + 136
        0x0000c670:    f000fc6c    ..l.    BL       am_hal_interrupt_master_disable ; 0xcf4c
        0x0000c674:    9000        ..      STR      r0,[sp,#0]
        0x0000c676:    f2480000    H...    MOVW     r0,#0x8000
        0x0000c67a:    f2c40001    ....    MOVT     r0,#0x4001
        0x0000c67e:    6801        .h      LDR      r1,[r0,#0]
        0x0000c680:    f0217180    !..q    BIC      r1,r1,#0x1000000
        0x0000c684:    6001        .`      STR      r1,[r0,#0]
        0x0000c686:    9800        ..      LDR      r0,[sp,#0]
        0x0000c688:    f000fc68    ..h.    BL       am_hal_interrupt_master_set ; 0xcf5c
        0x0000c68c:    e044        D.      B        0xc718 ; am_hal_cachectrl_control + 280
        0x0000c68e:    2000        .       MOVS     r0,#0
        0x0000c690:    f002fb7c    ..|.    BL       set_LPMMODE ; 0xed8c
        0x0000c694:    b360        `.      CBZ      r0,0xc6f0 ; am_hal_cachectrl_control + 240
        0x0000c696:    2007        .       MOVS     r0,#7
        0x0000c698:    f002fbba    ....    BL       set_SEDELAY ; 0xee10
        0x0000c69c:    b340        @.      CBZ      r0,0xc6f0 ; am_hal_cachectrl_control + 240
        0x0000c69e:    2003        .       MOVS     r0,#3
        0x0000c6a0:    e023        #.      B        0xc6ea ; am_hal_cachectrl_control + 234
        0x0000c6a2:    2001        .       MOVS     r0,#1
        0x0000c6a4:    2401        .$      MOVS     r4,#1
        0x0000c6a6:    f002fb71    ..q.    BL       set_LPMMODE ; 0xed8c
        0x0000c6aa:    b3b0        ..      CBZ      r0,0xc71a ; am_hal_cachectrl_control + 282
        0x0000c6ac:    2005        .       MOVS     r0,#5
        0x0000c6ae:    e005        ..      B        0xc6bc ; am_hal_cachectrl_control + 188
        0x0000c6b0:    2001        .       MOVS     r0,#1
        0x0000c6b2:    2401        .$      MOVS     r4,#1
        0x0000c6b4:    f002fb6a    ..j.    BL       set_LPMMODE ; 0xed8c
        0x0000c6b8:    b378        x.      CBZ      r0,0xc71a ; am_hal_cachectrl_control + 282
        0x0000c6ba:    2006        .       MOVS     r0,#6
        0x0000c6bc:    f002fba8    ....    BL       set_SEDELAY ; 0xee10
        0x0000c6c0:    b1b0        ..      CBZ      r0,0xc6f0 ; am_hal_cachectrl_control + 240
        0x0000c6c2:    2001        .       MOVS     r0,#1
        0x0000c6c4:    2401        .$      MOVS     r4,#1
        0x0000c6c6:    f002fb82    ....    BL       set_RDWAIT ; 0xedce
        0x0000c6ca:    2800        .(      CMP      r0,#0
        0x0000c6cc:    bf18        ..      IT       NE
        0x0000c6ce:    2400        .$      MOVNE    r4,#0
        0x0000c6d0:    e023        #.      B        0xc71a ; am_hal_cachectrl_control + 282
        0x0000c6d2:    b1c9        ..      CBZ      r1,0xc708 ; am_hal_cachectrl_control + 264
        0x0000c6d4:    6808        .h      LDR      r0,[r1,#0]
        0x0000c6d6:    f002fb59    ..Y.    BL       set_LPMMODE ; 0xed8c
        0x0000c6da:    e008        ..      B        0xc6ee ; am_hal_cachectrl_control + 238
        0x0000c6dc:    b1a1        ..      CBZ      r1,0xc708 ; am_hal_cachectrl_control + 264
        0x0000c6de:    6808        .h      LDR      r0,[r1,#0]
        0x0000c6e0:    f002fb96    ....    BL       set_SEDELAY ; 0xee10
        0x0000c6e4:    e003        ..      B        0xc6ee ; am_hal_cachectrl_control + 238
        0x0000c6e6:    b179        y.      CBZ      r1,0xc708 ; am_hal_cachectrl_control + 264
        0x0000c6e8:    6808        .h      LDR      r0,[r1,#0]
        0x0000c6ea:    f002fb70    ..p.    BL       set_RDWAIT ; 0xedce
        0x0000c6ee:    b998        ..      CBNZ     r0,0xc718 ; am_hal_cachectrl_control + 280
        0x0000c6f0:    2401        .$      MOVS     r4,#1
        0x0000c6f2:    e012        ..      B        0xc71a ; am_hal_cachectrl_control + 282
        0x0000c6f4:    b141        A.      CBZ      r1,0xc708 ; am_hal_cachectrl_control + 264
        0x0000c6f6:    6848        Hh      LDR      r0,[r1,#4]
        0x0000c6f8:    220f        ."      MOVS     r2,#0xf
        0x0000c6fa:    f6cf0200    ....    MOVT     r2,#0xf800
        0x0000c6fe:    4210        .B      TST      r0,r2
        0x0000c700:    d102        ..      BNE      0xc708 ; am_hal_cachectrl_control + 264
        0x0000c702:    688b        .h      LDR      r3,[r1,#8]
        0x0000c704:    4213        .B      TST      r3,r2
        0x0000c706:    d00b        ..      BEQ      0xc720 ; am_hal_cachectrl_control + 288
        0x0000c708:    2406        .$      MOVS     r4,#6
        0x0000c70a:    e006        ..      B        0xc71a ; am_hal_cachectrl_control + 282
        0x0000c70c:    2002        .       MOVS     r0,#2
        0x0000c70e:    f2480100    H...    MOVW     r1,#0x8000
        0x0000c712:    f2c40101    ....    MOVT     r1,#0x4001
        0x0000c716:    6088        .`      STR      r0,[r1,#8]
        0x0000c718:    2400        .$      MOVS     r4,#0
        0x0000c71a:    4620         F      MOV      r0,r4
        0x0000c71c:    b002        ..      ADD      sp,sp,#8
        0x0000c71e:    bd10        ..      POP      {r4,pc}
        0x0000c720:    780a        .x      LDRB     r2,[r1,#0]
        0x0000c722:    2a01        .*      CMP      r2,#1
        0x0000c724:    d011        ..      BEQ      0xc74a ; am_hal_cachectrl_control + 330
        0x0000c726:    2a00        .*      CMP      r2,#0
        0x0000c728:    d1ee        ..      BNE      0xc708 ; am_hal_cachectrl_control + 264
        0x0000c72a:    f2480200    H...    MOVW     r2,#0x8000
        0x0000c72e:    f2c40201    ....    MOVT     r2,#0x4001
        0x0000c732:    6110        .a      STR      r0,[r2,#0x10]
        0x0000c734:    6888        .h      LDR      r0,[r1,#8]
        0x0000c736:    6150        Pa      STR      r0,[r2,#0x14]
        0x0000c738:    7848        Hx      LDRB     r0,[r1,#1]
        0x0000c73a:    6811        .h      LDR      r1,[r2,#0]
        0x0000c73c:    f000003f    ..?.    AND      r0,r0,#0x3f
        0x0000c740:    f0210104    !...    BIC      r1,r1,#4
        0x0000c744:    ea410080    A...    ORR      r0,r1,r0,LSL #2
        0x0000c748:    e00e        ..      B        0xc768 ; am_hal_cachectrl_control + 360
        0x0000c74a:    f2480200    H...    MOVW     r2,#0x8000
        0x0000c74e:    f2c40201    ....    MOVT     r2,#0x4001
        0x0000c752:    6190        .a      STR      r0,[r2,#0x18]
        0x0000c754:    6888        .h      LDR      r0,[r1,#8]
        0x0000c756:    61d0        .a      STR      r0,[r2,#0x1c]
        0x0000c758:    7848        Hx      LDRB     r0,[r1,#1]
        0x0000c75a:    6811        .h      LDR      r1,[r2,#0]
        0x0000c75c:    f000001f    ....    AND      r0,r0,#0x1f
        0x0000c760:    f0210108    !...    BIC      r1,r1,#8
        0x0000c764:    ea4100c0    A...    ORR      r0,r1,r0,LSL #3
        0x0000c768:    6010        .`      STR      r0,[r2,#0]
        0x0000c76a:    e7d5        ..      B        0xc718 ; am_hal_cachectrl_control + 280
    am_hal_cachectrl_enable
        0x0000c76c:    f2480100    H...    MOVW     r1,#0x8000
        0x0000c770:    f2c40101    ....    MOVT     r1,#0x4001
        0x0000c774:    6808        .h      LDR      r0,[r1,#0]
        0x0000c776:    f0400201    @...    ORR      r2,r0,#1
        0x0000c77a:    2000        .       MOVS     r0,#0
        0x0000c77c:    600a        .`      STR      r2,[r1,#0]
        0x0000c77e:    4770        pG      BX       lr
    am_hal_clkgen_control
        0x0000c780:    b510        ..      PUSH     {r4,lr}
        0x0000c782:    f2412214    A.."    MOV      r2,#0x1214
        0x0000c786:    f2c10200    ....    MOVT     r2,#0x1000
        0x0000c78a:    6813        .h      LDR      r3,[r2,#0]
        0x0000c78c:    460c        .F      MOV      r4,r1
        0x0000c78e:    b92b        +.      CBNZ     r3,0xc79c ; am_hal_clkgen_control + 28
        0x0000c790:    f24f0100    O...    MOVW     r1,#0xf000
        0x0000c794:    f6c471ff    ...q    MOVT     r1,#0x4fff
        0x0000c798:    6809        .h      LDR      r1,[r1,#0]
        0x0000c79a:    6011        .`      STR      r1,[r2,#0]
        0x0000c79c:    2809        .(      CMP      r0,#9
        0x0000c79e:    d80f        ..      BHI      0xc7c0 ; am_hal_clkgen_control + 64
        0x0000c7a0:    e8dff000    ....    TBB      [pc,r0]
    $d.1
        0x0000c7a4:    20181005    ...     DCD    538447877
        0x0000c7a8:    544c4139    9ALT    DCD    1414283577
        0x0000c7ac:    775e        ^w      DCW    30558
    $t.2
        0x0000c7ae:    f244010c    D...    MOV      r1,#0x400c
        0x0000c7b2:    f2c40100    ....    MOVT     r1,#0x4000
        0x0000c7b6:    2047        G       MOVS     r0,#0x47
        0x0000c7b8:    6088        .`      STR      r0,[r1,#8]
        0x0000c7ba:    2000        .       MOVS     r0,#0
        0x0000c7bc:    60c8        .`      STR      r0,[r1,#0xc]
        0x0000c7be:    e03b        ;.      B        0xc838 ; am_hal_clkgen_control + 184
        0x0000c7c0:    2006        .       MOVS     r0,#6
        0x0000c7c2:    bd10        ..      POP      {r4,pc}
        0x0000c7c4:    f244000c    D...    MOV      r0,#0x400c
        0x0000c7c8:    f2c40000    ....    MOVT     r0,#0x4000
        0x0000c7cc:    6801        .h      LDR      r1,[r0,#0]
        0x0000c7ce:    f0210101    !...    BIC      r1,r1,#1
        0x0000c7d2:    e042        B.      B        0xc85a ; am_hal_clkgen_control + 218
        0x0000c7d4:    f244000c    D...    MOV      r0,#0x400c
        0x0000c7d8:    f2c40000    ....    MOVT     r0,#0x4000
        0x0000c7dc:    6801        .h      LDR      r1,[r0,#0]
        0x0000c7de:    f0210102    !...    BIC      r1,r1,#2
        0x0000c7e2:    e03a        :.      B        0xc85a ; am_hal_clkgen_control + 218
        0x0000c7e4:    f2401020    @. .    MOVW     r0,#0x120
        0x0000c7e8:    f64f61ec    O..a    MOV      r1,#0xfeec
        0x0000c7ec:    f2c40002    ....    MOVT     r0,#0x4002
        0x0000c7f0:    f6cf71ff    ...q    MOVT     r1,#0xffff
        0x0000c7f4:    5841        AX      LDR      r1,[r0,r1]
        0x0000c7f6:    b2c9        ..      UXTB     r1,r1
        0x0000c7f8:    2921        !)      CMP      r1,#0x21
        0x0000c7fa:    d104        ..      BNE      0xc806 ; am_hal_clkgen_control + 134
        0x0000c7fc:    6801        .h      LDR      r1,[r0,#0]
        0x0000c7fe:    2201        ."      MOVS     r2,#1
        0x0000c800:    f3622109    b..!    BFI      r1,r2,#8,#2
        0x0000c804:    6001        .`      STR      r1,[r0,#0]
        0x0000c806:    f244000c    D...    MOV      r0,#0x400c
        0x0000c80a:    f2c40000    ....    MOVT     r0,#0x4000
        0x0000c80e:    6801        .h      LDR      r1,[r0,#0]
        0x0000c810:    f0410101    A...    ORR      r1,r1,#1
        0x0000c814:    e021        !.      B        0xc85a ; am_hal_clkgen_control + 218
        0x0000c816:    f244000c    D...    MOV      r0,#0x400c
        0x0000c81a:    f2c40000    ....    MOVT     r0,#0x4000
        0x0000c81e:    6801        .h      LDR      r1,[r0,#0]
        0x0000c820:    f0410102    A...    ORR      r1,r1,#2
        0x0000c824:    e019        ..      B        0xc85a ; am_hal_clkgen_control + 218
        0x0000c826:    f244010c    D...    MOV      r1,#0x400c
        0x0000c82a:    f2c40100    ....    MOVT     r1,#0x4000
        0x0000c82e:    2047        G       MOVS     r0,#0x47
        0x0000c830:    6088        .`      STR      r0,[r1,#8]
        0x0000c832:    2001        .       MOVS     r0,#1
        0x0000c834:    60c8        .`      STR      r0,[r1,#0xc]
        0x0000c836:    2000        .       MOVS     r0,#0
        0x0000c838:    6088        .`      STR      r0,[r1,#8]
        0x0000c83a:    bd10        ..      POP      {r4,pc}
        0x0000c83c:    f244000c    D...    MOV      r0,#0x400c
        0x0000c840:    f2c40000    ....    MOVT     r0,#0x4000
        0x0000c844:    6801        .h      LDR      r1,[r0,#0]
        0x0000c846:    f0210180    !...    BIC      r1,r1,#0x80
        0x0000c84a:    e006        ..      B        0xc85a ; am_hal_clkgen_control + 218
        0x0000c84c:    f244000c    D...    MOV      r0,#0x400c
        0x0000c850:    f2c40000    ....    MOVT     r0,#0x4000
        0x0000c854:    6801        .h      LDR      r1,[r0,#0]
        0x0000c856:    f0410180    A...    ORR      r1,r1,#0x80
        0x0000c85a:    6001        .`      STR      r1,[r0,#0]
        0x0000c85c:    2000        .       MOVS     r0,#0
        0x0000c85e:    bd10        ..      POP      {r4,pc}
        0x0000c860:    f2401020    @. .    MOVW     r0,#0x120
        0x0000c864:    f64f61ec    O..a    MOV      r1,#0xfeec
        0x0000c868:    f2c40002    ....    MOVT     r0,#0x4002
        0x0000c86c:    f6cf71ff    ...q    MOVT     r1,#0xffff
        0x0000c870:    5841        AX      LDR      r1,[r0,r1]
        0x0000c872:    b2c9        ..      UXTB     r1,r1
        0x0000c874:    2921        !)      CMP      r1,#0x21
        0x0000c876:    d107        ..      BNE      0xc888 ; am_hal_clkgen_control + 264
        0x0000c878:    6801        .h      LDR      r1,[r0,#0]
        0x0000c87a:    f4417140    A.@q    ORR      r1,r1,#0x300
        0x0000c87e:    6001        .`      STR      r1,[r0,#0]
        0x0000c880:    f44f507a    O.zP    MOV      r0,#0x3e80
        0x0000c884:    f000f8c7    ....    BL       am_hal_flash_delay ; 0xca16
        0x0000c888:    b164        d.      CBZ      r4,0xc8a4 ; am_hal_clkgen_control + 292
        0x0000c88a:    6820         h      LDR      r0,[r4,#0]
        0x0000c88c:    f0400001    @...    ORR      r0,r0,#1
        0x0000c890:    e00c        ..      B        0xc8ac ; am_hal_clkgen_control + 300
        0x0000c892:    f244000c    D...    MOV      r0,#0x400c
        0x0000c896:    f2c40000    ....    MOVT     r0,#0x4000
        0x0000c89a:    6941        Ai      LDR      r1,[r0,#0x14]
        0x0000c89c:    f0210101    !...    BIC      r1,r1,#1
        0x0000c8a0:    6141        Aa      STR      r1,[r0,#0x14]
        0x0000c8a2:    e7db        ..      B        0xc85c ; am_hal_clkgen_control + 220
        0x0000c8a4:    f64b0001    K...    MOV      r0,#0xb801
        0x0000c8a8:    f2c00025    ..%.    MOVT     r0,#0x25
        0x0000c8ac:    f244010c    D...    MOV      r1,#0x400c
        0x0000c8b0:    f2c40100    ....    MOVT     r1,#0x4000
        0x0000c8b4:    6148        Ha      STR      r0,[r1,#0x14]
        0x0000c8b6:    e7d1        ..      B        0xc85c ; am_hal_clkgen_control + 220
    am_hal_clkgen_status_get
        0x0000c8b8:    b1c0        ..      CBZ      r0,0xc8ec ; am_hal_clkgen_status_get + 52
        0x0000c8ba:    f2440118    D...    MOV      r1,#0x4018
        0x0000c8be:    f2c40100    ....    MOVT     r1,#0x4000
        0x0000c8c2:    680a        .h      LDR      r2,[r1,#0]
        0x0000c8c4:    07d2        ..      LSLS     r2,r2,#31
        0x0000c8c6:    f2436200    C..b    MOVW     r2,#0x3600
        0x0000c8ca:    f2c0126e    ..n.    MOVT     r2,#0x16e
        0x0000c8ce:    bf04        ..      ITT      EQ
        0x0000c8d0:    f6464200    F..B    MOVWEQ   r2,#0x6c00
        0x0000c8d4:    f2c022dc    ..."    MOVTEQ   r2,#0x2dc
        0x0000c8d8:    6002        .`      STR      r2,[r0,#0]
        0x0000c8da:    6849        Ih      LDR      r1,[r1,#4]
        0x0000c8dc:    f0010201    ....    AND      r2,r1,#1
        0x0000c8e0:    f3c10140    ..@.    UBFX     r1,r1,#1,#1
        0x0000c8e4:    6042        B`      STR      r2,[r0,#4]
        0x0000c8e6:    7201        .r      STRB     r1,[r0,#8]
        0x0000c8e8:    2000        .       MOVS     r0,#0
        0x0000c8ea:    4770        pG      BX       lr
        0x0000c8ec:    2006        .       MOVS     r0,#6
        0x0000c8ee:    4770        pG      BX       lr
    am_hal_cmdq_disable
        0x0000c8f0:    b1b0        ..      CBZ      r0,0xc920 ; am_hal_cmdq_disable + 48
        0x0000c8f2:    6801        .h      LDR      r1,[r0,#0]
        0x0000c8f4:    f64c53cd    L..S    MOV      r3,#0xcdcd
        0x0000c8f8:    f021427e    !.~B    BIC      r2,r1,#0xfe000000
        0x0000c8fc:    f2c013cd    ....    MOVT     r3,#0x1cd
        0x0000c900:    429a        .B      CMP      r2,r3
        0x0000c902:    d10d        ..      BNE      0xc920 ; am_hal_cmdq_disable + 48
        0x0000c904:    0189        ..      LSLS     r1,r1,#6
        0x0000c906:    d509        ..      BPL      0xc91c ; am_hal_cmdq_disable + 44
        0x0000c908:    6a41        Aj      LDR      r1,[r0,#0x24]
        0x0000c90a:    6809        .h      LDR      r1,[r1,#0]
        0x0000c90c:    680a        .h      LDR      r2,[r1,#0]
        0x0000c90e:    f0220201    "...    BIC      r2,r2,#1
        0x0000c912:    600a        .`      STR      r2,[r1,#0]
        0x0000c914:    6801        .h      LDR      r1,[r0,#0]
        0x0000c916:    f0217100    !..q    BIC      r1,r1,#0x2000000
        0x0000c91a:    6001        .`      STR      r1,[r0,#0]
        0x0000c91c:    2000        .       MOVS     r0,#0
        0x0000c91e:    4770        pG      BX       lr
        0x0000c920:    2002        .       MOVS     r0,#2
        0x0000c922:    4770        pG      BX       lr
    am_hal_cmdq_enable
        0x0000c924:    b1b0        ..      CBZ      r0,0xc954 ; am_hal_cmdq_enable + 48
        0x0000c926:    6801        .h      LDR      r1,[r0,#0]
        0x0000c928:    f64c53cd    L..S    MOV      r3,#0xcdcd
        0x0000c92c:    f021427e    !.~B    BIC      r2,r1,#0xfe000000
        0x0000c930:    f2c013cd    ....    MOVT     r3,#0x1cd
        0x0000c934:    429a        .B      CMP      r2,r3
        0x0000c936:    d10d        ..      BNE      0xc954 ; am_hal_cmdq_enable + 48
        0x0000c938:    0189        ..      LSLS     r1,r1,#6
        0x0000c93a:    d409        ..      BMI      0xc950 ; am_hal_cmdq_enable + 44
        0x0000c93c:    6a41        Aj      LDR      r1,[r0,#0x24]
        0x0000c93e:    6809        .h      LDR      r1,[r1,#0]
        0x0000c940:    680a        .h      LDR      r2,[r1,#0]
        0x0000c942:    f0420201    B...    ORR      r2,r2,#1
        0x0000c946:    600a        .`      STR      r2,[r1,#0]
        0x0000c948:    6801        .h      LDR      r1,[r0,#0]
        0x0000c94a:    f0417100    A..q    ORR      r1,r1,#0x2000000
        0x0000c94e:    6001        .`      STR      r1,[r0,#0]
        0x0000c950:    2000        .       MOVS     r0,#0
        0x0000c952:    4770        pG      BX       lr
        0x0000c954:    2002        .       MOVS     r0,#2
        0x0000c956:    4770        pG      BX       lr
    am_hal_cmdq_init
        0x0000c958:    e92d41f0    -..A    PUSH     {r4-r8,lr}
        0x0000c95c:    2807        .(      CMP      r0,#7
        0x0000c95e:    bf84        ..      ITT      HI
        0x0000c960:    2005        .       MOVHI    r0,#5
        0x0000c962:    e8bd81f0    ....    POPHI    {r4-r8,pc}
        0x0000c966:    b171        q.      CBZ      r1,0xc986 ; am_hal_cmdq_init + 46
        0x0000c968:    4603        .F      MOV      r3,r0
        0x0000c96a:    2a00        .*      CMP      r2,#0
        0x0000c96c:    f04f0006    O...    MOV      r0,#6
        0x0000c970:    d04f        O.      BEQ      0xca12 ; am_hal_cmdq_init + 186
        0x0000c972:    f8d1e004    ....    LDR      lr,[r1,#4]
        0x0000c976:    f1be0f00    ....    CMP      lr,#0
        0x0000c97a:    bf08        ..      IT       EQ
        0x0000c97c:    e8bd81f0    ....    POPEQ    {r4-r8,pc}
        0x0000c980:    6808        .h      LDR      r0,[r1,#0]
        0x0000c982:    2802        .(      CMP      r0,#2
        0x0000c984:    d202        ..      BCS      0xc98c ; am_hal_cmdq_init + 52
        0x0000c986:    2006        .       MOVS     r0,#6
        0x0000c988:    e8bd81f0    ....    POP      {r4-r8,pc}
        0x0000c98c:    f2410cb4    A...    MOV      r12,#0x10b4
        0x0000c990:    252c        ,%      MOVS     r5,#0x2c
        0x0000c992:    f2c10c00    ....    MOVT     r12,#0x1000
        0x0000c996:    fb03f405    ....    MUL      r4,r3,r5
        0x0000c99a:    f85c4004    \..@    LDR      r4,[r12,r4]
        0x0000c99e:    01e6        ..      LSLS     r6,r4,#7
        0x0000c9a0:    bf44        D.      ITT      MI
        0x0000c9a2:    2007        .       MOVMI    r0,#7
        0x0000c9a4:    e8bd81f0    ....    POPMI    {r4-r8,pc}
        0x0000c9a8:    f24f28f8    O..(    MOV      r8,#0xf2f8
        0x0000c9ac:    fb13cc05    ....    SMLABB   r12,r3,r5,r12
        0x0000c9b0:    00c5        ..      LSLS     r5,r0,#3
        0x0000c9b2:    eb0e06c0    ....    ADD      r6,lr,r0,LSL #3
        0x0000c9b6:    f64c50cd    L..P    MOV      r0,#0xcdcd
        0x0000c9ba:    eb030383    ....    ADD      r3,r3,r3,LSL #2
        0x0000c9be:    f2c00800    ....    MOVT     r8,#0
        0x0000c9c2:    f2c010cd    ....    MOVT     r0,#0x1cd
        0x0000c9c6:    eb0807c3    ....    ADD      r7,r8,r3,LSL #3
        0x0000c9ca:    f3600419    `...    BFI      r4,r0,#0,#26
        0x0000c9ce:    e9cce601    ....    STRD     lr,r6,[r12,#4]
        0x0000c9d2:    e9cce505    ....    STRD     lr,r5,[r12,#0x14]
        0x0000c9d6:    e9d76502    ...e    LDRD     r6,r5,[r7,#8]
        0x0000c9da:    f8cc4000    ...@    STR      r4,[r12,#0]
        0x0000c9de:    2000        .       MOVS     r0,#0
        0x0000c9e0:    693c        <i      LDR      r4,[r7,#0x10]
        0x0000c9e2:    f8cc7024    ..$p    STR      r7,[r12,#0x24]
        0x0000c9e6:    e9ccee03    ....    STRD     lr,lr,[r12,#0xc]
        0x0000c9ea:    e9cc0007    ....    STRD     r0,r0,[r12,#0x1c]
        0x0000c9ee:    6030        0`      STR      r0,[r6,#0]
        0x0000c9f0:    6028        (`      STR      r0,[r5,#0]
        0x0000c9f2:    697e        ~i      LDR      r6,[r7,#0x14]
        0x0000c9f4:    6825        %h      LDR      r5,[r4,#0]
        0x0000c9f6:    687f        .h      LDR      r7,[r7,#4]
        0x0000c9f8:    432e        .C      ORRS     r6,r6,r5
        0x0000c9fa:    6026        &`      STR      r6,[r4,#0]
        0x0000c9fc:    684e        Nh      LDR      r6,[r1,#4]
        0x0000c9fe:    f8583033    X.30    LDR      r3,[r8,r3,LSL #3]
        0x0000ca02:    603e        >`      STR      r6,[r7,#0]
        0x0000ca04:    7a09        .z      LDRB     r1,[r1,#8]
        0x0000ca06:    2702        .'      MOVS     r7,#2
        0x0000ca08:    ea070141    ..A.    AND      r1,r7,r1,LSL #1
        0x0000ca0c:    6019        .`      STR      r1,[r3,#0]
        0x0000ca0e:    f8c2c000    ....    STR      r12,[r2,#0]
        0x0000ca12:    e8bd81f0    ....    POP      {r4-r8,pc}
    am_hal_flash_delay
        0x0000ca16:    f2440134    D.4.    MOV      r1,#0x4034
        0x0000ca1a:    f2c40100    ....    MOVT     r1,#0x4000
        0x0000ca1e:    680a        .h      LDR      r2,[r1,#0]
        0x0000ca20:    f3c20180    ....    UBFX     r1,r2,#2,#1
        0x0000ca24:    4088        .@      LSLS     r0,r0,r1
        0x0000ca26:    210e        .!      MOVS     r1,#0xe
        0x0000ca28:    f0120f04    ....    TST      r2,#4
        0x0000ca2c:    bf08        ..      IT       EQ
        0x0000ca2e:    210b        .!      MOVEQ    r1,#0xb
        0x0000ca30:    4281        .B      CMP      r1,r0
        0x0000ca32:    bf28        (.      IT       CS
        0x0000ca34:    4770        pG      BXCS     lr
        0x0000ca36:    1a40        @.      SUBS     r0,r0,r1
        0x0000ca38:    219d        .!      MOVS     r1,#0x9d
        0x0000ca3a:    f6c00100    ....    MOVT     r1,#0x800
        0x0000ca3e:    4708        .G      BX       r1
    am_hal_flash_delay_status_check
        0x0000ca40:    e92d4ff0    -..O    PUSH     {r4-r11,lr}
        0x0000ca44:    b081        ..      SUB      sp,sp,#4
        0x0000ca46:    f8dd8028    ..(.    LDR      r8,[sp,#0x28]
        0x0000ca4a:    f2440934    D.4.    MOV      r9,#0x4034
        0x0000ca4e:    f2400b9d    @...    MOVW     r11,#0x9d
        0x0000ca52:    461c        .F      MOV      r4,r3
        0x0000ca54:    4615        .F      MOV      r5,r2
        0x0000ca56:    460e        .F      MOV      r6,r1
        0x0000ca58:    4607        .F      MOV      r7,r0
        0x0000ca5a:    f2c40900    ....    MOVT     r9,#0x4000
        0x0000ca5e:    f04f0a10    O...    MOV      r10,#0x10
        0x0000ca62:    f6c00b00    ....    MOVT     r11,#0x800
        0x0000ca66:    bf00        ..      NOP      
        0x0000ca68:    6830        0h      LDR      r0,[r6,#0]
        0x0000ca6a:    f1b80f00    ....    CMP      r8,#0
        0x0000ca6e:    ea000005    ....    AND      r0,r0,r5
        0x0000ca72:    d003        ..      BEQ      0xca7c ; am_hal_flash_delay_status_check + 60
        0x0000ca74:    42a0        .B      CMP      r0,r4
        0x0000ca76:    d103        ..      BNE      0xca80 ; am_hal_flash_delay_status_check + 64
        0x0000ca78:    e014        ..      B        0xcaa4 ; am_hal_flash_delay_status_check + 100
        0x0000ca7a:    bf00        ..      NOP      
        0x0000ca7c:    42a0        .B      CMP      r0,r4
        0x0000ca7e:    d111        ..      BNE      0xcaa4 ; am_hal_flash_delay_status_check + 100
        0x0000ca80:    b197        ..      CBZ      r7,0xcaa8 ; am_hal_flash_delay_status_check + 104
        0x0000ca82:    f8d90000    ....    LDR      r0,[r9,#0]
        0x0000ca86:    3f01        .?      SUBS     r7,#1
        0x0000ca88:    f3c00180    ....    UBFX     r1,r0,#2,#1
        0x0000ca8c:    f0100f04    ....    TST      r0,#4
        0x0000ca90:    f06f000d    o...    MVN      r0,#0xd
        0x0000ca94:    bf08        ..      IT       EQ
        0x0000ca96:    f06f000a    o...    MVNEQ    r0,#0xa
        0x0000ca9a:    fa0af101    ....    LSL      r1,r10,r1
        0x0000ca9e:    4408        .D      ADD      r0,r0,r1
        0x0000caa0:    47d8        .G      BLX      r11
        0x0000caa2:    e7e1        ..      B        0xca68 ; am_hal_flash_delay_status_check + 40
        0x0000caa4:    2000        .       MOVS     r0,#0
        0x0000caa6:    e000        ..      B        0xcaaa ; am_hal_flash_delay_status_check + 106
        0x0000caa8:    2004        .       MOVS     r0,#4
        0x0000caaa:    b001        ..      ADD      sp,sp,#4
        0x0000caac:    e8bd8ff0    ....    POP      {r4-r11,pc}
    am_hal_flash_load_ui32
        0x0000cab0:    2175        u!      MOVS     r1,#0x75
        0x0000cab2:    f6c00100    ....    MOVT     r1,#0x800
        0x0000cab6:    4708        .G      BX       r1
    am_hal_flash_store_ui32
        0x0000cab8:    b580        ..      PUSH     {r7,lr}
        0x0000caba:    b084        ..      SUB      sp,sp,#0x10
        0x0000cabc:    f24f2234    O.4"    MOV      r2,#0xf234
        0x0000cac0:    f2c00200    ....    MOVT     r2,#0
        0x0000cac4:    e9d23c00    ...<    LDRD     r3,r12,[r2,#0]
        0x0000cac8:    6892        .h      LDR      r2,[r2,#8]
        0x0000caca:    e9cd3c01    ...<    STRD     r3,r12,[sp,#4]
        0x0000cace:    9203        ..      STR      r2,[sp,#0xc]
        0x0000cad0:    aa01        ..      ADD      r2,sp,#4
        0x0000cad2:    3201        .2      ADDS     r2,#1
        0x0000cad4:    4790        .G      BLX      r2
        0x0000cad6:    b004        ..      ADD      sp,sp,#0x10
        0x0000cad8:    bd80        ..      POP      {r7,pc}
    am_hal_gpio_interrupt_clear
        0x0000cada:    b5b0        ..      PUSH     {r4,r5,r7,lr}
        0x0000cadc:    b082        ..      SUB      sp,sp,#8
        0x0000cade:    460c        .F      MOV      r4,r1
        0x0000cae0:    2100        .!      MOVS     r1,#0
        0x0000cae2:    ebb14f94    ...O    CMP      r1,r4,LSR #18
        0x0000cae6:    d10e        ..      BNE      0xcb06 ; am_hal_gpio_interrupt_clear + 44
        0x0000cae8:    4605        .F      MOV      r5,r0
        0x0000caea:    f000fa2f    ../.    BL       am_hal_interrupt_master_disable ; 0xcf4c
        0x0000caee:    9001        ..      STR      r0,[sp,#4]
        0x0000caf0:    f2402008    @..     MOVW     r0,#0x208
        0x0000caf4:    f2c40001    ....    MOVT     r0,#0x4001
        0x0000caf8:    6005        .`      STR      r5,[r0,#0]
        0x0000cafa:    6104        .a      STR      r4,[r0,#0x10]
        0x0000cafc:    9801        ..      LDR      r0,[sp,#4]
        0x0000cafe:    f000fa2d    ..-.    BL       am_hal_interrupt_master_set ; 0xcf5c
        0x0000cb02:    2000        .       MOVS     r0,#0
        0x0000cb04:    e000        ..      B        0xcb08 ; am_hal_gpio_interrupt_clear + 46
        0x0000cb06:    2005        .       MOVS     r0,#5
        0x0000cb08:    b002        ..      ADD      sp,sp,#8
        0x0000cb0a:    bdb0        ..      POP      {r4,r5,r7,pc}
    am_hal_gpio_interrupt_enable
        0x0000cb0c:    b5b0        ..      PUSH     {r4,r5,r7,lr}
        0x0000cb0e:    b082        ..      SUB      sp,sp,#8
        0x0000cb10:    460c        .F      MOV      r4,r1
        0x0000cb12:    2100        .!      MOVS     r1,#0
        0x0000cb14:    ebb14f94    ...O    CMP      r1,r4,LSR #18
        0x0000cb18:    d112        ..      BNE      0xcb40 ; am_hal_gpio_interrupt_enable + 52
        0x0000cb1a:    4605        .F      MOV      r5,r0
        0x0000cb1c:    f000fa16    ....    BL       am_hal_interrupt_master_disable ; 0xcf4c
        0x0000cb20:    9001        ..      STR      r0,[sp,#4]
        0x0000cb22:    f2402000    @..     MOVW     r0,#0x200
        0x0000cb26:    f2c40001    ....    MOVT     r0,#0x4001
        0x0000cb2a:    6801        .h      LDR      r1,[r0,#0]
        0x0000cb2c:    4329        )C      ORRS     r1,r1,r5
        0x0000cb2e:    6001        .`      STR      r1,[r0,#0]
        0x0000cb30:    6901        .i      LDR      r1,[r0,#0x10]
        0x0000cb32:    4321        !C      ORRS     r1,r1,r4
        0x0000cb34:    6101        .a      STR      r1,[r0,#0x10]
        0x0000cb36:    9801        ..      LDR      r0,[sp,#4]
        0x0000cb38:    f000fa10    ....    BL       am_hal_interrupt_master_set ; 0xcf5c
        0x0000cb3c:    2000        .       MOVS     r0,#0
        0x0000cb3e:    e000        ..      B        0xcb42 ; am_hal_gpio_interrupt_enable + 54
        0x0000cb40:    2005        .       MOVS     r0,#5
        0x0000cb42:    b002        ..      ADD      sp,sp,#8
        0x0000cb44:    bdb0        ..      POP      {r4,r5,r7,pc}
    am_hal_gpio_interrupt_register
        0x0000cb46:    2831        1(      CMP      r0,#0x31
        0x0000cb48:    bf84        ..      ITT      HI
        0x0000cb4a:    2005        .       MOVHI    r0,#5
        0x0000cb4c:    4770        pG      BXHI     lr
        0x0000cb4e:    2900        .)      CMP      r1,#0
        0x0000cb50:    bf0f        ..      ITEEE    EQ
        0x0000cb52:    2006        .       MOVEQ    r0,#6
        0x0000cb54:    f64462d4    D..b    MOVNE    r2,#0x4ed4
        0x0000cb58:    f2c10200    ....    MOVTNE   r2,#0x1000
        0x0000cb5c:    f8421020    B. .    STRNE    r1,[r2,r0,LSL #2]
        0x0000cb60:    bf18        ..      IT       NE
        0x0000cb62:    2000        .       MOVNE    r0,#0
        0x0000cb64:    4770        pG      BX       lr
        0x0000cb66:    0000        ..      MOVS     r0,r0
    am_hal_gpio_interrupt_service
        0x0000cb68:    e92d4ff0    -..O    PUSH     {r4-r11,lr}
        0x0000cb6c:    b083        ..      SUB      sp,sp,#0xc
        0x0000cb6e:    2200        ."      MOVS     r2,#0
        0x0000cb70:    ebb24f91    ...O    CMP      r2,r1,LSR #18
        0x0000cb74:    d148        H.      BNE      0xcc08 ; am_hal_gpio_interrupt_service + 160
        0x0000cb76:    ea500201    P...    ORRS     r2,r0,r1
        0x0000cb7a:    d047        G.      BEQ      0xcc0c ; am_hal_gpio_interrupt_service + 164
        0x0000cb7c:    f64464d4    D..d    MOV      r4,#0x4ed4
        0x0000cb80:    f6446a0c    D..j    MOV      r10,#0x4e0c
        0x0000cb84:    f04f0b01    O...    MOV      r11,#1
        0x0000cb88:    2500        .%      MOVS     r5,#0
        0x0000cb8a:    f04f4600    O..F    MOV      r6,#0x80000000
        0x0000cb8e:    f2c10400    ....    MOVT     r4,#0x1000
        0x0000cb92:    f2c10a00    ....    MOVT     r10,#0x1000
        0x0000cb96:    2700        .'      MOVS     r7,#0
        0x0000cb98:    e9cd0101    ....    STRD     r0,r1,[sp,#4]
        0x0000cb9c:    f1c70220    .. .    RSB      r2,r7,#0x20
        0x0000cba0:    40f8        .@      LSRS     r0,r0,r7
        0x0000cba2:    fa01f202    ....    LSL      r2,r1,r2
        0x0000cba6:    ea400802    @...    ORR      r8,r0,r2
        0x0000cbaa:    f1b70020    .. .    SUBS     r0,r7,#0x20
        0x0000cbae:    bf58        X.      IT       PL
        0x0000cbb0:    fa21f800    !...    LSRPL    r8,r1,r0
        0x0000cbb4:    f1b80f00    ....    CMP      r8,#0
        0x0000cbb8:    d01c        ..      BEQ      0xcbf4 ; am_hal_gpio_interrupt_service + 140
        0x0000cbba:    f1c80000    ....    RSB      r0,r8,#0
        0x0000cbbe:    ea000008    ....    AND      r0,r0,r8
        0x0000cbc2:    fab0f980    ....    CLZ      r9,r0
        0x0000cbc6:    eba70009    ....    SUB      r0,r7,r9
        0x0000cbca:    301f        .0      ADDS     r0,r0,#0x1f
        0x0000cbcc:    f8541020    T. .    LDR      r1,[r4,r0,LSL #2]
        0x0000cbd0:    b141        A.      CBZ      r1,0xcbe4 ; am_hal_gpio_interrupt_service + 124
        0x0000cbd2:    07ca        ..      LSLS     r2,r1,#31
        0x0000cbd4:    d108        ..      BNE      0xcbe8 ; am_hal_gpio_interrupt_service + 128
        0x0000cbd6:    f85a0020    Z. .    LDR      r0,[r10,r0,LSL #2]
        0x0000cbda:    f0410101    A...    ORR      r1,r1,#1
        0x0000cbde:    4788        .G      BLX      r1
        0x0000cbe0:    e003        ..      B        0xcbea ; am_hal_gpio_interrupt_service + 130
        0x0000cbe2:    bf00        ..      NOP      
        0x0000cbe4:    2507        .%      MOVS     r5,#7
        0x0000cbe6:    e000        ..      B        0xcbea ; am_hal_gpio_interrupt_service + 130
        0x0000cbe8:    4788        .G      BLX      r1
        0x0000cbea:    fa26f009    &...    LSR      r0,r6,r9
        0x0000cbee:    ea280800    (...    BIC      r8,r8,r0
        0x0000cbf2:    e7df        ..      B        0xcbb4 ; am_hal_gpio_interrupt_service + 76
        0x0000cbf4:    ea5f70cb    _..p    LSLS     r0,r11,#31
        0x0000cbf8:    e9dd0101    ....    LDRD     r0,r1,[sp,#4]
        0x0000cbfc:    f04f0720    O. .    MOV      r7,#0x20
        0x0000cc00:    f04f0b00    O...    MOV      r11,#0
        0x0000cc04:    d1ca        ..      BNE      0xcb9c ; am_hal_gpio_interrupt_service + 52
        0x0000cc06:    e002        ..      B        0xcc0e ; am_hal_gpio_interrupt_service + 166
        0x0000cc08:    2505        .%      MOVS     r5,#5
        0x0000cc0a:    e000        ..      B        0xcc0e ; am_hal_gpio_interrupt_service + 166
        0x0000cc0c:    2501        .%      MOVS     r5,#1
        0x0000cc0e:    4628        (F      MOV      r0,r5
        0x0000cc10:    b003        ..      ADD      sp,sp,#0xc
        0x0000cc12:    e8bd8ff0    ....    POP      {r4-r11,pc}
    am_hal_gpio_interrupt_status_get
        0x0000cc16:    b181        ..      CBZ      r1,0xcc3a ; am_hal_gpio_interrupt_status_get + 36
        0x0000cc18:    b570        p.      PUSH     {r4-r6,lr}
        0x0000cc1a:    b082        ..      SUB      sp,sp,#8
        0x0000cc1c:    f2402600    @..&    MOVW     r6,#0x200
        0x0000cc20:    460c        .F      MOV      r4,r1
        0x0000cc22:    4605        .F      MOV      r5,r0
        0x0000cc24:    f2c40601    ....    MOVT     r6,#0x4001
        0x0000cc28:    f000f990    ....    BL       am_hal_interrupt_master_disable ; 0xcf4c
        0x0000cc2c:    9001        ..      STR      r0,[sp,#4]
        0x0000cc2e:    6971        qi      LDR      r1,[r6,#0x14]
        0x0000cc30:    6870        ph      LDR      r0,[r6,#4]
        0x0000cc32:    b125        %.      CBZ      r5,0xcc3e ; am_hal_gpio_interrupt_status_get + 40
        0x0000cc34:    6933        3i      LDR      r3,[r6,#0x10]
        0x0000cc36:    6832        2h      LDR      r2,[r6,#0]
        0x0000cc38:    e005        ..      B        0xcc46 ; am_hal_gpio_interrupt_status_get + 48
        0x0000cc3a:    2006        .       MOVS     r0,#6
        0x0000cc3c:    4770        pG      BX       lr
        0x0000cc3e:    f04f32ff    O..2    MOV      r2,#0xffffffff
        0x0000cc42:    f04f33ff    O..3    MOV      r3,#0xffffffff
        0x0000cc46:    4019        .@      ANDS     r1,r1,r3
        0x0000cc48:    4010        .@      ANDS     r0,r0,r2
        0x0000cc4a:    e9c40100    ....    STRD     r0,r1,[r4,#0]
        0x0000cc4e:    9801        ..      LDR      r0,[sp,#4]
        0x0000cc50:    f000f984    ....    BL       am_hal_interrupt_master_set ; 0xcf5c
        0x0000cc54:    2000        .       MOVS     r0,#0
        0x0000cc56:    b002        ..      ADD      sp,sp,#8
        0x0000cc58:    bd70        p.      POP      {r4-r6,pc}
        0x0000cc5a:    0000        ..      MOVS     r0,r0
    am_hal_gpio_pinconfig
        0x0000cc5c:    e92d4ff0    -..O    PUSH     {r4-r11,lr}
        0x0000cc60:    b085        ..      SUB      sp,sp,#0x14
        0x0000cc62:    2831        1(      CMP      r0,#0x31
        0x0000cc64:    d904        ..      BLS      0xcc70 ; am_hal_gpio_pinconfig + 20
        0x0000cc66:    2506        .%      MOVS     r5,#6
        0x0000cc68:    4628        (F      MOV      r0,r5
        0x0000cc6a:    b005        ..      ADD      sp,sp,#0x14
        0x0000cc6c:    e8bd8ff0    ....    POP      {r4-r11,pc}
        0x0000cc70:    b2ce        ..      UXTB     r6,r1
        0x0000cc72:    4604        .F      MOV      r4,r0
        0x0000cc74:    f2401200    @...    MOVW     r2,#0x100
        0x0000cc78:    f0060307    ....    AND      r3,r6,#7
        0x0000cc7c:    2000        .       MOVS     r0,#0
        0x0000cc7e:    f6c00200    ....    MOVT     r2,#0x800
        0x0000cc82:    ebb01f56    ..V.    CMP      r0,r6,LSR #5
        0x0000cc86:    ea4f00c3    O...    LSL      r0,r3,#3
        0x0000cc8a:    d01a        ..      BEQ      0xccc2 ; am_hal_gpio_pinconfig + 102
        0x0000cc8c:    0977        w.      LSRS     r7,r6,#5
        0x0000cc8e:    2ebf        ..      CMP      r6,#0xbf
        0x0000cc90:    f0400001    @...    ORR      r0,r0,#1
        0x0000cc94:    d80a        ..      BHI      0xccac ; am_hal_gpio_pinconfig + 80
        0x0000cc96:    2f01        ./      CMP      r7,#1
        0x0000cc98:    d008        ..      BEQ      0xccac ; am_hal_gpio_pinconfig + 80
        0x0000cc9a:    a66c        l.      ADR      r6,{pc}+0x1b2 ; 0xce4c
        0x0000cc9c:    5d36        6]      LDRB     r6,[r6,r4]
        0x0000cc9e:    4615        .F      MOV      r5,r2
        0x0000cca0:    07f6        ..      LSLS     r6,r6,#31
        0x0000cca2:    d0e1        ..      BEQ      0xcc68 ; am_hal_gpio_pinconfig + 12
        0x0000cca4:    ea401087    @...    ORR      r0,r0,r7,LSL #6
        0x0000cca8:    3880        .8      SUBS     r0,r0,#0x80
        0x0000ccaa:    e00a        ..      B        0xccc2 ; am_hal_gpio_pinconfig + 102
        0x0000ccac:    2f06        ./      CMP      r7,#6
        0x0000ccae:    d103        ..      BNE      0xccb8 ; am_hal_gpio_pinconfig + 92
        0x0000ccb0:    2c14        .,      CMP      r4,#0x14
        0x0000ccb2:    d006        ..      BEQ      0xccc2 ; am_hal_gpio_pinconfig + 102
        0x0000ccb4:    1c55        U.      ADDS     r5,r2,#1
        0x0000ccb6:    e7d7        ..      B        0xcc68 ; am_hal_gpio_pinconfig + 12
        0x0000ccb8:    2c14        .,      CMP      r4,#0x14
        0x0000ccba:    d102        ..      BNE      0xccc2 ; am_hal_gpio_pinconfig + 102
        0x0000ccbc:    2f01        ./      CMP      r7,#1
        0x0000ccbe:    4615        .F      MOV      r5,r2
        0x0000ccc0:    d0d2        ..      BEQ      0xcc68 ; am_hal_gpio_pinconfig + 12
        0x0000ccc2:    f3c107c1    ....    UBFX     r7,r1,#3,#2
        0x0000ccc6:    b197        ..      CBZ      r7,0xccee ; am_hal_gpio_pinconfig + 146
        0x0000ccc8:    2f02        ./      CMP      r7,#2
        0x0000ccca:    f1020502    ....    ADD      r5,r2,#2
        0x0000ccce:    d008        ..      BEQ      0xcce2 ; am_hal_gpio_pinconfig + 134
        0x0000ccd0:    2f01        ./      CMP      r7,#1
        0x0000ccd2:    d1c9        ..      BNE      0xcc68 ; am_hal_gpio_pinconfig + 12
        0x0000ccd4:    2c24        $,      CMP      r4,#0x24
        0x0000ccd6:    d001        ..      BEQ      0xccdc ; am_hal_gpio_pinconfig + 128
        0x0000ccd8:    2c03        .,      CMP      r4,#3
        0x0000ccda:    d1c5        ..      BNE      0xcc68 ; am_hal_gpio_pinconfig + 12
        0x0000ccdc:    f0400040    @.@.    ORR      r0,r0,#0x40
        0x0000cce0:    e005        ..      B        0xccee ; am_hal_gpio_pinconfig + 146
        0x0000cce2:    2c29        ),      CMP      r4,#0x29
        0x0000cce4:    d001        ..      BEQ      0xccea ; am_hal_gpio_pinconfig + 142
        0x0000cce6:    2c25        %,      CMP      r4,#0x25
        0x0000cce8:    d1be        ..      BNE      0xcc68 ; am_hal_gpio_pinconfig + 12
        0x0000ccea:    f0400080    @...    ORR      r0,r0,#0x80
        0x0000ccee:    f24f47d4    O..G    MOV      r7,#0xf4d4
        0x0000ccf2:    f2c00700    ....    MOVT     r7,#0
        0x0000ccf6:    5d3f        ?]      LDRB     r7,[r7,r4]
        0x0000ccf8:    40df        .@      LSRS     r7,r7,r3
        0x0000ccfa:    07ff        ..      LSLS     r7,r7,#31
        0x0000ccfc:    a760        `.      ADR      r7,{pc}+0x184 ; 0xce80
        0x0000ccfe:    5d3f        ?]      LDRB     r7,[r7,r4]
        0x0000cd00:    bf18        ..      IT       NE
        0x0000cd02:    f0400002    @...    ORRNE    r0,r0,#2
        0x0000cd06:    429f        .B      CMP      r7,r3
        0x0000cd08:    d106        ..      BNE      0xcd18 ; am_hal_gpio_pinconfig + 188
        0x0000cd0a:    0c0b        ..      LSRS     r3,r1,#16
        0x0000cd0c:    f0030307    ....    AND      r3,r3,#7
        0x0000cd10:    2b07        .+      CMP      r3,#7
        0x0000cd12:    d122        ".      BNE      0xcd5a ; am_hal_gpio_pinconfig + 254
        0x0000cd14:    1cd5        ..      ADDS     r5,r2,#3
        0x0000cd16:    e7a7        ..      B        0xcc68 ; am_hal_gpio_pinconfig + 12
        0x0000cd18:    2202        ."      MOVS     r2,#2
        0x0000cd1a:    ea0222d1    ..."    AND      r2,r2,r1,LSR #11
        0x0000cd1e:    4310        .C      ORRS     r0,r0,r2
        0x0000cd20:    2208        ."      MOVS     r2,#8
        0x0000cd22:    f3c12381    ...#    UBFX     r3,r1,#10,#2
        0x0000cd26:    ea022291    ..."    AND      r2,r2,r1,LSR #10
        0x0000cd2a:    ea420243    B.C.    ORR      r2,r2,r3,LSL #1
        0x0000cd2e:    3b01        .;      SUBS     r3,#1
        0x0000cd30:    1ecf        ..      SUBS     r7,r1,#3
        0x0000cd32:    fab3f383    ....    CLZ      r3,r3
        0x0000cd36:    fab7f787    ....    CLZ      r7,r7
        0x0000cd3a:    095b        [.      LSRS     r3,r3,#5
        0x0000cd3c:    097f        ..      LSRS     r7,r7,#5
        0x0000cd3e:    433b        ;C      ORRS     r3,r3,r7
        0x0000cd40:    f4114fc0    ...O    TST      r1,#0x6000
        0x0000cd44:    9300        ..      STR      r3,[sp,#0]
        0x0000cd46:    bf07        ..      ITTEE    EQ
        0x0000cd48:    f3c133c0    ...3    UBFXEQ   r3,r1,#15,#1
        0x0000cd4c:    ea420c03    B...    ORREQ    r12,r2,r3
        0x0000cd50:    f3c13380    ...3    UBFXNE   r3,r1,#14,#1
        0x0000cd54:    eb020c03    ....    ADDNE    r12,r2,r3
        0x0000cd58:    e01b        ..      B        0xcd92 ; am_hal_gpio_pinconfig + 310
        0x0000cd5a:    f3c147c1    ...G    UBFX     r7,r1,#19,#2
        0x0000cd5e:    ea471703    G...    ORR      r7,r7,r3,LSL #4
        0x0000cd62:    f24f5306    O..S    MOV      r3,#0xf506
        0x0000cd66:    f2c00300    ....    MOVT     r3,#0
        0x0000cd6a:    eb030684    ....    ADD      r6,r3,r4,LSL #2
        0x0000cd6e:    2300        .#      MOVS     r3,#0
        0x0000cd70:    7835        5x      LDRB     r5,[r6,#0]
        0x0000cd72:    42af        .B      CMP      r7,r5
        0x0000cd74:    d006        ..      BEQ      0xcd84 ; am_hal_gpio_pinconfig + 296
        0x0000cd76:    3302        .3      ADDS     r3,#2
        0x0000cd78:    2b08        .+      CMP      r3,#8
        0x0000cd7a:    f1060601    ....    ADD      r6,r6,#1
        0x0000cd7e:    d1f7        ..      BNE      0xcd70 ; am_hal_gpio_pinconfig + 276
        0x0000cd80:    1d15        ..      ADDS     r5,r2,#4
        0x0000cd82:    e771        q.      B        0xcc68 ; am_hal_gpio_pinconfig + 12
        0x0000cd84:    2208        ."      MOVS     r2,#8
        0x0000cd86:    ea024291    ...B    AND      r2,r2,r1,LSR #18
        0x0000cd8a:    ea430c02    C...    ORR      r12,r3,r2
        0x0000cd8e:    2200        ."      MOVS     r2,#0
        0x0000cd90:    9200        ..      STR      r2,[sp,#0]
        0x0000cd92:    0a09        ..      LSRS     r1,r1,#8
        0x0000cd94:    f0010103    ....    AND      r1,r1,#3
        0x0000cd98:    e8dff001    ....    TBB      [pc,r1]
    $d.1
        0x0000cd9c:    06080209    ....    DCD    101188105
    $t.2
        0x0000cda0:    f0400004    @...    ORR      r0,r0,#4
        0x0000cda4:    2100        .!      MOVS     r1,#0
        0x0000cda6:    e002        ..      B        0xcdae ; am_hal_gpio_pinconfig + 338
        0x0000cda8:    f0400004    @...    ORR      r0,r0,#4
        0x0000cdac:    2101        .!      MOVS     r1,#1
        0x0000cdae:    f06f0303    o...    MVN      r3,#3
        0x0000cdb2:    ea030a54    ..T.    AND      r10,r3,r4,LSR #1
        0x0000cdb6:    231c        .#      MOVS     r3,#0x1c
        0x0000cdb8:    2518        .%      MOVS     r5,#0x18
        0x0000cdba:    ea030384    ....    AND      r3,r3,r4,LSL #2
        0x0000cdbe:    ea0502c4    ....    AND      r2,r5,r4,LSL #3
        0x0000cdc2:    250f        .%      MOVS     r5,#0xf
        0x0000cdc4:    409d        .@      LSLS     r5,r5,r3
        0x0000cdc6:    43ed        .C      MVNS     r5,r5
        0x0000cdc8:    2600        .&      MOVS     r6,#0
        0x0000cdca:    9503        ..      STR      r5,[sp,#0xc]
        0x0000cdcc:    25ff        .%      MOVS     r5,#0xff
        0x0000cdce:    fa00f802    ....    LSL      r8,r0,r2
        0x0000cdd2:    fa01f002    ....    LSL      r0,r1,r2
        0x0000cdd6:    f2c40601    ....    MOVT     r6,#0x4001
        0x0000cdda:    4095        .@      LSLS     r5,r5,r2
        0x0000cddc:    9002        ..      STR      r0,[sp,#8]
        0x0000cdde:    fa0cf003    ....    LSL      r0,r12,r3
        0x0000cde2:    f1060b40    ..@.    ADD      r11,r6,#0x40
        0x0000cde6:    f0240703    $...    BIC      r7,r4,#3
        0x0000cdea:    f10609e0    ....    ADD      r9,r6,#0xe0
        0x0000cdee:    43ed        .C      MVNS     r5,r5
        0x0000cdf0:    9001        ..      STR      r0,[sp,#4]
        0x0000cdf2:    f000f8ab    ....    BL       am_hal_interrupt_master_disable ; 0xcf4c
        0x0000cdf6:    9900        ..      LDR      r1,[sp,#0]
        0x0000cdf8:    9004        ..      STR      r0,[sp,#0x10]
        0x0000cdfa:    b151        Q.      CBZ      r1,0xce12 ; am_hal_gpio_pinconfig + 438
        0x0000cdfc:    f004001f    ....    AND      r0,r4,#0x1f
        0x0000ce00:    2101        .!      MOVS     r1,#1
        0x0000ce02:    fa01f000    ....    LSL      r0,r1,r0
        0x0000ce06:    f3c41140    ..@.    UBFX     r1,r4,#5,#1
        0x0000ce0a:    eb060181    ....    ADD      r1,r6,r1,LSL #2
        0x0000ce0e:    f8c100b4    ....    STR      r0,[r1,#0xb4]
        0x0000ce12:    2073        s       MOVS     r0,#0x73
        0x0000ce14:    6630        0f      STR      r0,[r6,#0x60]
        0x0000ce16:    59f0        .Y      LDR      r0,[r6,r7]
        0x0000ce18:    4028        (@      ANDS     r0,r0,r5
        0x0000ce1a:    ea400008    @...    ORR      r0,r0,r8
        0x0000ce1e:    51f0        .Q      STR      r0,[r6,r7]
        0x0000ce20:    f85a000b    Z...    LDR      r0,[r10,r11]
        0x0000ce24:    9903        ..      LDR      r1,[sp,#0xc]
        0x0000ce26:    4008        .@      ANDS     r0,r0,r1
        0x0000ce28:    9901        ..      LDR      r1,[sp,#4]
        0x0000ce2a:    4308        .C      ORRS     r0,r0,r1
        0x0000ce2c:    f84a000b    J...    STR      r0,[r10,r11]
        0x0000ce30:    f8570009    W...    LDR      r0,[r7,r9]
        0x0000ce34:    9902        ..      LDR      r1,[sp,#8]
        0x0000ce36:    4028        (@      ANDS     r0,r0,r5
        0x0000ce38:    4308        .C      ORRS     r0,r0,r1
        0x0000ce3a:    2500        .%      MOVS     r5,#0
        0x0000ce3c:    f8470009    G...    STR      r0,[r7,r9]
        0x0000ce40:    6635        5f      STR      r5,[r6,#0x60]
        0x0000ce42:    9804        ..      LDR      r0,[sp,#0x10]
        0x0000ce44:    f000f88a    ....    BL       am_hal_interrupt_master_set ; 0xcf5c
        0x0000ce48:    e70e        ..      B        0xcc68 ; am_hal_gpio_pinconfig + 12
        0x0000ce4a:    bf00        ..      NOP      
    $d.3
    g_ui8Bit76Capabilities
        0x0000ce4c:    02800101    ....    DCD    41943297
        0x0000ce50:    80010180    ....    DCD    2147549568
        0x0000ce54:    80800101    ....    DCD    2155872513
        0x0000ce58:    80808080    ....    DCD    2155905152
        0x0000ce5c:    80808080    ....    DCD    2155905152
        0x0000ce60:    80808008    ....    DCD    2155905032
        0x0000ce64:    01800180    ....    DCD    25166208
        0x0000ce68:    80808080    ....    DCD    2155905152
        0x0000ce6c:    80808080    ....    DCD    2155905152
        0x0000ce70:    01800402    ....    DCD    25166850
        0x0000ce74:    01010401    ....    DCD    16843777
        0x0000ce78:    80808080    ....    DCD    2155905152
        0x0000ce7c:    00000101    ....    DCD    257
    g_ui8nCEpins
        0x0000ce80:    02070707    ....    DCD    34014983
        0x0000ce84:    00080802    ....    DCD    526338
        0x0000ce88:    01020202    ....    DCD    16908802
        0x0000ce8c:    01010101    ....    DCD    16843009
        0x0000ce90:    01010101    ....    DCD    16843009
        0x0000ce94:    01010101    ....    DCD    16843009
        0x0000ce98:    01010101    ....    DCD    16843009
        0x0000ce9c:    01010101    ....    DCD    16843009
        0x0000cea0:    01010101    ....    DCD    16843009
        0x0000cea4:    08010101    ....    DCD    134283521
        0x0000cea8:    01010008    ....    DCD    16842760
        0x0000ceac:    01010101    ....    DCD    16843009
        0x0000ceb0:    00000101    ....    DCD    257
    $t.7
    am_hal_gpio_state_write
        0x0000ceb4:    b5b0        ..      PUSH     {r4,r5,r7,lr}
        0x0000ceb6:    b082        ..      SUB      sp,sp,#8
        0x0000ceb8:    2831        1(      CMP      r0,#0x31
        0x0000ceba:    d901        ..      BLS      0xcec0 ; am_hal_gpio_state_write + 12
        0x0000cebc:    2405        .$      MOVS     r4,#5
        0x0000cebe:    e040        @.      B        0xcf42 ; am_hal_gpio_state_write + 142
        0x0000cec0:    460d        .F      MOV      r5,r1
        0x0000cec2:    2905        .)      CMP      r1,#5
        0x0000cec4:    d901        ..      BLS      0xceca ; am_hal_gpio_state_write + 22
        0x0000cec6:    2406        .$      MOVS     r4,#6
        0x0000cec8:    e03b        ;.      B        0xcf42 ; am_hal_gpio_state_write + 142
        0x0000ceca:    4604        .F      MOV      r4,r0
        0x0000cecc:    f000f83e    ..>.    BL       am_hal_interrupt_master_disable ; 0xcf4c
        0x0000ced0:    2d05        .-      CMP      r5,#5
        0x0000ced2:    9001        ..      STR      r0,[sp,#4]
        0x0000ced4:    d838        8.      BHI      0xcf48 ; am_hal_gpio_state_write + 148
        0x0000ced6:    f004001f    ....    AND      r0,r4,#0x1f
        0x0000ceda:    2101        .!      MOVS     r1,#1
        0x0000cedc:    fa01f000    ....    LSL      r0,r1,r0
        0x0000cee0:    2104        .!      MOVS     r1,#4
        0x0000cee2:    ea0101d4    ....    AND      r1,r1,r4,LSR #3
        0x0000cee6:    e8dff005    ....    TBB      [pc,r5]
    $d.8
        0x0000ceea:    0903        ..      DCW    2307
        0x0000ceec:    211b160f    ...!    DCD    555423247
    $t.9
        0x0000cef0:    2288        ."      MOVS     r2,#0x88
        0x0000cef2:    f2c40201    ....    MOVT     r2,#0x4001
        0x0000cef6:    4311        .C      ORRS     r1,r1,r2
        0x0000cef8:    6108        .a      STR      r0,[r1,#0x10]
        0x0000cefa:    e01e        ..      B        0xcf3a ; am_hal_gpio_state_write + 134
        0x0000cefc:    2288        ."      MOVS     r2,#0x88
        0x0000cefe:    f2c40201    ....    MOVT     r2,#0x4001
        0x0000cf02:    4311        .C      ORRS     r1,r1,r2
        0x0000cf04:    6088        .`      STR      r0,[r1,#8]
        0x0000cf06:    e018        ..      B        0xcf3a ; am_hal_gpio_state_write + 134
        0x0000cf08:    2288        ."      MOVS     r2,#0x88
        0x0000cf0a:    f2c40201    ....    MOVT     r2,#0x4001
        0x0000cf0e:    588b        .X      LDR      r3,[r1,r2]
        0x0000cf10:    4058        X@      EORS     r0,r0,r3
        0x0000cf12:    5088        .P      STR      r0,[r1,r2]
        0x0000cf14:    e011        ..      B        0xcf3a ; am_hal_gpio_state_write + 134
        0x0000cf16:    2288        ."      MOVS     r2,#0x88
        0x0000cf18:    f2c40201    ....    MOVT     r2,#0x4001
        0x0000cf1c:    4311        .C      ORRS     r1,r1,r2
        0x0000cf1e:    e00b        ..      B        0xcf38 ; am_hal_gpio_state_write + 132
        0x0000cf20:    2288        ."      MOVS     r2,#0x88
        0x0000cf22:    f2c40201    ....    MOVT     r2,#0x4001
        0x0000cf26:    4311        .C      ORRS     r1,r1,r2
        0x0000cf28:    6208        .b      STR      r0,[r1,#0x20]
        0x0000cf2a:    e006        ..      B        0xcf3a ; am_hal_gpio_state_write + 134
        0x0000cf2c:    2288        ."      MOVS     r2,#0x88
        0x0000cf2e:    f2c40201    ....    MOVT     r2,#0x4001
        0x0000cf32:    4311        .C      ORRS     r1,r1,r2
        0x0000cf34:    6aca        .j      LDR      r2,[r1,#0x2c]
        0x0000cf36:    4050        P@      EORS     r0,r0,r2
        0x0000cf38:    62c8        .b      STR      r0,[r1,#0x2c]
        0x0000cf3a:    2400        .$      MOVS     r4,#0
        0x0000cf3c:    9801        ..      LDR      r0,[sp,#4]
        0x0000cf3e:    f000f80d    ....    BL       am_hal_interrupt_master_set ; 0xcf5c
        0x0000cf42:    4620         F      MOV      r0,r4
        0x0000cf44:    b002        ..      ADD      sp,sp,#8
        0x0000cf46:    bdb0        ..      POP      {r4,r5,r7,pc}
        0x0000cf48:    2406        .$      MOVS     r4,#6
        0x0000cf4a:    e7f7        ..      B        0xcf3c ; am_hal_gpio_state_write + 136
    am_hal_interrupt_master_disable
        0x0000cf4c:    f3ef8010    ....    MRS      r0,PRIMASK
        0x0000cf50:    b672        r.      CPSID    i
        0x0000cf52:    4770        pG      BX       lr
    am_hal_interrupt_master_enable
        0x0000cf54:    f3ef8010    ....    MRS      r0,PRIMASK
        0x0000cf58:    b662        b.      CPSIE    i
        0x0000cf5a:    4770        pG      BX       lr
    am_hal_interrupt_master_set
        0x0000cf5c:    f3808810    ....    MSR      PRIMASK,r0
        0x0000cf60:    4770        pG      BX       lr
    am_hal_iom_CQEnable
        0x0000cf62:    6a41        Aj      LDR      r1,[r0,#0x24]
        0x0000cf64:    b951        Q.      CBNZ     r1,0xcf7c ; am_hal_iom_CQEnable + 26
        0x0000cf66:    6841        Ah      LDR      r1,[r0,#4]
        0x0000cf68:    f2442398    D..#    MOV      r3,#0x4298
        0x0000cf6c:    030a        ..      LSLS     r2,r1,#12
        0x0000cf6e:    f2c50300    ....    MOVT     r3,#0x5000
        0x0000cf72:    589a        .X      LDR      r2,[r3,r2]
        0x0000cf74:    eb033101    ...1    ADD      r1,r3,r1,LSL #12
        0x0000cf78:    e9c21200    ....    STRD     r1,r2,[r2,#0]
        0x0000cf7c:    f8d00828    ..(.    LDR      r0,[r0,#0x828]
        0x0000cf80:    f7ffbcd0    ....    B.W      am_hal_cmdq_enable ; 0xc924
    am_hal_iom_CQInit
        0x0000cf84:    b510        ..      PUSH     {r4,lr}
        0x0000cf86:    b084        ..      SUB      sp,sp,#0x10
        0x0000cf88:    4604        .F      MOV      r4,r0
        0x0000cf8a:    0849        I.      LSRS     r1,r1,#1
        0x0000cf8c:    7900        .y      LDRB     r0,[r0,#4]
        0x0000cf8e:    f6040c28    ..(.    ADD      r12,r4,#0x828
        0x0000cf92:    9101        ..      STR      r1,[sp,#4]
        0x0000cf94:    2101        .!      MOVS     r1,#1
        0x0000cf96:    2300        .#      MOVS     r3,#0
        0x0000cf98:    9202        ..      STR      r2,[sp,#8]
        0x0000cf9a:    f88d100c    ....    STRB     r1,[sp,#0xc]
        0x0000cf9e:    a901        ..      ADD      r1,sp,#4
        0x0000cfa0:    4662        bF      MOV      r2,r12
        0x0000cfa2:    f8c43828    ..(8    STR      r3,[r4,#0x828]
        0x0000cfa6:    6223        #b      STR      r3,[r4,#0x20]
        0x0000cfa8:    f8c4385c    ..\8    STR      r3,[r4,#0x85c]
        0x0000cfac:    f7fffcd4    ....    BL       am_hal_cmdq_init ; 0xc958
        0x0000cfb0:    b910        ..      CBNZ     r0,0xcfb8 ; am_hal_iom_CQInit + 52
        0x0000cfb2:    f44f7180    O..q    MOV      r1,#0x100
        0x0000cfb6:    6221        !b      STR      r1,[r4,#0x20]
        0x0000cfb8:    b004        ..      ADD      sp,sp,#0x10
        0x0000cfba:    bd10        ..      POP      {r4,pc}
    am_hal_iom_blocking_transfer
        0x0000cfbc:    e92d4ff0    -..O    PUSH     {r4-r11,lr}
        0x0000cfc0:    b087        ..      SUB      sp,sp,#0x1c
        0x0000cfc2:    b180        ..      CBZ      r0,0xcfe6 ; am_hal_iom_blocking_transfer + 42
        0x0000cfc4:    4604        .F      MOV      r4,r0
        0x0000cfc6:    6800        .h      LDR      r0,[r0,#0]
        0x0000cfc8:    460e        .F      MOV      r6,r1
        0x0000cfca:    f2434156    C.VA    MOV      r1,#0x3456
        0x0000cfce:    f020407e     .~@    BIC      r0,r0,#0xfe000000
        0x0000cfd2:    f2c01112    ....    MOVT     r1,#0x112
        0x0000cfd6:    4288        .B      CMP      r0,r1
        0x0000cfd8:    d105        ..      BNE      0xcfe6 ; am_hal_iom_blocking_transfer + 42
        0x0000cfda:    b14e        N.      CBZ      r6,0xcff0 ; am_hal_iom_blocking_transfer + 52
        0x0000cfdc:    7c35        5|      LDRB     r5,[r6,#0x10]
        0x0000cfde:    2d01        .-      CMP      r5,#1
        0x0000cfe0:    d908        ..      BLS      0xcff4 ; am_hal_iom_blocking_transfer + 56
        0x0000cfe2:    2707        .'      MOVS     r7,#7
        0x0000cfe4:    e000        ..      B        0xcfe8 ; am_hal_iom_blocking_transfer + 44
        0x0000cfe6:    2702        .'      MOVS     r7,#2
        0x0000cfe8:    4638        8F      MOV      r0,r7
        0x0000cfea:    b007        ..      ADD      sp,sp,#0x1c
        0x0000cfec:    e8bd8ff0    ....    POP      {r4-r11,pc}
        0x0000cff0:    2706        .'      MOVS     r7,#6
        0x0000cff2:    e7f9        ..      B        0xcfe8 ; am_hal_iom_blocking_transfer + 44
        0x0000cff4:    f8d6b00c    ....    LDR      r11,[r6,#0xc]
        0x0000cff8:    4620         F      MOV      r0,r4
        0x0000cffa:    4631        1F      MOV      r1,r6
        0x0000cffc:    2201        ."      MOVS     r2,#1
        0x0000cffe:    f1bb0f00    ....    CMP      r11,#0
        0x0000d002:    bf04        ..      ITT      EQ
        0x0000d004:    2500        .%      MOVEQ    r5,#0
        0x0000d006:    7435        5t      STRBEQ   r5,[r6,#0x10]
        0x0000d008:    f002f83b    ..;.    BL       validate_transaction ; 0xf082
        0x0000d00c:    4607        .F      MOV      r7,r0
        0x0000d00e:    2800        .(      CMP      r0,#0
        0x0000d010:    d1ea        ..      BNE      0xcfe8 ; am_hal_iom_blocking_transfer + 44
        0x0000d012:    f894082c    ..,.    LDRB     r0,[r4,#0x82c]
        0x0000d016:    2802        .(      CMP      r0,#2
        0x0000d018:    d0e3        ..      BEQ      0xcfe2 ; am_hal_iom_blocking_transfer + 38
        0x0000d01a:    6860        `h      LDR      r0,[r4,#4]
        0x0000d01c:    2d00        .-      CMP      r5,#0
        0x0000d01e:    9006        ..      STR      r0,[sp,#0x18]
        0x0000d020:    6870        ph      LDR      r0,[r6,#4]
        0x0000d022:    f1040124    ..$.    ADD      r1,r4,#0x24
        0x0000d026:    9004        ..      STR      r0,[sp,#0x10]
        0x0000d028:    68b0        .h      LDR      r0,[r6,#8]
        0x0000d02a:    f04f0801    O...    MOV      r8,#1
        0x0000d02e:    9005        ..      STR      r0,[sp,#0x14]
        0x0000d030:    7f30        0.      LDRB     r0,[r6,#0x1c]
        0x0000d032:    f04f32ff    O..2    MOV      r2,#0xffffffff
        0x0000d036:    9003        ..      STR      r0,[sp,#0xc]
        0x0000d038:    f04f0018    O...    MOV      r0,#0x18
        0x0000d03c:    bf08        ..      IT       EQ
        0x0000d03e:    2014        .       MOVEQ    r0,#0x14
        0x0000d040:    f8569000    V...    LDR      r9,[r6,r0]
        0x0000d044:    f8d40860    ..`.    LDR      r0,[r4,#0x860]
        0x0000d048:    2300        .#      MOVS     r3,#0
        0x0000d04a:    f8cd8000    ....    STR      r8,[sp,#0]
        0x0000d04e:    f7fffcf7    ....    BL       am_hal_flash_delay_status_check ; 0xca40
        0x0000d052:    4607        .F      MOV      r7,r0
        0x0000d054:    2800        .(      CMP      r0,#0
        0x0000d056:    d1c7        ..      BNE      0xcfe8 ; am_hal_iom_blocking_transfer + 44
        0x0000d058:    f24421b4    D..!    MOV      r1,#0x42b4
        0x0000d05c:    9a06        ..      LDR      r2,[sp,#0x18]
        0x0000d05e:    f2c50100    ....    MOVT     r1,#0x5000
        0x0000d062:    f8d40860    ..`.    LDR      r0,[r4,#0x860]
        0x0000d066:    eb013a02    ...:    ADD      r10,r1,r2,LSL #12
        0x0000d06a:    4651        QF      MOV      r1,r10
        0x0000d06c:    2206        ."      MOVS     r2,#6
        0x0000d06e:    2304        .#      MOVS     r3,#4
        0x0000d070:    f8cd8000    ....    STR      r8,[sp,#0]
        0x0000d074:    f7fffce4    ....    BL       am_hal_flash_delay_status_check ; 0xca40
        0x0000d078:    4607        .F      MOV      r7,r0
        0x0000d07a:    2800        .(      CMP      r0,#0
        0x0000d07c:    d1b4        ..      BNE      0xcfe8 ; am_hal_iom_blocking_transfer + 44
        0x0000d07e:    f2440000    D...    MOVW     r0,#0x4000
        0x0000d082:    9906        ..      LDR      r1,[sp,#0x18]
        0x0000d084:    f2c50000    ....    MOVT     r0,#0x5000
        0x0000d088:    f8cda008    ....    STR      r10,[sp,#8]
        0x0000d08c:    eb003a01    ...:    ADD      r10,r0,r1,LSL #12
        0x0000d090:    f8da0200    ....    LDR      r0,[r10,#0x200]
        0x0000d094:    9006        ..      STR      r0,[sp,#0x18]
        0x0000d096:    2000        .       MOVS     r0,#0
        0x0000d098:    f8ca0200    ....    STR      r0,[r10,#0x200]
        0x0000d09c:    f8da1280    ....    LDR      r1,[r10,#0x280]
        0x0000d0a0:    f0210101    !...    BIC      r1,r1,#1
        0x0000d0a4:    f8ca1280    ....    STR      r1,[r10,#0x280]
        0x0000d0a8:    f04f31ff    O..1    MOV      r1,#0xffffffff
        0x0000d0ac:    f8ca1208    ....    STR      r1,[r10,#0x208]
        0x0000d0b0:    6831        1h      LDR      r1,[r6,#0]
        0x0000d0b2:    f8ca1404    ....    STR      r1,[r10,#0x404]
        0x0000d0b6:    7a21        !z      LDRB     r1,[r4,#8]
        0x0000d0b8:    b919        ..      CBNZ     r1,0xd0c2 ; am_hal_iom_blocking_transfer + 262
        0x0000d0ba:    6830        0h      LDR      r0,[r6,#0]
        0x0000d0bc:    4420         D      ADD      r0,r0,r4
        0x0000d0be:    f89008a0    ....    LDRB     r0,[r0,#0x8a0]
        0x0000d0c2:    f8ca021c    ....    STR      r0,[r10,#0x21c]
        0x0000d0c6:    7a20         z      LDRB     r0,[r4,#8]
        0x0000d0c8:    b110        ..      CBZ      r0,0xd0d0 ; am_hal_iom_blocking_transfer + 276
        0x0000d0ca:    f04f0c00    O...    MOV      r12,#0
        0x0000d0ce:    e004        ..      B        0xd0da ; am_hal_iom_blocking_transfer + 286
        0x0000d0d0:    6830        0h      LDR      r0,[r6,#0]
        0x0000d0d2:    f44f1140    O.@.    MOV      r1,#0x300000
        0x0000d0d6:    ea015c00    ...\    AND      r12,r1,r0,LSL #20
        0x0000d0da:    2201        ."      MOVS     r2,#1
        0x0000d0dc:    2d01        .-      CMP      r5,#1
        0x0000d0de:    bf08        ..      IT       EQ
        0x0000d0e0:    2202        ."      MOVEQ    r2,#2
        0x0000d0e2:    9803        ..      LDR      r0,[sp,#0xc]
        0x0000d0e4:    f64f7100    O..q    MOVW     r1,#0xff00
        0x0000d0e8:    f0000301    ....    AND      r3,r0,#1
        0x0000d0ec:    9804        ..      LDR      r0,[sp,#0x10]
        0x0000d0ee:    f2c0010f    ....    MOVT     r1,#0xf
        0x0000d0f2:    f0000703    ....    AND      r7,r0,#3
        0x0000d0f6:    9805        ..      LDR      r0,[sp,#0x14]
        0x0000d0f8:    ea01210b    ...!    AND      r1,r1,r11,LSL #8
        0x0000d0fc:    ea416100    A..a    ORR      r1,r1,r0,LSL #24
        0x0000d100:    ea411147    A.G.    ORR      r1,r1,r7,LSL #5
        0x0000d104:    4411        .D      ADD      r1,r1,r2
        0x0000d106:    f3c0220f    ..."    UBFX     r2,r0,#8,#16
        0x0000d10a:    f8ca2220    .. "    STR      r2,[r10,#0x220]
        0x0000d10e:    f24a181f    J...    MOV      r8,#0xa11f
        0x0000d112:    ea4111c3    A...    ORR      r1,r1,r3,LSL #7
        0x0000d116:    68f6        .h      LDR      r6,[r6,#0xc]
        0x0000d118:    f2c00807    ....    MOVT     r8,#7
        0x0000d11c:    2d01        .-      CMP      r5,#1
        0x0000d11e:    ea41000c    A...    ORR      r0,r1,r12
        0x0000d122:    d153        S.      BNE      0xd1cc ; am_hal_iom_blocking_transfer + 528
        0x0000d124:    2e00        ..      CMP      r6,#0
        0x0000d126:    f04f0b00    O...    MOV      r11,#0
        0x0000d12a:    f8ca0218    ....    STR      r0,[r10,#0x218]
        0x0000d12e:    f00080a3    ....    BEQ.W    0xd278 ; am_hal_iom_blocking_transfer + 700
        0x0000d132:    f8da0100    ....    LDR      r0,[r10,#0x100]
        0x0000d136:    2100        .!      MOVS     r1,#0
        0x0000d138:    f3c04007    ...@    UBFX     r0,r0,#16,#8
        0x0000d13c:    2804        .(      CMP      r0,#4
        0x0000d13e:    bf38        8.      IT       CC
        0x0000d140:    2101        .!      MOVCC    r1,#1
        0x0000d142:    4286        .B      CMP      r6,r0
        0x0000d144:    f04f0200    O...    MOV      r2,#0
        0x0000d148:    bf88        ..      IT       HI
        0x0000d14a:    2201        ."      MOVHI    r2,#1
        0x0000d14c:    ea1b0f02    ....    TST      r11,r2
        0x0000d150:    d122        ".      BNE      0xd198 ; am_hal_iom_blocking_transfer + 476
        0x0000d152:    2803        .(      CMP      r0,#3
        0x0000d154:    d820         .      BHI      0xd198 ; am_hal_iom_blocking_transfer + 476
        0x0000d156:    2501        .%      MOVS     r5,#1
        0x0000d158:    2010        .       MOVS     r0,#0x10
        0x0000d15a:    f7fffc5c    ..\.    BL       am_hal_flash_delay ; 0xca16
        0x0000d15e:    f8da0204    ....    LDR      r0,[r10,#0x204]
        0x0000d162:    f8da1100    ....    LDR      r1,[r10,#0x100]
        0x0000d166:    f0000b01    ....    AND      r11,r0,#1
        0x0000d16a:    f3c14007    ...@    UBFX     r0,r1,#16,#8
        0x0000d16e:    2804        .(      CMP      r0,#4
        0x0000d170:    f04f0100    O...    MOV      r1,#0
        0x0000d174:    bf38        8.      IT       CC
        0x0000d176:    2101        .!      MOVCC    r1,#1
        0x0000d178:    4286        .B      CMP      r6,r0
        0x0000d17a:    f04f0200    O...    MOV      r2,#0
        0x0000d17e:    bf88        ..      IT       HI
        0x0000d180:    2201        ."      MOVHI    r2,#1
        0x0000d182:    ea1b0f02    ....    TST      r11,r2
        0x0000d186:    d107        ..      BNE      0xd198 ; am_hal_iom_blocking_transfer + 476
        0x0000d188:    f1080201    ....    ADD      r2,r8,#1
        0x0000d18c:    4295        .B      CMP      r5,r2
        0x0000d18e:    d203        ..      BCS      0xd198 ; am_hal_iom_blocking_transfer + 476
        0x0000d190:    2804        .(      CMP      r0,#4
        0x0000d192:    f1050501    ....    ADD      r5,r5,#1
        0x0000d196:    d3df        ..      BCC      0xd158 ; am_hal_iom_blocking_transfer + 412
        0x0000d198:    2900        .)      CMP      r1,#0
        0x0000d19a:    f040809c    @...    BNE.W    0xd2d6 ; am_hal_iom_blocking_transfer + 794
        0x0000d19e:    2804        .(      CMP      r0,#4
        0x0000d1a0:    d30f        ..      BCC      0xd1c2 ; am_hal_iom_blocking_transfer + 518
        0x0000d1a2:    b176        v.      CBZ      r6,0xd1c2 ; am_hal_iom_blocking_transfer + 518
        0x0000d1a4:    3804        .8      SUBS     r0,#4
        0x0000d1a6:    f8da1108    ....    LDR      r1,[r10,#0x108]
        0x0000d1aa:    2e03        ..      CMP      r6,#3
        0x0000d1ac:    d95a        Z.      BLS      0xd264 ; am_hal_iom_blocking_transfer + 680
        0x0000d1ae:    f8491b04    I...    STR      r1,[r9],#4
        0x0000d1b2:    3804        .8      SUBS     r0,#4
        0x0000d1b4:    f1a60104    ....    SUB      r1,r6,#4
        0x0000d1b8:    d304        ..      BCC      0xd1c4 ; am_hal_iom_blocking_transfer + 520
        0x0000d1ba:    2e04        ..      CMP      r6,#4
        0x0000d1bc:    460e        .F      MOV      r6,r1
        0x0000d1be:    d1f2        ..      BNE      0xd1a6 ; am_hal_iom_blocking_transfer + 490
        0x0000d1c0:    e000        ..      B        0xd1c4 ; am_hal_iom_blocking_transfer + 520
        0x0000d1c2:    4631        1F      MOV      r1,r6
        0x0000d1c4:    2900        .)      CMP      r1,#0
        0x0000d1c6:    460e        .F      MOV      r6,r1
        0x0000d1c8:    d1b3        ..      BNE      0xd132 ; am_hal_iom_blocking_transfer + 374
        0x0000d1ca:    e053        S.      B        0xd274 ; am_hal_iom_blocking_transfer + 696
        0x0000d1cc:    f8da1100    ....    LDR      r1,[r10,#0x100]
        0x0000d1d0:    b19e        ..      CBZ      r6,0xd1fa ; am_hal_iom_blocking_transfer + 574
        0x0000d1d2:    f3c12107    ...!    UBFX     r1,r1,#8,#8
        0x0000d1d6:    2904        .)      CMP      r1,#4
        0x0000d1d8:    d30f        ..      BCC      0xd1fa ; am_hal_iom_blocking_transfer + 574
        0x0000d1da:    3904        .9      SUBS     r1,#4
        0x0000d1dc:    f8592b04    Y..+    LDR      r2,[r9],#4
        0x0000d1e0:    2e03        ..      CMP      r6,#3
        0x0000d1e2:    f8ca210c    ...!    STR      r2,[r10,#0x10c]
        0x0000d1e6:    f04f0200    O...    MOV      r2,#0
        0x0000d1ea:    bf88        ..      IT       HI
        0x0000d1ec:    1f32        2.      SUBHI    r2,r6,#4
        0x0000d1ee:    4616        .F      MOV      r6,r2
        0x0000d1f0:    b11a        ..      CBZ      r2,0xd1fa ; am_hal_iom_blocking_transfer + 574
        0x0000d1f2:    2903        .)      CMP      r1,#3
        0x0000d1f4:    f1a10104    ....    SUB      r1,r1,#4
        0x0000d1f8:    d8f0        ..      BHI      0xd1dc ; am_hal_iom_blocking_transfer + 544
        0x0000d1fa:    f04f0b00    O...    MOV      r11,#0
        0x0000d1fe:    f8ca0218    ....    STR      r0,[r10,#0x218]
        0x0000d202:    b3ce        ..      CBZ      r6,0xd278 ; am_hal_iom_blocking_transfer + 700
        0x0000d204:    f04f0b01    O...    MOV      r11,#1
        0x0000d208:    f8da0100    ....    LDR      r0,[r10,#0x100]
        0x0000d20c:    f3c02007    ...     UBFX     r0,r0,#8,#8
        0x0000d210:    2803        .(      CMP      r0,#3
        0x0000d212:    d811        ..      BHI      0xd238 ; am_hal_iom_blocking_transfer + 636
        0x0000d214:    2500        .%      MOVS     r5,#0
        0x0000d216:    f8da0204    ....    LDR      r0,[r10,#0x204]
        0x0000d21a:    4545        EE      CMP      r5,r8
        0x0000d21c:    d82c        ,.      BHI      0xd278 ; am_hal_iom_blocking_transfer + 700
        0x0000d21e:    f0100001    ....    ANDS     r0,r0,#1
        0x0000d222:    d129        ).      BNE      0xd278 ; am_hal_iom_blocking_transfer + 700
        0x0000d224:    2010        .       MOVS     r0,#0x10
        0x0000d226:    3501        .5      ADDS     r5,#1
        0x0000d228:    f7fffbf5    ....    BL       am_hal_flash_delay ; 0xca16
        0x0000d22c:    f8da0100    ....    LDR      r0,[r10,#0x100]
        0x0000d230:    f3c02007    ...     UBFX     r0,r0,#8,#8
        0x0000d234:    2804        .(      CMP      r0,#4
        0x0000d236:    d3ee        ..      BCC      0xd216 ; am_hal_iom_blocking_transfer + 602
        0x0000d238:    b186        ..      CBZ      r6,0xd25c ; am_hal_iom_blocking_transfer + 672
        0x0000d23a:    3804        .8      SUBS     r0,#4
        0x0000d23c:    f8591b04    Y...    LDR      r1,[r9],#4
        0x0000d240:    2e03        ..      CMP      r6,#3
        0x0000d242:    f8ca110c    ....    STR      r1,[r10,#0x10c]
        0x0000d246:    f04f0100    O...    MOV      r1,#0
        0x0000d24a:    bf88        ..      IT       HI
        0x0000d24c:    1f31        1.      SUBHI    r1,r6,#4
        0x0000d24e:    460e        .F      MOV      r6,r1
        0x0000d250:    b129        ).      CBZ      r1,0xd25e ; am_hal_iom_blocking_transfer + 674
        0x0000d252:    2803        .(      CMP      r0,#3
        0x0000d254:    f1a00004    ....    SUB      r0,r0,#4
        0x0000d258:    d8f0        ..      BHI      0xd23c ; am_hal_iom_blocking_transfer + 640
        0x0000d25a:    e000        ..      B        0xd25e ; am_hal_iom_blocking_transfer + 674
        0x0000d25c:    2600        .&      MOVS     r6,#0
        0x0000d25e:    2e00        ..      CMP      r6,#0
        0x0000d260:    d1d2        ..      BNE      0xd208 ; am_hal_iom_blocking_transfer + 588
        0x0000d262:    e007        ..      B        0xd274 ; am_hal_iom_blocking_transfer + 696
        0x0000d264:    2000        .       MOVS     r0,#0
        0x0000d266:    f8091000    ....    STRB     r1,[r9,r0]
        0x0000d26a:    3001        .0      ADDS     r0,#1
        0x0000d26c:    4286        .B      CMP      r6,r0
        0x0000d26e:    ea4f2111    O..!    LSR      r1,r1,#8
        0x0000d272:    d1f8        ..      BNE      0xd266 ; am_hal_iom_blocking_transfer + 682
        0x0000d274:    f04f0b00    O...    MOV      r11,#0
        0x0000d278:    9902        ..      LDR      r1,[sp,#8]
        0x0000d27a:    f1080001    ....    ADD      r0,r8,#1
        0x0000d27e:    2701        .'      MOVS     r7,#1
        0x0000d280:    2206        ."      MOVS     r2,#6
        0x0000d282:    2304        .#      MOVS     r3,#4
        0x0000d284:    9700        ..      STR      r7,[sp,#0]
        0x0000d286:    f7fffbdb    ....    BL       am_hal_flash_delay_status_check ; 0xca40
        0x0000d28a:    4607        .F      MOV      r7,r0
        0x0000d28c:    b9b0        ..      CBNZ     r0,0xd2bc ; am_hal_iom_blocking_transfer + 768
        0x0000d28e:    f8da0204    ....    LDR      r0,[r10,#0x204]
        0x0000d292:    f0100f6c    ..l.    TST      r0,#0x6c
        0x0000d296:    d002        ..      BEQ      0xd29e ; am_hal_iom_blocking_transfer + 738
        0x0000d298:    f04f6700    O..g    MOV      r7,#0x8000000
        0x0000d29c:    e00e        ..      B        0xd2bc ; am_hal_iom_blocking_transfer + 768
        0x0000d29e:    2701        .'      MOVS     r7,#1
        0x0000d2a0:    0581        ..      LSLS     r1,r0,#22
        0x0000d2a2:    f6c00700    ....    MOVT     r7,#0x800
        0x0000d2a6:    d409        ..      BMI      0xd2bc ; am_hal_iom_blocking_transfer + 768
        0x0000d2a8:    06c1        ..      LSLS     r1,r0,#27
        0x0000d2aa:    d406        ..      BMI      0xd2ba ; am_hal_iom_blocking_transfer + 766
        0x0000d2ac:    f4004090    ...@    AND      r0,r0,#0x4800
        0x0000d2b0:    eb10000b    ....    ADDS     r0,r0,r11
        0x0000d2b4:    d012        ..      BEQ      0xd2dc ; am_hal_iom_blocking_transfer + 800
        0x0000d2b6:    2701        .'      MOVS     r7,#1
        0x0000d2b8:    e000        ..      B        0xd2bc ; am_hal_iom_blocking_transfer + 768
        0x0000d2ba:    3701        .7      ADDS     r7,#1
        0x0000d2bc:    f8da1204    ....    LDR      r1,[r10,#0x204]
        0x0000d2c0:    4620         F      MOV      r0,r4
        0x0000d2c2:    f001fa8d    ....    BL       internal_iom_reset_on_error ; 0xe7e0
        0x0000d2c6:    f04f30ff    O..0    MOV      r0,#0xffffffff
        0x0000d2ca:    f8ca0208    ....    STR      r0,[r10,#0x208]
        0x0000d2ce:    9806        ..      LDR      r0,[sp,#0x18]
        0x0000d2d0:    f8ca0200    ....    STR      r0,[r10,#0x200]
        0x0000d2d4:    e688        ..      B        0xcfe8 ; am_hal_iom_blocking_transfer + 44
        0x0000d2d6:    f04f0b01    O...    MOV      r11,#1
        0x0000d2da:    e7cd        ..      B        0xd278 ; am_hal_iom_blocking_transfer + 700
        0x0000d2dc:    2700        .'      MOVS     r7,#0
        0x0000d2de:    e7f2        ..      B        0xd2c6 ; am_hal_iom_blocking_transfer + 778
    am_hal_iom_configure
        0x0000d2e0:    e92d4ff0    -..O    PUSH     {r4-r11,lr}
        0x0000d2e4:    b170        p.      CBZ      r0,0xd304 ; am_hal_iom_configure + 36
        0x0000d2e6:    6803        .h      LDR      r3,[r0,#0]
        0x0000d2e8:    f2434756    C.VG    MOV      r7,#0x3456
        0x0000d2ec:    f023427e    #.~B    BIC      r2,r3,#0xfe000000
        0x0000d2f0:    f2c01712    ....    MOVT     r7,#0x112
        0x0000d2f4:    42ba        .B      CMP      r2,r7
        0x0000d2f6:    d105        ..      BNE      0xd304 ; am_hal_iom_configure + 36
        0x0000d2f8:    b111        ..      CBZ      r1,0xd300 ; am_hal_iom_configure + 32
        0x0000d2fa:    6842        Bh      LDR      r2,[r0,#4]
        0x0000d2fc:    2a05        .*      CMP      r2,#5
        0x0000d2fe:    d905        ..      BLS      0xd30c ; am_hal_iom_configure + 44
        0x0000d300:    2106        .!      MOVS     r1,#6
        0x0000d302:    e000        ..      B        0xd306 ; am_hal_iom_configure + 38
        0x0000d304:    2102        .!      MOVS     r1,#2
        0x0000d306:    4608        .F      MOV      r0,r1
        0x0000d308:    e8bd8ff0    ....    POP      {r4-r11,pc}
        0x0000d30c:    019b        ..      LSLS     r3,r3,#6
        0x0000d30e:    d438        8.      BMI      0xd382 ; am_hal_iom_configure + 162
        0x0000d310:    780b        .x      LDRB     r3,[r1,#0]
        0x0000d312:    f2441704    D...    MOV      r7,#0x4104
        0x0000d316:    7203        .r      STRB     r3,[r0,#8]
        0x0000d318:    0313        ..      LSLS     r3,r2,#12
        0x0000d31a:    f2c50700    ....    MOVT     r7,#0x5000
        0x0000d31e:    f2410610    A...    MOV      r6,#0x1010
        0x0000d322:    50fe        .P      STR      r6,[r7,r3]
        0x0000d324:    780b        .x      LDRB     r3,[r1,#0]
        0x0000d326:    f2440700    D...    MOVW     r7,#0x4000
        0x0000d32a:    f2c50700    ....    MOVT     r7,#0x5000
        0x0000d32e:    2b01        .+      CMP      r3,#1
        0x0000d330:    eb073202    ...2    ADD      r2,r7,r2,LSL #12
        0x0000d334:    d027        '.      BEQ      0xd386 ; am_hal_iom_configure + 166
        0x0000d336:    2b00        .+      CMP      r3,#0
        0x0000d338:    d143        C.      BNE      0xd3c2 ; am_hal_iom_configure + 226
        0x0000d33a:    f891e008    ....    LDRB     lr,[r1,#8]
        0x0000d33e:    f1be0f03    ....    CMP      lr,#3
        0x0000d342:    d8dd        ..      BHI      0xd300 ; am_hal_iom_configure + 32
        0x0000d344:    684c        Lh      LDR      r4,[r1,#4]
        0x0000d346:    f6464c00    F..L    MOVW     r12,#0x6c00
        0x0000d34a:    f2c02cdc    ...,    MOVT     r12,#0x2dc
        0x0000d34e:    4564        dE      CMP      r4,r12
        0x0000d350:    d8d6        ..      BHI      0xd300 ; am_hal_iom_configure + 32
        0x0000d352:    2c00        .,      CMP      r4,#0
        0x0000d354:    d07b        {.      BEQ      0xd44e ; am_hal_iom_configure + 366
        0x0000d356:    fbbcf5f4    ....    UDIV     r5,r12,r4
        0x0000d35a:    fb05c314    ....    MLS      r3,r5,r4,r12
        0x0000d35e:    2b00        .+      CMP      r3,#0
        0x0000d360:    bf18        ..      IT       NE
        0x0000d362:    3501        .5      ADDNE    r5,#1
        0x0000d364:    426b        kB      RSBS     r3,r5,#0
        0x0000d366:    402b        +@      ANDS     r3,r3,r5
        0x0000d368:    fab3f383    ....    CLZ      r3,r3
        0x0000d36c:    f1c3031f    ....    RSB      r3,r3,#0x1f
        0x0000d370:    2b06        .+      CMP      r3,#6
        0x0000d372:    bfa8        ..      IT       GE
        0x0000d374:    2306        .#      MOVGE    r3,#6
        0x0000d376:    f5b46f37    ..7o    CMP      r4,#0xb70
        0x0000d37a:    d83c        <.      BHI      0xd3f6 ; am_hal_iom_configure + 278
        0x0000d37c:    f04f0901    O...    MOV      r9,#1
        0x0000d380:    e049        I.      B        0xd416 ; am_hal_iom_configure + 310
        0x0000d382:    2107        .!      MOVS     r1,#7
        0x0000d384:    e7bf        ..      B        0xd306 ; am_hal_iom_configure + 38
        0x0000d386:    684b        Kh      LDR      r3,[r1,#4]
        0x0000d388:    f2442740    D.@'    MOV      r7,#0x4240
        0x0000d38c:    f2c0070f    ....    MOVT     r7,#0xf
        0x0000d390:    42bb        .B      CMP      r3,r7
        0x0000d392:    d018        ..      BEQ      0xd3c6 ; am_hal_iom_configure + 230
        0x0000d394:    f6412780    A..'    MOVW     r7,#0x1a80
        0x0000d398:    f2c00706    ....    MOVT     r7,#6
        0x0000d39c:    42bb        .B      CMP      r3,r7
        0x0000d39e:    d01d        ..      BEQ      0xd3dc ; am_hal_iom_configure + 252
        0x0000d3a0:    f24867a0    H..g    MOV      r7,#0x86a0
        0x0000d3a4:    f2c00701    ....    MOVT     r7,#1
        0x0000d3a8:    42bb        .B      CMP      r3,r7
        0x0000d3aa:    d1a9        ..      BNE      0xd300 ; am_hal_iom_configure + 32
        0x0000d3ac:    f24f0370    O.p.    MOV      r3,#0xf070
        0x0000d3b0:    f2c00303    ....    MOVT     r3,#3
        0x0000d3b4:    f8c23400    ...4    STR      r3,[r2,#0x400]
        0x0000d3b8:    f2412301    A..#    MOV      r3,#0x1201
        0x0000d3bc:    f2c7733b    ..;s    MOVT     r3,#0x773b
        0x0000d3c0:    e0ae        ..      B        0xd520 ; am_hal_iom_configure + 576
        0x0000d3c2:    2105        .!      MOVS     r1,#5
        0x0000d3c4:    e79f        ..      B        0xd306 ; am_hal_iom_configure + 38
        0x0000d3c6:    f2430340    C.@.    MOVW     r3,#0x3040
        0x0000d3ca:    f2c00321    ..!.    MOVT     r3,#0x21
        0x0000d3ce:    f8c23400    ...4    STR      r3,[r2,#0x400]
        0x0000d3d2:    f2413301    A..3    MOV      r3,#0x1301
        0x0000d3d6:    f2c06303    ...c    MOVT     r3,#0x603
        0x0000d3da:    e0a1        ..      B        0xd520 ; am_hal_iom_configure + 576
        0x0000d3dc:    f24f0370    O.p.    MOV      r3,#0xf070
        0x0000d3e0:    f2c00303    ....    MOVT     r3,#3
        0x0000d3e4:    f5037300    ...s    ADD      r3,r3,#0x200
        0x0000d3e8:    f8c23400    ...4    STR      r3,[r2,#0x400]
        0x0000d3ec:    f2412301    A..#    MOV      r3,#0x1201
        0x0000d3f0:    f6c1530e    ...S    MOVT     r3,#0x1d0e
        0x0000d3f4:    e094        ..      B        0xd520 ; am_hal_iom_configure + 576
        0x0000d3f6:    f2424600    B..F    MOVW     r6,#0x2400
        0x0000d3fa:    f2c006f4    ....    MOVT     r6,#0xf4
        0x0000d3fe:    42b4        .B      CMP      r4,r6
        0x0000d400:    f04f0900    O...    MOV      r9,#0
        0x0000d404:    d307        ..      BCC      0xd416 ; am_hal_iom_configure + 310
        0x0000d406:    f2436600    C..f    MOVW     r6,#0x3600
        0x0000d40a:    f2c0166e    ..n.    MOVT     r6,#0x16e
        0x0000d40e:    42b4        .B      CMP      r4,r6
        0x0000d410:    bf38        8.      IT       CC
        0x0000d412:    f04f0901    O...    MOVCC    r9,#1
        0x0000d416:    ea4f0649    O.I.    LSL      r6,r9,#1
        0x0000d41a:    f1060801    ....    ADD      r8,r6,#1
        0x0000d41e:    fa08f603    ....    LSL      r6,r8,r3
        0x0000d422:    fbb5f7f6    ....    UDIV     r7,r5,r6
        0x0000d426:    fb075616    ...V    MLS      r6,r7,r6,r5
        0x0000d42a:    2e00        ..      CMP      r6,#0
        0x0000d42c:    bf18        ..      IT       NE
        0x0000d42e:    3701        .7      ADDNE    r7,#1
        0x0000d430:    fab7fb87    ....    CLZ      r11,r7
        0x0000d434:    f1cb061f    ....    RSB      r6,r11,#0x1f
        0x0000d438:    eb030a06    ....    ADD      r10,r3,r6
        0x0000d43c:    2e07        ..      CMP      r6,#7
        0x0000d43e:    bf88        ..      IT       HI
        0x0000d440:    f1aa0307    ....    SUBHI    r3,r10,#7
        0x0000d444:    f1030a01    ....    ADD      r10,r3,#1
        0x0000d448:    f1ba0f07    ....    CMP      r10,#7
        0x0000d44c:    d901        ..      BLS      0xd452 ; am_hal_iom_configure + 370
        0x0000d44e:    2301        .#      MOVS     r3,#1
        0x0000d450:    e064        d.      B        0xd51c ; am_hal_iom_configure + 572
        0x0000d452:    2e08        ..      CMP      r6,#8
        0x0000d454:    d30b        ..      BCC      0xd46e ; am_hal_iom_configure + 398
        0x0000d456:    f1cb0b18    ....    RSB      r11,r11,#0x18
        0x0000d45a:    f04f36ff    O..6    MOV      r6,#0xffffffff
        0x0000d45e:    fa06f60b    ....    LSL      r6,r6,r11
        0x0000d462:    43f6        .C      MVNS     r6,r6
        0x0000d464:    4237        7B      TST      r7,r6
        0x0000d466:    fa27f70b    '...    LSR      r7,r7,r11
        0x0000d46a:    bf18        ..      IT       NE
        0x0000d46c:    3701        .7      ADDNE    r7,#1
        0x0000d46e:    f6413b00    A..;    MOVW     r11,#0x1b00
        0x0000d472:    f2c00bb7    ....    MOVT     r11,#0xb7
        0x0000d476:    455c        \E      CMP      r4,r11
        0x0000d478:    f04f0b01    O...    MOV      r11,#1
        0x0000d47c:    f04f0600    O...    MOV      r6,#0
        0x0000d480:    fa0bf403    ....    LSL      r4,r11,r3
        0x0000d484:    bf38        8.      IT       CC
        0x0000d486:    2601        .&      MOVCC    r6,#1
        0x0000d488:    1b2c        ,.      SUBS     r4,r5,r4
        0x0000d48a:    f44f65e0    O..e    MOV      r5,#0x700
        0x0000d48e:    bf18        ..      IT       NE
        0x0000d490:    2401        .$      MOVNE    r4,#1
        0x0000d492:    ea052a0a    ...*    AND      r10,r5,r10,LSL #8
        0x0000d496:    4034        4@      ANDS     r4,r4,r6
        0x0000d498:    ea4a26c9    J..&    ORR      r6,r10,r9,LSL #11
        0x0000d49c:    f00e09fe    ....    AND      r9,lr,#0xfe
        0x0000d4a0:    f364360c    d..6    BFI      r6,r4,#12,#1
        0x0000d4a4:    1e7d        }.      SUBS     r5,r7,#1
        0x0000d4a6:    f1b90f02    ....    CMP      r9,#2
        0x0000d4aa:    fa08f303    ....    LSL      r3,r8,r3
        0x0000d4ae:    ea466605    F..f    ORR      r6,r6,r5,LSL #24
        0x0000d4b2:    bf08        ..      IT       EQ
        0x0000d4b4:    f50775ff    ...u    ADDEQ    r5,r7,#0x1fe
        0x0000d4b8:    2c00        .,      CMP      r4,#0
        0x0000d4ba:    bf18        ..      IT       NE
        0x0000d4bc:    46bb        .F      MOVNE    r11,r7
        0x0000d4be:    fb0bf303    ....    MUL      r3,r11,r3
        0x0000d4c2:    fbbcf4f3    ....    UDIV     r4,r12,r3
        0x0000d4c6:    fb04c713    ....    MLS      r7,r4,r3,r12
        0x0000d4ca:    f24d0c8f    M...    MOV      r12,#0xd08f
        0x0000d4ce:    ebb70f53    ..S.    CMP      r7,r3,LSR #1
        0x0000d4d2:    f64d6383    M..c    MOV      r3,#0xde83
        0x0000d4d6:    f2c4331b    ...3    MOVT     r3,#0x431b
        0x0000d4da:    bf88        ..      IT       HI
        0x0000d4dc:    3401        .4      ADDHI    r4,#1
        0x0000d4de:    fba43703    ...7    UMULL    r3,r7,r4,r3
        0x0000d4e2:    f40573ff    ...s    AND      r3,r5,#0x1fe
        0x0000d4e6:    f2c00c03    ....    MOVT     r12,#3
        0x0000d4ea:    ea4633c3    F..3    ORR      r3,r6,r3,LSL #15
        0x0000d4ee:    0c3e        >.      LSRS     r6,r7,#16
        0x0000d4f0:    f10c0501    ....    ADD      r5,r12,#1
        0x0000d4f4:    fb064515    ...E    MLS      r5,r6,r5,r4
        0x0000d4f8:    f04f36ff    O..6    MOV      r6,#0xffffffff
        0x0000d4fc:    eb064617    ...F    ADD      r6,r6,r7,LSR #16
        0x0000d500:    ea164f17    ...O    TST      r6,r7,LSR #16
        0x0000d504:    461e        .F      MOV      r6,r3
        0x0000d506:    bf08        ..      IT       EQ
        0x0000d508:    f50a6600    ...f    ADDEQ    r6,r10,#0x800
        0x0000d50c:    2d00        .-      CMP      r5,#0
        0x0000d50e:    bf18        ..      IT       NE
        0x0000d510:    461e        .F      MOVNE    r6,r3
        0x0000d512:    4564        dE      CMP      r4,r12
        0x0000d514:    bf98        ..      IT       LS
        0x0000d516:    461e        .F      MOVLS    r6,r3
        0x0000d518:    f0460301    F...    ORR      r3,r6,#1
        0x0000d51c:    f8c2e300    ....    STR      lr,[r2,#0x300]
        0x0000d520:    f8c23210    ...2    STR      r3,[r2,#0x210]
        0x0000d524:    690a        .i      LDR      r2,[r1,#0x10]
        0x0000d526:    f06f031f    o...    MVN      r3,#0x1f
        0x0000d52a:    f64a27ab    J..'    MOV      r7,#0xaaab
        0x0000d52e:    eb030382    ....    ADD      r3,r3,r2,LSL #2
        0x0000d532:    f6ca27aa    ...'    MOVT     r7,#0xaaaa
        0x0000d536:    fba37607    ...v    UMULL    r7,r6,r3,r7
        0x0000d53a:    684f        Oh      LDR      r7,[r1,#4]
        0x0000d53c:    f6464500    F..E    MOVW     r5,#0x6c00
        0x0000d540:    f2c025dc    ...%    MOVT     r5,#0x2dc
        0x0000d544:    68c9        .h      LDR      r1,[r1,#0xc]
        0x0000d546:    fbb5f7f7    ....    UDIV     r7,r5,r7
        0x0000d54a:    f44f757a    O.zu    MOV      r5,#0x3e8
        0x0000d54e:    e9c01203    ....    STRD     r1,r2,[r0,#0xc]
        0x0000d552:    09b1        ..      LSRS     r1,r6,#6
        0x0000d554:    f246025f    F._.    MOV      r2,#0x605f
        0x0000d558:    f8c05860    ..`X    STR      r5,[r0,#0x860]
        0x0000d55c:    f8c07864    ..dx    STR      r7,[r0,#0x864]
        0x0000d560:    4293        .B      CMP      r3,r2
        0x0000d562:    bf88        ..      IT       HI
        0x0000d564:    f44f7180    O..q    MOVHI    r1,#0x100
        0x0000d568:    f8c01858    ..X.    STR      r1,[r0,#0x858]
        0x0000d56c:    2100        .!      MOVS     r1,#0
        0x0000d56e:    f8c018a0    ....    STR      r1,[r0,#0x8a0]
        0x0000d572:    e6c8        ..      B        0xd306 ; am_hal_iom_configure + 38
    am_hal_iom_enable
        0x0000d574:    b5b0        ..      PUSH     {r4,r5,r7,lr}
        0x0000d576:    2800        .(      CMP      r0,#0
        0x0000d578:    d04b        K.      BEQ      0xd612 ; am_hal_iom_enable + 158
        0x0000d57a:    4604        .F      MOV      r4,r0
        0x0000d57c:    6800        .h      LDR      r0,[r0,#0]
        0x0000d57e:    f2434256    C.VB    MOV      r2,#0x3456
        0x0000d582:    f020417e     .~A    BIC      r1,r0,#0xfe000000
        0x0000d586:    f2c01212    ....    MOVT     r2,#0x112
        0x0000d58a:    4291        .B      CMP      r1,r2
        0x0000d58c:    d141        A.      BNE      0xd612 ; am_hal_iom_enable + 158
        0x0000d58e:    0180        ..      LSLS     r0,r0,#6
        0x0000d590:    d445        E.      BMI      0xd61e ; am_hal_iom_enable + 170
        0x0000d592:    f2440500    D...    MOVW     r5,#0x4000
        0x0000d596:    6861        ah      LDR      r1,[r4,#4]
        0x0000d598:    f2c50500    ....    MOVT     r5,#0x5000
        0x0000d59c:    eb053101    ...1    ADD      r1,r5,r1,LSL #12
        0x0000d5a0:    7a20         z      LDRB     r0,[r4,#8]
        0x0000d5a2:    f8d12214    ..."    LDR      r2,[r1,#0x214]
        0x0000d5a6:    2800        .(      CMP      r0,#0
        0x0000d5a8:    f3c20242    ..B.    UBFX     r2,r2,#1,#3
        0x0000d5ac:    f04f0310    O...    MOV      r3,#0x10
        0x0000d5b0:    bf18        ..      IT       NE
        0x0000d5b2:    2001        .       MOVNE    r0,#1
        0x0000d5b4:    4282        .B      CMP      r2,r0
        0x0000d5b6:    bf08        ..      IT       EQ
        0x0000d5b8:    2301        .#      MOVEQ    r3,#1
        0x0000d5ba:    f8c13214    ...2    STR      r3,[r1,#0x214]
        0x0000d5be:    68e0        .h      LDR      r0,[r4,#0xc]
        0x0000d5c0:    b348        H.      CBZ      r0,0xd616 ; am_hal_iom_enable + 162
        0x0000d5c2:    2000        .       MOVS     r0,#0
        0x0000d5c4:    6260        `b      STR      r0,[r4,#0x24]
        0x0000d5c6:    6861        ah      LDR      r1,[r4,#4]
        0x0000d5c8:    2240        @"      MOVS     r2,#0x40
        0x0000d5ca:    eb053101    ...1    ADD      r1,r5,r1,LSL #12
        0x0000d5ce:    f2c00280    ....    MOVT     r2,#0x80
        0x0000d5d2:    61e0        .a      STR      r0,[r4,#0x1c]
        0x0000d5d4:    f8c122a4    ..."    STR      r2,[r1,#0x2a4]
        0x0000d5d8:    f8c40854    ..T.    STR      r0,[r4,#0x854]
        0x0000d5dc:    f884083c    ..<.    STRB     r0,[r4,#0x83c]
        0x0000d5e0:    f44f7180    O..q    MOV      r1,#0x100
        0x0000d5e4:    f8a4182c    ..,.    STRH     r1,[r4,#0x82c]
        0x0000d5e8:    e9d42103    ...!    LDRD     r2,r1,[r4,#0xc]
        0x0000d5ec:    f8c40838    ..8.    STR      r0,[r4,#0x838]
        0x0000d5f0:    f8c40840    ..@.    STR      r0,[r4,#0x840]
        0x0000d5f4:    f8c40844    ..D.    STR      r0,[r4,#0x844]
        0x0000d5f8:    f8c40830    ..0.    STR      r0,[r4,#0x830]
        0x0000d5fc:    4620         F      MOV      r0,r4
        0x0000d5fe:    f7fffcc1    ....    BL       am_hal_iom_CQInit ; 0xcf84
        0x0000d602:    6861        ah      LDR      r1,[r4,#4]
        0x0000d604:    2202        ."      MOVS     r2,#2
        0x0000d606:    eb053101    ...1    ADD      r1,r5,r1,LSL #12
        0x0000d60a:    f8c12240    ..@"    STR      r2,[r1,#0x240]
        0x0000d60e:    b110        ..      CBZ      r0,0xd616 ; am_hal_iom_enable + 162
        0x0000d610:    bdb0        ..      POP      {r4,r5,r7,pc}
        0x0000d612:    2002        .       MOVS     r0,#2
        0x0000d614:    bdb0        ..      POP      {r4,r5,r7,pc}
        0x0000d616:    6820         h      LDR      r0,[r4,#0]
        0x0000d618:    f0407000    @..p    ORR      r0,r0,#0x2000000
        0x0000d61c:    6020         `      STR      r0,[r4,#0]
        0x0000d61e:    2000        .       MOVS     r0,#0
        0x0000d620:    bdb0        ..      POP      {r4,r5,r7,pc}
    am_hal_iom_initialize
        0x0000d622:    b580        ..      PUSH     {r7,lr}
        0x0000d624:    2805        .(      CMP      r0,#5
        0x0000d626:    bf84        ..      ITT      HI
        0x0000d628:    2005        .       MOVHI    r0,#5
        0x0000d62a:    bd80        ..      POPHI    {r7,pc}
        0x0000d62c:    b1d9        ..      CBZ      r1,0xd666 ; am_hal_iom_initialize + 68
        0x0000d62e:    f2412c1c    A..,    MOV      r12,#0x121c
        0x0000d632:    f6400ea4    @...    MOV      lr,#0x8a4
        0x0000d636:    f2c10c00    ....    MOVT     r12,#0x1000
        0x0000d63a:    fb00f20e    ....    MUL      r2,r0,lr
        0x0000d63e:    f85c2002    \..     LDR      r2,[r12,r2]
        0x0000d642:    01d3        ..      LSLS     r3,r2,#7
        0x0000d644:    bf44        D.      ITT      MI
        0x0000d646:    2007        .       MOVMI    r0,#7
        0x0000d648:    bd80        ..      POPMI    {r7,pc}
        0x0000d64a:    f2434356    C.VC    MOV      r3,#0x3456
        0x0000d64e:    fb00cc0e    ....    MLA      r12,r0,lr,r12
        0x0000d652:    f2c01312    ....    MOVT     r3,#0x112
        0x0000d656:    f3630219    c...    BFI      r2,r3,#0,#26
        0x0000d65a:    e9cc2000    ...     STRD     r2,r0,[r12,#0]
        0x0000d65e:    2000        .       MOVS     r0,#0
        0x0000d660:    f8c1c000    ....    STR      r12,[r1,#0]
        0x0000d664:    bd80        ..      POP      {r7,pc}
        0x0000d666:    2006        .       MOVS     r0,#6
        0x0000d668:    bd80        ..      POP      {r7,pc}
    am_hal_iom_power_ctrl
        0x0000d66a:    b5b0        ..      PUSH     {r4,r5,r7,lr}
        0x0000d66c:    2800        .(      CMP      r0,#0
        0x0000d66e:    d05e        ^.      BEQ      0xd72e ; am_hal_iom_power_ctrl + 196
        0x0000d670:    4604        .F      MOV      r4,r0
        0x0000d672:    6800        .h      LDR      r0,[r0,#0]
        0x0000d674:    f2434356    C.VC    MOV      r3,#0x3456
        0x0000d678:    4615        .F      MOV      r5,r2
        0x0000d67a:    f020427e     .~B    BIC      r2,r0,#0xfe000000
        0x0000d67e:    f2c01312    ....    MOVT     r3,#0x112
        0x0000d682:    429a        .B      CMP      r2,r3
        0x0000d684:    d153        S.      BNE      0xd72e ; am_hal_iom_power_ctrl + 196
        0x0000d686:    1e4a        J.      SUBS     r2,r1,#1
        0x0000d688:    2a02        .*      CMP      r2,#2
        0x0000d68a:    d252        R.      BCS      0xd732 ; am_hal_iom_power_ctrl + 200
        0x0000d68c:    0180        ..      LSLS     r0,r0,#6
        0x0000d68e:    d45f        _.      BMI      0xd750 ; am_hal_iom_power_ctrl + 230
        0x0000d690:    2d00        .-      CMP      r5,#0
        0x0000d692:    d045        E.      BEQ      0xd720 ; am_hal_iom_power_ctrl + 182
        0x0000d694:    6860        `h      LDR      r0,[r4,#4]
        0x0000d696:    f2440100    D...    MOVW     r1,#0x4000
        0x0000d69a:    f2c50100    ....    MOVT     r1,#0x5000
        0x0000d69e:    eb013000    ...0    ADD      r0,r1,r0,LSL #12
        0x0000d6a2:    f8d01104    ....    LDR      r1,[r0,#0x104]
        0x0000d6a6:    f8c4186c    ..l.    STR      r1,[r4,#0x86c]
        0x0000d6aa:    f8d01210    ....    LDR      r1,[r0,#0x210]
        0x0000d6ae:    f8c41874    ..t.    STR      r1,[r4,#0x874]
        0x0000d6b2:    f8d01214    ....    LDR      r1,[r0,#0x214]
        0x0000d6b6:    f8c41878    ..x.    STR      r1,[r4,#0x878]
        0x0000d6ba:    f8d01294    ....    LDR      r1,[r0,#0x294]
        0x0000d6be:    f8c4187c    ..|.    STR      r1,[r4,#0x87c]
        0x0000d6c2:    f8d01298    ....    LDR      r1,[r0,#0x298]
        0x0000d6c6:    f8c41880    ....    STR      r1,[r4,#0x880]
        0x0000d6ca:    f8d012a0    ....    LDR      r1,[r0,#0x2a0]
        0x0000d6ce:    f8c41884    ....    STR      r1,[r4,#0x884]
        0x0000d6d2:    f8d012a8    ....    LDR      r1,[r0,#0x2a8]
        0x0000d6d6:    f8c41888    ....    STR      r1,[r4,#0x888]
        0x0000d6da:    f8d012ac    ....    LDR      r1,[r0,#0x2ac]
        0x0000d6de:    f8c4188c    ....    STR      r1,[r4,#0x88c]
        0x0000d6e2:    f8d012b0    ....    LDR      r1,[r0,#0x2b0]
        0x0000d6e6:    f8c41890    ....    STR      r1,[r4,#0x890]
        0x0000d6ea:    f8d01300    ....    LDR      r1,[r0,#0x300]
        0x0000d6ee:    f8c41894    ....    STR      r1,[r4,#0x894]
        0x0000d6f2:    f8d01400    ....    LDR      r1,[r0,#0x400]
        0x0000d6f6:    f8c41898    ....    STR      r1,[r4,#0x898]
        0x0000d6fa:    f8d01200    ....    LDR      r1,[r0,#0x200]
        0x0000d6fe:    f8c4189c    ....    STR      r1,[r4,#0x89c]
        0x0000d702:    f8d01240    ..@.    LDR      r1,[r0,#0x240]
        0x0000d706:    f8c41870    ..p.    STR      r1,[r4,#0x870]
        0x0000d70a:    f8d00294    ....    LDR      r0,[r0,#0x294]
        0x0000d70e:    07c0        ..      LSLS     r0,r0,#31
        0x0000d710:    d003        ..      BEQ      0xd71a ; am_hal_iom_power_ctrl + 176
        0x0000d712:    f8d40828    ..(.    LDR      r0,[r4,#0x828]
        0x0000d716:    f7fff8eb    ....    BL       am_hal_cmdq_disable ; 0xc8f0
        0x0000d71a:    2001        .       MOVS     r0,#1
        0x0000d71c:    f8840868    ..h.    STRB     r0,[r4,#0x868]
        0x0000d720:    7920         y      LDRB     r0,[r4,#4]
        0x0000d722:    3002        .0      ADDS     r0,#2
        0x0000d724:    b2c0        ..      UXTB     r0,r0
        0x0000d726:    f000f991    ....    BL       am_hal_pwrctrl_periph_disable ; 0xda4c
        0x0000d72a:    b978        x.      CBNZ     r0,0xd74c ; am_hal_iom_power_ctrl + 226
        0x0000d72c:    e091        ..      B        0xd852 ; am_hal_iom_power_ctrl + 488
        0x0000d72e:    2002        .       MOVS     r0,#2
        0x0000d730:    bdb0        ..      POP      {r4,r5,r7,pc}
        0x0000d732:    b9f9        ..      CBNZ     r1,0xd774 ; am_hal_iom_power_ctrl + 266
        0x0000d734:    b125        %.      CBZ      r5,0xd740 ; am_hal_iom_power_ctrl + 214
        0x0000d736:    f8940868    ..h.    LDRB     r0,[r4,#0x868]
        0x0000d73a:    2800        .(      CMP      r0,#0
        0x0000d73c:    f000808b    ....    BEQ.W    0xd856 ; am_hal_iom_power_ctrl + 492
        0x0000d740:    7920         y      LDRB     r0,[r4,#4]
        0x0000d742:    3002        .0      ADDS     r0,#2
        0x0000d744:    b2c0        ..      UXTB     r0,r0
        0x0000d746:    f000f9c5    ....    BL       am_hal_pwrctrl_periph_enable ; 0xdad4
        0x0000d74a:    b1a8        ..      CBZ      r0,0xd778 ; am_hal_iom_power_ctrl + 270
        0x0000d74c:    2009        .       MOVS     r0,#9
        0x0000d74e:    bdb0        ..      POP      {r4,r5,r7,pc}
        0x0000d750:    6860        `h      LDR      r0,[r4,#4]
        0x0000d752:    f2440100    D...    MOVW     r1,#0x4000
        0x0000d756:    f2c50100    ....    MOVT     r1,#0x5000
        0x0000d75a:    eb013000    ...0    ADD      r0,r1,r0,LSL #12
        0x0000d75e:    f8d002b4    ....    LDR      r0,[r0,#0x2b4]
        0x0000d762:    f0000006    ....    AND      r0,r0,#6
        0x0000d766:    2804        .(      CMP      r0,#4
        0x0000d768:    d102        ..      BNE      0xd770 ; am_hal_iom_power_ctrl + 262
        0x0000d76a:    6a60        `j      LDR      r0,[r4,#0x24]
        0x0000d76c:    2800        .(      CMP      r0,#0
        0x0000d76e:    d08f        ..      BEQ      0xd690 ; am_hal_iom_power_ctrl + 38
        0x0000d770:    2003        .       MOVS     r0,#3
        0x0000d772:    bdb0        ..      POP      {r4,r5,r7,pc}
        0x0000d774:    2006        .       MOVS     r0,#6
        0x0000d776:    bdb0        ..      POP      {r4,r5,r7,pc}
        0x0000d778:    2d00        .-      CMP      r5,#0
        0x0000d77a:    d06a        j.      BEQ      0xd852 ; am_hal_iom_power_ctrl + 488
        0x0000d77c:    6862        bh      LDR      r2,[r4,#4]
        0x0000d77e:    f2440000    D...    MOVW     r0,#0x4000
        0x0000d782:    f8d4186c    ..l.    LDR      r1,[r4,#0x86c]
        0x0000d786:    f2c50000    ....    MOVT     r0,#0x5000
        0x0000d78a:    eb003202    ...2    ADD      r2,r0,r2,LSL #12
        0x0000d78e:    f8c21104    ....    STR      r1,[r2,#0x104]
        0x0000d792:    6861        ah      LDR      r1,[r4,#4]
        0x0000d794:    f8d42874    ..t(    LDR      r2,[r4,#0x874]
        0x0000d798:    eb003101    ...1    ADD      r1,r0,r1,LSL #12
        0x0000d79c:    f8c12210    ..."    STR      r2,[r1,#0x210]
        0x0000d7a0:    6861        ah      LDR      r1,[r4,#4]
        0x0000d7a2:    f8d42878    ..x(    LDR      r2,[r4,#0x878]
        0x0000d7a6:    eb003101    ...1    ADD      r1,r0,r1,LSL #12
        0x0000d7aa:    f8c12214    ..."    STR      r2,[r1,#0x214]
        0x0000d7ae:    6861        ah      LDR      r1,[r4,#4]
        0x0000d7b0:    f8d42880    ...(    LDR      r2,[r4,#0x880]
        0x0000d7b4:    eb003101    ...1    ADD      r1,r0,r1,LSL #12
        0x0000d7b8:    f8c12298    ..."    STR      r2,[r1,#0x298]
        0x0000d7bc:    6861        ah      LDR      r1,[r4,#4]
        0x0000d7be:    f8d42888    ...(    LDR      r2,[r4,#0x888]
        0x0000d7c2:    eb003101    ...1    ADD      r1,r0,r1,LSL #12
        0x0000d7c6:    f8c122a8    ..."    STR      r2,[r1,#0x2a8]
        0x0000d7ca:    6861        ah      LDR      r1,[r4,#4]
        0x0000d7cc:    f8d4288c    ...(    LDR      r2,[r4,#0x88c]
        0x0000d7d0:    eb003101    ...1    ADD      r1,r0,r1,LSL #12
        0x0000d7d4:    f8c122ac    ..."    STR      r2,[r1,#0x2ac]
        0x0000d7d8:    6861        ah      LDR      r1,[r4,#4]
        0x0000d7da:    f8d42890    ...(    LDR      r2,[r4,#0x890]
        0x0000d7de:    eb003101    ...1    ADD      r1,r0,r1,LSL #12
        0x0000d7e2:    f8c122b0    ..."    STR      r2,[r1,#0x2b0]
        0x0000d7e6:    6861        ah      LDR      r1,[r4,#4]
        0x0000d7e8:    f8d42894    ...(    LDR      r2,[r4,#0x894]
        0x0000d7ec:    eb003101    ...1    ADD      r1,r0,r1,LSL #12
        0x0000d7f0:    f8c12300    ...#    STR      r2,[r1,#0x300]
        0x0000d7f4:    6861        ah      LDR      r1,[r4,#4]
        0x0000d7f6:    f8d42898    ...(    LDR      r2,[r4,#0x898]
        0x0000d7fa:    eb003101    ...1    ADD      r1,r0,r1,LSL #12
        0x0000d7fe:    f8c12400    ...$    STR      r2,[r1,#0x400]
        0x0000d802:    6861        ah      LDR      r1,[r4,#4]
        0x0000d804:    f8d4289c    ...(    LDR      r2,[r4,#0x89c]
        0x0000d808:    eb003101    ...1    ADD      r1,r0,r1,LSL #12
        0x0000d80c:    f8c12200    ..."    STR      r2,[r1,#0x200]
        0x0000d810:    6861        ah      LDR      r1,[r4,#4]
        0x0000d812:    f8d42870    ..p(    LDR      r2,[r4,#0x870]
        0x0000d816:    eb003101    ...1    ADD      r1,r0,r1,LSL #12
        0x0000d81a:    f8c12240    ..@"    STR      r2,[r1,#0x240]
        0x0000d81e:    6861        ah      LDR      r1,[r4,#4]
        0x0000d820:    f8942884    ...(    LDRB     r2,[r4,#0x884]
        0x0000d824:    eb003101    ...1    ADD      r1,r0,r1,LSL #12
        0x0000d828:    f8c122a4    ..."    STR      r2,[r1,#0x2a4]
        0x0000d82c:    f8d4187c    ..|.    LDR      r1,[r4,#0x87c]
        0x0000d830:    6862        bh      LDR      r2,[r4,#4]
        0x0000d832:    f0210101    !...    BIC      r1,r1,#1
        0x0000d836:    eb003002    ...0    ADD      r0,r0,r2,LSL #12
        0x0000d83a:    f8c01294    ....    STR      r1,[r0,#0x294]
        0x0000d83e:    f894087c    ..|.    LDRB     r0,[r4,#0x87c]
        0x0000d842:    07c0        ..      LSLS     r0,r0,#31
        0x0000d844:    d002        ..      BEQ      0xd84c ; am_hal_iom_power_ctrl + 482
        0x0000d846:    4620         F      MOV      r0,r4
        0x0000d848:    f7fffb8b    ....    BL       am_hal_iom_CQEnable ; 0xcf62
        0x0000d84c:    2000        .       MOVS     r0,#0
        0x0000d84e:    f8840868    ..h.    STRB     r0,[r4,#0x868]
        0x0000d852:    2000        .       MOVS     r0,#0
        0x0000d854:    bdb0        ..      POP      {r4,r5,r7,pc}
        0x0000d856:    2007        .       MOVS     r0,#7
        0x0000d858:    bdb0        ..      POP      {r4,r5,r7,pc}
        0x0000d85a:    0000        ..      MOVS     r0,r0
    am_hal_itm_enable
        0x0000d85c:    f64e50fc    N..P    MOV      r0,#0xedfc
        0x0000d860:    f2ce0000    ....    MOVT     r0,#0xe000
        0x0000d864:    6801        .h      LDR      r1,[r0,#0]
        0x0000d866:    f0417180    A..q    ORR      r1,r1,#0x1000000
        0x0000d86a:    6001        .`      STR      r1,[r0,#0]
        0x0000d86c:    6801        .h      LDR      r1,[r0,#0]
        0x0000d86e:    01c9        ..      LSLS     r1,r1,#7
        0x0000d870:    d5fc        ..      BPL      0xd86c ; am_hal_itm_enable + 16
        0x0000d872:    f6406000    @..`    MOVW     r0,#0xe00
        0x0000d876:    f64c6155    L.Ua    MOV      r1,#0xce55
        0x0000d87a:    f2ce0000    ....    MOVT     r0,#0xe000
        0x0000d87e:    f2cc51ac    ...Q    MOVT     r1,#0xc5ac
        0x0000d882:    f8c011b0    ....    STR      r1,[r0,#0x1b0]
        0x0000d886:    210f        .!      MOVS     r1,#0xf
        0x0000d888:    6401        .d      STR      r1,[r0,#0x40]
        0x0000d88a:    f04f31ff    O..1    MOV      r1,#0xffffffff
        0x0000d88e:    6001        .`      STR      r1,[r0,#0]
        0x0000d890:    f2405111    @..Q    MOV      r1,#0x511
        0x0000d894:    f2c00115    ....    MOVT     r1,#0x15
        0x0000d898:    f8c01080    ....    STR      r1,[r0,#0x80]
        0x0000d89c:    4770        pG      BX       lr
        0x0000d89e:    0000        ..      MOVS     r0,r0
    am_hal_itm_print
        0x0000d8a0:    2100        .!      MOVS     r1,#0
        0x0000d8a2:    bf00        ..      NOP      
        0x0000d8a4:    5c42        B\      LDRB     r2,[r0,r1]
        0x0000d8a6:    3101        .1      ADDS     r1,#1
        0x0000d8a8:    2a00        .*      CMP      r2,#0
        0x0000d8aa:    d1fb        ..      BNE      0xd8a4 ; am_hal_itm_print + 4
        0x0000d8ac:    3901        .9      SUBS     r1,#1
        0x0000d8ae:    bf08        ..      IT       EQ
        0x0000d8b0:    4770        pG      BXEQ     lr
        0x0000d8b2:    f04f4260    O.`B    MOV      r2,#0xe0000000
        0x0000d8b6:    bf00        ..      NOP      
        0x0000d8b8:    f890c000    ....    LDRB     r12,[r0,#0]
        0x0000d8bc:    6813        .h      LDR      r3,[r2,#0]
        0x0000d8be:    2b00        .+      CMP      r3,#0
        0x0000d8c0:    d0fc        ..      BEQ      0xd8bc ; am_hal_itm_print + 28
        0x0000d8c2:    3001        .0      ADDS     r0,#1
        0x0000d8c4:    3901        .9      SUBS     r1,#1
        0x0000d8c6:    f882c000    ....    STRB     r12,[r2,#0]
        0x0000d8ca:    d1f5        ..      BNE      0xd8b8 ; am_hal_itm_print + 24
        0x0000d8cc:    4770        pG      BX       lr
    am_hal_pwrctrl_blebuck_trim
        0x0000d8ce:    b510        ..      PUSH     {r4,lr}
        0x0000d8d0:    b082        ..      SUB      sp,sp,#8
        0x0000d8d2:    f2403468    @.h4    MOVW     r4,#0x368
        0x0000d8d6:    f64f40a4    O..@    MOV      r0,#0xfca4
        0x0000d8da:    f2c40402    ....    MOVT     r4,#0x4002
        0x0000d8de:    f6cf70ff    ...p    MOVT     r0,#0xffff
        0x0000d8e2:    5820         X      LDR      r0,[r4,r0]
        0x0000d8e4:    f00000fe    ....    AND      r0,r0,#0xfe
        0x0000d8e8:    2812        .(      CMP      r0,#0x12
        0x0000d8ea:    d317        ..      BCC      0xd91c ; am_hal_pwrctrl_blebuck_trim + 78
        0x0000d8ec:    f7fffb2e    ....    BL       am_hal_interrupt_master_disable ; 0xcf4c
        0x0000d8f0:    9001        ..      STR      r0,[sp,#4]
        0x0000d8f2:    6820         h      LDR      r0,[r4,#0]
        0x0000d8f4:    2119        .!      MOVS     r1,#0x19
        0x0000d8f6:    f361108b    a...    BFI      r0,r1,#6,#6
        0x0000d8fa:    6020         `      STR      r0,[r4,#0]
        0x0000d8fc:    6820         h      LDR      r0,[r4,#0]
        0x0000d8fe:    210c        .!      MOVS     r1,#0xc
        0x0000d900:    f3610005    a...    BFI      r0,r1,#0,#6
        0x0000d904:    6020         `      STR      r0,[r4,#0]
        0x0000d906:    f244003c    D.<.    MOV      r0,#0x403c
        0x0000d90a:    f2c40000    ....    MOVT     r0,#0x4000
        0x0000d90e:    6801        .h      LDR      r1,[r0,#0]
        0x0000d910:    f4210180    !...    BIC      r1,r1,#0x400000
        0x0000d914:    6001        .`      STR      r1,[r0,#0]
        0x0000d916:    9801        ..      LDR      r0,[sp,#4]
        0x0000d918:    f7fffb20    .. .    BL       am_hal_interrupt_master_set ; 0xcf5c
        0x0000d91c:    b002        ..      ADD      sp,sp,#8
        0x0000d91e:    bd10        ..      POP      {r4,pc}
    am_hal_pwrctrl_low_power_init
        0x0000d920:    b5f0        ..      PUSH     {r4-r7,lr}
        0x0000d922:    b081        ..      SUB      sp,sp,#4
        0x0000d924:    f2412014    A..     MOV      r0,#0x1214
        0x0000d928:    f2c10000    ....    MOVT     r0,#0x1000
        0x0000d92c:    6801        .h      LDR      r1,[r0,#0]
        0x0000d92e:    b929        ).      CBNZ     r1,0xd93c ; am_hal_pwrctrl_low_power_init + 28
        0x0000d930:    f24f0100    O...    MOVW     r1,#0xf000
        0x0000d934:    f6c471ff    ...q    MOVT     r1,#0x4fff
        0x0000d938:    6809        .h      LDR      r1,[r1,#0]
        0x0000d93a:    6001        .`      STR      r1,[r0,#0]
        0x0000d93c:    f2403554    @.T5    MOVW     r5,#0x354
        0x0000d940:    f64f46b8    O..F    MOV      r6,#0xfcb8
        0x0000d944:    f2c40502    ....    MOVT     r5,#0x4002
        0x0000d948:    f6cf76ff    ...v    MOVT     r6,#0xffff
        0x0000d94c:    59a8        .Y      LDR      r0,[r5,r6]
        0x0000d94e:    f2410700    A...    MOVW     r7,#0x1000
        0x0000d952:    b2c0        ..      UXTB     r0,r0
        0x0000d954:    2812        .(      CMP      r0,#0x12
        0x0000d956:    f2c40702    ....    MOVT     r7,#0x4002
        0x0000d95a:    d108        ..      BNE      0xd96e ; am_hal_pwrctrl_low_power_init + 78
        0x0000d95c:    6878        xh      LDR      r0,[r7,#4]
        0x0000d95e:    07c0        ..      LSLS     r0,r0,#31
        0x0000d960:    d005        ..      BEQ      0xd96e ; am_hal_pwrctrl_low_power_init + 78
        0x0000d962:    200d        .       MOVS     r0,#0xd
        0x0000d964:    f000f8b6    ....    BL       am_hal_pwrctrl_periph_enable ; 0xdad4
        0x0000d968:    4604        .F      MOV      r4,r0
        0x0000d96a:    2800        .(      CMP      r0,#0
        0x0000d96c:    d16a        j.      BNE      0xda44 ; am_hal_pwrctrl_low_power_init + 292
        0x0000d96e:    59a8        .Y      LDR      r0,[r5,r6]
        0x0000d970:    b2c0        ..      UXTB     r0,r0
        0x0000d972:    2821        !(      CMP      r0,#0x21
        0x0000d974:    d324        $.      BCC      0xd9c0 ; am_hal_pwrctrl_low_power_init + 160
        0x0000d976:    6828        (h      LDR      r0,[r5,#0]
        0x0000d978:    2102        .!      MOVS     r1,#2
        0x0000d97a:    f3614013    a..@    BFI      r0,r1,#16,#4
        0x0000d97e:    6028        (`      STR      r0,[r5,#0]
        0x0000d980:    682a        *h      LDR      r2,[r5,#0]
        0x0000d982:    2003        .       MOVS     r0,#3
        0x0000d984:    f3605217    `..R    BFI      r2,r0,#20,#4
        0x0000d988:    602a        *`      STR      r2,[r5,#0]
        0x0000d98a:    686a        jh      LDR      r2,[r5,#4]
        0x0000d98c:    2305        .#      MOVS     r3,#5
        0x0000d98e:    f3630203    c...    BFI      r2,r3,#0,#4
        0x0000d992:    606a        j`      STR      r2,[r5,#4]
        0x0000d994:    686a        jh      LDR      r2,[r5,#4]
        0x0000d996:    f3611207    a...    BFI      r2,r1,#4,#4
        0x0000d99a:    606a        j`      STR      r2,[r5,#4]
        0x0000d99c:    6869        ih      LDR      r1,[r5,#4]
        0x0000d99e:    2206        ."      MOVS     r2,#6
        0x0000d9a0:    f362210b    b..!    BFI      r1,r2,#8,#4
        0x0000d9a4:    6069        i`      STR      r1,[r5,#4]
        0x0000d9a6:    6869        ih      LDR      r1,[r5,#4]
        0x0000d9a8:    2201        ."      MOVS     r2,#1
        0x0000d9aa:    f362310f    b..1    BFI      r1,r2,#12,#4
        0x0000d9ae:    6069        i`      STR      r1,[r5,#4]
        0x0000d9b0:    6869        ih      LDR      r1,[r5,#4]
        0x0000d9b2:    f36061de    `..a    BFI      r1,r0,#27,#4
        0x0000d9b6:    6069        i`      STR      r1,[r5,#4]
        0x0000d9b8:    68a9        .h      LDR      r1,[r5,#8]
        0x0000d9ba:    f3600103    `...    BFI      r1,r0,#0,#4
        0x0000d9be:    60a9        .`      STR      r1,[r5,#8]
        0x0000d9c0:    59a8        .Y      LDR      r0,[r5,r6]
        0x0000d9c2:    f00000fe    ....    AND      r0,r0,#0xfe
        0x0000d9c6:    2812        .(      CMP      r0,#0x12
        0x0000d9c8:    d303        ..      BCC      0xd9d2 ; am_hal_pwrctrl_low_power_init + 178
        0x0000d9ca:    68a8        .h      LDR      r0,[r5,#8]
        0x0000d9cc:    f0207080     ..p    BIC      r0,r0,#0x1000000
        0x0000d9d0:    60a8        .`      STR      r0,[r5,#8]
        0x0000d9d2:    200c        .       MOVS     r0,#0xc
        0x0000d9d4:    2100        .!      MOVS     r1,#0
        0x0000d9d6:    2400        .$      MOVS     r4,#0
        0x0000d9d8:    f7fefe12    ....    BL       am_hal_cachectrl_control ; 0xc600
        0x0000d9dc:    69b8        .i      LDR      r0,[r7,#0x18]
        0x0000d9de:    05c0        ..      LSLS     r0,r0,#23
        0x0000d9e0:    d430        0.      BMI      0xda44 ; am_hal_pwrctrl_low_power_init + 292
        0x0000d9e2:    f7ffff74    ..t.    BL       am_hal_pwrctrl_blebuck_trim ; 0xd8ce
        0x0000d9e6:    f64f40c4    O..@    MOV      r0,#0xfcc4
        0x0000d9ea:    f6cf70ff    ...p    MOVT     r0,#0xffff
        0x0000d9ee:    582a        *X      LDR      r2,[r5,r0]
        0x0000d9f0:    f5a5714f    ..Oq    SUB      r1,r5,#0x33c
        0x0000d9f4:    f0420201    B...    ORR      r2,r2,#1
        0x0000d9f8:    502a        *P      STR      r2,[r5,r0]
        0x0000d9fa:    2401        .$      MOVS     r4,#1
        0x0000d9fc:    f2427010    B..p    MOV      r0,#0x2710
        0x0000da00:    2207        ."      MOVS     r2,#7
        0x0000da02:    2307        .#      MOVS     r3,#7
        0x0000da04:    9400        ..      STR      r4,[sp,#0]
        0x0000da06:    f7fff81b    ....    BL       am_hal_flash_delay_status_check ; 0xca40
        0x0000da0a:    b108        ..      CBZ      r0,0xda10 ; am_hal_pwrctrl_low_power_init + 240
        0x0000da0c:    2404        .$      MOVS     r4,#4
        0x0000da0e:    e019        ..      B        0xda44 ; am_hal_pwrctrl_low_power_init + 292
        0x0000da10:    6838        8h      LDR      r0,[r7,#0]
        0x0000da12:    f0400001    @...    ORR      r0,r0,#1
        0x0000da16:    6038        8`      STR      r0,[r7,#0]
        0x0000da18:    6a78        xj      LDR      r0,[r7,#0x24]
        0x0000da1a:    f0400040    @.@.    ORR      r0,r0,#0x40
        0x0000da1e:    6278        xb      STR      r0,[r7,#0x24]
        0x0000da20:    59a8        .Y      LDR      r0,[r5,r6]
        0x0000da22:    b2c0        ..      UXTB     r0,r0
        0x0000da24:    2811        .(      CMP      r0,#0x11
        0x0000da26:    d10c        ..      BNE      0xda42 ; am_hal_pwrctrl_low_power_init + 290
        0x0000da28:    68a8        .h      LDR      r0,[r5,#8]
        0x0000da2a:    210f        .!      MOVS     r1,#0xf
        0x0000da2c:    f42000c0     ...    BIC      r0,r0,#0x600000
        0x0000da30:    60a8        .`      STR      r0,[r5,#8]
        0x0000da32:    6968        hi      LDR      r0,[r5,#0x14]
        0x0000da34:    f361108b    a...    BFI      r0,r1,#6,#6
        0x0000da38:    6168        ha      STR      r0,[r5,#0x14]
        0x0000da3a:    6968        hi      LDR      r0,[r5,#0x14]
        0x0000da3c:    f3610005    a...    BFI      r0,r1,#0,#6
        0x0000da40:    6168        ha      STR      r0,[r5,#0x14]
        0x0000da42:    2400        .$      MOVS     r4,#0
        0x0000da44:    4620         F      MOV      r0,r4
        0x0000da46:    b001        ..      ADD      sp,sp,#4
        0x0000da48:    bdf0        ..      POP      {r4-r7,pc}
        0x0000da4a:    0000        ..      MOVS     r0,r0
    am_hal_pwrctrl_periph_disable
        0x0000da4c:    b5f0        ..      PUSH     {r4-r7,lr}
        0x0000da4e:    b081        ..      SUB      sp,sp,#4
        0x0000da50:    f2410508    A...    MOV      r5,#0x1008
        0x0000da54:    4604        .F      MOV      r4,r0
        0x0000da56:    f2c40502    ....    MOVT     r5,#0x4002
        0x0000da5a:    f7fffa77    ..w.    BL       am_hal_interrupt_master_disable ; 0xcf4c
        0x0000da5e:    f24f2144    O.D!    MOV      r1,#0xf244
        0x0000da62:    9000        ..      STR      r0,[sp,#0]
        0x0000da64:    eb040044    ..D.    ADD      r0,r4,r4,LSL #1
        0x0000da68:    f2c00100    ....    MOVT     r1,#0
        0x0000da6c:    eb010680    ....    ADD      r6,r1,r0,LSL #2
        0x0000da70:    f8564b04    V..K    LDR      r4,[r6],#4
        0x0000da74:    6828        (h      LDR      r0,[r5,#0]
        0x0000da76:    43a0        .C      BICS     r0,r0,r4
        0x0000da78:    6028        (`      STR      r0,[r5,#0]
        0x0000da7a:    9800        ..      LDR      r0,[sp,#0]
        0x0000da7c:    f7fffa6e    ..n.    BL       am_hal_interrupt_master_set ; 0xcf5c
        0x0000da80:    6836        6h      LDR      r6,[r6,#0]
        0x0000da82:    2700        .'      MOVS     r7,#0
        0x0000da84:    20a0        .       MOVS     r0,#0xa0
        0x0000da86:    f7feffc6    ....    BL       am_hal_flash_delay ; 0xca16
        0x0000da8a:    6928        (i      LDR      r0,[r5,#0x10]
        0x0000da8c:    4206        .B      TST      r6,r0
        0x0000da8e:    d003        ..      BEQ      0xda98 ; am_hal_pwrctrl_periph_disable + 76
        0x0000da90:    2f0a        ./      CMP      r7,#0xa
        0x0000da92:    f107070a    ....    ADD      r7,r7,#0xa
        0x0000da96:    d3f5        ..      BCC      0xda84 ; am_hal_pwrctrl_periph_disable + 56
        0x0000da98:    6928        (i      LDR      r0,[r5,#0x10]
        0x0000da9a:    4206        .B      TST      r6,r0
        0x0000da9c:    d00b        ..      BEQ      0xdab6 ; am_hal_pwrctrl_periph_disable + 106
        0x0000da9e:    6828        (h      LDR      r0,[r5,#0]
        0x0000daa0:    2e10        ..      CMP      r6,#0x10
        0x0000daa2:    d00a        ..      BEQ      0xdaba ; am_hal_pwrctrl_periph_disable + 110
        0x0000daa4:    2e08        ..      CMP      r6,#8
        0x0000daa6:    d00f        ..      BEQ      0xdac8 ; am_hal_pwrctrl_periph_disable + 124
        0x0000daa8:    2e04        ..      CMP      r6,#4
        0x0000daaa:    d110        ..      BNE      0xdace ; am_hal_pwrctrl_periph_disable + 130
        0x0000daac:    f2405181    @..Q    MOV      r1,#0x581
        0x0000dab0:    4208        .B      TST      r0,r1
        0x0000dab2:    d105        ..      BNE      0xdac0 ; am_hal_pwrctrl_periph_disable + 116
        0x0000dab4:    e00b        ..      B        0xdace ; am_hal_pwrctrl_periph_disable + 130
        0x0000dab6:    2000        .       MOVS     r0,#0
        0x0000dab8:    e00a        ..      B        0xdad0 ; am_hal_pwrctrl_periph_disable + 132
        0x0000daba:    f0100f70    ..p.    TST      r0,#0x70
        0x0000dabe:    d006        ..      BEQ      0xdace ; am_hal_pwrctrl_periph_disable + 130
        0x0000dac0:    4020         @      ANDS     r0,r0,r4
        0x0000dac2:    bf18        ..      IT       NE
        0x0000dac4:    2001        .       MOVNE    r0,#1
        0x0000dac6:    e003        ..      B        0xdad0 ; am_hal_pwrctrl_periph_disable + 132
        0x0000dac8:    f0100f0e    ....    TST      r0,#0xe
        0x0000dacc:    d1f8        ..      BNE      0xdac0 ; am_hal_pwrctrl_periph_disable + 116
        0x0000dace:    2001        .       MOVS     r0,#1
        0x0000dad0:    b001        ..      ADD      sp,sp,#4
        0x0000dad2:    bdf0        ..      POP      {r4-r7,pc}
    am_hal_pwrctrl_periph_enable
        0x0000dad4:    b5f0        ..      PUSH     {r4-r7,lr}
        0x0000dad6:    b083        ..      SUB      sp,sp,#0xc
        0x0000dad8:    f2410508    A...    MOV      r5,#0x1008
        0x0000dadc:    4604        .F      MOV      r4,r0
        0x0000dade:    f2c40502    ....    MOVT     r5,#0x4002
        0x0000dae2:    f7fffa33    ..3.    BL       am_hal_interrupt_master_disable ; 0xcf4c
        0x0000dae6:    f24f2144    O.D!    MOV      r1,#0xf244
        0x0000daea:    9002        ..      STR      r0,[sp,#8]
        0x0000daec:    eb040044    ..D.    ADD      r0,r4,r4,LSL #1
        0x0000daf0:    f2c00100    ....    MOVT     r1,#0
        0x0000daf4:    eb010680    ....    ADD      r6,r1,r0,LSL #2
        0x0000daf8:    f8564b04    V..K    LDR      r4,[r6],#4
        0x0000dafc:    6828        (h      LDR      r0,[r5,#0]
        0x0000dafe:    4320         C      ORRS     r0,r0,r4
        0x0000db00:    6028        (`      STR      r0,[r5,#0]
        0x0000db02:    9802        ..      LDR      r0,[sp,#8]
        0x0000db04:    f7fffa2a    ..*.    BL       am_hal_interrupt_master_set ; 0xcf5c
        0x0000db08:    6836        6h      LDR      r6,[r6,#0]
        0x0000db0a:    2700        .'      MOVS     r7,#0
        0x0000db0c:    20a0        .       MOVS     r0,#0xa0
        0x0000db0e:    f7feff82    ....    BL       am_hal_flash_delay ; 0xca16
        0x0000db12:    6928        (i      LDR      r0,[r5,#0x10]
        0x0000db14:    4206        .B      TST      r6,r0
        0x0000db16:    d103        ..      BNE      0xdb20 ; am_hal_pwrctrl_periph_enable + 76
        0x0000db18:    2f0a        ./      CMP      r7,#0xa
        0x0000db1a:    f107070a    ....    ADD      r7,r7,#0xa
        0x0000db1e:    d3f5        ..      BCC      0xdb0c ; am_hal_pwrctrl_periph_enable + 56
        0x0000db20:    6928        (i      LDR      r0,[r5,#0x10]
        0x0000db22:    4206        .B      TST      r6,r0
        0x0000db24:    d001        ..      BEQ      0xdb2a ; am_hal_pwrctrl_periph_enable + 86
        0x0000db26:    2000        .       MOVS     r0,#0
        0x0000db28:    e009        ..      B        0xdb3e ; am_hal_pwrctrl_periph_enable + 106
        0x0000db2a:    f7fffa0f    ....    BL       am_hal_interrupt_master_disable ; 0xcf4c
        0x0000db2e:    9001        ..      STR      r0,[sp,#4]
        0x0000db30:    6828        (h      LDR      r0,[r5,#0]
        0x0000db32:    43a0        .C      BICS     r0,r0,r4
        0x0000db34:    6028        (`      STR      r0,[r5,#0]
        0x0000db36:    9801        ..      LDR      r0,[sp,#4]
        0x0000db38:    f7fffa10    ....    BL       am_hal_interrupt_master_set ; 0xcf5c
        0x0000db3c:    2001        .       MOVS     r0,#1
        0x0000db3e:    b003        ..      ADD      sp,sp,#0xc
        0x0000db40:    bdf0        ..      POP      {r4-r7,pc}
    am_hal_rtc_osc_disable
        0x0000db42:    f2442050    D.P     MOV      r0,#0x4250
        0x0000db46:    f2c40000    ....    MOVT     r0,#0x4000
        0x0000db4a:    6801        .h      LDR      r1,[r0,#0]
        0x0000db4c:    f0410110    A...    ORR      r1,r1,#0x10
        0x0000db50:    6001        .`      STR      r1,[r0,#0]
        0x0000db52:    4770        pG      BX       lr
    am_hal_sysctrl_sleep
        0x0000db54:    b570        p.      PUSH     {r4-r6,lr}
        0x0000db56:    b082        ..      SUB      sp,sp,#8
        0x0000db58:    f64e5510    N..U    MOV      r5,#0xed10
        0x0000db5c:    4604        .F      MOV      r4,r0
        0x0000db5e:    f2ce0500    ....    MOVT     r5,#0xe000
        0x0000db62:    f7fff9f3    ....    BL       am_hal_interrupt_master_disable ; 0xcf4c
        0x0000db66:    9001        ..      STR      r0,[sp,#4]
        0x0000db68:    f24450f4    D..P    MOV      r0,#0x45f4
        0x0000db6c:    f2c10000    ....    MOVT     r0,#0x1000
        0x0000db70:    6801        .h      LDR      r1,[r0,#0]
        0x0000db72:    f1010101    ....    ADD      r1,r1,#1
        0x0000db76:    6001        .`      STR      r1,[r0,#0]
        0x0000db78:    b3d4        ..      CBZ      r4,0xdbf0 ; am_hal_sysctrl_sleep + 156
        0x0000db7a:    f2403450    @.P4    MOVW     r4,#0x350
        0x0000db7e:    f2c40402    ....    MOVT     r4,#0x4002
        0x0000db82:    f06f00ff    o...    MVN      r0,#0xff
        0x0000db86:    5820         X      LDR      r0,[r4,r0]
        0x0000db88:    07c0        ..      LSLS     r0,r0,#31
        0x0000db8a:    d131        1.      BNE      0xdbf0 ; am_hal_sysctrl_sleep + 156
        0x0000db8c:    f2412014    A..     MOV      r0,#0x1214
        0x0000db90:    f2c10000    ....    MOVT     r0,#0x1000
        0x0000db94:    6801        .h      LDR      r1,[r0,#0]
        0x0000db96:    b929        ).      CBNZ     r1,0xdba4 ; am_hal_sysctrl_sleep + 80
        0x0000db98:    f24f0100    O...    MOVW     r1,#0xf000
        0x0000db9c:    f6c471ff    ...q    MOVT     r1,#0x4fff
        0x0000dba0:    6809        .h      LDR      r1,[r1,#0]
        0x0000dba2:    6001        .`      STR      r1,[r0,#0]
        0x0000dba4:    6826        &h      LDR      r6,[r4,#0]
        0x0000dba6:    f44f2110    O..!    MOV      r1,#0x90000
        0x0000dbaa:    f3c64005    ...@    UBFX     r0,r6,#16,#6
        0x0000dbae:    2836        6(      CMP      r0,#0x36
        0x0000dbb0:    bf28        (.      IT       CS
        0x0000dbb2:    2036        6       MOVCS    r0,#0x36
        0x0000dbb4:    eb014000    ...@    ADD      r0,r1,r0,LSL #16
        0x0000dbb8:    4631        1F      MOV      r1,r6
        0x0000dbba:    f36f219f    o..!    BFC      r1,#10,#22
        0x0000dbbe:    f24032e7    @..2    MOV      r2,#0x3e7
        0x0000dbc2:    4291        .B      CMP      r1,r2
        0x0000dbc4:    bf28        (.      IT       CS
        0x0000dbc6:    4611        .F      MOVCS    r1,r2
        0x0000dbc8:    f64f4200    O..B    MOVW     r2,#0xfc00
        0x0000dbcc:    f6cf72c0    ...r    MOVT     r2,#0xffc0
        0x0000dbd0:    3118        .1      ADDS     r1,r1,#0x18
        0x0000dbd2:    4032        2@      ANDS     r2,r2,r6
        0x0000dbd4:    f400107c    ..|.    AND      r0,r0,#0x3f0000
        0x0000dbd8:    4311        .C      ORRS     r1,r1,r2
        0x0000dbda:    4408        .D      ADD      r0,r0,r1
        0x0000dbdc:    6020         `      STR      r0,[r4,#0]
        0x0000dbde:    f44f70a0    O..p    MOV      r0,#0x140
        0x0000dbe2:    f7feff18    ....    BL       am_hal_flash_delay ; 0xca16
        0x0000dbe6:    6026        &`      STR      r6,[r4,#0]
        0x0000dbe8:    6828        (h      LDR      r0,[r5,#0]
        0x0000dbea:    f0400004    @...    ORR      r0,r0,#4
        0x0000dbee:    e002        ..      B        0xdbf6 ; am_hal_sysctrl_sleep + 162
        0x0000dbf0:    6828        (h      LDR      r0,[r5,#0]
        0x0000dbf2:    f0200004     ...    BIC      r0,r0,#4
        0x0000dbf6:    6028        (`      STR      r0,[r5,#0]
        0x0000dbf8:    2000        .       MOVS     r0,#0
        0x0000dbfa:    f3bf8f4f    ..O.    DSB      
        0x0000dbfe:    f6c570ff    ...p    MOVT     r0,#0x5fff
        0x0000dc02:    6800        .h      LDR      r0,[r0,#0]
        0x0000dc04:    bf30        0.      WFI      
        0x0000dc06:    f3bf8f6f    ..o.    ISB      
        0x0000dc0a:    9801        ..      LDR      r0,[sp,#4]
        0x0000dc0c:    b002        ..      ADD      sp,sp,#8
        0x0000dc0e:    e8bd4070    ..p@    POP      {r4-r6,lr}
        0x0000dc12:    f7ffb9a3    ....    B        am_hal_interrupt_master_set ; 0xcf5c
    am_hal_tpiu_enable
        0x0000dc16:    b570        p.      PUSH     {r4-r6,lr}
        0x0000dc18:    b084        ..      SUB      sp,sp,#0x10
        0x0000dc1a:    6806        .h      LDR      r6,[r0,#0]
        0x0000dc1c:    f6407400    @..t    MOVW     r4,#0xf00
        0x0000dc20:    2504        .%      MOVS     r5,#4
        0x0000dc22:    f2ce0404    ....    MOVT     r4,#0xe004
        0x0000dc26:    f2ce0504    ....    MOVT     r5,#0xe004
        0x0000dc2a:    2200        ."      MOVS     r2,#0
        0x0000dc2c:    f8c52300    ...#    STR      r2,[r5,#0x300]
        0x0000dc30:    b1ce        ..      CBZ      r6,0xdc66 ; am_hal_tpiu_enable + 80
        0x0000dc32:    2001        .       MOVS     r0,#1
        0x0000dc34:    6028        (`      STR      r0,[r5,#0]
        0x0000dc36:    a801        ..      ADD      r0,sp,#4
        0x0000dc38:    f7fefe3e    ..>.    BL       am_hal_clkgen_status_get ; 0xc8b8
        0x0000dc3c:    9801        ..      LDR      r0,[sp,#4]
        0x0000dc3e:    1c41        A.      ADDS     r1,r0,#1
        0x0000dc40:    d01f        ..      BEQ      0xdc82 ; am_hal_tpiu_enable + 108
        0x0000dc42:    f24a3280    J..2    MOV      r2,#0xa380
        0x0000dc46:    f5a64161    ..aA    SUB      r1,r6,#0xe100
        0x0000dc4a:    f2c0021d    ....    MOVT     r2,#0x1d
        0x0000dc4e:    08c0        ..      LSRS     r0,r0,#3
        0x0000dc50:    4291        .B      CMP      r1,r2
        0x0000dc52:    bf84        ..      ITT      HI
        0x0000dc54:    f2442640    D.@&    MOVHI    r6,#0x4240
        0x0000dc58:    f2c0060f    ....    MOVTHI   r6,#0xf
        0x0000dc5c:    fbb0f0f6    ....    UDIV     r0,r0,r6
        0x0000dc60:    3801        .8      SUBS     r0,#1
        0x0000dc62:    b280        ..      UXTH     r0,r0
        0x0000dc64:    e00e        ..      B        0xdc84 ; am_hal_tpiu_enable + 110
        0x0000dc66:    e9d01301    ....    LDRD     r1,r3,[r0,#4]
        0x0000dc6a:    e9d00603    ....    LDRD     r0,r6,[r0,#0xc]
        0x0000dc6e:    60ee        .`      STR      r6,[r5,#0xc]
        0x0000dc70:    f8c530ec    ...0    STR      r3,[r5,#0xec]
        0x0000dc74:    3801        .8      SUBS     r0,#1
        0x0000dc76:    2301        .#      MOVS     r3,#1
        0x0000dc78:    fa03f000    ....    LSL      r0,r3,r0
        0x0000dc7c:    6028        (`      STR      r0,[r5,#0]
        0x0000dc7e:    6022        "`      STR      r2,[r4,#0]
        0x0000dc80:    e008        ..      B        0xdc94 ; am_hal_tpiu_enable + 126
        0x0000dc82:    2005        .       MOVS     r0,#5
        0x0000dc84:    60e8        .`      STR      r0,[r5,#0xc]
        0x0000dc86:    2002        .       MOVS     r0,#2
        0x0000dc88:    f8c500ec    ....    STR      r0,[r5,#0xec]
        0x0000dc8c:    2000        .       MOVS     r0,#0
        0x0000dc8e:    6020         `      STR      r0,[r4,#0]
        0x0000dc90:    f2402101    @..!    MOV      r1,#0x201
        0x0000dc94:    f2402050    @.P     MOVW     r0,#0x250
        0x0000dc98:    f2c40002    ....    MOVT     r0,#0x4002
        0x0000dc9c:    6001        .`      STR      r1,[r0,#0]
        0x0000dc9e:    f44f7048    O.Hp    MOV      r0,#0x320
        0x0000dca2:    f7fefeb8    ....    BL       am_hal_flash_delay ; 0xca16
        0x0000dca6:    b004        ..      ADD      sp,sp,#0x10
        0x0000dca8:    bd70        p.      POP      {r4-r6,pc}
        0x0000dcaa:    0000        ..      MOVS     r0,r0
    am_util_delay_ms
        0x0000dcac:    b580        ..      PUSH     {r7,lr}
        0x0000dcae:    b086        ..      SUB      sp,sp,#0x18
        0x0000dcb0:    9005        ..      STR      r0,[sp,#0x14]
        0x0000dcb2:    4668        hF      MOV      r0,sp
        0x0000dcb4:    f7fefe00    ....    BL       am_hal_clkgen_status_get ; 0xc8b8
        0x0000dcb8:    9800        ..      LDR      r0,[sp,#0]
        0x0000dcba:    9003        ..      STR      r0,[sp,#0xc]
        0x0000dcbc:    9805        ..      LDR      r0,[sp,#0x14]
        0x0000dcbe:    9903        ..      LDR      r1,[sp,#0xc]
        0x0000dcc0:    f64112f1    A...    MOV      r2,#0x19f1
        0x0000dcc4:    f2c05276    ..vR    MOVT     r2,#0x576
        0x0000dcc8:    fba12102    ...!    UMULL    r2,r1,r1,r2
        0x0000dccc:    0989        ..      LSRS     r1,r1,#6
        0x0000dcce:    4348        HC      MULS     r0,r1,r0
        0x0000dcd0:    9004        ..      STR      r0,[sp,#0x10]
        0x0000dcd2:    9804        ..      LDR      r0,[sp,#0x10]
        0x0000dcd4:    f7fefe9f    ....    BL       am_hal_flash_delay ; 0xca16
        0x0000dcd8:    b006        ..      ADD      sp,sp,#0x18
        0x0000dcda:    bd80        ..      POP      {r7,pc}
    am_util_stdio_printf
        0x0000dcdc:    b083        ..      SUB      sp,sp,#0xc
        0x0000dcde:    b580        ..      PUSH     {r7,lr}
        0x0000dce0:    b085        ..      SUB      sp,sp,#0x14
        0x0000dce2:    9309        ..      STR      r3,[sp,#0x24]
        0x0000dce4:    9208        ..      STR      r2,[sp,#0x20]
        0x0000dce6:    9107        ..      STR      r1,[sp,#0x1c]
        0x0000dce8:    9003        ..      STR      r0,[sp,#0xc]
        0x0000dcea:    f24450fc    D..P    MOV      r0,#0x45fc
        0x0000dcee:    f2c10000    ....    MOVT     r0,#0x1000
        0x0000dcf2:    6800        .h      LDR      r0,[r0,#0]
        0x0000dcf4:    b918        ..      CBNZ     r0,0xdcfe ; am_util_stdio_printf + 34
        0x0000dcf6:    e7ff        ..      B        0xdcf8 ; am_util_stdio_printf + 28
        0x0000dcf8:    2000        .       MOVS     r0,#0
        0x0000dcfa:    9004        ..      STR      r0,[sp,#0x10]
        0x0000dcfc:    e016        ..      B        0xdd2c ; am_util_stdio_printf + 80
        0x0000dcfe:    a807        ..      ADD      r0,sp,#0x1c
        0x0000dd00:    9001        ..      STR      r0,[sp,#4]
        0x0000dd02:    9903        ..      LDR      r1,[sp,#0xc]
        0x0000dd04:    9a01        ..      LDR      r2,[sp,#4]
        0x0000dd06:    f2446000    D..`    MOVW     r0,#0x4600
        0x0000dd0a:    f2c10000    ....    MOVT     r0,#0x1000
        0x0000dd0e:    9000        ..      STR      r0,[sp,#0]
        0x0000dd10:    f000f824    ..$.    BL       am_util_stdio_vsprintf ; 0xdd5c
        0x0000dd14:    4601        .F      MOV      r1,r0
        0x0000dd16:    9800        ..      LDR      r0,[sp,#0]
        0x0000dd18:    9102        ..      STR      r1,[sp,#8]
        0x0000dd1a:    f24451fc    D..Q    MOV      r1,#0x45fc
        0x0000dd1e:    f2c10100    ....    MOVT     r1,#0x1000
        0x0000dd22:    6809        .h      LDR      r1,[r1,#0]
        0x0000dd24:    4788        .G      BLX      r1
        0x0000dd26:    9802        ..      LDR      r0,[sp,#8]
        0x0000dd28:    9004        ..      STR      r0,[sp,#0x10]
        0x0000dd2a:    e7ff        ..      B        0xdd2c ; am_util_stdio_printf + 80
        0x0000dd2c:    9804        ..      LDR      r0,[sp,#0x10]
        0x0000dd2e:    b005        ..      ADD      sp,sp,#0x14
        0x0000dd30:    e8bd4080    ...@    POP      {r7,lr}
        0x0000dd34:    b003        ..      ADD      sp,sp,#0xc
        0x0000dd36:    4770        pG      BX       lr
    am_util_stdio_printf_init
        0x0000dd38:    b081        ..      SUB      sp,sp,#4
        0x0000dd3a:    9000        ..      STR      r0,[sp,#0]
        0x0000dd3c:    9800        ..      LDR      r0,[sp,#0]
        0x0000dd3e:    f24451fc    D..Q    MOV      r1,#0x45fc
        0x0000dd42:    f2c10100    ....    MOVT     r1,#0x1000
        0x0000dd46:    6008        .`      STR      r0,[r1,#0]
        0x0000dd48:    b001        ..      ADD      sp,sp,#4
        0x0000dd4a:    4770        pG      BX       lr
    am_util_stdio_terminal_clear
        0x0000dd4c:    b580        ..      PUSH     {r7,lr}
        0x0000dd4e:    f24f6081    O..`    MOV      r0,#0xf681
        0x0000dd52:    f2c00000    ....    MOVT     r0,#0
        0x0000dd56:    f7ffffc1    ....    BL       am_util_stdio_printf ; 0xdcdc
        0x0000dd5a:    bd80        ..      POP      {r7,pc}
    am_util_stdio_vsprintf
        0x0000dd5c:    b580        ..      PUSH     {r7,lr}
        0x0000dd5e:    b09e        ..      SUB      sp,sp,#0x78
        0x0000dd60:    921d        ..      STR      r2,[sp,#0x74]
        0x0000dd62:    901c        ..      STR      r0,[sp,#0x70]
        0x0000dd64:    911b        ..      STR      r1,[sp,#0x6c]
        0x0000dd66:    2000        .       MOVS     r0,#0
        0x0000dd68:    9014        ..      STR      r0,[sp,#0x50]
        0x0000dd6a:    900e        ..      STR      r0,[sp,#0x38]
        0x0000dd6c:    e7ff        ..      B        0xdd6e ; am_util_stdio_vsprintf + 18
        0x0000dd6e:    981b        ..      LDR      r0,[sp,#0x6c]
        0x0000dd70:    7800        .x      LDRB     r0,[r0,#0]
        0x0000dd72:    2800        .(      CMP      r0,#0
        0x0000dd74:    f0008312    ....    BEQ.W    0xe39c ; am_util_stdio_vsprintf + 1600
        0x0000dd78:    e7ff        ..      B        0xdd7a ; am_util_stdio_vsprintf + 30
        0x0000dd7a:    2006        .       MOVS     r0,#6
        0x0000dd7c:    9011        ..      STR      r0,[sp,#0x44]
        0x0000dd7e:    981b        ..      LDR      r0,[sp,#0x6c]
        0x0000dd80:    7800        .x      LDRB     r0,[r0,#0]
        0x0000dd82:    2825        %(      CMP      r0,#0x25
        0x0000dd84:    d027        '.      BEQ      0xddd6 ; am_util_stdio_vsprintf + 122
        0x0000dd86:    e7ff        ..      B        0xdd88 ; am_util_stdio_vsprintf + 44
        0x0000dd88:    981c        ..      LDR      r0,[sp,#0x70]
        0x0000dd8a:    b1e8        ..      CBZ      r0,0xddc8 ; am_util_stdio_vsprintf + 108
        0x0000dd8c:    e7ff        ..      B        0xdd8e ; am_util_stdio_vsprintf + 50
        0x0000dd8e:    981b        ..      LDR      r0,[sp,#0x6c]
        0x0000dd90:    7800        .x      LDRB     r0,[r0,#0]
        0x0000dd92:    280a        .(      CMP      r0,#0xa
        0x0000dd94:    d111        ..      BNE      0xddba ; am_util_stdio_vsprintf + 94
        0x0000dd96:    e7ff        ..      B        0xdd98 ; am_util_stdio_vsprintf + 60
        0x0000dd98:    f24450f8    D..P    MOV      r0,#0x45f8
        0x0000dd9c:    f2c10000    ....    MOVT     r0,#0x1000
        0x0000dda0:    7800        .x      LDRB     r0,[r0,#0]
        0x0000dda2:    07c0        ..      LSLS     r0,r0,#31
        0x0000dda4:    b148        H.      CBZ      r0,0xddba ; am_util_stdio_vsprintf + 94
        0x0000dda6:    e7ff        ..      B        0xdda8 ; am_util_stdio_vsprintf + 76
        0x0000dda8:    991c        ..      LDR      r1,[sp,#0x70]
        0x0000ddaa:    1c48        H.      ADDS     r0,r1,#1
        0x0000ddac:    901c        ..      STR      r0,[sp,#0x70]
        0x0000ddae:    200d        .       MOVS     r0,#0xd
        0x0000ddb0:    7008        .p      STRB     r0,[r1,#0]
        0x0000ddb2:    9814        ..      LDR      r0,[sp,#0x50]
        0x0000ddb4:    3001        .0      ADDS     r0,#1
        0x0000ddb6:    9014        ..      STR      r0,[sp,#0x50]
        0x0000ddb8:    e7ff        ..      B        0xddba ; am_util_stdio_vsprintf + 94
        0x0000ddba:    981b        ..      LDR      r0,[sp,#0x6c]
        0x0000ddbc:    7800        .x      LDRB     r0,[r0,#0]
        0x0000ddbe:    991c        ..      LDR      r1,[sp,#0x70]
        0x0000ddc0:    1c4a        J.      ADDS     r2,r1,#1
        0x0000ddc2:    921c        ..      STR      r2,[sp,#0x70]
        0x0000ddc4:    7008        .p      STRB     r0,[r1,#0]
        0x0000ddc6:    e7ff        ..      B        0xddc8 ; am_util_stdio_vsprintf + 108
        0x0000ddc8:    981b        ..      LDR      r0,[sp,#0x6c]
        0x0000ddca:    3001        .0      ADDS     r0,#1
        0x0000ddcc:    901b        ..      STR      r0,[sp,#0x6c]
        0x0000ddce:    9814        ..      LDR      r0,[sp,#0x50]
        0x0000ddd0:    3001        .0      ADDS     r0,#1
        0x0000ddd2:    9014        ..      STR      r0,[sp,#0x50]
        0x0000ddd4:    e7cb        ..      B        0xdd6e ; am_util_stdio_vsprintf + 18
        0x0000ddd6:    981b        ..      LDR      r0,[sp,#0x6c]
        0x0000ddd8:    3001        .0      ADDS     r0,#1
        0x0000ddda:    901b        ..      STR      r0,[sp,#0x6c]
        0x0000dddc:    2000        .       MOVS     r0,#0
        0x0000ddde:    f88d0040    ..@.    STRB     r0,[sp,#0x40]
        0x0000dde2:    f88d0041    ..A.    STRB     r0,[sp,#0x41]
        0x0000dde6:    2020                MOVS     r0,#0x20
        0x0000dde8:    f88d0042    ..B.    STRB     r0,[sp,#0x42]
        0x0000ddec:    981b        ..      LDR      r0,[sp,#0x6c]
        0x0000ddee:    7800        .x      LDRB     r0,[r0,#0]
        0x0000ddf0:    2830        0(      CMP      r0,#0x30
        0x0000ddf2:    d107        ..      BNE      0xde04 ; am_util_stdio_vsprintf + 168
        0x0000ddf4:    e7ff        ..      B        0xddf6 ; am_util_stdio_vsprintf + 154
        0x0000ddf6:    2030        0       MOVS     r0,#0x30
        0x0000ddf8:    f88d0042    ..B.    STRB     r0,[sp,#0x42]
        0x0000ddfc:    981b        ..      LDR      r0,[sp,#0x6c]
        0x0000ddfe:    3001        .0      ADDS     r0,#1
        0x0000de00:    901b        ..      STR      r0,[sp,#0x6c]
        0x0000de02:    e7ff        ..      B        0xde04 ; am_util_stdio_vsprintf + 168
        0x0000de04:    981b        ..      LDR      r0,[sp,#0x6c]
        0x0000de06:    a915        ..      ADD      r1,sp,#0x54
        0x0000de08:    f000faea    ....    BL       decstr_to_int ; 0xe3e0
        0x0000de0c:    9013        ..      STR      r0,[sp,#0x4c]
        0x0000de0e:    9915        ..      LDR      r1,[sp,#0x54]
        0x0000de10:    981b        ..      LDR      r0,[sp,#0x6c]
        0x0000de12:    4408        .D      ADD      r0,r0,r1
        0x0000de14:    901b        ..      STR      r0,[sp,#0x6c]
        0x0000de16:    981b        ..      LDR      r0,[sp,#0x6c]
        0x0000de18:    7800        .x      LDRB     r0,[r0,#0]
        0x0000de1a:    2873        s(      CMP      r0,#0x73
        0x0000de1c:    d009        ..      BEQ      0xde32 ; am_util_stdio_vsprintf + 214
        0x0000de1e:    e7ff        ..      B        0xde20 ; am_util_stdio_vsprintf + 196
        0x0000de20:    9813        ..      LDR      r0,[sp,#0x4c]
        0x0000de22:    f1b03fff    ...?    CMP      r0,#0xffffffff
        0x0000de26:    dc04        ..      BGT      0xde32 ; am_util_stdio_vsprintf + 214
        0x0000de28:    e7ff        ..      B        0xde2a ; am_util_stdio_vsprintf + 206
        0x0000de2a:    9813        ..      LDR      r0,[sp,#0x4c]
        0x0000de2c:    4240        @B      RSBS     r0,r0,#0
        0x0000de2e:    9013        ..      STR      r0,[sp,#0x4c]
        0x0000de30:    e7ff        ..      B        0xde32 ; am_util_stdio_vsprintf + 214
        0x0000de32:    981b        ..      LDR      r0,[sp,#0x6c]
        0x0000de34:    7800        .x      LDRB     r0,[r0,#0]
        0x0000de36:    282e        .(      CMP      r0,#0x2e
        0x0000de38:    d10d        ..      BNE      0xde56 ; am_util_stdio_vsprintf + 250
        0x0000de3a:    e7ff        ..      B        0xde3c ; am_util_stdio_vsprintf + 224
        0x0000de3c:    981b        ..      LDR      r0,[sp,#0x6c]
        0x0000de3e:    3001        .0      ADDS     r0,#1
        0x0000de40:    901b        ..      STR      r0,[sp,#0x6c]
        0x0000de42:    981b        ..      LDR      r0,[sp,#0x6c]
        0x0000de44:    a915        ..      ADD      r1,sp,#0x54
        0x0000de46:    f000facb    ....    BL       decstr_to_int ; 0xe3e0
        0x0000de4a:    9011        ..      STR      r0,[sp,#0x44]
        0x0000de4c:    9915        ..      LDR      r1,[sp,#0x54]
        0x0000de4e:    981b        ..      LDR      r0,[sp,#0x6c]
        0x0000de50:    4408        .D      ADD      r0,r0,r1
        0x0000de52:    901b        ..      STR      r0,[sp,#0x6c]
        0x0000de54:    e7ff        ..      B        0xde56 ; am_util_stdio_vsprintf + 250
        0x0000de56:    981b        ..      LDR      r0,[sp,#0x6c]
        0x0000de58:    7800        .x      LDRB     r0,[r0,#0]
        0x0000de5a:    286c        l(      CMP      r0,#0x6c
        0x0000de5c:    d110        ..      BNE      0xde80 ; am_util_stdio_vsprintf + 292
        0x0000de5e:    e7ff        ..      B        0xde60 ; am_util_stdio_vsprintf + 260
        0x0000de60:    981b        ..      LDR      r0,[sp,#0x6c]
        0x0000de62:    3001        .0      ADDS     r0,#1
        0x0000de64:    901b        ..      STR      r0,[sp,#0x6c]
        0x0000de66:    981b        ..      LDR      r0,[sp,#0x6c]
        0x0000de68:    7800        .x      LDRB     r0,[r0,#0]
        0x0000de6a:    286c        l(      CMP      r0,#0x6c
        0x0000de6c:    d107        ..      BNE      0xde7e ; am_util_stdio_vsprintf + 290
        0x0000de6e:    e7ff        ..      B        0xde70 ; am_util_stdio_vsprintf + 276
        0x0000de70:    981b        ..      LDR      r0,[sp,#0x6c]
        0x0000de72:    3001        .0      ADDS     r0,#1
        0x0000de74:    901b        ..      STR      r0,[sp,#0x6c]
        0x0000de76:    2001        .       MOVS     r0,#1
        0x0000de78:    f88d0040    ..@.    STRB     r0,[sp,#0x40]
        0x0000de7c:    e7ff        ..      B        0xde7e ; am_util_stdio_vsprintf + 290
        0x0000de7e:    e7ff        ..      B        0xde80 ; am_util_stdio_vsprintf + 292
        0x0000de80:    981b        ..      LDR      r0,[sp,#0x6c]
        0x0000de82:    7800        .x      LDRB     r0,[r0,#0]
        0x0000de84:    3846        F8      SUBS     r0,r0,#0x46
        0x0000de86:    4601        .F      MOV      r1,r0
        0x0000de88:    910b        ..      STR      r1,[sp,#0x2c]
        0x0000de8a:    2832        2(      CMP      r0,#0x32
        0x0000de8c:    f2008273    ..s.    BHI.W    0xe376 ; am_util_stdio_vsprintf + 1562
        0x0000de90:    990b        ..      LDR      r1,[sp,#0x2c]
        0x0000de92:    e8dff011    ....    TBH      [pc,r1,LSL #1]
    $d.4
        0x0000de96:    0224        $.      DCW    548
        0x0000de98:    02700270    p.p.    DCD    40895088
        0x0000de9c:    02700270    p.p.    DCD    40895088
        0x0000dea0:    02700270    p.p.    DCD    40895088
        0x0000dea4:    02700270    p.p.    DCD    40895088
        0x0000dea8:    02700270    p.p.    DCD    40895088
        0x0000deac:    02700270    p.p.    DCD    40895088
        0x0000deb0:    02700270    p.p.    DCD    40895088
        0x0000deb4:    02700270    p.p.    DCD    40895088
        0x0000deb8:    00bf0270    p...    DCD    12518000
        0x0000debc:    02700270    p.p.    DCD    40895088
        0x0000dec0:    02700270    p.p.    DCD    40895088
        0x0000dec4:    02700270    p.p.    DCD    40895088
        0x0000dec8:    02700270    p.p.    DCD    40895088
        0x0000decc:    02700270    p.p.    DCD    40895088
        0x0000ded0:    016f0033    3.o.    DCD    24051763
        0x0000ded4:    02240270    p.$.    DCD    35914352
        0x0000ded8:    02700270    p.p.    DCD    40895088
        0x0000dedc:    0270016f    o.p.    DCD    40894831
        0x0000dee0:    02700270    p.p.    DCD    40895088
        0x0000dee4:    02700270    p.p.    DCD    40895088
        0x0000dee8:    02700270    p.p.    DCD    40895088
        0x0000deec:    02700270    p.p.    DCD    40895088
        0x0000def0:    02700047    G.p.    DCD    40894535
        0x0000def4:    02700119    ..p.    DCD    40894745
        0x0000def8:    00bb0270    p...    DCD    12255856
    $t.5
        0x0000defc:    981d        ..      LDR      r0,[sp,#0x74]
        0x0000defe:    1d01        ..      ADDS     r1,r0,#4
        0x0000df00:    911d        ..      STR      r1,[sp,#0x74]
        0x0000df02:    6800        .h      LDR      r0,[r0,#0]
        0x0000df04:    f88d0043    ..C.    STRB     r0,[sp,#0x43]
        0x0000df08:    981c        ..      LDR      r0,[sp,#0x70]
        0x0000df0a:    b138        8.      CBZ      r0,0xdf1c ; am_util_stdio_vsprintf + 448
        0x0000df0c:    e7ff        ..      B        0xdf0e ; am_util_stdio_vsprintf + 434
        0x0000df0e:    f89d0043    ..C.    LDRB     r0,[sp,#0x43]
        0x0000df12:    991c        ..      LDR      r1,[sp,#0x70]
        0x0000df14:    1c4a        J.      ADDS     r2,r1,#1
        0x0000df16:    921c        ..      STR      r2,[sp,#0x70]
        0x0000df18:    7008        .p      STRB     r0,[r1,#0]
        0x0000df1a:    e7ff        ..      B        0xdf1c ; am_util_stdio_vsprintf + 448
        0x0000df1c:    9814        ..      LDR      r0,[sp,#0x50]
        0x0000df1e:    3001        .0      ADDS     r0,#1
        0x0000df20:    9014        ..      STR      r0,[sp,#0x50]
        0x0000df22:    e236        6.      B        0xe392 ; am_util_stdio_vsprintf + 1590
        0x0000df24:    981d        ..      LDR      r0,[sp,#0x74]
        0x0000df26:    1d01        ..      ADDS     r1,r0,#4
        0x0000df28:    911d        ..      STR      r1,[sp,#0x74]
        0x0000df2a:    6800        .h      LDR      r0,[r0,#0]
        0x0000df2c:    901a        ..      STR      r0,[sp,#0x68]
        0x0000df2e:    981a        ..      LDR      r0,[sp,#0x68]
        0x0000df30:    f000ff90    ....    BL       simple_strlen ; 0xee54
        0x0000df34:    900e        ..      STR      r0,[sp,#0x38]
        0x0000df36:    9813        ..      LDR      r0,[sp,#0x4c]
        0x0000df38:    2801        .(      CMP      r0,#1
        0x0000df3a:    db25        %.      BLT      0xdf88 ; am_util_stdio_vsprintf + 556
        0x0000df3c:    e7ff        ..      B        0xdf3e ; am_util_stdio_vsprintf + 482
        0x0000df3e:    980e        ..      LDR      r0,[sp,#0x38]
        0x0000df40:    9913        ..      LDR      r1,[sp,#0x4c]
        0x0000df42:    4288        .B      CMP      r0,r1
        0x0000df44:    d21f        ..      BCS      0xdf86 ; am_util_stdio_vsprintf + 554
        0x0000df46:    e7ff        ..      B        0xdf48 ; am_util_stdio_vsprintf + 492
        0x0000df48:    990e        ..      LDR      r1,[sp,#0x38]
        0x0000df4a:    9813        ..      LDR      r0,[sp,#0x4c]
        0x0000df4c:    1a40        @.      SUBS     r0,r0,r1
        0x0000df4e:    9013        ..      STR      r0,[sp,#0x4c]
        0x0000df50:    981c        ..      LDR      r0,[sp,#0x70]
        0x0000df52:    f89d1042    ..B.    LDRB     r1,[sp,#0x42]
        0x0000df56:    9a13        ..      LDR      r2,[sp,#0x4c]
        0x0000df58:    f000fef0    ....    BL       padbuffer ; 0xed3c
        0x0000df5c:    9013        ..      STR      r0,[sp,#0x4c]
        0x0000df5e:    981c        ..      LDR      r0,[sp,#0x70]
        0x0000df60:    b118        ..      CBZ      r0,0xdf6a ; am_util_stdio_vsprintf + 526
        0x0000df62:    e7ff        ..      B        0xdf64 ; am_util_stdio_vsprintf + 520
        0x0000df64:    9813        ..      LDR      r0,[sp,#0x4c]
        0x0000df66:    900a        ..      STR      r0,[sp,#0x28]
        0x0000df68:    e002        ..      B        0xdf70 ; am_util_stdio_vsprintf + 532
        0x0000df6a:    2000        .       MOVS     r0,#0
        0x0000df6c:    900a        ..      STR      r0,[sp,#0x28]
        0x0000df6e:    e7ff        ..      B        0xdf70 ; am_util_stdio_vsprintf + 532
        0x0000df70:    990a        ..      LDR      r1,[sp,#0x28]
        0x0000df72:    981c        ..      LDR      r0,[sp,#0x70]
        0x0000df74:    4408        .D      ADD      r0,r0,r1
        0x0000df76:    901c        ..      STR      r0,[sp,#0x70]
        0x0000df78:    9913        ..      LDR      r1,[sp,#0x4c]
        0x0000df7a:    9814        ..      LDR      r0,[sp,#0x50]
        0x0000df7c:    4408        .D      ADD      r0,r0,r1
        0x0000df7e:    9014        ..      STR      r0,[sp,#0x50]
        0x0000df80:    2000        .       MOVS     r0,#0
        0x0000df82:    9013        ..      STR      r0,[sp,#0x4c]
        0x0000df84:    e7ff        ..      B        0xdf86 ; am_util_stdio_vsprintf + 554
        0x0000df86:    e7ff        ..      B        0xdf88 ; am_util_stdio_vsprintf + 556
        0x0000df88:    e7ff        ..      B        0xdf8a ; am_util_stdio_vsprintf + 558
        0x0000df8a:    981a        ..      LDR      r0,[sp,#0x68]
        0x0000df8c:    7800        .x      LDRB     r0,[r0,#0]
        0x0000df8e:    b188        ..      CBZ      r0,0xdfb4 ; am_util_stdio_vsprintf + 600
        0x0000df90:    e7ff        ..      B        0xdf92 ; am_util_stdio_vsprintf + 566
        0x0000df92:    981c        ..      LDR      r0,[sp,#0x70]
        0x0000df94:    b138        8.      CBZ      r0,0xdfa6 ; am_util_stdio_vsprintf + 586
        0x0000df96:    e7ff        ..      B        0xdf98 ; am_util_stdio_vsprintf + 572
        0x0000df98:    981a        ..      LDR      r0,[sp,#0x68]
        0x0000df9a:    7800        .x      LDRB     r0,[r0,#0]
        0x0000df9c:    991c        ..      LDR      r1,[sp,#0x70]
        0x0000df9e:    1c4a        J.      ADDS     r2,r1,#1
        0x0000dfa0:    921c        ..      STR      r2,[sp,#0x70]
        0x0000dfa2:    7008        .p      STRB     r0,[r1,#0]
        0x0000dfa4:    e7ff        ..      B        0xdfa6 ; am_util_stdio_vsprintf + 586
        0x0000dfa6:    981a        ..      LDR      r0,[sp,#0x68]
        0x0000dfa8:    3001        .0      ADDS     r0,#1
        0x0000dfaa:    901a        ..      STR      r0,[sp,#0x68]
        0x0000dfac:    9814        ..      LDR      r0,[sp,#0x50]
        0x0000dfae:    3001        .0      ADDS     r0,#1
        0x0000dfb0:    9014        ..      STR      r0,[sp,#0x50]
        0x0000dfb2:    e7ea        ..      B        0xdf8a ; am_util_stdio_vsprintf + 558
        0x0000dfb4:    9813        ..      LDR      r0,[sp,#0x4c]
        0x0000dfb6:    b340        @.      CBZ      r0,0xe00a ; am_util_stdio_vsprintf + 686
        0x0000dfb8:    e7ff        ..      B        0xdfba ; am_util_stdio_vsprintf + 606
        0x0000dfba:    9813        ..      LDR      r0,[sp,#0x4c]
        0x0000dfbc:    4240        @B      RSBS     r0,r0,#0
        0x0000dfbe:    9013        ..      STR      r0,[sp,#0x4c]
        0x0000dfc0:    980e        ..      LDR      r0,[sp,#0x38]
        0x0000dfc2:    9913        ..      LDR      r1,[sp,#0x4c]
        0x0000dfc4:    4288        .B      CMP      r0,r1
        0x0000dfc6:    d21f        ..      BCS      0xe008 ; am_util_stdio_vsprintf + 684
        0x0000dfc8:    e7ff        ..      B        0xdfca ; am_util_stdio_vsprintf + 622
        0x0000dfca:    990e        ..      LDR      r1,[sp,#0x38]
        0x0000dfcc:    9813        ..      LDR      r0,[sp,#0x4c]
        0x0000dfce:    1a40        @.      SUBS     r0,r0,r1
        0x0000dfd0:    9013        ..      STR      r0,[sp,#0x4c]
        0x0000dfd2:    981c        ..      LDR      r0,[sp,#0x70]
        0x0000dfd4:    f89d1042    ..B.    LDRB     r1,[sp,#0x42]
        0x0000dfd8:    9a13        ..      LDR      r2,[sp,#0x4c]
        0x0000dfda:    f000feaf    ....    BL       padbuffer ; 0xed3c
        0x0000dfde:    9013        ..      STR      r0,[sp,#0x4c]
        0x0000dfe0:    981c        ..      LDR      r0,[sp,#0x70]
        0x0000dfe2:    b118        ..      CBZ      r0,0xdfec ; am_util_stdio_vsprintf + 656
        0x0000dfe4:    e7ff        ..      B        0xdfe6 ; am_util_stdio_vsprintf + 650
        0x0000dfe6:    9813        ..      LDR      r0,[sp,#0x4c]
        0x0000dfe8:    9009        ..      STR      r0,[sp,#0x24]
        0x0000dfea:    e002        ..      B        0xdff2 ; am_util_stdio_vsprintf + 662
        0x0000dfec:    2000        .       MOVS     r0,#0
        0x0000dfee:    9009        ..      STR      r0,[sp,#0x24]
        0x0000dff0:    e7ff        ..      B        0xdff2 ; am_util_stdio_vsprintf + 662
        0x0000dff2:    9909        ..      LDR      r1,[sp,#0x24]
        0x0000dff4:    981c        ..      LDR      r0,[sp,#0x70]
        0x0000dff6:    4408        .D      ADD      r0,r0,r1
        0x0000dff8:    901c        ..      STR      r0,[sp,#0x70]
        0x0000dffa:    9913        ..      LDR      r1,[sp,#0x4c]
        0x0000dffc:    9814        ..      LDR      r0,[sp,#0x50]
        0x0000dffe:    4408        .D      ADD      r0,r0,r1
        0x0000e000:    9014        ..      STR      r0,[sp,#0x50]
        0x0000e002:    2000        .       MOVS     r0,#0
        0x0000e004:    9013        ..      STR      r0,[sp,#0x4c]
        0x0000e006:    e7ff        ..      B        0xe008 ; am_util_stdio_vsprintf + 684
        0x0000e008:    e7ff        ..      B        0xe00a ; am_util_stdio_vsprintf + 686
        0x0000e00a:    e1c2        ..      B        0xe392 ; am_util_stdio_vsprintf + 1590
        0x0000e00c:    2001        .       MOVS     r0,#1
        0x0000e00e:    f88d0041    ..A.    STRB     r0,[sp,#0x41]
        0x0000e012:    e7ff        ..      B        0xe014 ; am_util_stdio_vsprintf + 696
        0x0000e014:    f89d0040    ..@.    LDRB     r0,[sp,#0x40]
        0x0000e018:    07c0        ..      LSLS     r0,r0,#31
        0x0000e01a:    b160        `.      CBZ      r0,0xe036 ; am_util_stdio_vsprintf + 730
        0x0000e01c:    e7ff        ..      B        0xe01e ; am_util_stdio_vsprintf + 706
        0x0000e01e:    981d        ..      LDR      r0,[sp,#0x74]
        0x0000e020:    3007        .0      ADDS     r0,#7
        0x0000e022:    f0200007     ...    BIC      r0,r0,#7
        0x0000e026:    f1000108    ....    ADD      r1,r0,#8
        0x0000e02a:    911d        ..      STR      r1,[sp,#0x74]
        0x0000e02c:    6801        .h      LDR      r1,[r0,#0]
        0x0000e02e:    6840        @h      LDR      r0,[r0,#4]
        0x0000e030:    9107        ..      STR      r1,[sp,#0x1c]
        0x0000e032:    9008        ..      STR      r0,[sp,#0x20]
        0x0000e034:    e007        ..      B        0xe046 ; am_util_stdio_vsprintf + 746
        0x0000e036:    981d        ..      LDR      r0,[sp,#0x74]
        0x0000e038:    1d01        ..      ADDS     r1,r0,#4
        0x0000e03a:    911d        ..      STR      r1,[sp,#0x74]
        0x0000e03c:    6801        .h      LDR      r1,[r0,#0]
        0x0000e03e:    2000        .       MOVS     r0,#0
        0x0000e040:    9107        ..      STR      r1,[sp,#0x1c]
        0x0000e042:    9008        ..      STR      r0,[sp,#0x20]
        0x0000e044:    e7ff        ..      B        0xe046 ; am_util_stdio_vsprintf + 746
        0x0000e046:    9907        ..      LDR      r1,[sp,#0x1c]
        0x0000e048:    9808        ..      LDR      r0,[sp,#0x20]
        0x0000e04a:    9118        ..      STR      r1,[sp,#0x60]
        0x0000e04c:    9019        ..      STR      r0,[sp,#0x64]
        0x0000e04e:    9813        ..      LDR      r0,[sp,#0x4c]
        0x0000e050:    b318        ..      CBZ      r0,0xe09a ; am_util_stdio_vsprintf + 830
        0x0000e052:    e7ff        ..      B        0xe054 ; am_util_stdio_vsprintf + 760
        0x0000e054:    9818        ..      LDR      r0,[sp,#0x60]
        0x0000e056:    9919        ..      LDR      r1,[sp,#0x64]
        0x0000e058:    f000fe1a    ....    BL       ndigits_in_hex ; 0xec90
        0x0000e05c:    4601        .F      MOV      r1,r0
        0x0000e05e:    9813        ..      LDR      r0,[sp,#0x4c]
        0x0000e060:    1a40        @.      SUBS     r0,r0,r1
        0x0000e062:    9013        ..      STR      r0,[sp,#0x4c]
        0x0000e064:    981c        ..      LDR      r0,[sp,#0x70]
        0x0000e066:    f89d1042    ..B.    LDRB     r1,[sp,#0x42]
        0x0000e06a:    9a13        ..      LDR      r2,[sp,#0x4c]
        0x0000e06c:    f000fe66    ..f.    BL       padbuffer ; 0xed3c
        0x0000e070:    9013        ..      STR      r0,[sp,#0x4c]
        0x0000e072:    981c        ..      LDR      r0,[sp,#0x70]
        0x0000e074:    b118        ..      CBZ      r0,0xe07e ; am_util_stdio_vsprintf + 802
        0x0000e076:    e7ff        ..      B        0xe078 ; am_util_stdio_vsprintf + 796
        0x0000e078:    9813        ..      LDR      r0,[sp,#0x4c]
        0x0000e07a:    9006        ..      STR      r0,[sp,#0x18]
        0x0000e07c:    e002        ..      B        0xe084 ; am_util_stdio_vsprintf + 808
        0x0000e07e:    2000        .       MOVS     r0,#0
        0x0000e080:    9006        ..      STR      r0,[sp,#0x18]
        0x0000e082:    e7ff        ..      B        0xe084 ; am_util_stdio_vsprintf + 808
        0x0000e084:    9906        ..      LDR      r1,[sp,#0x18]
        0x0000e086:    981c        ..      LDR      r0,[sp,#0x70]
        0x0000e088:    4408        .D      ADD      r0,r0,r1
        0x0000e08a:    901c        ..      STR      r0,[sp,#0x70]
        0x0000e08c:    9913        ..      LDR      r1,[sp,#0x4c]
        0x0000e08e:    9814        ..      LDR      r0,[sp,#0x50]
        0x0000e090:    4408        .D      ADD      r0,r0,r1
        0x0000e092:    9014        ..      STR      r0,[sp,#0x50]
        0x0000e094:    2000        .       MOVS     r0,#0
        0x0000e096:    9013        ..      STR      r0,[sp,#0x4c]
        0x0000e098:    e7ff        ..      B        0xe09a ; am_util_stdio_vsprintf + 830
        0x0000e09a:    9818        ..      LDR      r0,[sp,#0x60]
        0x0000e09c:    9919        ..      LDR      r1,[sp,#0x64]
        0x0000e09e:    9a1c        ..      LDR      r2,[sp,#0x70]
        0x0000e0a0:    f89d3041    ..A0    LDRB     r3,[sp,#0x41]
        0x0000e0a4:    f0030301    ....    AND      r3,r3,#1
        0x0000e0a8:    f000fef0    ....    BL       uint64_to_hexstr ; 0xee8c
        0x0000e0ac:    9012        ..      STR      r0,[sp,#0x48]
        0x0000e0ae:    981c        ..      LDR      r0,[sp,#0x70]
        0x0000e0b0:    b128        (.      CBZ      r0,0xe0be ; am_util_stdio_vsprintf + 866
        0x0000e0b2:    e7ff        ..      B        0xe0b4 ; am_util_stdio_vsprintf + 856
        0x0000e0b4:    9912        ..      LDR      r1,[sp,#0x48]
        0x0000e0b6:    981c        ..      LDR      r0,[sp,#0x70]
        0x0000e0b8:    4408        .D      ADD      r0,r0,r1
        0x0000e0ba:    901c        ..      STR      r0,[sp,#0x70]
        0x0000e0bc:    e7ff        ..      B        0xe0be ; am_util_stdio_vsprintf + 866
        0x0000e0be:    9912        ..      LDR      r1,[sp,#0x48]
        0x0000e0c0:    9814        ..      LDR      r0,[sp,#0x50]
        0x0000e0c2:    4408        .D      ADD      r0,r0,r1
        0x0000e0c4:    9014        ..      STR      r0,[sp,#0x50]
        0x0000e0c6:    e164        d.      B        0xe392 ; am_util_stdio_vsprintf + 1590
        0x0000e0c8:    f89d0040    ..@.    LDRB     r0,[sp,#0x40]
        0x0000e0cc:    07c0        ..      LSLS     r0,r0,#31
        0x0000e0ce:    b160        `.      CBZ      r0,0xe0ea ; am_util_stdio_vsprintf + 910
        0x0000e0d0:    e7ff        ..      B        0xe0d2 ; am_util_stdio_vsprintf + 886
        0x0000e0d2:    981d        ..      LDR      r0,[sp,#0x74]
        0x0000e0d4:    3007        .0      ADDS     r0,#7
        0x0000e0d6:    f0200007     ...    BIC      r0,r0,#7
        0x0000e0da:    f1000108    ....    ADD      r1,r0,#8
        0x0000e0de:    911d        ..      STR      r1,[sp,#0x74]
        0x0000e0e0:    6801        .h      LDR      r1,[r0,#0]
        0x0000e0e2:    6840        @h      LDR      r0,[r0,#4]
        0x0000e0e4:    9104        ..      STR      r1,[sp,#0x10]
        0x0000e0e6:    9005        ..      STR      r0,[sp,#0x14]
        0x0000e0e8:    e007        ..      B        0xe0fa ; am_util_stdio_vsprintf + 926
        0x0000e0ea:    981d        ..      LDR      r0,[sp,#0x74]
        0x0000e0ec:    1d01        ..      ADDS     r1,r0,#4
        0x0000e0ee:    911d        ..      STR      r1,[sp,#0x74]
        0x0000e0f0:    6801        .h      LDR      r1,[r0,#0]
        0x0000e0f2:    2000        .       MOVS     r0,#0
        0x0000e0f4:    9104        ..      STR      r1,[sp,#0x10]
        0x0000e0f6:    9005        ..      STR      r0,[sp,#0x14]
        0x0000e0f8:    e7ff        ..      B        0xe0fa ; am_util_stdio_vsprintf + 926
        0x0000e0fa:    9904        ..      LDR      r1,[sp,#0x10]
        0x0000e0fc:    9805        ..      LDR      r0,[sp,#0x14]
        0x0000e0fe:    9118        ..      STR      r1,[sp,#0x60]
        0x0000e100:    9019        ..      STR      r0,[sp,#0x64]
        0x0000e102:    9813        ..      LDR      r0,[sp,#0x4c]
        0x0000e104:    b318        ..      CBZ      r0,0xe14e ; am_util_stdio_vsprintf + 1010
        0x0000e106:    e7ff        ..      B        0xe108 ; am_util_stdio_vsprintf + 940
        0x0000e108:    9818        ..      LDR      r0,[sp,#0x60]
        0x0000e10a:    9919        ..      LDR      r1,[sp,#0x64]
        0x0000e10c:    f000fdf8    ....    BL       ndigits_in_u64 ; 0xed00
        0x0000e110:    4601        .F      MOV      r1,r0
        0x0000e112:    9813        ..      LDR      r0,[sp,#0x4c]
        0x0000e114:    1a40        @.      SUBS     r0,r0,r1
        0x0000e116:    9013        ..      STR      r0,[sp,#0x4c]
        0x0000e118:    981c        ..      LDR      r0,[sp,#0x70]
        0x0000e11a:    f89d1042    ..B.    LDRB     r1,[sp,#0x42]
        0x0000e11e:    9a13        ..      LDR      r2,[sp,#0x4c]
        0x0000e120:    f000fe0c    ....    BL       padbuffer ; 0xed3c
        0x0000e124:    9013        ..      STR      r0,[sp,#0x4c]
        0x0000e126:    981c        ..      LDR      r0,[sp,#0x70]
        0x0000e128:    b118        ..      CBZ      r0,0xe132 ; am_util_stdio_vsprintf + 982
        0x0000e12a:    e7ff        ..      B        0xe12c ; am_util_stdio_vsprintf + 976
        0x0000e12c:    9813        ..      LDR      r0,[sp,#0x4c]
        0x0000e12e:    9003        ..      STR      r0,[sp,#0xc]
        0x0000e130:    e002        ..      B        0xe138 ; am_util_stdio_vsprintf + 988
        0x0000e132:    2000        .       MOVS     r0,#0
        0x0000e134:    9003        ..      STR      r0,[sp,#0xc]
        0x0000e136:    e7ff        ..      B        0xe138 ; am_util_stdio_vsprintf + 988
        0x0000e138:    9903        ..      LDR      r1,[sp,#0xc]
        0x0000e13a:    981c        ..      LDR      r0,[sp,#0x70]
        0x0000e13c:    4408        .D      ADD      r0,r0,r1
        0x0000e13e:    901c        ..      STR      r0,[sp,#0x70]
        0x0000e140:    9913        ..      LDR      r1,[sp,#0x4c]
        0x0000e142:    9814        ..      LDR      r0,[sp,#0x50]
        0x0000e144:    4408        .D      ADD      r0,r0,r1
        0x0000e146:    9014        ..      STR      r0,[sp,#0x50]
        0x0000e148:    2000        .       MOVS     r0,#0
        0x0000e14a:    9013        ..      STR      r0,[sp,#0x4c]
        0x0000e14c:    e7ff        ..      B        0xe14e ; am_util_stdio_vsprintf + 1010
        0x0000e14e:    9818        ..      LDR      r0,[sp,#0x60]
        0x0000e150:    9919        ..      LDR      r1,[sp,#0x64]
        0x0000e152:    9a1c        ..      LDR      r2,[sp,#0x70]
        0x0000e154:    f000fefa    ....    BL       uint64_to_str ; 0xef4c
        0x0000e158:    9012        ..      STR      r0,[sp,#0x48]
        0x0000e15a:    981c        ..      LDR      r0,[sp,#0x70]
        0x0000e15c:    b128        (.      CBZ      r0,0xe16a ; am_util_stdio_vsprintf + 1038
        0x0000e15e:    e7ff        ..      B        0xe160 ; am_util_stdio_vsprintf + 1028
        0x0000e160:    9912        ..      LDR      r1,[sp,#0x48]
        0x0000e162:    981c        ..      LDR      r0,[sp,#0x70]
        0x0000e164:    4408        .D      ADD      r0,r0,r1
        0x0000e166:    901c        ..      STR      r0,[sp,#0x70]
        0x0000e168:    e7ff        ..      B        0xe16a ; am_util_stdio_vsprintf + 1038
        0x0000e16a:    9912        ..      LDR      r1,[sp,#0x48]
        0x0000e16c:    9814        ..      LDR      r0,[sp,#0x50]
        0x0000e16e:    4408        .D      ADD      r0,r0,r1
        0x0000e170:    9014        ..      STR      r0,[sp,#0x50]
        0x0000e172:    e10e        ..      B        0xe392 ; am_util_stdio_vsprintf + 1590
        0x0000e174:    f89d0040    ..@.    LDRB     r0,[sp,#0x40]
        0x0000e178:    07c0        ..      LSLS     r0,r0,#31
        0x0000e17a:    b160        `.      CBZ      r0,0xe196 ; am_util_stdio_vsprintf + 1082
        0x0000e17c:    e7ff        ..      B        0xe17e ; am_util_stdio_vsprintf + 1058
        0x0000e17e:    981d        ..      LDR      r0,[sp,#0x74]
        0x0000e180:    3007        .0      ADDS     r0,#7
        0x0000e182:    f0200007     ...    BIC      r0,r0,#7
        0x0000e186:    f1000108    ....    ADD      r1,r0,#8
        0x0000e18a:    911d        ..      STR      r1,[sp,#0x74]
        0x0000e18c:    6801        .h      LDR      r1,[r0,#0]
        0x0000e18e:    6840        @h      LDR      r0,[r0,#4]
        0x0000e190:    9101        ..      STR      r1,[sp,#4]
        0x0000e192:    9002        ..      STR      r0,[sp,#8]
        0x0000e194:    e007        ..      B        0xe1a6 ; am_util_stdio_vsprintf + 1098
        0x0000e196:    981d        ..      LDR      r0,[sp,#0x74]
        0x0000e198:    1d01        ..      ADDS     r1,r0,#4
        0x0000e19a:    911d        ..      STR      r1,[sp,#0x74]
        0x0000e19c:    6801        .h      LDR      r1,[r0,#0]
        0x0000e19e:    17c8        ..      ASRS     r0,r1,#31
        0x0000e1a0:    9101        ..      STR      r1,[sp,#4]
        0x0000e1a2:    9002        ..      STR      r0,[sp,#8]
        0x0000e1a4:    e7ff        ..      B        0xe1a6 ; am_util_stdio_vsprintf + 1098
        0x0000e1a6:    9901        ..      LDR      r1,[sp,#4]
        0x0000e1a8:    9802        ..      LDR      r0,[sp,#8]
        0x0000e1aa:    9116        ..      STR      r1,[sp,#0x58]
        0x0000e1ac:    9017        ..      STR      r0,[sp,#0x5c]
        0x0000e1ae:    9817        ..      LDR      r0,[sp,#0x5c]
        0x0000e1b0:    f1b03fff    ...?    CMP      r0,#0xffffffff
        0x0000e1b4:    dc0c        ..      BGT      0xe1d0 ; am_util_stdio_vsprintf + 1140
        0x0000e1b6:    e7ff        ..      B        0xe1b8 ; am_util_stdio_vsprintf + 1116
        0x0000e1b8:    9816        ..      LDR      r0,[sp,#0x58]
        0x0000e1ba:    9a17        ..      LDR      r2,[sp,#0x5c]
        0x0000e1bc:    4241        AB      RSBS     r1,r0,#0
        0x0000e1be:    f04f0000    O...    MOV      r0,#0
        0x0000e1c2:    4190        .A      SBCS     r0,r0,r2
        0x0000e1c4:    9118        ..      STR      r1,[sp,#0x60]
        0x0000e1c6:    9019        ..      STR      r0,[sp,#0x64]
        0x0000e1c8:    2001        .       MOVS     r0,#1
        0x0000e1ca:    f88d003f    ..?.    STRB     r0,[sp,#0x3f]
        0x0000e1ce:    e007        ..      B        0xe1e0 ; am_util_stdio_vsprintf + 1156
        0x0000e1d0:    9816        ..      LDR      r0,[sp,#0x58]
        0x0000e1d2:    9917        ..      LDR      r1,[sp,#0x5c]
        0x0000e1d4:    9119        ..      STR      r1,[sp,#0x64]
        0x0000e1d6:    9018        ..      STR      r0,[sp,#0x60]
        0x0000e1d8:    2000        .       MOVS     r0,#0
        0x0000e1da:    f88d003f    ..?.    STRB     r0,[sp,#0x3f]
        0x0000e1de:    e7ff        ..      B        0xe1e0 ; am_util_stdio_vsprintf + 1156
        0x0000e1e0:    9813        ..      LDR      r0,[sp,#0x4c]
        0x0000e1e2:    2800        .(      CMP      r0,#0
        0x0000e1e4:    d055        U.      BEQ      0xe292 ; am_util_stdio_vsprintf + 1334
        0x0000e1e6:    e7ff        ..      B        0xe1e8 ; am_util_stdio_vsprintf + 1164
        0x0000e1e8:    9818        ..      LDR      r0,[sp,#0x60]
        0x0000e1ea:    9919        ..      LDR      r1,[sp,#0x64]
        0x0000e1ec:    f000fd70    ..p.    BL       ndigits_in_i64 ; 0xecd0
        0x0000e1f0:    4601        .F      MOV      r1,r0
        0x0000e1f2:    9813        ..      LDR      r0,[sp,#0x4c]
        0x0000e1f4:    1a40        @.      SUBS     r0,r0,r1
        0x0000e1f6:    9013        ..      STR      r0,[sp,#0x4c]
        0x0000e1f8:    f89d003f    ..?.    LDRB     r0,[sp,#0x3f]
        0x0000e1fc:    07c0        ..      LSLS     r0,r0,#31
        0x0000e1fe:    b1b0        ..      CBZ      r0,0xe22e ; am_util_stdio_vsprintf + 1234
        0x0000e200:    e7ff        ..      B        0xe202 ; am_util_stdio_vsprintf + 1190
        0x0000e202:    9813        ..      LDR      r0,[sp,#0x4c]
        0x0000e204:    3801        .8      SUBS     r0,#1
        0x0000e206:    9013        ..      STR      r0,[sp,#0x4c]
        0x0000e208:    f89d0042    ..B.    LDRB     r0,[sp,#0x42]
        0x0000e20c:    2830        0(      CMP      r0,#0x30
        0x0000e20e:    d10d        ..      BNE      0xe22c ; am_util_stdio_vsprintf + 1232
        0x0000e210:    e7ff        ..      B        0xe212 ; am_util_stdio_vsprintf + 1206
        0x0000e212:    981c        ..      LDR      r0,[sp,#0x70]
        0x0000e214:    b130        0.      CBZ      r0,0xe224 ; am_util_stdio_vsprintf + 1224
        0x0000e216:    e7ff        ..      B        0xe218 ; am_util_stdio_vsprintf + 1212
        0x0000e218:    991c        ..      LDR      r1,[sp,#0x70]
        0x0000e21a:    1c48        H.      ADDS     r0,r1,#1
        0x0000e21c:    901c        ..      STR      r0,[sp,#0x70]
        0x0000e21e:    202d        -       MOVS     r0,#0x2d
        0x0000e220:    7008        .p      STRB     r0,[r1,#0]
        0x0000e222:    e7ff        ..      B        0xe224 ; am_util_stdio_vsprintf + 1224
        0x0000e224:    9814        ..      LDR      r0,[sp,#0x50]
        0x0000e226:    3001        .0      ADDS     r0,#1
        0x0000e228:    9014        ..      STR      r0,[sp,#0x50]
        0x0000e22a:    e7ff        ..      B        0xe22c ; am_util_stdio_vsprintf + 1232
        0x0000e22c:    e7ff        ..      B        0xe22e ; am_util_stdio_vsprintf + 1234
        0x0000e22e:    981c        ..      LDR      r0,[sp,#0x70]
        0x0000e230:    f89d1042    ..B.    LDRB     r1,[sp,#0x42]
        0x0000e234:    9a13        ..      LDR      r2,[sp,#0x4c]
        0x0000e236:    f000fd81    ....    BL       padbuffer ; 0xed3c
        0x0000e23a:    9013        ..      STR      r0,[sp,#0x4c]
        0x0000e23c:    981c        ..      LDR      r0,[sp,#0x70]
        0x0000e23e:    b118        ..      CBZ      r0,0xe248 ; am_util_stdio_vsprintf + 1260
        0x0000e240:    e7ff        ..      B        0xe242 ; am_util_stdio_vsprintf + 1254
        0x0000e242:    9813        ..      LDR      r0,[sp,#0x4c]
        0x0000e244:    9000        ..      STR      r0,[sp,#0]
        0x0000e246:    e002        ..      B        0xe24e ; am_util_stdio_vsprintf + 1266
        0x0000e248:    2000        .       MOVS     r0,#0
        0x0000e24a:    9000        ..      STR      r0,[sp,#0]
        0x0000e24c:    e7ff        ..      B        0xe24e ; am_util_stdio_vsprintf + 1266
        0x0000e24e:    9900        ..      LDR      r1,[sp,#0]
        0x0000e250:    981c        ..      LDR      r0,[sp,#0x70]
        0x0000e252:    4408        .D      ADD      r0,r0,r1
        0x0000e254:    901c        ..      STR      r0,[sp,#0x70]
        0x0000e256:    9913        ..      LDR      r1,[sp,#0x4c]
        0x0000e258:    9814        ..      LDR      r0,[sp,#0x50]
        0x0000e25a:    4408        .D      ADD      r0,r0,r1
        0x0000e25c:    9014        ..      STR      r0,[sp,#0x50]
        0x0000e25e:    2000        .       MOVS     r0,#0
        0x0000e260:    9013        ..      STR      r0,[sp,#0x4c]
        0x0000e262:    f89d003f    ..?.    LDRB     r0,[sp,#0x3f]
        0x0000e266:    07c0        ..      LSLS     r0,r0,#31
        0x0000e268:    b190        ..      CBZ      r0,0xe290 ; am_util_stdio_vsprintf + 1332
        0x0000e26a:    e7ff        ..      B        0xe26c ; am_util_stdio_vsprintf + 1296
        0x0000e26c:    f89d0042    ..B.    LDRB     r0,[sp,#0x42]
        0x0000e270:    2820         (      CMP      r0,#0x20
        0x0000e272:    d10d        ..      BNE      0xe290 ; am_util_stdio_vsprintf + 1332
        0x0000e274:    e7ff        ..      B        0xe276 ; am_util_stdio_vsprintf + 1306
        0x0000e276:    981c        ..      LDR      r0,[sp,#0x70]
        0x0000e278:    b130        0.      CBZ      r0,0xe288 ; am_util_stdio_vsprintf + 1324
        0x0000e27a:    e7ff        ..      B        0xe27c ; am_util_stdio_vsprintf + 1312
        0x0000e27c:    991c        ..      LDR      r1,[sp,#0x70]
        0x0000e27e:    1c48        H.      ADDS     r0,r1,#1
        0x0000e280:    901c        ..      STR      r0,[sp,#0x70]
        0x0000e282:    202d        -       MOVS     r0,#0x2d
        0x0000e284:    7008        .p      STRB     r0,[r1,#0]
        0x0000e286:    e7ff        ..      B        0xe288 ; am_util_stdio_vsprintf + 1324
        0x0000e288:    9814        ..      LDR      r0,[sp,#0x50]
        0x0000e28a:    3001        .0      ADDS     r0,#1
        0x0000e28c:    9014        ..      STR      r0,[sp,#0x50]
        0x0000e28e:    e7ff        ..      B        0xe290 ; am_util_stdio_vsprintf + 1332
        0x0000e290:    e012        ..      B        0xe2b8 ; am_util_stdio_vsprintf + 1372
        0x0000e292:    f89d003f    ..?.    LDRB     r0,[sp,#0x3f]
        0x0000e296:    07c0        ..      LSLS     r0,r0,#31
        0x0000e298:    b168        h.      CBZ      r0,0xe2b6 ; am_util_stdio_vsprintf + 1370
        0x0000e29a:    e7ff        ..      B        0xe29c ; am_util_stdio_vsprintf + 1344
        0x0000e29c:    981c        ..      LDR      r0,[sp,#0x70]
        0x0000e29e:    b130        0.      CBZ      r0,0xe2ae ; am_util_stdio_vsprintf + 1362
        0x0000e2a0:    e7ff        ..      B        0xe2a2 ; am_util_stdio_vsprintf + 1350
        0x0000e2a2:    991c        ..      LDR      r1,[sp,#0x70]
        0x0000e2a4:    1c48        H.      ADDS     r0,r1,#1
        0x0000e2a6:    901c        ..      STR      r0,[sp,#0x70]
        0x0000e2a8:    202d        -       MOVS     r0,#0x2d
        0x0000e2aa:    7008        .p      STRB     r0,[r1,#0]
        0x0000e2ac:    e7ff        ..      B        0xe2ae ; am_util_stdio_vsprintf + 1362
        0x0000e2ae:    9814        ..      LDR      r0,[sp,#0x50]
        0x0000e2b0:    3001        .0      ADDS     r0,#1
        0x0000e2b2:    9014        ..      STR      r0,[sp,#0x50]
        0x0000e2b4:    e7ff        ..      B        0xe2b6 ; am_util_stdio_vsprintf + 1370
        0x0000e2b6:    e7ff        ..      B        0xe2b8 ; am_util_stdio_vsprintf + 1372
        0x0000e2b8:    9818        ..      LDR      r0,[sp,#0x60]
        0x0000e2ba:    9919        ..      LDR      r1,[sp,#0x64]
        0x0000e2bc:    9a1c        ..      LDR      r2,[sp,#0x70]
        0x0000e2be:    f000fe45    ..E.    BL       uint64_to_str ; 0xef4c
        0x0000e2c2:    9012        ..      STR      r0,[sp,#0x48]
        0x0000e2c4:    981c        ..      LDR      r0,[sp,#0x70]
        0x0000e2c6:    b128        (.      CBZ      r0,0xe2d4 ; am_util_stdio_vsprintf + 1400
        0x0000e2c8:    e7ff        ..      B        0xe2ca ; am_util_stdio_vsprintf + 1390
        0x0000e2ca:    9912        ..      LDR      r1,[sp,#0x48]
        0x0000e2cc:    981c        ..      LDR      r0,[sp,#0x70]
        0x0000e2ce:    4408        .D      ADD      r0,r0,r1
        0x0000e2d0:    901c        ..      STR      r0,[sp,#0x70]
        0x0000e2d2:    e7ff        ..      B        0xe2d4 ; am_util_stdio_vsprintf + 1400
        0x0000e2d4:    9912        ..      LDR      r1,[sp,#0x48]
        0x0000e2d6:    9814        ..      LDR      r0,[sp,#0x50]
        0x0000e2d8:    4408        .D      ADD      r0,r0,r1
        0x0000e2da:    9014        ..      STR      r0,[sp,#0x50]
        0x0000e2dc:    e059        Y.      B        0xe392 ; am_util_stdio_vsprintf + 1590
        0x0000e2de:    981c        ..      LDR      r0,[sp,#0x70]
        0x0000e2e0:    2800        .(      CMP      r0,#0
        0x0000e2e2:    d047        G.      BEQ      0xe374 ; am_util_stdio_vsprintf + 1560
        0x0000e2e4:    e7ff        ..      B        0xe2e6 ; am_util_stdio_vsprintf + 1418
        0x0000e2e6:    981d        ..      LDR      r0,[sp,#0x74]
        0x0000e2e8:    3007        .0      ADDS     r0,#7
        0x0000e2ea:    f0200007     ...    BIC      r0,r0,#7
        0x0000e2ee:    f1000108    ....    ADD      r1,r0,#8
        0x0000e2f2:    911d        ..      STR      r1,[sp,#0x74]
        0x0000e2f4:    ed900b00    ....    VLDR     d0,[r0,#0]
        0x0000e2f8:    ec510b10    Q...    VMOV     r0,r1,d0
        0x0000e2fc:    f000ff08    ....    BL       __aeabi_d2f ; 0xf110
        0x0000e300:    900d        ..      STR      r0,[sp,#0x34]
        0x0000e302:    991c        ..      LDR      r1,[sp,#0x70]
        0x0000e304:    2014        .       MOVS     r0,#0x14
        0x0000e306:    6008        .`      STR      r0,[r1,#0]
        0x0000e308:    ed9d0a0d    ....    VLDR     s0,[sp,#0x34]
        0x0000e30c:    981c        ..      LDR      r0,[sp,#0x70]
        0x0000e30e:    9911        ..      LDR      r1,[sp,#0x44]
        0x0000e310:    f000f946    ..F.    BL       ftoa ; 0xe5a0
        0x0000e314:    9012        ..      STR      r0,[sp,#0x48]
        0x0000e316:    9812        ..      LDR      r0,[sp,#0x48]
        0x0000e318:    f1b03fff    ...?    CMP      r0,#0xffffffff
        0x0000e31c:    dc21        !.      BGT      0xe362 ; am_util_stdio_vsprintf + 1542
        0x0000e31e:    e7ff        ..      B        0xe320 ; am_util_stdio_vsprintf + 1476
        0x0000e320:    9812        ..      LDR      r0,[sp,#0x48]
        0x0000e322:    3001        .0      ADDS     r0,#1
        0x0000e324:    b930        0.      CBNZ     r0,0xe334 ; am_util_stdio_vsprintf + 1496
        0x0000e326:    e7ff        ..      B        0xe328 ; am_util_stdio_vsprintf + 1484
        0x0000e328:    f6426030    B.0`    MOV      r0,#0x2e30
        0x0000e32c:    f2c00030    ..0.    MOVT     r0,#0x30
        0x0000e330:    900c        ..      STR      r0,[sp,#0x30]
        0x0000e332:    e010        ..      B        0xe356 ; am_util_stdio_vsprintf + 1530
        0x0000e334:    9812        ..      LDR      r0,[sp,#0x48]
        0x0000e336:    3002        .0      ADDS     r0,#2
        0x0000e338:    b930        0.      CBNZ     r0,0xe348 ; am_util_stdio_vsprintf + 1516
        0x0000e33a:    e7ff        ..      B        0xe33c ; am_util_stdio_vsprintf + 1504
        0x0000e33c:    f6426023    B.#`    MOV      r0,#0x2e23
        0x0000e340:    f2c00023    ..#.    MOVT     r0,#0x23
        0x0000e344:    900c        ..      STR      r0,[sp,#0x30]
        0x0000e346:    e005        ..      B        0xe354 ; am_util_stdio_vsprintf + 1528
        0x0000e348:    f642603f    B.?`    MOV      r0,#0x2e3f
        0x0000e34c:    f2c0003f    ..?.    MOVT     r0,#0x3f
        0x0000e350:    900c        ..      STR      r0,[sp,#0x30]
        0x0000e352:    e7ff        ..      B        0xe354 ; am_util_stdio_vsprintf + 1528
        0x0000e354:    e7ff        ..      B        0xe356 ; am_util_stdio_vsprintf + 1530
        0x0000e356:    980c        ..      LDR      r0,[sp,#0x30]
        0x0000e358:    991c        ..      LDR      r1,[sp,#0x70]
        0x0000e35a:    6008        .`      STR      r0,[r1,#0]
        0x0000e35c:    2003        .       MOVS     r0,#3
        0x0000e35e:    9012        ..      STR      r0,[sp,#0x48]
        0x0000e360:    e7ff        ..      B        0xe362 ; am_util_stdio_vsprintf + 1542
        0x0000e362:    9912        ..      LDR      r1,[sp,#0x48]
        0x0000e364:    9814        ..      LDR      r0,[sp,#0x50]
        0x0000e366:    4408        .D      ADD      r0,r0,r1
        0x0000e368:    9014        ..      STR      r0,[sp,#0x50]
        0x0000e36a:    9912        ..      LDR      r1,[sp,#0x48]
        0x0000e36c:    981c        ..      LDR      r0,[sp,#0x70]
        0x0000e36e:    4408        .D      ADD      r0,r0,r1
        0x0000e370:    901c        ..      STR      r0,[sp,#0x70]
        0x0000e372:    e7ff        ..      B        0xe374 ; am_util_stdio_vsprintf + 1560
        0x0000e374:    e00d        ..      B        0xe392 ; am_util_stdio_vsprintf + 1590
        0x0000e376:    981c        ..      LDR      r0,[sp,#0x70]
        0x0000e378:    b138        8.      CBZ      r0,0xe38a ; am_util_stdio_vsprintf + 1582
        0x0000e37a:    e7ff        ..      B        0xe37c ; am_util_stdio_vsprintf + 1568
        0x0000e37c:    981b        ..      LDR      r0,[sp,#0x6c]
        0x0000e37e:    7800        .x      LDRB     r0,[r0,#0]
        0x0000e380:    991c        ..      LDR      r1,[sp,#0x70]
        0x0000e382:    1c4a        J.      ADDS     r2,r1,#1
        0x0000e384:    921c        ..      STR      r2,[sp,#0x70]
        0x0000e386:    7008        .p      STRB     r0,[r1,#0]
        0x0000e388:    e7ff        ..      B        0xe38a ; am_util_stdio_vsprintf + 1582
        0x0000e38a:    9814        ..      LDR      r0,[sp,#0x50]
        0x0000e38c:    3001        .0      ADDS     r0,#1
        0x0000e38e:    9014        ..      STR      r0,[sp,#0x50]
        0x0000e390:    e7ff        ..      B        0xe392 ; am_util_stdio_vsprintf + 1590
        0x0000e392:    981b        ..      LDR      r0,[sp,#0x6c]
        0x0000e394:    3001        .0      ADDS     r0,#1
        0x0000e396:    901b        ..      STR      r0,[sp,#0x6c]
        0x0000e398:    f7ffbce9    ....    B.W      0xdd6e ; am_util_stdio_vsprintf + 18
        0x0000e39c:    981c        ..      LDR      r0,[sp,#0x70]
        0x0000e39e:    b120         .      CBZ      r0,0xe3aa ; am_util_stdio_vsprintf + 1614
        0x0000e3a0:    e7ff        ..      B        0xe3a2 ; am_util_stdio_vsprintf + 1606
        0x0000e3a2:    991c        ..      LDR      r1,[sp,#0x70]
        0x0000e3a4:    2000        .       MOVS     r0,#0
        0x0000e3a6:    7008        .p      STRB     r0,[r1,#0]
        0x0000e3a8:    e7ff        ..      B        0xe3aa ; am_util_stdio_vsprintf + 1614
        0x0000e3aa:    9814        ..      LDR      r0,[sp,#0x50]
        0x0000e3ac:    b01e        ..      ADD      sp,sp,#0x78
        0x0000e3ae:    bd80        ..      POP      {r7,pc}
    clear_rx_buf
        0x0000e3b0:    b081        ..      SUB      sp,sp,#4
        0x0000e3b2:    2000        .       MOVS     r0,#0
        0x0000e3b4:    9000        ..      STR      r0,[sp,#0]
        0x0000e3b6:    e7ff        ..      B        0xe3b8 ; clear_rx_buf + 8
        0x0000e3b8:    9900        ..      LDR      r1,[sp,#0]
        0x0000e3ba:    2000        .       MOVS     r0,#0
        0x0000e3bc:    ebb02f91    .../    CMP      r0,r1,LSR #10
        0x0000e3c0:    d10c        ..      BNE      0xe3dc ; clear_rx_buf + 44
        0x0000e3c2:    e7ff        ..      B        0xe3c4 ; clear_rx_buf + 20
        0x0000e3c4:    9a00        ..      LDR      r2,[sp,#0]
        0x0000e3c6:    f6442100    D..!    MOVW     r1,#0x4a00
        0x0000e3ca:    f2c10100    ....    MOVT     r1,#0x1000
        0x0000e3ce:    20ee        .       MOVS     r0,#0xee
        0x0000e3d0:    5488        .T      STRB     r0,[r1,r2]
        0x0000e3d2:    e7ff        ..      B        0xe3d4 ; clear_rx_buf + 36
        0x0000e3d4:    9800        ..      LDR      r0,[sp,#0]
        0x0000e3d6:    3001        .0      ADDS     r0,#1
        0x0000e3d8:    9000        ..      STR      r0,[sp,#0]
        0x0000e3da:    e7ed        ..      B        0xe3b8 ; clear_rx_buf + 8
        0x0000e3dc:    b001        ..      ADD      sp,sp,#4
        0x0000e3de:    4770        pG      BX       lr
    decstr_to_int
        0x0000e3e0:    b087        ..      SUB      sp,sp,#0x1c
        0x0000e3e2:    9006        ..      STR      r0,[sp,#0x18]
        0x0000e3e4:    9105        ..      STR      r1,[sp,#0x14]
        0x0000e3e6:    2000        .       MOVS     r0,#0
        0x0000e3e8:    f88d0013    ....    STRB     r0,[sp,#0x13]
        0x0000e3ec:    9003        ..      STR      r0,[sp,#0xc]
        0x0000e3ee:    9002        ..      STR      r0,[sp,#8]
        0x0000e3f0:    9806        ..      LDR      r0,[sp,#0x18]
        0x0000e3f2:    7800        .x      LDRB     r0,[r0,#0]
        0x0000e3f4:    282d        -(      CMP      r0,#0x2d
        0x0000e3f6:    d10a        ..      BNE      0xe40e ; decstr_to_int + 46
        0x0000e3f8:    e7ff        ..      B        0xe3fa ; decstr_to_int + 26
        0x0000e3fa:    2001        .       MOVS     r0,#1
        0x0000e3fc:    f88d0013    ....    STRB     r0,[sp,#0x13]
        0x0000e400:    9806        ..      LDR      r0,[sp,#0x18]
        0x0000e402:    3001        .0      ADDS     r0,#1
        0x0000e404:    9006        ..      STR      r0,[sp,#0x18]
        0x0000e406:    9802        ..      LDR      r0,[sp,#8]
        0x0000e408:    3001        .0      ADDS     r0,#1
        0x0000e40a:    9002        ..      STR      r0,[sp,#8]
        0x0000e40c:    e7ff        ..      B        0xe40e ; decstr_to_int + 46
        0x0000e40e:    e7ff        ..      B        0xe410 ; decstr_to_int + 48
        0x0000e410:    9806        ..      LDR      r0,[sp,#0x18]
        0x0000e412:    7801        .x      LDRB     r1,[r0,#0]
        0x0000e414:    2000        .       MOVS     r0,#0
        0x0000e416:    2930        0)      CMP      r1,#0x30
        0x0000e418:    9001        ..      STR      r0,[sp,#4]
        0x0000e41a:    db08        ..      BLT      0xe42e ; decstr_to_int + 78
        0x0000e41c:    e7ff        ..      B        0xe41e ; decstr_to_int + 62
        0x0000e41e:    9806        ..      LDR      r0,[sp,#0x18]
        0x0000e420:    7801        .x      LDRB     r1,[r0,#0]
        0x0000e422:    2000        .       MOVS     r0,#0
        0x0000e424:    293a        :)      CMP      r1,#0x3a
        0x0000e426:    bfb8        ..      IT       LT
        0x0000e428:    2001        .       MOVLT    r0,#1
        0x0000e42a:    9001        ..      STR      r0,[sp,#4]
        0x0000e42c:    e7ff        ..      B        0xe42e ; decstr_to_int + 78
        0x0000e42e:    9801        ..      LDR      r0,[sp,#4]
        0x0000e430:    07c0        ..      LSLS     r0,r0,#31
        0x0000e432:    b190        ..      CBZ      r0,0xe45a ; decstr_to_int + 122
        0x0000e434:    e7ff        ..      B        0xe436 ; decstr_to_int + 86
        0x0000e436:    9802        ..      LDR      r0,[sp,#8]
        0x0000e438:    3001        .0      ADDS     r0,#1
        0x0000e43a:    9002        ..      STR      r0,[sp,#8]
        0x0000e43c:    9803        ..      LDR      r0,[sp,#0xc]
        0x0000e43e:    eb000080    ....    ADD      r0,r0,r0,LSL #2
        0x0000e442:    0040        @.      LSLS     r0,r0,#1
        0x0000e444:    9003        ..      STR      r0,[sp,#0xc]
        0x0000e446:    9806        ..      LDR      r0,[sp,#0x18]
        0x0000e448:    7800        .x      LDRB     r0,[r0,#0]
        0x0000e44a:    9903        ..      LDR      r1,[sp,#0xc]
        0x0000e44c:    4408        .D      ADD      r0,r0,r1
        0x0000e44e:    3830        08      SUBS     r0,r0,#0x30
        0x0000e450:    9003        ..      STR      r0,[sp,#0xc]
        0x0000e452:    9806        ..      LDR      r0,[sp,#0x18]
        0x0000e454:    3001        .0      ADDS     r0,#1
        0x0000e456:    9006        ..      STR      r0,[sp,#0x18]
        0x0000e458:    e7da        ..      B        0xe410 ; decstr_to_int + 48
        0x0000e45a:    9805        ..      LDR      r0,[sp,#0x14]
        0x0000e45c:    b120         .      CBZ      r0,0xe468 ; decstr_to_int + 136
        0x0000e45e:    e7ff        ..      B        0xe460 ; decstr_to_int + 128
        0x0000e460:    9802        ..      LDR      r0,[sp,#8]
        0x0000e462:    9905        ..      LDR      r1,[sp,#0x14]
        0x0000e464:    6008        .`      STR      r0,[r1,#0]
        0x0000e466:    e7ff        ..      B        0xe468 ; decstr_to_int + 136
        0x0000e468:    f89d0013    ....    LDRB     r0,[sp,#0x13]
        0x0000e46c:    07c0        ..      LSLS     r0,r0,#31
        0x0000e46e:    b120         .      CBZ      r0,0xe47a ; decstr_to_int + 154
        0x0000e470:    e7ff        ..      B        0xe472 ; decstr_to_int + 146
        0x0000e472:    9803        ..      LDR      r0,[sp,#0xc]
        0x0000e474:    4240        @B      RSBS     r0,r0,#0
        0x0000e476:    9000        ..      STR      r0,[sp,#0]
        0x0000e478:    e002        ..      B        0xe480 ; decstr_to_int + 160
        0x0000e47a:    9803        ..      LDR      r0,[sp,#0xc]
        0x0000e47c:    9000        ..      STR      r0,[sp,#0]
        0x0000e47e:    e7ff        ..      B        0xe480 ; decstr_to_int + 160
        0x0000e480:    9800        ..      LDR      r0,[sp,#0]
        0x0000e482:    b007        ..      ADD      sp,sp,#0x1c
        0x0000e484:    4770        pG      BX       lr
        0x0000e486:    0000        ..      MOVS     r0,r0
    divu64_10
        0x0000e488:    b08c        ..      SUB      sp,sp,#0x30
        0x0000e48a:    9109        ..      STR      r1,[sp,#0x24]
        0x0000e48c:    9008        ..      STR      r0,[sp,#0x20]
        0x0000e48e:    9809        ..      LDR      r0,[sp,#0x24]
        0x0000e490:    2800        .(      CMP      r0,#0
        0x0000e492:    d05b        [.      BEQ      0xe54c ; divu64_10 + 196
        0x0000e494:    e7ff        ..      B        0xe496 ; divu64_10 + 14
        0x0000e496:    9b08        ..      LDR      r3,[sp,#0x20]
        0x0000e498:    9a09        ..      LDR      r2,[sp,#0x24]
        0x0000e49a:    ea5f0052    _.R.    LSRS.W   r0,r2,#1
        0x0000e49e:    ea4f0133    O.3.    RRX      r1,r3
        0x0000e4a2:    089b        ..      LSRS     r3,r3,#2
        0x0000e4a4:    ea437382    C..s    ORR      r3,r3,r2,LSL #30
        0x0000e4a8:    18c9        ..      ADDS     r1,r1,r3
        0x0000e4aa:    eb400092    @...    ADC      r0,r0,r2,LSR #2
        0x0000e4ae:    9106        ..      STR      r1,[sp,#0x18]
        0x0000e4b0:    9007        ..      STR      r0,[sp,#0x1c]
        0x0000e4b2:    9906        ..      LDR      r1,[sp,#0x18]
        0x0000e4b4:    9807        ..      LDR      r0,[sp,#0x1c]
        0x0000e4b6:    090a        ..      LSRS     r2,r1,#4
        0x0000e4b8:    ea427200    B..r    ORR      r2,r2,r0,LSL #28
        0x0000e4bc:    1889        ..      ADDS     r1,r1,r2
        0x0000e4be:    eb401010    @...    ADC      r0,r0,r0,LSR #4
        0x0000e4c2:    9106        ..      STR      r1,[sp,#0x18]
        0x0000e4c4:    9007        ..      STR      r0,[sp,#0x1c]
        0x0000e4c6:    9906        ..      LDR      r1,[sp,#0x18]
        0x0000e4c8:    9807        ..      LDR      r0,[sp,#0x1c]
        0x0000e4ca:    0a0a        ..      LSRS     r2,r1,#8
        0x0000e4cc:    ea426200    B..b    ORR      r2,r2,r0,LSL #24
        0x0000e4d0:    1889        ..      ADDS     r1,r1,r2
        0x0000e4d2:    eb402010    @..     ADC      r0,r0,r0,LSR #8
        0x0000e4d6:    9106        ..      STR      r1,[sp,#0x18]
        0x0000e4d8:    9007        ..      STR      r0,[sp,#0x1c]
        0x0000e4da:    9906        ..      LDR      r1,[sp,#0x18]
        0x0000e4dc:    9807        ..      LDR      r0,[sp,#0x1c]
        0x0000e4de:    0c0a        ..      LSRS     r2,r1,#16
        0x0000e4e0:    ea424200    B..B    ORR      r2,r2,r0,LSL #16
        0x0000e4e4:    1889        ..      ADDS     r1,r1,r2
        0x0000e4e6:    eb404010    @..@    ADC      r0,r0,r0,LSR #16
        0x0000e4ea:    9106        ..      STR      r1,[sp,#0x18]
        0x0000e4ec:    9007        ..      STR      r0,[sp,#0x1c]
        0x0000e4ee:    9906        ..      LDR      r1,[sp,#0x18]
        0x0000e4f0:    9807        ..      LDR      r0,[sp,#0x1c]
        0x0000e4f2:    1809        ..      ADDS     r1,r1,r0
        0x0000e4f4:    f1400000    @...    ADC      r0,r0,#0
        0x0000e4f8:    9106        ..      STR      r1,[sp,#0x18]
        0x0000e4fa:    9007        ..      STR      r0,[sp,#0x1c]
        0x0000e4fc:    9806        ..      LDR      r0,[sp,#0x18]
        0x0000e4fe:    9907        ..      LDR      r1,[sp,#0x1c]
        0x0000e500:    08c0        ..      LSRS     r0,r0,#3
        0x0000e502:    ea407041    @.Ap    ORR      r0,r0,r1,LSL #29
        0x0000e506:    08c9        ..      LSRS     r1,r1,#3
        0x0000e508:    9107        ..      STR      r1,[sp,#0x1c]
        0x0000e50a:    9006        ..      STR      r0,[sp,#0x18]
        0x0000e50c:    9908        ..      LDR      r1,[sp,#0x20]
        0x0000e50e:    9809        ..      LDR      r0,[sp,#0x24]
        0x0000e510:    9a06        ..      LDR      r2,[sp,#0x18]
        0x0000e512:    f8ddc01c    ....    LDR      r12,[sp,#0x1c]
        0x0000e516:    230a        .#      MOVS     r3,#0xa
        0x0000e518:    fba23203    ...2    UMULL    r3,r2,r2,r3
        0x0000e51c:    eb0c0c8c    ....    ADD      r12,r12,r12,LSL #2
        0x0000e520:    eb02024c    ..L.    ADD      r2,r2,r12,LSL #1
        0x0000e524:    1ac9        ..      SUBS     r1,r1,r3
        0x0000e526:    4190        .A      SBCS     r0,r0,r2
        0x0000e528:    9104        ..      STR      r1,[sp,#0x10]
        0x0000e52a:    9005        ..      STR      r0,[sp,#0x14]
        0x0000e52c:    9906        ..      LDR      r1,[sp,#0x18]
        0x0000e52e:    9807        ..      LDR      r0,[sp,#0x1c]
        0x0000e530:    9b04        ..      LDR      r3,[sp,#0x10]
        0x0000e532:    9a05        ..      LDR      r2,[sp,#0x14]
        0x0000e534:    3306        .3      ADDS     r3,#6
        0x0000e536:    f1420200    B...    ADC      r2,r2,#0
        0x0000e53a:    091b        ..      LSRS     r3,r3,#4
        0x0000e53c:    ea437302    C..s    ORR      r3,r3,r2,LSL #28
        0x0000e540:    18c9        ..      ADDS     r1,r1,r3
        0x0000e542:    eb401012    @...    ADC      r0,r0,r2,LSR #4
        0x0000e546:    910a        ..      STR      r1,[sp,#0x28]
        0x0000e548:    900b        ..      STR      r0,[sp,#0x2c]
        0x0000e54a:    e025        %.      B        0xe598 ; divu64_10 + 272
        0x0000e54c:    9808        ..      LDR      r0,[sp,#0x20]
        0x0000e54e:    9001        ..      STR      r0,[sp,#4]
        0x0000e550:    9901        ..      LDR      r1,[sp,#4]
        0x0000e552:    0848        H.      LSRS     r0,r1,#1
        0x0000e554:    eb000091    ....    ADD      r0,r0,r1,LSR #2
        0x0000e558:    9003        ..      STR      r0,[sp,#0xc]
        0x0000e55a:    9803        ..      LDR      r0,[sp,#0xc]
        0x0000e55c:    eb001010    ....    ADD      r0,r0,r0,LSR #4
        0x0000e560:    9003        ..      STR      r0,[sp,#0xc]
        0x0000e562:    9803        ..      LDR      r0,[sp,#0xc]
        0x0000e564:    eb002010    ...     ADD      r0,r0,r0,LSR #8
        0x0000e568:    9003        ..      STR      r0,[sp,#0xc]
        0x0000e56a:    9803        ..      LDR      r0,[sp,#0xc]
        0x0000e56c:    eb004010    ...@    ADD      r0,r0,r0,LSR #16
        0x0000e570:    9003        ..      STR      r0,[sp,#0xc]
        0x0000e572:    9803        ..      LDR      r0,[sp,#0xc]
        0x0000e574:    08c0        ..      LSRS     r0,r0,#3
        0x0000e576:    9003        ..      STR      r0,[sp,#0xc]
        0x0000e578:    9801        ..      LDR      r0,[sp,#4]
        0x0000e57a:    9903        ..      LDR      r1,[sp,#0xc]
        0x0000e57c:    eb010181    ....    ADD      r1,r1,r1,LSL #2
        0x0000e580:    eba00041    ..A.    SUB      r0,r0,r1,LSL #1
        0x0000e584:    9002        ..      STR      r0,[sp,#8]
        0x0000e586:    9803        ..      LDR      r0,[sp,#0xc]
        0x0000e588:    9902        ..      LDR      r1,[sp,#8]
        0x0000e58a:    3106        .1      ADDS     r1,#6
        0x0000e58c:    eb001011    ....    ADD      r0,r0,r1,LSR #4
        0x0000e590:    2100        .!      MOVS     r1,#0
        0x0000e592:    910b        ..      STR      r1,[sp,#0x2c]
        0x0000e594:    900a        ..      STR      r0,[sp,#0x28]
        0x0000e596:    e7ff        ..      B        0xe598 ; divu64_10 + 272
        0x0000e598:    980a        ..      LDR      r0,[sp,#0x28]
        0x0000e59a:    990b        ..      LDR      r1,[sp,#0x2c]
        0x0000e59c:    b00c        ..      ADD      sp,sp,#0x30
        0x0000e59e:    4770        pG      BX       lr
    ftoa
        0x0000e5a0:    b580        ..      PUSH     {r7,lr}
        0x0000e5a2:    b090        ..      SUB      sp,sp,#0x40
        0x0000e5a4:    ed8d0a0e    ....    VSTR     s0,[sp,#0x38]
        0x0000e5a8:    900d        ..      STR      r0,[sp,#0x34]
        0x0000e5aa:    910c        ..      STR      r1,[sp,#0x30]
        0x0000e5ac:    980d        ..      LDR      r0,[sp,#0x34]
        0x0000e5ae:    6800        .h      LDR      r0,[r0,#0]
        0x0000e5b0:    9009        ..      STR      r0,[sp,#0x24]
        0x0000e5b2:    9809        ..      LDR      r0,[sp,#0x24]
        0x0000e5b4:    2803        .(      CMP      r0,#3
        0x0000e5b6:    dc04        ..      BGT      0xe5c2 ; ftoa + 34
        0x0000e5b8:    e7ff        ..      B        0xe5ba ; ftoa + 26
        0x0000e5ba:    f06f0002    o...    MVN      r0,#2
        0x0000e5be:    900f        ..      STR      r0,[sp,#0x3c]
        0x0000e5c0:    e103        ..      B        0xe7ca ; ftoa + 554
        0x0000e5c2:    ed9d0a0e    ....    VLDR     s0,[sp,#0x38]
        0x0000e5c6:    eeb50a40    ..@.    VCMP.F32 s0,#0.0
        0x0000e5ca:    eef1fa10    ....    VMRS     APSR_nzcv,FPSCR
        0x0000e5ce:    d109        ..      BNE      0xe5e4 ; ftoa + 68
        0x0000e5d0:    e7ff        ..      B        0xe5d2 ; ftoa + 50
        0x0000e5d2:    990d        ..      LDR      r1,[sp,#0x34]
        0x0000e5d4:    f6426030    B.0`    MOV      r0,#0x2e30
        0x0000e5d8:    f2c00030    ..0.    MOVT     r0,#0x30
        0x0000e5dc:    6008        .`      STR      r0,[r1,#0]
        0x0000e5de:    2003        .       MOVS     r0,#3
        0x0000e5e0:    900f        ..      STR      r0,[sp,#0x3c]
        0x0000e5e2:    e0f2        ..      B        0xe7ca ; ftoa + 554
        0x0000e5e4:    980d        ..      LDR      r0,[sp,#0x34]
        0x0000e5e6:    9005        ..      STR      r0,[sp,#0x14]
        0x0000e5e8:    980e        ..      LDR      r0,[sp,#0x38]
        0x0000e5ea:    900b        ..      STR      r0,[sp,#0x2c]
        0x0000e5ec:    980b        ..      LDR      r0,[sp,#0x2c]
        0x0000e5ee:    0dc1        ..      LSRS     r1,r0,#23
        0x0000e5f0:    f06f007e    o.~.    MVN      r0,#0x7e
        0x0000e5f4:    fa50f081    P...    UXTAB    r0,r0,r1
        0x0000e5f8:    900a        ..      STR      r0,[sp,#0x28]
        0x0000e5fa:    980b        ..      LDR      r0,[sp,#0x2c]
        0x0000e5fc:    f4400000    @...    ORR      r0,r0,#0x800000
        0x0000e600:    f020407f     ..@    BIC      r0,r0,#0xff000000
        0x0000e604:    9008        ..      STR      r0,[sp,#0x20]
        0x0000e606:    2000        .       MOVS     r0,#0
        0x0000e608:    9006        ..      STR      r0,[sp,#0x18]
        0x0000e60a:    9007        ..      STR      r0,[sp,#0x1c]
        0x0000e60c:    980a        ..      LDR      r0,[sp,#0x28]
        0x0000e60e:    281f        .(      CMP      r0,#0x1f
        0x0000e610:    db04        ..      BLT      0xe61c ; ftoa + 124
        0x0000e612:    e7ff        ..      B        0xe614 ; ftoa + 116
        0x0000e614:    f06f0001    o...    MVN      r0,#1
        0x0000e618:    900f        ..      STR      r0,[sp,#0x3c]
        0x0000e61a:    e0d6        ..      B        0xe7ca ; ftoa + 554
        0x0000e61c:    980a        ..      LDR      r0,[sp,#0x28]
        0x0000e61e:    f1100f18    ....    CMN      r0,#0x18
        0x0000e622:    dc04        ..      BGT      0xe62e ; ftoa + 142
        0x0000e624:    e7ff        ..      B        0xe626 ; ftoa + 134
        0x0000e626:    f04f30ff    O..0    MOV      r0,#0xffffffff
        0x0000e62a:    900f        ..      STR      r0,[sp,#0x3c]
        0x0000e62c:    e0cd        ..      B        0xe7ca ; ftoa + 554
        0x0000e62e:    980a        ..      LDR      r0,[sp,#0x28]
        0x0000e630:    2817        .(      CMP      r0,#0x17
        0x0000e632:    db06        ..      BLT      0xe642 ; ftoa + 162
        0x0000e634:    e7ff        ..      B        0xe636 ; ftoa + 150
        0x0000e636:    9808        ..      LDR      r0,[sp,#0x20]
        0x0000e638:    990a        ..      LDR      r1,[sp,#0x28]
        0x0000e63a:    3917        .9      SUBS     r1,r1,#0x17
        0x0000e63c:    4088        .@      LSLS     r0,r0,r1
        0x0000e63e:    9007        ..      STR      r0,[sp,#0x1c]
        0x0000e640:    e01a        ..      B        0xe678 ; ftoa + 216
        0x0000e642:    980a        ..      LDR      r0,[sp,#0x28]
        0x0000e644:    2800        .(      CMP      r0,#0
        0x0000e646:    d40e        ..      BMI      0xe666 ; ftoa + 198
        0x0000e648:    e7ff        ..      B        0xe64a ; ftoa + 170
        0x0000e64a:    9808        ..      LDR      r0,[sp,#0x20]
        0x0000e64c:    990a        ..      LDR      r1,[sp,#0x28]
        0x0000e64e:    f1c10117    ....    RSB      r1,r1,#0x17
        0x0000e652:    4108        .A      ASRS     r0,r0,r1
        0x0000e654:    9007        ..      STR      r0,[sp,#0x1c]
        0x0000e656:    9808        ..      LDR      r0,[sp,#0x20]
        0x0000e658:    990a        ..      LDR      r1,[sp,#0x28]
        0x0000e65a:    3101        .1      ADDS     r1,#1
        0x0000e65c:    4088        .@      LSLS     r0,r0,r1
        0x0000e65e:    f020407f     ..@    BIC      r0,r0,#0xff000000
        0x0000e662:    9006        ..      STR      r0,[sp,#0x18]
        0x0000e664:    e007        ..      B        0xe676 ; ftoa + 214
        0x0000e666:    9808        ..      LDR      r0,[sp,#0x20]
        0x0000e668:    f020407f     ..@    BIC      r0,r0,#0xff000000
        0x0000e66c:    990a        ..      LDR      r1,[sp,#0x28]
        0x0000e66e:    43c9        .C      MVNS     r1,r1
        0x0000e670:    40c8        .@      LSRS     r0,r0,r1
        0x0000e672:    9006        ..      STR      r0,[sp,#0x18]
        0x0000e674:    e7ff        ..      B        0xe676 ; ftoa + 214
        0x0000e676:    e7ff        ..      B        0xe678 ; ftoa + 216
        0x0000e678:    e7ff        ..      B        0xe67a ; ftoa + 218
        0x0000e67a:    e7ff        ..      B        0xe67c ; ftoa + 220
        0x0000e67c:    980b        ..      LDR      r0,[sp,#0x2c]
        0x0000e67e:    f1b03fff    ...?    CMP      r0,#0xffffffff
        0x0000e682:    dc06        ..      BGT      0xe692 ; ftoa + 242
        0x0000e684:    e7ff        ..      B        0xe686 ; ftoa + 230
        0x0000e686:    990d        ..      LDR      r1,[sp,#0x34]
        0x0000e688:    1c48        H.      ADDS     r0,r1,#1
        0x0000e68a:    900d        ..      STR      r0,[sp,#0x34]
        0x0000e68c:    202d        -       MOVS     r0,#0x2d
        0x0000e68e:    7008        .p      STRB     r0,[r1,#0]
        0x0000e690:    e7ff        ..      B        0xe692 ; ftoa + 242
        0x0000e692:    9807        ..      LDR      r0,[sp,#0x1c]
        0x0000e694:    b930        0.      CBNZ     r0,0xe6a4 ; ftoa + 260
        0x0000e696:    e7ff        ..      B        0xe698 ; ftoa + 248
        0x0000e698:    990d        ..      LDR      r1,[sp,#0x34]
        0x0000e69a:    1c48        H.      ADDS     r0,r1,#1
        0x0000e69c:    900d        ..      STR      r0,[sp,#0x34]
        0x0000e69e:    2030        0       MOVS     r0,#0x30
        0x0000e6a0:    7008        .p      STRB     r0,[r1,#0]
        0x0000e6a2:    e01f        ..      B        0xe6e4 ; ftoa + 324
        0x0000e6a4:    9807        ..      LDR      r0,[sp,#0x1c]
        0x0000e6a6:    2801        .(      CMP      r0,#1
        0x0000e6a8:    db06        ..      BLT      0xe6b8 ; ftoa + 280
        0x0000e6aa:    e7ff        ..      B        0xe6ac ; ftoa + 268
        0x0000e6ac:    9807        ..      LDR      r0,[sp,#0x1c]
        0x0000e6ae:    17c1        ..      ASRS     r1,r0,#31
        0x0000e6b0:    9a0d        ..      LDR      r2,[sp,#0x34]
        0x0000e6b2:    f000fc4b    ..K.    BL       uint64_to_str ; 0xef4c
        0x0000e6b6:    e00b        ..      B        0xe6d0 ; ftoa + 304
        0x0000e6b8:    990d        ..      LDR      r1,[sp,#0x34]
        0x0000e6ba:    1c48        H.      ADDS     r0,r1,#1
        0x0000e6bc:    900d        ..      STR      r0,[sp,#0x34]
        0x0000e6be:    202d        -       MOVS     r0,#0x2d
        0x0000e6c0:    7008        .p      STRB     r0,[r1,#0]
        0x0000e6c2:    9807        ..      LDR      r0,[sp,#0x1c]
        0x0000e6c4:    4240        @B      RSBS     r0,r0,#0
        0x0000e6c6:    17c1        ..      ASRS     r1,r0,#31
        0x0000e6c8:    9a0d        ..      LDR      r2,[sp,#0x34]
        0x0000e6ca:    f000fc3f    ..?.    BL       uint64_to_str ; 0xef4c
        0x0000e6ce:    e7ff        ..      B        0xe6d0 ; ftoa + 304
        0x0000e6d0:    e7ff        ..      B        0xe6d2 ; ftoa + 306
        0x0000e6d2:    980d        ..      LDR      r0,[sp,#0x34]
        0x0000e6d4:    7800        .x      LDRB     r0,[r0,#0]
        0x0000e6d6:    b120         .      CBZ      r0,0xe6e2 ; ftoa + 322
        0x0000e6d8:    e7ff        ..      B        0xe6da ; ftoa + 314
        0x0000e6da:    980d        ..      LDR      r0,[sp,#0x34]
        0x0000e6dc:    3001        .0      ADDS     r0,#1
        0x0000e6de:    900d        ..      STR      r0,[sp,#0x34]
        0x0000e6e0:    e7f7        ..      B        0xe6d2 ; ftoa + 306
        0x0000e6e2:    e7ff        ..      B        0xe6e4 ; ftoa + 324
        0x0000e6e4:    990d        ..      LDR      r1,[sp,#0x34]
        0x0000e6e6:    1c48        H.      ADDS     r0,r1,#1
        0x0000e6e8:    900d        ..      STR      r0,[sp,#0x34]
        0x0000e6ea:    202e        .       MOVS     r0,#0x2e
        0x0000e6ec:    7008        .p      STRB     r0,[r1,#0]
        0x0000e6ee:    9806        ..      LDR      r0,[sp,#0x18]
        0x0000e6f0:    b930        0.      CBNZ     r0,0xe700 ; ftoa + 352
        0x0000e6f2:    e7ff        ..      B        0xe6f4 ; ftoa + 340
        0x0000e6f4:    990d        ..      LDR      r1,[sp,#0x34]
        0x0000e6f6:    1c48        H.      ADDS     r0,r1,#1
        0x0000e6f8:    900d        ..      STR      r0,[sp,#0x34]
        0x0000e6fa:    2030        0       MOVS     r0,#0x30
        0x0000e6fc:    7008        .p      STRB     r0,[r1,#0]
        0x0000e6fe:    e05c        \.      B        0xe7ba ; ftoa + 538
        0x0000e700:    9909        ..      LDR      r1,[sp,#0x24]
        0x0000e702:    980d        ..      LDR      r0,[sp,#0x34]
        0x0000e704:    9a05        ..      LDR      r2,[sp,#0x14]
        0x0000e706:    1a80        ..      SUBS     r0,r0,r2
        0x0000e708:    43c0        .C      MVNS     r0,r0
        0x0000e70a:    4408        .D      ADD      r0,r0,r1
        0x0000e70c:    9002        ..      STR      r0,[sp,#8]
        0x0000e70e:    9802        ..      LDR      r0,[sp,#8]
        0x0000e710:    990c        ..      LDR      r1,[sp,#0x30]
        0x0000e712:    4288        .B      CMP      r0,r1
        0x0000e714:    dd03        ..      BLE      0xe71e ; ftoa + 382
        0x0000e716:    e7ff        ..      B        0xe718 ; ftoa + 376
        0x0000e718:    980c        ..      LDR      r0,[sp,#0x30]
        0x0000e71a:    9001        ..      STR      r0,[sp,#4]
        0x0000e71c:    e002        ..      B        0xe724 ; ftoa + 388
        0x0000e71e:    9802        ..      LDR      r0,[sp,#8]
        0x0000e720:    9001        ..      STR      r0,[sp,#4]
        0x0000e722:    e7ff        ..      B        0xe724 ; ftoa + 388
        0x0000e724:    9801        ..      LDR      r0,[sp,#4]
        0x0000e726:    9002        ..      STR      r0,[sp,#8]
        0x0000e728:    2000        .       MOVS     r0,#0
        0x0000e72a:    9003        ..      STR      r0,[sp,#0xc]
        0x0000e72c:    e7ff        ..      B        0xe72e ; ftoa + 398
        0x0000e72e:    9803        ..      LDR      r0,[sp,#0xc]
        0x0000e730:    9902        ..      LDR      r1,[sp,#8]
        0x0000e732:    4288        .B      CMP      r0,r1
        0x0000e734:    da15        ..      BGE      0xe762 ; ftoa + 450
        0x0000e736:    e7ff        ..      B        0xe738 ; ftoa + 408
        0x0000e738:    9806        ..      LDR      r0,[sp,#0x18]
        0x0000e73a:    eb000080    ....    ADD      r0,r0,r0,LSL #2
        0x0000e73e:    0040        @.      LSLS     r0,r0,#1
        0x0000e740:    9006        ..      STR      r0,[sp,#0x18]
        0x0000e742:    f89d001b    ....    LDRB     r0,[sp,#0x1b]
        0x0000e746:    3030        00      ADDS     r0,r0,#0x30
        0x0000e748:    990d        ..      LDR      r1,[sp,#0x34]
        0x0000e74a:    1c4a        J.      ADDS     r2,r1,#1
        0x0000e74c:    920d        ..      STR      r2,[sp,#0x34]
        0x0000e74e:    7008        .p      STRB     r0,[r1,#0]
        0x0000e750:    9806        ..      LDR      r0,[sp,#0x18]
        0x0000e752:    f020407f     ..@    BIC      r0,r0,#0xff000000
        0x0000e756:    9006        ..      STR      r0,[sp,#0x18]
        0x0000e758:    e7ff        ..      B        0xe75a ; ftoa + 442
        0x0000e75a:    9803        ..      LDR      r0,[sp,#0xc]
        0x0000e75c:    3001        .0      ADDS     r0,#1
        0x0000e75e:    9003        ..      STR      r0,[sp,#0xc]
        0x0000e760:    e7e5        ..      B        0xe72e ; ftoa + 398
        0x0000e762:    9806        ..      LDR      r0,[sp,#0x18]
        0x0000e764:    eb000080    ....    ADD      r0,r0,r0,LSL #2
        0x0000e768:    f34050c7    @..P    SBFX     r0,r0,#23,#8
        0x0000e76c:    2805        .(      CMP      r0,#5
        0x0000e76e:    db23        #.      BLT      0xe7b8 ; ftoa + 536
        0x0000e770:    e7ff        ..      B        0xe772 ; ftoa + 466
        0x0000e772:    980d        ..      LDR      r0,[sp,#0x34]
        0x0000e774:    3801        .8      SUBS     r0,#1
        0x0000e776:    9004        ..      STR      r0,[sp,#0x10]
        0x0000e778:    e7ff        ..      B        0xe77a ; ftoa + 474
        0x0000e77a:    9804        ..      LDR      r0,[sp,#0x10]
        0x0000e77c:    9905        ..      LDR      r1,[sp,#0x14]
        0x0000e77e:    4288        .B      CMP      r0,r1
        0x0000e780:    d319        ..      BCC      0xe7b6 ; ftoa + 534
        0x0000e782:    e7ff        ..      B        0xe784 ; ftoa + 484
        0x0000e784:    9804        ..      LDR      r0,[sp,#0x10]
        0x0000e786:    7800        .x      LDRB     r0,[r0,#0]
        0x0000e788:    282e        .(      CMP      r0,#0x2e
        0x0000e78a:    d101        ..      BNE      0xe790 ; ftoa + 496
        0x0000e78c:    e7ff        ..      B        0xe78e ; ftoa + 494
        0x0000e78e:    e00e        ..      B        0xe7ae ; ftoa + 526
        0x0000e790:    9804        ..      LDR      r0,[sp,#0x10]
        0x0000e792:    7800        .x      LDRB     r0,[r0,#0]
        0x0000e794:    2839        9(      CMP      r0,#0x39
        0x0000e796:    d104        ..      BNE      0xe7a2 ; ftoa + 514
        0x0000e798:    e7ff        ..      B        0xe79a ; ftoa + 506
        0x0000e79a:    9904        ..      LDR      r1,[sp,#0x10]
        0x0000e79c:    2030        0       MOVS     r0,#0x30
        0x0000e79e:    7008        .p      STRB     r0,[r1,#0]
        0x0000e7a0:    e004        ..      B        0xe7ac ; ftoa + 524
        0x0000e7a2:    9904        ..      LDR      r1,[sp,#0x10]
        0x0000e7a4:    7808        .x      LDRB     r0,[r1,#0]
        0x0000e7a6:    3001        .0      ADDS     r0,#1
        0x0000e7a8:    7008        .p      STRB     r0,[r1,#0]
        0x0000e7aa:    e004        ..      B        0xe7b6 ; ftoa + 534
        0x0000e7ac:    e7ff        ..      B        0xe7ae ; ftoa + 526
        0x0000e7ae:    9804        ..      LDR      r0,[sp,#0x10]
        0x0000e7b0:    3801        .8      SUBS     r0,#1
        0x0000e7b2:    9004        ..      STR      r0,[sp,#0x10]
        0x0000e7b4:    e7e1        ..      B        0xe77a ; ftoa + 474
        0x0000e7b6:    e7ff        ..      B        0xe7b8 ; ftoa + 536
        0x0000e7b8:    e7ff        ..      B        0xe7ba ; ftoa + 538
        0x0000e7ba:    990d        ..      LDR      r1,[sp,#0x34]
        0x0000e7bc:    2000        .       MOVS     r0,#0
        0x0000e7be:    7008        .p      STRB     r0,[r1,#0]
        0x0000e7c0:    980d        ..      LDR      r0,[sp,#0x34]
        0x0000e7c2:    9905        ..      LDR      r1,[sp,#0x14]
        0x0000e7c4:    1a40        @.      SUBS     r0,r0,r1
        0x0000e7c6:    900f        ..      STR      r0,[sp,#0x3c]
        0x0000e7c8:    e7ff        ..      B        0xe7ca ; ftoa + 554
        0x0000e7ca:    980f        ..      LDR      r0,[sp,#0x3c]
        0x0000e7cc:    b010        ..      ADD      sp,sp,#0x40
        0x0000e7ce:    bd80        ..      POP      {r7,pc}
    hostint_handler
        0x0000e7d0:    f24101b0    A...    MOV      r1,#0x10b0
        0x0000e7d4:    f2c10100    ....    MOVT     r1,#0x1000
        0x0000e7d8:    2001        .       MOVS     r0,#1
        0x0000e7da:    7008        .p      STRB     r0,[r1,#0]
        0x0000e7dc:    4770        pG      BX       lr
        0x0000e7de:    0000        ..      MOVS     r0,r0
    internal_iom_reset_on_error
        0x0000e7e0:    b570        p.      PUSH     {r4-r6,lr}
        0x0000e7e2:    6842        Bh      LDR      r2,[r0,#4]
        0x0000e7e4:    f2440600    D...    MOVW     r6,#0x4000
        0x0000e7e8:    f2c50600    ....    MOVT     r6,#0x5000
        0x0000e7ec:    0313        ..      LSLS     r3,r2,#12
        0x0000e7ee:    eb063402    ...4    ADD      r4,r6,r2,LSL #12
        0x0000e7f2:    f2442200    D.."    MOVW     r2,#0x4200
        0x0000e7f6:    f2c50200    ....    MOVT     r2,#0x5000
        0x0000e7fa:    f8d0c864    ..d.    LDR      r12,[r0,#0x864]
        0x0000e7fe:    58d5        .X      LDR      r5,[r2,r3]
        0x0000e800:    2600        .&      MOVS     r6,#0
        0x0000e802:    0508        ..      LSLS     r0,r1,#20
        0x0000e804:    50d6        .P      STR      r6,[r2,r3]
        0x0000e806:    d53f        ?.      BPL      0xe888 ; internal_iom_reset_on_error + 168
        0x0000e808:    f8d40280    ....    LDR      r0,[r4,#0x280]
        0x0000e80c:    0780        ..      LSLS     r0,r0,#30
        0x0000e80e:    d421        !.      BMI      0xe854 ; internal_iom_reset_on_error + 116
        0x0000e810:    f8d402b4    ....    LDR      r0,[r4,#0x2b4]
        0x0000e814:    0780        ..      LSLS     r0,r0,#30
        0x0000e816:    d507        ..      BPL      0xe828 ; internal_iom_reset_on_error + 72
        0x0000e818:    f8d40100    ....    LDR      r0,[r4,#0x100]
        0x0000e81c:    f4100f7c    ..|.    TST      r0,#0xfc0000
        0x0000e820:    d0f6        ..      BEQ      0xe810 ; internal_iom_reset_on_error + 48
        0x0000e822:    f8d40108    ....    LDR      r0,[r4,#0x108]
        0x0000e826:    e7f7        ..      B        0xe818 ; internal_iom_reset_on_error + 56
        0x0000e828:    f8d402b4    ....    LDR      r0,[r4,#0x2b4]
        0x0000e82c:    f0000006    ....    AND      r0,r0,#6
        0x0000e830:    2804        .(      CMP      r0,#4
        0x0000e832:    d1f9        ..      BNE      0xe828 ; internal_iom_reset_on_error + 72
        0x0000e834:    e008        ..      B        0xe848 ; internal_iom_reset_on_error + 104
        0x0000e836:    bf00        ..      NOP      
        0x0000e838:    f8d40100    ....    LDR      r0,[r4,#0x100]
        0x0000e83c:    f4100f7c    ..|.    TST      r0,#0xfc0000
        0x0000e840:    d002        ..      BEQ      0xe848 ; internal_iom_reset_on_error + 104
        0x0000e842:    f8d40108    ....    LDR      r0,[r4,#0x108]
        0x0000e846:    e7f7        ..      B        0xe838 ; internal_iom_reset_on_error + 88
        0x0000e848:    f8d40100    ....    LDR      r0,[r4,#0x100]
        0x0000e84c:    f4100f7f    ....    TST      r0,#0xff0000
        0x0000e850:    d1f2        ..      BNE      0xe838 ; internal_iom_reset_on_error + 88
        0x0000e852:    e019        ..      B        0xe888 ; internal_iom_reset_on_error + 168
        0x0000e854:    f8d42288    ..."    LDR      r2,[r4,#0x288]
        0x0000e858:    b182        ..      CBZ      r2,0xe87c ; internal_iom_reset_on_error + 156
        0x0000e85a:    f64b63ef    K..c    MOV      r3,#0xbeef
        0x0000e85e:    f6cd63ad    ...c    MOVT     r3,#0xdead
        0x0000e862:    bf00        ..      NOP      
        0x0000e864:    f8d40100    ....    LDR      r0,[r4,#0x100]
        0x0000e868:    f4104f7c    ..|O    TST      r0,#0xfc00
        0x0000e86c:    d0fa        ..      BEQ      0xe864 ; internal_iom_reset_on_error + 132
        0x0000e86e:    2a05        .*      CMP      r2,#5
        0x0000e870:    f8c4310c    ...1    STR      r3,[r4,#0x10c]
        0x0000e874:    d302        ..      BCC      0xe87c ; internal_iom_reset_on_error + 156
        0x0000e876:    3a04        .:      SUBS     r2,#4
        0x0000e878:    e7f4        ..      B        0xe864 ; internal_iom_reset_on_error + 132
        0x0000e87a:    bf00        ..      NOP      
        0x0000e87c:    f8d402b4    ....    LDR      r0,[r4,#0x2b4]
        0x0000e880:    f0000006    ....    AND      r0,r0,#6
        0x0000e884:    2804        .(      CMP      r0,#4
        0x0000e886:    d1f9        ..      BNE      0xe87c ; internal_iom_reset_on_error + 156
        0x0000e888:    f4117f04    ....    TST      r1,#0x210
        0x0000e88c:    d02c        ,.      BEQ      0xe8e8 ; internal_iom_reset_on_error + 264
        0x0000e88e:    f8d46410    ...d    LDR      r6,[r4,#0x410]
        0x0000e892:    ea4f004c    O.L.    LSL      r0,r12,#1
        0x0000e896:    bf00        ..      NOP      
        0x0000e898:    f8d412b4    ....    LDR      r1,[r4,#0x2b4]
        0x0000e89c:    f0010106    ....    AND      r1,r1,#6
        0x0000e8a0:    2904        .)      CMP      r1,#4
        0x0000e8a2:    d1f9        ..      BNE      0xe898 ; internal_iom_reset_on_error + 184
        0x0000e8a4:    f8d41214    ....    LDR      r1,[r4,#0x214]
        0x0000e8a8:    f0210110    !...    BIC      r1,r1,#0x10
        0x0000e8ac:    f8c41214    ....    STR      r1,[r4,#0x214]
        0x0000e8b0:    f8d41110    ....    LDR      r1,[r4,#0x110]
        0x0000e8b4:    f0210102    !...    BIC      r1,r1,#2
        0x0000e8b8:    f8c41110    ....    STR      r1,[r4,#0x110]
        0x0000e8bc:    f8d41410    ....    LDR      r1,[r4,#0x410]
        0x0000e8c0:    f0410102    A...    ORR      r1,r1,#2
        0x0000e8c4:    f8c41410    ....    STR      r1,[r4,#0x410]
        0x0000e8c8:    f7fef8a5    ....    BL       am_hal_flash_delay ; 0xca16
        0x0000e8cc:    f8c46410    ...d    STR      r6,[r4,#0x410]
        0x0000e8d0:    f8d40110    ....    LDR      r0,[r4,#0x110]
        0x0000e8d4:    f0400002    @...    ORR      r0,r0,#2
        0x0000e8d8:    f8c40110    ....    STR      r0,[r4,#0x110]
        0x0000e8dc:    f8d40214    ....    LDR      r0,[r4,#0x214]
        0x0000e8e0:    f0400010    @...    ORR      r0,r0,#0x10
        0x0000e8e4:    f8c40214    ....    STR      r0,[r4,#0x214]
        0x0000e8e8:    f04f30ff    O..0    MOV      r0,#0xffffffff
        0x0000e8ec:    f8c40208    ....    STR      r0,[r4,#0x208]
        0x0000e8f0:    f8c45200    ...R    STR      r5,[r4,#0x200]
        0x0000e8f4:    bd70        p.      POP      {r4-r6,pc}
        0x0000e8f6:    0000        ..      MOVS     r0,r0
    iom_set_up
        0x0000e8f8:    b580        ..      PUSH     {r7,lr}
        0x0000e8fa:    b08c        ..      SUB      sp,sp,#0x30
        0x0000e8fc:    900b        ..      STR      r0,[sp,#0x2c]
        0x0000e8fe:    f88d102b    ..+.    STRB     r1,[sp,#0x2b]
        0x0000e902:    2001        .       MOVS     r0,#1
        0x0000e904:    9009        ..      STR      r0,[sp,#0x24]
        0x0000e906:    980b        ..      LDR      r0,[sp,#0x2c]
        0x0000e908:    f2412118    A..!    MOV      r1,#0x1218
        0x0000e90c:    f2c10100    ....    MOVT     r1,#0x1000
        0x0000e910:    9105        ..      STR      r1,[sp,#0x14]
        0x0000e912:    f7fefe86    ....    BL       am_hal_iom_initialize ; 0xd622
        0x0000e916:    9805        ..      LDR      r0,[sp,#0x14]
        0x0000e918:    6800        .h      LDR      r0,[r0,#0]
        0x0000e91a:    2200        ."      MOVS     r2,#0
        0x0000e91c:    4611        .F      MOV      r1,r2
        0x0000e91e:    f7fefea4    ....    BL       am_hal_iom_power_ctrl ; 0xd66a
        0x0000e922:    f89d002b    ..+.    LDRB     r0,[sp,#0x2b]
        0x0000e926:    07c0        ..      LSLS     r0,r0,#31
        0x0000e928:    b180        ..      CBZ      r0,0xe94c ; iom_set_up + 84
        0x0000e92a:    e7ff        ..      B        0xe92c ; iom_set_up + 52
        0x0000e92c:    f2412018    A..     MOV      r0,#0x1218
        0x0000e930:    f2c10000    ....    MOVT     r0,#0x1000
        0x0000e934:    6800        .h      LDR      r0,[r0,#0]
        0x0000e936:    f240013c    @.<.    MOVW     r1,#0x3c
        0x0000e93a:    f2c10100    ....    MOVT     r1,#0x1000
        0x0000e93e:    f7fefccf    ....    BL       am_hal_iom_configure ; 0xd2e0
        0x0000e942:    980b        ..      LDR      r0,[sp,#0x2c]
        0x0000e944:    2100        .!      MOVS     r1,#0
        0x0000e946:    f7fdfca7    ....    BL       am_bsp_iom_pins_enable ; 0xc298
        0x0000e94a:    e00f        ..      B        0xe96c ; iom_set_up + 116
        0x0000e94c:    f2412018    A..     MOV      r0,#0x1218
        0x0000e950:    f2c10000    ....    MOVT     r0,#0x1000
        0x0000e954:    6800        .h      LDR      r0,[r0,#0]
        0x0000e956:    f2400128    @.(.    MOVW     r1,#0x28
        0x0000e95a:    f2c10100    ....    MOVT     r1,#0x1000
        0x0000e95e:    f7fefcbf    ....    BL       am_hal_iom_configure ; 0xd2e0
        0x0000e962:    980b        ..      LDR      r0,[sp,#0x2c]
        0x0000e964:    2101        .!      MOVS     r1,#1
        0x0000e966:    f7fdfc97    ....    BL       am_bsp_iom_pins_enable ; 0xc298
        0x0000e96a:    e7ff        ..      B        0xe96c ; iom_set_up + 116
        0x0000e96c:    f2412018    A..     MOV      r0,#0x1218
        0x0000e970:    f2c10000    ....    MOVT     r0,#0x1000
        0x0000e974:    6800        .h      LDR      r0,[r0,#0]
        0x0000e976:    f7fefdfd    ....    BL       am_hal_iom_enable ; 0xd574
        0x0000e97a:    f24f4038    O.8@    MOV      r0,#0xf438
        0x0000e97e:    f2c00000    ....    MOVT     r0,#0
        0x0000e982:    6801        .h      LDR      r1,[r0,#0]
        0x0000e984:    200a        .       MOVS     r0,#0xa
        0x0000e986:    9001        ..      STR      r0,[sp,#4]
        0x0000e988:    f7fef968    ..h.    BL       am_hal_gpio_pinconfig ; 0xcc5c
        0x0000e98c:    aa06        ..      ADD      r2,sp,#0x18
        0x0000e98e:    9202        ..      STR      r2,[sp,#8]
        0x0000e990:    2100        .!      MOVS     r1,#0
        0x0000e992:    9103        ..      STR      r1,[sp,#0xc]
        0x0000e994:    e9c21100    ....    STRD     r1,r1,[r2,#0]
        0x0000e998:    f44f6080    O..`    MOV      r0,#0x400
        0x0000e99c:    9004        ..      STR      r0,[sp,#0x10]
        0x0000e99e:    e9c20100    ....    STRD     r0,r1,[r2,#0]
        0x0000e9a2:    f7fef89a    ....    BL       am_hal_gpio_interrupt_clear ; 0xcada
        0x0000e9a6:    9801        ..      LDR      r0,[sp,#4]
        0x0000e9a8:    f24e71d1    N..q    MOV      r1,#0xe7d1
        0x0000e9ac:    f2c00100    ....    MOVT     r1,#0
        0x0000e9b0:    f7fef8c9    ....    BL       am_hal_gpio_interrupt_register ; 0xcb46
        0x0000e9b4:    9a02        ..      LDR      r2,[sp,#8]
        0x0000e9b6:    9903        ..      LDR      r1,[sp,#0xc]
        0x0000e9b8:    9804        ..      LDR      r0,[sp,#0x10]
        0x0000e9ba:    e9c20100    ....    STRD     r0,r1,[r2,#0]
        0x0000e9be:    f7fef8a5    ....    BL       am_hal_gpio_interrupt_enable ; 0xcb0c
        0x0000e9c2:    200d        .       MOVS     r0,#0xd
        0x0000e9c4:    f7fdfc50    ..P.    BL       __NVIC_EnableIRQ ; 0xc268
        0x0000e9c8:    f89d002b    ..+.    LDRB     r0,[sp,#0x2b]
        0x0000e9cc:    f0000001    ....    AND      r0,r0,#1
        0x0000e9d0:    21f8        .!      MOVS     r1,#0xf8
        0x0000e9d2:    aa09        ..      ADD      r2,sp,#0x24
        0x0000e9d4:    2301        .#      MOVS     r3,#1
        0x0000e9d6:    f000f831    ..1.    BL       iom_slave_write ; 0xea3c
        0x0000e9da:    b00c        ..      ADD      sp,sp,#0x30
        0x0000e9dc:    bd80        ..      POP      {r7,pc}
        0x0000e9de:    0000        ..      MOVS     r0,r0
    iom_slave_read
        0x0000e9e0:    b580        ..      PUSH     {r7,lr}
        0x0000e9e2:    b08e        ..      SUB      sp,sp,#0x38
        0x0000e9e4:    f88d0037    ..7.    STRB     r0,[sp,#0x37]
        0x0000e9e8:    910c        ..      STR      r1,[sp,#0x30]
        0x0000e9ea:    920b        ..      STR      r2,[sp,#0x2c]
        0x0000e9ec:    930a        ..      STR      r3,[sp,#0x28]
        0x0000e9ee:    2001        .       MOVS     r0,#1
        0x0000e9f0:    9001        ..      STR      r0,[sp,#4]
        0x0000e9f2:    990c        ..      LDR      r1,[sp,#0x30]
        0x0000e9f4:    9102        ..      STR      r1,[sp,#8]
        0x0000e9f6:    f88d0010    ....    STRB     r0,[sp,#0x10]
        0x0000e9fa:    980a        ..      LDR      r0,[sp,#0x28]
        0x0000e9fc:    9003        ..      STR      r0,[sp,#0xc]
        0x0000e9fe:    980b        ..      LDR      r0,[sp,#0x2c]
        0x0000ea00:    9006        ..      STR      r0,[sp,#0x18]
        0x0000ea02:    2000        .       MOVS     r0,#0
        0x0000ea04:    f88d001c    ....    STRB     r0,[sp,#0x1c]
        0x0000ea08:    f88d001d    ....    STRB     r0,[sp,#0x1d]
        0x0000ea0c:    9008        ..      STR      r0,[sp,#0x20]
        0x0000ea0e:    9009        ..      STR      r0,[sp,#0x24]
        0x0000ea10:    f89d0037    ..7.    LDRB     r0,[sp,#0x37]
        0x0000ea14:    07c0        ..      LSLS     r0,r0,#31
        0x0000ea16:    b118        ..      CBZ      r0,0xea20 ; iom_slave_read + 64
        0x0000ea18:    e7ff        ..      B        0xea1a ; iom_slave_read + 58
        0x0000ea1a:    2000        .       MOVS     r0,#0
        0x0000ea1c:    9000        ..      STR      r0,[sp,#0]
        0x0000ea1e:    e002        ..      B        0xea26 ; iom_slave_read + 70
        0x0000ea20:    2010        .       MOVS     r0,#0x10
        0x0000ea22:    9000        ..      STR      r0,[sp,#0]
        0x0000ea24:    e7ff        ..      B        0xea26 ; iom_slave_read + 70
        0x0000ea26:    f2412018    A..     MOV      r0,#0x1218
        0x0000ea2a:    f2c10000    ....    MOVT     r0,#0x1000
        0x0000ea2e:    6800        .h      LDR      r0,[r0,#0]
        0x0000ea30:    4669        iF      MOV      r1,sp
        0x0000ea32:    f7fefac3    ....    BL       am_hal_iom_blocking_transfer ; 0xcfbc
        0x0000ea36:    b00e        ..      ADD      sp,sp,#0x38
        0x0000ea38:    bd80        ..      POP      {r7,pc}
        0x0000ea3a:    0000        ..      MOVS     r0,r0
    iom_slave_write
        0x0000ea3c:    b580        ..      PUSH     {r7,lr}
        0x0000ea3e:    b08e        ..      SUB      sp,sp,#0x38
        0x0000ea40:    f88d0037    ..7.    STRB     r0,[sp,#0x37]
        0x0000ea44:    910c        ..      STR      r1,[sp,#0x30]
        0x0000ea46:    920b        ..      STR      r2,[sp,#0x2c]
        0x0000ea48:    930a        ..      STR      r3,[sp,#0x28]
        0x0000ea4a:    2001        .       MOVS     r0,#1
        0x0000ea4c:    9001        ..      STR      r0,[sp,#4]
        0x0000ea4e:    980c        ..      LDR      r0,[sp,#0x30]
        0x0000ea50:    9002        ..      STR      r0,[sp,#8]
        0x0000ea52:    2000        .       MOVS     r0,#0
        0x0000ea54:    f88d0010    ....    STRB     r0,[sp,#0x10]
        0x0000ea58:    990a        ..      LDR      r1,[sp,#0x28]
        0x0000ea5a:    9103        ..      STR      r1,[sp,#0xc]
        0x0000ea5c:    990b        ..      LDR      r1,[sp,#0x2c]
        0x0000ea5e:    9105        ..      STR      r1,[sp,#0x14]
        0x0000ea60:    f88d001c    ....    STRB     r0,[sp,#0x1c]
        0x0000ea64:    f88d001d    ....    STRB     r0,[sp,#0x1d]
        0x0000ea68:    9008        ..      STR      r0,[sp,#0x20]
        0x0000ea6a:    9009        ..      STR      r0,[sp,#0x24]
        0x0000ea6c:    f89d0037    ..7.    LDRB     r0,[sp,#0x37]
        0x0000ea70:    07c0        ..      LSLS     r0,r0,#31
        0x0000ea72:    b118        ..      CBZ      r0,0xea7c ; iom_slave_write + 64
        0x0000ea74:    e7ff        ..      B        0xea76 ; iom_slave_write + 58
        0x0000ea76:    2000        .       MOVS     r0,#0
        0x0000ea78:    9000        ..      STR      r0,[sp,#0]
        0x0000ea7a:    e002        ..      B        0xea82 ; iom_slave_write + 70
        0x0000ea7c:    2010        .       MOVS     r0,#0x10
        0x0000ea7e:    9000        ..      STR      r0,[sp,#0]
        0x0000ea80:    e7ff        ..      B        0xea82 ; iom_slave_write + 70
        0x0000ea82:    f2412018    A..     MOV      r0,#0x1218
        0x0000ea86:    f2c10000    ....    MOVT     r0,#0x1000
        0x0000ea8a:    6800        .h      LDR      r0,[r0,#0]
        0x0000ea8c:    4669        iF      MOV      r1,sp
        0x0000ea8e:    f7fefa95    ....    BL       am_hal_iom_blocking_transfer ; 0xcfbc
        0x0000ea92:    b00e        ..      ADD      sp,sp,#0x38
        0x0000ea94:    bd80        ..      POP      {r7,pc}
        0x0000ea96:    0000        ..      MOVS     r0,r0
    main
        0x0000ea98:    b580        ..      PUSH     {r7,lr}
        0x0000ea9a:    b08c        ..      SUB      sp,sp,#0x30
        0x0000ea9c:    2100        .!      MOVS     r1,#0
        0x0000ea9e:    9103        ..      STR      r1,[sp,#0xc]
        0x0000eaa0:    910b        ..      STR      r1,[sp,#0x2c]
        0x0000eaa2:    910a        ..      STR      r1,[sp,#0x28]
        0x0000eaa4:    2001        .       MOVS     r0,#1
        0x0000eaa6:    9004        ..      STR      r0,[sp,#0x10]
        0x0000eaa8:    f88d0027    ..'.    STRB     r0,[sp,#0x27]
        0x0000eaac:    f88d1026    ..&.    STRB     r1,[sp,#0x26]
        0x0000eab0:    f88d1025    ..%.    STRB     r1,[sp,#0x25]
        0x0000eab4:    f89d0027    ..'.    LDRB     r0,[sp,#0x27]
        0x0000eab8:    07c2        ..      LSLS     r2,r0,#31
        0x0000eaba:    20ff        .       MOVS     r0,#0xff
        0x0000eabc:    2a00        .*      CMP      r2,#0
        0x0000eabe:    bf18        ..      IT       NE
        0x0000eac0:    f24030ff    @..0    MOVNE    r0,#0x3ff
        0x0000eac4:    9007        ..      STR      r0,[sp,#0x1c]
        0x0000eac6:    4608        .F      MOV      r0,r1
        0x0000eac8:    f7fdfe5a    ..Z.    BL       am_hal_clkgen_control ; 0xc780
        0x0000eacc:    f24f2040    O.@     MOV      r0,#0xf240
        0x0000ead0:    f2c00000    ....    MOVT     r0,#0
        0x0000ead4:    f7fdfd70    ..p.    BL       am_hal_cachectrl_config ; 0xc5b8
        0x0000ead8:    f7fdfe48    ..H.    BL       am_hal_cachectrl_enable ; 0xc76c
        0x0000eadc:    f7fdfd38    ..8.    BL       am_bsp_low_power_init ; 0xc550
        0x0000eae0:    f7fdfd13    ....    BL       am_bsp_itm_printf_enable ; 0xc50a
        0x0000eae4:    f7fff932    ..2.    BL       am_util_stdio_terminal_clear ; 0xdd4c
        0x0000eae8:    f24f6044    O.D`    MOV      r0,#0xf644
        0x0000eaec:    f2c00000    ....    MOVT     r0,#0
        0x0000eaf0:    f2427110    B..q    MOV      r1,#0x2710
        0x0000eaf4:    f7fff8f2    ....    BL       am_util_stdio_printf ; 0xdcdc
        0x0000eaf8:    200a        .       MOVS     r0,#0xa
        0x0000eafa:    f7fff8d7    ....    BL       am_util_delay_ms ; 0xdcac
        0x0000eafe:    f7fefa29    ..).    BL       am_hal_interrupt_master_enable ; 0xcf54
        0x0000eb02:    980a        ..      LDR      r0,[sp,#0x28]
        0x0000eb04:    f89d1027    ..'.    LDRB     r1,[sp,#0x27]
        0x0000eb08:    f0010101    ....    AND      r1,r1,#1
        0x0000eb0c:    f7fffef4    ....    BL       iom_set_up ; 0xe8f8
        0x0000eb10:    2064        d       MOVS     r0,#0x64
        0x0000eb12:    f7fff8cb    ....    BL       am_util_delay_ms ; 0xdcac
        0x0000eb16:    9803        ..      LDR      r0,[sp,#0xc]
        0x0000eb18:    9b04        ..      LDR      r3,[sp,#0x10]
        0x0000eb1a:    9008        ..      STR      r0,[sp,#0x20]
        0x0000eb1c:    f89d0027    ..'.    LDRB     r0,[sp,#0x27]
        0x0000eb20:    f0000001    ....    AND      r0,r0,#1
        0x0000eb24:    2180        .!      MOVS     r1,#0x80
        0x0000eb26:    aa08        ..      ADD      r2,sp,#0x20
        0x0000eb28:    f7ffff88    ....    BL       iom_slave_write ; 0xea3c
        0x0000eb2c:    e7ff        ..      B        0xeb2e ; main + 150
        0x0000eb2e:    f89d0025    ..%.    LDRB     r0,[sp,#0x25]
        0x0000eb32:    07c0        ..      LSLS     r0,r0,#31
        0x0000eb34:    2800        .(      CMP      r0,#0
        0x0000eb36:    f040809d    @...    BNE.W    0xec74 ; main + 476
        0x0000eb3a:    e7ff        ..      B        0xeb3c ; main + 164
        0x0000eb3c:    f7fefa06    ....    BL       am_hal_interrupt_master_disable ; 0xcf4c
        0x0000eb40:    9006        ..      STR      r0,[sp,#0x18]
        0x0000eb42:    f24100b0    A...    MOV      r0,#0x10b0
        0x0000eb46:    f2c10000    ....    MOVT     r0,#0x1000
        0x0000eb4a:    7800        .x      LDRB     r0,[r0,#0]
        0x0000eb4c:    07c0        ..      LSLS     r0,r0,#31
        0x0000eb4e:    2800        .(      CMP      r0,#0
        0x0000eb50:    f0008088    ....    BEQ.W    0xec64 ; main + 460
        0x0000eb54:    e7ff        ..      B        0xeb56 ; main + 190
        0x0000eb56:    9806        ..      LDR      r0,[sp,#0x18]
        0x0000eb58:    f7fefa00    ....    BL       am_hal_interrupt_master_set ; 0xcf5c
        0x0000eb5c:    f24101b0    A...    MOV      r1,#0x10b0
        0x0000eb60:    f2c10100    ....    MOVT     r1,#0x1000
        0x0000eb64:    2000        .       MOVS     r0,#0
        0x0000eb66:    7008        .p      STRB     r0,[r1,#0]
        0x0000eb68:    f89d0027    ..'.    LDRB     r0,[sp,#0x27]
        0x0000eb6c:    f0000001    ....    AND      r0,r0,#1
        0x0000eb70:    2179        y!      MOVS     r1,#0x79
        0x0000eb72:    aa08        ..      ADD      r2,sp,#0x20
        0x0000eb74:    2301        .#      MOVS     r3,#1
        0x0000eb76:    f7ffff33    ..3.    BL       iom_slave_read ; 0xe9e0
        0x0000eb7a:    f89d0020    .. .    LDRB     r0,[sp,#0x20]
        0x0000eb7e:    07c0        ..      LSLS     r0,r0,#31
        0x0000eb80:    b178        x.      CBZ      r0,0xeba2 ; main + 266
        0x0000eb82:    e7ff        ..      B        0xeb84 ; main + 236
        0x0000eb84:    2301        .#      MOVS     r3,#1
        0x0000eb86:    9302        ..      STR      r3,[sp,#8]
        0x0000eb88:    9308        ..      STR      r3,[sp,#0x20]
        0x0000eb8a:    f89d0027    ..'.    LDRB     r0,[sp,#0x27]
        0x0000eb8e:    f0000001    ....    AND      r0,r0,#1
        0x0000eb92:    21fa        .!      MOVS     r1,#0xfa
        0x0000eb94:    aa08        ..      ADD      r2,sp,#0x20
        0x0000eb96:    f7ffff51    ..Q.    BL       iom_slave_write ; 0xea3c
        0x0000eb9a:    9802        ..      LDR      r0,[sp,#8]
        0x0000eb9c:    f88d0026    ..&.    STRB     r0,[sp,#0x26]
        0x0000eba0:    e7ff        ..      B        0xeba2 ; main + 266
        0x0000eba2:    f89d0026    ..&.    LDRB     r0,[sp,#0x26]
        0x0000eba6:    07c0        ..      LSLS     r0,r0,#31
        0x0000eba8:    2800        .(      CMP      r0,#0
        0x0000ebaa:    d05a        Z.      BEQ      0xec62 ; main + 458
        0x0000ebac:    e7ff        ..      B        0xebae ; main + 278
        0x0000ebae:    2000        .       MOVS     r0,#0
        0x0000ebb0:    9005        ..      STR      r0,[sp,#0x14]
        0x0000ebb2:    f88d0026    ..&.    STRB     r0,[sp,#0x26]
        0x0000ebb6:    f89d0027    ..'.    LDRB     r0,[sp,#0x27]
        0x0000ebba:    f0000001    ....    AND      r0,r0,#1
        0x0000ebbe:    217c        |!      MOVS     r1,#0x7c
        0x0000ebc0:    aa05        ..      ADD      r2,sp,#0x14
        0x0000ebc2:    2302        .#      MOVS     r3,#2
        0x0000ebc4:    f7ffff0c    ....    BL       iom_slave_read ; 0xe9e0
        0x0000ebc8:    9805        ..      LDR      r0,[sp,#0x14]
        0x0000ebca:    9907        ..      LDR      r1,[sp,#0x1c]
        0x0000ebcc:    4288        .B      CMP      r0,r1
        0x0000ebce:    d903        ..      BLS      0xebd8 ; main + 320
        0x0000ebd0:    e7ff        ..      B        0xebd2 ; main + 314
        0x0000ebd2:    9807        ..      LDR      r0,[sp,#0x1c]
        0x0000ebd4:    9001        ..      STR      r0,[sp,#4]
        0x0000ebd6:    e002        ..      B        0xebde ; main + 326
        0x0000ebd8:    9805        ..      LDR      r0,[sp,#0x14]
        0x0000ebda:    9001        ..      STR      r0,[sp,#4]
        0x0000ebdc:    e7ff        ..      B        0xebde ; main + 326
        0x0000ebde:    9801        ..      LDR      r0,[sp,#4]
        0x0000ebe0:    9005        ..      STR      r0,[sp,#0x14]
        0x0000ebe2:    f7fffbe5    ....    BL       clear_rx_buf ; 0xe3b0
        0x0000ebe6:    9b05        ..      LDR      r3,[sp,#0x14]
        0x0000ebe8:    f89d0027    ..'.    LDRB     r0,[sp,#0x27]
        0x0000ebec:    f0000001    ....    AND      r0,r0,#1
        0x0000ebf0:    f6442200    D.."    MOVW     r2,#0x4a00
        0x0000ebf4:    f2c10200    ....    MOVT     r2,#0x1000
        0x0000ebf8:    217f        .!      MOVS     r1,#0x7f
        0x0000ebfa:    f7fffef1    ....    BL       iom_slave_read ; 0xe9e0
        0x0000ebfe:    9805        ..      LDR      r0,[sp,#0x14]
        0x0000ec00:    f000fa06    ....    BL       validate_rx_buf ; 0xf010
        0x0000ec04:    b968        h.      CBNZ     r0,0xec22 ; main + 394
        0x0000ec06:    e7ff        ..      B        0xec08 ; main + 368
        0x0000ec08:    f6446000    D..`    MOVW     r0,#0x4e00
        0x0000ec0c:    f2c10000    ....    MOVT     r0,#0x1000
        0x0000ec10:    6801        .h      LDR      r1,[r0,#0]
        0x0000ec12:    9a05        ..      LDR      r2,[sp,#0x14]
        0x0000ec14:    f24f6019    O..`    MOV      r0,#0xf619
        0x0000ec18:    f2c00000    ....    MOVT     r0,#0
        0x0000ec1c:    f7fff85e    ..^.    BL       am_util_stdio_printf ; 0xdcdc
        0x0000ec20:    e7ff        ..      B        0xec22 ; main + 394
        0x0000ec22:    2002        .       MOVS     r0,#2
        0x0000ec24:    9008        ..      STR      r0,[sp,#0x20]
        0x0000ec26:    f6446000    D..`    MOVW     r0,#0x4e00
        0x0000ec2a:    f2c10000    ....    MOVT     r0,#0x1000
        0x0000ec2e:    9000        ..      STR      r0,[sp,#0]
        0x0000ec30:    6800        .h      LDR      r0,[r0,#0]
        0x0000ec32:    f000f9cf    ....    BL       update_progress ; 0xefd4
        0x0000ec36:    9800        ..      LDR      r0,[sp,#0]
        0x0000ec38:    6800        .h      LDR      r0,[r0,#0]
        0x0000ec3a:    f2427110    B..q    MOV      r1,#0x2710
        0x0000ec3e:    4288        .B      CMP      r0,r1
        0x0000ec40:    d305        ..      BCC      0xec4e ; main + 438
        0x0000ec42:    e7ff        ..      B        0xec44 ; main + 428
        0x0000ec44:    2001        .       MOVS     r0,#1
        0x0000ec46:    f88d0025    ..%.    STRB     r0,[sp,#0x25]
        0x0000ec4a:    9008        ..      STR      r0,[sp,#0x20]
        0x0000ec4c:    e7ff        ..      B        0xec4e ; main + 438
        0x0000ec4e:    f89d0027    ..'.    LDRB     r0,[sp,#0x27]
        0x0000ec52:    f0000001    ....    AND      r0,r0,#1
        0x0000ec56:    2180        .!      MOVS     r1,#0x80
        0x0000ec58:    aa08        ..      ADD      r2,sp,#0x20
        0x0000ec5a:    2301        .#      MOVS     r3,#1
        0x0000ec5c:    f7fffeee    ....    BL       iom_slave_write ; 0xea3c
        0x0000ec60:    e7ff        ..      B        0xec62 ; main + 458
        0x0000ec62:    e006        ..      B        0xec72 ; main + 474
        0x0000ec64:    2001        .       MOVS     r0,#1
        0x0000ec66:    f7feff75    ..u.    BL       am_hal_sysctrl_sleep ; 0xdb54
        0x0000ec6a:    9806        ..      LDR      r0,[sp,#0x18]
        0x0000ec6c:    f7fef976    ..v.    BL       am_hal_interrupt_master_set ; 0xcf5c
        0x0000ec70:    e7ff        ..      B        0xec72 ; main + 474
        0x0000ec72:    e75c        \.      B        0xeb2e ; main + 150
        0x0000ec74:    f6446000    D..`    MOVW     r0,#0x4e00
        0x0000ec78:    f2c10000    ....    MOVT     r0,#0x1000
        0x0000ec7c:    6801        .h      LDR      r1,[r0,#0]
        0x0000ec7e:    f24f50f6    O..P    MOV      r0,#0xf5f6
        0x0000ec82:    f2c00000    ....    MOVT     r0,#0
        0x0000ec86:    f7fff829    ..).    BL       am_util_stdio_printf ; 0xdcdc
        0x0000ec8a:    e7ff        ..      B        0xec8c ; main + 500
        0x0000ec8c:    e7fe        ..      B        0xec8c ; main + 500
        0x0000ec8e:    0000        ..      MOVS     r0,r0
    ndigits_in_hex
        0x0000ec90:    b084        ..      SUB      sp,sp,#0x10
        0x0000ec92:    9103        ..      STR      r1,[sp,#0xc]
        0x0000ec94:    9002        ..      STR      r0,[sp,#8]
        0x0000ec96:    9802        ..      LDR      r0,[sp,#8]
        0x0000ec98:    9903        ..      LDR      r1,[sp,#0xc]
        0x0000ec9a:    4308        .C      ORRS     r0,r0,r1
        0x0000ec9c:    fab0f080    ....    CLZ      r0,r0
        0x0000eca0:    0940        @.      LSRS     r0,r0,#5
        0x0000eca2:    9001        ..      STR      r0,[sp,#4]
        0x0000eca4:    e7ff        ..      B        0xeca6 ; ndigits_in_hex + 22
        0x0000eca6:    9802        ..      LDR      r0,[sp,#8]
        0x0000eca8:    9903        ..      LDR      r1,[sp,#0xc]
        0x0000ecaa:    4308        .C      ORRS     r0,r0,r1
        0x0000ecac:    b160        `.      CBZ      r0,0xecc8 ; ndigits_in_hex + 56
        0x0000ecae:    e7ff        ..      B        0xecb0 ; ndigits_in_hex + 32
        0x0000ecb0:    9802        ..      LDR      r0,[sp,#8]
        0x0000ecb2:    9903        ..      LDR      r1,[sp,#0xc]
        0x0000ecb4:    0900        ..      LSRS     r0,r0,#4
        0x0000ecb6:    ea407001    @..p    ORR      r0,r0,r1,LSL #28
        0x0000ecba:    0909        ..      LSRS     r1,r1,#4
        0x0000ecbc:    9103        ..      STR      r1,[sp,#0xc]
        0x0000ecbe:    9002        ..      STR      r0,[sp,#8]
        0x0000ecc0:    9801        ..      LDR      r0,[sp,#4]
        0x0000ecc2:    3001        .0      ADDS     r0,#1
        0x0000ecc4:    9001        ..      STR      r0,[sp,#4]
        0x0000ecc6:    e7ee        ..      B        0xeca6 ; ndigits_in_hex + 22
        0x0000ecc8:    9801        ..      LDR      r0,[sp,#4]
        0x0000ecca:    b004        ..      ADD      sp,sp,#0x10
        0x0000eccc:    4770        pG      BX       lr
        0x0000ecce:    0000        ..      MOVS     r0,r0
    ndigits_in_i64
        0x0000ecd0:    b580        ..      PUSH     {r7,lr}
        0x0000ecd2:    b082        ..      SUB      sp,sp,#8
        0x0000ecd4:    9101        ..      STR      r1,[sp,#4]
        0x0000ecd6:    9000        ..      STR      r0,[sp,#0]
        0x0000ecd8:    9801        ..      LDR      r0,[sp,#4]
        0x0000ecda:    f1b03fff    ...?    CMP      r0,#0xffffffff
        0x0000ecde:    dc09        ..      BGT      0xecf4 ; ndigits_in_i64 + 36
        0x0000ece0:    e7ff        ..      B        0xece2 ; ndigits_in_i64 + 18
        0x0000ece2:    9800        ..      LDR      r0,[sp,#0]
        0x0000ece4:    9a01        ..      LDR      r2,[sp,#4]
        0x0000ece6:    4241        AB      RSBS     r1,r0,#0
        0x0000ece8:    f04f0000    O...    MOV      r0,#0
        0x0000ecec:    4190        .A      SBCS     r0,r0,r2
        0x0000ecee:    9100        ..      STR      r1,[sp,#0]
        0x0000ecf0:    9001        ..      STR      r0,[sp,#4]
        0x0000ecf2:    e7ff        ..      B        0xecf4 ; ndigits_in_i64 + 36
        0x0000ecf4:    9800        ..      LDR      r0,[sp,#0]
        0x0000ecf6:    9901        ..      LDR      r1,[sp,#4]
        0x0000ecf8:    f000f802    ....    BL       ndigits_in_u64 ; 0xed00
        0x0000ecfc:    b002        ..      ADD      sp,sp,#8
        0x0000ecfe:    bd80        ..      POP      {r7,pc}
    ndigits_in_u64
        0x0000ed00:    b580        ..      PUSH     {r7,lr}
        0x0000ed02:    b084        ..      SUB      sp,sp,#0x10
        0x0000ed04:    9103        ..      STR      r1,[sp,#0xc]
        0x0000ed06:    9002        ..      STR      r0,[sp,#8]
        0x0000ed08:    9802        ..      LDR      r0,[sp,#8]
        0x0000ed0a:    9903        ..      LDR      r1,[sp,#0xc]
        0x0000ed0c:    4308        .C      ORRS     r0,r0,r1
        0x0000ed0e:    fab0f080    ....    CLZ      r0,r0
        0x0000ed12:    0940        @.      LSRS     r0,r0,#5
        0x0000ed14:    9001        ..      STR      r0,[sp,#4]
        0x0000ed16:    e7ff        ..      B        0xed18 ; ndigits_in_u64 + 24
        0x0000ed18:    9802        ..      LDR      r0,[sp,#8]
        0x0000ed1a:    9903        ..      LDR      r1,[sp,#0xc]
        0x0000ed1c:    4308        .C      ORRS     r0,r0,r1
        0x0000ed1e:    b150        P.      CBZ      r0,0xed36 ; ndigits_in_u64 + 54
        0x0000ed20:    e7ff        ..      B        0xed22 ; ndigits_in_u64 + 34
        0x0000ed22:    9802        ..      LDR      r0,[sp,#8]
        0x0000ed24:    9903        ..      LDR      r1,[sp,#0xc]
        0x0000ed26:    f7fffbaf    ....    BL       divu64_10 ; 0xe488
        0x0000ed2a:    9103        ..      STR      r1,[sp,#0xc]
        0x0000ed2c:    9002        ..      STR      r0,[sp,#8]
        0x0000ed2e:    9801        ..      LDR      r0,[sp,#4]
        0x0000ed30:    3001        .0      ADDS     r0,#1
        0x0000ed32:    9001        ..      STR      r0,[sp,#4]
        0x0000ed34:    e7f0        ..      B        0xed18 ; ndigits_in_u64 + 24
        0x0000ed36:    9801        ..      LDR      r0,[sp,#4]
        0x0000ed38:    b004        ..      ADD      sp,sp,#0x10
        0x0000ed3a:    bd80        ..      POP      {r7,pc}
    padbuffer
        0x0000ed3c:    b085        ..      SUB      sp,sp,#0x14
        0x0000ed3e:    9003        ..      STR      r0,[sp,#0xc]
        0x0000ed40:    f88d100b    ....    STRB     r1,[sp,#0xb]
        0x0000ed44:    9201        ..      STR      r2,[sp,#4]
        0x0000ed46:    2000        .       MOVS     r0,#0
        0x0000ed48:    9000        ..      STR      r0,[sp,#0]
        0x0000ed4a:    9801        ..      LDR      r0,[sp,#4]
        0x0000ed4c:    2800        .(      CMP      r0,#0
        0x0000ed4e:    dc03        ..      BGT      0xed58 ; padbuffer + 28
        0x0000ed50:    e7ff        ..      B        0xed52 ; padbuffer + 22
        0x0000ed52:    9800        ..      LDR      r0,[sp,#0]
        0x0000ed54:    9004        ..      STR      r0,[sp,#0x10]
        0x0000ed56:    e016        ..      B        0xed86 ; padbuffer + 74
        0x0000ed58:    e7ff        ..      B        0xed5a ; padbuffer + 30
        0x0000ed5a:    9801        ..      LDR      r0,[sp,#4]
        0x0000ed5c:    1e41        A.      SUBS     r1,r0,#1
        0x0000ed5e:    9101        ..      STR      r1,[sp,#4]
        0x0000ed60:    b170        p.      CBZ      r0,0xed80 ; padbuffer + 68
        0x0000ed62:    e7ff        ..      B        0xed64 ; padbuffer + 40
        0x0000ed64:    9803        ..      LDR      r0,[sp,#0xc]
        0x0000ed66:    b138        8.      CBZ      r0,0xed78 ; padbuffer + 60
        0x0000ed68:    e7ff        ..      B        0xed6a ; padbuffer + 46
        0x0000ed6a:    f89d000b    ....    LDRB     r0,[sp,#0xb]
        0x0000ed6e:    9903        ..      LDR      r1,[sp,#0xc]
        0x0000ed70:    1c4a        J.      ADDS     r2,r1,#1
        0x0000ed72:    9203        ..      STR      r2,[sp,#0xc]
        0x0000ed74:    7008        .p      STRB     r0,[r1,#0]
        0x0000ed76:    e7ff        ..      B        0xed78 ; padbuffer + 60
        0x0000ed78:    9800        ..      LDR      r0,[sp,#0]
        0x0000ed7a:    3001        .0      ADDS     r0,#1
        0x0000ed7c:    9000        ..      STR      r0,[sp,#0]
        0x0000ed7e:    e7ec        ..      B        0xed5a ; padbuffer + 30
        0x0000ed80:    9800        ..      LDR      r0,[sp,#0]
        0x0000ed82:    9004        ..      STR      r0,[sp,#0x10]
        0x0000ed84:    e7ff        ..      B        0xed86 ; padbuffer + 74
        0x0000ed86:    9804        ..      LDR      r0,[sp,#0x10]
        0x0000ed88:    b005        ..      ADD      sp,sp,#0x14
        0x0000ed8a:    4770        pG      BX       lr
    set_LPMMODE
        0x0000ed8c:    b5b0        ..      PUSH     {r4,r5,r7,lr}
        0x0000ed8e:    b082        ..      SUB      sp,sp,#8
        0x0000ed90:    4604        .F      MOV      r4,r0
        0x0000ed92:    2803        .(      CMP      r0,#3
        0x0000ed94:    d815        ..      BHI      0xedc2 ; set_LPMMODE + 54
        0x0000ed96:    f7fef8d9    ....    BL       am_hal_interrupt_master_disable ; 0xcf4c
        0x0000ed9a:    f2480504    H...    MOV      r5,#0x8004
        0x0000ed9e:    f2c40501    ....    MOVT     r5,#0x4001
        0x0000eda2:    9001        ..      STR      r0,[sp,#4]
        0x0000eda4:    4628        (F      MOV      r0,r5
        0x0000eda6:    f7fdfe83    ....    BL       am_hal_flash_load_ui32 ; 0xcab0
        0x0000edaa:    f420507c     .|P    BIC      r0,r0,#0x3f00
        0x0000edae:    f364300d    d..0    BFI      r0,r4,#12,#2
        0x0000edb2:    f50061e0    ...a    ADD      r1,r0,#0x700
        0x0000edb6:    4628        (F      MOV      r0,r5
        0x0000edb8:    f7fdfe7e    ..~.    BL       am_hal_flash_store_ui32 ; 0xcab8
        0x0000edbc:    9801        ..      LDR      r0,[sp,#4]
        0x0000edbe:    f7fef8cd    ....    BL       am_hal_interrupt_master_set ; 0xcf5c
        0x0000edc2:    2000        .       MOVS     r0,#0
        0x0000edc4:    2c04        .,      CMP      r4,#4
        0x0000edc6:    bf38        8.      IT       CC
        0x0000edc8:    2001        .       MOVCC    r0,#1
        0x0000edca:    b002        ..      ADD      sp,sp,#8
        0x0000edcc:    bdb0        ..      POP      {r4,r5,r7,pc}
    set_RDWAIT
        0x0000edce:    b5b0        ..      PUSH     {r4,r5,r7,lr}
        0x0000edd0:    b082        ..      SUB      sp,sp,#8
        0x0000edd2:    4604        .F      MOV      r4,r0
        0x0000edd4:    280f        .(      CMP      r0,#0xf
        0x0000edd6:    d815        ..      BHI      0xee04 ; set_RDWAIT + 54
        0x0000edd8:    f7fef8b8    ....    BL       am_hal_interrupt_master_disable ; 0xcf4c
        0x0000eddc:    f2480504    H...    MOV      r5,#0x8004
        0x0000ede0:    f2c40501    ....    MOVT     r5,#0x4001
        0x0000ede4:    9001        ..      STR      r0,[sp,#4]
        0x0000ede6:    4628        (F      MOV      r0,r5
        0x0000ede8:    f7fdfe62    ..b.    BL       am_hal_flash_load_ui32 ; 0xcab0
        0x0000edec:    f640710f    @..q    MOV      r1,#0xf0f
        0x0000edf0:    4388        .C      BICS     r0,r0,r1
        0x0000edf2:    4320         C      ORRS     r0,r0,r4
        0x0000edf4:    f44061e0    @..a    ORR      r1,r0,#0x700
        0x0000edf8:    4628        (F      MOV      r0,r5
        0x0000edfa:    f7fdfe5d    ..].    BL       am_hal_flash_store_ui32 ; 0xcab8
        0x0000edfe:    9801        ..      LDR      r0,[sp,#4]
        0x0000ee00:    f7fef8ac    ....    BL       am_hal_interrupt_master_set ; 0xcf5c
        0x0000ee04:    2000        .       MOVS     r0,#0
        0x0000ee06:    2c10        .,      CMP      r4,#0x10
        0x0000ee08:    bf38        8.      IT       CC
        0x0000ee0a:    2001        .       MOVCC    r0,#1
        0x0000ee0c:    b002        ..      ADD      sp,sp,#8
        0x0000ee0e:    bdb0        ..      POP      {r4,r5,r7,pc}
    set_SEDELAY
        0x0000ee10:    b5b0        ..      PUSH     {r4,r5,r7,lr}
        0x0000ee12:    b082        ..      SUB      sp,sp,#8
        0x0000ee14:    4604        .F      MOV      r4,r0
        0x0000ee16:    2807        .(      CMP      r0,#7
        0x0000ee18:    d815        ..      BHI      0xee46 ; set_SEDELAY + 54
        0x0000ee1a:    f7fef897    ....    BL       am_hal_interrupt_master_disable ; 0xcf4c
        0x0000ee1e:    f2480504    H...    MOV      r5,#0x8004
        0x0000ee22:    f2c40501    ....    MOVT     r5,#0x4001
        0x0000ee26:    9001        ..      STR      r0,[sp,#4]
        0x0000ee28:    4628        (F      MOV      r0,r5
        0x0000ee2a:    f7fdfe41    ..A.    BL       am_hal_flash_load_ui32 ; 0xcab0
        0x0000ee2e:    f4206077     .w`    BIC      r0,r0,#0xf70
        0x0000ee32:    f3641006    d...    BFI      r0,r4,#4,#3
        0x0000ee36:    f50061e0    ...a    ADD      r1,r0,#0x700
        0x0000ee3a:    4628        (F      MOV      r0,r5
        0x0000ee3c:    f7fdfe3c    ..<.    BL       am_hal_flash_store_ui32 ; 0xcab8
        0x0000ee40:    9801        ..      LDR      r0,[sp,#4]
        0x0000ee42:    f7fef88b    ....    BL       am_hal_interrupt_master_set ; 0xcf5c
        0x0000ee46:    2000        .       MOVS     r0,#0
        0x0000ee48:    2c08        .,      CMP      r4,#8
        0x0000ee4a:    bf38        8.      IT       CC
        0x0000ee4c:    2001        .       MOVCC    r0,#1
        0x0000ee4e:    b002        ..      ADD      sp,sp,#8
        0x0000ee50:    bdb0        ..      POP      {r4,r5,r7,pc}
        0x0000ee52:    0000        ..      MOVS     r0,r0
    simple_strlen
        0x0000ee54:    b083        ..      SUB      sp,sp,#0xc
        0x0000ee56:    9001        ..      STR      r0,[sp,#4]
        0x0000ee58:    2000        .       MOVS     r0,#0
        0x0000ee5a:    9000        ..      STR      r0,[sp,#0]
        0x0000ee5c:    9801        ..      LDR      r0,[sp,#4]
        0x0000ee5e:    b918        ..      CBNZ     r0,0xee68 ; simple_strlen + 20
        0x0000ee60:    e7ff        ..      B        0xee62 ; simple_strlen + 14
        0x0000ee62:    9800        ..      LDR      r0,[sp,#0]
        0x0000ee64:    9002        ..      STR      r0,[sp,#8]
        0x0000ee66:    e00d        ..      B        0xee84 ; simple_strlen + 48
        0x0000ee68:    e7ff        ..      B        0xee6a ; simple_strlen + 22
        0x0000ee6a:    9801        ..      LDR      r0,[sp,#4]
        0x0000ee6c:    1c41        A.      ADDS     r1,r0,#1
        0x0000ee6e:    9101        ..      STR      r1,[sp,#4]
        0x0000ee70:    7800        .x      LDRB     r0,[r0,#0]
        0x0000ee72:    b120         .      CBZ      r0,0xee7e ; simple_strlen + 42
        0x0000ee74:    e7ff        ..      B        0xee76 ; simple_strlen + 34
        0x0000ee76:    9800        ..      LDR      r0,[sp,#0]
        0x0000ee78:    3001        .0      ADDS     r0,#1
        0x0000ee7a:    9000        ..      STR      r0,[sp,#0]
        0x0000ee7c:    e7f5        ..      B        0xee6a ; simple_strlen + 22
        0x0000ee7e:    9800        ..      LDR      r0,[sp,#0]
        0x0000ee80:    9002        ..      STR      r0,[sp,#8]
        0x0000ee82:    e7ff        ..      B        0xee84 ; simple_strlen + 48
        0x0000ee84:    9802        ..      LDR      r0,[sp,#8]
        0x0000ee86:    b003        ..      ADD      sp,sp,#0xc
        0x0000ee88:    4770        pG      BX       lr
        0x0000ee8a:    0000        ..      MOVS     r0,r0
    uint64_to_hexstr
        0x0000ee8c:    b08c        ..      SUB      sp,sp,#0x30
        0x0000ee8e:    910b        ..      STR      r1,[sp,#0x2c]
        0x0000ee90:    900a        ..      STR      r0,[sp,#0x28]
        0x0000ee92:    9209        ..      STR      r2,[sp,#0x24]
        0x0000ee94:    f88d3023    ..#0    STRB     r3,[sp,#0x23]
        0x0000ee98:    2000        .       MOVS     r0,#0
        0x0000ee9a:    9006        ..      STR      r0,[sp,#0x18]
        0x0000ee9c:    980a        ..      LDR      r0,[sp,#0x28]
        0x0000ee9e:    990b        ..      LDR      r1,[sp,#0x2c]
        0x0000eea0:    4308        .C      ORRS     r0,r0,r1
        0x0000eea2:    b940        @.      CBNZ     r0,0xeeb6 ; uint64_to_hexstr + 42
        0x0000eea4:    e7ff        ..      B        0xeea6 ; uint64_to_hexstr + 26
        0x0000eea6:    9a06        ..      LDR      r2,[sp,#0x18]
        0x0000eea8:    1c50        P.      ADDS     r0,r2,#1
        0x0000eeaa:    9006        ..      STR      r0,[sp,#0x18]
        0x0000eeac:    f10d0103    ....    ADD      r1,sp,#3
        0x0000eeb0:    2030        0       MOVS     r0,#0x30
        0x0000eeb2:    5488        .T      STRB     r0,[r1,r2]
        0x0000eeb4:    e7ff        ..      B        0xeeb6 ; uint64_to_hexstr + 42
        0x0000eeb6:    e7ff        ..      B        0xeeb8 ; uint64_to_hexstr + 44
        0x0000eeb8:    980a        ..      LDR      r0,[sp,#0x28]
        0x0000eeba:    990b        ..      LDR      r1,[sp,#0x2c]
        0x0000eebc:    4308        .C      ORRS     r0,r0,r1
        0x0000eebe:    b350        P.      CBZ      r0,0xef16 ; uint64_to_hexstr + 138
        0x0000eec0:    e7ff        ..      B        0xeec2 ; uint64_to_hexstr + 54
        0x0000eec2:    f89d0028    ..(.    LDRB     r0,[sp,#0x28]
        0x0000eec6:    f000000f    ....    AND      r0,r0,#0xf
        0x0000eeca:    f88d0017    ....    STRB     r0,[sp,#0x17]
        0x0000eece:    f89d0017    ....    LDRB     r0,[sp,#0x17]
        0x0000eed2:    280a        .(      CMP      r0,#0xa
        0x0000eed4:    db0d        ..      BLT      0xeef2 ; uint64_to_hexstr + 102
        0x0000eed6:    e7ff        ..      B        0xeed8 ; uint64_to_hexstr + 76
        0x0000eed8:    f89d0023    ..#.    LDRB     r0,[sp,#0x23]
        0x0000eedc:    07c0        ..      LSLS     r0,r0,#31
        0x0000eede:    2107        .!      MOVS     r1,#7
        0x0000eee0:    2800        .(      CMP      r0,#0
        0x0000eee2:    bf18        ..      IT       NE
        0x0000eee4:    2127        '!      MOVNE    r1,#0x27
        0x0000eee6:    f89d0017    ....    LDRB     r0,[sp,#0x17]
        0x0000eeea:    4408        .D      ADD      r0,r0,r1
        0x0000eeec:    f88d0017    ....    STRB     r0,[sp,#0x17]
        0x0000eef0:    e7ff        ..      B        0xeef2 ; uint64_to_hexstr + 102
        0x0000eef2:    f89d0017    ....    LDRB     r0,[sp,#0x17]
        0x0000eef6:    3030        00      ADDS     r0,r0,#0x30
        0x0000eef8:    9a06        ..      LDR      r2,[sp,#0x18]
        0x0000eefa:    1c51        Q.      ADDS     r1,r2,#1
        0x0000eefc:    9106        ..      STR      r1,[sp,#0x18]
        0x0000eefe:    f10d0103    ....    ADD      r1,sp,#3
        0x0000ef02:    5488        .T      STRB     r0,[r1,r2]
        0x0000ef04:    980a        ..      LDR      r0,[sp,#0x28]
        0x0000ef06:    990b        ..      LDR      r1,[sp,#0x2c]
        0x0000ef08:    0900        ..      LSRS     r0,r0,#4
        0x0000ef0a:    ea407001    @..p    ORR      r0,r0,r1,LSL #28
        0x0000ef0e:    0909        ..      LSRS     r1,r1,#4
        0x0000ef10:    910b        ..      STR      r1,[sp,#0x2c]
        0x0000ef12:    900a        ..      STR      r0,[sp,#0x28]
        0x0000ef14:    e7d0        ..      B        0xeeb8 ; uint64_to_hexstr + 44
        0x0000ef16:    9806        ..      LDR      r0,[sp,#0x18]
        0x0000ef18:    9007        ..      STR      r0,[sp,#0x1c]
        0x0000ef1a:    9809        ..      LDR      r0,[sp,#0x24]
        0x0000ef1c:    b198        ..      CBZ      r0,0xef46 ; uint64_to_hexstr + 186
        0x0000ef1e:    e7ff        ..      B        0xef20 ; uint64_to_hexstr + 148
        0x0000ef20:    e7ff        ..      B        0xef22 ; uint64_to_hexstr + 150
        0x0000ef22:    9806        ..      LDR      r0,[sp,#0x18]
        0x0000ef24:    1e41        A.      SUBS     r1,r0,#1
        0x0000ef26:    9106        ..      STR      r1,[sp,#0x18]
        0x0000ef28:    b148        H.      CBZ      r0,0xef3e ; uint64_to_hexstr + 178
        0x0000ef2a:    e7ff        ..      B        0xef2c ; uint64_to_hexstr + 160
        0x0000ef2c:    9906        ..      LDR      r1,[sp,#0x18]
        0x0000ef2e:    f10d0003    ....    ADD      r0,sp,#3
        0x0000ef32:    5c40        @\      LDRB     r0,[r0,r1]
        0x0000ef34:    9909        ..      LDR      r1,[sp,#0x24]
        0x0000ef36:    1c4a        J.      ADDS     r2,r1,#1
        0x0000ef38:    9209        ..      STR      r2,[sp,#0x24]
        0x0000ef3a:    7008        .p      STRB     r0,[r1,#0]
        0x0000ef3c:    e7f1        ..      B        0xef22 ; uint64_to_hexstr + 150
        0x0000ef3e:    9909        ..      LDR      r1,[sp,#0x24]
        0x0000ef40:    2000        .       MOVS     r0,#0
        0x0000ef42:    7008        .p      STRB     r0,[r1,#0]
        0x0000ef44:    e7ff        ..      B        0xef46 ; uint64_to_hexstr + 186
        0x0000ef46:    9807        ..      LDR      r0,[sp,#0x1c]
        0x0000ef48:    b00c        ..      ADD      sp,sp,#0x30
        0x0000ef4a:    4770        pG      BX       lr
    uint64_to_str
        0x0000ef4c:    b580        ..      PUSH     {r7,lr}
        0x0000ef4e:    b090        ..      SUB      sp,sp,#0x40
        0x0000ef50:    910f        ..      STR      r1,[sp,#0x3c]
        0x0000ef52:    900e        ..      STR      r0,[sp,#0x38]
        0x0000ef54:    920d        ..      STR      r2,[sp,#0x34]
        0x0000ef56:    2000        .       MOVS     r0,#0
        0x0000ef58:    9005        ..      STR      r0,[sp,#0x14]
        0x0000ef5a:    9004        ..      STR      r0,[sp,#0x10]
        0x0000ef5c:    e7ff        ..      B        0xef5e ; uint64_to_str + 18
        0x0000ef5e:    980e        ..      LDR      r0,[sp,#0x38]
        0x0000ef60:    990f        ..      LDR      r1,[sp,#0x3c]
        0x0000ef62:    f7fffa91    ....    BL       divu64_10 ; 0xe488
        0x0000ef66:    9101        ..      STR      r1,[sp,#4]
        0x0000ef68:    9000        ..      STR      r0,[sp,#0]
        0x0000ef6a:    980e        ..      LDR      r0,[sp,#0x38]
        0x0000ef6c:    9900        ..      LDR      r1,[sp,#0]
        0x0000ef6e:    eb010181    ....    ADD      r1,r1,r1,LSL #2
        0x0000ef72:    eba00041    ..A.    SUB      r0,r0,r1,LSL #1
        0x0000ef76:    9003        ..      STR      r0,[sp,#0xc]
        0x0000ef78:    9803        ..      LDR      r0,[sp,#0xc]
        0x0000ef7a:    3030        00      ADDS     r0,r0,#0x30
        0x0000ef7c:    9a05        ..      LDR      r2,[sp,#0x14]
        0x0000ef7e:    1c51        Q.      ADDS     r1,r2,#1
        0x0000ef80:    9105        ..      STR      r1,[sp,#0x14]
        0x0000ef82:    f10d011b    ....    ADD      r1,sp,#0x1b
        0x0000ef86:    5488        .T      STRB     r0,[r1,r2]
        0x0000ef88:    9800        ..      LDR      r0,[sp,#0]
        0x0000ef8a:    9901        ..      LDR      r1,[sp,#4]
        0x0000ef8c:    910f        ..      STR      r1,[sp,#0x3c]
        0x0000ef8e:    900e        ..      STR      r0,[sp,#0x38]
        0x0000ef90:    e7ff        ..      B        0xef92 ; uint64_to_str + 70
        0x0000ef92:    980e        ..      LDR      r0,[sp,#0x38]
        0x0000ef94:    990f        ..      LDR      r1,[sp,#0x3c]
        0x0000ef96:    4308        .C      ORRS     r0,r0,r1
        0x0000ef98:    2800        .(      CMP      r0,#0
        0x0000ef9a:    d1e0        ..      BNE      0xef5e ; uint64_to_str + 18
        0x0000ef9c:    e7ff        ..      B        0xef9e ; uint64_to_str + 82
        0x0000ef9e:    9805        ..      LDR      r0,[sp,#0x14]
        0x0000efa0:    9004        ..      STR      r0,[sp,#0x10]
        0x0000efa2:    980d        ..      LDR      r0,[sp,#0x34]
        0x0000efa4:    b198        ..      CBZ      r0,0xefce ; uint64_to_str + 130
        0x0000efa6:    e7ff        ..      B        0xefa8 ; uint64_to_str + 92
        0x0000efa8:    e7ff        ..      B        0xefaa ; uint64_to_str + 94
        0x0000efaa:    9805        ..      LDR      r0,[sp,#0x14]
        0x0000efac:    1e41        A.      SUBS     r1,r0,#1
        0x0000efae:    9105        ..      STR      r1,[sp,#0x14]
        0x0000efb0:    b148        H.      CBZ      r0,0xefc6 ; uint64_to_str + 122
        0x0000efb2:    e7ff        ..      B        0xefb4 ; uint64_to_str + 104
        0x0000efb4:    9905        ..      LDR      r1,[sp,#0x14]
        0x0000efb6:    f10d001b    ....    ADD      r0,sp,#0x1b
        0x0000efba:    5c40        @\      LDRB     r0,[r0,r1]
        0x0000efbc:    990d        ..      LDR      r1,[sp,#0x34]
        0x0000efbe:    1c4a        J.      ADDS     r2,r1,#1
        0x0000efc0:    920d        ..      STR      r2,[sp,#0x34]
        0x0000efc2:    7008        .p      STRB     r0,[r1,#0]
        0x0000efc4:    e7f1        ..      B        0xefaa ; uint64_to_str + 94
        0x0000efc6:    990d        ..      LDR      r1,[sp,#0x34]
        0x0000efc8:    2000        .       MOVS     r0,#0
        0x0000efca:    7008        .p      STRB     r0,[r1,#0]
        0x0000efcc:    e7ff        ..      B        0xefce ; uint64_to_str + 130
        0x0000efce:    9804        ..      LDR      r0,[sp,#0x10]
        0x0000efd0:    b010        ..      ADD      sp,sp,#0x40
        0x0000efd2:    bd80        ..      POP      {r7,pc}
    update_progress
        0x0000efd4:    b580        ..      PUSH     {r7,lr}
        0x0000efd6:    b082        ..      SUB      sp,sp,#8
        0x0000efd8:    9001        ..      STR      r0,[sp,#4]
        0x0000efda:    9801        ..      LDR      r0,[sp,#4]
        0x0000efdc:    f6446104    D..a    MOV      r1,#0x4e04
        0x0000efe0:    f2c10100    ....    MOVT     r1,#0x1000
        0x0000efe4:    6809        .h      LDR      r1,[r1,#0]
        0x0000efe6:    1a40        @.      SUBS     r0,r0,r1
        0x0000efe8:    f5b07f7a    ..z.    CMP      r0,#0x3e8
        0x0000efec:    d90d        ..      BLS      0xf00a ; update_progress + 54
        0x0000efee:    e7ff        ..      B        0xeff0 ; update_progress + 28
        0x0000eff0:    f24f607f    O..`    MOV      r0,#0xf67f
        0x0000eff4:    f2c00000    ....    MOVT     r0,#0
        0x0000eff8:    f7fefe70    ..p.    BL       am_util_stdio_printf ; 0xdcdc
        0x0000effc:    9801        ..      LDR      r0,[sp,#4]
        0x0000effe:    f6446104    D..a    MOV      r1,#0x4e04
        0x0000f002:    f2c10100    ....    MOVT     r1,#0x1000
        0x0000f006:    6008        .`      STR      r0,[r1,#0]
        0x0000f008:    e7ff        ..      B        0xf00a ; update_progress + 54
        0x0000f00a:    b002        ..      ADD      sp,sp,#8
        0x0000f00c:    bd80        ..      POP      {r7,pc}
        0x0000f00e:    0000        ..      MOVS     r0,r0
    validate_rx_buf
        0x0000f010:    b580        ..      PUSH     {r7,lr}
        0x0000f012:    b082        ..      SUB      sp,sp,#8
        0x0000f014:    9001        ..      STR      r0,[sp,#4]
        0x0000f016:    2000        .       MOVS     r0,#0
        0x0000f018:    9000        ..      STR      r0,[sp,#0]
        0x0000f01a:    e7ff        ..      B        0xf01c ; validate_rx_buf + 12
        0x0000f01c:    9800        ..      LDR      r0,[sp,#0]
        0x0000f01e:    9901        ..      LDR      r1,[sp,#4]
        0x0000f020:    4288        .B      CMP      r0,r1
        0x0000f022:    d21e        ..      BCS      0xf062 ; validate_rx_buf + 82
        0x0000f024:    e7ff        ..      B        0xf026 ; validate_rx_buf + 22
        0x0000f026:    9900        ..      LDR      r1,[sp,#0]
        0x0000f028:    f6442000    D..     MOVW     r0,#0x4a00
        0x0000f02c:    f2c10000    ....    MOVT     r0,#0x1000
        0x0000f030:    5c40        @\      LDRB     r0,[r0,r1]
        0x0000f032:    f6446100    D..a    MOVW     r1,#0x4e00
        0x0000f036:    f2c10100    ....    MOVT     r1,#0x1000
        0x0000f03a:    6809        .h      LDR      r1,[r1,#0]
        0x0000f03c:    9a00        ..      LDR      r2,[sp,#0]
        0x0000f03e:    4411        .D      ADD      r1,r1,r2
        0x0000f040:    b2c9        ..      UXTB     r1,r1
        0x0000f042:    4288        .B      CMP      r0,r1
        0x0000f044:    d008        ..      BEQ      0xf058 ; validate_rx_buf + 72
        0x0000f046:    e7ff        ..      B        0xf048 ; validate_rx_buf + 56
        0x0000f048:    9900        ..      LDR      r1,[sp,#0]
        0x0000f04a:    f24f50ce    O..P    MOV      r0,#0xf5ce
        0x0000f04e:    f2c00000    ....    MOVT     r0,#0
        0x0000f052:    f7fefe43    ..C.    BL       am_util_stdio_printf ; 0xdcdc
        0x0000f056:    e004        ..      B        0xf062 ; validate_rx_buf + 82
        0x0000f058:    e7ff        ..      B        0xf05a ; validate_rx_buf + 74
        0x0000f05a:    9800        ..      LDR      r0,[sp,#0]
        0x0000f05c:    3001        .0      ADDS     r0,#1
        0x0000f05e:    9000        ..      STR      r0,[sp,#0]
        0x0000f060:    e7dc        ..      B        0xf01c ; validate_rx_buf + 12
        0x0000f062:    9a01        ..      LDR      r2,[sp,#4]
        0x0000f064:    f6446100    D..a    MOVW     r1,#0x4e00
        0x0000f068:    f2c10100    ....    MOVT     r1,#0x1000
        0x0000f06c:    6808        .h      LDR      r0,[r1,#0]
        0x0000f06e:    4410        .D      ADD      r0,r0,r2
        0x0000f070:    6008        .`      STR      r0,[r1,#0]
        0x0000f072:    9800        ..      LDR      r0,[sp,#0]
        0x0000f074:    9901        ..      LDR      r1,[sp,#4]
        0x0000f076:    1a40        @.      SUBS     r0,r0,r1
        0x0000f078:    fab0f080    ....    CLZ      r0,r0
        0x0000f07c:    0940        @.      LSRS     r0,r0,#5
        0x0000f07e:    b002        ..      ADD      sp,sp,#8
        0x0000f080:    bd80        ..      POP      {r7,pc}
    validate_transaction
        0x0000f082:    b580        ..      PUSH     {r7,lr}
        0x0000f084:    684b        Kh      LDR      r3,[r1,#4]
        0x0000f086:    2b03        .+      CMP      r3,#3
        0x0000f088:    d805        ..      BHI      0xf096 ; validate_transaction + 20
        0x0000f08a:    f8d1c008    ....    LDR      r12,[r1,#8]
        0x0000f08e:    00db        ..      LSLS     r3,r3,#3
        0x0000f090:    fa3cf303    <...    LSRS     r3,r12,r3
        0x0000f094:    d001        ..      BEQ      0xf09a ; validate_transaction + 24
        0x0000f096:    2006        .       MOVS     r0,#6
        0x0000f098:    bd80        ..      POP      {r7,pc}
        0x0000f09a:    f891e010    ....    LDRB     lr,[r1,#0x10]
        0x0000f09e:    f8d1c00c    ....    LDR      r12,[r1,#0xc]
        0x0000f0a2:    f1be0f00    ....    CMP      lr,#0
        0x0000f0a6:    bf18        ..      IT       NE
        0x0000f0a8:    f1bc0f00    ....    CMPNE    r12,#0
        0x0000f0ac:    d10d        ..      BNE      0xf0ca ; validate_transaction + 72
        0x0000f0ae:    f1be0f01    ....    CMP      lr,#1
        0x0000f0b2:    bf18        ..      IT       NE
        0x0000f0b4:    f1bc0f00    ....    CMPNE    r12,#0
        0x0000f0b8:    d10b        ..      BNE      0xf0d2 ; validate_transaction + 80
        0x0000f0ba:    7a00        .z      LDRB     r0,[r0,#8]
        0x0000f0bc:    b168        h.      CBZ      r0,0xf0da ; validate_transaction + 88
        0x0000f0be:    2801        .(      CMP      r0,#1
        0x0000f0c0:    d115        ..      BNE      0xf0ee ; validate_transaction + 108
        0x0000f0c2:    f5bc7f00    ....    CMP      r12,#0x200
        0x0000f0c6:    d8e6        ..      BHI      0xf096 ; validate_transaction + 20
        0x0000f0c8:    e011        ..      B        0xf0ee ; validate_transaction + 108
        0x0000f0ca:    698b        .i      LDR      r3,[r1,#0x18]
        0x0000f0cc:    2b00        .+      CMP      r3,#0
        0x0000f0ce:    d1ee        ..      BNE      0xf0ae ; validate_transaction + 44
        0x0000f0d0:    e7e1        ..      B        0xf096 ; validate_transaction + 20
        0x0000f0d2:    694b        Ki      LDR      r3,[r1,#0x14]
        0x0000f0d4:    2b00        .+      CMP      r3,#0
        0x0000f0d6:    d1f0        ..      BNE      0xf0ba ; validate_transaction + 56
        0x0000f0d8:    e7dd        ..      B        0xf096 ; validate_transaction + 20
        0x0000f0da:    2000        .       MOVS     r0,#0
        0x0000f0dc:    ebb03f1c    ...?    CMP      r0,r12,LSR #12
        0x0000f0e0:    f04f0006    O...    MOV      r0,#6
        0x0000f0e4:    d105        ..      BNE      0xf0f2 ; validate_transaction + 112
        0x0000f0e6:    680b        .h      LDR      r3,[r1,#0]
        0x0000f0e8:    2b03        .+      CMP      r3,#3
        0x0000f0ea:    bf88        ..      IT       HI
        0x0000f0ec:    bd80        ..      POPHI    {r7,pc}
        0x0000f0ee:    b10a        ..      CBZ      r2,0xf0f4 ; validate_transaction + 114
        0x0000f0f0:    2000        .       MOVS     r0,#0
        0x0000f0f2:    bd80        ..      POP      {r7,pc}
        0x0000f0f4:    f8910020    .. .    LDRB     r0,[r1,#0x20]
        0x0000f0f8:    f0100fe0    ....    TST      r0,#0xe0
        0x0000f0fc:    d1cb        ..      BNE      0xf096 ; validate_transaction + 20
        0x0000f0fe:    6a48        Hj      LDR      r0,[r1,#0x24]
        0x0000f100:    f24e01e0    N...    MOV      r1,#0xe0e0
        0x0000f104:    f2c001e0    ....    MOVT     r1,#0xe0
        0x0000f108:    4208        .B      TST      r0,r1
        0x0000f10a:    d1c4        ..      BNE      0xf096 ; validate_transaction + 20
        0x0000f10c:    e7f0        ..      B        0xf0f0 ; validate_transaction + 110
        0x0000f10e:    0000        ..      MOVS     r0,r0
    $t
    x$fpl$d2f
    $v0
    __aeabi_d2f
    _d2f
        0x0000f110:    f0214200    !..B    BIC      r2,r1,#0x80000000
        0x0000f114:    f0014300    ...C    AND      r3,r1,#0x80000000
        0x0000f118:    f1a25260    ..`R    SUB      r2,r2,#0x38000000
        0x0000f11c:    f5b21f80    ....    CMP      r2,#0x100000
        0x0000f120:    bf28        (.      IT       CS
        0x0000f122:    f1d26c7f    ...l    RSBSCS   r12,r2,#0xff00000
        0x0000f126:    d90b        ..      BLS      0xf140 ; __aeabi_d2f + 48
        0x0000f128:    ea5f1c00    _...    LSLS     r12,r0,#4
        0x0000f12c:    ea4302c2    C...    ORR      r2,r3,r2,LSL #3
        0x0000f130:    eb427050    B.Pp    ADC      r0,r2,r0,LSR #29
        0x0000f134:    bf18        ..      IT       NE
        0x0000f136:    4770        pG      BXNE     lr
        0x0000f138:    bf28        (.      IT       CS
        0x0000f13a:    f0200001     ...    BICCS    r0,r0,#1
        0x0000f13e:    4770        pG      BX       lr
        0x0000f140:    f5b21f80    ....    CMP      r2,#0x100000
        0x0000f144:    bfbc        ..      ITT      LT
        0x0000f146:    4618        .F      MOVLT    r0,r3
        0x0000f148:    4770        pG      BXLT     lr
        0x0000f14a:    ea4f0c41    O.A.    LSL      r12,r1,#1
        0x0000f14e:    f51c1f00    ....    CMN      r12,#0x200000
        0x0000f152:    d202        ..      BCS      0xf15a ; __aeabi_d2f + 74
        0x0000f154:    4608        .F      MOV      r0,r1
        0x0000f156:    f000b867    ..g.    B.W      __fpl_fretinf ; 0xf228
        0x0000f15a:    b570        p.      PUSH     {r4-r6,lr}
        0x0000f15c:    f000f809    ....    BL       __fpl_dnaninf ; 0xf172
    $d
        0x0000f160:    89000000    ....    DCD    2298478592
    $t
        0x0000f164:    f7ffbff6    ....    B.W      0xf154 ; __aeabi_d2f + 68
        0x0000f168:    f04f4000    O..@    MOV      r0,#0x80000000
        0x0000f16c:    f5a00080    ....    SUB      r0,r0,#0x400000
        0x0000f170:    4770        pG      BX       lr
    x$fpl$dnaninf
    $v0
    __fpl_dnaninf
        0x0000f172:    f10e0e02    ....    ADD      lr,lr,#2
        0x0000f176:    f02e0e03    ....    BIC      lr,lr,#3
        0x0000f17a:    f85e6b04    ^..k    LDR      r6,[lr],#4
        0x0000f17e:    4236        6B      TST      r6,r6
        0x0000f180:    d405        ..      BMI      0xf18e ; __fpl_dnaninf + 28
        0x0000f182:    2a01        .*      CMP      r2,#1
        0x0000f184:    eb430503    C...    ADC      r5,r3,r3
        0x0000f188:    f5151f00    ....    CMN      r5,#0x200000
        0x0000f18c:    d812        ..      BHI      0xf1b4 ; __fpl_dnaninf + 66
        0x0000f18e:    2801        .(      CMP      r0,#1
        0x0000f190:    eb410c01    A...    ADC      r12,r1,r1
        0x0000f194:    f51c1f00    ....    CMN      r12,#0x200000
        0x0000f198:    d80c        ..      BHI      0xf1b4 ; __fpl_dnaninf + 66
        0x0000f19a:    d10e        ..      BNE      0xf1ba ; __fpl_dnaninf + 72
        0x0000f19c:    ea4f7cd1    O..|    LSR      r12,r1,#31
        0x0000f1a0:    eb0c0c4c    ..L.    ADD      r12,r12,r12,LSL #1
        0x0000f1a4:    f10c0c02    ....    ADD      r12,r12,#2
        0x0000f1a8:    f5151f00    ....    CMN      r5,#0x200000
        0x0000f1ac:    bf08        ..      IT       EQ
        0x0000f1ae:    eb4c7cd3    L..|    ADCEQ    r12,r12,r3,LSR #31
        0x0000f1b2:    e004        ..      B        0xf1be ; __fpl_dnaninf + 76
        0x0000f1b4:    f04f0c08    O...    MOV      r12,#8
        0x0000f1b8:    e001        ..      B        0xf1be ; __fpl_dnaninf + 76
        0x0000f1ba:    ea4f7cd3    O..|    LSR      r12,r3,#31
        0x0000f1be:    eb0c054c    ..L.    ADD      r5,r12,r12,LSL #1
        0x0000f1c2:    fa26f605    &...    LSR      r6,r6,r5
        0x0000f1c6:    f0060607    ....    AND      r6,r6,#7
        0x0000f1ca:    f1b60c04    ....    SUBS     r12,r6,#4
        0x0000f1ce:    d206        ..      BCS      0xf1de ; __fpl_dnaninf + 108
        0x0000f1d0:    eb0e0c86    ....    ADD      r12,lr,r6,LSL #2
        0x0000f1d4:    e8bd4070    ..p@    POP      {r4-r6,lr}
        0x0000f1d8:    f04c0c01    L...    ORR      r12,r12,#1
        0x0000f1dc:    4760        `G      BX       r12
        0x0000f1de:    e8dff00c    ....    TBB      [pc,r12]
    $d
        0x0000f1e2:    0b09        ..      DCW    2825
        0x0000f1e4:    0202        ..      DCW    514
    $t
        0x0000f1e6:    f04f4100    O..A    MOV      r1,#0x80000000
        0x0000f1ea:    f5a12100    ...!    SUB      r1,r1,#0x80000
        0x0000f1ee:    f04f0000    O...    MOV      r0,#0
        0x0000f1f2:    bd70        p.      POP      {r4-r6,pc}
        0x0000f1f4:    4619        .F      MOV      r1,r3
        0x0000f1f6:    4610        .F      MOV      r0,r2
        0x0000f1f8:    2801        .(      CMP      r0,#1
        0x0000f1fa:    eb510401    Q...    ADCS     r4,r1,r1
        0x0000f1fe:    bf18        ..      IT       NE
        0x0000f200:    f5d41400    ....    RSBSNE   r4,r4,#0x200000
        0x0000f204:    bf84        ..      ITT      HI
        0x0000f206:    2000        .       MOVHI    r0,#0
        0x0000f208:    f0014100    ...A    ANDHI    r1,r1,#0x80000000
        0x0000f20c:    bd70        p.      POP      {r4-r6,pc}
    x$fpl$fpinit
    $v0
    _fp_init
        0x0000f20e:    eef10a10    ....    VMRS     r0,FPSCR
        0x0000f212:    f64f71ff    O..q    MOV      r1,#0xffff
        0x0000f216:    f2c031c0    ...1    MOVT     r1,#0x3c0
        0x0000f21a:    ea200001     ...    BIC      r0,r0,r1
        0x0000f21e:    f0407040    @.@p    ORR      r0,r0,#0x3000000
        0x0000f222:    eee10a10    ....    VMSR     FPSCR,r0
    __fplib_config_fpu_vfp
    __fplib_config_pureend_doubles
        0x0000f226:    4770        pG      BX       lr
    x$fpl$fretinf
    $v0
    __fpl_fretinf
        0x0000f228:    21ff        .!      MOVS     r1,#0xff
        0x0000f22a:    ea4150d0    A..P    ORR      r0,r1,r0,LSR #23
        0x0000f22e:    05c0        ..      LSLS     r0,r0,#23
        0x0000f230:    4770        pG      BX       lr
    x$fpl$usenofp
    __I$use$fp
        0x0000f232:    0000        ..      MOVS     r0,r0
    $d.realdata
    .L__const.am_hal_flash_store_ui32.SRAM_write_ui32
        0x0000f234:    bf006001    .`..    DCD    3204472833
        0x0000f238:    bf006800    .h..    DCD    3204474880
        0x0000f23c:    bf004770    pG..    DCD    3204466544
    am_hal_cachectrl_defaults
        0x0000f240:    00000308    ....    DCD    776
    am_hal_pwrctrl_peripheral_control
        0x0000f244:    00000000    ....    DCD    0
        0x0000f248:    00000000    ....    DCD    0
        0x0000f24c:    00000000    ....    DCD    0
        0x0000f250:    00000001    ....    DCD    1
        0x0000f254:    00000004    ....    DCD    4
        0x0000f258:    00000004    ....    DCD    4
        0x0000f25c:    00000002    ....    DCD    2
        0x0000f260:    00000008    ....    DCD    8
        0x0000f264:    00000008    ....    DCD    8
        0x0000f268:    00000004    ....    DCD    4
        0x0000f26c:    00000008    ....    DCD    8
        0x0000f270:    00000008    ....    DCD    8
        0x0000f274:    00000008    ....    DCD    8
        0x0000f278:    00000008    ....    DCD    8
        0x0000f27c:    00000008    ....    DCD    8
        0x0000f280:    00000010    ....    DCD    16
        0x0000f284:    00000010    ....    DCD    16
        0x0000f288:    00000010    ....    DCD    16
        0x0000f28c:    00000020     ...    DCD    32
        0x0000f290:    00000010    ....    DCD    16
        0x0000f294:    00000010    ....    DCD    16
        0x0000f298:    00000040    @...    DCD    64
        0x0000f29c:    00000010    ....    DCD    16
        0x0000f2a0:    00000010    ....    DCD    16
        0x0000f2a4:    00000080    ....    DCD    128
        0x0000f2a8:    00000004    ....    DCD    4
        0x0000f2ac:    00000004    ....    DCD    4
        0x0000f2b0:    00000100    ....    DCD    256
        0x0000f2b4:    00000004    ....    DCD    4
        0x0000f2b8:    00000004    ....    DCD    4
        0x0000f2bc:    00000200    ....    DCD    512
        0x0000f2c0:    00000020     ...    DCD    32
        0x0000f2c4:    00000020     ...    DCD    32
        0x0000f2c8:    00000400    ....    DCD    1024
        0x0000f2cc:    00000004    ....    DCD    4
        0x0000f2d0:    00000004    ....    DCD    4
        0x0000f2d4:    00000800    ....    DCD    2048
        0x0000f2d8:    00000040    @...    DCD    64
        0x0000f2dc:    00000040    @...    DCD    64
        0x0000f2e0:    00001000    ....    DCD    4096
        0x0000f2e4:    00000080    ....    DCD    128
        0x0000f2e8:    00000080    ....    DCD    128
        0x0000f2ec:    00002000    . ..    DCD    8192
        0x0000f2f0:    00000100    ....    DCD    256
        0x0000f2f4:    00000100    ....    DCD    256
    gAmHalCmdQReg
        0x0000f2f8:    50004294    .B.P    DCD    1342194324
        0x0000f2fc:    50004298    .B.P    DCD    1342194328
        0x0000f300:    500042ac    .B.P    DCD    1342194348
        0x0000f304:    500042b0    .B.P    DCD    1342194352
        0x0000f308:    500042a8    .B.P    DCD    1342194344
        0x0000f30c:    00008000    ....    DCD    32768
        0x0000f310:    5000429c    .B.P    DCD    1342194332
        0x0000f314:    00000001    ....    DCD    1
        0x0000f318:    00000004    ....    DCD    4
        0x0000f31c:    00000002    ....    DCD    2
        0x0000f320:    50005294    .R.P    DCD    1342198420
        0x0000f324:    50005298    .R.P    DCD    1342198424
        0x0000f328:    500052ac    .R.P    DCD    1342198444
        0x0000f32c:    500052b0    .R.P    DCD    1342198448
        0x0000f330:    500052a8    .R.P    DCD    1342198440
        0x0000f334:    00008000    ....    DCD    32768
        0x0000f338:    5000529c    .R.P    DCD    1342198428
        0x0000f33c:    00000001    ....    DCD    1
        0x0000f340:    00000004    ....    DCD    4
        0x0000f344:    00000002    ....    DCD    2
        0x0000f348:    50006294    .b.P    DCD    1342202516
        0x0000f34c:    50006298    .b.P    DCD    1342202520
        0x0000f350:    500062ac    .b.P    DCD    1342202540
        0x0000f354:    500062b0    .b.P    DCD    1342202544
        0x0000f358:    500062a8    .b.P    DCD    1342202536
        0x0000f35c:    00008000    ....    DCD    32768
        0x0000f360:    5000629c    .b.P    DCD    1342202524
        0x0000f364:    00000001    ....    DCD    1
        0x0000f368:    00000004    ....    DCD    4
        0x0000f36c:    00000002    ....    DCD    2
        0x0000f370:    50007294    .r.P    DCD    1342206612
        0x0000f374:    50007298    .r.P    DCD    1342206616
        0x0000f378:    500072ac    .r.P    DCD    1342206636
        0x0000f37c:    500072b0    .r.P    DCD    1342206640
        0x0000f380:    500072a8    .r.P    DCD    1342206632
        0x0000f384:    00008000    ....    DCD    32768
        0x0000f388:    5000729c    .r.P    DCD    1342206620
        0x0000f38c:    00000001    ....    DCD    1
        0x0000f390:    00000004    ....    DCD    4
        0x0000f394:    00000002    ....    DCD    2
        0x0000f398:    50008294    ...P    DCD    1342210708
        0x0000f39c:    50008298    ...P    DCD    1342210712
        0x0000f3a0:    500082ac    ...P    DCD    1342210732
        0x0000f3a4:    500082b0    ...P    DCD    1342210736
        0x0000f3a8:    500082a8    ...P    DCD    1342210728
        0x0000f3ac:    00008000    ....    DCD    32768
        0x0000f3b0:    5000829c    ...P    DCD    1342210716
        0x0000f3b4:    00000001    ....    DCD    1
        0x0000f3b8:    00000004    ....    DCD    4
        0x0000f3bc:    00000002    ....    DCD    2
        0x0000f3c0:    50009294    ...P    DCD    1342214804
        0x0000f3c4:    50009298    ...P    DCD    1342214808
        0x0000f3c8:    500092ac    ...P    DCD    1342214828
        0x0000f3cc:    500092b0    ...P    DCD    1342214832
        0x0000f3d0:    500092a8    ...P    DCD    1342214824
        0x0000f3d4:    00008000    ....    DCD    32768
        0x0000f3d8:    5000929c    ...P    DCD    1342214812
        0x0000f3dc:    00000001    ....    DCD    1
        0x0000f3e0:    00000004    ....    DCD    4
        0x0000f3e4:    00000002    ....    DCD    2
        0x0000f3e8:    500142a0    .B.P    DCD    1342259872
        0x0000f3ec:    500142a8    .B.P    DCD    1342259880
        0x0000f3f0:    500142c0    .B.P    DCD    1342259904
        0x0000f3f4:    500142c4    .B.P    DCD    1342259908
        0x0000f3f8:    500142b8    .B.P    DCD    1342259896
        0x0000f3fc:    00004000    .@..    DCD    16384
        0x0000f400:    500142ac    .B.P    DCD    1342259884
        0x0000f404:    00000001    ....    DCD    1
        0x0000f408:    00000004    ....    DCD    4
        0x0000f40c:    00000008    ....    DCD    8
        0x0000f410:    5000c248    H..P    DCD    1342227016
        0x0000f414:    5000c24c    L..P    DCD    1342227020
        0x0000f418:    5000c260    `..P    DCD    1342227040
        0x0000f41c:    5000c264    d..P    DCD    1342227044
        0x0000f420:    5000c25c    \..P    DCD    1342227036
        0x0000f424:    00008000    ....    DCD    32768
        0x0000f428:    5000c250    P..P    DCD    1342227024
        0x0000f42c:    00000001    ....    DCD    1
        0x0000f430:    00000004    ....    DCD    4
        0x0000f434:    00000002    ....    DCD    2
    g_AM_BSP_GPIO_HANDSHAKE
        0x0000f438:    00001003    ....    DCD    4099
    g_AM_BSP_GPIO_IOM0_CS
        0x0000f43c:    00000701    ....    DCD    1793
    g_AM_BSP_GPIO_IOM0_MISO
        0x0000f440:    00000001    ....    DCD    1
    g_AM_BSP_GPIO_IOM0_MOSI
        0x0000f444:    00000301    ....    DCD    769
    g_AM_BSP_GPIO_IOM0_SCK
        0x0000f448:    00000301    ....    DCD    769
    g_AM_BSP_GPIO_IOM0_SCL
        0x0000f44c:    00000b40    @...    DCD    2880
    g_AM_BSP_GPIO_IOM0_SDA
        0x0000f450:    00000b40    @...    DCD    2880
    g_AM_BSP_GPIO_IOM1_CS
        0x0000f454:    00110701    ....    DCD    1115905
    g_AM_BSP_GPIO_IOM1_MISO
        0x0000f458:    00010001    ....    DCD    65537
    g_AM_BSP_GPIO_IOM1_MOSI
        0x0000f45c:    00010301    ....    DCD    66305
    g_AM_BSP_GPIO_IOM1_SCK
        0x0000f460:    00010301    ....    DCD    66305
    g_AM_BSP_GPIO_IOM1_SCL
        0x0000f464:    00010b40    @...    DCD    68416
    g_AM_BSP_GPIO_IOM1_SDA
        0x0000f468:    00010b40    @...    DCD    68416
    g_AM_BSP_GPIO_IOM2_CS
        0x0000f46c:    001a0701    ....    DCD    1705729
    g_AM_BSP_GPIO_IOM2_MISO
        0x0000f470:    00020005    ....    DCD    131077
    g_AM_BSP_GPIO_IOM2_MOSI
        0x0000f474:    00020305    ....    DCD    131845
    g_AM_BSP_GPIO_IOM2_SCK
        0x0000f478:    00020305    ....    DCD    131845
    g_AM_BSP_GPIO_IOM2_SCL
        0x0000f47c:    00020b44    D...    DCD    133956
    g_AM_BSP_GPIO_IOM2_SDA
        0x0000f480:    00020b44    D...    DCD    133956
    g_AM_BSP_GPIO_IOM3_CS
        0x0000f484:    00030701    ....    DCD    198401
    g_AM_BSP_GPIO_IOM3_MISO
        0x0000f488:    00030005    ....    DCD    196613
    g_AM_BSP_GPIO_IOM3_MOSI
        0x0000f48c:    00030305    ....    DCD    197381
    g_AM_BSP_GPIO_IOM3_SCK
        0x0000f490:    00030305    ....    DCD    197381
    g_AM_BSP_GPIO_IOM3_SCL
        0x0000f494:    00030b44    D...    DCD    199492
    g_AM_BSP_GPIO_IOM3_SDA
        0x0000f498:    00030b44    D...    DCD    199492
    g_AM_BSP_GPIO_IOM4_CS
        0x0000f49c:    000c0701    ....    DCD    788225
    g_AM_BSP_GPIO_IOM4_MISO
        0x0000f4a0:    00040005    ....    DCD    262149
    g_AM_BSP_GPIO_IOM4_MOSI
        0x0000f4a4:    00040305    ....    DCD    262917
    g_AM_BSP_GPIO_IOM4_SCK
        0x0000f4a8:    00040305    ....    DCD    262917
    g_AM_BSP_GPIO_IOM4_SCL
        0x0000f4ac:    00040b44    D...    DCD    265028
    g_AM_BSP_GPIO_IOM4_SDA
        0x0000f4b0:    00040b44    D...    DCD    265028
    g_AM_BSP_GPIO_IOM5_CS
        0x0000f4b4:    00050701    ....    DCD    329473
    g_AM_BSP_GPIO_IOM5_MISO
        0x0000f4b8:    00050005    ....    DCD    327685
    g_AM_BSP_GPIO_IOM5_MOSI
        0x0000f4bc:    00050305    ....    DCD    328453
    g_AM_BSP_GPIO_IOM5_SCK
        0x0000f4c0:    00050305    ....    DCD    328453
    g_AM_BSP_GPIO_IOM5_SCL
        0x0000f4c4:    00050b44    D...    DCD    330564
    g_AM_BSP_GPIO_IOM5_SDA
        0x0000f4c8:    00050b44    D...    DCD    330564
    g_AM_BSP_GPIO_ITM_SWO
        0x0000f4cc:    00000002    ....    DCD    2
    g_AM_HAL_GPIO_OUTPUT
        0x0000f4d0:    00000403    ....    DCD    1027
    g_ui8Inpen
        0x0000f4d4:    62272323    ##'b    DCD    1646732067
        0x0000f4d8:    108703a1    ....    DCD    277283745
        0x0000f4dc:    e1005303    .S..    DCD    3774894851
        0x0000f4e0:    55418151    Q.AU    DCD    1430356305
        0x0000f4e4:    4080c405    ...@    DCD    1082180613
        0x0000f4e8:    4140b101    ..@A    DCD    1094758657
        0x0000f4ec:    31a03114    .1.1    DCD    832581908
        0x0000f4f0:    1180f100    ....    DCD    293662976
        0x0000f4f4:    11c12191    .!..    DCD    297869713
        0x0000f4f8:    304511e5    ..E0    DCD    809832933
        0x0000f4fc:    31300037    7.01    DCD    825229367
        0x0000f500:    40007100    .q.@    DCD    1073770752
        0x0000f504:    3130        01      DCW    12592
    g_ui8NCEtable
        0x0000f506:    4232        2B      DCW    16946
        0x0000f508:    12021352    R...    DCD    302125906
        0x0000f50c:    43336022    "`3C    DCD    1127440418
        0x0000f510:    40302153    S!0@    DCD    1076896083
        0x0000f514:    41312050    P 1A    DCD    1093738576
        0x0000f518:    ffff1151    Q...    DCD    4294906193
        0x0000f51c:    ffffffff    ....    DCD    4294967295
        0x0000f520:    4131ffff    ..1A    DCD    1093795839
        0x0000f524:    40306051    Q`0@    DCD    1076912209
        0x0000f528:    43330050    P.3C    DCD    1127415888
        0x0000f52c:    42322353    S#2B    DCD    1110582099
        0x0000f530:    10006052    R`..    DCD    268460114
        0x0000f534:    40303020     00@    DCD    1076899872
        0x0000f538:    41316150    Pa1A    DCD    1093755216
        0x0000f53c:    12020151    Q...    DCD    302121297
        0x0000f540:    13034222    "B..    DCD    318980642
        0x0000f544:    10006023    #`..    DCD    268460067
        0x0000f548:    11015020     P..    DCD    285298720
        0x0000f54c:    12024121    !A..    DCD    302137633
        0x0000f550:    13033222    "2..    DCD    318976546
        0x0000f554:    41316033    3`1A    DCD    1093754931
        0x0000f558:    42322151    Q!2B    DCD    1110581585
        0x0000f55c:    43332252    R"3C    DCD    1127424594
        0x0000f560:    10000353    S...    DCD    268436307
        0x0000f564:    11014020     @..    DCD    285294624
        0x0000f568:    42325121    !Q2B    DCD    1110593825
        0x0000f56c:    43330252    R.3C    DCD    1127416402
        0x0000f570:    40301353    S.0@    DCD    1076892499
        0x0000f574:    41311050    P.1A    DCD    1093734480
        0x0000f578:    42326051    Q`2B    DCD    1110597713
        0x0000f57c:    43331252    R.3C    DCD    1127420498
        0x0000f580:    10000353    S...    DCD    268436307
        0x0000f584:    11014020     @..    DCD    285294624
        0x0000f588:    12026121    !a..    DCD    302145825
        0x0000f58c:    13035222    "R..    DCD    318984738
        0x0000f590:    10003323    #3..    DCD    268448547
        0x0000f594:    41313020     01A    DCD    1093742624
        0x0000f598:    42326151    Qa2B    DCD    1110597969
        0x0000f59c:    13030252    R...    DCD    318964306
        0x0000f5a0:    ffff5333    3S..    DCD    4294923059
        0x0000f5a4:    ffffffff    ....    DCD    4294967295
        0x0000f5a8:    1101ffff    ....    DCD    285343743
        0x0000f5ac:    10006121    !a..    DCD    268460321
        0x0000f5b0:    11015020     P..    DCD    285298720
        0x0000f5b4:    12026121    !a..    DCD    302145825
        0x0000f5b8:    43335222    "R3C    DCD    1127436834
        0x0000f5bc:    40301353    S.0@    DCD    1076892499
        0x0000f5c0:    11016150    Pa..    DCD    285303120
        0x0000f5c4:    12023121    !1..    DCD    302133537
        0x0000f5c8:    13033222    "2..    DCD    318976546
        0x0000f5cc:    4323        #C      DCW    17187
    .L.str
        0x0000f5ce:    6146        Fa      DCW    24902
        0x0000f5d0:    64656c69    iled    DCD    1684368489
        0x0000f5d4:    206f7420     to     DCD    544175136
        0x0000f5d8:    706d6f63    comp    DCD    1886220131
        0x0000f5dc:    20657261    are     DCD    543519329
        0x0000f5e0:    66667562    buff    DCD    1717990754
        0x0000f5e4:    20737265    ers     DCD    544436837
        0x0000f5e8:    69207461    at i    DCD    1763734625
        0x0000f5ec:    7865646e    ndex    DCD    2019910766
        0x0000f5f0:    20642520     %d     DCD    543434016
        0x0000f5f4:    000a        ..      DCW    10
    .L.str.4
        0x0000f5f6:    540a        .T      DCW    21514
        0x0000f5f8:    20747365    est     DCD    544502629
        0x0000f5fc:    656e6f44    Done    DCD    1701736260
        0x0000f600:    54202d20     - T    DCD    1411394848
        0x0000f604:    6c61746f    otal    DCD    1818326127
        0x0000f608:    63655220     Rec    DCD    1667584544
        0x0000f60c:    65766965    eive    DCD    1702259045
        0x0000f610:    203d2064    d =     DCD    540876900
        0x0000f614:    0a64253d    =%d.    DCD    174335293
        0x0000f618:    00          .       DCB    0
    .L.str.3
        0x0000f619:    0a4461      .Da     DCB    10,68,97
        0x0000f61c:    56206174    ta V    DCD    1444962676
        0x0000f620:    66697265    erif    DCD    1718186597
        0x0000f624:    74616369    icat    DCD    1952539497
        0x0000f628:    206e6f69    ion     DCD    544108393
        0x0000f62c:    6c696166    fail    DCD    1818845542
        0x0000f630:    41206465    ed A    DCD    1092641893
        0x0000f634:    6d756363    ccum    DCD    1836409699
        0x0000f638:    756c253a    :%lu    DCD    1970021690
        0x0000f63c:    3d787220     rx=    DCD    1031303712
        0x0000f640:    000a6425    %d..    DCD    680997
    .L.str.2
        0x0000f644:    20534f49    IOS     DCD    542330697
        0x0000f648:    74736554    Test    DCD    1953719636
        0x0000f64c:    736f4820     Hos    DCD    1936672800
        0x0000f650:    57203a74    t: W    DCD    1461729908
        0x0000f654:    69746961    aiti    DCD    1769236833
        0x0000f658:    6620676e    ng f    DCD    1713399662
        0x0000f65c:    6120726f    or a    DCD    1629516399
        0x0000f660:    656c2074    t le    DCD    1701585012
        0x0000f664:    20747361    ast     DCD    544502625
        0x0000f668:    62206425    %d b    DCD    1646289957
        0x0000f66c:    73657479    ytes    DCD    1936028793
        0x0000f670:    6f726620     fro    DCD    1869768224
        0x0000f674:    6874206d    m th    DCD    1752440941
        0x0000f678:    6c732065    e sl    DCD    1819484261
        0x0000f67c:    7661        av      DCW    30305
        0x0000f67e:    65          e       DCB    101
    .L.str.1
        0x0000f67f:    2e          .       DCB    46
        0x0000f680:    00          .       DCB    0
    .L.str
        0x0000f681:    0a0a0a      ...     DCB    10,10,10
        0x0000f684:    0a0a0a0a    ....    DCD    168430090
        0x0000f688:    0a0a0a0a    ....    DCD    168430090
        0x0000f68c:    0a0a0a0a    ....    DCD    168430090
        0x0000f690:    000a0a0a    ....    DCD    657930
    Region$$Table$$Base
        0x0000f694:    0000f6b8    ....    DCD    63160
        0x0000f698:    10000000    ....    DCD    268435456
        0x0000f69c:    00000050    P...    DCD    80
        0x0000f6a0:    0000c170    p...    DCD    49520
        0x0000f6a4:    0000f708    ....    DCD    63240
        0x0000f6a8:    10000050    P...    DCD    268435536
        0x0000f6ac:    00004f50    PO..    DCD    20304
        0x0000f6b0:    0000c18c    ....    DCD    49548
    Region$$Table$$Limit

** Section #2 'SRAM' (SHT_PROGBITS) [SHF_ALLOC + SHF_WRITE]
    Size   : 80 bytes (alignment 8)
    Address: 0x10000000

    0x10000000:   0a 00 00 00 03 00 00 00 1e 00 00 00 03 00 00 00    ................
    0x10000010:   0f 00 00 00 03 00 00 00 0e 00 00 00 03 00 00 00    ................
    0x10000020:   11 00 00 00 03 00 00 00 01 00 00 00 40 42 0f 00    ............@B..
    0x10000030:   00 00 00 00 00 00 00 00 00 00 00 00 00 00 00 00    ................
    0x10000040:   00 09 3d 00 00 00 00 00 00 00 00 00 00 00 00 00    ..=.............


** Section #3 'SRAM' (SHT_NOBITS) [SHF_ALLOC + SHF_WRITE]
    Size   : 20304 bytes (alignment 8)
    Address: 0x10000050


** Section #4 '.debug_abbrev' (SHT_PROGBITS)
    Size   : 1063 bytes


** Section #5 '.debug_frame' (SHT_PROGBITS)
    Size   : 5828 bytes


** Section #6 '.debug_info' (SHT_PROGBITS)
    Size   : 5573 bytes


** Section #7 '.debug_line' (SHT_PROGBITS)
    Size   : 5681 bytes


** Section #8 '.debug_str' (SHT_PROGBITS)
    Size   : 4320 bytes


** Section #9 '.debug_ranges' (SHT_PROGBITS)
    Size   : 288 bytes


** Section #10 '.symtab' (SHT_SYMTAB)
    Size   : 7088 bytes (alignment 4)
    String table #11 '.strtab'
    Last local symbol no. 219

    Symbol table .symtab (442 symbols, 219 local)

      #  Symbol Name                Value      Bind  Sec  Type  Vis  Size
    ========================================================================

      1  $d                         0x0000c000   Lc    1   --   De 
      2  $t                         0x0000c100   Lc    1   --   De 
      3  $d                         0x0000c130   Lc    1   --   De 
      4  $t                         0x0000c134   Lc    1   --   De 
      5  $d                         0x0000c168   Lc    1   --   De 
      6  $t                         0x0000c170   Lc    1   --   De 
      7  $d                         0x0000c1de   Lc    1   --   De 
      8  $t                         0x0000c1ec   Lc    1   --   De 
      9  $d                         0x0000c254   Lc    1   --   De 
     10  $t                         0x0000c258   Lc    1   --   De 
     11  $d                         0x0000c260   Lc    1   --   De 
     12  $t                         0x0000c264   Lc    1   --   De 
     13  $t.9                       0x0000c268   Lc    1   --   De 
     14  $d.9                       0x0000c2ae   Lc    1   --   De 
     15  $t.10                      0x0000c2da   Lc    1   --   De 
     16  $d.4                       0x0000c612   Lc    1   --   De 
     17  $t.5                       0x0000c624   Lc    1   --   De 
     18  $d.1                       0x0000c7a4   Lc    1   --   De 
     19  $t.2                       0x0000c7ae   Lc    1   --   De 
     20  $d.1                       0x0000cd9c   Lc    1   --   De 
     21  $t.2                       0x0000cda0   Lc    1   --   De 
     22  $d.3                       0x0000ce4c   Lc    1   --   De 
     23  $t.7                       0x0000ceb4   Lc    1   --   De 
     24  $d.8                       0x0000ceea   Lc    1   --   De 
     25  $t.9                       0x0000cef0   Lc    1   --   De 
     26  $d.4                       0x0000de96   Lc    1   --   De 
     27  $t.5                       0x0000defc   Lc    1   --   De 
     28  $t                         0x0000f110   Lc    1   --   De 
     29  $d                         0x0000f160   Lc    1   --   De 
     30  $t                         0x0000f164   Lc    1   --   De 
     31  $d                         0x0000f1e2   Lc    1   --   De 
     32  $t                         0x0000f1e6   Lc    1   --   De 
     33  $d.realdata                0x0000f234   Lc    1   --   De 
     34  $d.realdata                0x10000000   Lc    2   --   De 
     35  ios_fifo_host.c            0x00000000   Lc  Abs  File  De 
     36  iom_set_up                 0x0000e8f9   Lc    1  Code  De   0xe6
     37  hostint_handler            0x0000e7d1   Lc    1  Code  De   0xe
     38  __NVIC_EnableIRQ           0x0000c269   Lc    1  Code  De   0x30
     39  .L.str                     0x0000f5ce   Lc    1  Data  De   0x28
     40  .L.str.4                   0x0000f5f6   Lc    1  Data  De   0x23
     41  .L.str.3                   0x0000f619   Lc    1  Data  De   0x2b
     42  .L.str.2                   0x0000f644   Lc    1  Data  De   0x3d
     43  .L.str.1                   0x0000f67f   Lc    1  Data  De   0x2
     44  g_sIOMSpiConfig            0x1000003c   Lc    2  Data  De   0x14
     45  g_sIOMI2cConfig            0x10000028   Lc    2  Data  De   0x14
     46  am_util_delay.c            0x00000000   Lc  Abs  File  De 
     47  am_util_stdio.c            0x00000000   Lc  Abs  File  De 
     48  decstr_to_int              0x0000e3e1   Lc    1  Code  De   0xa6
     49  simple_strlen              0x0000ee55   Lc    1  Code  De   0x36
     50  padbuffer                  0x0000ed3d   Lc    1  Code  De   0x50
     51  ndigits_in_hex             0x0000ec91   Lc    1  Code  De   0x3e
     52  uint64_to_hexstr           0x0000ee8d   Lc    1  Code  De   0xc0
     53  ndigits_in_u64             0x0000ed01   Lc    1  Code  De   0x3c
     54  uint64_to_str              0x0000ef4d   Lc    1  Code  De   0x88
     55  ndigits_in_i64             0x0000ecd1   Lc    1  Code  De   0x30
     56  ftoa                       0x0000e5a1   Lc    1  Code  De   0x230
     57  divu64_10                  0x0000e489   Lc    1  Code  De   0x118
     58  g_bTxtXlate                0x100045f8   Lc    3  Data  De   0x1
     59  g_prfbuf                   0x10004600   Lc    3  Data  De   0x400
     60  .L.str                     0x0000f681   Lc    1  Data  De   0x13
     61  ../keil6/startup_keil6.s   0x00000000   Lc  Abs  File  De 
     62  STACK                      0x10000050   Lc    3  Sect  De   0x1000
     63  StackMem                   0x10000050   Lc    3  Data  De 
     64  HEAP                       0x10004fa0   Lc    3  Sect  De 
     65  HeapMem                    0x10004fa0   Lc    3  Data  De 
     66  RESET                      0x0000c000   Lc    1  Sect  De   0x134
     67  $v0                        0x0000c100   Lc    1   --   De 
     68  .text                      0x0000c1d4   Lc    1  Sect  De   0x18
     69  $v0                        0x0000c1d4   Lc    1   --   De 
     70  am_hal_global.c            0x00000000   Lc  Abs  File  De 
     71  am_bsp.c                   0x00000000   Lc  Abs  File  De 
     72  g_ui32PrintInterface       0x10004e08   Lc    3  Data  De   0x4
     73  am_hal_cachectrl.c         0x00000000   Lc  Abs  File  De 
     74  set_LPMMODE                0x0000ed8d   Lc    1  Code  De   0x42
     75  set_SEDELAY                0x0000ee11   Lc    1  Code  De   0x42
     76  set_RDWAIT                 0x0000edcf   Lc    1  Code  De   0x42
     77  am_hal_clkgen.c            0x00000000   Lc  Abs  File  De 
     78  am_hal_flash.c             0x00000000   Lc  Abs  File  De 
     79  .L__const.am_hal_flash_store_ui32.SRAM_write_ui32
                                    0x0000f234   Lc    1  Data  De   0xc
     80  am_hal_gpio.c              0x00000000   Lc  Abs  File  De 
     81  g_ui8Bit76Capabilities     0x0000ce4c   Lc    1   --   De 
     82  g_ui8nCEpins               0x0000ce80   Lc    1   --   De 
     83  g_ui8Inpen                 0x0000f4d4   Lc    1  Data  De   0x32
     84  g_ui8NCEtable              0x0000f506   Lc    1  Data  De   0xc8
     85  gpio_ppfnHandlers          0x10004ed4   Lc    3  Data  De   0xc8
     86  gpio_pHandlerCtxt          0x10004e0c   Lc    3  Data  De   0xc8
     87  am_hal_interrupt.c         0x00000000   Lc  Abs  File  De 
     88  am_hal_iom.c               0x00000000   Lc  Abs  File  De 
     89  internal_iom_reset_on_error
                                    0x0000e7e1   Lc    1  Code  De   0x116
     90  am_hal_sysctrl.c           0x00000000   Lc  Abs  File  De 
     91  am_bsp_pins.c              0x00000000   Lc  Abs  File  De 
     92  am_hal_cmdq.c              0x00000000   Lc  Abs  File  De 
     93  gAmHalCmdq                 0x100010b4   Lc    3  Data  De   0x160
     94  gAmHalCmdQReg              0x0000f2f8   Lc    1  Data  De   0x140
     95  am_hal_itm.c               0x00000000   Lc  Abs  File  De 
     96  am_hal_pwrctrl.c           0x00000000   Lc  Abs  File  De 
     97  am_hal_reset.c             0x00000000   Lc  Abs  File  De 
     98  am_hal_rtc.c               0x00000000   Lc  Abs  File  De 
     99  am_hal_tpiu.c              0x00000000   Lc  Abs  File  De 
    100  am_hal_uart.c              0x00000000   Lc  Abs  File  De 
    101  am_hal_queue.c             0x00000000   Lc  Abs  File  De 
    102  dc.s                       0x00000000   Lc  Abs  File  De 
    103  ../clib/heapaux.c          0x00000000   Lc  Abs  File  De 
    104  .text                      0x0000c1ec   Lc    1  Sect  De 
    105  ../clib/angel/startup.s    0x00000000   Lc  Abs  File  De 
    106  !!!main                    0x0000c134   Lc    1  Sect  De   0x8
    107  ../clib/angel/handlers.s   0x00000000   Lc  Abs  File  De 
    108  !!handler_copy             0x0000c170   Lc    1  Sect  De   0x1a
    109  ../fplib/d2f.s             0x00000000   Lc  Abs  File  De 
    110  x$fpl$d2f                  0x0000f110   Lc    1  Sect  De   0x62
    111  $v0                        0x0000f110   Lc    1   --   De 
    112  ../clib/angel/kernel.s     0x00000000   Lc  Abs  File  De 
    113  .ARM.Collect$$rtentry$$00000000
                                    0x0000c1b4   Lc    1  Sect  De 
    114  ../fplib/dnaninf.s         0x00000000   Lc  Abs  File  De 
    115  x$fpl$dnaninf              0x0000f172   Lc    1  Sect  De   0x9c
    116  $v0                        0x0000f172   Lc    1   --   De 
    117  ../fplib/fretinf.s         0x00000000   Lc  Abs  File  De 
    118  x$fpl$fretinf              0x0000f228   Lc    1  Sect  De   0xa
    119  $v0                        0x0000f228   Lc    1   --   De 
    120  ../fplib/usenofp.s         0x00000000   Lc  Abs  File  De 
    121  x$fpl$usenofp              0x0000f232   Lc    1  Sect  De 
    122  ../clib/angel/kernel.s     0x00000000   Lc  Abs  File  De 
    123  .ARM.Collect$$rtentry$$00000002
                                    0x0000c1b4   Lc    1  Sect  De 
    124  .ARM.Collect$$rtentry$$00000009
                                    0x0000c1ba   Lc    1  Sect  De 
    125  .ARM.Collect$$rtentry$$0000000A
                                    0x0000c1ba   Lc    1  Sect  De   0x4
    126  .ARM.Collect$$rtentry$$0000000C
                                    0x0000c1be   Lc    1  Sect  De 
    127  .ARM.Collect$$rtentry$$0000000D
                                    0x0000c1be   Lc    1  Sect  De   0x8
    128  ../clib/angel/kernel.s     0x00000000   Lc  Abs  File  De 
    129  .ARM.Collect$$rtentry$$00000004
                                    0x0000c1b4   Lc    1  Sect  De   0x6
    130  ../clib/angel/sys.s        0x00000000   Lc  Abs  File  De 
    131  .text                      0x0000c1f2   Lc    1  Sect  De   0x4a
    132  ../clib/stdlib.c           0x00000000   Lc  Abs  File  De 
    133  .text                      0x0000c23c   Lc    1  Sect  De 
    134  ../clib/angel/boardlib.s   0x00000000   Lc  Abs  File  De 
    135  ../clib/angel/boardlib.s   0x00000000   Lc  Abs  File  De 
    136  ../clib/angel/boardlib.s   0x00000000   Lc  Abs  File  De 
    137  ../clib/libinit.s          0x00000000   Lc  Abs  File  De 
    138  .ARM.Collect$$libinit$$00000000
                                    0x0000c1a8   Lc    1  Sect  De   0x2
    139  ../clib/angel/sys.s        0x00000000   Lc  Abs  File  De 
    140  .text                      0x0000c250   Lc    1  Sect  De   0x8
    141  .bss                       0x10001050   Lc    3  Sect  De   0x60
    142  ../clib/angel/kernel.s     0x00000000   Lc  Abs  File  De 
    143  .ARM.Collect$$rtexit$$00000000
                                    0x0000c1c6   Lc    1  Sect  De   0x2
    144  ../clib/libinit.s          0x00000000   Lc  Abs  File  De 
    145  .ARM.Collect$$libinit$$00000001
                                    0x0000c1aa   Lc    1  Sect  De   0x4
    146  .ARM.Collect$$libinit$$00000004
                                    0x0000c1ae   Lc    1  Sect  De 
    147  .ARM.Collect$$libinit$$0000000A
                                    0x0000c1ae   Lc    1  Sect  De 
    148  .ARM.Collect$$libinit$$0000000C
                                    0x0000c1ae   Lc    1  Sect  De 
    149  .ARM.Collect$$libinit$$0000000E
                                    0x0000c1ae   Lc    1  Sect  De 
    150  .ARM.Collect$$libinit$$00000011
                                    0x0000c1ae   Lc    1  Sect  De 
    151  .ARM.Collect$$libinit$$00000013
                                    0x0000c1ae   Lc    1  Sect  De 
    152  .ARM.Collect$$libinit$$00000015
                                    0x0000c1ae   Lc    1  Sect  De 
    153  .ARM.Collect$$libinit$$00000017
                                    0x0000c1ae   Lc    1  Sect  De 
    154  .ARM.Collect$$libinit$$00000019
                                    0x0000c1ae   Lc    1  Sect  De 
    155  .ARM.Collect$$libinit$$0000001B
                                    0x0000c1ae   Lc    1  Sect  De 
    156  .ARM.Collect$$libinit$$0000001D
                                    0x0000c1ae   Lc    1  Sect  De 
    157  .ARM.Collect$$libinit$$0000001F
                                    0x0000c1ae   Lc    1  Sect  De 
    158  .ARM.Collect$$libinit$$00000021
                                    0x0000c1ae   Lc    1  Sect  De 
    159  .ARM.Collect$$libinit$$00000023
                                    0x0000c1ae   Lc    1  Sect  De 
    160  .ARM.Collect$$libinit$$00000025
                                    0x0000c1ae   Lc    1  Sect  De 
    161  .ARM.Collect$$libinit$$0000002C
                                    0x0000c1ae   Lc    1  Sect  De 
    162  .ARM.Collect$$libinit$$0000002E
                                    0x0000c1ae   Lc    1  Sect  De 
    163  .ARM.Collect$$libinit$$00000030
                                    0x0000c1ae   Lc    1  Sect  De 
    164  .ARM.Collect$$libinit$$00000032
                                    0x0000c1ae   Lc    1  Sect  De 
    165  .ARM.Collect$$libinit$$00000033
                                    0x0000c1ae   Lc    1  Sect  De   0x2
    166  ../clib/angel/kernel.s     0x00000000   Lc  Abs  File  De 
    167  .ARM.Collect$$rtexit$$00000002
                                    0x0000c1c8   Lc    1  Sect  De 
    168  .ARM.Collect$$rtexit$$00000003
                                    0x0000c1c8   Lc    1  Sect  De   0x4
    169  .ARM.Collect$$rtexit$$00000004
                                    0x0000c1cc   Lc    1  Sect  De   0x6
    170  ../clib/armsys.c           0x00000000   Lc  Abs  File  De 
    171  ../clib/armsys.c           0x00000000   Lc  Abs  File  De 
    172  ../fplib/fpinit.s          0x00000000   Lc  Abs  File  De 
    173  x$fpl$fpinit               0x0000f20e   Lc    1  Sect  De   0x1a
    174  $v0                        0x0000f20e   Lc    1   --   De 
    175  ../clib/angel/sysapp.c     0x00000000   Lc  Abs  File  De 
    176  .text                      0x0000c258   Lc    1  Sect  De 
    177  ../clib/angel/sysapp.c     0x00000000   Lc  Abs  File  De 
    178  ../clib/angel/boardlib.s   0x00000000   Lc  Abs  File  De 
    179  ../clib/armsys.c           0x00000000   Lc  Abs  File  De 
    180  ../clib/armsys.c           0x00000000   Lc  Abs  File  De 
    181  ../clib/libinit.s          0x00000000   Lc  Abs  File  De 
    182  .ARM.Collect$$libshutdown$$00000000
                                    0x0000c1b0   Lc    1  Sect  De   0x2
    183  ../clib/angel/sysapp.c     0x00000000   Lc  Abs  File  De 
    184  ../clib/angel/sysapp.c     0x00000000   Lc  Abs  File  De 
    185  ../clib/angel/sys.s        0x00000000   Lc  Abs  File  De 
    186  .text                      0x0000c264   Lc    1  Sect  De   0x2
    187  ../clib/angel/sys.s        0x00000000   Lc  Abs  File  De 
    188  .text                      0x0000c266   Lc    1  Sect  De 
    189  ../clib/heapalloc.c        0x00000000   Lc  Abs  File  De 
    190  ../clib/signal.c           0x00000000   Lc  Abs  File  De 
    191  ../clib/signal.c           0x00000000   Lc  Abs  File  De 
    192  ../clib/libinit.s          0x00000000   Lc  Abs  File  De 
    193  .ARM.Collect$$libshutdown$$00000002
                                    0x0000c1b2   Lc    1  Sect  De 
    194  .ARM.Collect$$libshutdown$$00000004
                                    0x0000c1b2   Lc    1  Sect  De 
    195  .ARM.Collect$$libshutdown$$00000007
                                    0x0000c1b2   Lc    1  Sect  De 
    196  .ARM.Collect$$libshutdown$$0000000A
                                    0x0000c1b2   Lc    1  Sect  De 
    197  .ARM.Collect$$libshutdown$$0000000C
                                    0x0000c1b2   Lc    1  Sect  De 
    198  .ARM.Collect$$libshutdown$$0000000F
                                    0x0000c1b2   Lc    1  Sect  De 
    199  .ARM.Collect$$libshutdown$$00000010
                                    0x0000c1b2   Lc    1  Sect  De   0x2
    200  ../clib/angel/rt.s         0x00000000   Lc  Abs  File  De 
    201  ../clib/signal.c           0x00000000   Lc  Abs  File  De 
    202  ../clib/signal.c           0x00000000   Lc  Abs  File  De 
    203  ../clib/signal.c           0x00000000   Lc  Abs  File  De 
    204  ../clib/signal.c           0x00000000   Lc  Abs  File  De 
    205  ../clib/angel/sysapp.c     0x00000000   Lc  Abs  File  De 
    206  ../clib/angel/sysapp.c     0x00000000   Lc  Abs  File  De 
    207  ../clib/signal.s           0x00000000   Lc  Abs  File  De 
    208  ../clib/signal.c           0x00000000   Lc  Abs  File  De 
    209  ../clib/signal.c           0x00000000   Lc  Abs  File  De 
    210  ../clib/signal.c           0x00000000   Lc  Abs  File  De 
    211  ../clib/signal.c           0x00000000   Lc  Abs  File  De 
    212  ../clib/signal.c           0x00000000   Lc  Abs  File  De 
    213  ../clib/signal.c           0x00000000   Lc  Abs  File  De 
    214  ../clib/signal.c           0x00000000   Lc  Abs  File  De 
    215  ../clib/signal.c           0x00000000   Lc  Abs  File  De 
    216  ../clib/angel/scatter.s    0x00000000   Lc  Abs  File  De 
    217  !!!scatter                 0x0000c13c   Lc    1  Sect  De   0x34
    218  ../clib/angel/handlers.s   0x00000000   Lc  Abs  File  De 
    219  !!handler_zi               0x0000c18c   Lc    1  Sect  De   0x1c
    220  BuildAttributes$$THM_ISAv4$E$P$D$K$B$S$7EM$VFPi3$EXTD16$VFPS$VFMA$PE$A:L22UL41UL21$X:L11$S22US41US21$IEEE1$IW$~IW$USESV6$~STKCKD$USESV7$~SHL$OSPACE$ROPI$EBA8$UX$STANDARDLIB$REQ8$PRES8$EABIv2
                                    0x00000000   Gb  Abs   --   Hi 
    221  __Vectors                  0x0000c000   Gb    1  Data  Hi 
    222  __Patchable                0x0000c0c0   Gb    1  Data  Hi 
    223  Reset_Handler              0x0000c101   Wk    1  Code  Hi   0x1c
    224  HardFault_Handler          0x0000c11d   Wk    1  Code  Hi   0x2
    225  NMI_Handler                0x0000c11f   Wk    1  Code  Hi   0x2
    226  MemManage_Handler          0x0000c121   Wk    1  Code  Hi   0x2
    227  BusFault_Handler           0x0000c123   Wk    1  Code  Hi   0x2
    228  UsageFault_Handler         0x0000c125   Wk    1  Code  Hi   0x2
    229  SVC_Handler                0x0000c127   Wk    1  Code  Hi   0x2
    230  DebugMon_Handler           0x0000c129   Wk    1  Code  Hi   0x2
    231  PendSV_Handler             0x0000c12b   Wk    1  Code  Hi   0x2
    232  SysTick_Handler            0x0000c12d   Wk    1  Code  Hi   0x2
    233  am_adc_isr                 0x0000c12f   Wk    1  Code  Hi 
    234  am_ble_isr                 0x0000c12f   Wk    1  Code  Hi 
    235  am_brownout_isr            0x0000c12f   Wk    1  Code  Hi 
    236  am_clkgen_isr              0x0000c12f   Wk    1  Code  Hi 
    237  am_ctimer_isr              0x0000c12f   Wk    1  Code  Hi 
    238  am_iomaster0_isr           0x0000c12f   Wk    1  Code  Hi 
    239  am_iomaster1_isr           0x0000c12f   Wk    1  Code  Hi 
    240  am_iomaster2_isr           0x0000c12f   Wk    1  Code  Hi 
    241  am_iomaster3_isr           0x0000c12f   Wk    1  Code  Hi 
    242  am_iomaster4_isr           0x0000c12f   Wk    1  Code  Hi 
    243  am_iomaster5_isr           0x0000c12f   Wk    1  Code  Hi 
    244  am_ioslave_acc_isr         0x0000c12f   Wk    1  Code  Hi 
    245  am_ioslave_ios_isr         0x0000c12f   Wk    1  Code  Hi 
    246  am_mspi0_isr               0x0000c12f   Wk    1  Code  Hi 
    247  am_pdm0_isr                0x0000c12f   Wk    1  Code  Hi 
    248  am_rtc_isr                 0x0000c12f   Wk    1  Code  Hi 
    249  am_scard_isr               0x0000c12f   Wk    1  Code  Hi 
    250  am_software0_isr           0x0000c12f   Wk    1  Code  Hi 
    251  am_stimer_cmpr0_isr        0x0000c12f   Wk    1  Code  Hi 
    252  am_stimer_cmpr1_isr        0x0000c12f   Wk    1  Code  Hi 
    253  am_stimer_cmpr2_isr        0x0000c12f   Wk    1  Code  Hi 
    254  am_stimer_cmpr3_isr        0x0000c12f   Wk    1  Code  Hi 
    255  am_stimer_cmpr4_isr        0x0000c12f   Wk    1  Code  Hi 
    256  am_stimer_cmpr5_isr        0x0000c12f   Wk    1  Code  Hi 
    257  am_stimer_cmpr6_isr        0x0000c12f   Wk    1  Code  Hi 
    258  am_stimer_cmpr7_isr        0x0000c12f   Wk    1  Code  Hi 
    259  am_stimer_isr              0x0000c12f   Wk    1  Code  Hi 
    260  am_uart0_isr               0x0000c12f   Wk    1  Code  Hi 
    261  am_uart1_isr               0x0000c12f   Wk    1  Code  Hi 
    262  am_uart_isr                0x0000c12f   Wk    1  Code  Hi 
    263  am_vcomp_isr               0x0000c12f   Wk    1  Code  Hi 
    264  am_watchdog_isr            0x0000c12f   Wk    1  Code  Hi 
    265  __main                     0x0000c135   Gb    1  Code  Hi   0x8
    266  __scatterload              0x0000c13d   Gb    1  Code  Hi 
    267  __scatterload_rt2          0x0000c13d   Gb    1  Code  Hi   0x2c
    268  __scatterload_rt2_thumb_only
                                    0x0000c13d   Gb    1  Code  Hi 
    269  __scatterload_null         0x0000c14b   Gb    1  Code  Hi 
    270  __scatterload_copy         0x0000c171   Gb    1  Code  Hi   0x1a
    271  __scatterload_zeroinit     0x0000c18d   Gb    1  Code  Hi   0x1c
    272  __rt_lib_init              0x0000c1a9   Gb    1  Code  De 
    273  __rt_lib_init_fp_1         0x0000c1ab   Gb    1  Code  Hi 
    274  __rt_lib_init_alloca_1     0x0000c1af   Gb    1  Code  Hi 
    275  __rt_lib_init_argv_1       0x0000c1af   Gb    1  Code  Hi 
    276  __rt_lib_init_atexit_1     0x0000c1af   Gb    1  Code  Hi 
    277  __rt_lib_init_clock_1      0x0000c1af   Gb    1  Code  Hi 
    278  __rt_lib_init_cpp_1        0x0000c1af   Gb    1  Code  Hi 
    279  __rt_lib_init_exceptions_1 0x0000c1af   Gb    1  Code  Hi 
    280  __rt_lib_init_fp_trap_1    0x0000c1af   Gb    1  Code  Hi 
    281  __rt_lib_init_getenv_1     0x0000c1af   Gb    1  Code  Hi 
    282  __rt_lib_init_heap_1       0x0000c1af   Gb    1  Code  Hi 
    283  __rt_lib_init_lc_collate_1 0x0000c1af   Gb    1  Code  Hi 
    284  __rt_lib_init_lc_ctype_1   0x0000c1af   Gb    1  Code  Hi 
    285  __rt_lib_init_lc_monetary_1
                                    0x0000c1af   Gb    1  Code  Hi 
    286  __rt_lib_init_lc_numeric_1 0x0000c1af   Gb    1  Code  Hi 
    287  __rt_lib_init_lc_time_1    0x0000c1af   Gb    1  Code  Hi 
    288  __rt_lib_init_preinit_1    0x0000c1af   Gb    1  Code  Hi 
    289  __rt_lib_init_rand_1       0x0000c1af   Gb    1  Code  Hi 
    290  __rt_lib_init_return       0x0000c1af   Gb    1  Code  Hi 
    291  __rt_lib_init_signal_1     0x0000c1af   Gb    1  Code  Hi 
    292  __rt_lib_init_stdio_1      0x0000c1af   Gb    1  Code  Hi 
    293  __rt_lib_init_user_alloc_1 0x0000c1af   Gb    1  Code  Hi 
    294  __rt_lib_shutdown          0x0000c1b1   Gb    1  Code  De 
    295  __rt_lib_shutdown_cpp_1    0x0000c1b3   Gb    1  Code  Hi 
    296  __rt_lib_shutdown_fp_trap_1
                                    0x0000c1b3   Gb    1  Code  Hi 
    297  __rt_lib_shutdown_heap_1   0x0000c1b3   Gb    1  Code  Hi 
    298  __rt_lib_shutdown_return   0x0000c1b3   Gb    1  Code  Hi 
    299  __rt_lib_shutdown_signal_1 0x0000c1b3   Gb    1  Code  Hi 
    300  __rt_lib_shutdown_stdio_1  0x0000c1b3   Gb    1  Code  Hi 
    301  __rt_lib_shutdown_user_alloc_1
                                    0x0000c1b3   Gb    1  Code  Hi 
    302  __rt_entry                 0x0000c1b5   Gb    1  Code  Hi 
    303  __rt_entry_presh_1         0x0000c1b5   Gb    1  Code  Hi 
    304  __rt_entry_sh              0x0000c1b5   Gb    1  Code  Hi 
    305  __rt_entry_li              0x0000c1bb   Gb    1  Code  Hi 
    306  __rt_entry_postsh_1        0x0000c1bb   Gb    1  Code  Hi 
    307  __rt_entry_main            0x0000c1bf   Gb    1  Code  Hi 
    308  __rt_entry_postli_1        0x0000c1bf   Gb    1  Code  Hi 
    309  __rt_exit                  0x0000c1c7   Gb    1  Code  De 
    310  __rt_exit_ls               0x0000c1c9   Gb    1  Code  Hi 
    311  __rt_exit_prels_1          0x0000c1c9   Gb    1  Code  Hi 
    312  __rt_exit_exit             0x0000c1cd   Gb    1  Code  Hi 
    313  __user_initial_stackheap   0x0000c1d5   Gb    1  Code  Hi   0xa
    314  __use_two_region_memory    0x0000c1ed   Gb    1  Code  Hi   0x2
    315  __rt_heap_escrow$2region   0x0000c1ef   Gb    1  Code  De   0x2
    316  __rt_heap_expand$2region   0x0000c1f1   Gb    1  Code  De   0x2
    317  __user_setup_stackheap     0x0000c1f3   Gb    1  Code  De   0x4a
    318  exit                       0x0000c23d   Gb    1  Code  De   0x12
    319  __user_libspace            0x0000c251   Wk    1  Code  De   0x8
    320  __user_perproc_libspace    0x0000c251   Wk    1  Code  De 
    321  __user_perthread_libspace  0x0000c251   Wk    1  Code  De 
    322  _sys_exit                  0x0000c259   Gb    1  Code  De   0x8
    323  __I$use$semihosting        0x0000c265   Gb    1  Code  Hi 
    324  __use_no_semihosting_swi   0x0000c265   Gb    1  Code  Hi   0x2
    325  __semihosting_library_function
                                    0x0000c267   Gb    1  Code  Hi 
    326  am_bsp_iom_pins_enable     0x0000c299   Gb    1  Code  Hi   0x272
    327  am_bsp_itm_printf_enable   0x0000c50b   Gb    1  Code  Hi   0x44
    328  am_bsp_low_power_init      0x0000c551   Gb    1  Code  Hi   0x46
    329  am_gpio_isr                0x0000c599   Gb    1  Code  Hi   0x20
    330  am_hal_cachectrl_config    0x0000c5b9   Gb    1  Code  Hi   0x48
    331  am_hal_cachectrl_control   0x0000c601   Gb    1  Code  Hi   0x16c
    332  am_hal_cachectrl_enable    0x0000c76d   Gb    1  Code  Hi   0x14
    333  am_hal_clkgen_control      0x0000c781   Gb    1  Code  Hi   0x138
    334  am_hal_clkgen_status_get   0x0000c8b9   Gb    1  Code  Hi   0x38
    335  am_hal_cmdq_disable        0x0000c8f1   Gb    1  Code  Hi   0x34
    336  am_hal_cmdq_enable         0x0000c925   Gb    1  Code  Hi   0x34
    337  am_hal_cmdq_init           0x0000c959   Gb    1  Code  Hi   0xbe
    338  am_hal_flash_delay         0x0000ca17   Gb    1  Code  Hi   0x2a
    339  am_hal_flash_delay_status_check
                                    0x0000ca41   Gb    1  Code  Hi   0x70
    340  am_hal_flash_load_ui32     0x0000cab1   Gb    1  Code  Hi   0x8
    341  am_hal_flash_store_ui32    0x0000cab9   Gb    1  Code  Hi   0x22
    342  am_hal_gpio_interrupt_clear
                                    0x0000cadb   Gb    1  Code  Hi   0x32
    343  am_hal_gpio_interrupt_enable
                                    0x0000cb0d   Gb    1  Code  Hi   0x3a
    344  am_hal_gpio_interrupt_register
                                    0x0000cb47   Gb    1  Code  Hi   0x20
    345  am_hal_gpio_interrupt_service
                                    0x0000cb69   Gb    1  Code  Hi   0xae
    346  am_hal_gpio_interrupt_status_get
                                    0x0000cc17   Gb    1  Code  Hi   0x44
    347  am_hal_gpio_pinconfig      0x0000cc5d   Gb    1  Code  Hi   0x1f0
    348  am_hal_gpio_state_write    0x0000ceb5   Gb    1  Code  Hi   0x98
    349  am_hal_interrupt_master_disable
                                    0x0000cf4d   Gb    1  Code  Hi   0x8
    350  am_hal_interrupt_master_enable
                                    0x0000cf55   Gb    1  Code  Hi   0x8
    351  am_hal_interrupt_master_set
                                    0x0000cf5d   Gb    1  Code  Hi   0x6
    352  am_hal_iom_CQEnable        0x0000cf63   Gb    1  Code  Hi   0x22
    353  am_hal_iom_CQInit          0x0000cf85   Gb    1  Code  Hi   0x38
    354  am_hal_iom_blocking_transfer
                                    0x0000cfbd   Gb    1  Code  Hi   0x324
    355  am_hal_iom_configure       0x0000d2e1   Gb    1  Code  Hi   0x294
    356  am_hal_iom_enable          0x0000d575   Gb    1  Code  Hi   0xae
    357  am_hal_iom_initialize      0x0000d623   Gb    1  Code  Hi   0x48
    358  am_hal_iom_power_ctrl      0x0000d66b   Gb    1  Code  Hi   0x1f0
    359  am_hal_itm_enable          0x0000d85d   Gb    1  Code  Hi   0x42
    360  am_hal_itm_print           0x0000d8a1   Gb    1  Code  Hi   0x2e
    361  am_hal_pwrctrl_blebuck_trim
                                    0x0000d8cf   Gb    1  Code  Hi   0x52
    362  am_hal_pwrctrl_low_power_init
                                    0x0000d921   Gb    1  Code  Hi   0x12a
    363  am_hal_pwrctrl_periph_disable
                                    0x0000da4d   Gb    1  Code  Hi   0x88
    364  am_hal_pwrctrl_periph_enable
                                    0x0000dad5   Gb    1  Code  Hi   0x6e
    365  am_hal_rtc_osc_disable     0x0000db43   Gb    1  Code  Hi   0x12
    366  am_hal_sysctrl_sleep       0x0000db55   Gb    1  Code  Hi   0xc2
    367  am_hal_tpiu_enable         0x0000dc17   Gb    1  Code  Hi   0x94
    368  am_util_delay_ms           0x0000dcad   Gb    1  Code  Hi   0x30
    369  am_util_stdio_printf       0x0000dcdd   Gb    1  Code  Hi   0x5c
    370  am_util_stdio_printf_init  0x0000dd39   Gb    1  Code  Hi   0x14
    371  am_util_stdio_terminal_clear
                                    0x0000dd4d   Gb    1  Code  Hi   0x10
    372  am_util_stdio_vsprintf     0x0000dd5d   Gb    1  Code  Hi   0x654
    373  clear_rx_buf               0x0000e3b1   Gb    1  Code  Hi   0x30
    374  iom_slave_read             0x0000e9e1   Gb    1  Code  Hi   0x5a
    375  iom_slave_write            0x0000ea3d   Gb    1  Code  Hi   0x5a
    376  main                       0x0000ea99   Gb    1  Code  Hi   0x1f6
    377  update_progress            0x0000efd5   Gb    1  Code  Hi   0x3a
    378  validate_rx_buf            0x0000f011   Gb    1  Code  Hi   0x72
    379  validate_transaction       0x0000f083   Gb    1  Code  Hi   0x8c
    380  __aeabi_d2f                0x0000f111   Gb    1  Code  De 
    381  _d2f                       0x0000f111   Gb    1  Code  De   0x62
    382  __fpl_dnaninf              0x0000f173   Gb    1  Code  De   0x9c
    383  _fp_init                   0x0000f20f   Gb    1  Code  De   0x1a
    384  __fplib_config_fpu_vfp     0x0000f227   Gb    1  Code  De 
    385  __fplib_config_pureend_doubles
                                    0x0000f227   Gb    1  Code  De 
    386  __fpl_fretinf              0x0000f229   Gb    1  Code  De   0xa
    387  __I$use$fp                 0x0000f232   Gb    1   --   De 
    388  am_hal_cachectrl_defaults  0x0000f240   Gb    1  Data  Hi   0x3
    389  am_hal_pwrctrl_peripheral_control
                                    0x0000f244   Gb    1  Data  Hi   0xb4
    390  g_AM_BSP_GPIO_HANDSHAKE    0x0000f438   Gb    1  Data  Hi   0x4
    391  g_AM_BSP_GPIO_IOM0_CS      0x0000f43c   Gb    1  Data  Hi   0x4
    392  g_AM_BSP_GPIO_IOM0_MISO    0x0000f440   Gb    1  Data  Hi   0x4
    393  g_AM_BSP_GPIO_IOM0_MOSI    0x0000f444   Gb    1  Data  Hi   0x4
    394  g_AM_BSP_GPIO_IOM0_SCK     0x0000f448   Gb    1  Data  Hi   0x4
    395  g_AM_BSP_GPIO_IOM0_SCL     0x0000f44c   Gb    1  Data  Hi   0x4
    396  g_AM_BSP_GPIO_IOM0_SDA     0x0000f450   Gb    1  Data  Hi   0x4
    397  g_AM_BSP_GPIO_IOM1_CS      0x0000f454   Gb    1  Data  Hi   0x4
    398  g_AM_BSP_GPIO_IOM1_MISO    0x0000f458   Gb    1  Data  Hi   0x4
    399  g_AM_BSP_GPIO_IOM1_MOSI    0x0000f45c   Gb    1  Data  Hi   0x4
    400  g_AM_BSP_GPIO_IOM1_SCK     0x0000f460   Gb    1  Data  Hi   0x4
    401  g_AM_BSP_GPIO_IOM1_SCL     0x0000f464   Gb    1  Data  Hi   0x4
    402  g_AM_BSP_GPIO_IOM1_SDA     0x0000f468   Gb    1  Data  Hi   0x4
    403  g_AM_BSP_GPIO_IOM2_CS      0x0000f46c   Gb    1  Data  Hi   0x4
    404  g_AM_BSP_GPIO_IOM2_MISO    0x0000f470   Gb    1  Data  Hi   0x4
    405  g_AM_BSP_GPIO_IOM2_MOSI    0x0000f474   Gb    1  Data  Hi   0x4
    406  g_AM_BSP_GPIO_IOM2_SCK     0x0000f478   Gb    1  Data  Hi   0x4
    407  g_AM_BSP_GPIO_IOM2_SCL     0x0000f47c   Gb    1  Data  Hi   0x4
    408  g_AM_BSP_GPIO_IOM2_SDA     0x0000f480   Gb    1  Data  Hi   0x4
    409  g_AM_BSP_GPIO_IOM3_CS      0x0000f484   Gb    1  Data  Hi   0x4
    410  g_AM_BSP_GPIO_IOM3_MISO    0x0000f488   Gb    1  Data  Hi   0x4
    411  g_AM_BSP_GPIO_IOM3_MOSI    0x0000f48c   Gb    1  Data  Hi   0x4
    412  g_AM_BSP_GPIO_IOM3_SCK     0x0000f490   Gb    1  Data  Hi   0x4
    413  g_AM_BSP_GPIO_IOM3_SCL     0x0000f494   Gb    1  Data  Hi   0x4
    414  g_AM_BSP_GPIO_IOM3_SDA     0x0000f498   Gb    1  Data  Hi   0x4
    415  g_AM_BSP_GPIO_IOM4_CS      0x0000f49c   Gb    1  Data  Hi   0x4
    416  g_AM_BSP_GPIO_IOM4_MISO    0x0000f4a0   Gb    1  Data  Hi   0x4
    417  g_AM_BSP_GPIO_IOM4_MOSI    0x0000f4a4   Gb    1  Data  Hi   0x4
    418  g_AM_BSP_GPIO_IOM4_SCK     0x0000f4a8   Gb    1  Data  Hi   0x4
    419  g_AM_BSP_GPIO_IOM4_SCL     0x0000f4ac   Gb    1  Data  Hi   0x4
    420  g_AM_BSP_GPIO_IOM4_SDA     0x0000f4b0   Gb    1  Data  Hi   0x4
    421  g_AM_BSP_GPIO_IOM5_CS      0x0000f4b4   Gb    1  Data  Hi   0x4
    422  g_AM_BSP_GPIO_IOM5_MISO    0x0000f4b8   Gb    1  Data  Hi   0x4
    423  g_AM_BSP_GPIO_IOM5_MOSI    0x0000f4bc   Gb    1  Data  Hi   0x4
    424  g_AM_BSP_GPIO_IOM5_SCK     0x0000f4c0   Gb    1  Data  Hi   0x4
    425  g_AM_BSP_GPIO_IOM5_SCL     0x0000f4c4   Gb    1  Data  Hi   0x4
    426  g_AM_BSP_GPIO_IOM5_SDA     0x0000f4c8   Gb    1  Data  Hi   0x4
    427  g_AM_BSP_GPIO_ITM_SWO      0x0000f4cc   Gb    1  Data  Hi   0x4
    428  g_AM_HAL_GPIO_OUTPUT       0x0000f4d0   Gb    1  Data  Hi   0x4
    429  Region$$Table$$Base        0x0000f694   Gb    1   --   Hi 
    430  Region$$Table$$Limit       0x0000f6b4   Gb    1   --   Hi 
    431  am_bsp_psLEDs              0x10000000   Gb    2  Data  Hi   0x28
    432  __libspace_start           0x10001050   Gb    3  Data  De   0x60
    433  __temporary_stack_top$libspace
                                    0x100010b0   Gb    3  Data  De 
    434  bIosInt                    0x100010b0   Gb    3  Data  Hi   0x1
    435  gAmHalResetStatus          0x10001214   Gb    3  Data  Hi   0x4
    436  g_IOMHandle                0x10001218   Gb    3  Data  Hi   0x4
    437  g_IOMhandles               0x1000121c   Gb    3  Data  Hi   0x33d8
    438  g_am_hal_sysctrl_sleep_count
                                    0x100045f4   Gb    3  Data  Hi   0x4
    439  g_pfnCharPrint             0x100045fc   Gb    3  Data  Hi   0x4
    440  g_pui8RcvBuf               0x10004a00   Gb    3  Data  Hi   0x400
    441  g_startIdx                 0x10004e00   Gb    3  Data  Hi   0x4
    442  g_ui32LastUpdate           0x10004e04   Gb    3  Data  Hi   0x4


** Section #11 '.strtab' (SHT_STRTAB)
    Size   : 7556 bytes

            #  Offset String
        ====================================

            1      1: $d
            2      4: $t
            3      7: $t.9
            4     12: $d.9
            5     17: $t.10
            6     23: $d.4
            7     28: $t.5
            8     33: $d.1
            9     38: $t.2
           10     43: $d.3
           11     48: $t.7
           12     53: $d.8
           13     58: $d.realdata
           14     70: ios_fifo_host.c
           15     86: iom_set_up
           16     97: hostint_handler
           17    113: __NVIC_EnableIRQ
           18    130: .L.str
           19    137: .L.str.4
           20    146: .L.str.3
           21    155: .L.str.2
           22    164: .L.str.1
           23    173: g_sIOMSpiConfig
           24    189: g_sIOMI2cConfig
           25    205: am_util_delay.c
           26    221: am_util_stdio.c
           27    237: decstr_to_int
           28    251: simple_strlen
           29    265: padbuffer
           30    275: ndigits_in_hex
           31    290: uint64_to_hexstr
           32    307: ndigits_in_u64
           33    322: uint64_to_str
           34    336: ndigits_in_i64
           35    351: ftoa
           36    356: divu64_10
           37    366: g_bTxtXlate
           38    378: g_prfbuf
           39    387: ../keil6/startup_keil6.s
           40    412: STACK
           41    418: StackMem
           42    427: HEAP
           43    432: HeapMem
           44    440: RESET
           45    446: $v0
           46    450: .text
           47    456: am_hal_global.c
           48    472: am_bsp.c
           49    481: g_ui32PrintInterface
           50    502: am_hal_cachectrl.c
           51    521: set_LPMMODE
           52    533: set_SEDELAY
           53    545: set_RDWAIT
           54    556: am_hal_clkgen.c
           55    572: am_hal_flash.c
           56    587: .L__const.am_hal_flash_store_ui32.SRAM_write_ui32
           57    637: am_hal_gpio.c
           58    651: g_ui8Bit76Capabilities
           59    674: g_ui8nCEpins
           60    687: g_ui8Inpen
           61    698: g_ui8NCEtable
           62    712: gpio_ppfnHandlers
           63    730: gpio_pHandlerCtxt
           64    748: am_hal_interrupt.c
           65    767: am_hal_iom.c
           66    780: internal_iom_reset_on_error
           67    808: am_hal_sysctrl.c
           68    825: am_bsp_pins.c
           69    839: am_hal_cmdq.c
           70    853: gAmHalCmdq
           71    864: gAmHalCmdQReg
           72    878: am_hal_itm.c
           73    891: am_hal_pwrctrl.c
           74    908: am_hal_reset.c
           75    923: am_hal_rtc.c
           76    936: am_hal_tpiu.c
           77    950: am_hal_uart.c
           78    964: am_hal_queue.c
           79    979: dc.s
           80    984: ../clib/heapaux.c
           81   1002: ../clib/angel/startup.s
           82   1026: !!!main
           83   1034: ../clib/angel/handlers.s
           84   1059: !!handler_copy
           85   1074: ../fplib/d2f.s
           86   1089: x$fpl$d2f
           87   1099: ../clib/angel/kernel.s
           88   1122: .ARM.Collect$$rtentry$$00000000
           89   1154: ../fplib/dnaninf.s
           90   1173: x$fpl$dnaninf
           91   1187: ../fplib/fretinf.s
           92   1206: x$fpl$fretinf
           93   1220: ../fplib/usenofp.s
           94   1239: x$fpl$usenofp
           95   1253: .ARM.Collect$$rtentry$$00000002
           96   1285: .ARM.Collect$$rtentry$$00000009
           97   1317: .ARM.Collect$$rtentry$$0000000A
           98   1349: .ARM.Collect$$rtentry$$0000000C
           99   1381: .ARM.Collect$$rtentry$$0000000D
          100   1413: .ARM.Collect$$rtentry$$00000004
          101   1445: ../clib/angel/sys.s
          102   1465: ../clib/stdlib.c
          103   1482: ../clib/angel/boardlib.s
          104   1507: ../clib/libinit.s
          105   1525: .ARM.Collect$$libinit$$00000000
          106   1557: .bss
          107   1562: .ARM.Collect$$rtexit$$00000000
          108   1593: .ARM.Collect$$libinit$$00000001
          109   1625: .ARM.Collect$$libinit$$00000004
          110   1657: .ARM.Collect$$libinit$$0000000A
          111   1689: .ARM.Collect$$libinit$$0000000C
          112   1721: .ARM.Collect$$libinit$$0000000E
          113   1753: .ARM.Collect$$libinit$$00000011
          114   1785: .ARM.Collect$$libinit$$00000013
          115   1817: .ARM.Collect$$libinit$$00000015
          116   1849: .ARM.Collect$$libinit$$00000017
          117   1881: .ARM.Collect$$libinit$$00000019
          118   1913: .ARM.Collect$$libinit$$0000001B
          119   1945: .ARM.Collect$$libinit$$0000001D
          120   1977: .ARM.Collect$$libinit$$0000001F
          121   2009: .ARM.Collect$$libinit$$00000021
          122   2041: .ARM.Collect$$libinit$$00000023
          123   2073: .ARM.Collect$$libinit$$00000025
          124   2105: .ARM.Collect$$libinit$$0000002C
          125   2137: .ARM.Collect$$libinit$$0000002E
          126   2169: .ARM.Collect$$libinit$$00000030
          127   2201: .ARM.Collect$$libinit$$00000032
          128   2233: .ARM.Collect$$libinit$$00000033
          129   2265: .ARM.Collect$$rtexit$$00000002
          130   2296: .ARM.Collect$$rtexit$$00000003
          131   2327: .ARM.Collect$$rtexit$$00000004
          132   2358: ../clib/armsys.c
          133   2375: ../fplib/fpinit.s
          134   2393: x$fpl$fpinit
          135   2406: ../clib/angel/sysapp.c
          136   2429: .ARM.Collect$$libshutdown$$00000000
          137   2465: ../clib/heapalloc.c
          138   2485: ../clib/signal.c
          139   2502: .ARM.Collect$$libshutdown$$00000002
          140   2538: .ARM.Collect$$libshutdown$$00000004
          141   2574: .ARM.Collect$$libshutdown$$00000007
          142   2610: .ARM.Collect$$libshutdown$$0000000A
          143   2646: .ARM.Collect$$libshutdown$$0000000C
          144   2682: .ARM.Collect$$libshutdown$$0000000F
          145   2718: .ARM.Collect$$libshutdown$$00000010
          146   2754: ../clib/angel/rt.s
          147   2773: ../clib/signal.s
          148   2790: ../clib/angel/scatter.s
          149   2814: !!!scatter
          150   2825: !!handler_zi
          151   2838: BuildAttributes$$THM_ISAv4$E$P$D$K$B$S$7EM$VFPi3$EXTD16$VFPS$VFMA$PE$A:L22UL41UL21$X:L11$S22US41US21$IEEE1$IW$~IW$USESV6$~STKCKD$USESV7$~SHL$OSPACE$ROPI$EBA8$UX$STANDARDLIB$REQ8$PRES8$EABIv2
          152   3029: __Vectors
          153   3039: __Patchable
          154   3051: Reset_Handler
          155   3065: HardFault_Handler
          156   3083: NMI_Handler
          157   3095: MemManage_Handler
          158   3113: BusFault_Handler
          159   3130: UsageFault_Handler
          160   3149: SVC_Handler
          161   3161: DebugMon_Handler
          162   3178: PendSV_Handler
          163   3193: SysTick_Handler
          164   3209: am_adc_isr
          165   3220: am_ble_isr
          166   3231: am_brownout_isr
          167   3247: am_clkgen_isr
          168   3261: am_ctimer_isr
          169   3275: am_iomaster0_isr
          170   3292: am_iomaster1_isr
          171   3309: am_iomaster2_isr
          172   3326: am_iomaster3_isr
          173   3343: am_iomaster4_isr
          174   3360: am_iomaster5_isr
          175   3377: am_ioslave_acc_isr
          176   3396: am_ioslave_ios_isr
          177   3415: am_mspi0_isr
          178   3428: am_pdm0_isr
          179   3440: am_rtc_isr
          180   3451: am_scard_isr
          181   3464: am_software0_isr
          182   3481: am_stimer_cmpr0_isr
          183   3501: am_stimer_cmpr1_isr
          184   3521: am_stimer_cmpr2_isr
          185   3541: am_stimer_cmpr3_isr
          186   3561: am_stimer_cmpr4_isr
          187   3581: am_stimer_cmpr5_isr
          188   3601: am_stimer_cmpr6_isr
          189   3621: am_stimer_cmpr7_isr
          190   3641: am_stimer_isr
          191   3655: am_uart0_isr
          192   3668: am_uart1_isr
          193   3681: am_uart_isr
          194   3693: am_vcomp_isr
          195   3706: am_watchdog_isr
          196   3722: __main
          197   3729: __scatterload
          198   3743: __scatterload_rt2
          199   3761: __scatterload_rt2_thumb_only
          200   3790: __scatterload_null
          201   3809: __scatterload_copy
          202   3828: __scatterload_zeroinit
          203   3851: __rt_lib_init
          204   3865: __rt_lib_init_fp_1
          205   3884: __rt_lib_init_alloca_1
          206   3907: __rt_lib_init_argv_1
          207   3928: __rt_lib_init_atexit_1
          208   3951: __rt_lib_init_clock_1
          209   3973: __rt_lib_init_cpp_1
          210   3993: __rt_lib_init_exceptions_1
          211   4020: __rt_lib_init_fp_trap_1
          212   4044: __rt_lib_init_getenv_1
          213   4067: __rt_lib_init_heap_1
          214   4088: __rt_lib_init_lc_collate_1
          215   4115: __rt_lib_init_lc_ctype_1
          216   4140: __rt_lib_init_lc_monetary_1
          217   4168: __rt_lib_init_lc_numeric_1
          218   4195: __rt_lib_init_lc_time_1
          219   4219: __rt_lib_init_preinit_1
          220   4243: __rt_lib_init_rand_1
          221   4264: __rt_lib_init_return
          222   4285: __rt_lib_init_signal_1
          223   4308: __rt_lib_init_stdio_1
          224   4330: __rt_lib_init_user_alloc_1
          225   4357: __rt_lib_shutdown
          226   4375: __rt_lib_shutdown_cpp_1
          227   4399: __rt_lib_shutdown_fp_trap_1
          228   4427: __rt_lib_shutdown_heap_1
          229   4452: __rt_lib_shutdown_return
          230   4477: __rt_lib_shutdown_signal_1
          231   4504: __rt_lib_shutdown_stdio_1
          232   4530: __rt_lib_shutdown_user_alloc_1
          233   4561: __rt_entry
          234   4572: __rt_entry_presh_1
          235   4591: __rt_entry_sh
          236   4605: __rt_entry_li
          237   4619: __rt_entry_postsh_1
          238   4639: __rt_entry_main
          239   4655: __rt_entry_postli_1
          240   4675: __rt_exit
          241   4685: __rt_exit_ls
          242   4698: __rt_exit_prels_1
          243   4716: __rt_exit_exit
          244   4731: __user_initial_stackheap
          245   4756: __use_two_region_memory
          246   4780: __rt_heap_escrow$2region
          247   4805: __rt_heap_expand$2region
          248   4830: __user_setup_stackheap
          249   4853: exit
          250   4858: __user_libspace
          251   4874: __user_perproc_libspace
          252   4898: __user_perthread_libspace
          253   4924: _sys_exit
          254   4934: __I$use$semihosting
          255   4954: __use_no_semihosting_swi
          256   4979: __semihosting_library_function
          257   5010: am_bsp_iom_pins_enable
          258   5033: am_bsp_itm_printf_enable
          259   5058: am_bsp_low_power_init
          260   5080: am_gpio_isr
          261   5092: am_hal_cachectrl_config
          262   5116: am_hal_cachectrl_control
          263   5141: am_hal_cachectrl_enable
          264   5165: am_hal_clkgen_control
          265   5187: am_hal_clkgen_status_get
          266   5212: am_hal_cmdq_disable
          267   5232: am_hal_cmdq_enable
          268   5251: am_hal_cmdq_init
          269   5268: am_hal_flash_delay
          270   5287: am_hal_flash_delay_status_check
          271   5319: am_hal_flash_load_ui32
          272   5342: am_hal_flash_store_ui32
          273   5366: am_hal_gpio_interrupt_clear
          274   5394: am_hal_gpio_interrupt_enable
          275   5423: am_hal_gpio_interrupt_register
          276   5454: am_hal_gpio_interrupt_service
          277   5484: am_hal_gpio_interrupt_status_get
          278   5517: am_hal_gpio_pinconfig
          279   5539: am_hal_gpio_state_write
          280   5563: am_hal_interrupt_master_disable
          281   5595: am_hal_interrupt_master_enable
          282   5626: am_hal_interrupt_master_set
          283   5654: am_hal_iom_CQEnable
          284   5674: am_hal_iom_CQInit
          285   5692: am_hal_iom_blocking_transfer
          286   5721: am_hal_iom_configure
          287   5742: am_hal_iom_enable
          288   5760: am_hal_iom_initialize
          289   5782: am_hal_iom_power_ctrl
          290   5804: am_hal_itm_enable
          291   5822: am_hal_itm_print
          292   5839: am_hal_pwrctrl_blebuck_trim
          293   5867: am_hal_pwrctrl_low_power_init
          294   5897: am_hal_pwrctrl_periph_disable
          295   5927: am_hal_pwrctrl_periph_enable
          296   5956: am_hal_rtc_osc_disable
          297   5979: am_hal_sysctrl_sleep
          298   6000: am_hal_tpiu_enable
          299   6019: am_util_delay_ms
          300   6036: am_util_stdio_printf
          301   6057: am_util_stdio_printf_init
          302   6083: am_util_stdio_terminal_clear
          303   6112: am_util_stdio_vsprintf
          304   6135: clear_rx_buf
          305   6148: iom_slave_read
          306   6163: iom_slave_write
          307   6179: main
          308   6184: update_progress
          309   6200: validate_rx_buf
          310   6216: validate_transaction
          311   6237: __aeabi_d2f
          312   6249: _d2f
          313   6254: __fpl_dnaninf
          314   6268: _fp_init
          315   6277: __fplib_config_fpu_vfp
          316   6300: __fplib_config_pureend_doubles
          317   6331: __fpl_fretinf
          318   6345: __I$use$fp
          319   6356: am_hal_cachectrl_defaults
          320   6382: am_hal_pwrctrl_peripheral_control
          321   6416: g_AM_BSP_GPIO_HANDSHAKE
          322   6440: g_AM_BSP_GPIO_IOM0_CS
          323   6462: g_AM_BSP_GPIO_IOM0_MISO
          324   6486: g_AM_BSP_GPIO_IOM0_MOSI
          325   6510: g_AM_BSP_GPIO_IOM0_SCK
          326   6533: g_AM_BSP_GPIO_IOM0_SCL
          327   6556: g_AM_BSP_GPIO_IOM0_SDA
          328   6579: g_AM_BSP_GPIO_IOM1_CS
          329   6601: g_AM_BSP_GPIO_IOM1_MISO
          330   6625: g_AM_BSP_GPIO_IOM1_MOSI
          331   6649: g_AM_BSP_GPIO_IOM1_SCK
          332   6672: g_AM_BSP_GPIO_IOM1_SCL
          333   6695: g_AM_BSP_GPIO_IOM1_SDA
          334   6718: g_AM_BSP_GPIO_IOM2_CS
          335   6740: g_AM_BSP_GPIO_IOM2_MISO
          336   6764: g_AM_BSP_GPIO_IOM2_MOSI
          337   6788: g_AM_BSP_GPIO_IOM2_SCK
          338   6811: g_AM_BSP_GPIO_IOM2_SCL
          339   6834: g_AM_BSP_GPIO_IOM2_SDA
          340   6857: g_AM_BSP_GPIO_IOM3_CS
          341   6879: g_AM_BSP_GPIO_IOM3_MISO
          342   6903: g_AM_BSP_GPIO_IOM3_MOSI
          343   6927: g_AM_BSP_GPIO_IOM3_SCK
          344   6950: g_AM_BSP_GPIO_IOM3_SCL
          345   6973: g_AM_BSP_GPIO_IOM3_SDA
          346   6996: g_AM_BSP_GPIO_IOM4_CS
          347   7018: g_AM_BSP_GPIO_IOM4_MISO
          348   7042: g_AM_BSP_GPIO_IOM4_MOSI
          349   7066: g_AM_BSP_GPIO_IOM4_SCK
          350   7089: g_AM_BSP_GPIO_IOM4_SCL
          351   7112: g_AM_BSP_GPIO_IOM4_SDA
          352   7135: g_AM_BSP_GPIO_IOM5_CS
          353   7157: g_AM_BSP_GPIO_IOM5_MISO
          354   7181: g_AM_BSP_GPIO_IOM5_MOSI
          355   7205: g_AM_BSP_GPIO_IOM5_SCK
          356   7228: g_AM_BSP_GPIO_IOM5_SCL
          357   7251: g_AM_BSP_GPIO_IOM5_SDA
          358   7274: g_AM_BSP_GPIO_ITM_SWO
          359   7296: g_AM_HAL_GPIO_OUTPUT
          360   7317: Region$$Table$$Base
          361   7337: Region$$Table$$Limit
          362   7358: am_bsp_psLEDs
          363   7372: __libspace_start
          364   7389: __temporary_stack_top$libspace
          365   7420: bIosInt
          366   7428: gAmHalResetStatus
          367   7446: g_IOMHandle
          368   7458: g_IOMhandles
          369   7471: g_am_hal_sysctrl_sleep_count
          370   7500: g_pfnCharPrint
          371   7515: g_pui8RcvBuf
          372   7528: g_startIdx
          373   7539: g_ui32LastUpdate


** Section #12 '.note' (SHT_NOTE)
    Size   : 28 bytes (alignment 4)


** Section #13 '.comment' (SHT_PROGBITS)
    Size   : 1508 bytes


** Section #14 '.shstrtab' (SHT_STRTAB)
    Size   : 132 bytes

            #  Offset String
        ====================================

            1      1: FLASH
            2      7: SRAM
            3     12: .debug_abbrev
            4     26: .debug_frame
            5     39: .debug_info
            6     51: .debug_line
            7     63: .debug_str
            8     74: .debug_ranges
            9     88: .symtab
           10     96: .strtab
           11    104: .note
           12    110: .comment
           13    119: .shstrtab
           14    129: 
           15    130: 
           16    131: 


