
========================================================================

** ELF Header Information

    File Name: bin\uart_boot_host.axf

    Machine class: ELFCLASS32 (32-bit)
    Data encoding: ELFDATA2LSB (Little endian)
    Header version: EV_CURRENT (Current version)
    Operating System ABI: none
    ABI Version: 0
    File Type: ET_EXEC (Executable) (2)
    Machine: EM_ARM (ARM)

    Image Entry point: 0x0000c135
    Flags: EF_ARM_HASENTRY + EF_ARM_ABI_FLOAT_HARD (0x05000402)

    ARM ELF revision: 5 (ABI version 2)

    Conforms to Hard float procedure-call standard

    Built with
    Component: ARM Compiler 6.16 Tool: armasm [5dfea300]
    Component: ARM Compiler 6.16 Tool: armlink [5dfeaa00]

    Header size: 52 bytes (0x34)
    Program header entry size: 32 bytes (0x20)
    Section header entry size: 40 bytes (0x28)

    Program header entries: 1
    Section header entries: 16

    Program header offset: 68732 (0x00010c7c)
    Section header offset: 68764 (0x00010c9c)

    Section header string table index: 15

========================================================================

** Program header #0 (PT_LOAD) [PF_X + PF_W + PF_R + PF_ARM_ENTRY]
    Size : 66536 bytes (19520 bytes in file)
    Virtual address: 0x0000c000 (Alignment 8)


========================================================================

** Section #1 'ROMEM' (SHT_PROGBITS) [SHF_ALLOC + SHF_EXECINSTR]
    Size   : 19428 bytes (alignment 4)
    Address: 0x0000c000

    $d
    RESET
    __Vectors
        0x0000c000:    10011000    ....    DCD    268505088
        0x0000c004:    0000c101    ....    DCD    49409
        0x0000c008:    0000c11f    ....    DCD    49439
        0x0000c00c:    0000c3c5    ....    DCD    50117
        0x0000c010:    0000c121    !...    DCD    49441
        0x0000c014:    0000c123    #...    DCD    49443
        0x0000c018:    0000c125    %...    DCD    49445
        0x0000c01c:    00000000    ....    DCD    0
        0x0000c020:    00000000    ....    DCD    0
        0x0000c024:    00000000    ....    DCD    0
        0x0000c028:    00000000    ....    DCD    0
        0x0000c02c:    0000c127    '...    DCD    49447
        0x0000c030:    0000c129    )...    DCD    49449
        0x0000c034:    00000000    ....    DCD    0
        0x0000c038:    0000c12b    +...    DCD    49451
        0x0000c03c:    0000c12d    -...    DCD    49453
        0x0000c040:    0000c12f    /...    DCD    49455
        0x0000c044:    0000c12f    /...    DCD    49455
        0x0000c048:    0000c12f    /...    DCD    49455
        0x0000c04c:    0000c12f    /...    DCD    49455
        0x0000c050:    0000c12f    /...    DCD    49455
        0x0000c054:    0000c12f    /...    DCD    49455
        0x0000c058:    0000c12f    /...    DCD    49455
        0x0000c05c:    0000c12f    /...    DCD    49455
        0x0000c060:    0000c12f    /...    DCD    49455
        0x0000c064:    0000c12f    /...    DCD    49455
        0x0000c068:    0000c12f    /...    DCD    49455
        0x0000c06c:    0000c12f    /...    DCD    49455
        0x0000c070:    0000c12f    /...    DCD    49455
        0x0000c074:    0000c78d    ....    DCD    51085
        0x0000c078:    0000c12f    /...    DCD    49455
        0x0000c07c:    0000e835    5...    DCD    59445
        0x0000c080:    0000c12f    /...    DCD    49455
        0x0000c084:    0000c12f    /...    DCD    49455
        0x0000c088:    0000c12f    /...    DCD    49455
        0x0000c08c:    0000c12f    /...    DCD    49455
        0x0000c090:    0000c12f    /...    DCD    49455
        0x0000c094:    0000c12f    /...    DCD    49455
        0x0000c098:    0000c12f    /...    DCD    49455
        0x0000c09c:    0000c12f    /...    DCD    49455
        0x0000c0a0:    0000c12f    /...    DCD    49455
        0x0000c0a4:    0000c12f    /...    DCD    49455
        0x0000c0a8:    0000c12f    /...    DCD    49455
        0x0000c0ac:    0000c12f    /...    DCD    49455
        0x0000c0b0:    0000c12f    /...    DCD    49455
        0x0000c0b4:    0000c12f    /...    DCD    49455
        0x0000c0b8:    0000c12f    /...    DCD    49455
        0x0000c0bc:    0000c12f    /...    DCD    49455
        0x0000c0c0:    0000c12f    /...    DCD    49455
        0x0000c0c4:    0000c12f    /...    DCD    49455
    __Patchable
        0x0000c0c8:    00000000    ....    DCD    0
        0x0000c0cc:    00000000    ....    DCD    0
        0x0000c0d0:    00000000    ....    DCD    0
        0x0000c0d4:    00000000    ....    DCD    0
        0x0000c0d8:    00000000    ....    DCD    0
        0x0000c0dc:    00000000    ....    DCD    0
        0x0000c0e0:    00000000    ....    DCD    0
        0x0000c0e4:    00000000    ....    DCD    0
        0x0000c0e8:    00000000    ....    DCD    0
        0x0000c0ec:    00000000    ....    DCD    0
        0x0000c0f0:    00000000    ....    DCD    0
        0x0000c0f4:    00000000    ....    DCD    0
        0x0000c0f8:    00000000    ....    DCD    0
        0x0000c0fc:    00000000    ....    DCD    0
    $t
    $v0
    Reset_Handler
        0x0000c100:    f64e5088    N..P    MOV      r0,#0xed88
        0x0000c104:    f2ce0000    ....    MOVT     r0,#0xe000
        0x0000c108:    6801        .h      LDR      r1,[r0,#0]
        0x0000c10a:    f4410170    A.p.    ORR      r1,r1,#0xf00000
        0x0000c10e:    6001        .`      STR      r1,[r0,#0]
        0x0000c110:    f3bf8f4f    ..O.    DSB      
        0x0000c114:    f3bf8f6f    ..o.    ISB      
        0x0000c118:    4805        .H      LDR      r0,[pc,#20] ; [0xc130] = 0xc135
        0x0000c11a:    4700        .G      BX       r0
        0x0000c11c:    e7fe        ..      B        0xc11c ; Reset_Handler + 28
    NMI_Handler
        0x0000c11e:    e7fe        ..      B        NMI_Handler ; 0xc11e
    MemManage_Handler
        0x0000c120:    e7fe        ..      B        MemManage_Handler ; 0xc120
    BusFault_Handler
        0x0000c122:    e7fe        ..      B        BusFault_Handler ; 0xc122
    UsageFault_Handler
        0x0000c124:    e7fe        ..      B        UsageFault_Handler ; 0xc124
    SVC_Handler
        0x0000c126:    e7fe        ..      B        SVC_Handler ; 0xc126
    DebugMon_Handler
        0x0000c128:    e7fe        ..      B        DebugMon_Handler ; 0xc128
    PendSV_Handler
        0x0000c12a:    e7fe        ..      B        PendSV_Handler ; 0xc12a
    SysTick_Handler
        0x0000c12c:    e7fe        ..      B        SysTick_Handler ; 0xc12c
    am_adc_isr
    am_ble_isr
    am_brownout_isr
    am_clkgen_isr
    am_ctimer_isr
    am_iomaster0_isr
    am_iomaster1_isr
    am_iomaster2_isr
    am_iomaster3_isr
    am_iomaster4_isr
    am_iomaster5_isr
    am_ioslave_acc_isr
    am_ioslave_ios_isr
    am_mspi0_isr
    am_mspi1_isr
    am_mspi2_isr
    am_pdm0_isr
    am_rtc_isr
    am_scard_isr
    am_software0_isr
    am_stimer_cmpr0_isr
    am_stimer_cmpr1_isr
    am_stimer_cmpr2_isr
    am_stimer_cmpr3_isr
    am_stimer_cmpr4_isr
    am_stimer_cmpr5_isr
    am_stimer_cmpr6_isr
    am_stimer_cmpr7_isr
    am_stimer_isr
    am_uart0_isr
    am_uart1_isr
    am_vcomp_isr
    am_watchdog_isr
        0x0000c12e:    e7fe        ..      B        am_adc_isr ; 0xc12e
    $d
        0x0000c130:    0000c135    5...    DCD    49461
    $t
    !!!main
    __main
        0x0000c134:    f000f802    ....    BL       __scatterload ; 0xc13c
        0x0000c138:    f000f83c    ..<.    BL       __rt_entry ; 0xc1b4
    !!!scatter
    __scatterload
    __scatterload_rt2
    __scatterload_rt2_thumb_only
        0x0000c13c:    a00a        ..      ADR      r0,{pc}+0x2c ; 0xc168
        0x0000c13e:    e8900c00    ....    LDM      r0,{r10,r11}
        0x0000c142:    4482        .D      ADD      r10,r10,r0
        0x0000c144:    4483        .D      ADD      r11,r11,r0
        0x0000c146:    f1aa0701    ....    SUB      r7,r10,#1
    __scatterload_null
        0x0000c14a:    45da        .E      CMP      r10,r11
        0x0000c14c:    d101        ..      BNE      0xc152 ; __scatterload_null + 8
        0x0000c14e:    f000f831    ..1.    BL       __rt_entry ; 0xc1b4
        0x0000c152:    f2af0e09    ....    ADR      lr,{pc}-7 ; 0xc14b
        0x0000c156:    e8ba000f    ....    LDM      r10!,{r0-r3}
        0x0000c15a:    f0130f01    ....    TST      r3,#1
        0x0000c15e:    bf18        ..      IT       NE
        0x0000c160:    1afb        ..      SUBNE    r3,r7,r3
        0x0000c162:    f0430301    C...    ORR      r3,r3,#1
        0x0000c166:    4718        .G      BX       r3
    $d
        0x0000c168:    00004a4c    LJ..    DCD    19020
        0x0000c16c:    00004a7c    |J..    DCD    19068
    $t
    !!handler_copy
    __scatterload_copy
        0x0000c170:    3a10        .:      SUBS     r2,r2,#0x10
        0x0000c172:    bf24        $.      ITT      CS
        0x0000c174:    c878        x.      LDMCS    r0!,{r3-r6}
        0x0000c176:    c178        x.      STMCS    r1!,{r3-r6}
        0x0000c178:    d8fa        ..      BHI      __scatterload_copy ; 0xc170
        0x0000c17a:    0752        R.      LSLS     r2,r2,#29
        0x0000c17c:    bf24        $.      ITT      CS
        0x0000c17e:    c830        0.      LDMCS    r0!,{r4,r5}
        0x0000c180:    c130        0.      STMCS    r1!,{r4,r5}
        0x0000c182:    bf44        D.      ITT      MI
        0x0000c184:    6804        .h      LDRMI    r4,[r0,#0]
        0x0000c186:    600c        .`      STRMI    r4,[r1,#0]
        0x0000c188:    4770        pG      BX       lr
        0x0000c18a:    0000        ..      MOVS     r0,r0
    !!handler_zi
    __scatterload_zeroinit
        0x0000c18c:    2300        .#      MOVS     r3,#0
        0x0000c18e:    2400        .$      MOVS     r4,#0
        0x0000c190:    2500        .%      MOVS     r5,#0
        0x0000c192:    2600        .&      MOVS     r6,#0
        0x0000c194:    3a10        .:      SUBS     r2,r2,#0x10
        0x0000c196:    bf28        (.      IT       CS
        0x0000c198:    c178        x.      STMCS    r1!,{r3-r6}
        0x0000c19a:    d8fb        ..      BHI      0xc194 ; __scatterload_zeroinit + 8
        0x0000c19c:    0752        R.      LSLS     r2,r2,#29
        0x0000c19e:    bf28        (.      IT       CS
        0x0000c1a0:    c130        0.      STMCS    r1!,{r4,r5}
        0x0000c1a2:    bf48        H.      IT       MI
        0x0000c1a4:    600b        .`      STRMI    r3,[r1,#0]
        0x0000c1a6:    4770        pG      BX       lr
    .ARM.Collect$$libinit$$00000000
    __rt_lib_init
        0x0000c1a8:    b51f        ..      PUSH     {r0-r4,lr}
    .ARM.Collect$$libinit$$00000001
    __rt_lib_init_fp_1
        0x0000c1aa:    f004f96a    ..j.    BL       _fp_init ; 0x10482
    .ARM.Collect$$libinit$$00000004
    .ARM.Collect$$libinit$$0000000A
    .ARM.Collect$$libinit$$0000000C
    .ARM.Collect$$libinit$$0000000E
    .ARM.Collect$$libinit$$00000011
    .ARM.Collect$$libinit$$00000013
    .ARM.Collect$$libinit$$00000015
    .ARM.Collect$$libinit$$00000017
    .ARM.Collect$$libinit$$00000019
    .ARM.Collect$$libinit$$0000001B
    .ARM.Collect$$libinit$$0000001D
    .ARM.Collect$$libinit$$0000001F
    .ARM.Collect$$libinit$$00000021
    .ARM.Collect$$libinit$$00000023
    .ARM.Collect$$libinit$$00000025
    .ARM.Collect$$libinit$$0000002C
    .ARM.Collect$$libinit$$0000002E
    .ARM.Collect$$libinit$$00000030
    .ARM.Collect$$libinit$$00000032
    .ARM.Collect$$libinit$$00000033
    __rt_lib_init_alloca_1
    __rt_lib_init_argv_1
    __rt_lib_init_atexit_1
    __rt_lib_init_clock_1
    __rt_lib_init_cpp_1
    __rt_lib_init_exceptions_1
    __rt_lib_init_fp_trap_1
    __rt_lib_init_getenv_1
    __rt_lib_init_heap_1
    __rt_lib_init_lc_collate_1
    __rt_lib_init_lc_ctype_1
    __rt_lib_init_lc_monetary_1
    __rt_lib_init_lc_numeric_1
    __rt_lib_init_lc_time_1
    __rt_lib_init_preinit_1
    __rt_lib_init_rand_1
    __rt_lib_init_return
    __rt_lib_init_signal_1
    __rt_lib_init_stdio_1
    __rt_lib_init_user_alloc_1
        0x0000c1ae:    bd1f        ..      POP      {r0-r4,pc}
    .ARM.Collect$$libshutdown$$00000000
    __rt_lib_shutdown
        0x0000c1b0:    b510        ..      PUSH     {r4,lr}
    .ARM.Collect$$libshutdown$$00000002
    .ARM.Collect$$libshutdown$$00000004
    .ARM.Collect$$libshutdown$$00000007
    .ARM.Collect$$libshutdown$$0000000A
    .ARM.Collect$$libshutdown$$0000000C
    .ARM.Collect$$libshutdown$$0000000F
    .ARM.Collect$$libshutdown$$00000010
    __rt_lib_shutdown_cpp_1
    __rt_lib_shutdown_fp_trap_1
    __rt_lib_shutdown_heap_1
    __rt_lib_shutdown_return
    __rt_lib_shutdown_signal_1
    __rt_lib_shutdown_stdio_1
    __rt_lib_shutdown_user_alloc_1
        0x0000c1b2:    bd10        ..      POP      {r4,pc}
    .ARM.Collect$$rtentry$$00000000
    .ARM.Collect$$rtentry$$00000002
    .ARM.Collect$$rtentry$$00000004
    __rt_entry
    __rt_entry_presh_1
    __rt_entry_sh
        0x0000c1b4:    f000f8bb    ....    BL       __user_setup_stackheap ; 0xc32e
        0x0000c1b8:    4611        .F      MOV      r1,r2
    .ARM.Collect$$rtentry$$00000009
    .ARM.Collect$$rtentry$$0000000A
    __rt_entry_li
    __rt_entry_postsh_1
        0x0000c1ba:    f7fffff5    ....    BL       __rt_lib_init ; 0xc1a8
    .ARM.Collect$$rtentry$$0000000C
    .ARM.Collect$$rtentry$$0000000D
    __rt_entry_main
    __rt_entry_postli_1
        0x0000c1be:    f003fad9    ....    BL       main ; 0xf774
        0x0000c1c2:    f000f8d9    ....    BL       exit ; 0xc378
    .ARM.Collect$$rtexit$$00000000
    __rt_exit
        0x0000c1c6:    b403        ..      PUSH     {r0,r1}
    .ARM.Collect$$rtexit$$00000002
    .ARM.Collect$$rtexit$$00000003
    __rt_exit_ls
    __rt_exit_prels_1
        0x0000c1c8:    f7fffff2    ....    BL       __rt_lib_shutdown ; 0xc1b0
    .ARM.Collect$$rtexit$$00000004
    __rt_exit_exit
        0x0000c1cc:    bc03        ..      POP      {r0,r1}
        0x0000c1ce:    f000f8e1    ....    BL       _sys_exit ; 0xc394
        0x0000c1d2:    0000        ..      MOVS     r0,r0
    .text
    $v0
    __user_initial_stackheap
        0x0000c1d4:    4802        .H      LDR      r0,[pc,#8] ; [0xc1e0] = 0x1001b800
        0x0000c1d6:    4903        .I      LDR      r1,[pc,#12] ; [0xc1e4] = 0x10011000
        0x0000c1d8:    4a01        .J      LDR      r2,[pc,#4] ; [0xc1e0] = 0x1001b800
        0x0000c1da:    4b03        .K      LDR      r3,[pc,#12] ; [0xc1e8] = 0x10010000
        0x0000c1dc:    4770        pG      BX       lr
    $d
        0x0000c1de:    0000        ..      DCW    0
        0x0000c1e0:    1001b800    ....    DCD    268548096
        0x0000c1e4:    10011000    ....    DCD    268505088
        0x0000c1e8:    10010000    ....    DCD    268500992
    $t
    .text
    __aeabi_memcpy
    __rt_memcpy
        0x0000c1ec:    2a03        .*      CMP      r2,#3
        0x0000c1ee:    f2408030    @.0.    BLS.W    _memcpy_lastbytes ; 0xc252
        0x0000c1f2:    f0100c03    ....    ANDS     r12,r0,#3
        0x0000c1f6:    f0008015    ....    BEQ.W    0xc224 ; __aeabi_memcpy + 56
        0x0000c1fa:    f8113b01    ...;    LDRB     r3,[r1],#1
        0x0000c1fe:    f1bc0f02    ....    CMP      r12,#2
        0x0000c202:    4462        bD      ADD      r2,r2,r12
        0x0000c204:    bf98        ..      IT       LS
        0x0000c206:    f811cb01    ....    LDRBLS   r12,[r1],#1
        0x0000c20a:    f8003b01    ...;    STRB     r3,[r0],#1
        0x0000c20e:    bf38        8.      IT       CC
        0x0000c210:    f8113b01    ...;    LDRBCC   r3,[r1],#1
        0x0000c214:    f1a20204    ....    SUB      r2,r2,#4
        0x0000c218:    bf98        ..      IT       LS
        0x0000c21a:    f800cb01    ....    STRBLS   r12,[r0],#1
        0x0000c21e:    bf38        8.      IT       CC
        0x0000c220:    f8003b01    ...;    STRBCC   r3,[r0],#1
        0x0000c224:    f0110303    ....    ANDS     r3,r1,#3
        0x0000c228:    f000804f    ..O.    BEQ.W    __aeabi_memcpy4 ; 0xc2ca
        0x0000c22c:    3a08        .:      SUBS     r2,r2,#8
        0x0000c22e:    f0c08008    ....    BCC.W    0xc242 ; __aeabi_memcpy + 86
        0x0000c232:    f8513b04    Q..;    LDR      r3,[r1],#4
        0x0000c236:    3a08        .:      SUBS     r2,r2,#8
        0x0000c238:    f851cb04    Q...    LDR      r12,[r1],#4
        0x0000c23c:    e8a01008    ....    STM      r0!,{r3,r12}
        0x0000c240:    e7f5        ..      B        0xc22e ; __aeabi_memcpy + 66
        0x0000c242:    1d12        ..      ADDS     r2,r2,#4
        0x0000c244:    bf5c        \.      ITT      PL
        0x0000c246:    f8513b04    Q..;    LDRPL    r3,[r1],#4
        0x0000c24a:    f8403b04    @..;    STRPL    r3,[r0],#4
        0x0000c24e:    f3af8000    ....    NOP.W    
    _memcpy_lastbytes
        0x0000c252:    07d2        ..      LSLS     r2,r2,#31
        0x0000c254:    bf24        $.      ITT      CS
        0x0000c256:    f8113b01    ...;    LDRBCS   r3,[r1],#1
        0x0000c25a:    f811cb01    ....    LDRBCS   r12,[r1],#1
        0x0000c25e:    bf48        H.      IT       MI
        0x0000c260:    f8112b01    ...+    LDRBMI   r2,[r1],#1
        0x0000c264:    bf24        $.      ITT      CS
        0x0000c266:    f8003b01    ...;    STRBCS   r3,[r0],#1
        0x0000c26a:    f800cb01    ....    STRBCS   r12,[r0],#1
        0x0000c26e:    bf48        H.      IT       MI
        0x0000c270:    f8002b01    ...+    STRBMI   r2,[r0],#1
        0x0000c274:    4770        pG      BX       lr
    .text
    __aeabi_memclr4
    __aeabi_memclr8
    __rt_memclr_w
        0x0000c276:    f04f0200    O...    MOV      r2,#0
    _memset_w
        0x0000c27a:    b500        ..      PUSH     {lr}
        0x0000c27c:    4613        .F      MOV      r3,r2
        0x0000c27e:    4694        .F      MOV      r12,r2
        0x0000c280:    4696        .F      MOV      lr,r2
        0x0000c282:    3920         9      SUBS     r1,r1,#0x20
        0x0000c284:    bf22        ".      ITTT     CS
        0x0000c286:    e8a0500c    ...P    STMCS    r0!,{r2,r3,r12,lr}
        0x0000c28a:    e8a0500c    ...P    STMCS    r0!,{r2,r3,r12,lr}
        0x0000c28e:    f1b10120    .. .    SUBSCS   r1,r1,#0x20
        0x0000c292:    f4bfaff7    ....    BCS.W    0xc284 ; _memset_w + 10
        0x0000c296:    0709        ..      LSLS     r1,r1,#28
        0x0000c298:    bf28        (.      IT       CS
        0x0000c29a:    e8a0500c    ...P    STMCS    r0!,{r2,r3,r12,lr}
        0x0000c29e:    bf48        H.      IT       MI
        0x0000c2a0:    c00c        ..      STMMI    r0!,{r2,r3}
        0x0000c2a2:    f85deb04    ]...    POP      {lr}
        0x0000c2a6:    0089        ..      LSLS     r1,r1,#2
        0x0000c2a8:    bf28        (.      IT       CS
        0x0000c2aa:    f8402b04    @..+    STRCS    r2,[r0],#4
        0x0000c2ae:    bf08        ..      IT       EQ
        0x0000c2b0:    4770        pG      BXEQ     lr
        0x0000c2b2:    bf48        H.      IT       MI
        0x0000c2b4:    f8202b02     ..+    STRHMI   r2,[r0],#2
        0x0000c2b8:    f0114f80    ...O    TST      r1,#0x40000000
        0x0000c2bc:    bf18        ..      IT       NE
        0x0000c2be:    f8002b01    ...+    STRBNE   r2,[r0],#1
        0x0000c2c2:    4770        pG      BX       lr
    .text
    __use_two_region_memory
        0x0000c2c4:    4770        pG      BX       lr
    __rt_heap_escrow$2region
        0x0000c2c6:    4770        pG      BX       lr
    __rt_heap_expand$2region
        0x0000c2c8:    4770        pG      BX       lr
    .text
    __aeabi_memcpy4
    __aeabi_memcpy8
    __rt_memcpy_w
        0x0000c2ca:    b510        ..      PUSH     {r4,lr}
        0x0000c2cc:    3a20         :      SUBS     r2,r2,#0x20
        0x0000c2ce:    f0c0800b    ....    BCC.W    0xc2e8 ; __aeabi_memcpy4 + 30
        0x0000c2d2:    e8b15018    ...P    LDM      r1!,{r3,r4,r12,lr}
        0x0000c2d6:    e8a05018    ...P    STM      r0!,{r3,r4,r12,lr}
        0x0000c2da:    e8b15018    ...P    LDM      r1!,{r3,r4,r12,lr}
        0x0000c2de:    e8a05018    ...P    STM      r0!,{r3,r4,r12,lr}
        0x0000c2e2:    3a20         :      SUBS     r2,r2,#0x20
        0x0000c2e4:    f4bfaff5    ....    BCS.W    0xc2d2 ; __aeabi_memcpy4 + 8
        0x0000c2e8:    ea5f7c02    _..|    LSLS     r12,r2,#28
        0x0000c2ec:    bf24        $.      ITT      CS
        0x0000c2ee:    e8b15018    ...P    LDMCS    r1!,{r3,r4,r12,lr}
        0x0000c2f2:    e8a05018    ...P    STMCS    r0!,{r3,r4,r12,lr}
        0x0000c2f6:    bf44        D.      ITT      MI
        0x0000c2f8:    c918        ..      LDMMI    r1!,{r3,r4}
        0x0000c2fa:    c018        ..      STMMI    r0!,{r3,r4}
        0x0000c2fc:    e8bd4010    ...@    POP      {r4,lr}
        0x0000c300:    ea5f7c82    _..|    LSLS     r12,r2,#30
        0x0000c304:    bf24        $.      ITT      CS
        0x0000c306:    f8513b04    Q..;    LDRCS    r3,[r1],#4
        0x0000c30a:    f8403b04    @..;    STRCS    r3,[r0],#4
        0x0000c30e:    bf08        ..      IT       EQ
        0x0000c310:    4770        pG      BXEQ     lr
    _memcpy_lastbytes_aligned
        0x0000c312:    07d2        ..      LSLS     r2,r2,#31
        0x0000c314:    bf28        (.      IT       CS
        0x0000c316:    f8313b02    1..;    LDRHCS   r3,[r1],#2
        0x0000c31a:    bf48        H.      IT       MI
        0x0000c31c:    f8112b01    ...+    LDRBMI   r2,[r1],#1
        0x0000c320:    bf28        (.      IT       CS
        0x0000c322:    f8203b02     ..;    STRHCS   r3,[r0],#2
        0x0000c326:    bf48        H.      IT       MI
        0x0000c328:    f8002b01    ...+    STRBMI   r2,[r0],#1
        0x0000c32c:    4770        pG      BX       lr
    .text
    __user_setup_stackheap
        0x0000c32e:    4675        uF      MOV      r5,lr
        0x0000c330:    f000f82c    ..,.    BL       __user_libspace ; 0xc38c
        0x0000c334:    46ae        .F      MOV      lr,r5
        0x0000c336:    0005        ..      MOVS     r5,r0
        0x0000c338:    4669        iF      MOV      r1,sp
        0x0000c33a:    4653        SF      MOV      r3,r10
        0x0000c33c:    f0200007     ...    BIC      r0,r0,#7
        0x0000c340:    4685        .F      MOV      sp,r0
        0x0000c342:    b018        ..      ADD      sp,sp,#0x60
        0x0000c344:    b520         .      PUSH     {r5,lr}
        0x0000c346:    f7ffff45    ..E.    BL       __user_initial_stackheap ; 0xc1d4
        0x0000c34a:    e8bd4020    .. @    POP      {r5,lr}
        0x0000c34e:    f04f0600    O...    MOV      r6,#0
        0x0000c352:    f04f0700    O...    MOV      r7,#0
        0x0000c356:    f04f0800    O...    MOV      r8,#0
        0x0000c35a:    f04f0b00    O...    MOV      r11,#0
        0x0000c35e:    46ac        .F      MOV      r12,r5
        0x0000c360:    e8ac09c0    ....    STM      r12!,{r6-r8,r11}
        0x0000c364:    e8ac09c0    ....    STM      r12!,{r6-r8,r11}
        0x0000c368:    e8ac09c0    ....    STM      r12!,{r6-r8,r11}
        0x0000c36c:    e8ac09c0    ....    STM      r12!,{r6-r8,r11}
        0x0000c370:    f0210107    !...    BIC      r1,r1,#7
        0x0000c374:    468d        .F      MOV      sp,r1
        0x0000c376:    4770        pG      BX       lr
    .text
    exit
        0x0000c378:    b510        ..      PUSH     {r4,lr}
        0x0000c37a:    4604        .F      MOV      r4,r0
        0x0000c37c:    f3af8000    ....    NOP.W    
        0x0000c380:    4620         F      MOV      r0,r4
        0x0000c382:    e8bd4010    ...@    POP      {r4,lr}
        0x0000c386:    f7ffbf1e    ....    B.W      __rt_exit ; 0xc1c6
        0x0000c38a:    0000        ..      MOVS     r0,r0
    .text
    __user_libspace
    __user_perproc_libspace
    __user_perthread_libspace
        0x0000c38c:    4800        .H      LDR      r0,[pc,#0] ; [0xc390] = 0x10011058
        0x0000c38e:    4770        pG      BX       lr
    $d
        0x0000c390:    10011058    X...    DCD    268505176
    $t
    .text
    _sys_exit
        0x0000c394:    4901        .I      LDR      r1,[pc,#4] ; [0xc39c] = 0x20026
        0x0000c396:    2018        .       MOVS     r0,#0x18
        0x0000c398:    beab        ..      BKPT     #0xab
        0x0000c39a:    e7fe        ..      B        0xc39a ; _sys_exit + 6
    $d
        0x0000c39c:    00020026    &...    DCD    131110
    $t
    .text
    __I$use$semihosting
    __use_no_semihosting_swi
        0x0000c3a0:    4770        pG      BX       lr
    .text
    __semihosting_library_function
        0x0000c3a2:    0000        ..      MOVS     r0,r0
    $t.13
    AM_HAL_GPIO_MASKBIT
        0x0000c3a4:    b082        ..      SUB      sp,sp,#8
        0x0000c3a6:    9001        ..      STR      r0,[sp,#4]
        0x0000c3a8:    9100        ..      STR      r1,[sp,#0]
        0x0000c3aa:    9800        ..      LDR      r0,[sp,#0]
        0x0000c3ac:    0942        B.      LSRS     r2,r0,#5
        0x0000c3ae:    eba01142    ..B.    SUB      r1,r0,r2,LSL #5
        0x0000c3b2:    2001        .       MOVS     r0,#1
        0x0000c3b4:    4088        .@      LSLS     r0,r0,r1
        0x0000c3b6:    9901        ..      LDR      r1,[sp,#4]
        0x0000c3b8:    f8410022    A.".    STR      r0,[r1,r2,LSL #2]
        0x0000c3bc:    9801        ..      LDR      r0,[sp,#4]
        0x0000c3be:    b002        ..      ADD      sp,sp,#8
        0x0000c3c0:    4770        pG      BX       lr
        0x0000c3c2:    0000        ..      MOVS     r0,r0
    HardFault_Handler
        0x0000c3c4:    b501        ..      PUSH     {r0,lr}
        0x0000c3c6:    f01e0f04    ....    TST      lr,#4
        0x0000c3ca:    bf0a        ..      ITET     EQ
        0x0000c3cc:    f3ef8008    ....    MRSEQ    r0,MSP
        0x0000c3d0:    f3ef8009    ....    MRSNE    r0,PSP
        0x0000c3d4:    f1100008    ....    ADDSEQ   r0,r0,#8
        0x0000c3d8:    f002faae    ....    BL       am_util_faultisr_collect_data ; 0xe938
        0x0000c3dc:    bd01        ..      POP      {r0,pc}
        0x0000c3de:    0000        ..      MOVS     r0,r0
    USE_SPI_get
        0x0000c3e0:    b580        ..      PUSH     {r7,lr}
        0x0000c3e2:    b082        ..      SUB      sp,sp,#8
        0x0000c3e4:    f24070b0    @..p    MOVW     r0,#0x7b0
        0x0000c3e8:    f2c00001    ....    MOVT     r0,#1
        0x0000c3ec:    6801        .h      LDR      r1,[r0,#0]
        0x0000c3ee:    2013        .       MOVS     r0,#0x13
        0x0000c3f0:    9000        ..      STR      r0,[sp,#0]
        0x0000c3f2:    f000fe45    ..E.    BL       am_hal_gpio_pinconfig ; 0xd080
        0x0000c3f6:    2005        .       MOVS     r0,#5
        0x0000c3f8:    f002fa86    ....    BL       am_util_delay_us ; 0xe908
        0x0000c3fc:    9800        ..      LDR      r0,[sp,#0]
        0x0000c3fe:    2100        .!      MOVS     r1,#0
        0x0000c400:    aa01        ..      ADD      r2,sp,#4
        0x0000c402:    f000ff46    ..F.    BL       am_hal_gpio_state_read ; 0xd292
        0x0000c406:    9800        ..      LDR      r0,[sp,#0]
        0x0000c408:    f24071ac    @..q    MOV      r1,#0x7ac
        0x0000c40c:    f2c00101    ....    MOVT     r1,#1
        0x0000c410:    6809        .h      LDR      r1,[r1,#0]
        0x0000c412:    f000fe35    ..5.    BL       am_hal_gpio_pinconfig ; 0xd080
        0x0000c416:    9801        ..      LDR      r0,[sp,#4]
        0x0000c418:    2800        .(      CMP      r0,#0
        0x0000c41a:    bf18        ..      IT       NE
        0x0000c41c:    2001        .       MOVNE    r0,#1
        0x0000c41e:    b002        ..      ADD      sp,sp,#8
        0x0000c420:    bd80        ..      POP      {r7,pc}
        0x0000c422:    0000        ..      MOVS     r0,r0
    __NVIC_DisableIRQ
        0x0000c424:    b081        ..      SUB      sp,sp,#4
        0x0000c426:    f88d0003    ....    STRB     r0,[sp,#3]
        0x0000c42a:    f99d0003    ....    LDRSB    r0,[sp,#3]
        0x0000c42e:    2800        .(      CMP      r0,#0
        0x0000c430:    d412        ..      BMI      0xc458 ; __NVIC_DisableIRQ + 52
        0x0000c432:    e7ff        ..      B        0xc434 ; __NVIC_DisableIRQ + 16
        0x0000c434:    f99d1003    ....    LDRSB    r1,[sp,#3]
        0x0000c438:    f001021f    ....    AND      r2,r1,#0x1f
        0x0000c43c:    2001        .       MOVS     r0,#1
        0x0000c43e:    4090        .@      LSLS     r0,r0,r2
        0x0000c440:    094a        J.      LSRS     r2,r1,#5
        0x0000c442:    f24e1180    N...    MOV      r1,#0xe180
        0x0000c446:    f2ce0100    ....    MOVT     r1,#0xe000
        0x0000c44a:    f8410022    A.".    STR      r0,[r1,r2,LSL #2]
        0x0000c44e:    f3bf8f4f    ..O.    DSB      
        0x0000c452:    f3bf8f6f    ..o.    ISB      
        0x0000c456:    e7ff        ..      B        0xc458 ; __NVIC_DisableIRQ + 52
        0x0000c458:    b001        ..      ADD      sp,sp,#4
        0x0000c45a:    4770        pG      BX       lr
    __NVIC_EnableIRQ
        0x0000c45c:    b081        ..      SUB      sp,sp,#4
        0x0000c45e:    f88d0003    ....    STRB     r0,[sp,#3]
        0x0000c462:    f99d0003    ....    LDRSB    r0,[sp,#3]
        0x0000c466:    2800        .(      CMP      r0,#0
        0x0000c468:    d40e        ..      BMI      0xc488 ; __NVIC_EnableIRQ + 44
        0x0000c46a:    e7ff        ..      B        0xc46c ; __NVIC_EnableIRQ + 16
        0x0000c46c:    f99d1003    ....    LDRSB    r1,[sp,#3]
        0x0000c470:    f001021f    ....    AND      r2,r1,#0x1f
        0x0000c474:    2001        .       MOVS     r0,#1
        0x0000c476:    4090        .@      LSLS     r0,r0,r2
        0x0000c478:    094a        J.      LSRS     r2,r1,#5
        0x0000c47a:    f24e1100    N...    MOVW     r1,#0xe100
        0x0000c47e:    f2ce0100    ....    MOVT     r1,#0xe000
        0x0000c482:    f8410022    A.".    STR      r0,[r1,r2,LSL #2]
        0x0000c486:    e7ff        ..      B        0xc488 ; __NVIC_EnableIRQ + 44
        0x0000c488:    b001        ..      ADD      sp,sp,#4
        0x0000c48a:    4770        pG      BX       lr
    am_bsp_iom_pins_enable
        0x0000c48c:    b580        ..      PUSH     {r7,lr}
        0x0000c48e:    2805        .(      CMP      r0,#5
        0x0000c490:    d900        ..      BLS      0xc494 ; am_bsp_iom_pins_enable + 8
        0x0000c492:    bd80        ..      POP      {r7,pc}
        0x0000c494:    ea410080    A...    ORR      r0,r1,r0,LSL #2
        0x0000c498:    2815        .(      CMP      r0,#0x15
        0x0000c49a:    bf88        ..      IT       HI
        0x0000c49c:    bd80        ..      POPHI    {r7,pc}
        0x0000c49e:    e8dff010    ....    TBH      [pc,r0,LSL #1]
    $d.9
        0x0000c4a2:    0017        ..      DCW    23
        0x0000c4a4:    00160036    6...    DCD    1441846
        0x0000c4a8:    00450016    ..E.    DCD    4522006
        0x0000c4ac:    00160064    d...    DCD    1441892
        0x0000c4b0:    00730016    ..s.    DCD    7536662
        0x0000c4b4:    00160092    ....    DCD    1441938
        0x0000c4b8:    00a10016    ....    DCD    10551318
        0x0000c4bc:    001600c0    ....    DCD    1441984
        0x0000c4c0:    00cf0016    ....    DCD    13565974
        0x0000c4c4:    001600ee    ....    DCD    1442030
        0x0000c4c8:    00fd0016    ....    DCD    16580630
        0x0000c4cc:    011c        ..      DCW    284
    $t.10
        0x0000c4ce:    e7e0        ..      B        0xc492 ; am_bsp_iom_pins_enable + 6
        0x0000c4d0:    f2407034    @.4p    MOV      r0,#0x734
        0x0000c4d4:    f2c00001    ....    MOVT     r0,#1
        0x0000c4d8:    6801        .h      LDR      r1,[r0,#0]
        0x0000c4da:    2005        .       MOVS     r0,#5
        0x0000c4dc:    f000fdd0    ....    BL       am_hal_gpio_pinconfig ; 0xd080
        0x0000c4e0:    f240702c    @.,p    MOV      r0,#0x72c
        0x0000c4e4:    f2c00001    ....    MOVT     r0,#1
        0x0000c4e8:    6801        .h      LDR      r1,[r0,#0]
        0x0000c4ea:    2006        .       MOVS     r0,#6
        0x0000c4ec:    f000fdc8    ....    BL       am_hal_gpio_pinconfig ; 0xd080
        0x0000c4f0:    f2407030    @.0p    MOVW     r0,#0x730
        0x0000c4f4:    f2c00001    ....    MOVT     r0,#1
        0x0000c4f8:    6801        .h      LDR      r1,[r0,#0]
        0x0000c4fa:    2007        .       MOVS     r0,#7
        0x0000c4fc:    f000fdc0    ....    BL       am_hal_gpio_pinconfig ; 0xd080
        0x0000c500:    f2407028    @.(p    MOVW     r0,#0x728
        0x0000c504:    f2c00001    ....    MOVT     r0,#1
        0x0000c508:    6801        .h      LDR      r1,[r0,#0]
        0x0000c50a:    200b        .       MOVS     r0,#0xb
        0x0000c50c:    e0f3        ..      B        0xc6f6 ; am_bsp_iom_pins_enable + 618
        0x0000c50e:    f2407038    @.8p    MOVW     r0,#0x738
        0x0000c512:    f2c00001    ....    MOVT     r0,#1
        0x0000c516:    6801        .h      LDR      r1,[r0,#0]
        0x0000c518:    2005        .       MOVS     r0,#5
        0x0000c51a:    f000fdb1    ....    BL       am_hal_gpio_pinconfig ; 0xd080
        0x0000c51e:    f240703c    @.<p    MOV      r0,#0x73c
        0x0000c522:    f2c00001    ....    MOVT     r0,#1
        0x0000c526:    6801        .h      LDR      r1,[r0,#0]
        0x0000c528:    2006        .       MOVS     r0,#6
        0x0000c52a:    e0e4        ..      B        0xc6f6 ; am_bsp_iom_pins_enable + 618
        0x0000c52c:    f240704c    @.Lp    MOV      r0,#0x74c
        0x0000c530:    f2c00001    ....    MOVT     r0,#1
        0x0000c534:    6801        .h      LDR      r1,[r0,#0]
        0x0000c536:    2008        .       MOVS     r0,#8
        0x0000c538:    f000fda2    ....    BL       am_hal_gpio_pinconfig ; 0xd080
        0x0000c53c:    f2407044    @.Dp    MOV      r0,#0x744
        0x0000c540:    f2c00001    ....    MOVT     r0,#1
        0x0000c544:    6801        .h      LDR      r1,[r0,#0]
        0x0000c546:    2009        .       MOVS     r0,#9
        0x0000c548:    f000fd9a    ....    BL       am_hal_gpio_pinconfig ; 0xd080
        0x0000c54c:    f2407048    @.Hp    MOVW     r0,#0x748
        0x0000c550:    f2c00001    ....    MOVT     r0,#1
        0x0000c554:    6801        .h      LDR      r1,[r0,#0]
        0x0000c556:    200a        .       MOVS     r0,#0xa
        0x0000c558:    f000fd92    ....    BL       am_hal_gpio_pinconfig ; 0xd080
        0x0000c55c:    f2407040    @.@p    MOVW     r0,#0x740
        0x0000c560:    f2c00001    ....    MOVT     r0,#1
        0x0000c564:    6801        .h      LDR      r1,[r0,#0]
        0x0000c566:    2022        "       MOVS     r0,#0x22
        0x0000c568:    e0c5        ..      B        0xc6f6 ; am_bsp_iom_pins_enable + 618
        0x0000c56a:    f2407050    @.Pp    MOVW     r0,#0x750
        0x0000c56e:    f2c00001    ....    MOVT     r0,#1
        0x0000c572:    6801        .h      LDR      r1,[r0,#0]
        0x0000c574:    2008        .       MOVS     r0,#8
        0x0000c576:    f000fd83    ....    BL       am_hal_gpio_pinconfig ; 0xd080
        0x0000c57a:    f2407054    @.Tp    MOV      r0,#0x754
        0x0000c57e:    f2c00001    ....    MOVT     r0,#1
        0x0000c582:    6801        .h      LDR      r1,[r0,#0]
        0x0000c584:    2009        .       MOVS     r0,#9
        0x0000c586:    e0b6        ..      B        0xc6f6 ; am_bsp_iom_pins_enable + 618
        0x0000c588:    f2407020    @. p    MOVW     r0,#0x720
        0x0000c58c:    f2c00001    ....    MOVT     r0,#1
        0x0000c590:    6801        .h      LDR      r1,[r0,#0]
        0x0000c592:    201b        .       MOVS     r0,#0x1b
        0x0000c594:    f000fd74    ..t.    BL       am_hal_gpio_pinconfig ; 0xd080
        0x0000c598:    f2407018    @..p    MOVW     r0,#0x718
        0x0000c59c:    f2c00001    ....    MOVT     r0,#1
        0x0000c5a0:    6801        .h      LDR      r1,[r0,#0]
        0x0000c5a2:    2019        .       MOVS     r0,#0x19
        0x0000c5a4:    f000fd6c    ..l.    BL       am_hal_gpio_pinconfig ; 0xd080
        0x0000c5a8:    f240701c    @..p    MOV      r0,#0x71c
        0x0000c5ac:    f2c00001    ....    MOVT     r0,#1
        0x0000c5b0:    6801        .h      LDR      r1,[r0,#0]
        0x0000c5b2:    201c        .       MOVS     r0,#0x1c
        0x0000c5b4:    f000fd64    ..d.    BL       am_hal_gpio_pinconfig ; 0xd080
        0x0000c5b8:    f2407024    @.$p    MOV      r0,#0x724
        0x0000c5bc:    f2c00001    ....    MOVT     r0,#1
        0x0000c5c0:    6801        .h      LDR      r1,[r0,#0]
        0x0000c5c2:    200f        .       MOVS     r0,#0xf
        0x0000c5c4:    e097        ..      B        0xc6f6 ; am_bsp_iom_pins_enable + 618
        0x0000c5c6:    f2407058    @.Xp    MOVW     r0,#0x758
        0x0000c5ca:    f2c00001    ....    MOVT     r0,#1
        0x0000c5ce:    6801        .h      LDR      r1,[r0,#0]
        0x0000c5d0:    201b        .       MOVS     r0,#0x1b
        0x0000c5d2:    f000fd55    ..U.    BL       am_hal_gpio_pinconfig ; 0xd080
        0x0000c5d6:    f240705c    @.\p    MOV      r0,#0x75c
        0x0000c5da:    f2c00001    ....    MOVT     r0,#1
        0x0000c5de:    6801        .h      LDR      r1,[r0,#0]
        0x0000c5e0:    2019        .       MOVS     r0,#0x19
        0x0000c5e2:    e088        ..      B        0xc6f6 ; am_bsp_iom_pins_enable + 618
        0x0000c5e4:    f240706c    @.lp    MOV      r0,#0x76c
        0x0000c5e8:    f2c00001    ....    MOVT     r0,#1
        0x0000c5ec:    6801        .h      LDR      r1,[r0,#0]
        0x0000c5ee:    202a        *       MOVS     r0,#0x2a
        0x0000c5f0:    f000fd46    ..F.    BL       am_hal_gpio_pinconfig ; 0xd080
        0x0000c5f4:    f2407064    @.dp    MOV      r0,#0x764
        0x0000c5f8:    f2c00001    ....    MOVT     r0,#1
        0x0000c5fc:    6801        .h      LDR      r1,[r0,#0]
        0x0000c5fe:    202b        +       MOVS     r0,#0x2b
        0x0000c600:    f000fd3e    ..>.    BL       am_hal_gpio_pinconfig ; 0xd080
        0x0000c604:    f2407068    @.hp    MOVW     r0,#0x768
        0x0000c608:    f2c00001    ....    MOVT     r0,#1
        0x0000c60c:    6801        .h      LDR      r1,[r0,#0]
        0x0000c60e:    2026        &       MOVS     r0,#0x26
        0x0000c610:    f000fd36    ..6.    BL       am_hal_gpio_pinconfig ; 0xd080
        0x0000c614:    f2407060    @.`p    MOVW     r0,#0x760
        0x0000c618:    f2c00001    ....    MOVT     r0,#1
        0x0000c61c:    6801        .h      LDR      r1,[r0,#0]
        0x0000c61e:    201d        .       MOVS     r0,#0x1d
        0x0000c620:    e069        i.      B        0xc6f6 ; am_bsp_iom_pins_enable + 618
        0x0000c622:    f2407070    @.pp    MOVW     r0,#0x770
        0x0000c626:    f2c00001    ....    MOVT     r0,#1
        0x0000c62a:    6801        .h      LDR      r1,[r0,#0]
        0x0000c62c:    202a        *       MOVS     r0,#0x2a
        0x0000c62e:    f000fd27    ..'.    BL       am_hal_gpio_pinconfig ; 0xd080
        0x0000c632:    f2407074    @.tp    MOV      r0,#0x774
        0x0000c636:    f2c00001    ....    MOVT     r0,#1
        0x0000c63a:    6801        .h      LDR      r1,[r0,#0]
        0x0000c63c:    202b        +       MOVS     r0,#0x2b
        0x0000c63e:    e05a        Z.      B        0xc6f6 ; am_bsp_iom_pins_enable + 618
        0x0000c640:    f2407084    @..p    MOV      r0,#0x784
        0x0000c644:    f2c00001    ....    MOVT     r0,#1
        0x0000c648:    6801        .h      LDR      r1,[r0,#0]
        0x0000c64a:    2027        '       MOVS     r0,#0x27
        0x0000c64c:    f000fd18    ....    BL       am_hal_gpio_pinconfig ; 0xd080
        0x0000c650:    f240707c    @.|p    MOV      r0,#0x77c
        0x0000c654:    f2c00001    ....    MOVT     r0,#1
        0x0000c658:    6801        .h      LDR      r1,[r0,#0]
        0x0000c65a:    2028        (       MOVS     r0,#0x28
        0x0000c65c:    f000fd10    ....    BL       am_hal_gpio_pinconfig ; 0xd080
        0x0000c660:    f2407080    @..p    MOVW     r0,#0x780
        0x0000c664:    f2c00001    ....    MOVT     r0,#1
        0x0000c668:    6801        .h      LDR      r1,[r0,#0]
        0x0000c66a:    202c        ,       MOVS     r0,#0x2c
        0x0000c66c:    f000fd08    ....    BL       am_hal_gpio_pinconfig ; 0xd080
        0x0000c670:    f2407078    @.xp    MOVW     r0,#0x778
        0x0000c674:    f2c00001    ....    MOVT     r0,#1
        0x0000c678:    6801        .h      LDR      r1,[r0,#0]
        0x0000c67a:    200d        .       MOVS     r0,#0xd
        0x0000c67c:    e03b        ;.      B        0xc6f6 ; am_bsp_iom_pins_enable + 618
        0x0000c67e:    f2407088    @..p    MOVW     r0,#0x788
        0x0000c682:    f2c00001    ....    MOVT     r0,#1
        0x0000c686:    6801        .h      LDR      r1,[r0,#0]
        0x0000c688:    2027        '       MOVS     r0,#0x27
        0x0000c68a:    f000fcf9    ....    BL       am_hal_gpio_pinconfig ; 0xd080
        0x0000c68e:    f240708c    @..p    MOV      r0,#0x78c
        0x0000c692:    f2c00001    ....    MOVT     r0,#1
        0x0000c696:    6801        .h      LDR      r1,[r0,#0]
        0x0000c698:    2028        (       MOVS     r0,#0x28
        0x0000c69a:    e02c        ,.      B        0xc6f6 ; am_bsp_iom_pins_enable + 618
        0x0000c69c:    f240709c    @..p    MOV      r0,#0x79c
        0x0000c6a0:    f2c00001    ....    MOVT     r0,#1
        0x0000c6a4:    6801        .h      LDR      r1,[r0,#0]
        0x0000c6a6:    2030        0       MOVS     r0,#0x30
        0x0000c6a8:    f000fcea    ....    BL       am_hal_gpio_pinconfig ; 0xd080
        0x0000c6ac:    f2407094    @..p    MOV      r0,#0x794
        0x0000c6b0:    f2c00001    ....    MOVT     r0,#1
        0x0000c6b4:    6801        .h      LDR      r1,[r0,#0]
        0x0000c6b6:    2031        1       MOVS     r0,#0x31
        0x0000c6b8:    f000fce2    ....    BL       am_hal_gpio_pinconfig ; 0xd080
        0x0000c6bc:    f2407098    @..p    MOVW     r0,#0x798
        0x0000c6c0:    f2c00001    ....    MOVT     r0,#1
        0x0000c6c4:    6801        .h      LDR      r1,[r0,#0]
        0x0000c6c6:    202f        /       MOVS     r0,#0x2f
        0x0000c6c8:    f000fcda    ....    BL       am_hal_gpio_pinconfig ; 0xd080
        0x0000c6cc:    f2407090    @..p    MOVW     r0,#0x790
        0x0000c6d0:    f2c00001    ....    MOVT     r0,#1
        0x0000c6d4:    6801        .h      LDR      r1,[r0,#0]
        0x0000c6d6:    2010        .       MOVS     r0,#0x10
        0x0000c6d8:    e00d        ..      B        0xc6f6 ; am_bsp_iom_pins_enable + 618
        0x0000c6da:    f24070a0    @..p    MOVW     r0,#0x7a0
        0x0000c6de:    f2c00001    ....    MOVT     r0,#1
        0x0000c6e2:    6801        .h      LDR      r1,[r0,#0]
        0x0000c6e4:    2030        0       MOVS     r0,#0x30
        0x0000c6e6:    f000fccb    ....    BL       am_hal_gpio_pinconfig ; 0xd080
        0x0000c6ea:    f24070a4    @..p    MOV      r0,#0x7a4
        0x0000c6ee:    f2c00001    ....    MOVT     r0,#1
        0x0000c6f2:    6801        .h      LDR      r1,[r0,#0]
        0x0000c6f4:    2031        1       MOVS     r0,#0x31
        0x0000c6f6:    e8bd4080    ...@    POP      {r7,lr}
        0x0000c6fa:    f000bcc1    ....    B.W      am_hal_gpio_pinconfig ; 0xd080
    am_bsp_itm_printf_enable
        0x0000c6fe:    b580        ..      PUSH     {r7,lr}
        0x0000c700:    b086        ..      SUB      sp,sp,#0x18
        0x0000c702:    f24b50a8    K..P    MOV      r0,#0xb5a8
        0x0000c706:    f2c10001    ....    MOVT     r0,#0x1001
        0x0000c70a:    2101        .!      MOVS     r1,#1
        0x0000c70c:    6001        .`      STR      r1,[r0,#0]
        0x0000c70e:    f001fac9    ....    BL       am_hal_itm_enable ; 0xdca4
        0x0000c712:    f2442040    D.@     MOV      r0,#0x4240
        0x0000c716:    f2c0000f    ....    MOVT     r0,#0xf
        0x0000c71a:    9001        ..      STR      r0,[sp,#4]
        0x0000c71c:    a801        ..      ADD      r0,sp,#4
        0x0000c71e:    f001fd8e    ....    BL       am_hal_tpiu_enable ; 0xe23e
        0x0000c722:    f24070a8    @..p    MOVW     r0,#0x7a8
        0x0000c726:    f2c00001    ....    MOVT     r0,#1
        0x0000c72a:    6801        .h      LDR      r1,[r0,#0]
        0x0000c72c:    2029        )       MOVS     r0,#0x29
        0x0000c72e:    f000fca7    ....    BL       am_hal_gpio_pinconfig ; 0xd080
        0x0000c732:    f64d40e9    M..@    MOV      r0,#0xdce9
        0x0000c736:    f2c00000    ....    MOVT     r0,#0
        0x0000c73a:    f002f995    ....    BL       am_util_stdio_printf_init ; 0xea68
        0x0000c73e:    b006        ..      ADD      sp,sp,#0x18
        0x0000c740:    bd80        ..      POP      {r7,pc}
        0x0000c742:    0000        ..      MOVS     r0,r0
    am_bsp_low_power_init
        0x0000c744:    b5f0        ..      PUSH     {r4-r7,lr}
        0x0000c746:    b081        ..      SUB      sp,sp,#4
        0x0000c748:    f001fbd5    ....    BL       am_hal_pwrctrl_low_power_init ; 0xdef6
        0x0000c74c:    f001fd6e    ..n.    BL       am_hal_rtc_osc_disable ; 0xe22c
        0x0000c750:    f24070b4    @..p    MOV      r0,#0x7b4
        0x0000c754:    f2c00001    ....    MOVT     r0,#1
        0x0000c758:    6804        .h      LDR      r4,[r0,#0]
        0x0000c75a:    f2410700    A...    MOVW     r7,#0x1000
        0x0000c75e:    2600        .&      MOVS     r6,#0
        0x0000c760:    f2c10701    ....    MOVT     r7,#0x1001
        0x0000c764:    f8575036    W.6P    LDR      r5,[r7,r6,LSL #3]
        0x0000c768:    4621        !F      MOV      r1,r4
        0x0000c76a:    4628        (F      MOV      r0,r5
        0x0000c76c:    f000fc88    ....    BL       am_hal_gpio_pinconfig ; 0xd080
        0x0000c770:    4628        (F      MOV      r0,r5
        0x0000c772:    2103        .!      MOVS     r1,#3
        0x0000c774:    f000fdba    ....    BL       am_hal_gpio_state_write ; 0xd2ec
        0x0000c778:    4628        (F      MOV      r0,r5
        0x0000c77a:    2100        .!      MOVS     r1,#0
        0x0000c77c:    f000fdb6    ....    BL       am_hal_gpio_state_write ; 0xd2ec
        0x0000c780:    3601        .6      ADDS     r6,#1
        0x0000c782:    2e05        ..      CMP      r6,#5
        0x0000c784:    d1ee        ..      BNE      0xc764 ; am_bsp_low_power_init + 32
        0x0000c786:    b001        ..      ADD      sp,sp,#4
        0x0000c788:    bdf0        ..      POP      {r4-r7,pc}
        0x0000c78a:    0000        ..      MOVS     r0,r0
    am_gpio_isr
        0x0000c78c:    b580        ..      PUSH     {r7,lr}
        0x0000c78e:    b084        ..      SUB      sp,sp,#0x10
        0x0000c790:    a801        ..      ADD      r0,sp,#4
        0x0000c792:    9000        ..      STR      r0,[sp,#0]
        0x0000c794:    2000        .       MOVS     r0,#0
        0x0000c796:    9003        ..      STR      r0,[sp,#0xc]
        0x0000c798:    9002        ..      STR      r0,[sp,#8]
        0x0000c79a:    9001        ..      STR      r0,[sp,#4]
        0x0000c79c:    9900        ..      LDR      r1,[sp,#0]
        0x0000c79e:    f000fc3b    ..;.    BL       am_hal_gpio_interrupt_status_get ; 0xd018
        0x0000c7a2:    9800        ..      LDR      r0,[sp,#0]
        0x0000c7a4:    f000fb97    ....    BL       am_hal_gpio_interrupt_clear ; 0xced6
        0x0000c7a8:    9800        ..      LDR      r0,[sp,#0]
        0x0000c7aa:    f000fbed    ....    BL       am_hal_gpio_interrupt_service ; 0xcf88
        0x0000c7ae:    b004        ..      ADD      sp,sp,#0x10
        0x0000c7b0:    bd80        ..      POP      {r7,pc}
    am_hal_burst_ldo_charge
        0x0000c7b2:    b510        ..      PUSH     {r4,lr}
        0x0000c7b4:    f6430038    C.8.    MOV      r0,#0x3838
        0x0000c7b8:    f2c50002    ....    MOVT     r0,#0x5002
        0x0000c7bc:    6800        .h      LDR      r0,[r0,#0]
        0x0000c7be:    0700        ..      LSLS     r0,r0,#28
        0x0000c7c0:    bf48        H.      IT       MI
        0x0000c7c2:    bd10        ..      POPMI    {r4,pc}
        0x0000c7c4:    2460        `$      MOVS     r4,#0x60
        0x0000c7c6:    f2c40402    ....    MOVT     r4,#0x4002
        0x0000c7ca:    6820         h      LDR      r0,[r4,#0]
        0x0000c7cc:    f0200080     ...    BIC      r0,r0,#0x80
        0x0000c7d0:    6020         `      STR      r0,[r4,#0]
        0x0000c7d2:    6820         h      LDR      r0,[r4,#0]
        0x0000c7d4:    f0200020     . .    BIC      r0,r0,#0x20
        0x0000c7d8:    6020         `      STR      r0,[r4,#0]
        0x0000c7da:    6820         h      LDR      r0,[r4,#0]
        0x0000c7dc:    f0400040    @.@.    ORR      r0,r0,#0x40
        0x0000c7e0:    6020         `      STR      r0,[r4,#0]
        0x0000c7e2:    6820         h      LDR      r0,[r4,#0]
        0x0000c7e4:    f4407080    @..p    ORR      r0,r0,#0x100
        0x0000c7e8:    6020         `      STR      r0,[r4,#0]
        0x0000c7ea:    f2471000    G...    MOVW     r0,#0x7100
        0x0000c7ee:    f2c00002    ....    MOVT     r0,#2
        0x0000c7f2:    f000fadd    ....    BL       am_hal_flash_delay ; 0xcdb0
        0x0000c7f6:    6860        `h      LDR      r0,[r4,#4]
        0x0000c7f8:    f0400008    @...    ORR      r0,r0,#8
        0x0000c7fc:    6060        ``      STR      r0,[r4,#4]
        0x0000c7fe:    6860        `h      LDR      r0,[r4,#4]
        0x0000c800:    f0400001    @...    ORR      r0,r0,#1
        0x0000c804:    6060        ``      STR      r0,[r4,#4]
        0x0000c806:    6860        `h      LDR      r0,[r4,#4]
        0x0000c808:    f0400004    @...    ORR      r0,r0,#4
        0x0000c80c:    6060        ``      STR      r0,[r4,#4]
        0x0000c80e:    6860        `h      LDR      r0,[r4,#4]
        0x0000c810:    f0200002     ...    BIC      r0,r0,#2
        0x0000c814:    6060        ``      STR      r0,[r4,#4]
        0x0000c816:    6860        `h      LDR      r0,[r4,#4]
        0x0000c818:    f0400010    @...    ORR      r0,r0,#0x10
        0x0000c81c:    6060        ``      STR      r0,[r4,#4]
        0x0000c81e:    2020                MOVS     r0,#0x20
        0x0000c820:    f000fac6    ....    BL       am_hal_flash_delay ; 0xcdb0
        0x0000c824:    6860        `h      LDR      r0,[r4,#4]
        0x0000c826:    f0400002    @...    ORR      r0,r0,#2
        0x0000c82a:    6060        ``      STR      r0,[r4,#4]
        0x0000c82c:    f44f40fa    O..@    MOV      r0,#0x7d00
        0x0000c830:    f000fabe    ....    BL       am_hal_flash_delay ; 0xcdb0
        0x0000c834:    6860        `h      LDR      r0,[r4,#4]
        0x0000c836:    f0200001     ...    BIC      r0,r0,#1
        0x0000c83a:    6060        ``      STR      r0,[r4,#4]
        0x0000c83c:    6860        `h      LDR      r0,[r4,#4]
        0x0000c83e:    f0200004     ...    BIC      r0,r0,#4
        0x0000c842:    6060        ``      STR      r0,[r4,#4]
        0x0000c844:    6860        `h      LDR      r0,[r4,#4]
        0x0000c846:    f0200002     ...    BIC      r0,r0,#2
        0x0000c84a:    6060        ``      STR      r0,[r4,#4]
        0x0000c84c:    6820         h      LDR      r0,[r4,#0]
        0x0000c84e:    f0200040     .@.    BIC      r0,r0,#0x40
        0x0000c852:    6020         `      STR      r0,[r4,#0]
        0x0000c854:    6820         h      LDR      r0,[r4,#0]
        0x0000c856:    f4207080     ..p    BIC      r0,r0,#0x100
        0x0000c85a:    6020         `      STR      r0,[r4,#0]
        0x0000c85c:    bd10        ..      POP      {r4,pc}
        0x0000c85e:    0000        ..      MOVS     r0,r0
    am_hal_cachectrl_control
        0x0000c860:    b510        ..      PUSH     {r4,lr}
        0x0000c862:    b082        ..      SUB      sp,sp,#8
        0x0000c864:    1e42        B.      SUBS     r2,r0,#1
        0x0000c866:    2a10        .*      CMP      r2,#0x10
        0x0000c868:    f200807e    ..~.    BHI.W    0xc968 ; am_hal_cachectrl_control + 264
        0x0000c86c:    2001        .       MOVS     r0,#1
        0x0000c86e:    e8dff002    ....    TBB      [pc,r2]
    $d.4
        0x0000c872:    097e        ~.      DCW    2430
        0x0000c874:    1a181512    ....    DCD    437785874
        0x0000c878:    2f221f1c    .."/    DCD    790765340
        0x0000c87c:    604f483e    >HO`    DCD    1615808574
        0x0000c880:    00716a65    ejq.    DCD    7432805
    $t.5
        0x0000c884:    f2480000    H...    MOVW     r0,#0x8000
        0x0000c888:    f2c40001    ....    MOVT     r0,#0x4001
        0x0000c88c:    6800        .h      LDR      r0,[r0,#0]
        0x0000c88e:    01c0        ..      LSLS     r0,r0,#7
        0x0000c890:    d46c        l.      BMI      0xc96c ; am_hal_cachectrl_control + 268
        0x0000c892:    2407        .$      MOVS     r4,#7
        0x0000c894:    e071        q.      B        0xc97a ; am_hal_cachectrl_control + 282
        0x0000c896:    f44f6088    O..`    MOV      r0,#0x440
        0x0000c89a:    e068        h.      B        0xc96e ; am_hal_cachectrl_control + 270
        0x0000c89c:    f44f7008    O..p    MOV      r0,#0x220
        0x0000c8a0:    e065        e.      B        0xc96e ; am_hal_cachectrl_control + 270
        0x0000c8a2:    2040        @       MOVS     r0,#0x40
        0x0000c8a4:    e063        c.      B        0xc96e ; am_hal_cachectrl_control + 270
        0x0000c8a6:    2020                MOVS     r0,#0x20
        0x0000c8a8:    e061        a.      B        0xc96e ; am_hal_cachectrl_control + 270
        0x0000c8aa:    f44f6080    O..`    MOV      r0,#0x400
        0x0000c8ae:    e05e        ^.      B        0xc96e ; am_hal_cachectrl_control + 270
        0x0000c8b0:    f44f7000    O..p    MOV      r0,#0x200
        0x0000c8b4:    e05b        [.      B        0xc96e ; am_hal_cachectrl_control + 270
        0x0000c8b6:    f000fd65    ..e.    BL       am_hal_interrupt_master_disable ; 0xd384
        0x0000c8ba:    9001        ..      STR      r0,[sp,#4]
        0x0000c8bc:    f2480000    H...    MOVW     r0,#0x8000
        0x0000c8c0:    f2c40001    ....    MOVT     r0,#0x4001
        0x0000c8c4:    6801        .h      LDR      r1,[r0,#0]
        0x0000c8c6:    f0417180    A..q    ORR      r1,r1,#0x1000000
        0x0000c8ca:    6001        .`      STR      r1,[r0,#0]
        0x0000c8cc:    9801        ..      LDR      r0,[sp,#4]
        0x0000c8ce:    e00b        ..      B        0xc8e8 ; am_hal_cachectrl_control + 136
        0x0000c8d0:    f000fd58    ..X.    BL       am_hal_interrupt_master_disable ; 0xd384
        0x0000c8d4:    9000        ..      STR      r0,[sp,#0]
        0x0000c8d6:    f2480000    H...    MOVW     r0,#0x8000
        0x0000c8da:    f2c40001    ....    MOVT     r0,#0x4001
        0x0000c8de:    6801        .h      LDR      r1,[r0,#0]
        0x0000c8e0:    f0217180    !..q    BIC      r1,r1,#0x1000000
        0x0000c8e4:    6001        .`      STR      r1,[r0,#0]
        0x0000c8e6:    9800        ..      LDR      r0,[sp,#0]
        0x0000c8e8:    f000fd54    ..T.    BL       am_hal_interrupt_master_set ; 0xd394
        0x0000c8ec:    e044        D.      B        0xc978 ; am_hal_cachectrl_control + 280
        0x0000c8ee:    2000        .       MOVS     r0,#0
        0x0000c8f0:    f003fad0    ....    BL       set_LPMMODE ; 0xfe94
        0x0000c8f4:    b360        `.      CBZ      r0,0xc950 ; am_hal_cachectrl_control + 240
        0x0000c8f6:    2007        .       MOVS     r0,#7
        0x0000c8f8:    f003fb24    ..$.    BL       set_SEDELAY ; 0xff44
        0x0000c8fc:    b340        @.      CBZ      r0,0xc950 ; am_hal_cachectrl_control + 240
        0x0000c8fe:    2003        .       MOVS     r0,#3
        0x0000c900:    e023        #.      B        0xc94a ; am_hal_cachectrl_control + 234
        0x0000c902:    2001        .       MOVS     r0,#1
        0x0000c904:    2401        .$      MOVS     r4,#1
        0x0000c906:    f003fac5    ....    BL       set_LPMMODE ; 0xfe94
        0x0000c90a:    b3b0        ..      CBZ      r0,0xc97a ; am_hal_cachectrl_control + 282
        0x0000c90c:    2005        .       MOVS     r0,#5
        0x0000c90e:    e005        ..      B        0xc91c ; am_hal_cachectrl_control + 188
        0x0000c910:    2001        .       MOVS     r0,#1
        0x0000c912:    2401        .$      MOVS     r4,#1
        0x0000c914:    f003fabe    ....    BL       set_LPMMODE ; 0xfe94
        0x0000c918:    b378        x.      CBZ      r0,0xc97a ; am_hal_cachectrl_control + 282
        0x0000c91a:    2006        .       MOVS     r0,#6
        0x0000c91c:    f003fb12    ....    BL       set_SEDELAY ; 0xff44
        0x0000c920:    b1b0        ..      CBZ      r0,0xc950 ; am_hal_cachectrl_control + 240
        0x0000c922:    2001        .       MOVS     r0,#1
        0x0000c924:    2401        .$      MOVS     r4,#1
        0x0000c926:    f003fae3    ....    BL       set_RDWAIT ; 0xfef0
        0x0000c92a:    2800        .(      CMP      r0,#0
        0x0000c92c:    bf18        ..      IT       NE
        0x0000c92e:    2400        .$      MOVNE    r4,#0
        0x0000c930:    e023        #.      B        0xc97a ; am_hal_cachectrl_control + 282
        0x0000c932:    b1c9        ..      CBZ      r1,0xc968 ; am_hal_cachectrl_control + 264
        0x0000c934:    6808        .h      LDR      r0,[r1,#0]
        0x0000c936:    f003faad    ....    BL       set_LPMMODE ; 0xfe94
        0x0000c93a:    e008        ..      B        0xc94e ; am_hal_cachectrl_control + 238
        0x0000c93c:    b1a1        ..      CBZ      r1,0xc968 ; am_hal_cachectrl_control + 264
        0x0000c93e:    6808        .h      LDR      r0,[r1,#0]
        0x0000c940:    f003fb00    ....    BL       set_SEDELAY ; 0xff44
        0x0000c944:    e003        ..      B        0xc94e ; am_hal_cachectrl_control + 238
        0x0000c946:    b179        y.      CBZ      r1,0xc968 ; am_hal_cachectrl_control + 264
        0x0000c948:    6808        .h      LDR      r0,[r1,#0]
        0x0000c94a:    f003fad1    ....    BL       set_RDWAIT ; 0xfef0
        0x0000c94e:    b998        ..      CBNZ     r0,0xc978 ; am_hal_cachectrl_control + 280
        0x0000c950:    2401        .$      MOVS     r4,#1
        0x0000c952:    e012        ..      B        0xc97a ; am_hal_cachectrl_control + 282
        0x0000c954:    b141        A.      CBZ      r1,0xc968 ; am_hal_cachectrl_control + 264
        0x0000c956:    6848        Hh      LDR      r0,[r1,#4]
        0x0000c958:    220f        ."      MOVS     r2,#0xf
        0x0000c95a:    f6cf0200    ....    MOVT     r2,#0xf800
        0x0000c95e:    4210        .B      TST      r0,r2
        0x0000c960:    d102        ..      BNE      0xc968 ; am_hal_cachectrl_control + 264
        0x0000c962:    688b        .h      LDR      r3,[r1,#8]
        0x0000c964:    4213        .B      TST      r3,r2
        0x0000c966:    d00b        ..      BEQ      0xc980 ; am_hal_cachectrl_control + 288
        0x0000c968:    2406        .$      MOVS     r4,#6
        0x0000c96a:    e006        ..      B        0xc97a ; am_hal_cachectrl_control + 282
        0x0000c96c:    2002        .       MOVS     r0,#2
        0x0000c96e:    f2480100    H...    MOVW     r1,#0x8000
        0x0000c972:    f2c40101    ....    MOVT     r1,#0x4001
        0x0000c976:    6088        .`      STR      r0,[r1,#8]
        0x0000c978:    2400        .$      MOVS     r4,#0
        0x0000c97a:    4620         F      MOV      r0,r4
        0x0000c97c:    b002        ..      ADD      sp,sp,#8
        0x0000c97e:    bd10        ..      POP      {r4,pc}
        0x0000c980:    780a        .x      LDRB     r2,[r1,#0]
        0x0000c982:    2a01        .*      CMP      r2,#1
        0x0000c984:    d011        ..      BEQ      0xc9aa ; am_hal_cachectrl_control + 330
        0x0000c986:    2a00        .*      CMP      r2,#0
        0x0000c988:    d1ee        ..      BNE      0xc968 ; am_hal_cachectrl_control + 264
        0x0000c98a:    f2480200    H...    MOVW     r2,#0x8000
        0x0000c98e:    f2c40201    ....    MOVT     r2,#0x4001
        0x0000c992:    6110        .a      STR      r0,[r2,#0x10]
        0x0000c994:    6888        .h      LDR      r0,[r1,#8]
        0x0000c996:    6150        Pa      STR      r0,[r2,#0x14]
        0x0000c998:    7848        Hx      LDRB     r0,[r1,#1]
        0x0000c99a:    6811        .h      LDR      r1,[r2,#0]
        0x0000c99c:    f000003f    ..?.    AND      r0,r0,#0x3f
        0x0000c9a0:    f0210104    !...    BIC      r1,r1,#4
        0x0000c9a4:    ea410080    A...    ORR      r0,r1,r0,LSL #2
        0x0000c9a8:    e00e        ..      B        0xc9c8 ; am_hal_cachectrl_control + 360
        0x0000c9aa:    f2480200    H...    MOVW     r2,#0x8000
        0x0000c9ae:    f2c40201    ....    MOVT     r2,#0x4001
        0x0000c9b2:    6190        .a      STR      r0,[r2,#0x18]
        0x0000c9b4:    6888        .h      LDR      r0,[r1,#8]
        0x0000c9b6:    61d0        .a      STR      r0,[r2,#0x1c]
        0x0000c9b8:    7848        Hx      LDRB     r0,[r1,#1]
        0x0000c9ba:    6811        .h      LDR      r1,[r2,#0]
        0x0000c9bc:    f000001f    ....    AND      r0,r0,#0x1f
        0x0000c9c0:    f0210108    !...    BIC      r1,r1,#8
        0x0000c9c4:    ea4100c0    A...    ORR      r0,r1,r0,LSL #3
        0x0000c9c8:    6010        .`      STR      r0,[r2,#0]
        0x0000c9ca:    e7d5        ..      B        0xc978 ; am_hal_cachectrl_control + 280
    am_hal_clkgen_control
        0x0000c9cc:    b510        ..      PUSH     {r4,lr}
        0x0000c9ce:    f2412274    A.t"    MOV      r2,#0x1274
        0x0000c9d2:    f2c10201    ....    MOVT     r2,#0x1001
        0x0000c9d6:    6813        .h      LDR      r3,[r2,#0]
        0x0000c9d8:    460c        .F      MOV      r4,r1
        0x0000c9da:    b92b        +.      CBNZ     r3,0xc9e8 ; am_hal_clkgen_control + 28
        0x0000c9dc:    f24f0100    O...    MOVW     r1,#0xf000
        0x0000c9e0:    f6c471ff    ...q    MOVT     r1,#0x4fff
        0x0000c9e4:    6809        .h      LDR      r1,[r1,#0]
        0x0000c9e6:    6011        .`      STR      r1,[r2,#0]
        0x0000c9e8:    2809        .(      CMP      r0,#9
        0x0000c9ea:    d80f        ..      BHI      0xca0c ; am_hal_clkgen_control + 64
        0x0000c9ec:    e8dff000    ....    TBB      [pc,r0]
    $d.1
        0x0000c9f0:    20181005    ...     DCD    538447877
        0x0000c9f4:    544c4139    9ALT    DCD    1414283577
        0x0000c9f8:    775e        ^w      DCW    30558
    $t.2
        0x0000c9fa:    f244010c    D...    MOV      r1,#0x400c
        0x0000c9fe:    f2c40100    ....    MOVT     r1,#0x4000
        0x0000ca02:    2047        G       MOVS     r0,#0x47
        0x0000ca04:    6088        .`      STR      r0,[r1,#8]
        0x0000ca06:    2000        .       MOVS     r0,#0
        0x0000ca08:    60c8        .`      STR      r0,[r1,#0xc]
        0x0000ca0a:    e03b        ;.      B        0xca84 ; am_hal_clkgen_control + 184
        0x0000ca0c:    2006        .       MOVS     r0,#6
        0x0000ca0e:    bd10        ..      POP      {r4,pc}
        0x0000ca10:    f244000c    D...    MOV      r0,#0x400c
        0x0000ca14:    f2c40000    ....    MOVT     r0,#0x4000
        0x0000ca18:    6801        .h      LDR      r1,[r0,#0]
        0x0000ca1a:    f0210101    !...    BIC      r1,r1,#1
        0x0000ca1e:    e042        B.      B        0xcaa6 ; am_hal_clkgen_control + 218
        0x0000ca20:    f244000c    D...    MOV      r0,#0x400c
        0x0000ca24:    f2c40000    ....    MOVT     r0,#0x4000
        0x0000ca28:    6801        .h      LDR      r1,[r0,#0]
        0x0000ca2a:    f0210102    !...    BIC      r1,r1,#2
        0x0000ca2e:    e03a        :.      B        0xcaa6 ; am_hal_clkgen_control + 218
        0x0000ca30:    f2401020    @. .    MOVW     r0,#0x120
        0x0000ca34:    f64f61ec    O..a    MOV      r1,#0xfeec
        0x0000ca38:    f2c40002    ....    MOVT     r0,#0x4002
        0x0000ca3c:    f6cf71ff    ...q    MOVT     r1,#0xffff
        0x0000ca40:    5841        AX      LDR      r1,[r0,r1]
        0x0000ca42:    b2c9        ..      UXTB     r1,r1
        0x0000ca44:    2921        !)      CMP      r1,#0x21
        0x0000ca46:    d304        ..      BCC      0xca52 ; am_hal_clkgen_control + 134
        0x0000ca48:    6801        .h      LDR      r1,[r0,#0]
        0x0000ca4a:    2201        ."      MOVS     r2,#1
        0x0000ca4c:    f3622109    b..!    BFI      r1,r2,#8,#2
        0x0000ca50:    6001        .`      STR      r1,[r0,#0]
        0x0000ca52:    f244000c    D...    MOV      r0,#0x400c
        0x0000ca56:    f2c40000    ....    MOVT     r0,#0x4000
        0x0000ca5a:    6801        .h      LDR      r1,[r0,#0]
        0x0000ca5c:    f0410101    A...    ORR      r1,r1,#1
        0x0000ca60:    e021        !.      B        0xcaa6 ; am_hal_clkgen_control + 218
        0x0000ca62:    f244000c    D...    MOV      r0,#0x400c
        0x0000ca66:    f2c40000    ....    MOVT     r0,#0x4000
        0x0000ca6a:    6801        .h      LDR      r1,[r0,#0]
        0x0000ca6c:    f0410102    A...    ORR      r1,r1,#2
        0x0000ca70:    e019        ..      B        0xcaa6 ; am_hal_clkgen_control + 218
        0x0000ca72:    f244010c    D...    MOV      r1,#0x400c
        0x0000ca76:    f2c40100    ....    MOVT     r1,#0x4000
        0x0000ca7a:    2047        G       MOVS     r0,#0x47
        0x0000ca7c:    6088        .`      STR      r0,[r1,#8]
        0x0000ca7e:    2001        .       MOVS     r0,#1
        0x0000ca80:    60c8        .`      STR      r0,[r1,#0xc]
        0x0000ca82:    2000        .       MOVS     r0,#0
        0x0000ca84:    6088        .`      STR      r0,[r1,#8]
        0x0000ca86:    bd10        ..      POP      {r4,pc}
        0x0000ca88:    f244000c    D...    MOV      r0,#0x400c
        0x0000ca8c:    f2c40000    ....    MOVT     r0,#0x4000
        0x0000ca90:    6801        .h      LDR      r1,[r0,#0]
        0x0000ca92:    f0210180    !...    BIC      r1,r1,#0x80
        0x0000ca96:    e006        ..      B        0xcaa6 ; am_hal_clkgen_control + 218
        0x0000ca98:    f244000c    D...    MOV      r0,#0x400c
        0x0000ca9c:    f2c40000    ....    MOVT     r0,#0x4000
        0x0000caa0:    6801        .h      LDR      r1,[r0,#0]
        0x0000caa2:    f0410180    A...    ORR      r1,r1,#0x80
        0x0000caa6:    6001        .`      STR      r1,[r0,#0]
        0x0000caa8:    2000        .       MOVS     r0,#0
        0x0000caaa:    bd10        ..      POP      {r4,pc}
        0x0000caac:    f2401020    @. .    MOVW     r0,#0x120
        0x0000cab0:    f64f61ec    O..a    MOV      r1,#0xfeec
        0x0000cab4:    f2c40002    ....    MOVT     r0,#0x4002
        0x0000cab8:    f6cf71ff    ...q    MOVT     r1,#0xffff
        0x0000cabc:    5841        AX      LDR      r1,[r0,r1]
        0x0000cabe:    b2c9        ..      UXTB     r1,r1
        0x0000cac0:    2921        !)      CMP      r1,#0x21
        0x0000cac2:    d307        ..      BCC      0xcad4 ; am_hal_clkgen_control + 264
        0x0000cac4:    6801        .h      LDR      r1,[r0,#0]
        0x0000cac6:    f4417140    A.@q    ORR      r1,r1,#0x300
        0x0000caca:    6001        .`      STR      r1,[r0,#0]
        0x0000cacc:    f44f507a    O.zP    MOV      r0,#0x3e80
        0x0000cad0:    f000f96e    ..n.    BL       am_hal_flash_delay ; 0xcdb0
        0x0000cad4:    b164        d.      CBZ      r4,0xcaf0 ; am_hal_clkgen_control + 292
        0x0000cad6:    6820         h      LDR      r0,[r4,#0]
        0x0000cad8:    f0400001    @...    ORR      r0,r0,#1
        0x0000cadc:    e00c        ..      B        0xcaf8 ; am_hal_clkgen_control + 300
        0x0000cade:    f244000c    D...    MOV      r0,#0x400c
        0x0000cae2:    f2c40000    ....    MOVT     r0,#0x4000
        0x0000cae6:    6941        Ai      LDR      r1,[r0,#0x14]
        0x0000cae8:    f0210101    !...    BIC      r1,r1,#1
        0x0000caec:    6141        Aa      STR      r1,[r0,#0x14]
        0x0000caee:    e7db        ..      B        0xcaa8 ; am_hal_clkgen_control + 220
        0x0000caf0:    f64b0001    K...    MOV      r0,#0xb801
        0x0000caf4:    f2c00025    ..%.    MOVT     r0,#0x25
        0x0000caf8:    f244010c    D...    MOV      r1,#0x400c
        0x0000cafc:    f2c40100    ....    MOVT     r1,#0x4000
        0x0000cb00:    6148        Ha      STR      r0,[r1,#0x14]
        0x0000cb02:    e7d1        ..      B        0xcaa8 ; am_hal_clkgen_control + 220
    am_hal_clkgen_status_get
        0x0000cb04:    b1c0        ..      CBZ      r0,0xcb38 ; am_hal_clkgen_status_get + 52
        0x0000cb06:    f2440118    D...    MOV      r1,#0x4018
        0x0000cb0a:    f2c40100    ....    MOVT     r1,#0x4000
        0x0000cb0e:    680a        .h      LDR      r2,[r1,#0]
        0x0000cb10:    07d2        ..      LSLS     r2,r2,#31
        0x0000cb12:    f2436200    C..b    MOVW     r2,#0x3600
        0x0000cb16:    f2c0126e    ..n.    MOVT     r2,#0x16e
        0x0000cb1a:    bf04        ..      ITT      EQ
        0x0000cb1c:    f6464200    F..B    MOVWEQ   r2,#0x6c00
        0x0000cb20:    f2c022dc    ..."    MOVTEQ   r2,#0x2dc
        0x0000cb24:    6002        .`      STR      r2,[r0,#0]
        0x0000cb26:    6849        Ih      LDR      r1,[r1,#4]
        0x0000cb28:    f0010201    ....    AND      r2,r1,#1
        0x0000cb2c:    f3c10140    ..@.    UBFX     r1,r1,#1,#1
        0x0000cb30:    6042        B`      STR      r2,[r0,#4]
        0x0000cb32:    7201        .r      STRB     r1,[r0,#8]
        0x0000cb34:    2000        .       MOVS     r0,#0
        0x0000cb36:    4770        pG      BX       lr
        0x0000cb38:    2006        .       MOVS     r0,#6
        0x0000cb3a:    4770        pG      BX       lr
    am_hal_cmdq_disable
        0x0000cb3c:    b1b0        ..      CBZ      r0,0xcb6c ; am_hal_cmdq_disable + 48
        0x0000cb3e:    6801        .h      LDR      r1,[r0,#0]
        0x0000cb40:    f64c53cd    L..S    MOV      r3,#0xcdcd
        0x0000cb44:    f021427e    !.~B    BIC      r2,r1,#0xfe000000
        0x0000cb48:    f2c013cd    ....    MOVT     r3,#0x1cd
        0x0000cb4c:    429a        .B      CMP      r2,r3
        0x0000cb4e:    d10d        ..      BNE      0xcb6c ; am_hal_cmdq_disable + 48
        0x0000cb50:    0189        ..      LSLS     r1,r1,#6
        0x0000cb52:    d509        ..      BPL      0xcb68 ; am_hal_cmdq_disable + 44
        0x0000cb54:    6a41        Aj      LDR      r1,[r0,#0x24]
        0x0000cb56:    6809        .h      LDR      r1,[r1,#0]
        0x0000cb58:    680a        .h      LDR      r2,[r1,#0]
        0x0000cb5a:    f0220201    "...    BIC      r2,r2,#1
        0x0000cb5e:    600a        .`      STR      r2,[r1,#0]
        0x0000cb60:    6801        .h      LDR      r1,[r0,#0]
        0x0000cb62:    f0217100    !..q    BIC      r1,r1,#0x2000000
        0x0000cb66:    6001        .`      STR      r1,[r0,#0]
        0x0000cb68:    2000        .       MOVS     r0,#0
        0x0000cb6a:    4770        pG      BX       lr
        0x0000cb6c:    2002        .       MOVS     r0,#2
        0x0000cb6e:    4770        pG      BX       lr
    am_hal_cmdq_enable
        0x0000cb70:    b1b0        ..      CBZ      r0,0xcba0 ; am_hal_cmdq_enable + 48
        0x0000cb72:    6801        .h      LDR      r1,[r0,#0]
        0x0000cb74:    f64c53cd    L..S    MOV      r3,#0xcdcd
        0x0000cb78:    f021427e    !.~B    BIC      r2,r1,#0xfe000000
        0x0000cb7c:    f2c013cd    ....    MOVT     r3,#0x1cd
        0x0000cb80:    429a        .B      CMP      r2,r3
        0x0000cb82:    d10d        ..      BNE      0xcba0 ; am_hal_cmdq_enable + 48
        0x0000cb84:    0189        ..      LSLS     r1,r1,#6
        0x0000cb86:    d409        ..      BMI      0xcb9c ; am_hal_cmdq_enable + 44
        0x0000cb88:    6a41        Aj      LDR      r1,[r0,#0x24]
        0x0000cb8a:    6809        .h      LDR      r1,[r1,#0]
        0x0000cb8c:    680a        .h      LDR      r2,[r1,#0]
        0x0000cb8e:    f0420201    B...    ORR      r2,r2,#1
        0x0000cb92:    600a        .`      STR      r2,[r1,#0]
        0x0000cb94:    6801        .h      LDR      r1,[r0,#0]
        0x0000cb96:    f0417100    A..q    ORR      r1,r1,#0x2000000
        0x0000cb9a:    6001        .`      STR      r1,[r0,#0]
        0x0000cb9c:    2000        .       MOVS     r0,#0
        0x0000cb9e:    4770        pG      BX       lr
        0x0000cba0:    2002        .       MOVS     r0,#2
        0x0000cba2:    4770        pG      BX       lr
    am_hal_cmdq_init
        0x0000cba4:    e92d41f0    -..A    PUSH     {r4-r8,lr}
        0x0000cba8:    2809        .(      CMP      r0,#9
        0x0000cbaa:    bf84        ..      ITT      HI
        0x0000cbac:    2005        .       MOVHI    r0,#5
        0x0000cbae:    e8bd81f0    ....    POPHI    {r4-r8,pc}
        0x0000cbb2:    b171        q.      CBZ      r1,0xcbd2 ; am_hal_cmdq_init + 46
        0x0000cbb4:    4603        .F      MOV      r3,r0
        0x0000cbb6:    2a00        .*      CMP      r2,#0
        0x0000cbb8:    f04f0006    O...    MOV      r0,#6
        0x0000cbbc:    d04f        O.      BEQ      0xcc5e ; am_hal_cmdq_init + 186
        0x0000cbbe:    f8d1e004    ....    LDR      lr,[r1,#4]
        0x0000cbc2:    f1be0f00    ....    CMP      lr,#0
        0x0000cbc6:    bf08        ..      IT       EQ
        0x0000cbc8:    e8bd81f0    ....    POPEQ    {r4-r8,pc}
        0x0000cbcc:    6808        .h      LDR      r0,[r1,#0]
        0x0000cbce:    2802        .(      CMP      r0,#2
        0x0000cbd0:    d202        ..      BCS      0xcbd8 ; am_hal_cmdq_init + 52
        0x0000cbd2:    2006        .       MOVS     r0,#6
        0x0000cbd4:    e8bd81f0    ....    POP      {r4-r8,pc}
        0x0000cbd8:    f2410cbc    A...    MOV      r12,#0x10bc
        0x0000cbdc:    252c        ,%      MOVS     r5,#0x2c
        0x0000cbde:    f2c10c01    ....    MOVT     r12,#0x1001
        0x0000cbe2:    fb03f405    ....    MUL      r4,r3,r5
        0x0000cbe6:    f85c4004    \..@    LDR      r4,[r12,r4]
        0x0000cbea:    01e6        ..      LSLS     r6,r4,#7
        0x0000cbec:    bf44        D.      ITT      MI
        0x0000cbee:    2007        .       MOVMI    r0,#7
        0x0000cbf0:    e8bd81f0    ....    POPMI    {r4-r8,pc}
        0x0000cbf4:    f2405880    @..X    MOVW     r8,#0x580
        0x0000cbf8:    fb13cc05    ....    SMLABB   r12,r3,r5,r12
        0x0000cbfc:    00c5        ..      LSLS     r5,r0,#3
        0x0000cbfe:    eb0e06c0    ....    ADD      r6,lr,r0,LSL #3
        0x0000cc02:    f64c50cd    L..P    MOV      r0,#0xcdcd
        0x0000cc06:    eb030383    ....    ADD      r3,r3,r3,LSL #2
        0x0000cc0a:    f2c00801    ....    MOVT     r8,#1
        0x0000cc0e:    f2c010cd    ....    MOVT     r0,#0x1cd
        0x0000cc12:    eb0807c3    ....    ADD      r7,r8,r3,LSL #3
        0x0000cc16:    f3600419    `...    BFI      r4,r0,#0,#26
        0x0000cc1a:    e9cce601    ....    STRD     lr,r6,[r12,#4]
        0x0000cc1e:    e9cce505    ....    STRD     lr,r5,[r12,#0x14]
        0x0000cc22:    e9d76502    ...e    LDRD     r6,r5,[r7,#8]
        0x0000cc26:    f8cc4000    ...@    STR      r4,[r12,#0]
        0x0000cc2a:    2000        .       MOVS     r0,#0
        0x0000cc2c:    693c        <i      LDR      r4,[r7,#0x10]
        0x0000cc2e:    f8cc7024    ..$p    STR      r7,[r12,#0x24]
        0x0000cc32:    e9ccee03    ....    STRD     lr,lr,[r12,#0xc]
        0x0000cc36:    e9cc0007    ....    STRD     r0,r0,[r12,#0x1c]
        0x0000cc3a:    6030        0`      STR      r0,[r6,#0]
        0x0000cc3c:    6028        (`      STR      r0,[r5,#0]
        0x0000cc3e:    697e        ~i      LDR      r6,[r7,#0x14]
        0x0000cc40:    6825        %h      LDR      r5,[r4,#0]
        0x0000cc42:    687f        .h      LDR      r7,[r7,#4]
        0x0000cc44:    432e        .C      ORRS     r6,r6,r5
        0x0000cc46:    6026        &`      STR      r6,[r4,#0]
        0x0000cc48:    684e        Nh      LDR      r6,[r1,#4]
        0x0000cc4a:    f8583033    X.30    LDR      r3,[r8,r3,LSL #3]
        0x0000cc4e:    603e        >`      STR      r6,[r7,#0]
        0x0000cc50:    7a09        .z      LDRB     r1,[r1,#8]
        0x0000cc52:    2702        .'      MOVS     r7,#2
        0x0000cc54:    ea070141    ..A.    AND      r1,r7,r1,LSL #1
        0x0000cc58:    6019        .`      STR      r1,[r3,#0]
        0x0000cc5a:    f8c2c000    ....    STR      r12,[r2,#0]
        0x0000cc5e:    e8bd81f0    ....    POP      {r4-r8,pc}
    am_hal_crc32
        0x0000cc62:    f2400c00    @...    MOVW     r12,#0
        0x0000cc66:    f2c40c03    ....    MOVT     r12,#0x4003
        0x0000cc6a:    f8dc3000    ...0    LDR      r3,[r12,#0]
        0x0000cc6e:    07db        ..      LSLS     r3,r3,#31
        0x0000cc70:    bf1c        ..      ITT      NE
        0x0000cc72:    2003        .       MOVNE    r0,#3
        0x0000cc74:    4770        pG      BXNE     lr
        0x0000cc76:    f04f33ff    O..3    MOV      r3,#0xffffffff
        0x0000cc7a:    f8cc3030    ..00    STR      r3,[r12,#0x30]
        0x0000cc7e:    f8dc3000    ...0    LDR      r3,[r12,#0]
        0x0000cc82:    f02303f0    #...    BIC      r3,r3,#0xf0
        0x0000cc86:    f8cc3000    ...0    STR      r3,[r12,#0]
        0x0000cc8a:    f000b801    ....    B.W      am_hal_crc32_accum ; 0xcc90
        0x0000cc8e:    0000        ..      MOVS     r0,r0
    am_hal_crc32_accum
        0x0000cc90:    e92d4ff0    -..O    PUSH     {r4-r11,lr}
        0x0000cc94:    b081        ..      SUB      sp,sp,#4
        0x0000cc96:    4606        .F      MOV      r6,r0
        0x0000cc98:    2a00        .*      CMP      r2,#0
        0x0000cc9a:    f04f0006    O...    MOV      r0,#6
        0x0000cc9e:    f0008084    ....    BEQ.W    0xcdaa ; am_hal_crc32_accum + 282
        0x0000cca2:    468a        .F      MOV      r10,r1
        0x0000cca4:    f0110103    ....    ANDS     r1,r1,#3
        0x0000cca8:    f040807f    @...    BNE.W    0xcdaa ; am_hal_crc32_accum + 282
        0x0000ccac:    f64f70fd    O..p    MOV      r0,#0xfffd
        0x0000ccb0:    f2c0000b    ....    MOVT     r0,#0xb
        0x0000ccb4:    f50011a0    ....    ADD      r1,r0,#0x140000
        0x0000ccb8:    4691        .F      MOV      r9,r2
        0x0000ccba:    428e        .B      CMP      r6,r1
        0x0000ccbc:    d347        G.      BCC      0xcd4e ; am_hal_crc32_accum + 190
        0x0000ccbe:    f1064170    ..pA    ADD      r1,r6,#0xf0000000
        0x0000ccc2:    4281        .B      CMP      r1,r0
        0x0000ccc4:    d343        C.      BCC      0xcd4e ; am_hal_crc32_accum + 190
        0x0000ccc6:    2700        .'      MOVS     r7,#0
        0x0000ccc8:    f8d94000    ...@    LDR      r4,[r9,#0]
        0x0000cccc:    f2412078    A.x     MOV      r0,#0x1278
        0x0000ccd0:    f2c40703    ....    MOVT     r7,#0x4003
        0x0000ccd4:    f2c10001    ....    MOVT     r0,#0x1001
        0x0000ccd8:    f1ba0f00    ....    CMP      r10,#0
        0x0000ccdc:    6138        8a      STR      r0,[r7,#0x10]
        0x0000ccde:    d059        Y.      BEQ      0xcd94 ; am_hal_crc32_accum + 260
        0x0000cce0:    f24868a0    H..h    MOV      r8,#0x86a0
        0x0000cce4:    f2c00801    ....    MOVT     r8,#1
        0x0000cce8:    f04f0b00    O...    MOV      r11,#0
        0x0000ccec:    f5ba7f00    ....    CMP      r10,#0x200
        0x0000ccf0:    4655        UF      MOV      r5,r10
        0x0000ccf2:    bf28        (.      IT       CS
        0x0000ccf4:    f44f7500    O..u    MOVCS    r5,#0x200
        0x0000ccf8:    ebbb0f95    ....    CMP      r11,r5,LSR #2
        0x0000ccfc:    d00a        ..      BEQ      0xcd14 ; am_hal_crc32_accum + 132
        0x0000ccfe:    f2412178    A.x!    MOV      r1,#0x1278
        0x0000cd02:    08a8        ..      LSRS     r0,r5,#2
        0x0000cd04:    f2c10101    ....    MOVT     r1,#0x1001
        0x0000cd08:    f8562b04    V..+    LDR      r2,[r6],#4
        0x0000cd0c:    3801        .8      SUBS     r0,#1
        0x0000cd0e:    f8412b04    A..+    STR      r2,[r1],#4
        0x0000cd12:    d1f9        ..      BNE      0xcd08 ; am_hal_crc32_accum + 120
        0x0000cd14:    6a38        8j      LDR      r0,[r7,#0x20]
        0x0000cd16:    2203        ."      MOVS     r2,#3
        0x0000cd18:    f6cf7200    ...r    MOVT     r2,#0xff00
        0x0000cd1c:    f405717f    ...q    AND      r1,r5,#0x3fc
        0x0000cd20:    4010        .@      ANDS     r0,r0,r2
        0x0000cd22:    4308        .C      ORRS     r0,r0,r1
        0x0000cd24:    6238        8b      STR      r0,[r7,#0x20]
        0x0000cd26:    6838        8h      LDR      r0,[r7,#0]
        0x0000cd28:    4639        9F      MOV      r1,r7
        0x0000cd2a:    f0400001    @...    ORR      r0,r0,#1
        0x0000cd2e:    6038        8`      STR      r0,[r7,#0]
        0x0000cd30:    4640        @F      MOV      r0,r8
        0x0000cd32:    2201        ."      MOVS     r2,#1
        0x0000cd34:    2300        .#      MOVS     r3,#0
        0x0000cd36:    f000f851    ..Q.    BL       am_hal_flash_delay_status_change ; 0xcddc
        0x0000cd3a:    bb30        0.      CBNZ     r0,0xcd8a ; am_hal_crc32_accum + 250
        0x0000cd3c:    6839        9h      LDR      r1,[r7,#0]
        0x0000cd3e:    2900        .)      CMP      r1,#0
        0x0000cd40:    d423        #.      BMI      0xcd8a ; am_hal_crc32_accum + 250
        0x0000cd42:    6b3c        <k      LDR      r4,[r7,#0x30]
        0x0000cd44:    ebba0a05    ....    SUBS     r10,r10,r5
        0x0000cd48:    d1d0        ..      BNE      0xccec ; am_hal_crc32_accum + 92
        0x0000cd4a:    2000        .       MOVS     r0,#0
        0x0000cd4c:    e023        #.      B        0xcd96 ; am_hal_crc32_accum + 262
        0x0000cd4e:    2700        .'      MOVS     r7,#0
        0x0000cd50:    f2c40703    ....    MOVT     r7,#0x4003
        0x0000cd54:    613e        >a      STR      r6,[r7,#0x10]
        0x0000cd56:    6a38        8j      LDR      r0,[r7,#0x20]
        0x0000cd58:    ea4f019a    O...    LSR      r1,r10,#2
        0x0000cd5c:    f3610097    a...    BFI      r0,r1,#2,#22
        0x0000cd60:    6238        8b      STR      r0,[r7,#0x20]
        0x0000cd62:    6838        8h      LDR      r0,[r7,#0]
        0x0000cd64:    4639        9F      MOV      r1,r7
        0x0000cd66:    f0400001    @...    ORR      r0,r0,#1
        0x0000cd6a:    6038        8`      STR      r0,[r7,#0]
        0x0000cd6c:    f24860a0    H..`    MOV      r0,#0x86a0
        0x0000cd70:    f2c00001    ....    MOVT     r0,#1
        0x0000cd74:    2201        ."      MOVS     r2,#1
        0x0000cd76:    2300        .#      MOVS     r3,#0
        0x0000cd78:    f000f830    ..0.    BL       am_hal_flash_delay_status_change ; 0xcddc
        0x0000cd7c:    b170        p.      CBZ      r0,0xcd9c ; am_hal_crc32_accum + 268
        0x0000cd7e:    6839        9h      LDR      r1,[r7,#0]
        0x0000cd80:    f1b13fff    ...?    CMP      r1,#0xffffffff
        0x0000cd84:    bfd8        ..      IT       LE
        0x0000cd86:    2009        .       MOVLE    r0,#9
        0x0000cd88:    e00f        ..      B        0xcdaa ; am_hal_crc32_accum + 282
        0x0000cd8a:    6839        9h      LDR      r1,[r7,#0]
        0x0000cd8c:    2900        .)      CMP      r1,#0
        0x0000cd8e:    d502        ..      BPL      0xcd96 ; am_hal_crc32_accum + 262
        0x0000cd90:    2009        .       MOVS     r0,#9
        0x0000cd92:    e00a        ..      B        0xcdaa ; am_hal_crc32_accum + 282
        0x0000cd94:    2005        .       MOVS     r0,#5
        0x0000cd96:    f8c94000    ...@    STR      r4,[r9,#0]
        0x0000cd9a:    e006        ..      B        0xcdaa ; am_hal_crc32_accum + 282
        0x0000cd9c:    6839        9h      LDR      r1,[r7,#0]
        0x0000cd9e:    2900        .)      CMP      r1,#0
        0x0000cda0:    d4ed        ..      BMI      0xcd7e ; am_hal_crc32_accum + 238
        0x0000cda2:    6b38        8k      LDR      r0,[r7,#0x30]
        0x0000cda4:    f8c90000    ....    STR      r0,[r9,#0]
        0x0000cda8:    2000        .       MOVS     r0,#0
        0x0000cdaa:    b001        ..      ADD      sp,sp,#4
        0x0000cdac:    e8bd8ff0    ....    POP      {r4-r11,pc}
    am_hal_flash_delay
        0x0000cdb0:    f2440134    D.4.    MOV      r1,#0x4034
        0x0000cdb4:    f2c40100    ....    MOVT     r1,#0x4000
        0x0000cdb8:    680a        .h      LDR      r2,[r1,#0]
        0x0000cdba:    f3c20180    ....    UBFX     r1,r2,#2,#1
        0x0000cdbe:    4088        .@      LSLS     r0,r0,r1
        0x0000cdc0:    210e        .!      MOVS     r1,#0xe
        0x0000cdc2:    f0120f04    ....    TST      r2,#4
        0x0000cdc6:    bf08        ..      IT       EQ
        0x0000cdc8:    210b        .!      MOVEQ    r1,#0xb
        0x0000cdca:    4281        .B      CMP      r1,r0
        0x0000cdcc:    bf28        (.      IT       CS
        0x0000cdce:    4770        pG      BXCS     lr
        0x0000cdd0:    1a40        @.      SUBS     r0,r0,r1
        0x0000cdd2:    219d        .!      MOVS     r1,#0x9d
        0x0000cdd4:    f6c00100    ....    MOVT     r1,#0x800
        0x0000cdd8:    4708        .G      BX       r1
        0x0000cdda:    0000        ..      MOVS     r0,r0
    am_hal_flash_delay_status_change
        0x0000cddc:    e92d47f0    -..G    PUSH     {r4-r10,lr}
        0x0000cde0:    460d        .F      MOV      r5,r1
        0x0000cde2:    6809        .h      LDR      r1,[r1,#0]
        0x0000cde4:    4011        .@      ANDS     r1,r1,r2
        0x0000cde6:    4299        .B      CMP      r1,r3
        0x0000cde8:    d021        !.      BEQ      0xce2e ; am_hal_flash_delay_status_change + 82
        0x0000cdea:    f2440834    D.4.    MOV      r8,#0x4034
        0x0000cdee:    f2400a9d    @...    MOVW     r10,#0x9d
        0x0000cdf2:    461c        .F      MOV      r4,r3
        0x0000cdf4:    4616        .F      MOV      r6,r2
        0x0000cdf6:    1c47        G.      ADDS     r7,r0,#1
        0x0000cdf8:    f2c40800    ....    MOVT     r8,#0x4000
        0x0000cdfc:    f04f0910    O...    MOV      r9,#0x10
        0x0000ce00:    f6c00a00    ....    MOVT     r10,#0x800
        0x0000ce04:    3f01        .?      SUBS     r7,#1
        0x0000ce06:    d015        ..      BEQ      0xce34 ; am_hal_flash_delay_status_change + 88
        0x0000ce08:    f8d80000    ....    LDR      r0,[r8,#0]
        0x0000ce0c:    f3c00180    ....    UBFX     r1,r0,#2,#1
        0x0000ce10:    f0100f04    ....    TST      r0,#4
        0x0000ce14:    f06f000d    o...    MVN      r0,#0xd
        0x0000ce18:    bf08        ..      IT       EQ
        0x0000ce1a:    f06f000a    o...    MVNEQ    r0,#0xa
        0x0000ce1e:    fa09f101    ....    LSL      r1,r9,r1
        0x0000ce22:    4408        .D      ADD      r0,r0,r1
        0x0000ce24:    47d0        .G      BLX      r10
        0x0000ce26:    6828        (h      LDR      r0,[r5,#0]
        0x0000ce28:    4030        0@      ANDS     r0,r0,r6
        0x0000ce2a:    42a0        .B      CMP      r0,r4
        0x0000ce2c:    d1ea        ..      BNE      0xce04 ; am_hal_flash_delay_status_change + 40
        0x0000ce2e:    2000        .       MOVS     r0,#0
        0x0000ce30:    e8bd87f0    ....    POP      {r4-r10,pc}
        0x0000ce34:    2004        .       MOVS     r0,#4
        0x0000ce36:    e8bd87f0    ....    POP      {r4-r10,pc}
        0x0000ce3a:    0000        ..      MOVS     r0,r0
    am_hal_flash_delay_status_check
        0x0000ce3c:    e92d4ff0    -..O    PUSH     {r4-r11,lr}
        0x0000ce40:    b081        ..      SUB      sp,sp,#4
        0x0000ce42:    f8dd8028    ..(.    LDR      r8,[sp,#0x28]
        0x0000ce46:    f2440934    D.4.    MOV      r9,#0x4034
        0x0000ce4a:    f2400b9d    @...    MOVW     r11,#0x9d
        0x0000ce4e:    461c        .F      MOV      r4,r3
        0x0000ce50:    4615        .F      MOV      r5,r2
        0x0000ce52:    460e        .F      MOV      r6,r1
        0x0000ce54:    4607        .F      MOV      r7,r0
        0x0000ce56:    f2c40900    ....    MOVT     r9,#0x4000
        0x0000ce5a:    f04f0a10    O...    MOV      r10,#0x10
        0x0000ce5e:    f6c00b00    ....    MOVT     r11,#0x800
        0x0000ce62:    bf00        ..      NOP      
        0x0000ce64:    6830        0h      LDR      r0,[r6,#0]
        0x0000ce66:    f1b80f00    ....    CMP      r8,#0
        0x0000ce6a:    ea000005    ....    AND      r0,r0,r5
        0x0000ce6e:    d003        ..      BEQ      0xce78 ; am_hal_flash_delay_status_check + 60
        0x0000ce70:    42a0        .B      CMP      r0,r4
        0x0000ce72:    d103        ..      BNE      0xce7c ; am_hal_flash_delay_status_check + 64
        0x0000ce74:    e014        ..      B        0xcea0 ; am_hal_flash_delay_status_check + 100
        0x0000ce76:    bf00        ..      NOP      
        0x0000ce78:    42a0        .B      CMP      r0,r4
        0x0000ce7a:    d111        ..      BNE      0xcea0 ; am_hal_flash_delay_status_check + 100
        0x0000ce7c:    b197        ..      CBZ      r7,0xcea4 ; am_hal_flash_delay_status_check + 104
        0x0000ce7e:    f8d90000    ....    LDR      r0,[r9,#0]
        0x0000ce82:    3f01        .?      SUBS     r7,#1
        0x0000ce84:    f3c00180    ....    UBFX     r1,r0,#2,#1
        0x0000ce88:    f0100f04    ....    TST      r0,#4
        0x0000ce8c:    f06f000d    o...    MVN      r0,#0xd
        0x0000ce90:    bf08        ..      IT       EQ
        0x0000ce92:    f06f000a    o...    MVNEQ    r0,#0xa
        0x0000ce96:    fa0af101    ....    LSL      r1,r10,r1
        0x0000ce9a:    4408        .D      ADD      r0,r0,r1
        0x0000ce9c:    47d8        .G      BLX      r11
        0x0000ce9e:    e7e1        ..      B        0xce64 ; am_hal_flash_delay_status_check + 40
        0x0000cea0:    2000        .       MOVS     r0,#0
        0x0000cea2:    e000        ..      B        0xcea6 ; am_hal_flash_delay_status_check + 106
        0x0000cea4:    2004        .       MOVS     r0,#4
        0x0000cea6:    b001        ..      ADD      sp,sp,#4
        0x0000cea8:    e8bd8ff0    ....    POP      {r4-r11,pc}
    am_hal_flash_load_ui32
        0x0000ceac:    2175        u!      MOVS     r1,#0x75
        0x0000ceae:    f6c00100    ....    MOVT     r1,#0x800
        0x0000ceb2:    4708        .G      BX       r1
    am_hal_flash_store_ui32
        0x0000ceb4:    b580        ..      PUSH     {r7,lr}
        0x0000ceb6:    b084        ..      SUB      sp,sp,#0x10
        0x0000ceb8:    f24042a8    @..B    MOVW     r2,#0x4a8
        0x0000cebc:    f2c00201    ....    MOVT     r2,#1
        0x0000cec0:    e9d23c00    ...<    LDRD     r3,r12,[r2,#0]
        0x0000cec4:    6892        .h      LDR      r2,[r2,#8]
        0x0000cec6:    e9cd3c01    ...<    STRD     r3,r12,[sp,#4]
        0x0000ceca:    9203        ..      STR      r2,[sp,#0xc]
        0x0000cecc:    aa01        ..      ADD      r2,sp,#4
        0x0000cece:    3201        .2      ADDS     r2,#1
        0x0000ced0:    4790        .G      BLX      r2
        0x0000ced2:    b004        ..      ADD      sp,sp,#0x10
        0x0000ced4:    bd80        ..      POP      {r7,pc}
    am_hal_gpio_interrupt_clear
        0x0000ced6:    b510        ..      PUSH     {r4,lr}
        0x0000ced8:    b082        ..      SUB      sp,sp,#8
        0x0000ceda:    b1e8        ..      CBZ      r0,0xcf18 ; am_hal_gpio_interrupt_clear + 66
        0x0000cedc:    4604        .F      MOV      r4,r0
        0x0000cede:    6880        .h      LDR      r0,[r0,#8]
        0x0000cee0:    2100        .!      MOVS     r1,#0
        0x0000cee2:    ebb12f90    .../    CMP      r1,r0,LSR #10
        0x0000cee6:    d119        ..      BNE      0xcf1c ; am_hal_gpio_interrupt_clear + 70
        0x0000cee8:    f000fa4c    ..L.    BL       am_hal_interrupt_master_disable ; 0xd384
        0x0000ceec:    f2402108    @..!    MOVW     r1,#0x208
        0x0000cef0:    9001        ..      STR      r0,[sp,#4]
        0x0000cef2:    f2c40101    ....    MOVT     r1,#0x4001
        0x0000cef6:    6820         h      LDR      r0,[r4,#0]
        0x0000cef8:    680a        .h      LDR      r2,[r1,#0]
        0x0000cefa:    4310        .C      ORRS     r0,r0,r2
        0x0000cefc:    6008        .`      STR      r0,[r1,#0]
        0x0000cefe:    6860        `h      LDR      r0,[r4,#4]
        0x0000cf00:    6a0a        .j      LDR      r2,[r1,#0x20]
        0x0000cf02:    4310        .C      ORRS     r0,r0,r2
        0x0000cf04:    6208        .b      STR      r0,[r1,#0x20]
        0x0000cf06:    68a0        .h      LDR      r0,[r4,#8]
        0x0000cf08:    6c0a        .l      LDR      r2,[r1,#0x40]
        0x0000cf0a:    4310        .C      ORRS     r0,r0,r2
        0x0000cf0c:    6408        .d      STR      r0,[r1,#0x40]
        0x0000cf0e:    9801        ..      LDR      r0,[sp,#4]
        0x0000cf10:    f000fa40    ..@.    BL       am_hal_interrupt_master_set ; 0xd394
        0x0000cf14:    2000        .       MOVS     r0,#0
        0x0000cf16:    e002        ..      B        0xcf1e ; am_hal_gpio_interrupt_clear + 72
        0x0000cf18:    2006        .       MOVS     r0,#6
        0x0000cf1a:    e000        ..      B        0xcf1e ; am_hal_gpio_interrupt_clear + 72
        0x0000cf1c:    2005        .       MOVS     r0,#5
        0x0000cf1e:    b002        ..      ADD      sp,sp,#8
        0x0000cf20:    bd10        ..      POP      {r4,pc}
    am_hal_gpio_interrupt_enable
        0x0000cf22:    b510        ..      PUSH     {r4,lr}
        0x0000cf24:    b082        ..      SUB      sp,sp,#8
        0x0000cf26:    4604        .F      MOV      r4,r0
        0x0000cf28:    6880        .h      LDR      r0,[r0,#8]
        0x0000cf2a:    2100        .!      MOVS     r1,#0
        0x0000cf2c:    ebb12f90    .../    CMP      r1,r0,LSR #10
        0x0000cf30:    d117        ..      BNE      0xcf62 ; am_hal_gpio_interrupt_enable + 64
        0x0000cf32:    f000fa27    ..'.    BL       am_hal_interrupt_master_disable ; 0xd384
        0x0000cf36:    f2402100    @..!    MOVW     r1,#0x200
        0x0000cf3a:    9001        ..      STR      r0,[sp,#4]
        0x0000cf3c:    f2c40101    ....    MOVT     r1,#0x4001
        0x0000cf40:    6820         h      LDR      r0,[r4,#0]
        0x0000cf42:    680a        .h      LDR      r2,[r1,#0]
        0x0000cf44:    4310        .C      ORRS     r0,r0,r2
        0x0000cf46:    6008        .`      STR      r0,[r1,#0]
        0x0000cf48:    6860        `h      LDR      r0,[r4,#4]
        0x0000cf4a:    6a0a        .j      LDR      r2,[r1,#0x20]
        0x0000cf4c:    4310        .C      ORRS     r0,r0,r2
        0x0000cf4e:    6208        .b      STR      r0,[r1,#0x20]
        0x0000cf50:    68a0        .h      LDR      r0,[r4,#8]
        0x0000cf52:    6c0a        .l      LDR      r2,[r1,#0x40]
        0x0000cf54:    4310        .C      ORRS     r0,r0,r2
        0x0000cf56:    6408        .d      STR      r0,[r1,#0x40]
        0x0000cf58:    9801        ..      LDR      r0,[sp,#4]
        0x0000cf5a:    f000fa1b    ....    BL       am_hal_interrupt_master_set ; 0xd394
        0x0000cf5e:    2000        .       MOVS     r0,#0
        0x0000cf60:    e000        ..      B        0xcf64 ; am_hal_gpio_interrupt_enable + 66
        0x0000cf62:    2005        .       MOVS     r0,#5
        0x0000cf64:    b002        ..      ADD      sp,sp,#8
        0x0000cf66:    bd10        ..      POP      {r4,pc}
    am_hal_gpio_interrupt_register
        0x0000cf68:    2849        I(      CMP      r0,#0x49
        0x0000cf6a:    bf84        ..      ITT      HI
        0x0000cf6c:    2005        .       MOVHI    r0,#5
        0x0000cf6e:    4770        pG      BXHI     lr
        0x0000cf70:    2900        .)      CMP      r1,#0
        0x0000cf72:    bf0f        ..      ITEEE    EQ
        0x0000cf74:    2006        .       MOVEQ    r0,#6
        0x0000cf76:    f24b62d8    K..b    MOVNE    r2,#0xb6d8
        0x0000cf7a:    f2c10201    ....    MOVTNE   r2,#0x1001
        0x0000cf7e:    f8421020    B. .    STRNE    r1,[r2,r0,LSL #2]
        0x0000cf82:    bf18        ..      IT       NE
        0x0000cf84:    2000        .       MOVNE    r0,#0
        0x0000cf86:    4770        pG      BX       lr
    am_hal_gpio_interrupt_service
        0x0000cf88:    e92d4ff0    -..O    PUSH     {r4-r11,lr}
        0x0000cf8c:    b081        ..      SUB      sp,sp,#4
        0x0000cf8e:    b3d0        ..      CBZ      r0,0xd006 ; am_hal_gpio_interrupt_service + 126
        0x0000cf90:    6882        .h      LDR      r2,[r0,#8]
        0x0000cf92:    2100        .!      MOVS     r1,#0
        0x0000cf94:    ebb12f92    .../    CMP      r1,r2,LSR #10
        0x0000cf98:    d138        8.      BNE      0xd00c ; am_hal_gpio_interrupt_service + 132
        0x0000cf9a:    f24b64d8    K..d    MOV      r4,#0xb6d8
        0x0000cf9e:    f24b59b0    K..Y    MOV      r9,#0xb5b0
        0x0000cfa2:    f04f0b00    O...    MOV      r11,#0
        0x0000cfa6:    f04f0a03    O...    MOV      r10,#3
        0x0000cfaa:    f04f4700    O..G    MOV      r7,#0x80000000
        0x0000cfae:    f2c10401    ....    MOVT     r4,#0x1001
        0x0000cfb2:    f2c10901    ....    MOVT     r9,#0x1001
        0x0000cfb6:    2600        .&      MOVS     r6,#0
        0x0000cfb8:    f8505b04    P..[    LDR      r5,[r0],#4
        0x0000cfbc:    9000        ..      STR      r0,[sp,#0]
        0x0000cfbe:    b1dd        ..      CBZ      r5,0xcff8 ; am_hal_gpio_interrupt_service + 112
        0x0000cfc0:    4268        hB      RSBS     r0,r5,#0
        0x0000cfc2:    4028        (@      ANDS     r0,r0,r5
        0x0000cfc4:    fab0f880    ....    CLZ      r8,r0
        0x0000cfc8:    eba60008    ....    SUB      r0,r6,r8
        0x0000cfcc:    301f        .0      ADDS     r0,r0,#0x1f
        0x0000cfce:    f8541020    T. .    LDR      r1,[r4,r0,LSL #2]
        0x0000cfd2:    b139        9.      CBZ      r1,0xcfe4 ; am_hal_gpio_interrupt_service + 92
        0x0000cfd4:    07ca        ..      LSLS     r2,r1,#31
        0x0000cfd6:    d109        ..      BNE      0xcfec ; am_hal_gpio_interrupt_service + 100
        0x0000cfd8:    f8590020    Y. .    LDR      r0,[r9,r0,LSL #2]
        0x0000cfdc:    f0410101    A...    ORR      r1,r1,#1
        0x0000cfe0:    4788        .G      BLX      r1
        0x0000cfe2:    e004        ..      B        0xcfee ; am_hal_gpio_interrupt_service + 102
        0x0000cfe4:    f04f0b07    O...    MOV      r11,#7
        0x0000cfe8:    e001        ..      B        0xcfee ; am_hal_gpio_interrupt_service + 102
        0x0000cfea:    bf00        ..      NOP      
        0x0000cfec:    4788        .G      BLX      r1
        0x0000cfee:    fa27f008    '...    LSR      r0,r7,r8
        0x0000cff2:    4385        .C      BICS     r5,r5,r0
        0x0000cff4:    2d00        .-      CMP      r5,#0
        0x0000cff6:    d1e3        ..      BNE      0xcfc0 ; am_hal_gpio_interrupt_service + 56
        0x0000cff8:    9800        ..      LDR      r0,[sp,#0]
        0x0000cffa:    f1ba0a01    ....    SUBS     r10,r10,#1
        0x0000cffe:    f1060620    .. .    ADD      r6,r6,#0x20
        0x0000d002:    d1d9        ..      BNE      0xcfb8 ; am_hal_gpio_interrupt_service + 48
        0x0000d004:    e004        ..      B        0xd010 ; am_hal_gpio_interrupt_service + 136
        0x0000d006:    f04f0b06    O...    MOV      r11,#6
        0x0000d00a:    e001        ..      B        0xd010 ; am_hal_gpio_interrupt_service + 136
        0x0000d00c:    f04f0b05    O...    MOV      r11,#5
        0x0000d010:    4658        XF      MOV      r0,r11
        0x0000d012:    b001        ..      ADD      sp,sp,#4
        0x0000d014:    e8bd8ff0    ....    POP      {r4-r11,pc}
    am_hal_gpio_interrupt_status_get
        0x0000d018:    b570        p.      PUSH     {r4-r6,lr}
        0x0000d01a:    b084        ..      SUB      sp,sp,#0x10
        0x0000d01c:    b351        Q.      CBZ      r1,0xd074 ; am_hal_gpio_interrupt_status_get + 92
        0x0000d01e:    4605        .F      MOV      r5,r0
        0x0000d020:    6888        .h      LDR      r0,[r1,#8]
        0x0000d022:    460c        .F      MOV      r4,r1
        0x0000d024:    2100        .!      MOVS     r1,#0
        0x0000d026:    ebb12f90    .../    CMP      r1,r0,LSR #10
        0x0000d02a:    d125        %.      BNE      0xd078 ; am_hal_gpio_interrupt_status_get + 96
        0x0000d02c:    f2402600    @..&    MOVW     r6,#0x200
        0x0000d030:    f04f30ff    O..0    MOV      r0,#0xffffffff
        0x0000d034:    f2c40601    ....    MOVT     r6,#0x4001
        0x0000d038:    9003        ..      STR      r0,[sp,#0xc]
        0x0000d03a:    9002        ..      STR      r0,[sp,#8]
        0x0000d03c:    9001        ..      STR      r0,[sp,#4]
        0x0000d03e:    f000f9a1    ....    BL       am_hal_interrupt_master_disable ; 0xd384
        0x0000d042:    9000        ..      STR      r0,[sp,#0]
        0x0000d044:    b12d        -.      CBZ      r5,0xd052 ; am_hal_gpio_interrupt_status_get + 58
        0x0000d046:    6830        0h      LDR      r0,[r6,#0]
        0x0000d048:    9003        ..      STR      r0,[sp,#0xc]
        0x0000d04a:    6a30        0j      LDR      r0,[r6,#0x20]
        0x0000d04c:    9002        ..      STR      r0,[sp,#8]
        0x0000d04e:    6c30        0l      LDR      r0,[r6,#0x40]
        0x0000d050:    9001        ..      STR      r0,[sp,#4]
        0x0000d052:    6870        ph      LDR      r0,[r6,#4]
        0x0000d054:    9903        ..      LDR      r1,[sp,#0xc]
        0x0000d056:    4008        .@      ANDS     r0,r0,r1
        0x0000d058:    6020         `      STR      r0,[r4,#0]
        0x0000d05a:    6a70        pj      LDR      r0,[r6,#0x24]
        0x0000d05c:    9902        ..      LDR      r1,[sp,#8]
        0x0000d05e:    4008        .@      ANDS     r0,r0,r1
        0x0000d060:    6060        ``      STR      r0,[r4,#4]
        0x0000d062:    6c70        pl      LDR      r0,[r6,#0x44]
        0x0000d064:    9901        ..      LDR      r1,[sp,#4]
        0x0000d066:    4008        .@      ANDS     r0,r0,r1
        0x0000d068:    60a0        .`      STR      r0,[r4,#8]
        0x0000d06a:    9800        ..      LDR      r0,[sp,#0]
        0x0000d06c:    f000f992    ....    BL       am_hal_interrupt_master_set ; 0xd394
        0x0000d070:    2000        .       MOVS     r0,#0
        0x0000d072:    e002        ..      B        0xd07a ; am_hal_gpio_interrupt_status_get + 98
        0x0000d074:    2006        .       MOVS     r0,#6
        0x0000d076:    e000        ..      B        0xd07a ; am_hal_gpio_interrupt_status_get + 98
        0x0000d078:    2005        .       MOVS     r0,#5
        0x0000d07a:    b004        ..      ADD      sp,sp,#0x10
        0x0000d07c:    bd70        p.      POP      {r4-r6,pc}
        0x0000d07e:    0000        ..      MOVS     r0,r0
    am_hal_gpio_pinconfig
        0x0000d080:    e92d4ff0    -..O    PUSH     {r4-r11,lr}
        0x0000d084:    b085        ..      SUB      sp,sp,#0x14
        0x0000d086:    2849        I(      CMP      r0,#0x49
        0x0000d088:    d904        ..      BLS      0xd094 ; am_hal_gpio_pinconfig + 20
        0x0000d08a:    2506        .%      MOVS     r5,#6
        0x0000d08c:    4628        (F      MOV      r0,r5
        0x0000d08e:    b005        ..      ADD      sp,sp,#0x14
        0x0000d090:    e8bd8ff0    ....    POP      {r4-r11,pc}
        0x0000d094:    b2ce        ..      UXTB     r6,r1
        0x0000d096:    4604        .F      MOV      r4,r0
        0x0000d098:    f2401200    @...    MOVW     r2,#0x100
        0x0000d09c:    f0060307    ....    AND      r3,r6,#7
        0x0000d0a0:    2000        .       MOVS     r0,#0
        0x0000d0a2:    f6c00200    ....    MOVT     r2,#0x800
        0x0000d0a6:    ebb01f56    ..V.    CMP      r0,r6,LSR #5
        0x0000d0aa:    ea4f00c3    O...    LSL      r0,r3,#3
        0x0000d0ae:    d01d        ..      BEQ      0xd0ec ; am_hal_gpio_pinconfig + 108
        0x0000d0b0:    0977        w.      LSRS     r7,r6,#5
        0x0000d0b2:    2ebf        ..      CMP      r6,#0xbf
        0x0000d0b4:    f0400001    @...    ORR      r0,r0,#1
        0x0000d0b8:    d80d        ..      BHI      0xd0d6 ; am_hal_gpio_pinconfig + 86
        0x0000d0ba:    2f01        ./      CMP      r7,#1
        0x0000d0bc:    d00b        ..      BEQ      0xd0d6 ; am_hal_gpio_pinconfig + 86
        0x0000d0be:    f6400638    @.8.    MOV      r6,#0x838
        0x0000d0c2:    f2c00601    ....    MOVT     r6,#1
        0x0000d0c6:    5d36        6]      LDRB     r6,[r6,r4]
        0x0000d0c8:    4615        .F      MOV      r5,r2
        0x0000d0ca:    07f6        ..      LSLS     r6,r6,#31
        0x0000d0cc:    d0de        ..      BEQ      0xd08c ; am_hal_gpio_pinconfig + 12
        0x0000d0ce:    ea401087    @...    ORR      r0,r0,r7,LSL #6
        0x0000d0d2:    3880        .8      SUBS     r0,r0,#0x80
        0x0000d0d4:    e00a        ..      B        0xd0ec ; am_hal_gpio_pinconfig + 108
        0x0000d0d6:    2f06        ./      CMP      r7,#6
        0x0000d0d8:    d103        ..      BNE      0xd0e2 ; am_hal_gpio_pinconfig + 98
        0x0000d0da:    2c14        .,      CMP      r4,#0x14
        0x0000d0dc:    d006        ..      BEQ      0xd0ec ; am_hal_gpio_pinconfig + 108
        0x0000d0de:    1c55        U.      ADDS     r5,r2,#1
        0x0000d0e0:    e7d4        ..      B        0xd08c ; am_hal_gpio_pinconfig + 12
        0x0000d0e2:    2c14        .,      CMP      r4,#0x14
        0x0000d0e4:    d102        ..      BNE      0xd0ec ; am_hal_gpio_pinconfig + 108
        0x0000d0e6:    2f01        ./      CMP      r7,#1
        0x0000d0e8:    4615        .F      MOV      r5,r2
        0x0000d0ea:    d0cf        ..      BEQ      0xd08c ; am_hal_gpio_pinconfig + 12
        0x0000d0ec:    f3c107c1    ....    UBFX     r7,r1,#3,#2
        0x0000d0f0:    b197        ..      CBZ      r7,0xd118 ; am_hal_gpio_pinconfig + 152
        0x0000d0f2:    2f02        ./      CMP      r7,#2
        0x0000d0f4:    f1020502    ....    ADD      r5,r2,#2
        0x0000d0f8:    d008        ..      BEQ      0xd10c ; am_hal_gpio_pinconfig + 140
        0x0000d0fa:    2f01        ./      CMP      r7,#1
        0x0000d0fc:    d1c6        ..      BNE      0xd08c ; am_hal_gpio_pinconfig + 12
        0x0000d0fe:    2c24        $,      CMP      r4,#0x24
        0x0000d100:    d001        ..      BEQ      0xd106 ; am_hal_gpio_pinconfig + 134
        0x0000d102:    2c03        .,      CMP      r4,#3
        0x0000d104:    d1c2        ..      BNE      0xd08c ; am_hal_gpio_pinconfig + 12
        0x0000d106:    f0400040    @.@.    ORR      r0,r0,#0x40
        0x0000d10a:    e005        ..      B        0xd118 ; am_hal_gpio_pinconfig + 152
        0x0000d10c:    2c29        ),      CMP      r4,#0x29
        0x0000d10e:    d001        ..      BEQ      0xd114 ; am_hal_gpio_pinconfig + 148
        0x0000d110:    2c25        %,      CMP      r4,#0x25
        0x0000d112:    d1bb        ..      BNE      0xd08c ; am_hal_gpio_pinconfig + 12
        0x0000d114:    f0400080    @...    ORR      r0,r0,#0x80
        0x0000d118:    f6400782    @...    MOV      r7,#0x882
        0x0000d11c:    f2c00701    ....    MOVT     r7,#1
        0x0000d120:    5d3f        ?]      LDRB     r7,[r7,r4]
        0x0000d122:    40df        .@      LSRS     r7,r7,r3
        0x0000d124:    07ff        ..      LSLS     r7,r7,#31
        0x0000d126:    f64017f4    @...    MOV      r7,#0x9f4
        0x0000d12a:    f2c00701    ....    MOVT     r7,#1
        0x0000d12e:    5d3f        ?]      LDRB     r7,[r7,r4]
        0x0000d130:    bf18        ..      IT       NE
        0x0000d132:    f0400002    @...    ORRNE    r0,r0,#2
        0x0000d136:    429f        .B      CMP      r7,r3
        0x0000d138:    d127        '.      BNE      0xd18a ; am_hal_gpio_pinconfig + 266
        0x0000d13a:    0c0b        ..      LSRS     r3,r1,#16
        0x0000d13c:    f003070d    ....    AND      r7,r3,#0xd
        0x0000d140:    2f0d        ./      CMP      r7,#0xd
        0x0000d142:    f1020503    ....    ADD      r5,r2,#3
        0x0000d146:    d0a1        ..      BEQ      0xd08c ; am_hal_gpio_pinconfig + 12
        0x0000d148:    07df        ..      LSLS     r7,r3,#31
        0x0000d14a:    d103        ..      BNE      0xd154 ; am_hal_gpio_pinconfig + 212
        0x0000d14c:    f003070e    ....    AND      r7,r3,#0xe
        0x0000d150:    2f04        ./      CMP      r7,#4
        0x0000d152:    d89b        ..      BHI      0xd08c ; am_hal_gpio_pinconfig + 12
        0x0000d154:    01df        ..      LSLS     r7,r3,#7
        0x0000d156:    f0030330    ..0.    AND      r3,r3,#0x30
        0x0000d15a:    f3c14642    ..BF    UBFX     r6,r1,#17,#3
        0x0000d15e:    b2ff        ..      UXTB     r7,r7
        0x0000d160:    4433        3D      ADD      r3,r3,r6
        0x0000d162:    441f        .D      ADD      r7,r7,r3
        0x0000d164:    f64003cc    @...    MOV      r3,#0x8cc
        0x0000d168:    f2c00301    ....    MOVT     r3,#1
        0x0000d16c:    eb030684    ....    ADD      r6,r3,r4,LSL #2
        0x0000d170:    2300        .#      MOVS     r3,#0
        0x0000d172:    bf00        ..      NOP      
        0x0000d174:    7835        5x      LDRB     r5,[r6,#0]
        0x0000d176:    42af        .B      CMP      r7,r5
        0x0000d178:    f0008083    ....    BEQ.W    0xd282 ; am_hal_gpio_pinconfig + 514
        0x0000d17c:    3302        .3      ADDS     r3,#2
        0x0000d17e:    2b08        .+      CMP      r3,#8
        0x0000d180:    f1060601    ....    ADD      r6,r6,#1
        0x0000d184:    d1f6        ..      BNE      0xd174 ; am_hal_gpio_pinconfig + 244
        0x0000d186:    1d15        ..      ADDS     r5,r2,#4
        0x0000d188:    e780        ..      B        0xd08c ; am_hal_gpio_pinconfig + 12
        0x0000d18a:    2202        ."      MOVS     r2,#2
        0x0000d18c:    ea0222d1    ..."    AND      r2,r2,r1,LSR #11
        0x0000d190:    4310        .C      ORRS     r0,r0,r2
        0x0000d192:    2208        ."      MOVS     r2,#8
        0x0000d194:    f3c12381    ...#    UBFX     r3,r1,#10,#2
        0x0000d198:    ea022291    ..."    AND      r2,r2,r1,LSR #10
        0x0000d19c:    ea420243    B.C.    ORR      r2,r2,r3,LSL #1
        0x0000d1a0:    3b01        .;      SUBS     r3,#1
        0x0000d1a2:    1ecf        ..      SUBS     r7,r1,#3
        0x0000d1a4:    fab3f383    ....    CLZ      r3,r3
        0x0000d1a8:    fab7f787    ....    CLZ      r7,r7
        0x0000d1ac:    095b        [.      LSRS     r3,r3,#5
        0x0000d1ae:    097f        ..      LSRS     r7,r7,#5
        0x0000d1b0:    433b        ;C      ORRS     r3,r3,r7
        0x0000d1b2:    f4114fc0    ...O    TST      r1,#0x6000
        0x0000d1b6:    9303        ..      STR      r3,[sp,#0xc]
        0x0000d1b8:    bf07        ..      ITTEE    EQ
        0x0000d1ba:    f3c133c0    ...3    UBFXEQ   r3,r1,#15,#1
        0x0000d1be:    ea420c03    B...    ORREQ    r12,r2,r3
        0x0000d1c2:    f3c13380    ...3    UBFXNE   r3,r1,#14,#1
        0x0000d1c6:    eb020c03    ....    ADDNE    r12,r2,r3
        0x0000d1ca:    0a09        ..      LSRS     r1,r1,#8
        0x0000d1cc:    f0010103    ....    AND      r1,r1,#3
        0x0000d1d0:    e8dff001    ....    TBB      [pc,r1]
    $d.1
        0x0000d1d4:    06080209    ....    DCD    101188105
    $t.2
        0x0000d1d8:    f0400004    @...    ORR      r0,r0,#4
        0x0000d1dc:    2100        .!      MOVS     r1,#0
        0x0000d1de:    e002        ..      B        0xd1e6 ; am_hal_gpio_pinconfig + 358
        0x0000d1e0:    f0400004    @...    ORR      r0,r0,#4
        0x0000d1e4:    2101        .!      MOVS     r1,#1
        0x0000d1e6:    f06f0303    o...    MVN      r3,#3
        0x0000d1ea:    ea030a54    ..T.    AND      r10,r3,r4,LSR #1
        0x0000d1ee:    231c        .#      MOVS     r3,#0x1c
        0x0000d1f0:    2518        .%      MOVS     r5,#0x18
        0x0000d1f2:    ea030384    ....    AND      r3,r3,r4,LSL #2
        0x0000d1f6:    ea0502c4    ....    AND      r2,r5,r4,LSL #3
        0x0000d1fa:    250f        .%      MOVS     r5,#0xf
        0x0000d1fc:    409d        .@      LSLS     r5,r5,r3
        0x0000d1fe:    43ed        .C      MVNS     r5,r5
        0x0000d200:    2600        .&      MOVS     r6,#0
        0x0000d202:    9502        ..      STR      r5,[sp,#8]
        0x0000d204:    25ff        .%      MOVS     r5,#0xff
        0x0000d206:    fa00f802    ....    LSL      r8,r0,r2
        0x0000d20a:    fa01f002    ....    LSL      r0,r1,r2
        0x0000d20e:    f2c40601    ....    MOVT     r6,#0x4001
        0x0000d212:    4095        .@      LSLS     r5,r5,r2
        0x0000d214:    9001        ..      STR      r0,[sp,#4]
        0x0000d216:    fa0cf003    ....    LSL      r0,r12,r3
        0x0000d21a:    f1060b4c    ..L.    ADD      r11,r6,#0x4c
        0x0000d21e:    f0240703    $...    BIC      r7,r4,#3
        0x0000d222:    f10609f8    ....    ADD      r9,r6,#0xf8
        0x0000d226:    43ed        .C      MVNS     r5,r5
        0x0000d228:    9000        ..      STR      r0,[sp,#0]
        0x0000d22a:    f000f8ab    ....    BL       am_hal_interrupt_master_disable ; 0xd384
        0x0000d22e:    9903        ..      LDR      r1,[sp,#0xc]
        0x0000d230:    9004        ..      STR      r0,[sp,#0x10]
        0x0000d232:    b151        Q.      CBZ      r1,0xd24a ; am_hal_gpio_pinconfig + 458
        0x0000d234:    f004001f    ....    AND      r0,r4,#0x1f
        0x0000d238:    2101        .!      MOVS     r1,#1
        0x0000d23a:    fa01f000    ....    LSL      r0,r1,r0
        0x0000d23e:    f3c41141    ..A.    UBFX     r1,r4,#5,#2
        0x0000d242:    eb060181    ....    ADD      r1,r6,r1,LSL #2
        0x0000d246:    f8c100c8    ....    STR      r0,[r1,#0xc8]
        0x0000d24a:    2073        s       MOVS     r0,#0x73
        0x0000d24c:    6770        pg      STR      r0,[r6,#0x74]
        0x0000d24e:    59f0        .Y      LDR      r0,[r6,r7]
        0x0000d250:    4028        (@      ANDS     r0,r0,r5
        0x0000d252:    ea400008    @...    ORR      r0,r0,r8
        0x0000d256:    51f0        .Q      STR      r0,[r6,r7]
        0x0000d258:    f85a000b    Z...    LDR      r0,[r10,r11]
        0x0000d25c:    9902        ..      LDR      r1,[sp,#8]
        0x0000d25e:    4008        .@      ANDS     r0,r0,r1
        0x0000d260:    9900        ..      LDR      r1,[sp,#0]
        0x0000d262:    4308        .C      ORRS     r0,r0,r1
        0x0000d264:    f84a000b    J...    STR      r0,[r10,r11]
        0x0000d268:    f8570009    W...    LDR      r0,[r7,r9]
        0x0000d26c:    9901        ..      LDR      r1,[sp,#4]
        0x0000d26e:    4028        (@      ANDS     r0,r0,r5
        0x0000d270:    4308        .C      ORRS     r0,r0,r1
        0x0000d272:    2500        .%      MOVS     r5,#0
        0x0000d274:    f8470009    G...    STR      r0,[r7,r9]
        0x0000d278:    6775        ug      STR      r5,[r6,#0x74]
        0x0000d27a:    9804        ..      LDR      r0,[sp,#0x10]
        0x0000d27c:    f000f88a    ....    BL       am_hal_interrupt_master_set ; 0xd394
        0x0000d280:    e704        ..      B        0xd08c ; am_hal_gpio_pinconfig + 12
        0x0000d282:    2208        ."      MOVS     r2,#8
        0x0000d284:    ea0242d1    ...B    AND      r2,r2,r1,LSR #19
        0x0000d288:    ea430c02    C...    ORR      r12,r3,r2
        0x0000d28c:    2200        ."      MOVS     r2,#0
        0x0000d28e:    9203        ..      STR      r2,[sp,#0xc]
        0x0000d290:    e79b        ..      B        0xd1ca ; am_hal_gpio_pinconfig + 330
    am_hal_gpio_state_read
        0x0000d292:    b19a        ..      CBZ      r2,0xd2bc ; am_hal_gpio_state_read + 42
        0x0000d294:    284a        J(      CMP      r0,#0x4a
        0x0000d296:    d304        ..      BCC      0xd2a2 ; am_hal_gpio_state_read + 16
        0x0000d298:    f04f30ff    O..0    MOV      r0,#0xffffffff
        0x0000d29c:    6010        .`      STR      r0,[r2,#0]
        0x0000d29e:    2005        .       MOVS     r0,#5
        0x0000d2a0:    4770        pG      BX       lr
        0x0000d2a2:    230c        .#      MOVS     r3,#0xc
        0x0000d2a4:    2902        .)      CMP      r1,#2
        0x0000d2a6:    ea0303d0    ....    AND      r3,r3,r0,LSR #3
        0x0000d2aa:    d009        ..      BEQ      0xd2c0 ; am_hal_gpio_state_read + 46
        0x0000d2ac:    2901        .)      CMP      r1,#1
        0x0000d2ae:    d00d        ..      BEQ      0xd2cc ; am_hal_gpio_state_read + 58
        0x0000d2b0:    b921        !.      CBNZ     r1,0xd2bc ; am_hal_gpio_state_read + 42
        0x0000d2b2:    2180        .!      MOVS     r1,#0x80
        0x0000d2b4:    f2c40101    ....    MOVT     r1,#0x4001
        0x0000d2b8:    4319        .C      ORRS     r1,r1,r3
        0x0000d2ba:    e00c        ..      B        0xd2d6 ; am_hal_gpio_state_read + 68
        0x0000d2bc:    2006        .       MOVS     r0,#6
        0x0000d2be:    4770        pG      BX       lr
        0x0000d2c0:    2180        .!      MOVS     r1,#0x80
        0x0000d2c2:    f2c40101    ....    MOVT     r1,#0x4001
        0x0000d2c6:    4319        .C      ORRS     r1,r1,r3
        0x0000d2c8:    3130        01      ADDS     r1,r1,#0x30
        0x0000d2ca:    e004        ..      B        0xd2d6 ; am_hal_gpio_state_read + 68
        0x0000d2cc:    2180        .!      MOVS     r1,#0x80
        0x0000d2ce:    f2c40101    ....    MOVT     r1,#0x4001
        0x0000d2d2:    4319        .C      ORRS     r1,r1,r3
        0x0000d2d4:    310c        .1      ADDS     r1,r1,#0xc
        0x0000d2d6:    6809        .h      LDR      r1,[r1,#0]
        0x0000d2d8:    f000001f    ....    AND      r0,r0,#0x1f
        0x0000d2dc:    fa21f000    !...    LSR      r0,r1,r0
        0x0000d2e0:    f0000001    ....    AND      r0,r0,#1
        0x0000d2e4:    6010        .`      STR      r0,[r2,#0]
        0x0000d2e6:    2000        .       MOVS     r0,#0
        0x0000d2e8:    4770        pG      BX       lr
        0x0000d2ea:    0000        ..      MOVS     r0,r0
    am_hal_gpio_state_write
        0x0000d2ec:    b5b0        ..      PUSH     {r4,r5,r7,lr}
        0x0000d2ee:    b082        ..      SUB      sp,sp,#8
        0x0000d2f0:    2849        I(      CMP      r0,#0x49
        0x0000d2f2:    d901        ..      BLS      0xd2f8 ; am_hal_gpio_state_write + 12
        0x0000d2f4:    2405        .$      MOVS     r4,#5
        0x0000d2f6:    e040        @.      B        0xd37a ; am_hal_gpio_state_write + 142
        0x0000d2f8:    460d        .F      MOV      r5,r1
        0x0000d2fa:    2905        .)      CMP      r1,#5
        0x0000d2fc:    d901        ..      BLS      0xd302 ; am_hal_gpio_state_write + 22
        0x0000d2fe:    2406        .$      MOVS     r4,#6
        0x0000d300:    e03b        ;.      B        0xd37a ; am_hal_gpio_state_write + 142
        0x0000d302:    4604        .F      MOV      r4,r0
        0x0000d304:    f000f83e    ..>.    BL       am_hal_interrupt_master_disable ; 0xd384
        0x0000d308:    2d05        .-      CMP      r5,#5
        0x0000d30a:    9001        ..      STR      r0,[sp,#4]
        0x0000d30c:    d838        8.      BHI      0xd380 ; am_hal_gpio_state_write + 148
        0x0000d30e:    f004001f    ....    AND      r0,r4,#0x1f
        0x0000d312:    2101        .!      MOVS     r1,#1
        0x0000d314:    fa01f000    ....    LSL      r0,r1,r0
        0x0000d318:    210c        .!      MOVS     r1,#0xc
        0x0000d31a:    ea0101d4    ....    AND      r1,r1,r4,LSR #3
        0x0000d31e:    e8dff005    ....    TBB      [pc,r5]
    $d.6
        0x0000d322:    0903        ..      DCW    2307
        0x0000d324:    211b160f    ...!    DCD    555423247
    $t.7
        0x0000d328:    228c        ."      MOVS     r2,#0x8c
        0x0000d32a:    f2c40201    ....    MOVT     r2,#0x4001
        0x0000d32e:    4411        .D      ADD      r1,r1,r2
        0x0000d330:    6188        .a      STR      r0,[r1,#0x18]
        0x0000d332:    e01e        ..      B        0xd372 ; am_hal_gpio_state_write + 134
        0x0000d334:    228c        ."      MOVS     r2,#0x8c
        0x0000d336:    f2c40201    ....    MOVT     r2,#0x4001
        0x0000d33a:    4411        .D      ADD      r1,r1,r2
        0x0000d33c:    60c8        .`      STR      r0,[r1,#0xc]
        0x0000d33e:    e018        ..      B        0xd372 ; am_hal_gpio_state_write + 134
        0x0000d340:    228c        ."      MOVS     r2,#0x8c
        0x0000d342:    f2c40201    ....    MOVT     r2,#0x4001
        0x0000d346:    588b        .X      LDR      r3,[r1,r2]
        0x0000d348:    4058        X@      EORS     r0,r0,r3
        0x0000d34a:    5088        .P      STR      r0,[r1,r2]
        0x0000d34c:    e011        ..      B        0xd372 ; am_hal_gpio_state_write + 134
        0x0000d34e:    228c        ."      MOVS     r2,#0x8c
        0x0000d350:    f2c40201    ....    MOVT     r2,#0x4001
        0x0000d354:    4411        .D      ADD      r1,r1,r2
        0x0000d356:    e00b        ..      B        0xd370 ; am_hal_gpio_state_write + 132
        0x0000d358:    228c        ."      MOVS     r2,#0x8c
        0x0000d35a:    f2c40201    ....    MOVT     r2,#0x4001
        0x0000d35e:    4411        .D      ADD      r1,r1,r2
        0x0000d360:    6308        .c      STR      r0,[r1,#0x30]
        0x0000d362:    e006        ..      B        0xd372 ; am_hal_gpio_state_write + 134
        0x0000d364:    228c        ."      MOVS     r2,#0x8c
        0x0000d366:    f2c40201    ....    MOVT     r2,#0x4001
        0x0000d36a:    4411        .D      ADD      r1,r1,r2
        0x0000d36c:    6bca        .k      LDR      r2,[r1,#0x3c]
        0x0000d36e:    4050        P@      EORS     r0,r0,r2
        0x0000d370:    63c8        .c      STR      r0,[r1,#0x3c]
        0x0000d372:    2400        .$      MOVS     r4,#0
        0x0000d374:    9801        ..      LDR      r0,[sp,#4]
        0x0000d376:    f000f80d    ....    BL       am_hal_interrupt_master_set ; 0xd394
        0x0000d37a:    4620         F      MOV      r0,r4
        0x0000d37c:    b002        ..      ADD      sp,sp,#8
        0x0000d37e:    bdb0        ..      POP      {r4,r5,r7,pc}
        0x0000d380:    2406        .$      MOVS     r4,#6
        0x0000d382:    e7f7        ..      B        0xd374 ; am_hal_gpio_state_write + 136
    am_hal_interrupt_master_disable
        0x0000d384:    f3ef8010    ....    MRS      r0,PRIMASK
        0x0000d388:    b672        r.      CPSID    i
        0x0000d38a:    4770        pG      BX       lr
    am_hal_interrupt_master_enable
        0x0000d38c:    f3ef8010    ....    MRS      r0,PRIMASK
        0x0000d390:    b662        b.      CPSIE    i
        0x0000d392:    4770        pG      BX       lr
    am_hal_interrupt_master_set
        0x0000d394:    f3808810    ....    MSR      PRIMASK,r0
        0x0000d398:    4770        pG      BX       lr
    am_hal_iom_CQEnable
        0x0000d39a:    6a41        Aj      LDR      r1,[r0,#0x24]
        0x0000d39c:    b951        Q.      CBNZ     r1,0xd3b4 ; am_hal_iom_CQEnable + 26
        0x0000d39e:    6841        Ah      LDR      r1,[r0,#4]
        0x0000d3a0:    f2442398    D..#    MOV      r3,#0x4298
        0x0000d3a4:    030a        ..      LSLS     r2,r1,#12
        0x0000d3a6:    f2c50300    ....    MOVT     r3,#0x5000
        0x0000d3aa:    589a        .X      LDR      r2,[r3,r2]
        0x0000d3ac:    eb033101    ...1    ADD      r1,r3,r1,LSL #12
        0x0000d3b0:    e9c21200    ....    STRD     r1,r2,[r2,#0]
        0x0000d3b4:    f8d00828    ..(.    LDR      r0,[r0,#0x828]
        0x0000d3b8:    f7ffbbda    ....    B        am_hal_cmdq_enable ; 0xcb70
    am_hal_iom_CQInit
        0x0000d3bc:    b510        ..      PUSH     {r4,lr}
        0x0000d3be:    b084        ..      SUB      sp,sp,#0x10
        0x0000d3c0:    4604        .F      MOV      r4,r0
        0x0000d3c2:    0849        I.      LSRS     r1,r1,#1
        0x0000d3c4:    7900        .y      LDRB     r0,[r0,#4]
        0x0000d3c6:    f6040c28    ..(.    ADD      r12,r4,#0x828
        0x0000d3ca:    9101        ..      STR      r1,[sp,#4]
        0x0000d3cc:    2101        .!      MOVS     r1,#1
        0x0000d3ce:    2300        .#      MOVS     r3,#0
        0x0000d3d0:    9202        ..      STR      r2,[sp,#8]
        0x0000d3d2:    f88d100c    ....    STRB     r1,[sp,#0xc]
        0x0000d3d6:    a901        ..      ADD      r1,sp,#4
        0x0000d3d8:    4662        bF      MOV      r2,r12
        0x0000d3da:    f8c43828    ..(8    STR      r3,[r4,#0x828]
        0x0000d3de:    6223        #b      STR      r3,[r4,#0x20]
        0x0000d3e0:    f8c4385c    ..\8    STR      r3,[r4,#0x85c]
        0x0000d3e4:    f7fffbde    ....    BL       am_hal_cmdq_init ; 0xcba4
        0x0000d3e8:    b910        ..      CBNZ     r0,0xd3f0 ; am_hal_iom_CQInit + 52
        0x0000d3ea:    f44f7180    O..q    MOV      r1,#0x100
        0x0000d3ee:    6221        !b      STR      r1,[r4,#0x20]
        0x0000d3f0:    b004        ..      ADD      sp,sp,#0x10
        0x0000d3f2:    bd10        ..      POP      {r4,pc}
    am_hal_iom_blocking_transfer
        0x0000d3f4:    e92d4ff0    -..O    PUSH     {r4-r11,lr}
        0x0000d3f8:    b087        ..      SUB      sp,sp,#0x1c
        0x0000d3fa:    b180        ..      CBZ      r0,0xd41e ; am_hal_iom_blocking_transfer + 42
        0x0000d3fc:    4604        .F      MOV      r4,r0
        0x0000d3fe:    6800        .h      LDR      r0,[r0,#0]
        0x0000d400:    460e        .F      MOV      r6,r1
        0x0000d402:    f2434156    C.VA    MOV      r1,#0x3456
        0x0000d406:    f020407e     .~@    BIC      r0,r0,#0xfe000000
        0x0000d40a:    f2c01112    ....    MOVT     r1,#0x112
        0x0000d40e:    4288        .B      CMP      r0,r1
        0x0000d410:    d105        ..      BNE      0xd41e ; am_hal_iom_blocking_transfer + 42
        0x0000d412:    b14e        N.      CBZ      r6,0xd428 ; am_hal_iom_blocking_transfer + 52
        0x0000d414:    7c35        5|      LDRB     r5,[r6,#0x10]
        0x0000d416:    2d01        .-      CMP      r5,#1
        0x0000d418:    d908        ..      BLS      0xd42c ; am_hal_iom_blocking_transfer + 56
        0x0000d41a:    2707        .'      MOVS     r7,#7
        0x0000d41c:    e000        ..      B        0xd420 ; am_hal_iom_blocking_transfer + 44
        0x0000d41e:    2702        .'      MOVS     r7,#2
        0x0000d420:    4638        8F      MOV      r0,r7
        0x0000d422:    b007        ..      ADD      sp,sp,#0x1c
        0x0000d424:    e8bd8ff0    ....    POP      {r4-r11,pc}
        0x0000d428:    2706        .'      MOVS     r7,#6
        0x0000d42a:    e7f9        ..      B        0xd420 ; am_hal_iom_blocking_transfer + 44
        0x0000d42c:    f8d6b00c    ....    LDR      r11,[r6,#0xc]
        0x0000d430:    4620         F      MOV      r0,r4
        0x0000d432:    4631        1F      MOV      r1,r6
        0x0000d434:    2201        ."      MOVS     r2,#1
        0x0000d436:    f1bb0f00    ....    CMP      r11,#0
        0x0000d43a:    bf04        ..      ITT      EQ
        0x0000d43c:    2500        .%      MOVEQ    r5,#0
        0x0000d43e:    7435        5t      STRBEQ   r5,[r6,#0x10]
        0x0000d440:    f002ff1e    ....    BL       validate_transaction ; 0x10280
        0x0000d444:    4607        .F      MOV      r7,r0
        0x0000d446:    2800        .(      CMP      r0,#0
        0x0000d448:    d1ea        ..      BNE      0xd420 ; am_hal_iom_blocking_transfer + 44
        0x0000d44a:    f894082c    ..,.    LDRB     r0,[r4,#0x82c]
        0x0000d44e:    2802        .(      CMP      r0,#2
        0x0000d450:    d0e3        ..      BEQ      0xd41a ; am_hal_iom_blocking_transfer + 38
        0x0000d452:    6860        `h      LDR      r0,[r4,#4]
        0x0000d454:    2d00        .-      CMP      r5,#0
        0x0000d456:    9006        ..      STR      r0,[sp,#0x18]
        0x0000d458:    6870        ph      LDR      r0,[r6,#4]
        0x0000d45a:    f1040124    ..$.    ADD      r1,r4,#0x24
        0x0000d45e:    9004        ..      STR      r0,[sp,#0x10]
        0x0000d460:    68b0        .h      LDR      r0,[r6,#8]
        0x0000d462:    f04f0801    O...    MOV      r8,#1
        0x0000d466:    9005        ..      STR      r0,[sp,#0x14]
        0x0000d468:    7f30        0.      LDRB     r0,[r6,#0x1c]
        0x0000d46a:    f04f32ff    O..2    MOV      r2,#0xffffffff
        0x0000d46e:    9003        ..      STR      r0,[sp,#0xc]
        0x0000d470:    f04f0018    O...    MOV      r0,#0x18
        0x0000d474:    bf08        ..      IT       EQ
        0x0000d476:    2014        .       MOVEQ    r0,#0x14
        0x0000d478:    f8569000    V...    LDR      r9,[r6,r0]
        0x0000d47c:    f8d40860    ..`.    LDR      r0,[r4,#0x860]
        0x0000d480:    2300        .#      MOVS     r3,#0
        0x0000d482:    f8cd8000    ....    STR      r8,[sp,#0]
        0x0000d486:    f7fffcd9    ....    BL       am_hal_flash_delay_status_check ; 0xce3c
        0x0000d48a:    4607        .F      MOV      r7,r0
        0x0000d48c:    2800        .(      CMP      r0,#0
        0x0000d48e:    d1c7        ..      BNE      0xd420 ; am_hal_iom_blocking_transfer + 44
        0x0000d490:    f24421b4    D..!    MOV      r1,#0x42b4
        0x0000d494:    9a06        ..      LDR      r2,[sp,#0x18]
        0x0000d496:    f2c50100    ....    MOVT     r1,#0x5000
        0x0000d49a:    f8d40860    ..`.    LDR      r0,[r4,#0x860]
        0x0000d49e:    eb013a02    ...:    ADD      r10,r1,r2,LSL #12
        0x0000d4a2:    4651        QF      MOV      r1,r10
        0x0000d4a4:    2206        ."      MOVS     r2,#6
        0x0000d4a6:    2304        .#      MOVS     r3,#4
        0x0000d4a8:    f8cd8000    ....    STR      r8,[sp,#0]
        0x0000d4ac:    f7fffcc6    ....    BL       am_hal_flash_delay_status_check ; 0xce3c
        0x0000d4b0:    4607        .F      MOV      r7,r0
        0x0000d4b2:    2800        .(      CMP      r0,#0
        0x0000d4b4:    d1b4        ..      BNE      0xd420 ; am_hal_iom_blocking_transfer + 44
        0x0000d4b6:    f2440000    D...    MOVW     r0,#0x4000
        0x0000d4ba:    9906        ..      LDR      r1,[sp,#0x18]
        0x0000d4bc:    f2c50000    ....    MOVT     r0,#0x5000
        0x0000d4c0:    f8cda008    ....    STR      r10,[sp,#8]
        0x0000d4c4:    eb003a01    ...:    ADD      r10,r0,r1,LSL #12
        0x0000d4c8:    f8da0200    ....    LDR      r0,[r10,#0x200]
        0x0000d4cc:    9006        ..      STR      r0,[sp,#0x18]
        0x0000d4ce:    2000        .       MOVS     r0,#0
        0x0000d4d0:    f8ca0200    ....    STR      r0,[r10,#0x200]
        0x0000d4d4:    f8da1280    ....    LDR      r1,[r10,#0x280]
        0x0000d4d8:    f0210101    !...    BIC      r1,r1,#1
        0x0000d4dc:    f8ca1280    ....    STR      r1,[r10,#0x280]
        0x0000d4e0:    f04f31ff    O..1    MOV      r1,#0xffffffff
        0x0000d4e4:    f8ca1208    ....    STR      r1,[r10,#0x208]
        0x0000d4e8:    6831        1h      LDR      r1,[r6,#0]
        0x0000d4ea:    f8ca1404    ....    STR      r1,[r10,#0x404]
        0x0000d4ee:    7a21        !z      LDRB     r1,[r4,#8]
        0x0000d4f0:    b919        ..      CBNZ     r1,0xd4fa ; am_hal_iom_blocking_transfer + 262
        0x0000d4f2:    6830        0h      LDR      r0,[r6,#0]
        0x0000d4f4:    4420         D      ADD      r0,r0,r4
        0x0000d4f6:    f89008a0    ....    LDRB     r0,[r0,#0x8a0]
        0x0000d4fa:    f8ca021c    ....    STR      r0,[r10,#0x21c]
        0x0000d4fe:    7a20         z      LDRB     r0,[r4,#8]
        0x0000d500:    b110        ..      CBZ      r0,0xd508 ; am_hal_iom_blocking_transfer + 276
        0x0000d502:    f04f0c00    O...    MOV      r12,#0
        0x0000d506:    e004        ..      B        0xd512 ; am_hal_iom_blocking_transfer + 286
        0x0000d508:    6830        0h      LDR      r0,[r6,#0]
        0x0000d50a:    f44f1140    O.@.    MOV      r1,#0x300000
        0x0000d50e:    ea015c00    ...\    AND      r12,r1,r0,LSL #20
        0x0000d512:    2201        ."      MOVS     r2,#1
        0x0000d514:    2d01        .-      CMP      r5,#1
        0x0000d516:    bf08        ..      IT       EQ
        0x0000d518:    2202        ."      MOVEQ    r2,#2
        0x0000d51a:    9803        ..      LDR      r0,[sp,#0xc]
        0x0000d51c:    f64f7100    O..q    MOVW     r1,#0xff00
        0x0000d520:    f0000301    ....    AND      r3,r0,#1
        0x0000d524:    9804        ..      LDR      r0,[sp,#0x10]
        0x0000d526:    f2c0010f    ....    MOVT     r1,#0xf
        0x0000d52a:    f0000703    ....    AND      r7,r0,#3
        0x0000d52e:    9805        ..      LDR      r0,[sp,#0x14]
        0x0000d530:    ea01210b    ...!    AND      r1,r1,r11,LSL #8
        0x0000d534:    ea416100    A..a    ORR      r1,r1,r0,LSL #24
        0x0000d538:    ea411147    A.G.    ORR      r1,r1,r7,LSL #5
        0x0000d53c:    4411        .D      ADD      r1,r1,r2
        0x0000d53e:    f3c0220f    ..."    UBFX     r2,r0,#8,#16
        0x0000d542:    f8ca2220    .. "    STR      r2,[r10,#0x220]
        0x0000d546:    f24a181f    J...    MOV      r8,#0xa11f
        0x0000d54a:    ea4111c3    A...    ORR      r1,r1,r3,LSL #7
        0x0000d54e:    68f6        .h      LDR      r6,[r6,#0xc]
        0x0000d550:    f2c00807    ....    MOVT     r8,#7
        0x0000d554:    2d01        .-      CMP      r5,#1
        0x0000d556:    ea41000c    A...    ORR      r0,r1,r12
        0x0000d55a:    d153        S.      BNE      0xd604 ; am_hal_iom_blocking_transfer + 528
        0x0000d55c:    2e00        ..      CMP      r6,#0
        0x0000d55e:    f04f0b00    O...    MOV      r11,#0
        0x0000d562:    f8ca0218    ....    STR      r0,[r10,#0x218]
        0x0000d566:    f00080a3    ....    BEQ.W    0xd6b0 ; am_hal_iom_blocking_transfer + 700
        0x0000d56a:    f8da0100    ....    LDR      r0,[r10,#0x100]
        0x0000d56e:    2100        .!      MOVS     r1,#0
        0x0000d570:    f3c04007    ...@    UBFX     r0,r0,#16,#8
        0x0000d574:    2804        .(      CMP      r0,#4
        0x0000d576:    bf38        8.      IT       CC
        0x0000d578:    2101        .!      MOVCC    r1,#1
        0x0000d57a:    4286        .B      CMP      r6,r0
        0x0000d57c:    f04f0200    O...    MOV      r2,#0
        0x0000d580:    bf88        ..      IT       HI
        0x0000d582:    2201        ."      MOVHI    r2,#1
        0x0000d584:    ea1b0f02    ....    TST      r11,r2
        0x0000d588:    d122        ".      BNE      0xd5d0 ; am_hal_iom_blocking_transfer + 476
        0x0000d58a:    2803        .(      CMP      r0,#3
        0x0000d58c:    d820         .      BHI      0xd5d0 ; am_hal_iom_blocking_transfer + 476
        0x0000d58e:    2501        .%      MOVS     r5,#1
        0x0000d590:    2010        .       MOVS     r0,#0x10
        0x0000d592:    f7fffc0d    ....    BL       am_hal_flash_delay ; 0xcdb0
        0x0000d596:    f8da0204    ....    LDR      r0,[r10,#0x204]
        0x0000d59a:    f8da1100    ....    LDR      r1,[r10,#0x100]
        0x0000d59e:    f0000b01    ....    AND      r11,r0,#1
        0x0000d5a2:    f3c14007    ...@    UBFX     r0,r1,#16,#8
        0x0000d5a6:    2804        .(      CMP      r0,#4
        0x0000d5a8:    f04f0100    O...    MOV      r1,#0
        0x0000d5ac:    bf38        8.      IT       CC
        0x0000d5ae:    2101        .!      MOVCC    r1,#1
        0x0000d5b0:    4286        .B      CMP      r6,r0
        0x0000d5b2:    f04f0200    O...    MOV      r2,#0
        0x0000d5b6:    bf88        ..      IT       HI
        0x0000d5b8:    2201        ."      MOVHI    r2,#1
        0x0000d5ba:    ea1b0f02    ....    TST      r11,r2
        0x0000d5be:    d107        ..      BNE      0xd5d0 ; am_hal_iom_blocking_transfer + 476
        0x0000d5c0:    f1080201    ....    ADD      r2,r8,#1
        0x0000d5c4:    4295        .B      CMP      r5,r2
        0x0000d5c6:    d203        ..      BCS      0xd5d0 ; am_hal_iom_blocking_transfer + 476
        0x0000d5c8:    2804        .(      CMP      r0,#4
        0x0000d5ca:    f1050501    ....    ADD      r5,r5,#1
        0x0000d5ce:    d3df        ..      BCC      0xd590 ; am_hal_iom_blocking_transfer + 412
        0x0000d5d0:    2900        .)      CMP      r1,#0
        0x0000d5d2:    f040809c    @...    BNE.W    0xd70e ; am_hal_iom_blocking_transfer + 794
        0x0000d5d6:    2804        .(      CMP      r0,#4
        0x0000d5d8:    d30f        ..      BCC      0xd5fa ; am_hal_iom_blocking_transfer + 518
        0x0000d5da:    b176        v.      CBZ      r6,0xd5fa ; am_hal_iom_blocking_transfer + 518
        0x0000d5dc:    3804        .8      SUBS     r0,#4
        0x0000d5de:    f8da1108    ....    LDR      r1,[r10,#0x108]
        0x0000d5e2:    2e03        ..      CMP      r6,#3
        0x0000d5e4:    d95a        Z.      BLS      0xd69c ; am_hal_iom_blocking_transfer + 680
        0x0000d5e6:    f8491b04    I...    STR      r1,[r9],#4
        0x0000d5ea:    3804        .8      SUBS     r0,#4
        0x0000d5ec:    f1a60104    ....    SUB      r1,r6,#4
        0x0000d5f0:    d304        ..      BCC      0xd5fc ; am_hal_iom_blocking_transfer + 520
        0x0000d5f2:    2e04        ..      CMP      r6,#4
        0x0000d5f4:    460e        .F      MOV      r6,r1
        0x0000d5f6:    d1f2        ..      BNE      0xd5de ; am_hal_iom_blocking_transfer + 490
        0x0000d5f8:    e000        ..      B        0xd5fc ; am_hal_iom_blocking_transfer + 520
        0x0000d5fa:    4631        1F      MOV      r1,r6
        0x0000d5fc:    2900        .)      CMP      r1,#0
        0x0000d5fe:    460e        .F      MOV      r6,r1
        0x0000d600:    d1b3        ..      BNE      0xd56a ; am_hal_iom_blocking_transfer + 374
        0x0000d602:    e053        S.      B        0xd6ac ; am_hal_iom_blocking_transfer + 696
        0x0000d604:    f8da1100    ....    LDR      r1,[r10,#0x100]
        0x0000d608:    b19e        ..      CBZ      r6,0xd632 ; am_hal_iom_blocking_transfer + 574
        0x0000d60a:    f3c12107    ...!    UBFX     r1,r1,#8,#8
        0x0000d60e:    2904        .)      CMP      r1,#4
        0x0000d610:    d30f        ..      BCC      0xd632 ; am_hal_iom_blocking_transfer + 574
        0x0000d612:    3904        .9      SUBS     r1,#4
        0x0000d614:    f8592b04    Y..+    LDR      r2,[r9],#4
        0x0000d618:    2e03        ..      CMP      r6,#3
        0x0000d61a:    f8ca210c    ...!    STR      r2,[r10,#0x10c]
        0x0000d61e:    f04f0200    O...    MOV      r2,#0
        0x0000d622:    bf88        ..      IT       HI
        0x0000d624:    1f32        2.      SUBHI    r2,r6,#4
        0x0000d626:    4616        .F      MOV      r6,r2
        0x0000d628:    b11a        ..      CBZ      r2,0xd632 ; am_hal_iom_blocking_transfer + 574
        0x0000d62a:    2903        .)      CMP      r1,#3
        0x0000d62c:    f1a10104    ....    SUB      r1,r1,#4
        0x0000d630:    d8f0        ..      BHI      0xd614 ; am_hal_iom_blocking_transfer + 544
        0x0000d632:    f04f0b00    O...    MOV      r11,#0
        0x0000d636:    f8ca0218    ....    STR      r0,[r10,#0x218]
        0x0000d63a:    b3ce        ..      CBZ      r6,0xd6b0 ; am_hal_iom_blocking_transfer + 700
        0x0000d63c:    f04f0b01    O...    MOV      r11,#1
        0x0000d640:    f8da0100    ....    LDR      r0,[r10,#0x100]
        0x0000d644:    f3c02007    ...     UBFX     r0,r0,#8,#8
        0x0000d648:    2803        .(      CMP      r0,#3
        0x0000d64a:    d811        ..      BHI      0xd670 ; am_hal_iom_blocking_transfer + 636
        0x0000d64c:    2500        .%      MOVS     r5,#0
        0x0000d64e:    f8da0204    ....    LDR      r0,[r10,#0x204]
        0x0000d652:    4545        EE      CMP      r5,r8
        0x0000d654:    d82c        ,.      BHI      0xd6b0 ; am_hal_iom_blocking_transfer + 700
        0x0000d656:    f0100001    ....    ANDS     r0,r0,#1
        0x0000d65a:    d129        ).      BNE      0xd6b0 ; am_hal_iom_blocking_transfer + 700
        0x0000d65c:    2010        .       MOVS     r0,#0x10
        0x0000d65e:    3501        .5      ADDS     r5,#1
        0x0000d660:    f7fffba6    ....    BL       am_hal_flash_delay ; 0xcdb0
        0x0000d664:    f8da0100    ....    LDR      r0,[r10,#0x100]
        0x0000d668:    f3c02007    ...     UBFX     r0,r0,#8,#8
        0x0000d66c:    2804        .(      CMP      r0,#4
        0x0000d66e:    d3ee        ..      BCC      0xd64e ; am_hal_iom_blocking_transfer + 602
        0x0000d670:    b186        ..      CBZ      r6,0xd694 ; am_hal_iom_blocking_transfer + 672
        0x0000d672:    3804        .8      SUBS     r0,#4
        0x0000d674:    f8591b04    Y...    LDR      r1,[r9],#4
        0x0000d678:    2e03        ..      CMP      r6,#3
        0x0000d67a:    f8ca110c    ....    STR      r1,[r10,#0x10c]
        0x0000d67e:    f04f0100    O...    MOV      r1,#0
        0x0000d682:    bf88        ..      IT       HI
        0x0000d684:    1f31        1.      SUBHI    r1,r6,#4
        0x0000d686:    460e        .F      MOV      r6,r1
        0x0000d688:    b129        ).      CBZ      r1,0xd696 ; am_hal_iom_blocking_transfer + 674
        0x0000d68a:    2803        .(      CMP      r0,#3
        0x0000d68c:    f1a00004    ....    SUB      r0,r0,#4
        0x0000d690:    d8f0        ..      BHI      0xd674 ; am_hal_iom_blocking_transfer + 640
        0x0000d692:    e000        ..      B        0xd696 ; am_hal_iom_blocking_transfer + 674
        0x0000d694:    2600        .&      MOVS     r6,#0
        0x0000d696:    2e00        ..      CMP      r6,#0
        0x0000d698:    d1d2        ..      BNE      0xd640 ; am_hal_iom_blocking_transfer + 588
        0x0000d69a:    e007        ..      B        0xd6ac ; am_hal_iom_blocking_transfer + 696
        0x0000d69c:    2000        .       MOVS     r0,#0
        0x0000d69e:    f8091000    ....    STRB     r1,[r9,r0]
        0x0000d6a2:    3001        .0      ADDS     r0,#1
        0x0000d6a4:    4286        .B      CMP      r6,r0
        0x0000d6a6:    ea4f2111    O..!    LSR      r1,r1,#8
        0x0000d6aa:    d1f8        ..      BNE      0xd69e ; am_hal_iom_blocking_transfer + 682
        0x0000d6ac:    f04f0b00    O...    MOV      r11,#0
        0x0000d6b0:    9902        ..      LDR      r1,[sp,#8]
        0x0000d6b2:    f1080001    ....    ADD      r0,r8,#1
        0x0000d6b6:    2701        .'      MOVS     r7,#1
        0x0000d6b8:    2206        ."      MOVS     r2,#6
        0x0000d6ba:    2304        .#      MOVS     r3,#4
        0x0000d6bc:    9700        ..      STR      r7,[sp,#0]
        0x0000d6be:    f7fffbbd    ....    BL       am_hal_flash_delay_status_check ; 0xce3c
        0x0000d6c2:    4607        .F      MOV      r7,r0
        0x0000d6c4:    b9b0        ..      CBNZ     r0,0xd6f4 ; am_hal_iom_blocking_transfer + 768
        0x0000d6c6:    f8da0204    ....    LDR      r0,[r10,#0x204]
        0x0000d6ca:    f0100f6c    ..l.    TST      r0,#0x6c
        0x0000d6ce:    d002        ..      BEQ      0xd6d6 ; am_hal_iom_blocking_transfer + 738
        0x0000d6d0:    f04f6700    O..g    MOV      r7,#0x8000000
        0x0000d6d4:    e00e        ..      B        0xd6f4 ; am_hal_iom_blocking_transfer + 768
        0x0000d6d6:    2701        .'      MOVS     r7,#1
        0x0000d6d8:    0581        ..      LSLS     r1,r0,#22
        0x0000d6da:    f6c00700    ....    MOVT     r7,#0x800
        0x0000d6de:    d409        ..      BMI      0xd6f4 ; am_hal_iom_blocking_transfer + 768
        0x0000d6e0:    06c1        ..      LSLS     r1,r0,#27
        0x0000d6e2:    d406        ..      BMI      0xd6f2 ; am_hal_iom_blocking_transfer + 766
        0x0000d6e4:    f4004090    ...@    AND      r0,r0,#0x4800
        0x0000d6e8:    eb10000b    ....    ADDS     r0,r0,r11
        0x0000d6ec:    d012        ..      BEQ      0xd714 ; am_hal_iom_blocking_transfer + 800
        0x0000d6ee:    2701        .'      MOVS     r7,#1
        0x0000d6f0:    e000        ..      B        0xd6f4 ; am_hal_iom_blocking_transfer + 768
        0x0000d6f2:    3701        .7      ADDS     r7,#1
        0x0000d6f4:    f8da1204    ....    LDR      r1,[r10,#0x204]
        0x0000d6f8:    4620         F      MOV      r0,r4
        0x0000d6fa:    f001feed    ....    BL       internal_iom_reset_on_error ; 0xf4d8
        0x0000d6fe:    f04f30ff    O..0    MOV      r0,#0xffffffff
        0x0000d702:    f8ca0208    ....    STR      r0,[r10,#0x208]
        0x0000d706:    9806        ..      LDR      r0,[sp,#0x18]
        0x0000d708:    f8ca0200    ....    STR      r0,[r10,#0x200]
        0x0000d70c:    e688        ..      B        0xd420 ; am_hal_iom_blocking_transfer + 44
        0x0000d70e:    f04f0b01    O...    MOV      r11,#1
        0x0000d712:    e7cd        ..      B        0xd6b0 ; am_hal_iom_blocking_transfer + 700
        0x0000d714:    2700        .'      MOVS     r7,#0
        0x0000d716:    e7f2        ..      B        0xd6fe ; am_hal_iom_blocking_transfer + 778
    am_hal_iom_configure
        0x0000d718:    e92d4ff0    -..O    PUSH     {r4-r11,lr}
        0x0000d71c:    b170        p.      CBZ      r0,0xd73c ; am_hal_iom_configure + 36
        0x0000d71e:    6803        .h      LDR      r3,[r0,#0]
        0x0000d720:    f2434756    C.VG    MOV      r7,#0x3456
        0x0000d724:    f023427e    #.~B    BIC      r2,r3,#0xfe000000
        0x0000d728:    f2c01712    ....    MOVT     r7,#0x112
        0x0000d72c:    42ba        .B      CMP      r2,r7
        0x0000d72e:    d105        ..      BNE      0xd73c ; am_hal_iom_configure + 36
        0x0000d730:    b111        ..      CBZ      r1,0xd738 ; am_hal_iom_configure + 32
        0x0000d732:    6842        Bh      LDR      r2,[r0,#4]
        0x0000d734:    2a05        .*      CMP      r2,#5
        0x0000d736:    d905        ..      BLS      0xd744 ; am_hal_iom_configure + 44
        0x0000d738:    2106        .!      MOVS     r1,#6
        0x0000d73a:    e000        ..      B        0xd73e ; am_hal_iom_configure + 38
        0x0000d73c:    2102        .!      MOVS     r1,#2
        0x0000d73e:    4608        .F      MOV      r0,r1
        0x0000d740:    e8bd8ff0    ....    POP      {r4-r11,pc}
        0x0000d744:    019b        ..      LSLS     r3,r3,#6
        0x0000d746:    d440        @.      BMI      0xd7ca ; am_hal_iom_configure + 178
        0x0000d748:    68cb        .h      LDR      r3,[r1,#0xc]
        0x0000d74a:    f1b35f80    ..._    CMP      r3,#0x10000000
        0x0000d74e:    d304        ..      BCC      0xd75a ; am_hal_iom_configure + 66
        0x0000d750:    2700        .'      MOVS     r7,#0
        0x0000d752:    f2c10701    ....    MOVT     r7,#0x1001
        0x0000d756:    42bb        .B      CMP      r3,r7
        0x0000d758:    d339        9.      BCC      0xd7ce ; am_hal_iom_configure + 182
        0x0000d75a:    780b        .x      LDRB     r3,[r1,#0]
        0x0000d75c:    f2441704    D...    MOV      r7,#0x4104
        0x0000d760:    7203        .r      STRB     r3,[r0,#8]
        0x0000d762:    0313        ..      LSLS     r3,r2,#12
        0x0000d764:    f2c50700    ....    MOVT     r7,#0x5000
        0x0000d768:    f2410610    A...    MOV      r6,#0x1010
        0x0000d76c:    50fe        .P      STR      r6,[r7,r3]
        0x0000d76e:    780b        .x      LDRB     r3,[r1,#0]
        0x0000d770:    f2440700    D...    MOVW     r7,#0x4000
        0x0000d774:    f2c50700    ....    MOVT     r7,#0x5000
        0x0000d778:    2b01        .+      CMP      r3,#1
        0x0000d77a:    eb073202    ...2    ADD      r2,r7,r2,LSL #12
        0x0000d77e:    d028        (.      BEQ      0xd7d2 ; am_hal_iom_configure + 186
        0x0000d780:    bb2b        +.      CBNZ     r3,0xd7ce ; am_hal_iom_configure + 182
        0x0000d782:    f891e008    ....    LDRB     lr,[r1,#8]
        0x0000d786:    f1be0f03    ....    CMP      lr,#3
        0x0000d78a:    d8d5        ..      BHI      0xd738 ; am_hal_iom_configure + 32
        0x0000d78c:    684c        Lh      LDR      r4,[r1,#4]
        0x0000d78e:    f6464c00    F..L    MOVW     r12,#0x6c00
        0x0000d792:    f2c02cdc    ...,    MOVT     r12,#0x2dc
        0x0000d796:    4564        dE      CMP      r4,r12
        0x0000d798:    d8ce        ..      BHI      0xd738 ; am_hal_iom_configure + 32
        0x0000d79a:    2c00        .,      CMP      r4,#0
        0x0000d79c:    d07b        {.      BEQ      0xd896 ; am_hal_iom_configure + 382
        0x0000d79e:    fbbcf5f4    ....    UDIV     r5,r12,r4
        0x0000d7a2:    fb05c314    ....    MLS      r3,r5,r4,r12
        0x0000d7a6:    2b00        .+      CMP      r3,#0
        0x0000d7a8:    bf18        ..      IT       NE
        0x0000d7aa:    3501        .5      ADDNE    r5,#1
        0x0000d7ac:    426b        kB      RSBS     r3,r5,#0
        0x0000d7ae:    402b        +@      ANDS     r3,r3,r5
        0x0000d7b0:    fab3f383    ....    CLZ      r3,r3
        0x0000d7b4:    f1c3031f    ....    RSB      r3,r3,#0x1f
        0x0000d7b8:    2b06        .+      CMP      r3,#6
        0x0000d7ba:    bfa8        ..      IT       GE
        0x0000d7bc:    2306        .#      MOVGE    r3,#6
        0x0000d7be:    f5b46f37    ..7o    CMP      r4,#0xb70
        0x0000d7c2:    d83c        <.      BHI      0xd83e ; am_hal_iom_configure + 294
        0x0000d7c4:    f04f0901    O...    MOV      r9,#1
        0x0000d7c8:    e049        I.      B        0xd85e ; am_hal_iom_configure + 326
        0x0000d7ca:    2107        .!      MOVS     r1,#7
        0x0000d7cc:    e7b7        ..      B        0xd73e ; am_hal_iom_configure + 38
        0x0000d7ce:    2105        .!      MOVS     r1,#5
        0x0000d7d0:    e7b5        ..      B        0xd73e ; am_hal_iom_configure + 38
        0x0000d7d2:    684b        Kh      LDR      r3,[r1,#4]
        0x0000d7d4:    f2442740    D.@'    MOV      r7,#0x4240
        0x0000d7d8:    f2c0070f    ....    MOVT     r7,#0xf
        0x0000d7dc:    42bb        .B      CMP      r3,r7
        0x0000d7de:    d016        ..      BEQ      0xd80e ; am_hal_iom_configure + 246
        0x0000d7e0:    f6412780    A..'    MOVW     r7,#0x1a80
        0x0000d7e4:    f2c00706    ....    MOVT     r7,#6
        0x0000d7e8:    42bb        .B      CMP      r3,r7
        0x0000d7ea:    d01b        ..      BEQ      0xd824 ; am_hal_iom_configure + 268
        0x0000d7ec:    f24867a0    H..g    MOV      r7,#0x86a0
        0x0000d7f0:    f2c00701    ....    MOVT     r7,#1
        0x0000d7f4:    42bb        .B      CMP      r3,r7
        0x0000d7f6:    d19f        ..      BNE      0xd738 ; am_hal_iom_configure + 32
        0x0000d7f8:    f24f0370    O.p.    MOV      r3,#0xf070
        0x0000d7fc:    f2c00303    ....    MOVT     r3,#3
        0x0000d800:    f8c23400    ...4    STR      r3,[r2,#0x400]
        0x0000d804:    f2412301    A..#    MOV      r3,#0x1201
        0x0000d808:    f2c7733b    ..;s    MOVT     r3,#0x773b
        0x0000d80c:    e0ac        ..      B        0xd968 ; am_hal_iom_configure + 592
        0x0000d80e:    f2430340    C.@.    MOVW     r3,#0x3040
        0x0000d812:    f2c00321    ..!.    MOVT     r3,#0x21
        0x0000d816:    f8c23400    ...4    STR      r3,[r2,#0x400]
        0x0000d81a:    f2413301    A..3    MOV      r3,#0x1301
        0x0000d81e:    f2c06303    ...c    MOVT     r3,#0x603
        0x0000d822:    e0a1        ..      B        0xd968 ; am_hal_iom_configure + 592
        0x0000d824:    f24f0370    O.p.    MOV      r3,#0xf070
        0x0000d828:    f2c00303    ....    MOVT     r3,#3
        0x0000d82c:    f5037300    ...s    ADD      r3,r3,#0x200
        0x0000d830:    f8c23400    ...4    STR      r3,[r2,#0x400]
        0x0000d834:    f2412301    A..#    MOV      r3,#0x1201
        0x0000d838:    f6c1530e    ...S    MOVT     r3,#0x1d0e
        0x0000d83c:    e094        ..      B        0xd968 ; am_hal_iom_configure + 592
        0x0000d83e:    f2424600    B..F    MOVW     r6,#0x2400
        0x0000d842:    f2c006f4    ....    MOVT     r6,#0xf4
        0x0000d846:    42b4        .B      CMP      r4,r6
        0x0000d848:    f04f0900    O...    MOV      r9,#0
        0x0000d84c:    d307        ..      BCC      0xd85e ; am_hal_iom_configure + 326
        0x0000d84e:    f2436600    C..f    MOVW     r6,#0x3600
        0x0000d852:    f2c0166e    ..n.    MOVT     r6,#0x16e
        0x0000d856:    42b4        .B      CMP      r4,r6
        0x0000d858:    bf38        8.      IT       CC
        0x0000d85a:    f04f0901    O...    MOVCC    r9,#1
        0x0000d85e:    ea4f0649    O.I.    LSL      r6,r9,#1
        0x0000d862:    f1060801    ....    ADD      r8,r6,#1
        0x0000d866:    fa08f603    ....    LSL      r6,r8,r3
        0x0000d86a:    fbb5f7f6    ....    UDIV     r7,r5,r6
        0x0000d86e:    fb075616    ...V    MLS      r6,r7,r6,r5
        0x0000d872:    2e00        ..      CMP      r6,#0
        0x0000d874:    bf18        ..      IT       NE
        0x0000d876:    3701        .7      ADDNE    r7,#1
        0x0000d878:    fab7fb87    ....    CLZ      r11,r7
        0x0000d87c:    f1cb061f    ....    RSB      r6,r11,#0x1f
        0x0000d880:    eb030a06    ....    ADD      r10,r3,r6
        0x0000d884:    2e07        ..      CMP      r6,#7
        0x0000d886:    bf88        ..      IT       HI
        0x0000d888:    f1aa0307    ....    SUBHI    r3,r10,#7
        0x0000d88c:    f1030a01    ....    ADD      r10,r3,#1
        0x0000d890:    f1ba0f07    ....    CMP      r10,#7
        0x0000d894:    d901        ..      BLS      0xd89a ; am_hal_iom_configure + 386
        0x0000d896:    2301        .#      MOVS     r3,#1
        0x0000d898:    e064        d.      B        0xd964 ; am_hal_iom_configure + 588
        0x0000d89a:    2e08        ..      CMP      r6,#8
        0x0000d89c:    d30b        ..      BCC      0xd8b6 ; am_hal_iom_configure + 414
        0x0000d89e:    f1cb0b18    ....    RSB      r11,r11,#0x18
        0x0000d8a2:    f04f36ff    O..6    MOV      r6,#0xffffffff
        0x0000d8a6:    fa06f60b    ....    LSL      r6,r6,r11
        0x0000d8aa:    43f6        .C      MVNS     r6,r6
        0x0000d8ac:    4237        7B      TST      r7,r6
        0x0000d8ae:    fa27f70b    '...    LSR      r7,r7,r11
        0x0000d8b2:    bf18        ..      IT       NE
        0x0000d8b4:    3701        .7      ADDNE    r7,#1
        0x0000d8b6:    f6413b00    A..;    MOVW     r11,#0x1b00
        0x0000d8ba:    f2c00bb7    ....    MOVT     r11,#0xb7
        0x0000d8be:    455c        \E      CMP      r4,r11
        0x0000d8c0:    f04f0b01    O...    MOV      r11,#1
        0x0000d8c4:    f04f0600    O...    MOV      r6,#0
        0x0000d8c8:    fa0bf403    ....    LSL      r4,r11,r3
        0x0000d8cc:    bf38        8.      IT       CC
        0x0000d8ce:    2601        .&      MOVCC    r6,#1
        0x0000d8d0:    1b2c        ,.      SUBS     r4,r5,r4
        0x0000d8d2:    f44f65e0    O..e    MOV      r5,#0x700
        0x0000d8d6:    bf18        ..      IT       NE
        0x0000d8d8:    2401        .$      MOVNE    r4,#1
        0x0000d8da:    ea052a0a    ...*    AND      r10,r5,r10,LSL #8
        0x0000d8de:    4034        4@      ANDS     r4,r4,r6
        0x0000d8e0:    ea4a26c9    J..&    ORR      r6,r10,r9,LSL #11
        0x0000d8e4:    f00e09fe    ....    AND      r9,lr,#0xfe
        0x0000d8e8:    f364360c    d..6    BFI      r6,r4,#12,#1
        0x0000d8ec:    1e7d        }.      SUBS     r5,r7,#1
        0x0000d8ee:    f1b90f02    ....    CMP      r9,#2
        0x0000d8f2:    fa08f303    ....    LSL      r3,r8,r3
        0x0000d8f6:    ea466605    F..f    ORR      r6,r6,r5,LSL #24
        0x0000d8fa:    bf08        ..      IT       EQ
        0x0000d8fc:    f50775ff    ...u    ADDEQ    r5,r7,#0x1fe
        0x0000d900:    2c00        .,      CMP      r4,#0
        0x0000d902:    bf18        ..      IT       NE
        0x0000d904:    46bb        .F      MOVNE    r11,r7
        0x0000d906:    fb0bf303    ....    MUL      r3,r11,r3
        0x0000d90a:    fbbcf4f3    ....    UDIV     r4,r12,r3
        0x0000d90e:    fb04c713    ....    MLS      r7,r4,r3,r12
        0x0000d912:    f24d0c8f    M...    MOV      r12,#0xd08f
        0x0000d916:    ebb70f53    ..S.    CMP      r7,r3,LSR #1
        0x0000d91a:    f64d6383    M..c    MOV      r3,#0xde83
        0x0000d91e:    f2c4331b    ...3    MOVT     r3,#0x431b
        0x0000d922:    bf88        ..      IT       HI
        0x0000d924:    3401        .4      ADDHI    r4,#1
        0x0000d926:    fba43703    ...7    UMULL    r3,r7,r4,r3
        0x0000d92a:    f40573ff    ...s    AND      r3,r5,#0x1fe
        0x0000d92e:    f2c00c03    ....    MOVT     r12,#3
        0x0000d932:    ea4633c3    F..3    ORR      r3,r6,r3,LSL #15
        0x0000d936:    0c3e        >.      LSRS     r6,r7,#16
        0x0000d938:    f10c0501    ....    ADD      r5,r12,#1
        0x0000d93c:    fb064515    ...E    MLS      r5,r6,r5,r4
        0x0000d940:    f04f36ff    O..6    MOV      r6,#0xffffffff
        0x0000d944:    eb064617    ...F    ADD      r6,r6,r7,LSR #16
        0x0000d948:    ea164f17    ...O    TST      r6,r7,LSR #16
        0x0000d94c:    461e        .F      MOV      r6,r3
        0x0000d94e:    bf08        ..      IT       EQ
        0x0000d950:    f50a6600    ...f    ADDEQ    r6,r10,#0x800
        0x0000d954:    2d00        .-      CMP      r5,#0
        0x0000d956:    bf18        ..      IT       NE
        0x0000d958:    461e        .F      MOVNE    r6,r3
        0x0000d95a:    4564        dE      CMP      r4,r12
        0x0000d95c:    bf98        ..      IT       LS
        0x0000d95e:    461e        .F      MOVLS    r6,r3
        0x0000d960:    f0460301    F...    ORR      r3,r6,#1
        0x0000d964:    f8c2e300    ....    STR      lr,[r2,#0x300]
        0x0000d968:    f8c23210    ...2    STR      r3,[r2,#0x210]
        0x0000d96c:    690a        .i      LDR      r2,[r1,#0x10]
        0x0000d96e:    f06f031f    o...    MVN      r3,#0x1f
        0x0000d972:    f64a27ab    J..'    MOV      r7,#0xaaab
        0x0000d976:    eb030382    ....    ADD      r3,r3,r2,LSL #2
        0x0000d97a:    f6ca27aa    ...'    MOVT     r7,#0xaaaa
        0x0000d97e:    fba37607    ...v    UMULL    r7,r6,r3,r7
        0x0000d982:    684f        Oh      LDR      r7,[r1,#4]
        0x0000d984:    f6464500    F..E    MOVW     r5,#0x6c00
        0x0000d988:    f2c025dc    ...%    MOVT     r5,#0x2dc
        0x0000d98c:    68c9        .h      LDR      r1,[r1,#0xc]
        0x0000d98e:    fbb5f7f7    ....    UDIV     r7,r5,r7
        0x0000d992:    f44f757a    O.zu    MOV      r5,#0x3e8
        0x0000d996:    e9c01203    ....    STRD     r1,r2,[r0,#0xc]
        0x0000d99a:    09b1        ..      LSRS     r1,r6,#6
        0x0000d99c:    f246025f    F._.    MOV      r2,#0x605f
        0x0000d9a0:    f8c05860    ..`X    STR      r5,[r0,#0x860]
        0x0000d9a4:    f8c07864    ..dx    STR      r7,[r0,#0x864]
        0x0000d9a8:    4293        .B      CMP      r3,r2
        0x0000d9aa:    bf88        ..      IT       HI
        0x0000d9ac:    f44f7180    O..q    MOVHI    r1,#0x100
        0x0000d9b0:    f8c01858    ..X.    STR      r1,[r0,#0x858]
        0x0000d9b4:    2100        .!      MOVS     r1,#0
        0x0000d9b6:    f8c018a0    ....    STR      r1,[r0,#0x8a0]
        0x0000d9ba:    e6c0        ..      B        0xd73e ; am_hal_iom_configure + 38
    am_hal_iom_enable
        0x0000d9bc:    b5b0        ..      PUSH     {r4,r5,r7,lr}
        0x0000d9be:    2800        .(      CMP      r0,#0
        0x0000d9c0:    d04b        K.      BEQ      0xda5a ; am_hal_iom_enable + 158
        0x0000d9c2:    4604        .F      MOV      r4,r0
        0x0000d9c4:    6800        .h      LDR      r0,[r0,#0]
        0x0000d9c6:    f2434256    C.VB    MOV      r2,#0x3456
        0x0000d9ca:    f020417e     .~A    BIC      r1,r0,#0xfe000000
        0x0000d9ce:    f2c01212    ....    MOVT     r2,#0x112
        0x0000d9d2:    4291        .B      CMP      r1,r2
        0x0000d9d4:    d141        A.      BNE      0xda5a ; am_hal_iom_enable + 158
        0x0000d9d6:    0180        ..      LSLS     r0,r0,#6
        0x0000d9d8:    d445        E.      BMI      0xda66 ; am_hal_iom_enable + 170
        0x0000d9da:    f2440500    D...    MOVW     r5,#0x4000
        0x0000d9de:    6861        ah      LDR      r1,[r4,#4]
        0x0000d9e0:    f2c50500    ....    MOVT     r5,#0x5000
        0x0000d9e4:    eb053101    ...1    ADD      r1,r5,r1,LSL #12
        0x0000d9e8:    7a20         z      LDRB     r0,[r4,#8]
        0x0000d9ea:    f8d12214    ..."    LDR      r2,[r1,#0x214]
        0x0000d9ee:    2800        .(      CMP      r0,#0
        0x0000d9f0:    f3c20242    ..B.    UBFX     r2,r2,#1,#3
        0x0000d9f4:    f04f0310    O...    MOV      r3,#0x10
        0x0000d9f8:    bf18        ..      IT       NE
        0x0000d9fa:    2001        .       MOVNE    r0,#1
        0x0000d9fc:    4282        .B      CMP      r2,r0
        0x0000d9fe:    bf08        ..      IT       EQ
        0x0000da00:    2301        .#      MOVEQ    r3,#1
        0x0000da02:    f8c13214    ...2    STR      r3,[r1,#0x214]
        0x0000da06:    68e0        .h      LDR      r0,[r4,#0xc]
        0x0000da08:    b348        H.      CBZ      r0,0xda5e ; am_hal_iom_enable + 162
        0x0000da0a:    2000        .       MOVS     r0,#0
        0x0000da0c:    6260        `b      STR      r0,[r4,#0x24]
        0x0000da0e:    6861        ah      LDR      r1,[r4,#4]
        0x0000da10:    2240        @"      MOVS     r2,#0x40
        0x0000da12:    eb053101    ...1    ADD      r1,r5,r1,LSL #12
        0x0000da16:    f2c00280    ....    MOVT     r2,#0x80
        0x0000da1a:    61e0        .a      STR      r0,[r4,#0x1c]
        0x0000da1c:    f8c122a4    ..."    STR      r2,[r1,#0x2a4]
        0x0000da20:    f8c40854    ..T.    STR      r0,[r4,#0x854]
        0x0000da24:    f884083c    ..<.    STRB     r0,[r4,#0x83c]
        0x0000da28:    f44f7180    O..q    MOV      r1,#0x100
        0x0000da2c:    f8a4182c    ..,.    STRH     r1,[r4,#0x82c]
        0x0000da30:    e9d42103    ...!    LDRD     r2,r1,[r4,#0xc]
        0x0000da34:    f8c40838    ..8.    STR      r0,[r4,#0x838]
        0x0000da38:    f8c40840    ..@.    STR      r0,[r4,#0x840]
        0x0000da3c:    f8c40844    ..D.    STR      r0,[r4,#0x844]
        0x0000da40:    f8c40830    ..0.    STR      r0,[r4,#0x830]
        0x0000da44:    4620         F      MOV      r0,r4
        0x0000da46:    f7fffcb9    ....    BL       am_hal_iom_CQInit ; 0xd3bc
        0x0000da4a:    6861        ah      LDR      r1,[r4,#4]
        0x0000da4c:    2202        ."      MOVS     r2,#2
        0x0000da4e:    eb053101    ...1    ADD      r1,r5,r1,LSL #12
        0x0000da52:    f8c12240    ..@"    STR      r2,[r1,#0x240]
        0x0000da56:    b110        ..      CBZ      r0,0xda5e ; am_hal_iom_enable + 162
        0x0000da58:    bdb0        ..      POP      {r4,r5,r7,pc}
        0x0000da5a:    2002        .       MOVS     r0,#2
        0x0000da5c:    bdb0        ..      POP      {r4,r5,r7,pc}
        0x0000da5e:    6820         h      LDR      r0,[r4,#0]
        0x0000da60:    f0407000    @..p    ORR      r0,r0,#0x2000000
        0x0000da64:    6020         `      STR      r0,[r4,#0]
        0x0000da66:    2000        .       MOVS     r0,#0
        0x0000da68:    bdb0        ..      POP      {r4,r5,r7,pc}
    am_hal_iom_initialize
        0x0000da6a:    b580        ..      PUSH     {r7,lr}
        0x0000da6c:    2805        .(      CMP      r0,#5
        0x0000da6e:    bf84        ..      ITT      HI
        0x0000da70:    2005        .       MOVHI    r0,#5
        0x0000da72:    bd80        ..      POPHI    {r7,pc}
        0x0000da74:    b1d9        ..      CBZ      r1,0xdaae ; am_hal_iom_initialize + 68
        0x0000da76:    f2414c7c    A.|L    MOV      r12,#0x147c
        0x0000da7a:    f6400ea4    @...    MOV      lr,#0x8a4
        0x0000da7e:    f2c10c01    ....    MOVT     r12,#0x1001
        0x0000da82:    fb00f20e    ....    MUL      r2,r0,lr
        0x0000da86:    f85c2002    \..     LDR      r2,[r12,r2]
        0x0000da8a:    01d3        ..      LSLS     r3,r2,#7
        0x0000da8c:    bf44        D.      ITT      MI
        0x0000da8e:    2007        .       MOVMI    r0,#7
        0x0000da90:    bd80        ..      POPMI    {r7,pc}
        0x0000da92:    f2434356    C.VC    MOV      r3,#0x3456
        0x0000da96:    fb00cc0e    ....    MLA      r12,r0,lr,r12
        0x0000da9a:    f2c01312    ....    MOVT     r3,#0x112
        0x0000da9e:    f3630219    c...    BFI      r2,r3,#0,#26
        0x0000daa2:    e9cc2000    ...     STRD     r2,r0,[r12,#0]
        0x0000daa6:    2000        .       MOVS     r0,#0
        0x0000daa8:    f8c1c000    ....    STR      r12,[r1,#0]
        0x0000daac:    bd80        ..      POP      {r7,pc}
        0x0000daae:    2006        .       MOVS     r0,#6
        0x0000dab0:    bd80        ..      POP      {r7,pc}
    am_hal_iom_power_ctrl
        0x0000dab2:    b5b0        ..      PUSH     {r4,r5,r7,lr}
        0x0000dab4:    2800        .(      CMP      r0,#0
        0x0000dab6:    d05e        ^.      BEQ      0xdb76 ; am_hal_iom_power_ctrl + 196
        0x0000dab8:    4604        .F      MOV      r4,r0
        0x0000daba:    6800        .h      LDR      r0,[r0,#0]
        0x0000dabc:    f2434356    C.VC    MOV      r3,#0x3456
        0x0000dac0:    4615        .F      MOV      r5,r2
        0x0000dac2:    f020427e     .~B    BIC      r2,r0,#0xfe000000
        0x0000dac6:    f2c01312    ....    MOVT     r3,#0x112
        0x0000daca:    429a        .B      CMP      r2,r3
        0x0000dacc:    d153        S.      BNE      0xdb76 ; am_hal_iom_power_ctrl + 196
        0x0000dace:    1e4a        J.      SUBS     r2,r1,#1
        0x0000dad0:    2a02        .*      CMP      r2,#2
        0x0000dad2:    d252        R.      BCS      0xdb7a ; am_hal_iom_power_ctrl + 200
        0x0000dad4:    0180        ..      LSLS     r0,r0,#6
        0x0000dad6:    d45f        _.      BMI      0xdb98 ; am_hal_iom_power_ctrl + 230
        0x0000dad8:    2d00        .-      CMP      r5,#0
        0x0000dada:    d045        E.      BEQ      0xdb68 ; am_hal_iom_power_ctrl + 182
        0x0000dadc:    6860        `h      LDR      r0,[r4,#4]
        0x0000dade:    f2440100    D...    MOVW     r1,#0x4000
        0x0000dae2:    f2c50100    ....    MOVT     r1,#0x5000
        0x0000dae6:    eb013000    ...0    ADD      r0,r1,r0,LSL #12
        0x0000daea:    f8d01104    ....    LDR      r1,[r0,#0x104]
        0x0000daee:    f8c4186c    ..l.    STR      r1,[r4,#0x86c]
        0x0000daf2:    f8d01210    ....    LDR      r1,[r0,#0x210]
        0x0000daf6:    f8c41874    ..t.    STR      r1,[r4,#0x874]
        0x0000dafa:    f8d01214    ....    LDR      r1,[r0,#0x214]
        0x0000dafe:    f8c41878    ..x.    STR      r1,[r4,#0x878]
        0x0000db02:    f8d01294    ....    LDR      r1,[r0,#0x294]
        0x0000db06:    f8c4187c    ..|.    STR      r1,[r4,#0x87c]
        0x0000db0a:    f8d01298    ....    LDR      r1,[r0,#0x298]
        0x0000db0e:    f8c41880    ....    STR      r1,[r4,#0x880]
        0x0000db12:    f8d012a0    ....    LDR      r1,[r0,#0x2a0]
        0x0000db16:    f8c41884    ....    STR      r1,[r4,#0x884]
        0x0000db1a:    f8d012a8    ....    LDR      r1,[r0,#0x2a8]
        0x0000db1e:    f8c41888    ....    STR      r1,[r4,#0x888]
        0x0000db22:    f8d012ac    ....    LDR      r1,[r0,#0x2ac]
        0x0000db26:    f8c4188c    ....    STR      r1,[r4,#0x88c]
        0x0000db2a:    f8d012b0    ....    LDR      r1,[r0,#0x2b0]
        0x0000db2e:    f8c41890    ....    STR      r1,[r4,#0x890]
        0x0000db32:    f8d01300    ....    LDR      r1,[r0,#0x300]
        0x0000db36:    f8c41894    ....    STR      r1,[r4,#0x894]
        0x0000db3a:    f8d01400    ....    LDR      r1,[r0,#0x400]
        0x0000db3e:    f8c41898    ....    STR      r1,[r4,#0x898]
        0x0000db42:    f8d01200    ....    LDR      r1,[r0,#0x200]
        0x0000db46:    f8c4189c    ....    STR      r1,[r4,#0x89c]
        0x0000db4a:    f8d01240    ..@.    LDR      r1,[r0,#0x240]
        0x0000db4e:    f8c41870    ..p.    STR      r1,[r4,#0x870]
        0x0000db52:    f8d00294    ....    LDR      r0,[r0,#0x294]
        0x0000db56:    07c0        ..      LSLS     r0,r0,#31
        0x0000db58:    d003        ..      BEQ      0xdb62 ; am_hal_iom_power_ctrl + 176
        0x0000db5a:    f8d40828    ..(.    LDR      r0,[r4,#0x828]
        0x0000db5e:    f7feffed    ....    BL       am_hal_cmdq_disable ; 0xcb3c
        0x0000db62:    2001        .       MOVS     r0,#1
        0x0000db64:    f8840868    ..h.    STRB     r0,[r4,#0x868]
        0x0000db68:    7920         y      LDRB     r0,[r4,#4]
        0x0000db6a:    3002        .0      ADDS     r0,#2
        0x0000db6c:    b2c0        ..      UXTB     r0,r0
        0x0000db6e:    f000fa65    ..e.    BL       am_hal_pwrctrl_periph_disable ; 0xe03c
        0x0000db72:    b978        x.      CBNZ     r0,0xdb94 ; am_hal_iom_power_ctrl + 226
        0x0000db74:    e091        ..      B        0xdc9a ; am_hal_iom_power_ctrl + 488
        0x0000db76:    2002        .       MOVS     r0,#2
        0x0000db78:    bdb0        ..      POP      {r4,r5,r7,pc}
        0x0000db7a:    b9f9        ..      CBNZ     r1,0xdbbc ; am_hal_iom_power_ctrl + 266
        0x0000db7c:    b125        %.      CBZ      r5,0xdb88 ; am_hal_iom_power_ctrl + 214
        0x0000db7e:    f8940868    ..h.    LDRB     r0,[r4,#0x868]
        0x0000db82:    2800        .(      CMP      r0,#0
        0x0000db84:    f000808b    ....    BEQ.W    0xdc9e ; am_hal_iom_power_ctrl + 492
        0x0000db88:    7920         y      LDRB     r0,[r4,#4]
        0x0000db8a:    3002        .0      ADDS     r0,#2
        0x0000db8c:    b2c0        ..      UXTB     r0,r0
        0x0000db8e:    f000faa5    ....    BL       am_hal_pwrctrl_periph_enable ; 0xe0dc
        0x0000db92:    b1a8        ..      CBZ      r0,0xdbc0 ; am_hal_iom_power_ctrl + 270
        0x0000db94:    2009        .       MOVS     r0,#9
        0x0000db96:    bdb0        ..      POP      {r4,r5,r7,pc}
        0x0000db98:    6860        `h      LDR      r0,[r4,#4]
        0x0000db9a:    f2440100    D...    MOVW     r1,#0x4000
        0x0000db9e:    f2c50100    ....    MOVT     r1,#0x5000
        0x0000dba2:    eb013000    ...0    ADD      r0,r1,r0,LSL #12
        0x0000dba6:    f8d002b4    ....    LDR      r0,[r0,#0x2b4]
        0x0000dbaa:    f0000006    ....    AND      r0,r0,#6
        0x0000dbae:    2804        .(      CMP      r0,#4
        0x0000dbb0:    d102        ..      BNE      0xdbb8 ; am_hal_iom_power_ctrl + 262
        0x0000dbb2:    6a60        `j      LDR      r0,[r4,#0x24]
        0x0000dbb4:    2800        .(      CMP      r0,#0
        0x0000dbb6:    d08f        ..      BEQ      0xdad8 ; am_hal_iom_power_ctrl + 38
        0x0000dbb8:    2003        .       MOVS     r0,#3
        0x0000dbba:    bdb0        ..      POP      {r4,r5,r7,pc}
        0x0000dbbc:    2006        .       MOVS     r0,#6
        0x0000dbbe:    bdb0        ..      POP      {r4,r5,r7,pc}
        0x0000dbc0:    2d00        .-      CMP      r5,#0
        0x0000dbc2:    d06a        j.      BEQ      0xdc9a ; am_hal_iom_power_ctrl + 488
        0x0000dbc4:    6862        bh      LDR      r2,[r4,#4]
        0x0000dbc6:    f2440000    D...    MOVW     r0,#0x4000
        0x0000dbca:    f8d4186c    ..l.    LDR      r1,[r4,#0x86c]
        0x0000dbce:    f2c50000    ....    MOVT     r0,#0x5000
        0x0000dbd2:    eb003202    ...2    ADD      r2,r0,r2,LSL #12
        0x0000dbd6:    f8c21104    ....    STR      r1,[r2,#0x104]
        0x0000dbda:    6861        ah      LDR      r1,[r4,#4]
        0x0000dbdc:    f8d42874    ..t(    LDR      r2,[r4,#0x874]
        0x0000dbe0:    eb003101    ...1    ADD      r1,r0,r1,LSL #12
        0x0000dbe4:    f8c12210    ..."    STR      r2,[r1,#0x210]
        0x0000dbe8:    6861        ah      LDR      r1,[r4,#4]
        0x0000dbea:    f8d42878    ..x(    LDR      r2,[r4,#0x878]
        0x0000dbee:    eb003101    ...1    ADD      r1,r0,r1,LSL #12
        0x0000dbf2:    f8c12214    ..."    STR      r2,[r1,#0x214]
        0x0000dbf6:    6861        ah      LDR      r1,[r4,#4]
        0x0000dbf8:    f8d42880    ...(    LDR      r2,[r4,#0x880]
        0x0000dbfc:    eb003101    ...1    ADD      r1,r0,r1,LSL #12
        0x0000dc00:    f8c12298    ..."    STR      r2,[r1,#0x298]
        0x0000dc04:    6861        ah      LDR      r1,[r4,#4]
        0x0000dc06:    f8d42888    ...(    LDR      r2,[r4,#0x888]
        0x0000dc0a:    eb003101    ...1    ADD      r1,r0,r1,LSL #12
        0x0000dc0e:    f8c122a8    ..."    STR      r2,[r1,#0x2a8]
        0x0000dc12:    6861        ah      LDR      r1,[r4,#4]
        0x0000dc14:    f8d4288c    ...(    LDR      r2,[r4,#0x88c]
        0x0000dc18:    eb003101    ...1    ADD      r1,r0,r1,LSL #12
        0x0000dc1c:    f8c122ac    ..."    STR      r2,[r1,#0x2ac]
        0x0000dc20:    6861        ah      LDR      r1,[r4,#4]
        0x0000dc22:    f8d42890    ...(    LDR      r2,[r4,#0x890]
        0x0000dc26:    eb003101    ...1    ADD      r1,r0,r1,LSL #12
        0x0000dc2a:    f8c122b0    ..."    STR      r2,[r1,#0x2b0]
        0x0000dc2e:    6861        ah      LDR      r1,[r4,#4]
        0x0000dc30:    f8d42894    ...(    LDR      r2,[r4,#0x894]
        0x0000dc34:    eb003101    ...1    ADD      r1,r0,r1,LSL #12
        0x0000dc38:    f8c12300    ...#    STR      r2,[r1,#0x300]
        0x0000dc3c:    6861        ah      LDR      r1,[r4,#4]
        0x0000dc3e:    f8d42898    ...(    LDR      r2,[r4,#0x898]
        0x0000dc42:    eb003101    ...1    ADD      r1,r0,r1,LSL #12
        0x0000dc46:    f8c12400    ...$    STR      r2,[r1,#0x400]
        0x0000dc4a:    6861        ah      LDR      r1,[r4,#4]
        0x0000dc4c:    f8d4289c    ...(    LDR      r2,[r4,#0x89c]
        0x0000dc50:    eb003101    ...1    ADD      r1,r0,r1,LSL #12
        0x0000dc54:    f8c12200    ..."    STR      r2,[r1,#0x200]
        0x0000dc58:    6861        ah      LDR      r1,[r4,#4]
        0x0000dc5a:    f8d42870    ..p(    LDR      r2,[r4,#0x870]
        0x0000dc5e:    eb003101    ...1    ADD      r1,r0,r1,LSL #12
        0x0000dc62:    f8c12240    ..@"    STR      r2,[r1,#0x240]
        0x0000dc66:    6861        ah      LDR      r1,[r4,#4]
        0x0000dc68:    f8942884    ...(    LDRB     r2,[r4,#0x884]
        0x0000dc6c:    eb003101    ...1    ADD      r1,r0,r1,LSL #12
        0x0000dc70:    f8c122a4    ..."    STR      r2,[r1,#0x2a4]
        0x0000dc74:    f8d4187c    ..|.    LDR      r1,[r4,#0x87c]
        0x0000dc78:    6862        bh      LDR      r2,[r4,#4]
        0x0000dc7a:    f0210101    !...    BIC      r1,r1,#1
        0x0000dc7e:    eb003002    ...0    ADD      r0,r0,r2,LSL #12
        0x0000dc82:    f8c01294    ....    STR      r1,[r0,#0x294]
        0x0000dc86:    f894087c    ..|.    LDRB     r0,[r4,#0x87c]
        0x0000dc8a:    07c0        ..      LSLS     r0,r0,#31
        0x0000dc8c:    d002        ..      BEQ      0xdc94 ; am_hal_iom_power_ctrl + 482
        0x0000dc8e:    4620         F      MOV      r0,r4
        0x0000dc90:    f7fffb83    ....    BL       am_hal_iom_CQEnable ; 0xd39a
        0x0000dc94:    2000        .       MOVS     r0,#0
        0x0000dc96:    f8840868    ..h.    STRB     r0,[r4,#0x868]
        0x0000dc9a:    2000        .       MOVS     r0,#0
        0x0000dc9c:    bdb0        ..      POP      {r4,r5,r7,pc}
        0x0000dc9e:    2007        .       MOVS     r0,#7
        0x0000dca0:    bdb0        ..      POP      {r4,r5,r7,pc}
        0x0000dca2:    0000        ..      MOVS     r0,r0
    am_hal_itm_enable
        0x0000dca4:    f64e50fc    N..P    MOV      r0,#0xedfc
        0x0000dca8:    f2ce0000    ....    MOVT     r0,#0xe000
        0x0000dcac:    6801        .h      LDR      r1,[r0,#0]
        0x0000dcae:    f0417180    A..q    ORR      r1,r1,#0x1000000
        0x0000dcb2:    6001        .`      STR      r1,[r0,#0]
        0x0000dcb4:    6801        .h      LDR      r1,[r0,#0]
        0x0000dcb6:    01c9        ..      LSLS     r1,r1,#7
        0x0000dcb8:    d5fc        ..      BPL      0xdcb4 ; am_hal_itm_enable + 16
        0x0000dcba:    f6406000    @..`    MOVW     r0,#0xe00
        0x0000dcbe:    f64c6155    L.Ua    MOV      r1,#0xce55
        0x0000dcc2:    f2ce0000    ....    MOVT     r0,#0xe000
        0x0000dcc6:    f2cc51ac    ...Q    MOVT     r1,#0xc5ac
        0x0000dcca:    f8c011b0    ....    STR      r1,[r0,#0x1b0]
        0x0000dcce:    210f        .!      MOVS     r1,#0xf
        0x0000dcd0:    6401        .d      STR      r1,[r0,#0x40]
        0x0000dcd2:    f04f31ff    O..1    MOV      r1,#0xffffffff
        0x0000dcd6:    6001        .`      STR      r1,[r0,#0]
        0x0000dcd8:    f2405111    @..Q    MOV      r1,#0x511
        0x0000dcdc:    f2c00115    ....    MOVT     r1,#0x15
        0x0000dce0:    f8c01080    ....    STR      r1,[r0,#0x80]
        0x0000dce4:    4770        pG      BX       lr
        0x0000dce6:    0000        ..      MOVS     r0,r0
    am_hal_itm_print
        0x0000dce8:    2100        .!      MOVS     r1,#0
        0x0000dcea:    bf00        ..      NOP      
        0x0000dcec:    5c42        B\      LDRB     r2,[r0,r1]
        0x0000dcee:    3101        .1      ADDS     r1,#1
        0x0000dcf0:    2a00        .*      CMP      r2,#0
        0x0000dcf2:    d1fb        ..      BNE      0xdcec ; am_hal_itm_print + 4
        0x0000dcf4:    3901        .9      SUBS     r1,#1
        0x0000dcf6:    bf08        ..      IT       EQ
        0x0000dcf8:    4770        pG      BXEQ     lr
        0x0000dcfa:    f04f4260    O.`B    MOV      r2,#0xe0000000
        0x0000dcfe:    bf00        ..      NOP      
        0x0000dd00:    f890c000    ....    LDRB     r12,[r0,#0]
        0x0000dd04:    6813        .h      LDR      r3,[r2,#0]
        0x0000dd06:    2b00        .+      CMP      r3,#0
        0x0000dd08:    d0fc        ..      BEQ      0xdd04 ; am_hal_itm_print + 28
        0x0000dd0a:    3001        .0      ADDS     r0,#1
        0x0000dd0c:    3901        .9      SUBS     r1,#1
        0x0000dd0e:    f882c000    ....    STRB     r12,[r2,#0]
        0x0000dd12:    d1f5        ..      BNE      0xdd00 ; am_hal_itm_print + 24
        0x0000dd14:    4770        pG      BX       lr
    am_hal_mcuctrl_info_get
        0x0000dd16:    b1e1        ..      CBZ      r1,0xdd52 ; am_hal_mcuctrl_info_get + 60
        0x0000dd18:    2802        .(      CMP      r0,#2
        0x0000dd1a:    d01c        ..      BEQ      0xdd56 ; am_hal_mcuctrl_info_get + 64
        0x0000dd1c:    2801        .(      CMP      r0,#1
        0x0000dd1e:    d037        7.      BEQ      0xdd90 ; am_hal_mcuctrl_info_get + 122
        0x0000dd20:    b9b8        ..      CBNZ     r0,0xdd52 ; am_hal_mcuctrl_info_get + 60
        0x0000dd22:    2000        .       MOVS     r0,#0
        0x0000dd24:    f2c40002    ....    MOVT     r0,#0x4002
        0x0000dd28:    6982        .i      LDR      r2,[r0,#0x18]
        0x0000dd2a:    b2d2        ..      UXTB     r2,r2
        0x0000dd2c:    f3c21380    ....    UBFX     r3,r2,#6,#1
        0x0000dd30:    f3c20280    ....    UBFX     r2,r2,#2,#1
        0x0000dd34:    700b        .p      STRB     r3,[r1,#0]
        0x0000dd36:    704a        Jp      STRB     r2,[r1,#1]
        0x0000dd38:    f8d021a0    ...!    LDR      r2,[r0,#0x1a0]
        0x0000dd3c:    f3c26281    ...b    UBFX     r2,r2,#26,#2
        0x0000dd40:    710a        .q      STRB     r2,[r1,#4]
        0x0000dd42:    6940        @i      LDR      r0,[r0,#0x14]
        0x0000dd44:    f3c00240    ..@.    UBFX     r2,r0,#1,#1
        0x0000dd48:    f0000001    ....    AND      r0,r0,#1
        0x0000dd4c:    708a        .p      STRB     r2,[r1,#2]
        0x0000dd4e:    70c8        .p      STRB     r0,[r1,#3]
        0x0000dd50:    e06c        l.      B        0xde2c ; am_hal_mcuctrl_info_get + 278
        0x0000dd52:    2006        .       MOVS     r0,#6
        0x0000dd54:    4770        pG      BX       lr
        0x0000dd56:    2000        .       MOVS     r0,#0
        0x0000dd58:    f2c40002    ....    MOVT     r0,#0x4002
        0x0000dd5c:    f8d021cc    ...!    LDR      r2,[r0,#0x1cc]
        0x0000dd60:    b2d3        ..      UXTB     r3,r2
        0x0000dd62:    f0020201    ....    AND      r2,r2,#1
        0x0000dd66:    700a        .p      STRB     r2,[r1,#0]
        0x0000dd68:    f3c30240    ..@.    UBFX     r2,r3,#1,#1
        0x0000dd6c:    720a        .r      STRB     r2,[r1,#8]
        0x0000dd6e:    f3c30280    ....    UBFX     r2,r3,#2,#1
        0x0000dd72:    740a        .t      STRB     r2,[r1,#0x10]
        0x0000dd74:    f8d021c4    ...!    LDR      r2,[r0,#0x1c4]
        0x0000dd78:    60ca        .`      STR      r2,[r1,#0xc]
        0x0000dd7a:    f8d021c0    ...!    LDR      r2,[r0,#0x1c0]
        0x0000dd7e:    684b        Kh      LDR      r3,[r1,#4]
        0x0000dd80:    431a        .C      ORRS     r2,r2,r3
        0x0000dd82:    604a        J`      STR      r2,[r1,#4]
        0x0000dd84:    f8d001c8    ....    LDR      r0,[r0,#0x1c8]
        0x0000dd88:    694a        Ji      LDR      r2,[r1,#0x14]
        0x0000dd8a:    4310        .C      ORRS     r0,r0,r2
        0x0000dd8c:    6148        Ha      STR      r0,[r1,#0x14]
        0x0000dd8e:    e04d        M.      B        0xde2c ; am_hal_mcuctrl_info_get + 278
        0x0000dd90:    2000        .       MOVS     r0,#0
        0x0000dd92:    f2c40002    ....    MOVT     r0,#0x4002
        0x0000dd96:    6802        .h      LDR      r2,[r0,#0]
        0x0000dd98:    600a        .`      STR      r2,[r1,#0]
        0x0000dd9a:    6843        Ch      LDR      r3,[r0,#4]
        0x0000dd9c:    604b        K`      STR      r3,[r1,#4]
        0x0000dd9e:    6883        .h      LDR      r3,[r0,#8]
        0x0000dda0:    608b        .`      STR      r3,[r1,#8]
        0x0000dda2:    68c3        .h      LDR      r3,[r0,#0xc]
        0x0000dda4:    60cb        .`      STR      r3,[r1,#0xc]
        0x0000dda6:    6903        .i      LDR      r3,[r0,#0x10]
        0x0000dda8:    610b        .a      STR      r3,[r1,#0x10]
        0x0000ddaa:    6940        @i      LDR      r0,[r0,#0x14]
        0x0000ddac:    f24073b8    @..s    MOVW     r3,#0x7b8
        0x0000ddb0:    6148        Ha      STR      r0,[r1,#0x14]
        0x0000ddb2:    2001        .       MOVS     r0,#1
        0x0000ddb4:    6188        .a      STR      r0,[r1,#0x18]
        0x0000ddb6:    f3c25003    ...P    UBFX     r0,r2,#20,#4
        0x0000ddba:    f2c00301    ....    MOVT     r3,#1
        0x0000ddbe:    f8530020    S. .    LDR      r0,[r3,r0,LSL #2]
        0x0000ddc2:    f24073f8    @..s    MOVW     r3,#0x7f8
        0x0000ddc6:    f3c24203    ...B    UBFX     r2,r2,#16,#4
        0x0000ddca:    f2c00301    ....    MOVT     r3,#1
        0x0000ddce:    f8532022    S."     LDR      r2,[r3,r2,LSL #2]
        0x0000ddd2:    e9c10207    ....    STRD     r0,r2,[r1,#0x1c]
        0x0000ddd6:    f64070e0    @..p    MOVW     r0,#0xfe0
        0x0000ddda:    f2cf0000    ....    MOVT     r0,#0xf000
        0x0000ddde:    6802        .h      LDR      r2,[r0,#0]
        0x0000dde0:    b2d2        ..      UXTB     r2,r2
        0x0000dde2:    624a        Jb      STR      r2,[r1,#0x24]
        0x0000dde4:    6843        Ch      LDR      r3,[r0,#4]
        0x0000dde6:    f363220b    c.."    BFI      r2,r3,#8,#4
        0x0000ddea:    624a        Jb      STR      r2,[r1,#0x24]
        0x0000ddec:    6842        Bh      LDR      r2,[r0,#4]
        0x0000ddee:    f3c21203    ....    UBFX     r2,r2,#4,#4
        0x0000ddf2:    628a        .b      STR      r2,[r1,#0x28]
        0x0000ddf4:    6883        .h      LDR      r3,[r0,#8]
        0x0000ddf6:    f3631207    c...    BFI      r2,r3,#4,#4
        0x0000ddfa:    628a        .b      STR      r2,[r1,#0x28]
        0x0000ddfc:    6882        .h      LDR      r2,[r0,#8]
        0x0000ddfe:    f00202f0    ....    AND      r2,r2,#0xf0
        0x0000de02:    62ca        .b      STR      r2,[r1,#0x2c]
        0x0000de04:    68c3        .h      LDR      r3,[r0,#0xc]
        0x0000de06:    f3c31303    ....    UBFX     r3,r3,#4,#4
        0x0000de0a:    441a        .D      ADD      r2,r2,r3
        0x0000de0c:    62ca        .b      STR      r2,[r1,#0x2c]
        0x0000de0e:    69c2        .i      LDR      r2,[r0,#0x1c]
        0x0000de10:    0612        ..      LSLS     r2,r2,#24
        0x0000de12:    630a        .c      STR      r2,[r1,#0x30]
        0x0000de14:    6983        .i      LDR      r3,[r0,#0x18]
        0x0000de16:    f3634217    c..B    BFI      r2,r3,#16,#8
        0x0000de1a:    630a        .c      STR      r2,[r1,#0x30]
        0x0000de1c:    6943        Ci      LDR      r3,[r0,#0x14]
        0x0000de1e:    f363220f    c.."    BFI      r2,r3,#8,#8
        0x0000de22:    630a        .c      STR      r2,[r1,#0x30]
        0x0000de24:    6900        .i      LDR      r0,[r0,#0x10]
        0x0000de26:    b2c0        ..      UXTB     r0,r0
        0x0000de28:    4410        .D      ADD      r0,r0,r2
        0x0000de2a:    6308        .c      STR      r0,[r1,#0x30]
        0x0000de2c:    2000        .       MOVS     r0,#0
        0x0000de2e:    4770        pG      BX       lr
    am_hal_pwrctrl_blebuck_trim
        0x0000de30:    b510        ..      PUSH     {r4,lr}
        0x0000de32:    b082        ..      SUB      sp,sp,#8
        0x0000de34:    f2403468    @.h4    MOVW     r4,#0x368
        0x0000de38:    f64f40a4    O..@    MOV      r0,#0xfca4
        0x0000de3c:    f2c40402    ....    MOVT     r4,#0x4002
        0x0000de40:    f6cf70ff    ...p    MOVT     r0,#0xffff
        0x0000de44:    5820         X      LDR      r0,[r4,r0]
        0x0000de46:    f00000fe    ....    AND      r0,r0,#0xfe
        0x0000de4a:    2812        .(      CMP      r0,#0x12
        0x0000de4c:    d317        ..      BCC      0xde7e ; am_hal_pwrctrl_blebuck_trim + 78
        0x0000de4e:    f7fffa99    ....    BL       am_hal_interrupt_master_disable ; 0xd384
        0x0000de52:    9001        ..      STR      r0,[sp,#4]
        0x0000de54:    6820         h      LDR      r0,[r4,#0]
        0x0000de56:    2119        .!      MOVS     r1,#0x19
        0x0000de58:    f361108b    a...    BFI      r0,r1,#6,#6
        0x0000de5c:    6020         `      STR      r0,[r4,#0]
        0x0000de5e:    6820         h      LDR      r0,[r4,#0]
        0x0000de60:    210c        .!      MOVS     r1,#0xc
        0x0000de62:    f3610005    a...    BFI      r0,r1,#0,#6
        0x0000de66:    6020         `      STR      r0,[r4,#0]
        0x0000de68:    f244003c    D.<.    MOV      r0,#0x403c
        0x0000de6c:    f2c40000    ....    MOVT     r0,#0x4000
        0x0000de70:    6801        .h      LDR      r1,[r0,#0]
        0x0000de72:    f4210180    !...    BIC      r1,r1,#0x400000
        0x0000de76:    6001        .`      STR      r1,[r0,#0]
        0x0000de78:    9801        ..      LDR      r0,[sp,#4]
        0x0000de7a:    f7fffa8b    ....    BL       am_hal_interrupt_master_set ; 0xd394
        0x0000de7e:    b002        ..      ADD      sp,sp,#8
        0x0000de80:    bd10        ..      POP      {r4,pc}
    am_hal_pwrctrl_bleif_workaround
        0x0000de82:    f6430138    C.8.    MOV      r1,#0x3838
        0x0000de86:    f2c50102    ....    MOVT     r1,#0x5002
        0x0000de8a:    460a        .F      MOV      r2,r1
        0x0000de8c:    f8520b38    R.8.    LDR      r0,[r2],#0x38
        0x0000de90:    f0100008    ....    ANDS     r0,r0,#8
        0x0000de94:    f2400088    @...    MOVW     r0,#0x88
        0x0000de98:    f2c40002    ....    MOVT     r0,#0x4002
        0x0000de9c:    4603        .F      MOV      r3,r0
        0x0000de9e:    bf08        ..      IT       EQ
        0x0000dea0:    f1010334    ..4.    ADDEQ    r3,r1,#0x34
        0x0000dea4:    6819        .h      LDR      r1,[r3,#0]
        0x0000dea6:    bf18        ..      IT       NE
        0x0000dea8:    f5007232    ..2r    ADDNE    r2,r0,#0x2c8
        0x0000deac:    6803        .h      LDR      r3,[r0,#0]
        0x0000deae:    f001013f    ..?.    AND      r1,r1,#0x3f
        0x0000deb2:    f023033f    #.?.    BIC      r3,r3,#0x3f
        0x0000deb6:    293c        <)      CMP      r1,#0x3c
        0x0000deb8:    bf28        (.      IT       CS
        0x0000deba:    213c        <!      MOVCS    r1,#0x3c
        0x0000debc:    6003        .`      STR      r3,[r0,#0]
        0x0000debe:    6803        .h      LDR      r3,[r0,#0]
        0x0000dec0:    3103        .1      ADDS     r1,#3
        0x0000dec2:    4319        .C      ORRS     r1,r1,r3
        0x0000dec4:    6001        .`      STR      r1,[r0,#0]
        0x0000dec6:    6811        .h      LDR      r1,[r2,#0]
        0x0000dec8:    f8d022c8    ..."    LDR      r2,[r0,#0x2c8]
        0x0000decc:    f3c14105    ...A    UBFX     r1,r1,#16,#6
        0x0000ded0:    f422127c    ".|.    BIC      r2,r2,#0x3f0000
        0x0000ded4:    293a        :)      CMP      r1,#0x3a
        0x0000ded6:    bf28        (.      IT       CS
        0x0000ded8:    213a        :!      MOVCS    r1,#0x3a
        0x0000deda:    f8c022c8    ..."    STR      r2,[r0,#0x2c8]
        0x0000dede:    f44f22a0    O.."    MOV      r2,#0x50000
        0x0000dee2:    eb024101    ...A    ADD      r1,r2,r1,LSL #16
        0x0000dee6:    f8d022c8    ..."    LDR      r2,[r0,#0x2c8]
        0x0000deea:    f401117c    ..|.    AND      r1,r1,#0x3f0000
        0x0000deee:    4311        .C      ORRS     r1,r1,r2
        0x0000def0:    f8c012c8    ....    STR      r1,[r0,#0x2c8]
        0x0000def4:    4770        pG      BX       lr
    am_hal_pwrctrl_low_power_init
        0x0000def6:    b5b0        ..      PUSH     {r4,r5,r7,lr}
        0x0000def8:    b082        ..      SUB      sp,sp,#8
        0x0000defa:    f2412074    A.t     MOV      r0,#0x1274
        0x0000defe:    f2c10001    ....    MOVT     r0,#0x1001
        0x0000df02:    6801        .h      LDR      r1,[r0,#0]
        0x0000df04:    b929        ).      CBNZ     r1,0xdf12 ; am_hal_pwrctrl_low_power_init + 28
        0x0000df06:    f24f0100    O...    MOVW     r1,#0xf000
        0x0000df0a:    f6c471ff    ...q    MOVT     r1,#0x4fff
        0x0000df0e:    6809        .h      LDR      r1,[r1,#0]
        0x0000df10:    6001        .`      STR      r1,[r0,#0]
        0x0000df12:    f2403450    @.P4    MOVW     r4,#0x350
        0x0000df16:    f64f45bc    O..E    MOV      r5,#0xfcbc
        0x0000df1a:    f2c40402    ....    MOVT     r4,#0x4002
        0x0000df1e:    f6cf75ff    ...u    MOVT     r5,#0xffff
        0x0000df22:    5960        `Y      LDR      r0,[r4,r5]
        0x0000df24:    b2c0        ..      UXTB     r0,r0
        0x0000df26:    2821        !(      CMP      r0,#0x21
        0x0000df28:    d34f        O.      BCC      0xdfca ; am_hal_pwrctrl_low_power_init + 212
        0x0000df2a:    f644109d    D...    MOV      r0,#0x499d
        0x0000df2e:    f2c10001    ....    MOVT     r0,#0x1001
        0x0000df32:    7801        .x      LDRB     r1,[r0,#0]
        0x0000df34:    2900        .)      CMP      r1,#0
        0x0000df36:    d13e        >.      BNE      0xdfb6 ; am_hal_pwrctrl_low_power_init + 192
        0x0000df38:    2101        .!      MOVS     r1,#1
        0x0000df3a:    7001        .p      STRB     r1,[r0,#0]
        0x0000df3c:    6820         h      LDR      r0,[r4,#0]
        0x0000df3e:    6822        "h      LDR      r2,[r4,#0]
        0x0000df40:    f3c05085    ...P    UBFX     r0,r0,#22,#6
        0x0000df44:    380c        .8      SUBS     r0,r0,#0xc
        0x0000df46:    f04f0100    O...    MOV      r1,#0
        0x0000df4a:    bf38        8.      IT       CC
        0x0000df4c:    4608        .F      MOVCC    r0,r1
        0x0000df4e:    f022627c    ".|b    BIC      r2,r2,#0xfc00000
        0x0000df52:    ea425080    B..P    ORR      r0,r2,r0,LSL #22
        0x0000df56:    6020         `      STR      r0,[r4,#0]
        0x0000df58:    6820         h      LDR      r0,[r4,#0]
        0x0000df5a:    6822        "h      LDR      r2,[r4,#0]
        0x0000df5c:    f3c02085    ...     UBFX     r0,r0,#10,#6
        0x0000df60:    380d        .8      SUBS     r0,r0,#0xd
        0x0000df62:    bf38        8.      IT       CC
        0x0000df64:    4608        .F      MOVCC    r0,r1
        0x0000df66:    f422417c    ".|A    BIC      r1,r2,#0xfc00
        0x0000df6a:    ea412080    A..     ORR      r0,r1,r0,LSL #10
        0x0000df6e:    6020         `      STR      r0,[r4,#0]
        0x0000df70:    6860        `h      LDR      r0,[r4,#4]
        0x0000df72:    2108        .!      MOVS     r1,#8
        0x0000df74:    f3615017    a..P    BFI      r0,r1,#20,#4
        0x0000df78:    6060        ``      STR      r0,[r4,#4]
        0x0000df7a:    6860        `h      LDR      r0,[r4,#4]
        0x0000df7c:    2205        ."      MOVS     r2,#5
        0x0000df7e:    f3624013    b..@    BFI      r0,r2,#16,#4
        0x0000df82:    6060        ``      STR      r0,[r4,#4]
        0x0000df84:    68e0        .h      LDR      r0,[r4,#0xc]
        0x0000df86:    f3610003    a...    BFI      r0,r1,#0,#4
        0x0000df8a:    60e0        .`      STR      r0,[r4,#0xc]
        0x0000df8c:    68a0        .h      LDR      r0,[r4,#8]
        0x0000df8e:    2106        .!      MOVS     r1,#6
        0x0000df90:    f36160de    a..`    BFI      r0,r1,#27,#4
        0x0000df94:    60a0        .`      STR      r0,[r4,#8]
        0x0000df96:    68e0        .h      LDR      r0,[r4,#0xc]
        0x0000df98:    f4400000    @...    ORR      r0,r0,#0x800000
        0x0000df9c:    60e0        .`      STR      r0,[r4,#0xc]
        0x0000df9e:    68e0        .h      LDR      r0,[r4,#0xc]
        0x0000dfa0:    f0207080     ..p    BIC      r0,r0,#0x1000000
        0x0000dfa4:    60e0        .`      STR      r0,[r4,#0xc]
        0x0000dfa6:    6860        `h      LDR      r0,[r4,#4]
        0x0000dfa8:    f0405040    @.@P    ORR      r0,r0,#0x30000000
        0x0000dfac:    6060        ``      STR      r0,[r4,#4]
        0x0000dfae:    6860        `h      LDR      r0,[r4,#4]
        0x0000dfb0:    f040001f    @...    ORR      r0,r0,#0x1f
        0x0000dfb4:    6060        ``      STR      r0,[r4,#4]
        0x0000dfb6:    f644109f    D...    MOV      r0,#0x499f
        0x0000dfba:    f2c10001    ....    MOVT     r0,#0x1001
        0x0000dfbe:    7801        .x      LDRB     r1,[r0,#0]
        0x0000dfc0:    b919        ..      CBNZ     r1,0xdfca ; am_hal_pwrctrl_low_power_init + 212
        0x0000dfc2:    2101        .!      MOVS     r1,#1
        0x0000dfc4:    7001        .p      STRB     r1,[r0,#0]
        0x0000dfc6:    f7ffff5c    ..\.    BL       am_hal_pwrctrl_bleif_workaround ; 0xde82
        0x0000dfca:    5960        `Y      LDR      r0,[r4,r5]
        0x0000dfcc:    f00000fe    ....    AND      r0,r0,#0xfe
        0x0000dfd0:    2812        .(      CMP      r0,#0x12
        0x0000dfd2:    d303        ..      BCC      0xdfdc ; am_hal_pwrctrl_low_power_init + 230
        0x0000dfd4:    68e0        .h      LDR      r0,[r4,#0xc]
        0x0000dfd6:    f0207080     ..p    BIC      r0,r0,#0x1000000
        0x0000dfda:    60e0        .`      STR      r0,[r4,#0xc]
        0x0000dfdc:    f2410500    A...    MOVW     r5,#0x1000
        0x0000dfe0:    200c        .       MOVS     r0,#0xc
        0x0000dfe2:    2100        .!      MOVS     r1,#0
        0x0000dfe4:    f2c40502    ....    MOVT     r5,#0x4002
        0x0000dfe8:    f7fefc3a    ..:.    BL       am_hal_cachectrl_control ; 0xc860
        0x0000dfec:    69a8        .i      LDR      r0,[r5,#0x18]
        0x0000dfee:    05c0        ..      LSLS     r0,r0,#23
        0x0000dff0:    d41e        ..      BMI      0xe030 ; am_hal_pwrctrl_low_power_init + 314
        0x0000dff2:    f7ffff1d    ....    BL       am_hal_pwrctrl_blebuck_trim ; 0xde30
        0x0000dff6:    f64f40c8    O..@    MOV      r0,#0xfcc8
        0x0000dffa:    f6cf70ff    ...p    MOVT     r0,#0xffff
        0x0000dffe:    5822        "X      LDR      r2,[r4,r0]
        0x0000e000:    f5a4714e    ..Nq    SUB      r1,r4,#0x338
        0x0000e004:    f0420201    B...    ORR      r2,r2,#1
        0x0000e008:    5022        "P      STR      r2,[r4,r0]
        0x0000e00a:    2401        .$      MOVS     r4,#1
        0x0000e00c:    f2427010    B..p    MOV      r0,#0x2710
        0x0000e010:    2207        ."      MOVS     r2,#7
        0x0000e012:    2307        .#      MOVS     r3,#7
        0x0000e014:    9400        ..      STR      r4,[sp,#0]
        0x0000e016:    f7feff11    ....    BL       am_hal_flash_delay_status_check ; 0xce3c
        0x0000e01a:    b108        ..      CBZ      r0,0xe020 ; am_hal_pwrctrl_low_power_init + 298
        0x0000e01c:    2004        .       MOVS     r0,#4
        0x0000e01e:    e00a        ..      B        0xe036 ; am_hal_pwrctrl_low_power_init + 320
        0x0000e020:    6828        (h      LDR      r0,[r5,#0]
        0x0000e022:    f0400001    @...    ORR      r0,r0,#1
        0x0000e026:    6028        (`      STR      r0,[r5,#0]
        0x0000e028:    6a68        hj      LDR      r0,[r5,#0x24]
        0x0000e02a:    f0400040    @.@.    ORR      r0,r0,#0x40
        0x0000e02e:    6268        hb      STR      r0,[r5,#0x24]
        0x0000e030:    f7fefbbf    ....    BL       am_hal_burst_ldo_charge ; 0xc7b2
        0x0000e034:    2000        .       MOVS     r0,#0
        0x0000e036:    b002        ..      ADD      sp,sp,#8
        0x0000e038:    bdb0        ..      POP      {r4,r5,r7,pc}
        0x0000e03a:    0000        ..      MOVS     r0,r0
    am_hal_pwrctrl_periph_disable
        0x0000e03c:    b5f0        ..      PUSH     {r4-r7,lr}
        0x0000e03e:    b081        ..      SUB      sp,sp,#4
        0x0000e040:    f2410508    A...    MOV      r5,#0x1008
        0x0000e044:    4604        .F      MOV      r4,r0
        0x0000e046:    f2c40502    ....    MOVT     r5,#0x4002
        0x0000e04a:    f7fff99b    ....    BL       am_hal_interrupt_master_disable ; 0xd384
        0x0000e04e:    f24041b4    @..A    MOV      r1,#0x4b4
        0x0000e052:    9000        ..      STR      r0,[sp,#0]
        0x0000e054:    eb040044    ..D.    ADD      r0,r4,r4,LSL #1
        0x0000e058:    f2c00101    ....    MOVT     r1,#1
        0x0000e05c:    eb010680    ....    ADD      r6,r1,r0,LSL #2
        0x0000e060:    f8564b04    V..K    LDR      r4,[r6],#4
        0x0000e064:    6828        (h      LDR      r0,[r5,#0]
        0x0000e066:    43a0        .C      BICS     r0,r0,r4
        0x0000e068:    6028        (`      STR      r0,[r5,#0]
        0x0000e06a:    9800        ..      LDR      r0,[sp,#0]
        0x0000e06c:    f7fff992    ....    BL       am_hal_interrupt_master_set ; 0xd394
        0x0000e070:    6836        6h      LDR      r6,[r6,#0]
        0x0000e072:    2700        .'      MOVS     r7,#0
        0x0000e074:    20a0        .       MOVS     r0,#0xa0
        0x0000e076:    f7fefe9b    ....    BL       am_hal_flash_delay ; 0xcdb0
        0x0000e07a:    6928        (i      LDR      r0,[r5,#0x10]
        0x0000e07c:    4206        .B      TST      r6,r0
        0x0000e07e:    d003        ..      BEQ      0xe088 ; am_hal_pwrctrl_periph_disable + 76
        0x0000e080:    2f0a        ./      CMP      r7,#0xa
        0x0000e082:    f107070a    ....    ADD      r7,r7,#0xa
        0x0000e086:    d3f5        ..      BCC      0xe074 ; am_hal_pwrctrl_periph_disable + 56
        0x0000e088:    6928        (i      LDR      r0,[r5,#0x10]
        0x0000e08a:    4206        .B      TST      r6,r0
        0x0000e08c:    d00d        ..      BEQ      0xe0aa ; am_hal_pwrctrl_periph_disable + 110
        0x0000e08e:    6829        )h      LDR      r1,[r5,#0]
        0x0000e090:    2e0f        ..      CMP      r6,#0xf
        0x0000e092:    f04f0001    O...    MOV      r0,#1
        0x0000e096:    dc0a        ..      BGT      0xe0ae ; am_hal_pwrctrl_periph_disable + 114
        0x0000e098:    2e04        ..      CMP      r6,#4
        0x0000e09a:    d015        ..      BEQ      0xe0c8 ; am_hal_pwrctrl_periph_disable + 140
        0x0000e09c:    2e08        ..      CMP      r6,#8
        0x0000e09e:    d111        ..      BNE      0xe0c4 ; am_hal_pwrctrl_periph_disable + 136
        0x0000e0a0:    f0110f0e    ....    TST      r1,#0xe
        0x0000e0a4:    d10a        ..      BNE      0xe0bc ; am_hal_pwrctrl_periph_disable + 128
        0x0000e0a6:    2001        .       MOVS     r0,#1
        0x0000e0a8:    e00c        ..      B        0xe0c4 ; am_hal_pwrctrl_periph_disable + 136
        0x0000e0aa:    2000        .       MOVS     r0,#0
        0x0000e0ac:    e00a        ..      B        0xe0c4 ; am_hal_pwrctrl_periph_disable + 136
        0x0000e0ae:    2e10        ..      CMP      r6,#0x10
        0x0000e0b0:    d00f        ..      BEQ      0xe0d2 ; am_hal_pwrctrl_periph_disable + 150
        0x0000e0b2:    2e40        @.      CMP      r6,#0x40
        0x0000e0b4:    d106        ..      BNE      0xe0c4 ; am_hal_pwrctrl_periph_disable + 136
        0x0000e0b6:    f4115f60    ..`_    TST      r1,#0x3800
        0x0000e0ba:    d0f4        ..      BEQ      0xe0a6 ; am_hal_pwrctrl_periph_disable + 106
        0x0000e0bc:    ea140001    ....    ANDS     r0,r4,r1
        0x0000e0c0:    bf18        ..      IT       NE
        0x0000e0c2:    2001        .       MOVNE    r0,#1
        0x0000e0c4:    b001        ..      ADD      sp,sp,#4
        0x0000e0c6:    bdf0        ..      POP      {r4-r7,pc}
        0x0000e0c8:    f2405081    @..P    MOV      r0,#0x581
        0x0000e0cc:    4201        .B      TST      r1,r0
        0x0000e0ce:    d1f5        ..      BNE      0xe0bc ; am_hal_pwrctrl_periph_disable + 128
        0x0000e0d0:    e7e9        ..      B        0xe0a6 ; am_hal_pwrctrl_periph_disable + 106
        0x0000e0d2:    f0110f70    ..p.    TST      r1,#0x70
        0x0000e0d6:    d1f1        ..      BNE      0xe0bc ; am_hal_pwrctrl_periph_disable + 128
        0x0000e0d8:    e7e5        ..      B        0xe0a6 ; am_hal_pwrctrl_periph_disable + 106
        0x0000e0da:    0000        ..      MOVS     r0,r0
    am_hal_pwrctrl_periph_enable
        0x0000e0dc:    b5f0        ..      PUSH     {r4-r7,lr}
        0x0000e0de:    b083        ..      SUB      sp,sp,#0xc
        0x0000e0e0:    f2410508    A...    MOV      r5,#0x1008
        0x0000e0e4:    4604        .F      MOV      r4,r0
        0x0000e0e6:    f2c40502    ....    MOVT     r5,#0x4002
        0x0000e0ea:    f7fff94b    ..K.    BL       am_hal_interrupt_master_disable ; 0xd384
        0x0000e0ee:    f24041b4    @..A    MOV      r1,#0x4b4
        0x0000e0f2:    9002        ..      STR      r0,[sp,#8]
        0x0000e0f4:    eb040044    ..D.    ADD      r0,r4,r4,LSL #1
        0x0000e0f8:    f2c00101    ....    MOVT     r1,#1
        0x0000e0fc:    eb010680    ....    ADD      r6,r1,r0,LSL #2
        0x0000e100:    f8564b04    V..K    LDR      r4,[r6],#4
        0x0000e104:    6828        (h      LDR      r0,[r5,#0]
        0x0000e106:    4320         C      ORRS     r0,r0,r4
        0x0000e108:    6028        (`      STR      r0,[r5,#0]
        0x0000e10a:    9802        ..      LDR      r0,[sp,#8]
        0x0000e10c:    f7fff942    ..B.    BL       am_hal_interrupt_master_set ; 0xd394
        0x0000e110:    6836        6h      LDR      r6,[r6,#0]
        0x0000e112:    2700        .'      MOVS     r7,#0
        0x0000e114:    20a0        .       MOVS     r0,#0xa0
        0x0000e116:    f7fefe4b    ..K.    BL       am_hal_flash_delay ; 0xcdb0
        0x0000e11a:    6928        (i      LDR      r0,[r5,#0x10]
        0x0000e11c:    4206        .B      TST      r6,r0
        0x0000e11e:    d103        ..      BNE      0xe128 ; am_hal_pwrctrl_periph_enable + 76
        0x0000e120:    2f0a        ./      CMP      r7,#0xa
        0x0000e122:    f107070a    ....    ADD      r7,r7,#0xa
        0x0000e126:    d3f5        ..      BCC      0xe114 ; am_hal_pwrctrl_periph_enable + 56
        0x0000e128:    6928        (i      LDR      r0,[r5,#0x10]
        0x0000e12a:    4206        .B      TST      r6,r0
        0x0000e12c:    d001        ..      BEQ      0xe132 ; am_hal_pwrctrl_periph_enable + 86
        0x0000e12e:    2000        .       MOVS     r0,#0
        0x0000e130:    e009        ..      B        0xe146 ; am_hal_pwrctrl_periph_enable + 106
        0x0000e132:    f7fff927    ..'.    BL       am_hal_interrupt_master_disable ; 0xd384
        0x0000e136:    9001        ..      STR      r0,[sp,#4]
        0x0000e138:    6828        (h      LDR      r0,[r5,#0]
        0x0000e13a:    43a0        .C      BICS     r0,r0,r4
        0x0000e13c:    6028        (`      STR      r0,[r5,#0]
        0x0000e13e:    9801        ..      LDR      r0,[sp,#4]
        0x0000e140:    f7fff928    ..(.    BL       am_hal_interrupt_master_set ; 0xd394
        0x0000e144:    2001        .       MOVS     r0,#1
        0x0000e146:    b003        ..      ADD      sp,sp,#0xc
        0x0000e148:    bdf0        ..      POP      {r4-r7,pc}
    am_hal_queue_init
        0x0000e14a:    f04f0c00    O...    MOV      r12,#0
        0x0000e14e:    f8c0c000    ....    STR      r12,[r0,#0]
        0x0000e152:    f8c0c004    ....    STR      r12,[r0,#4]
        0x0000e156:    f8c0c008    ....    STR      r12,[r0,#8]
        0x0000e15a:    e9c03203    ...2    STRD     r3,r2,[r0,#0xc]
        0x0000e15e:    6141        Aa      STR      r1,[r0,#0x14]
        0x0000e160:    4770        pG      BX       lr
        0x0000e162:    0000        ..      MOVS     r0,r0
    am_hal_queue_item_add
        0x0000e164:    b5f0        ..      PUSH     {r4-r7,lr}
        0x0000e166:    b081        ..      SUB      sp,sp,#4
        0x0000e168:    4604        .F      MOV      r4,r0
        0x0000e16a:    6900        .i      LDR      r0,[r0,#0x10]
        0x0000e16c:    460d        .F      MOV      r5,r1
        0x0000e16e:    fb00f702    ....    MUL      r7,r0,r2
        0x0000e172:    f7fff907    ....    BL       am_hal_interrupt_master_disable ; 0xd384
        0x0000e176:    9000        ..      STR      r0,[sp,#0]
        0x0000e178:    68e1        .h      LDR      r1,[r4,#0xc]
        0x0000e17a:    68a0        .h      LDR      r0,[r4,#8]
        0x0000e17c:    eba10c00    ....    SUB      r12,r1,r0
        0x0000e180:    45bc        .E      CMP      r12,r7
        0x0000e182:    d318        ..      BCC      0xe1b6 ; am_hal_queue_item_add + 82
        0x0000e184:    b1a7        ..      CBZ      r7,0xe1b0 ; am_hal_queue_item_add + 76
        0x0000e186:    462a        *F      MOV      r2,r5
        0x0000e188:    463b        ;F      MOV      r3,r7
        0x0000e18a:    bf00        ..      NOP      
        0x0000e18c:    b125        %.      CBZ      r5,0xe198 ; am_hal_queue_item_add + 52
        0x0000e18e:    7811        .x      LDRB     r1,[r2,#0]
        0x0000e190:    6960        `i      LDR      r0,[r4,#0x14]
        0x0000e192:    6826        &h      LDR      r6,[r4,#0]
        0x0000e194:    5581        .U      STRB     r1,[r0,r6]
        0x0000e196:    68e1        .h      LDR      r1,[r4,#0xc]
        0x0000e198:    6820         h      LDR      r0,[r4,#0]
        0x0000e19a:    3b01        .;      SUBS     r3,#1
        0x0000e19c:    f1000001    ....    ADD      r0,r0,#1
        0x0000e1a0:    fbb0f6f1    ....    UDIV     r6,r0,r1
        0x0000e1a4:    f1020201    ....    ADD      r2,r2,#1
        0x0000e1a8:    fb060011    ....    MLS      r0,r6,r1,r0
        0x0000e1ac:    6020         `      STR      r0,[r4,#0]
        0x0000e1ae:    d1ed        ..      BNE      0xe18c ; am_hal_queue_item_add + 40
        0x0000e1b0:    68a1        .h      LDR      r1,[r4,#8]
        0x0000e1b2:    4439        9D      ADD      r1,r1,r7
        0x0000e1b4:    60a1        .`      STR      r1,[r4,#8]
        0x0000e1b6:    9800        ..      LDR      r0,[sp,#0]
        0x0000e1b8:    2400        .$      MOVS     r4,#0
        0x0000e1ba:    45bc        .E      CMP      r12,r7
        0x0000e1bc:    bf28        (.      IT       CS
        0x0000e1be:    2401        .$      MOVCS    r4,#1
        0x0000e1c0:    f7fff8e8    ....    BL       am_hal_interrupt_master_set ; 0xd394
        0x0000e1c4:    4620         F      MOV      r0,r4
        0x0000e1c6:    b001        ..      ADD      sp,sp,#4
        0x0000e1c8:    bdf0        ..      POP      {r4-r7,pc}
        0x0000e1ca:    0000        ..      MOVS     r0,r0
    am_hal_queue_item_get
        0x0000e1cc:    b5f0        ..      PUSH     {r4-r7,lr}
        0x0000e1ce:    b081        ..      SUB      sp,sp,#4
        0x0000e1d0:    4604        .F      MOV      r4,r0
        0x0000e1d2:    6900        .i      LDR      r0,[r0,#0x10]
        0x0000e1d4:    460d        .F      MOV      r5,r1
        0x0000e1d6:    fb00f702    ....    MUL      r7,r0,r2
        0x0000e1da:    f7fff8d3    ....    BL       am_hal_interrupt_master_disable ; 0xd384
        0x0000e1de:    9000        ..      STR      r0,[sp,#0]
        0x0000e1e0:    f8d4c008    ....    LDR      r12,[r4,#8]
        0x0000e1e4:    45bc        .E      CMP      r12,r7
        0x0000e1e6:    d317        ..      BCC      0xe218 ; am_hal_queue_item_get + 76
        0x0000e1e8:    b19f        ..      CBZ      r7,0xe212 ; am_hal_queue_item_get + 70
        0x0000e1ea:    4629        )F      MOV      r1,r5
        0x0000e1ec:    463a        :F      MOV      r2,r7
        0x0000e1ee:    bf00        ..      NOP      
        0x0000e1f0:    b11d        ..      CBZ      r5,0xe1fa ; am_hal_queue_item_get + 46
        0x0000e1f2:    6863        ch      LDR      r3,[r4,#4]
        0x0000e1f4:    6960        `i      LDR      r0,[r4,#0x14]
        0x0000e1f6:    5cc0        .\      LDRB     r0,[r0,r3]
        0x0000e1f8:    7008        .p      STRB     r0,[r1,#0]
        0x0000e1fa:    6860        `h      LDR      r0,[r4,#4]
        0x0000e1fc:    68e3        .h      LDR      r3,[r4,#0xc]
        0x0000e1fe:    3001        .0      ADDS     r0,#1
        0x0000e200:    fbb0f6f3    ....    UDIV     r6,r0,r3
        0x0000e204:    3a01        .:      SUBS     r2,#1
        0x0000e206:    fb060013    ....    MLS      r0,r6,r3,r0
        0x0000e20a:    f1010101    ....    ADD      r1,r1,#1
        0x0000e20e:    6060        ``      STR      r0,[r4,#4]
        0x0000e210:    d1ee        ..      BNE      0xe1f0 ; am_hal_queue_item_get + 36
        0x0000e212:    68a1        .h      LDR      r1,[r4,#8]
        0x0000e214:    1bc9        ..      SUBS     r1,r1,r7
        0x0000e216:    60a1        .`      STR      r1,[r4,#8]
        0x0000e218:    9800        ..      LDR      r0,[sp,#0]
        0x0000e21a:    2400        .$      MOVS     r4,#0
        0x0000e21c:    45bc        .E      CMP      r12,r7
        0x0000e21e:    bf28        (.      IT       CS
        0x0000e220:    2401        .$      MOVCS    r4,#1
        0x0000e222:    f7fff8b7    ....    BL       am_hal_interrupt_master_set ; 0xd394
        0x0000e226:    4620         F      MOV      r0,r4
        0x0000e228:    b001        ..      ADD      sp,sp,#4
        0x0000e22a:    bdf0        ..      POP      {r4-r7,pc}
    am_hal_rtc_osc_disable
        0x0000e22c:    f2442050    D.P     MOV      r0,#0x4250
        0x0000e230:    f2c40000    ....    MOVT     r0,#0x4000
        0x0000e234:    6801        .h      LDR      r1,[r0,#0]
        0x0000e236:    f0410110    A...    ORR      r1,r1,#0x10
        0x0000e23a:    6001        .`      STR      r1,[r0,#0]
        0x0000e23c:    4770        pG      BX       lr
    am_hal_tpiu_enable
        0x0000e23e:    b570        p.      PUSH     {r4-r6,lr}
        0x0000e240:    b084        ..      SUB      sp,sp,#0x10
        0x0000e242:    6806        .h      LDR      r6,[r0,#0]
        0x0000e244:    f6407400    @..t    MOVW     r4,#0xf00
        0x0000e248:    2504        .%      MOVS     r5,#4
        0x0000e24a:    f2ce0404    ....    MOVT     r4,#0xe004
        0x0000e24e:    f2ce0504    ....    MOVT     r5,#0xe004
        0x0000e252:    2200        ."      MOVS     r2,#0
        0x0000e254:    f8c52300    ...#    STR      r2,[r5,#0x300]
        0x0000e258:    b1ce        ..      CBZ      r6,0xe28e ; am_hal_tpiu_enable + 80
        0x0000e25a:    2001        .       MOVS     r0,#1
        0x0000e25c:    6028        (`      STR      r0,[r5,#0]
        0x0000e25e:    a801        ..      ADD      r0,sp,#4
        0x0000e260:    f7fefc50    ..P.    BL       am_hal_clkgen_status_get ; 0xcb04
        0x0000e264:    9801        ..      LDR      r0,[sp,#4]
        0x0000e266:    1c41        A.      ADDS     r1,r0,#1
        0x0000e268:    d01f        ..      BEQ      0xe2aa ; am_hal_tpiu_enable + 108
        0x0000e26a:    f24a3280    J..2    MOV      r2,#0xa380
        0x0000e26e:    f5a64161    ..aA    SUB      r1,r6,#0xe100
        0x0000e272:    f2c0021d    ....    MOVT     r2,#0x1d
        0x0000e276:    08c0        ..      LSRS     r0,r0,#3
        0x0000e278:    4291        .B      CMP      r1,r2
        0x0000e27a:    bf84        ..      ITT      HI
        0x0000e27c:    f2442640    D.@&    MOVHI    r6,#0x4240
        0x0000e280:    f2c0060f    ....    MOVTHI   r6,#0xf
        0x0000e284:    fbb0f0f6    ....    UDIV     r0,r0,r6
        0x0000e288:    3801        .8      SUBS     r0,#1
        0x0000e28a:    b280        ..      UXTH     r0,r0
        0x0000e28c:    e00e        ..      B        0xe2ac ; am_hal_tpiu_enable + 110
        0x0000e28e:    e9d01301    ....    LDRD     r1,r3,[r0,#4]
        0x0000e292:    e9d00603    ....    LDRD     r0,r6,[r0,#0xc]
        0x0000e296:    60ee        .`      STR      r6,[r5,#0xc]
        0x0000e298:    f8c530ec    ...0    STR      r3,[r5,#0xec]
        0x0000e29c:    3801        .8      SUBS     r0,#1
        0x0000e29e:    2301        .#      MOVS     r3,#1
        0x0000e2a0:    fa03f000    ....    LSL      r0,r3,r0
        0x0000e2a4:    6028        (`      STR      r0,[r5,#0]
        0x0000e2a6:    6022        "`      STR      r2,[r4,#0]
        0x0000e2a8:    e008        ..      B        0xe2bc ; am_hal_tpiu_enable + 126
        0x0000e2aa:    2005        .       MOVS     r0,#5
        0x0000e2ac:    60e8        .`      STR      r0,[r5,#0xc]
        0x0000e2ae:    2002        .       MOVS     r0,#2
        0x0000e2b0:    f8c500ec    ....    STR      r0,[r5,#0xec]
        0x0000e2b4:    2000        .       MOVS     r0,#0
        0x0000e2b6:    6020         `      STR      r0,[r4,#0]
        0x0000e2b8:    f2402101    @..!    MOV      r1,#0x201
        0x0000e2bc:    f2402050    @.P     MOVW     r0,#0x250
        0x0000e2c0:    f2c40002    ....    MOVT     r0,#0x4002
        0x0000e2c4:    6001        .`      STR      r1,[r0,#0]
        0x0000e2c6:    f44f7048    O.Hp    MOV      r0,#0x320
        0x0000e2ca:    f7fefd71    ..q.    BL       am_hal_flash_delay ; 0xcdb0
        0x0000e2ce:    b004        ..      ADD      sp,sp,#0x10
        0x0000e2d0:    bd70        p.      POP      {r4-r6,pc}
        0x0000e2d2:    0000        ..      MOVS     r0,r0
    am_hal_uart_configure
        0x0000e2d4:    e92d4ff0    -..O    PUSH     {r4-r11,lr}
        0x0000e2d8:    b083        ..      SUB      sp,sp,#0xc
        0x0000e2da:    4604        .F      MOV      r4,r0
        0x0000e2dc:    6800        .h      LDR      r0,[r0,#0]
        0x0000e2de:    f6496b06    I..k    MOV      r11,#0x9e06
        0x0000e2e2:    f2c01bea    ....    MOVT     r11,#0x1ea
        0x0000e2e6:    f020407e     .~@    BIC      r0,r0,#0xfe000000
        0x0000e2ea:    4558        XE      CMP      r0,r11
        0x0000e2ec:    d10e        ..      BNE      0xe30c ; am_hal_uart_configure + 56
        0x0000e2ee:    6a60        `j      LDR      r0,[r4,#0x24]
        0x0000e2f0:    f24c0a00    L...    MOVW     r10,#0xc000
        0x0000e2f4:    f2c40a01    ....    MOVT     r10,#0x4001
        0x0000e2f8:    eb0a3600    ...6    ADD      r6,r10,r0,LSL #12
        0x0000e2fc:    2000        .       MOVS     r0,#0
        0x0000e2fe:    6330        0c      STR      r0,[r6,#0x30]
        0x0000e300:    f8947064    ..dp    LDRB     r7,[r4,#0x64]
        0x0000e304:    2f05        ./      CMP      r7,#5
        0x0000e306:    d905        ..      BLS      0xe314 ; am_hal_uart_configure + 64
        0x0000e308:    2006        .       MOVS     r0,#6
        0x0000e30a:    e000        ..      B        0xe30e ; am_hal_uart_configure + 58
        0x0000e30c:    2002        .       MOVS     r0,#2
        0x0000e30e:    b003        ..      ADD      sp,sp,#0xc
        0x0000e310:    e8bd8ff0    ....    POP      {r4-r11,pc}
        0x0000e314:    f2400802    @...    MOVW     r8,#2
        0x0000e318:    460d        .F      MOV      r5,r1
        0x0000e31a:    f6c00800    ....    MOVT     r8,#0x800
        0x0000e31e:    f7fff831    ..1.    BL       am_hal_interrupt_master_disable ; 0xd384
        0x0000e322:    9002        ..      STR      r0,[sp,#8]
        0x0000e324:    6b30        0k      LDR      r0,[r6,#0x30]
        0x0000e326:    2170        p!      MOVS     r1,#0x70
        0x0000e328:    f0400008    @...    ORR      r0,r0,#8
        0x0000e32c:    6330        0c      STR      r0,[r6,#0x30]
        0x0000e32e:    6b30        0k      LDR      r0,[r6,#0x30]
        0x0000e330:    eb011107    ....    ADD      r1,r1,r7,LSL #4
        0x0000e334:    f0010170    ..p.    AND      r1,r1,#0x70
        0x0000e338:    f0200070     .p.    BIC      r0,r0,#0x70
        0x0000e33c:    2f00        ./      CMP      r7,#0
        0x0000e33e:    bf08        ..      IT       EQ
        0x0000e340:    2110        .!      MOVEQ    r1,#0x10
        0x0000e342:    4408        .D      ADD      r0,r0,r1
        0x0000e344:    6330        0c      STR      r0,[r6,#0x30]
        0x0000e346:    9802        ..      LDR      r0,[sp,#8]
        0x0000e348:    f7fff824    ..$.    BL       am_hal_interrupt_master_set ; 0xd394
        0x0000e34c:    f7fff81a    ....    BL       am_hal_interrupt_master_disable ; 0xd384
        0x0000e350:    9001        ..      STR      r0,[sp,#4]
        0x0000e352:    6b30        0k      LDR      r0,[r6,#0x30]
        0x0000e354:    f0200001     ...    BIC      r0,r0,#1
        0x0000e358:    6330        0c      STR      r0,[r6,#0x30]
        0x0000e35a:    6b30        0k      LDR      r0,[r6,#0x30]
        0x0000e35c:    f4207000     ..p    BIC      r0,r0,#0x200
        0x0000e360:    6330        0c      STR      r0,[r6,#0x30]
        0x0000e362:    6b30        0k      LDR      r0,[r6,#0x30]
        0x0000e364:    f4207080     ..p    BIC      r0,r0,#0x100
        0x0000e368:    6330        0c      STR      r0,[r6,#0x30]
        0x0000e36a:    9801        ..      LDR      r0,[sp,#4]
        0x0000e36c:    f7fff812    ....    BL       am_hal_interrupt_master_set ; 0xd394
        0x0000e370:    6829        )h      LDR      r1,[r5,#0]
        0x0000e372:    f1080001    ....    ADD      r0,r8,#1
        0x0000e376:    f5b12f61    ..a/    CMP      r1,#0xe1000
        0x0000e37a:    d8c8        ..      BHI      0xe30e ; am_hal_uart_configure + 58
        0x0000e37c:    6b32        2k      LDR      r2,[r6,#0x30]
        0x0000e37e:    f3c21202    ....    UBFX     r2,r2,#4,#3
        0x0000e382:    3a01        .:      SUBS     r2,#1
        0x0000e384:    2a04        .*      CMP      r2,#4
        0x0000e386:    d208        ..      BCS      0xe39a ; am_hal_uart_configure + 198
        0x0000e388:    a34d        M.      ADR      r3,{pc}+0x138 ; 0xe4c0
        0x0000e38a:    f8532022    S."     LDR      r2,[r3,r2,LSL #2]
        0x0000e38e:    ebb21f01    ....    CMP      r2,r1,LSL #4
        0x0000e392:    d206        ..      BCS      0xe3a2 ; am_hal_uart_configure + 206
        0x0000e394:    2100        .!      MOVS     r1,#0
        0x0000e396:    6621        !f      STR      r1,[r4,#0x60]
        0x0000e398:    e7b9        ..      B        0xe30e ; am_hal_uart_configure + 58
        0x0000e39a:    2000        .       MOVS     r0,#0
        0x0000e39c:    6620         f      STR      r0,[r4,#0x60]
        0x0000e39e:    4640        @F      MOV      r0,r8
        0x0000e3a0:    e7b5        ..      B        0xe30e ; am_hal_uart_configure + 58
        0x0000e3a2:    0108        ..      LSLS     r0,r1,#4
        0x0000e3a4:    0193        ..      LSLS     r3,r2,#6
        0x0000e3a6:    fbb2f1f0    ....    UDIV     r1,r2,r0
        0x0000e3aa:    fbb3f0f0    ....    UDIV     r0,r3,r0
        0x0000e3ae:    6271        qb      STR      r1,[r6,#0x24]
        0x0000e3b0:    eba01081    ....    SUB      r0,r0,r1,LSL #6
        0x0000e3b4:    0883        ..      LSRS     r3,r0,#2
        0x0000e3b6:    6271        qb      STR      r1,[r6,#0x24]
        0x0000e3b8:    eb031101    ....    ADD      r1,r3,r1,LSL #4
        0x0000e3bc:    fbb2f1f1    ....    UDIV     r1,r2,r1
        0x0000e3c0:    62b0        .b      STR      r0,[r6,#0x28]
        0x0000e3c2:    6621        !f      STR      r1,[r4,#0x60]
        0x0000e3c4:    6b30        0k      LDR      r0,[r6,#0x30]
        0x0000e3c6:    1d2a        *.      ADDS     r2,r5,#4
        0x0000e3c8:    f4204080     ..@    BIC      r0,r0,#0x4000
        0x0000e3cc:    6330        0c      STR      r0,[r6,#0x30]
        0x0000e3ce:    6b30        0k      LDR      r0,[r6,#0x30]
        0x0000e3d0:    f4204000     ..@    BIC      r0,r0,#0x8000
        0x0000e3d4:    6330        0c      STR      r0,[r6,#0x30]
        0x0000e3d6:    6928        (i      LDR      r0,[r5,#0x10]
        0x0000e3d8:    6b31        1k      LDR      r1,[r6,#0x30]
        0x0000e3da:    4308        .C      ORRS     r0,r0,r1
        0x0000e3dc:    6330        0c      STR      r0,[r6,#0x30]
        0x0000e3de:    6968        hi      LDR      r0,[r5,#0x14]
        0x0000e3e0:    6370        pc      STR      r0,[r6,#0x34]
        0x0000e3e2:    ca07        ..      LDM      r2,{r0-r2}
        0x0000e3e4:    4308        .C      ORRS     r0,r0,r1
        0x0000e3e6:    4310        .C      ORRS     r0,r0,r2
        0x0000e3e8:    f0400010    @...    ORR      r0,r0,#0x10
        0x0000e3ec:    62f0        .b      STR      r0,[r6,#0x2c]
        0x0000e3ee:    f7feffc9    ....    BL       am_hal_interrupt_master_disable ; 0xd384
        0x0000e3f2:    9000        ..      STR      r0,[sp,#0]
        0x0000e3f4:    6b30        0k      LDR      r0,[r6,#0x30]
        0x0000e3f6:    f0400001    @...    ORR      r0,r0,#1
        0x0000e3fa:    6330        0c      STR      r0,[r6,#0x30]
        0x0000e3fc:    6b30        0k      LDR      r0,[r6,#0x30]
        0x0000e3fe:    f4407000    @..p    ORR      r0,r0,#0x200
        0x0000e402:    6330        0c      STR      r0,[r6,#0x30]
        0x0000e404:    6b30        0k      LDR      r0,[r6,#0x30]
        0x0000e406:    f4407080    @..p    ORR      r0,r0,#0x100
        0x0000e40a:    6330        0c      STR      r0,[r6,#0x30]
        0x0000e40c:    9800        ..      LDR      r0,[sp,#0]
        0x0000e40e:    f7feffc1    ....    BL       am_hal_interrupt_master_set ; 0xd394
        0x0000e412:    6820         h      LDR      r0,[r4,#0]
        0x0000e414:    f020407e     .~@    BIC      r0,r0,#0xfe000000
        0x0000e418:    4558        XE      CMP      r0,r11
        0x0000e41a:    d14f        O.      BNE      0xe4bc ; am_hal_uart_configure + 488
        0x0000e41c:    69a9        .i      LDR      r1,[r5,#0x18]
        0x0000e41e:    e9d59808    ....    LDRD     r9,r8,[r5,#0x20]
        0x0000e422:    b1a9        ..      CBZ      r1,0xe450 ; am_hal_uart_configure + 380
        0x0000e424:    69eb        .i      LDR      r3,[r5,#0x1c]
        0x0000e426:    b19b        ..      CBZ      r3,0xe450 ; am_hal_uart_configure + 380
        0x0000e428:    2001        .       MOVS     r0,#1
        0x0000e42a:    f8840028    ..(.    STRB     r0,[r4,#0x28]
        0x0000e42e:    f104002c    ..,.    ADD      r0,r4,#0x2c
        0x0000e432:    2201        ."      MOVS     r2,#1
        0x0000e434:    f7fffe89    ....    BL       am_hal_queue_init ; 0xe14a
        0x0000e438:    6820         h      LDR      r0,[r4,#0]
        0x0000e43a:    f020407e     .~@    BIC      r0,r0,#0xfe000000
        0x0000e43e:    4558        XE      CMP      r0,r11
        0x0000e440:    d13c        <.      BNE      0xe4bc ; am_hal_uart_configure + 488
        0x0000e442:    6a60        `j      LDR      r0,[r4,#0x24]
        0x0000e444:    eb0a3000    ...0    ADD      r0,r10,r0,LSL #12
        0x0000e448:    6b81        .k      LDR      r1,[r0,#0x38]
        0x0000e44a:    f0410120    A. .    ORR      r1,r1,#0x20
        0x0000e44e:    e008        ..      B        0xe462 ; am_hal_uart_configure + 398
        0x0000e450:    6a61        aj      LDR      r1,[r4,#0x24]
        0x0000e452:    2000        .       MOVS     r0,#0
        0x0000e454:    f8840028    ..(.    STRB     r0,[r4,#0x28]
        0x0000e458:    eb0a3001    ...0    ADD      r0,r10,r1,LSL #12
        0x0000e45c:    6b81        .k      LDR      r1,[r0,#0x38]
        0x0000e45e:    f0210120    !. .    BIC      r1,r1,#0x20
        0x0000e462:    f1b90f00    ....    CMP      r9,#0
        0x0000e466:    6381        .c      STR      r1,[r0,#0x38]
        0x0000e468:    bf18        ..      IT       NE
        0x0000e46a:    f1b80f00    ....    CMPNE    r8,#0
        0x0000e46e:    d10f        ..      BNE      0xe490 ; am_hal_uart_configure + 444
        0x0000e470:    6821        !h      LDR      r1,[r4,#0]
        0x0000e472:    2000        .       MOVS     r0,#0
        0x0000e474:    f021417e    !.~A    BIC      r1,r1,#0xfe000000
        0x0000e478:    4559        YE      CMP      r1,r11
        0x0000e47a:    f8840044    ..D.    STRB     r0,[r4,#0x44]
        0x0000e47e:    f47faf46    ..F.    BNE      0xe30e ; am_hal_uart_configure + 58
        0x0000e482:    6a60        `j      LDR      r0,[r4,#0x24]
        0x0000e484:    eb0a3000    ...0    ADD      r0,r10,r0,LSL #12
        0x0000e488:    6b81        .k      LDR      r1,[r0,#0x38]
        0x0000e48a:    f0210150    !.P.    BIC      r1,r1,#0x50
        0x0000e48e:    e014        ..      B        0xe4ba ; am_hal_uart_configure + 486
        0x0000e490:    2001        .       MOVS     r0,#1
        0x0000e492:    f8840044    ..D.    STRB     r0,[r4,#0x44]
        0x0000e496:    f1040048    ..H.    ADD      r0,r4,#0x48
        0x0000e49a:    4649        IF      MOV      r1,r9
        0x0000e49c:    2201        ."      MOVS     r2,#1
        0x0000e49e:    4643        CF      MOV      r3,r8
        0x0000e4a0:    f7fffe53    ..S.    BL       am_hal_queue_init ; 0xe14a
        0x0000e4a4:    6820         h      LDR      r0,[r4,#0]
        0x0000e4a6:    f020407e     .~@    BIC      r0,r0,#0xfe000000
        0x0000e4aa:    4558        XE      CMP      r0,r11
        0x0000e4ac:    d106        ..      BNE      0xe4bc ; am_hal_uart_configure + 488
        0x0000e4ae:    6a60        `j      LDR      r0,[r4,#0x24]
        0x0000e4b0:    eb0a3000    ...0    ADD      r0,r10,r0,LSL #12
        0x0000e4b4:    6b81        .k      LDR      r1,[r0,#0x38]
        0x0000e4b6:    f0410150    A.P.    ORR      r1,r1,#0x50
        0x0000e4ba:    6381        .c      STR      r1,[r0,#0x38]
        0x0000e4bc:    2000        .       MOVS     r0,#0
        0x0000e4be:    e726        &.      B        0xe30e ; am_hal_uart_configure + 58
    $d.5
        0x0000e4c0:    016e3600    .6n.    DCD    24000000
        0x0000e4c4:    00b71b00    ....    DCD    12000000
        0x0000e4c8:    005b8d80    ..[.    DCD    6000000
        0x0000e4cc:    002dc6c0    ..-.    DCD    3000000
    $t.0
    am_hal_uart_initialize
        0x0000e4d0:    b580        ..      PUSH     {r7,lr}
        0x0000e4d2:    2801        .(      CMP      r0,#1
        0x0000e4d4:    bf84        ..      ITT      HI
        0x0000e4d6:    2005        .       MOVHI    r0,#5
        0x0000e4d8:    bd80        ..      POPHI    {r7,pc}
        0x0000e4da:    b309        ..      CBZ      r1,0xe520 ; am_hal_uart_initialize + 80
        0x0000e4dc:    f6440ccc    D...    MOV      r12,#0x48cc
        0x0000e4e0:    f04f0e68    O.h.    MOV      lr,#0x68
        0x0000e4e4:    f2c10c01    ....    MOVT     r12,#0x1001
        0x0000e4e8:    fb00f20e    ....    MUL      r2,r0,lr
        0x0000e4ec:    f85c2002    \..     LDR      r2,[r12,r2]
        0x0000e4f0:    01d3        ..      LSLS     r3,r2,#7
        0x0000e4f2:    bf44        D.      ITT      MI
        0x0000e4f4:    2007        .       MOVMI    r0,#7
        0x0000e4f6:    bd80        ..      POPMI    {r7,pc}
        0x0000e4f8:    fb00cc0e    ....    MLA      r12,r0,lr,r12
        0x0000e4fc:    f6496306    I..c    MOV      r3,#0x9e06
        0x0000e500:    f2c013ea    ....    MOVT     r3,#0x1ea
        0x0000e504:    f3630218    c...    BFI      r2,r3,#0,#25
        0x0000e508:    f8cc0024    ..$.    STR      r0,[r12,#0x24]
        0x0000e50c:    2000        .       MOVS     r0,#0
        0x0000e50e:    f8cc2000    ...     STR      r2,[r12,#0]
        0x0000e512:    f88c0004    ....    STRB     r0,[r12,#4]
        0x0000e516:    f8cc0060    ..`.    STR      r0,[r12,#0x60]
        0x0000e51a:    f8c1c000    ....    STR      r12,[r1,#0]
        0x0000e51e:    bd80        ..      POP      {r7,pc}
        0x0000e520:    2006        .       MOVS     r0,#6
        0x0000e522:    bd80        ..      POP      {r7,pc}
    am_hal_uart_interrupt_clear
        0x0000e524:    6802        .h      LDR      r2,[r0,#0]
        0x0000e526:    f6496306    I..c    MOV      r3,#0x9e06
        0x0000e52a:    f022427e    ".~B    BIC      r2,r2,#0xfe000000
        0x0000e52e:    f2c013ea    ....    MOVT     r3,#0x1ea
        0x0000e532:    429a        .B      CMP      r2,r3
        0x0000e534:    bf1c        ..      ITT      NE
        0x0000e536:    2002        .       MOVNE    r0,#2
        0x0000e538:    4770        pG      BXNE     lr
        0x0000e53a:    6a40        @j      LDR      r0,[r0,#0x24]
        0x0000e53c:    f24c0244    L.D.    MOV      r2,#0xc044
        0x0000e540:    0300        ..      LSLS     r0,r0,#12
        0x0000e542:    f2c40201    ....    MOVT     r2,#0x4001
        0x0000e546:    5011        .P      STR      r1,[r2,r0]
        0x0000e548:    2000        .       MOVS     r0,#0
        0x0000e54a:    4770        pG      BX       lr
    am_hal_uart_interrupt_enable
        0x0000e54c:    6802        .h      LDR      r2,[r0,#0]
        0x0000e54e:    f6496306    I..c    MOV      r3,#0x9e06
        0x0000e552:    f022427e    ".~B    BIC      r2,r2,#0xfe000000
        0x0000e556:    f2c013ea    ....    MOVT     r3,#0x1ea
        0x0000e55a:    429a        .B      CMP      r2,r3
        0x0000e55c:    bf1c        ..      ITT      NE
        0x0000e55e:    2002        .       MOVNE    r0,#2
        0x0000e560:    4770        pG      BXNE     lr
        0x0000e562:    6a40        @j      LDR      r0,[r0,#0x24]
        0x0000e564:    f24c0238    L.8.    MOV      r2,#0xc038
        0x0000e568:    0300        ..      LSLS     r0,r0,#12
        0x0000e56a:    f2c40201    ....    MOVT     r2,#0x4001
        0x0000e56e:    5813        .X      LDR      r3,[r2,r0]
        0x0000e570:    4319        .C      ORRS     r1,r1,r3
        0x0000e572:    5011        .P      STR      r1,[r2,r0]
        0x0000e574:    2000        .       MOVS     r0,#0
        0x0000e576:    4770        pG      BX       lr
    am_hal_uart_interrupt_service
        0x0000e578:    b5f0        ..      PUSH     {r4-r7,lr}
        0x0000e57a:    b081        ..      SUB      sp,sp,#4
        0x0000e57c:    4605        .F      MOV      r5,r0
        0x0000e57e:    6800        .h      LDR      r0,[r0,#0]
        0x0000e580:    4614        .F      MOV      r4,r2
        0x0000e582:    f6496206    I..b    MOV      r2,#0x9e06
        0x0000e586:    f020407e     .~@    BIC      r0,r0,#0xfe000000
        0x0000e58a:    f2c012ea    ....    MOVT     r2,#0x1ea
        0x0000e58e:    4290        .B      CMP      r0,r2
        0x0000e590:    d123        #.      BNE      0xe5da ; am_hal_uart_interrupt_service + 98
        0x0000e592:    6a6f        oj      LDR      r7,[r5,#0x24]
        0x0000e594:    460e        .F      MOV      r6,r1
        0x0000e596:    f0110f50    ..P.    TST      r1,#0x50
        0x0000e59a:    d006        ..      BEQ      0xe5aa ; am_hal_uart_interrupt_service + 50
        0x0000e59c:    f8950044    ..D.    LDRB     r0,[r5,#0x44]
        0x0000e5a0:    b118        ..      CBZ      r0,0xe5aa ; am_hal_uart_interrupt_service + 50
        0x0000e5a2:    4628        (F      MOV      r0,r5
        0x0000e5a4:    f001fc0c    ....    BL       rx_queue_update ; 0xfdc0
        0x0000e5a8:    bb28        (.      CBNZ     r0,0xe5f6 ; am_hal_uart_interrupt_service + 126
        0x0000e5aa:    06b0        ..      LSLS     r0,r6,#26
        0x0000e5ac:    d505        ..      BPL      0xe5ba ; am_hal_uart_interrupt_service + 66
        0x0000e5ae:    f8950028    ..(.    LDRB     r0,[r5,#0x28]
        0x0000e5b2:    b110        ..      CBZ      r0,0xe5ba ; am_hal_uart_interrupt_service + 66
        0x0000e5b4:    4628        (F      MOV      r0,r5
        0x0000e5b6:    f001fd49    ..I.    BL       tx_queue_update ; 0x1004c
        0x0000e5ba:    b1dc        ..      CBZ      r4,0xe5f4 ; am_hal_uart_interrupt_service + 124
        0x0000e5bc:    f8950028    ..(.    LDRB     r0,[r5,#0x28]
        0x0000e5c0:    b168        h.      CBZ      r0,0xe5de ; am_hal_uart_interrupt_service + 102
        0x0000e5c2:    6b68        hk      LDR      r0,[r5,#0x34]
        0x0000e5c4:    b9b0        ..      CBNZ     r0,0xe5f4 ; am_hal_uart_interrupt_service + 124
        0x0000e5c6:    f24c0000    L...    MOVW     r0,#0xc000
        0x0000e5ca:    f2c40001    ....    MOVT     r0,#0x4001
        0x0000e5ce:    eb003007    ...0    ADD      r0,r0,r7,LSL #12
        0x0000e5d2:    6980        .i      LDR      r0,[r0,#0x18]
        0x0000e5d4:    0700        ..      LSLS     r0,r0,#28
        0x0000e5d6:    d50b        ..      BPL      0xe5f0 ; am_hal_uart_interrupt_service + 120
        0x0000e5d8:    e00c        ..      B        0xe5f4 ; am_hal_uart_interrupt_service + 124
        0x0000e5da:    2002        .       MOVS     r0,#2
        0x0000e5dc:    e00b        ..      B        0xe5f6 ; am_hal_uart_interrupt_service + 126
        0x0000e5de:    f24c0000    L...    MOVW     r0,#0xc000
        0x0000e5e2:    f2c40001    ....    MOVT     r0,#0x4001
        0x0000e5e6:    eb003007    ...0    ADD      r0,r0,r7,LSL #12
        0x0000e5ea:    6980        .i      LDR      r0,[r0,#0x18]
        0x0000e5ec:    0700        ..      LSLS     r0,r0,#28
        0x0000e5ee:    d404        ..      BMI      0xe5fa ; am_hal_uart_interrupt_service + 130
        0x0000e5f0:    2001        .       MOVS     r0,#1
        0x0000e5f2:    6020         `      STR      r0,[r4,#0]
        0x0000e5f4:    2000        .       MOVS     r0,#0
        0x0000e5f6:    b001        ..      ADD      sp,sp,#4
        0x0000e5f8:    bdf0        ..      POP      {r4-r7,pc}
        0x0000e5fa:    2000        .       MOVS     r0,#0
        0x0000e5fc:    6020         `      STR      r0,[r4,#0]
        0x0000e5fe:    e7fa        ..      B        0xe5f6 ; am_hal_uart_interrupt_service + 126
    am_hal_uart_interrupt_status_get
        0x0000e600:    6803        .h      LDR      r3,[r0,#0]
        0x0000e602:    f0234c7e    #.~L    BIC      r12,r3,#0xfe000000
        0x0000e606:    f6496306    I..c    MOV      r3,#0x9e06
        0x0000e60a:    f2c013ea    ....    MOVT     r3,#0x1ea
        0x0000e60e:    459c        .E      CMP      r12,r3
        0x0000e610:    bf1c        ..      ITT      NE
        0x0000e612:    2002        .       MOVNE    r0,#2
        0x0000e614:    4770        pG      BXNE     lr
        0x0000e616:    6a40        @j      LDR      r0,[r0,#0x24]
        0x0000e618:    233c        <#      MOVS     r3,#0x3c
        0x0000e61a:    2a00        .*      CMP      r2,#0
        0x0000e61c:    f24c0200    L...    MOVW     r2,#0xc000
        0x0000e620:    bf18        ..      IT       NE
        0x0000e622:    2340        @#      MOVNE    r3,#0x40
        0x0000e624:    ea433000    C..0    ORR      r0,r3,r0,LSL #12
        0x0000e628:    f2c40201    ....    MOVT     r2,#0x4001
        0x0000e62c:    5880        .X      LDR      r0,[r0,r2]
        0x0000e62e:    6008        .`      STR      r0,[r1,#0]
        0x0000e630:    2000        .       MOVS     r0,#0
        0x0000e632:    4770        pG      BX       lr
    am_hal_uart_power_control
        0x0000e634:    e92d41f0    -..A    PUSH     {r4-r8,lr}
        0x0000e638:    b082        ..      SUB      sp,sp,#8
        0x0000e63a:    4604        .F      MOV      r4,r0
        0x0000e63c:    6800        .h      LDR      r0,[r0,#0]
        0x0000e63e:    f6496706    I..g    MOV      r7,#0x9e06
        0x0000e642:    f2c017ea    ....    MOVT     r7,#0x1ea
        0x0000e646:    f020437e     .~C    BIC      r3,r0,#0xfe000000
        0x0000e64a:    42bb        .B      CMP      r3,r7
        0x0000e64c:    d135        5.      BNE      0xe6ba ; am_hal_uart_power_control + 134
        0x0000e64e:    6a65        ej      LDR      r5,[r4,#0x24]
        0x0000e650:    1e4b        K.      SUBS     r3,r1,#1
        0x0000e652:    2b02        .+      CMP      r3,#2
        0x0000e654:    f1050608    ....    ADD      r6,r5,#8
        0x0000e658:    d234        4.      BCS      0xe6c4 ; am_hal_uart_power_control + 144
        0x0000e65a:    f24c0800    L...    MOVW     r8,#0xc000
        0x0000e65e:    f2c40801    ....    MOVT     r8,#0x4001
        0x0000e662:    b1c2        ..      CBZ      r2,0xe696 ; am_hal_uart_power_control + 98
        0x0000e664:    f7fefe8e    ....    BL       am_hal_interrupt_master_disable ; 0xd384
        0x0000e668:    9000        ..      STR      r0,[sp,#0]
        0x0000e66a:    eb083005    ...0    ADD      r0,r8,r5,LSL #12
        0x0000e66e:    6a01        .j      LDR      r1,[r0,#0x20]
        0x0000e670:    60a1        .`      STR      r1,[r4,#8]
        0x0000e672:    6a41        Aj      LDR      r1,[r0,#0x24]
        0x0000e674:    60e1        .`      STR      r1,[r4,#0xc]
        0x0000e676:    6a81        .j      LDR      r1,[r0,#0x28]
        0x0000e678:    6121        !a      STR      r1,[r4,#0x10]
        0x0000e67a:    6ac1        .j      LDR      r1,[r0,#0x2c]
        0x0000e67c:    6161        aa      STR      r1,[r4,#0x14]
        0x0000e67e:    6b01        .k      LDR      r1,[r0,#0x30]
        0x0000e680:    61a1        .a      STR      r1,[r4,#0x18]
        0x0000e682:    6b41        Ak      LDR      r1,[r0,#0x34]
        0x0000e684:    61e1        .a      STR      r1,[r4,#0x1c]
        0x0000e686:    6b80        .k      LDR      r0,[r0,#0x38]
        0x0000e688:    6220         b      STR      r0,[r4,#0x20]
        0x0000e68a:    2001        .       MOVS     r0,#1
        0x0000e68c:    7120         q      STRB     r0,[r4,#4]
        0x0000e68e:    9800        ..      LDR      r0,[sp,#0]
        0x0000e690:    f7fefe80    ....    BL       am_hal_interrupt_master_set ; 0xd394
        0x0000e694:    6820         h      LDR      r0,[r4,#0]
        0x0000e696:    f020407e     .~@    BIC      r0,r0,#0xfe000000
        0x0000e69a:    42b8        .B      CMP      r0,r7
        0x0000e69c:    d105        ..      BNE      0xe6aa ; am_hal_uart_power_control + 118
        0x0000e69e:    6a60        `j      LDR      r0,[r4,#0x24]
        0x0000e6a0:    f04f31ff    O..1    MOV      r1,#0xffffffff
        0x0000e6a4:    eb083000    ...0    ADD      r0,r8,r0,LSL #12
        0x0000e6a8:    6441        Ad      STR      r1,[r0,#0x44]
        0x0000e6aa:    eb083005    ...0    ADD      r0,r8,r5,LSL #12
        0x0000e6ae:    2500        .%      MOVS     r5,#0
        0x0000e6b0:    6305        .c      STR      r5,[r0,#0x30]
        0x0000e6b2:    b2f0        ..      UXTB     r0,r6
        0x0000e6b4:    f7fffcc2    ....    BL       am_hal_pwrctrl_periph_disable ; 0xe03c
        0x0000e6b8:    e000        ..      B        0xe6bc ; am_hal_uart_power_control + 136
        0x0000e6ba:    2502        .%      MOVS     r5,#2
        0x0000e6bc:    4628        (F      MOV      r0,r5
        0x0000e6be:    b002        ..      ADD      sp,sp,#8
        0x0000e6c0:    e8bd81f0    ....    POP      {r4-r8,pc}
        0x0000e6c4:    bb11        ..      CBNZ     r1,0xe70c ; am_hal_uart_power_control + 216
        0x0000e6c6:    b31a        ..      CBZ      r2,0xe710 ; am_hal_uart_power_control + 220
        0x0000e6c8:    7920         y      LDRB     r0,[r4,#4]
        0x0000e6ca:    b330        0.      CBZ      r0,0xe71a ; am_hal_uart_power_control + 230
        0x0000e6cc:    b2f0        ..      UXTB     r0,r6
        0x0000e6ce:    f7fffd05    ....    BL       am_hal_pwrctrl_periph_enable ; 0xe0dc
        0x0000e6d2:    f7fefe57    ..W.    BL       am_hal_interrupt_master_disable ; 0xd384
        0x0000e6d6:    9001        ..      STR      r0,[sp,#4]
        0x0000e6d8:    f24c0100    L...    MOVW     r1,#0xc000
        0x0000e6dc:    68a0        .h      LDR      r0,[r4,#8]
        0x0000e6de:    f2c40101    ....    MOVT     r1,#0x4001
        0x0000e6e2:    eb013105    ...1    ADD      r1,r1,r5,LSL #12
        0x0000e6e6:    6208        .b      STR      r0,[r1,#0x20]
        0x0000e6e8:    68e0        .h      LDR      r0,[r4,#0xc]
        0x0000e6ea:    2500        .%      MOVS     r5,#0
        0x0000e6ec:    6248        Hb      STR      r0,[r1,#0x24]
        0x0000e6ee:    6920         i      LDR      r0,[r4,#0x10]
        0x0000e6f0:    6288        .b      STR      r0,[r1,#0x28]
        0x0000e6f2:    6960        `i      LDR      r0,[r4,#0x14]
        0x0000e6f4:    62c8        .b      STR      r0,[r1,#0x2c]
        0x0000e6f6:    69a0        .i      LDR      r0,[r4,#0x18]
        0x0000e6f8:    6308        .c      STR      r0,[r1,#0x30]
        0x0000e6fa:    69e0        .i      LDR      r0,[r4,#0x1c]
        0x0000e6fc:    6348        Hc      STR      r0,[r1,#0x34]
        0x0000e6fe:    6a20         j      LDR      r0,[r4,#0x20]
        0x0000e700:    6388        .c      STR      r0,[r1,#0x38]
        0x0000e702:    7125        %q      STRB     r5,[r4,#4]
        0x0000e704:    9801        ..      LDR      r0,[sp,#4]
        0x0000e706:    f7fefe45    ..E.    BL       am_hal_interrupt_master_set ; 0xd394
        0x0000e70a:    e7d7        ..      B        0xe6bc ; am_hal_uart_power_control + 136
        0x0000e70c:    2506        .%      MOVS     r5,#6
        0x0000e70e:    e7d5        ..      B        0xe6bc ; am_hal_uart_power_control + 136
        0x0000e710:    b2f0        ..      UXTB     r0,r6
        0x0000e712:    f7fffce3    ....    BL       am_hal_pwrctrl_periph_enable ; 0xe0dc
        0x0000e716:    2500        .%      MOVS     r5,#0
        0x0000e718:    e7d0        ..      B        0xe6bc ; am_hal_uart_power_control + 136
        0x0000e71a:    2507        .%      MOVS     r5,#7
        0x0000e71c:    e7ce        ..      B        0xe6bc ; am_hal_uart_power_control + 136
        0x0000e71e:    0000        ..      MOVS     r0,r0
    am_hal_uart_transfer
        0x0000e720:    e92d4ff0    -..O    PUSH     {r4-r11,lr}
        0x0000e724:    b083        ..      SUB      sp,sp,#0xc
        0x0000e726:    680a        .h      LDR      r2,[r1,#0]
        0x0000e728:    4604        .F      MOV      r4,r0
        0x0000e72a:    2a01        .*      CMP      r2,#1
        0x0000e72c:    d02e        ..      BEQ      0xe78c ; am_hal_uart_transfer + 108
        0x0000e72e:    2a00        .*      CMP      r2,#0
        0x0000e730:    d158        X.      BNE      0xe7e4 ; am_hal_uart_transfer + 196
        0x0000e732:    f1010a04    ....    ADD      r10,r1,#4
        0x0000e736:    e89a04c0    ....    LDM      r10,{r6,r7,r10}
        0x0000e73a:    690b        .i      LDR      r3,[r1,#0x10]
        0x0000e73c:    f1ba0f00    ....    CMP      r10,#0
        0x0000e740:    d055        U.      BEQ      0xe7ee ; am_hal_uart_transfer + 206
        0x0000e742:    2f00        ./      CMP      r7,#0
        0x0000e744:    d050        P.      BEQ      0xe7e8 ; am_hal_uart_transfer + 200
        0x0000e746:    f1ba38ff    ...8    SUBS     r8,r10,#0xffffffff
        0x0000e74a:    f10d0904    ....    ADD      r9,sp,#4
        0x0000e74e:    f04f0500    O...    MOV      r5,#0
        0x0000e752:    f04f0b00    O...    MOV      r11,#0
        0x0000e756:    9300        ..      STR      r3,[sp,#0]
        0x0000e758:    bf18        ..      IT       NE
        0x0000e75a:    f04f0801    O...    MOVNE    r8,#1
        0x0000e75e:    bf00        ..      NOP      
        0x0000e760:    2000        .       MOVS     r0,#0
        0x0000e762:    9001        ..      STR      r0,[sp,#4]
        0x0000e764:    1971        q.      ADDS     r1,r6,r5
        0x0000e766:    4620         F      MOV      r0,r4
        0x0000e768:    463a        :F      MOV      r2,r7
        0x0000e76a:    464b        KF      MOV      r3,r9
        0x0000e76c:    f001fdce    ....    BL       write_nonblocking ; 0x1030c
        0x0000e770:    9901        ..      LDR      r1,[sp,#4]
        0x0000e772:    2800        .(      CMP      r0,#0
        0x0000e774:    440d        .D      ADD      r5,r5,r1
        0x0000e776:    d146        F.      BNE      0xe806 ; am_hal_uart_transfer + 230
        0x0000e778:    1a7f        ..      SUBS     r7,r7,r1
        0x0000e77a:    d048        H.      BEQ      0xe80e ; am_hal_uart_transfer + 238
        0x0000e77c:    f44f507a    O.zP    MOV      r0,#0x3e80
        0x0000e780:    f7fefb16    ....    BL       am_hal_flash_delay ; 0xcdb0
        0x0000e784:    44c3        .D      ADD      r11,r11,r8
        0x0000e786:    45d3        .E      CMP      r11,r10
        0x0000e788:    d3ea        ..      BCC      0xe760 ; am_hal_uart_transfer + 64
        0x0000e78a:    e029        ).      B        0xe7e0 ; am_hal_uart_transfer + 192
        0x0000e78c:    f1010a04    ....    ADD      r10,r1,#4
        0x0000e790:    e89a04c0    ....    LDM      r10,{r6,r7,r10}
        0x0000e794:    690b        .i      LDR      r3,[r1,#0x10]
        0x0000e796:    f1ba0f00    ....    CMP      r10,#0
        0x0000e79a:    d02e        ..      BEQ      0xe7fa ; am_hal_uart_transfer + 218
        0x0000e79c:    b327        '.      CBZ      r7,0xe7e8 ; am_hal_uart_transfer + 200
        0x0000e79e:    f1ba38ff    ...8    SUBS     r8,r10,#0xffffffff
        0x0000e7a2:    f10d0908    ....    ADD      r9,sp,#8
        0x0000e7a6:    f04f0500    O...    MOV      r5,#0
        0x0000e7aa:    f04f0b00    O...    MOV      r11,#0
        0x0000e7ae:    9300        ..      STR      r3,[sp,#0]
        0x0000e7b0:    bf18        ..      IT       NE
        0x0000e7b2:    f04f0801    O...    MOVNE    r8,#1
        0x0000e7b6:    bf00        ..      NOP      
        0x0000e7b8:    2000        .       MOVS     r0,#0
        0x0000e7ba:    9002        ..      STR      r0,[sp,#8]
        0x0000e7bc:    1971        q.      ADDS     r1,r6,r5
        0x0000e7be:    4620         F      MOV      r0,r4
        0x0000e7c0:    463a        :F      MOV      r2,r7
        0x0000e7c2:    464b        KF      MOV      r3,r9
        0x0000e7c4:    f001faac    ....    BL       read_nonblocking ; 0xfd20
        0x0000e7c8:    9902        ..      LDR      r1,[sp,#8]
        0x0000e7ca:    440d        .D      ADD      r5,r5,r1
        0x0000e7cc:    b9d8        ..      CBNZ     r0,0xe806 ; am_hal_uart_transfer + 230
        0x0000e7ce:    1a7f        ..      SUBS     r7,r7,r1
        0x0000e7d0:    d01d        ..      BEQ      0xe80e ; am_hal_uart_transfer + 238
        0x0000e7d2:    f44f507a    O.zP    MOV      r0,#0x3e80
        0x0000e7d6:    f7fefaeb    ....    BL       am_hal_flash_delay ; 0xcdb0
        0x0000e7da:    44c3        .D      ADD      r11,r11,r8
        0x0000e7dc:    45d3        .E      CMP      r11,r10
        0x0000e7de:    d3eb        ..      BCC      0xe7b8 ; am_hal_uart_transfer + 152
        0x0000e7e0:    2000        .       MOVS     r0,#0
        0x0000e7e2:    e018        ..      B        0xe816 ; am_hal_uart_transfer + 246
        0x0000e7e4:    2007        .       MOVS     r0,#7
        0x0000e7e6:    e021        !.      B        0xe82c ; am_hal_uart_transfer + 268
        0x0000e7e8:    2001        .       MOVS     r0,#1
        0x0000e7ea:    2500        .%      MOVS     r5,#0
        0x0000e7ec:    e014        ..      B        0xe818 ; am_hal_uart_transfer + 248
        0x0000e7ee:    4620         F      MOV      r0,r4
        0x0000e7f0:    4631        1F      MOV      r1,r6
        0x0000e7f2:    463a        :F      MOV      r2,r7
        0x0000e7f4:    f001fd8a    ....    BL       write_nonblocking ; 0x1030c
        0x0000e7f8:    e018        ..      B        0xe82c ; am_hal_uart_transfer + 268
        0x0000e7fa:    4620         F      MOV      r0,r4
        0x0000e7fc:    4631        1F      MOV      r1,r6
        0x0000e7fe:    463a        :F      MOV      r2,r7
        0x0000e800:    f001fa8e    ....    BL       read_nonblocking ; 0xfd20
        0x0000e804:    e012        ..      B        0xe82c ; am_hal_uart_transfer + 268
        0x0000e806:    9900        ..      LDR      r1,[sp,#0]
        0x0000e808:    b181        ..      CBZ      r1,0xe82c ; am_hal_uart_transfer + 268
        0x0000e80a:    600d        .`      STR      r5,[r1,#0]
        0x0000e80c:    e00e        ..      B        0xe82c ; am_hal_uart_transfer + 268
        0x0000e80e:    2000        .       MOVS     r0,#0
        0x0000e810:    45d3        .E      CMP      r11,r10
        0x0000e812:    bf38        8.      IT       CC
        0x0000e814:    2001        .       MOVCC    r0,#1
        0x0000e816:    9b00        ..      LDR      r3,[sp,#0]
        0x0000e818:    b103        ..      CBZ      r3,0xe81c ; am_hal_uart_transfer + 252
        0x0000e81a:    601d        .`      STR      r5,[r3,#0]
        0x0000e81c:    2104        .!      MOVS     r1,#4
        0x0000e81e:    2800        .(      CMP      r0,#0
        0x0000e820:    bf18        ..      IT       NE
        0x0000e822:    2100        .!      MOVNE    r1,#0
        0x0000e824:    f1ba30ff    ...0    SUBS     r0,r10,#0xffffffff
        0x0000e828:    bf18        ..      IT       NE
        0x0000e82a:    4608        .F      MOVNE    r0,r1
        0x0000e82c:    b003        ..      ADD      sp,sp,#0xc
        0x0000e82e:    e8bd8ff0    ....    POP      {r4-r11,pc}
        0x0000e832:    0000        ..      MOVS     r0,r0
    am_uart_isr
        0x0000e834:    b580        ..      PUSH     {r7,lr}
        0x0000e836:    b08a        ..      SUB      sp,sp,#0x28
        0x0000e838:    f24b50a4    K..P    MOV      r0,#0xb5a4
        0x0000e83c:    f2c10001    ....    MOVT     r0,#0x1001
        0x0000e840:    9002        ..      STR      r0,[sp,#8]
        0x0000e842:    6800        .h      LDR      r0,[r0,#0]
        0x0000e844:    a909        ..      ADD      r1,sp,#0x24
        0x0000e846:    2201        ."      MOVS     r2,#1
        0x0000e848:    f7fffeda    ....    BL       am_hal_uart_interrupt_status_get ; 0xe600
        0x0000e84c:    9802        ..      LDR      r0,[sp,#8]
        0x0000e84e:    6800        .h      LDR      r0,[r0,#0]
        0x0000e850:    9909        ..      LDR      r1,[sp,#0x24]
        0x0000e852:    f7fffe67    ..g.    BL       am_hal_uart_interrupt_clear ; 0xe524
        0x0000e856:    9802        ..      LDR      r0,[sp,#8]
        0x0000e858:    6800        .h      LDR      r0,[r0,#0]
        0x0000e85a:    9909        ..      LDR      r1,[sp,#0x24]
        0x0000e85c:    2200        ."      MOVS     r2,#0
        0x0000e85e:    f7fffe8b    ....    BL       am_hal_uart_interrupt_service ; 0xe578
        0x0000e862:    f89d0024    ..$.    LDRB     r0,[sp,#0x24]
        0x0000e866:    f0100f50    ..P.    TST      r0,#0x50
        0x0000e86a:    d032        2.      BEQ      0xe8d2 ; am_uart_isr + 158
        0x0000e86c:    e7ff        ..      B        0xe86e ; am_uart_isr + 58
        0x0000e86e:    2001        .       MOVS     r0,#1
        0x0000e870:    9003        ..      STR      r0,[sp,#0xc]
        0x0000e872:    f24b50ac    K..P    MOV      r0,#0xb5ac
        0x0000e876:    f2c10001    ....    MOVT     r0,#0x1001
        0x0000e87a:    9001        ..      STR      r0,[sp,#4]
        0x0000e87c:    6801        .h      LDR      r1,[r0,#0]
        0x0000e87e:    f64750a4    G..P    MOV      r0,#0x7da4
        0x0000e882:    f2c10001    ....    MOVT     r0,#0x1001
        0x0000e886:    4408        .D      ADD      r0,r0,r1
        0x0000e888:    9004        ..      STR      r0,[sp,#0x10]
        0x0000e88a:    2017        .       MOVS     r0,#0x17
        0x0000e88c:    9005        ..      STR      r0,[sp,#0x14]
        0x0000e88e:    2000        .       MOVS     r0,#0
        0x0000e890:    9006        ..      STR      r0,[sp,#0x18]
        0x0000e892:    a808        ..      ADD      r0,sp,#0x20
        0x0000e894:    9007        ..      STR      r0,[sp,#0x1c]
        0x0000e896:    f24b50a4    K..P    MOV      r0,#0xb5a4
        0x0000e89a:    f2c10001    ....    MOVT     r0,#0x1001
        0x0000e89e:    6800        .h      LDR      r0,[r0,#0]
        0x0000e8a0:    a903        ..      ADD      r1,sp,#0xc
        0x0000e8a2:    f7ffff3d    ..=.    BL       am_hal_uart_transfer ; 0xe720
        0x0000e8a6:    9901        ..      LDR      r1,[sp,#4]
        0x0000e8a8:    9a08        ..      LDR      r2,[sp,#0x20]
        0x0000e8aa:    6808        .h      LDR      r0,[r1,#0]
        0x0000e8ac:    4410        .D      ADD      r0,r0,r2
        0x0000e8ae:    6008        .`      STR      r0,[r1,#0]
        0x0000e8b0:    f89d0024    ..$.    LDRB     r0,[sp,#0x24]
        0x0000e8b4:    0640        @.      LSLS     r0,r0,#25
        0x0000e8b6:    2800        .(      CMP      r0,#0
        0x0000e8b8:    d50a        ..      BPL      0xe8d0 ; am_uart_isr + 156
        0x0000e8ba:    e7ff        ..      B        0xe8bc ; am_uart_isr + 136
        0x0000e8bc:    200f        .       MOVS     r0,#0xf
        0x0000e8be:    f7fdfdb1    ....    BL       __NVIC_DisableIRQ ; 0xc424
        0x0000e8c2:    f644119c    D...    MOV      r1,#0x499c
        0x0000e8c6:    f2c10101    ....    MOVT     r1,#0x1001
        0x0000e8ca:    2001        .       MOVS     r0,#1
        0x0000e8cc:    7008        .p      STRB     r0,[r1,#0]
        0x0000e8ce:    e7ff        ..      B        0xe8d0 ; am_uart_isr + 156
        0x0000e8d0:    e7ff        ..      B        0xe8d2 ; am_uart_isr + 158
        0x0000e8d2:    b00a        ..      ADD      sp,sp,#0x28
        0x0000e8d4:    bd80        ..      POP      {r7,pc}
        0x0000e8d6:    0000        ..      MOVS     r0,r0
    am_util_delay_ms
        0x0000e8d8:    b580        ..      PUSH     {r7,lr}
        0x0000e8da:    b086        ..      SUB      sp,sp,#0x18
        0x0000e8dc:    9005        ..      STR      r0,[sp,#0x14]
        0x0000e8de:    4668        hF      MOV      r0,sp
        0x0000e8e0:    f7fef910    ....    BL       am_hal_clkgen_status_get ; 0xcb04
        0x0000e8e4:    9800        ..      LDR      r0,[sp,#0]
        0x0000e8e6:    9003        ..      STR      r0,[sp,#0xc]
        0x0000e8e8:    9805        ..      LDR      r0,[sp,#0x14]
        0x0000e8ea:    9903        ..      LDR      r1,[sp,#0xc]
        0x0000e8ec:    f64112f1    A...    MOV      r2,#0x19f1
        0x0000e8f0:    f2c05276    ..vR    MOVT     r2,#0x576
        0x0000e8f4:    fba12102    ...!    UMULL    r2,r1,r1,r2
        0x0000e8f8:    0989        ..      LSRS     r1,r1,#6
        0x0000e8fa:    4348        HC      MULS     r0,r1,r0
        0x0000e8fc:    9004        ..      STR      r0,[sp,#0x10]
        0x0000e8fe:    9804        ..      LDR      r0,[sp,#0x10]
        0x0000e900:    f7fefa56    ..V.    BL       am_hal_flash_delay ; 0xcdb0
        0x0000e904:    b006        ..      ADD      sp,sp,#0x18
        0x0000e906:    bd80        ..      POP      {r7,pc}
    am_util_delay_us
        0x0000e908:    b580        ..      PUSH     {r7,lr}
        0x0000e90a:    b086        ..      SUB      sp,sp,#0x18
        0x0000e90c:    9005        ..      STR      r0,[sp,#0x14]
        0x0000e90e:    4668        hF      MOV      r0,sp
        0x0000e910:    f7fef8f8    ....    BL       am_hal_clkgen_status_get ; 0xcb04
        0x0000e914:    9800        ..      LDR      r0,[sp,#0]
        0x0000e916:    9003        ..      STR      r0,[sp,#0xc]
        0x0000e918:    9805        ..      LDR      r0,[sp,#0x14]
        0x0000e91a:    9903        ..      LDR      r1,[sp,#0xc]
        0x0000e91c:    f6497281    I..r    MOV      r2,#0x9f81
        0x0000e920:    f2c1625e    ..^b    MOVT     r2,#0x165e
        0x0000e924:    fba12102    ...!    UMULL    r2,r1,r1,r2
        0x0000e928:    0c89        ..      LSRS     r1,r1,#18
        0x0000e92a:    4348        HC      MULS     r0,r1,r0
        0x0000e92c:    9004        ..      STR      r0,[sp,#0x10]
        0x0000e92e:    9804        ..      LDR      r0,[sp,#0x10]
        0x0000e930:    f7fefa3e    ..>.    BL       am_hal_flash_delay ; 0xcdb0
        0x0000e934:    b006        ..      ADD      sp,sp,#0x18
        0x0000e936:    bd80        ..      POP      {r7,pc}
    am_util_faultisr_collect_data
        0x0000e938:    b580        ..      PUSH     {r7,lr}
        0x0000e93a:    b098        ..      SUB      sp,sp,#0x60
        0x0000e93c:    9017        ..      STR      r0,[sp,#0x5c]
        0x0000e93e:    2000        .       MOVS     r0,#0
        0x0000e940:    900a        ..      STR      r0,[sp,#0x28]
        0x0000e942:    9009        ..      STR      r0,[sp,#0x24]
        0x0000e944:    9008        ..      STR      r0,[sp,#0x20]
        0x0000e946:    9007        ..      STR      r0,[sp,#0x1c]
        0x0000e948:    9006        ..      STR      r0,[sp,#0x18]
        0x0000e94a:    9005        ..      STR      r0,[sp,#0x14]
        0x0000e94c:    9004        ..      STR      r0,[sp,#0x10]
        0x0000e94e:    9804        ..      LDR      r0,[sp,#0x10]
        0x0000e950:    9015        ..      STR      r0,[sp,#0x54]
        0x0000e952:    f64e5028    N.(P    MOV      r0,#0xed28
        0x0000e956:    f2ce0000    ....    MOVT     r0,#0xe000
        0x0000e95a:    6800        .h      LDR      r0,[r0,#0]
        0x0000e95c:    9015        ..      STR      r0,[sp,#0x54]
        0x0000e95e:    9815        ..      LDR      r0,[sp,#0x54]
        0x0000e960:    f88d0058    ..X.    STRB     r0,[sp,#0x58]
        0x0000e964:    9815        ..      LDR      r0,[sp,#0x54]
        0x0000e966:    0a00        ..      LSRS     r0,r0,#8
        0x0000e968:    f88d0059    ..Y.    STRB     r0,[sp,#0x59]
        0x0000e96c:    9815        ..      LDR      r0,[sp,#0x54]
        0x0000e96e:    0c00        ..      LSRS     r0,r0,#16
        0x0000e970:    f8ad005a    ..Z.    STRH     r0,[sp,#0x5a]
        0x0000e974:    f64e5038    N.8P    MOV      r0,#0xed38
        0x0000e978:    f2ce0000    ....    MOVT     r0,#0xe000
        0x0000e97c:    6800        .h      LDR      r0,[r0,#0]
        0x0000e97e:    9014        ..      STR      r0,[sp,#0x50]
        0x0000e980:    f89d0059    ..Y.    LDRB     r0,[sp,#0x59]
        0x0000e984:    0780        ..      LSLS     r0,r0,#30
        0x0000e986:    2800        .(      CMP      r0,#0
        0x0000e988:    d506        ..      BPL      0xe998 ; am_util_faultisr_collect_data + 96
        0x0000e98a:    e7ff        ..      B        0xe98c ; am_util_faultisr_collect_data + 84
        0x0000e98c:    9917        ..      LDR      r1,[sp,#0x5c]
        0x0000e98e:    2006        .       MOVS     r0,#6
        0x0000e990:    f000fd96    ....    BL       getStackedReg ; 0xf4c0
        0x0000e994:    9003        ..      STR      r0,[sp,#0xc]
        0x0000e996:    e003        ..      B        0xe9a0 ; am_util_faultisr_collect_data + 104
        0x0000e998:    f04f30ff    O..0    MOV      r0,#0xffffffff
        0x0000e99c:    9003        ..      STR      r0,[sp,#0xc]
        0x0000e99e:    e7ff        ..      B        0xe9a0 ; am_util_faultisr_collect_data + 104
        0x0000e9a0:    9803        ..      LDR      r0,[sp,#0xc]
        0x0000e9a2:    9013        ..      STR      r0,[sp,#0x4c]
        0x0000e9a4:    9917        ..      LDR      r1,[sp,#0x5c]
        0x0000e9a6:    2000        .       MOVS     r0,#0
        0x0000e9a8:    9002        ..      STR      r0,[sp,#8]
        0x0000e9aa:    f000fd89    ....    BL       getStackedReg ; 0xf4c0
        0x0000e9ae:    900b        ..      STR      r0,[sp,#0x2c]
        0x0000e9b0:    9917        ..      LDR      r1,[sp,#0x5c]
        0x0000e9b2:    2001        .       MOVS     r0,#1
        0x0000e9b4:    f000fd84    ....    BL       getStackedReg ; 0xf4c0
        0x0000e9b8:    900c        ..      STR      r0,[sp,#0x30]
        0x0000e9ba:    9917        ..      LDR      r1,[sp,#0x5c]
        0x0000e9bc:    2002        .       MOVS     r0,#2
        0x0000e9be:    9001        ..      STR      r0,[sp,#4]
        0x0000e9c0:    f000fd7e    ..~.    BL       getStackedReg ; 0xf4c0
        0x0000e9c4:    900d        ..      STR      r0,[sp,#0x34]
        0x0000e9c6:    9917        ..      LDR      r1,[sp,#0x5c]
        0x0000e9c8:    2003        .       MOVS     r0,#3
        0x0000e9ca:    f000fd79    ..y.    BL       getStackedReg ; 0xf4c0
        0x0000e9ce:    900e        ..      STR      r0,[sp,#0x38]
        0x0000e9d0:    9917        ..      LDR      r1,[sp,#0x5c]
        0x0000e9d2:    2004        .       MOVS     r0,#4
        0x0000e9d4:    f000fd74    ..t.    BL       getStackedReg ; 0xf4c0
        0x0000e9d8:    900f        ..      STR      r0,[sp,#0x3c]
        0x0000e9da:    9917        ..      LDR      r1,[sp,#0x5c]
        0x0000e9dc:    2005        .       MOVS     r0,#5
        0x0000e9de:    f000fd6f    ..o.    BL       getStackedReg ; 0xf4c0
        0x0000e9e2:    9010        ..      STR      r0,[sp,#0x40]
        0x0000e9e4:    9917        ..      LDR      r1,[sp,#0x5c]
        0x0000e9e6:    2006        .       MOVS     r0,#6
        0x0000e9e8:    f000fd6a    ..j.    BL       getStackedReg ; 0xf4c0
        0x0000e9ec:    9011        ..      STR      r0,[sp,#0x44]
        0x0000e9ee:    9917        ..      LDR      r1,[sp,#0x5c]
        0x0000e9f0:    2007        .       MOVS     r0,#7
        0x0000e9f2:    f000fd65    ..e.    BL       getStackedReg ; 0xf4c0
        0x0000e9f6:    4601        .F      MOV      r1,r0
        0x0000e9f8:    9801        ..      LDR      r0,[sp,#4]
        0x0000e9fa:    9112        ..      STR      r1,[sp,#0x48]
        0x0000e9fc:    a905        ..      ADD      r1,sp,#0x14
        0x0000e9fe:    f7fff98a    ....    BL       am_hal_mcuctrl_info_get ; 0xdd16
        0x0000ea02:    9802        ..      LDR      r0,[sp,#8]
        0x0000ea04:    9004        ..      STR      r0,[sp,#0x10]
        0x0000ea06:    e7ff        ..      B        0xea08 ; am_util_faultisr_collect_data + 208
        0x0000ea08:    e7fe        ..      B        0xea08 ; am_util_faultisr_collect_data + 208
        0x0000ea0a:    0000        ..      MOVS     r0,r0
    am_util_stdio_printf
        0x0000ea0c:    b083        ..      SUB      sp,sp,#0xc
        0x0000ea0e:    b580        ..      PUSH     {r7,lr}
        0x0000ea10:    b085        ..      SUB      sp,sp,#0x14
        0x0000ea12:    9309        ..      STR      r3,[sp,#0x24]
        0x0000ea14:    9208        ..      STR      r2,[sp,#0x20]
        0x0000ea16:    9107        ..      STR      r1,[sp,#0x1c]
        0x0000ea18:    9003        ..      STR      r0,[sp,#0xc]
        0x0000ea1a:    f64410a0    D...    MOV      r0,#0x49a0
        0x0000ea1e:    f2c10001    ....    MOVT     r0,#0x1001
        0x0000ea22:    6800        .h      LDR      r0,[r0,#0]
        0x0000ea24:    b918        ..      CBNZ     r0,0xea2e ; am_util_stdio_printf + 34
        0x0000ea26:    e7ff        ..      B        0xea28 ; am_util_stdio_printf + 28
        0x0000ea28:    2000        .       MOVS     r0,#0
        0x0000ea2a:    9004        ..      STR      r0,[sp,#0x10]
        0x0000ea2c:    e016        ..      B        0xea5c ; am_util_stdio_printf + 80
        0x0000ea2e:    a807        ..      ADD      r0,sp,#0x1c
        0x0000ea30:    9001        ..      STR      r0,[sp,#4]
        0x0000ea32:    9903        ..      LDR      r1,[sp,#0xc]
        0x0000ea34:    9a01        ..      LDR      r2,[sp,#4]
        0x0000ea36:    f64410a4    D...    MOV      r0,#0x49a4
        0x0000ea3a:    f2c10001    ....    MOVT     r0,#0x1001
        0x0000ea3e:    9000        ..      STR      r0,[sp,#0]
        0x0000ea40:    f000f81c    ....    BL       am_util_stdio_vsprintf ; 0xea7c
        0x0000ea44:    4601        .F      MOV      r1,r0
        0x0000ea46:    9800        ..      LDR      r0,[sp,#0]
        0x0000ea48:    9102        ..      STR      r1,[sp,#8]
        0x0000ea4a:    f64411a0    D...    MOV      r1,#0x49a0
        0x0000ea4e:    f2c10101    ....    MOVT     r1,#0x1001
        0x0000ea52:    6809        .h      LDR      r1,[r1,#0]
        0x0000ea54:    4788        .G      BLX      r1
        0x0000ea56:    9802        ..      LDR      r0,[sp,#8]
        0x0000ea58:    9004        ..      STR      r0,[sp,#0x10]
        0x0000ea5a:    e7ff        ..      B        0xea5c ; am_util_stdio_printf + 80
        0x0000ea5c:    9804        ..      LDR      r0,[sp,#0x10]
        0x0000ea5e:    b005        ..      ADD      sp,sp,#0x14
        0x0000ea60:    e8bd4080    ...@    POP      {r7,lr}
        0x0000ea64:    b003        ..      ADD      sp,sp,#0xc
        0x0000ea66:    4770        pG      BX       lr
    am_util_stdio_printf_init
        0x0000ea68:    b081        ..      SUB      sp,sp,#4
        0x0000ea6a:    9000        ..      STR      r0,[sp,#0]
        0x0000ea6c:    9800        ..      LDR      r0,[sp,#0]
        0x0000ea6e:    f64411a0    D...    MOV      r1,#0x49a0
        0x0000ea72:    f2c10101    ....    MOVT     r1,#0x1001
        0x0000ea76:    6008        .`      STR      r0,[r1,#0]
        0x0000ea78:    b001        ..      ADD      sp,sp,#4
        0x0000ea7a:    4770        pG      BX       lr
    am_util_stdio_vsprintf
        0x0000ea7c:    b580        ..      PUSH     {r7,lr}
        0x0000ea7e:    b09e        ..      SUB      sp,sp,#0x78
        0x0000ea80:    921d        ..      STR      r2,[sp,#0x74]
        0x0000ea82:    901c        ..      STR      r0,[sp,#0x70]
        0x0000ea84:    911b        ..      STR      r1,[sp,#0x6c]
        0x0000ea86:    2000        .       MOVS     r0,#0
        0x0000ea88:    9014        ..      STR      r0,[sp,#0x50]
        0x0000ea8a:    900e        ..      STR      r0,[sp,#0x38]
        0x0000ea8c:    e7ff        ..      B        0xea8e ; am_util_stdio_vsprintf + 18
        0x0000ea8e:    981b        ..      LDR      r0,[sp,#0x6c]
        0x0000ea90:    7800        .x      LDRB     r0,[r0,#0]
        0x0000ea92:    2800        .(      CMP      r0,#0
        0x0000ea94:    f0008312    ....    BEQ.W    0xf0bc ; am_util_stdio_vsprintf + 1600
        0x0000ea98:    e7ff        ..      B        0xea9a ; am_util_stdio_vsprintf + 30
        0x0000ea9a:    2006        .       MOVS     r0,#6
        0x0000ea9c:    9011        ..      STR      r0,[sp,#0x44]
        0x0000ea9e:    981b        ..      LDR      r0,[sp,#0x6c]
        0x0000eaa0:    7800        .x      LDRB     r0,[r0,#0]
        0x0000eaa2:    2825        %(      CMP      r0,#0x25
        0x0000eaa4:    d027        '.      BEQ      0xeaf6 ; am_util_stdio_vsprintf + 122
        0x0000eaa6:    e7ff        ..      B        0xeaa8 ; am_util_stdio_vsprintf + 44
        0x0000eaa8:    981c        ..      LDR      r0,[sp,#0x70]
        0x0000eaaa:    b1e8        ..      CBZ      r0,0xeae8 ; am_util_stdio_vsprintf + 108
        0x0000eaac:    e7ff        ..      B        0xeaae ; am_util_stdio_vsprintf + 50
        0x0000eaae:    981b        ..      LDR      r0,[sp,#0x6c]
        0x0000eab0:    7800        .x      LDRB     r0,[r0,#0]
        0x0000eab2:    280a        .(      CMP      r0,#0xa
        0x0000eab4:    d111        ..      BNE      0xeada ; am_util_stdio_vsprintf + 94
        0x0000eab6:    e7ff        ..      B        0xeab8 ; am_util_stdio_vsprintf + 60
        0x0000eab8:    f644109e    D...    MOV      r0,#0x499e
        0x0000eabc:    f2c10001    ....    MOVT     r0,#0x1001
        0x0000eac0:    7800        .x      LDRB     r0,[r0,#0]
        0x0000eac2:    07c0        ..      LSLS     r0,r0,#31
        0x0000eac4:    b148        H.      CBZ      r0,0xeada ; am_util_stdio_vsprintf + 94
        0x0000eac6:    e7ff        ..      B        0xeac8 ; am_util_stdio_vsprintf + 76
        0x0000eac8:    991c        ..      LDR      r1,[sp,#0x70]
        0x0000eaca:    1c48        H.      ADDS     r0,r1,#1
        0x0000eacc:    901c        ..      STR      r0,[sp,#0x70]
        0x0000eace:    200d        .       MOVS     r0,#0xd
        0x0000ead0:    7008        .p      STRB     r0,[r1,#0]
        0x0000ead2:    9814        ..      LDR      r0,[sp,#0x50]
        0x0000ead4:    3001        .0      ADDS     r0,#1
        0x0000ead6:    9014        ..      STR      r0,[sp,#0x50]
        0x0000ead8:    e7ff        ..      B        0xeada ; am_util_stdio_vsprintf + 94
        0x0000eada:    981b        ..      LDR      r0,[sp,#0x6c]
        0x0000eadc:    7800        .x      LDRB     r0,[r0,#0]
        0x0000eade:    991c        ..      LDR      r1,[sp,#0x70]
        0x0000eae0:    1c4a        J.      ADDS     r2,r1,#1
        0x0000eae2:    921c        ..      STR      r2,[sp,#0x70]
        0x0000eae4:    7008        .p      STRB     r0,[r1,#0]
        0x0000eae6:    e7ff        ..      B        0xeae8 ; am_util_stdio_vsprintf + 108
        0x0000eae8:    981b        ..      LDR      r0,[sp,#0x6c]
        0x0000eaea:    3001        .0      ADDS     r0,#1
        0x0000eaec:    901b        ..      STR      r0,[sp,#0x6c]
        0x0000eaee:    9814        ..      LDR      r0,[sp,#0x50]
        0x0000eaf0:    3001        .0      ADDS     r0,#1
        0x0000eaf2:    9014        ..      STR      r0,[sp,#0x50]
        0x0000eaf4:    e7cb        ..      B        0xea8e ; am_util_stdio_vsprintf + 18
        0x0000eaf6:    981b        ..      LDR      r0,[sp,#0x6c]
        0x0000eaf8:    3001        .0      ADDS     r0,#1
        0x0000eafa:    901b        ..      STR      r0,[sp,#0x6c]
        0x0000eafc:    2000        .       MOVS     r0,#0
        0x0000eafe:    f88d0040    ..@.    STRB     r0,[sp,#0x40]
        0x0000eb02:    f88d0041    ..A.    STRB     r0,[sp,#0x41]
        0x0000eb06:    2020                MOVS     r0,#0x20
        0x0000eb08:    f88d0042    ..B.    STRB     r0,[sp,#0x42]
        0x0000eb0c:    981b        ..      LDR      r0,[sp,#0x6c]
        0x0000eb0e:    7800        .x      LDRB     r0,[r0,#0]
        0x0000eb10:    2830        0(      CMP      r0,#0x30
        0x0000eb12:    d107        ..      BNE      0xeb24 ; am_util_stdio_vsprintf + 168
        0x0000eb14:    e7ff        ..      B        0xeb16 ; am_util_stdio_vsprintf + 154
        0x0000eb16:    2030        0       MOVS     r0,#0x30
        0x0000eb18:    f88d0042    ..B.    STRB     r0,[sp,#0x42]
        0x0000eb1c:    981b        ..      LDR      r0,[sp,#0x6c]
        0x0000eb1e:    3001        .0      ADDS     r0,#1
        0x0000eb20:    901b        ..      STR      r0,[sp,#0x6c]
        0x0000eb22:    e7ff        ..      B        0xeb24 ; am_util_stdio_vsprintf + 168
        0x0000eb24:    981b        ..      LDR      r0,[sp,#0x6c]
        0x0000eb26:    a915        ..      ADD      r1,sp,#0x54
        0x0000eb28:    f000fad2    ....    BL       decstr_to_int ; 0xf0d0
        0x0000eb2c:    9013        ..      STR      r0,[sp,#0x4c]
        0x0000eb2e:    9915        ..      LDR      r1,[sp,#0x54]
        0x0000eb30:    981b        ..      LDR      r0,[sp,#0x6c]
        0x0000eb32:    4408        .D      ADD      r0,r0,r1
        0x0000eb34:    901b        ..      STR      r0,[sp,#0x6c]
        0x0000eb36:    981b        ..      LDR      r0,[sp,#0x6c]
        0x0000eb38:    7800        .x      LDRB     r0,[r0,#0]
        0x0000eb3a:    2873        s(      CMP      r0,#0x73
        0x0000eb3c:    d009        ..      BEQ      0xeb52 ; am_util_stdio_vsprintf + 214
        0x0000eb3e:    e7ff        ..      B        0xeb40 ; am_util_stdio_vsprintf + 196
        0x0000eb40:    9813        ..      LDR      r0,[sp,#0x4c]
        0x0000eb42:    f1b03fff    ...?    CMP      r0,#0xffffffff
        0x0000eb46:    dc04        ..      BGT      0xeb52 ; am_util_stdio_vsprintf + 214
        0x0000eb48:    e7ff        ..      B        0xeb4a ; am_util_stdio_vsprintf + 206
        0x0000eb4a:    9813        ..      LDR      r0,[sp,#0x4c]
        0x0000eb4c:    4240        @B      RSBS     r0,r0,#0
        0x0000eb4e:    9013        ..      STR      r0,[sp,#0x4c]
        0x0000eb50:    e7ff        ..      B        0xeb52 ; am_util_stdio_vsprintf + 214
        0x0000eb52:    981b        ..      LDR      r0,[sp,#0x6c]
        0x0000eb54:    7800        .x      LDRB     r0,[r0,#0]
        0x0000eb56:    282e        .(      CMP      r0,#0x2e
        0x0000eb58:    d10d        ..      BNE      0xeb76 ; am_util_stdio_vsprintf + 250
        0x0000eb5a:    e7ff        ..      B        0xeb5c ; am_util_stdio_vsprintf + 224
        0x0000eb5c:    981b        ..      LDR      r0,[sp,#0x6c]
        0x0000eb5e:    3001        .0      ADDS     r0,#1
        0x0000eb60:    901b        ..      STR      r0,[sp,#0x6c]
        0x0000eb62:    981b        ..      LDR      r0,[sp,#0x6c]
        0x0000eb64:    a915        ..      ADD      r1,sp,#0x54
        0x0000eb66:    f000fab3    ....    BL       decstr_to_int ; 0xf0d0
        0x0000eb6a:    9011        ..      STR      r0,[sp,#0x44]
        0x0000eb6c:    9915        ..      LDR      r1,[sp,#0x54]
        0x0000eb6e:    981b        ..      LDR      r0,[sp,#0x6c]
        0x0000eb70:    4408        .D      ADD      r0,r0,r1
        0x0000eb72:    901b        ..      STR      r0,[sp,#0x6c]
        0x0000eb74:    e7ff        ..      B        0xeb76 ; am_util_stdio_vsprintf + 250
        0x0000eb76:    981b        ..      LDR      r0,[sp,#0x6c]
        0x0000eb78:    7800        .x      LDRB     r0,[r0,#0]
        0x0000eb7a:    286c        l(      CMP      r0,#0x6c
        0x0000eb7c:    d110        ..      BNE      0xeba0 ; am_util_stdio_vsprintf + 292
        0x0000eb7e:    e7ff        ..      B        0xeb80 ; am_util_stdio_vsprintf + 260
        0x0000eb80:    981b        ..      LDR      r0,[sp,#0x6c]
        0x0000eb82:    3001        .0      ADDS     r0,#1
        0x0000eb84:    901b        ..      STR      r0,[sp,#0x6c]
        0x0000eb86:    981b        ..      LDR      r0,[sp,#0x6c]
        0x0000eb88:    7800        .x      LDRB     r0,[r0,#0]
        0x0000eb8a:    286c        l(      CMP      r0,#0x6c
        0x0000eb8c:    d107        ..      BNE      0xeb9e ; am_util_stdio_vsprintf + 290
        0x0000eb8e:    e7ff        ..      B        0xeb90 ; am_util_stdio_vsprintf + 276
        0x0000eb90:    981b        ..      LDR      r0,[sp,#0x6c]
        0x0000eb92:    3001        .0      ADDS     r0,#1
        0x0000eb94:    901b        ..      STR      r0,[sp,#0x6c]
        0x0000eb96:    2001        .       MOVS     r0,#1
        0x0000eb98:    f88d0040    ..@.    STRB     r0,[sp,#0x40]
        0x0000eb9c:    e7ff        ..      B        0xeb9e ; am_util_stdio_vsprintf + 290
        0x0000eb9e:    e7ff        ..      B        0xeba0 ; am_util_stdio_vsprintf + 292
        0x0000eba0:    981b        ..      LDR      r0,[sp,#0x6c]
        0x0000eba2:    7800        .x      LDRB     r0,[r0,#0]
        0x0000eba4:    3846        F8      SUBS     r0,r0,#0x46
        0x0000eba6:    4601        .F      MOV      r1,r0
        0x0000eba8:    910b        ..      STR      r1,[sp,#0x2c]
        0x0000ebaa:    2832        2(      CMP      r0,#0x32
        0x0000ebac:    f2008273    ..s.    BHI.W    0xf096 ; am_util_stdio_vsprintf + 1562
        0x0000ebb0:    990b        ..      LDR      r1,[sp,#0x2c]
        0x0000ebb2:    e8dff011    ....    TBH      [pc,r1,LSL #1]
    $d.4
        0x0000ebb6:    0224        $.      DCW    548
        0x0000ebb8:    02700270    p.p.    DCD    40895088
        0x0000ebbc:    02700270    p.p.    DCD    40895088
        0x0000ebc0:    02700270    p.p.    DCD    40895088
        0x0000ebc4:    02700270    p.p.    DCD    40895088
        0x0000ebc8:    02700270    p.p.    DCD    40895088
        0x0000ebcc:    02700270    p.p.    DCD    40895088
        0x0000ebd0:    02700270    p.p.    DCD    40895088
        0x0000ebd4:    02700270    p.p.    DCD    40895088
        0x0000ebd8:    00bf0270    p...    DCD    12518000
        0x0000ebdc:    02700270    p.p.    DCD    40895088
        0x0000ebe0:    02700270    p.p.    DCD    40895088
        0x0000ebe4:    02700270    p.p.    DCD    40895088
        0x0000ebe8:    02700270    p.p.    DCD    40895088
        0x0000ebec:    02700270    p.p.    DCD    40895088
        0x0000ebf0:    016f0033    3.o.    DCD    24051763
        0x0000ebf4:    02240270    p.$.    DCD    35914352
        0x0000ebf8:    02700270    p.p.    DCD    40895088
        0x0000ebfc:    0270016f    o.p.    DCD    40894831
        0x0000ec00:    02700270    p.p.    DCD    40895088
        0x0000ec04:    02700270    p.p.    DCD    40895088
        0x0000ec08:    02700270    p.p.    DCD    40895088
        0x0000ec0c:    02700270    p.p.    DCD    40895088
        0x0000ec10:    02700047    G.p.    DCD    40894535
        0x0000ec14:    02700119    ..p.    DCD    40894745
        0x0000ec18:    00bb0270    p...    DCD    12255856
    $t.5
        0x0000ec1c:    981d        ..      LDR      r0,[sp,#0x74]
        0x0000ec1e:    1d01        ..      ADDS     r1,r0,#4
        0x0000ec20:    911d        ..      STR      r1,[sp,#0x74]
        0x0000ec22:    6800        .h      LDR      r0,[r0,#0]
        0x0000ec24:    f88d0043    ..C.    STRB     r0,[sp,#0x43]
        0x0000ec28:    981c        ..      LDR      r0,[sp,#0x70]
        0x0000ec2a:    b138        8.      CBZ      r0,0xec3c ; am_util_stdio_vsprintf + 448
        0x0000ec2c:    e7ff        ..      B        0xec2e ; am_util_stdio_vsprintf + 434
        0x0000ec2e:    f89d0043    ..C.    LDRB     r0,[sp,#0x43]
        0x0000ec32:    991c        ..      LDR      r1,[sp,#0x70]
        0x0000ec34:    1c4a        J.      ADDS     r2,r1,#1
        0x0000ec36:    921c        ..      STR      r2,[sp,#0x70]
        0x0000ec38:    7008        .p      STRB     r0,[r1,#0]
        0x0000ec3a:    e7ff        ..      B        0xec3c ; am_util_stdio_vsprintf + 448
        0x0000ec3c:    9814        ..      LDR      r0,[sp,#0x50]
        0x0000ec3e:    3001        .0      ADDS     r0,#1
        0x0000ec40:    9014        ..      STR      r0,[sp,#0x50]
        0x0000ec42:    e236        6.      B        0xf0b2 ; am_util_stdio_vsprintf + 1590
        0x0000ec44:    981d        ..      LDR      r0,[sp,#0x74]
        0x0000ec46:    1d01        ..      ADDS     r1,r0,#4
        0x0000ec48:    911d        ..      STR      r1,[sp,#0x74]
        0x0000ec4a:    6800        .h      LDR      r0,[r0,#0]
        0x0000ec4c:    901a        ..      STR      r0,[sp,#0x68]
        0x0000ec4e:    981a        ..      LDR      r0,[sp,#0x68]
        0x0000ec50:    f001f9a4    ....    BL       simple_strlen ; 0xff9c
        0x0000ec54:    900e        ..      STR      r0,[sp,#0x38]
        0x0000ec56:    9813        ..      LDR      r0,[sp,#0x4c]
        0x0000ec58:    2801        .(      CMP      r0,#1
        0x0000ec5a:    db25        %.      BLT      0xeca8 ; am_util_stdio_vsprintf + 556
        0x0000ec5c:    e7ff        ..      B        0xec5e ; am_util_stdio_vsprintf + 482
        0x0000ec5e:    980e        ..      LDR      r0,[sp,#0x38]
        0x0000ec60:    9913        ..      LDR      r1,[sp,#0x4c]
        0x0000ec62:    4288        .B      CMP      r0,r1
        0x0000ec64:    d21f        ..      BCS      0xeca6 ; am_util_stdio_vsprintf + 554
        0x0000ec66:    e7ff        ..      B        0xec68 ; am_util_stdio_vsprintf + 492
        0x0000ec68:    990e        ..      LDR      r1,[sp,#0x38]
        0x0000ec6a:    9813        ..      LDR      r0,[sp,#0x4c]
        0x0000ec6c:    1a40        @.      SUBS     r0,r0,r1
        0x0000ec6e:    9013        ..      STR      r0,[sp,#0x4c]
        0x0000ec70:    981c        ..      LDR      r0,[sp,#0x70]
        0x0000ec72:    f89d1042    ..B.    LDRB     r1,[sp,#0x42]
        0x0000ec76:    9a13        ..      LDR      r2,[sp,#0x4c]
        0x0000ec78:    f001f82a    ..*.    BL       padbuffer ; 0xfcd0
        0x0000ec7c:    9013        ..      STR      r0,[sp,#0x4c]
        0x0000ec7e:    981c        ..      LDR      r0,[sp,#0x70]
        0x0000ec80:    b118        ..      CBZ      r0,0xec8a ; am_util_stdio_vsprintf + 526
        0x0000ec82:    e7ff        ..      B        0xec84 ; am_util_stdio_vsprintf + 520
        0x0000ec84:    9813        ..      LDR      r0,[sp,#0x4c]
        0x0000ec86:    900a        ..      STR      r0,[sp,#0x28]
        0x0000ec88:    e002        ..      B        0xec90 ; am_util_stdio_vsprintf + 532
        0x0000ec8a:    2000        .       MOVS     r0,#0
        0x0000ec8c:    900a        ..      STR      r0,[sp,#0x28]
        0x0000ec8e:    e7ff        ..      B        0xec90 ; am_util_stdio_vsprintf + 532
        0x0000ec90:    990a        ..      LDR      r1,[sp,#0x28]
        0x0000ec92:    981c        ..      LDR      r0,[sp,#0x70]
        0x0000ec94:    4408        .D      ADD      r0,r0,r1
        0x0000ec96:    901c        ..      STR      r0,[sp,#0x70]
        0x0000ec98:    9913        ..      LDR      r1,[sp,#0x4c]
        0x0000ec9a:    9814        ..      LDR      r0,[sp,#0x50]
        0x0000ec9c:    4408        .D      ADD      r0,r0,r1
        0x0000ec9e:    9014        ..      STR      r0,[sp,#0x50]
        0x0000eca0:    2000        .       MOVS     r0,#0
        0x0000eca2:    9013        ..      STR      r0,[sp,#0x4c]
        0x0000eca4:    e7ff        ..      B        0xeca6 ; am_util_stdio_vsprintf + 554
        0x0000eca6:    e7ff        ..      B        0xeca8 ; am_util_stdio_vsprintf + 556
        0x0000eca8:    e7ff        ..      B        0xecaa ; am_util_stdio_vsprintf + 558
        0x0000ecaa:    981a        ..      LDR      r0,[sp,#0x68]
        0x0000ecac:    7800        .x      LDRB     r0,[r0,#0]
        0x0000ecae:    b188        ..      CBZ      r0,0xecd4 ; am_util_stdio_vsprintf + 600
        0x0000ecb0:    e7ff        ..      B        0xecb2 ; am_util_stdio_vsprintf + 566
        0x0000ecb2:    981c        ..      LDR      r0,[sp,#0x70]
        0x0000ecb4:    b138        8.      CBZ      r0,0xecc6 ; am_util_stdio_vsprintf + 586
        0x0000ecb6:    e7ff        ..      B        0xecb8 ; am_util_stdio_vsprintf + 572
        0x0000ecb8:    981a        ..      LDR      r0,[sp,#0x68]
        0x0000ecba:    7800        .x      LDRB     r0,[r0,#0]
        0x0000ecbc:    991c        ..      LDR      r1,[sp,#0x70]
        0x0000ecbe:    1c4a        J.      ADDS     r2,r1,#1
        0x0000ecc0:    921c        ..      STR      r2,[sp,#0x70]
        0x0000ecc2:    7008        .p      STRB     r0,[r1,#0]
        0x0000ecc4:    e7ff        ..      B        0xecc6 ; am_util_stdio_vsprintf + 586
        0x0000ecc6:    981a        ..      LDR      r0,[sp,#0x68]
        0x0000ecc8:    3001        .0      ADDS     r0,#1
        0x0000ecca:    901a        ..      STR      r0,[sp,#0x68]
        0x0000eccc:    9814        ..      LDR      r0,[sp,#0x50]
        0x0000ecce:    3001        .0      ADDS     r0,#1
        0x0000ecd0:    9014        ..      STR      r0,[sp,#0x50]
        0x0000ecd2:    e7ea        ..      B        0xecaa ; am_util_stdio_vsprintf + 558
        0x0000ecd4:    9813        ..      LDR      r0,[sp,#0x4c]
        0x0000ecd6:    b340        @.      CBZ      r0,0xed2a ; am_util_stdio_vsprintf + 686
        0x0000ecd8:    e7ff        ..      B        0xecda ; am_util_stdio_vsprintf + 606
        0x0000ecda:    9813        ..      LDR      r0,[sp,#0x4c]
        0x0000ecdc:    4240        @B      RSBS     r0,r0,#0
        0x0000ecde:    9013        ..      STR      r0,[sp,#0x4c]
        0x0000ece0:    980e        ..      LDR      r0,[sp,#0x38]
        0x0000ece2:    9913        ..      LDR      r1,[sp,#0x4c]
        0x0000ece4:    4288        .B      CMP      r0,r1
        0x0000ece6:    d21f        ..      BCS      0xed28 ; am_util_stdio_vsprintf + 684
        0x0000ece8:    e7ff        ..      B        0xecea ; am_util_stdio_vsprintf + 622
        0x0000ecea:    990e        ..      LDR      r1,[sp,#0x38]
        0x0000ecec:    9813        ..      LDR      r0,[sp,#0x4c]
        0x0000ecee:    1a40        @.      SUBS     r0,r0,r1
        0x0000ecf0:    9013        ..      STR      r0,[sp,#0x4c]
        0x0000ecf2:    981c        ..      LDR      r0,[sp,#0x70]
        0x0000ecf4:    f89d1042    ..B.    LDRB     r1,[sp,#0x42]
        0x0000ecf8:    9a13        ..      LDR      r2,[sp,#0x4c]
        0x0000ecfa:    f000ffe9    ....    BL       padbuffer ; 0xfcd0
        0x0000ecfe:    9013        ..      STR      r0,[sp,#0x4c]
        0x0000ed00:    981c        ..      LDR      r0,[sp,#0x70]
        0x0000ed02:    b118        ..      CBZ      r0,0xed0c ; am_util_stdio_vsprintf + 656
        0x0000ed04:    e7ff        ..      B        0xed06 ; am_util_stdio_vsprintf + 650
        0x0000ed06:    9813        ..      LDR      r0,[sp,#0x4c]
        0x0000ed08:    9009        ..      STR      r0,[sp,#0x24]
        0x0000ed0a:    e002        ..      B        0xed12 ; am_util_stdio_vsprintf + 662
        0x0000ed0c:    2000        .       MOVS     r0,#0
        0x0000ed0e:    9009        ..      STR      r0,[sp,#0x24]
        0x0000ed10:    e7ff        ..      B        0xed12 ; am_util_stdio_vsprintf + 662
        0x0000ed12:    9909        ..      LDR      r1,[sp,#0x24]
        0x0000ed14:    981c        ..      LDR      r0,[sp,#0x70]
        0x0000ed16:    4408        .D      ADD      r0,r0,r1
        0x0000ed18:    901c        ..      STR      r0,[sp,#0x70]
        0x0000ed1a:    9913        ..      LDR      r1,[sp,#0x4c]
        0x0000ed1c:    9814        ..      LDR      r0,[sp,#0x50]
        0x0000ed1e:    4408        .D      ADD      r0,r0,r1
        0x0000ed20:    9014        ..      STR      r0,[sp,#0x50]
        0x0000ed22:    2000        .       MOVS     r0,#0
        0x0000ed24:    9013        ..      STR      r0,[sp,#0x4c]
        0x0000ed26:    e7ff        ..      B        0xed28 ; am_util_stdio_vsprintf + 684
        0x0000ed28:    e7ff        ..      B        0xed2a ; am_util_stdio_vsprintf + 686
        0x0000ed2a:    e1c2        ..      B        0xf0b2 ; am_util_stdio_vsprintf + 1590
        0x0000ed2c:    2001        .       MOVS     r0,#1
        0x0000ed2e:    f88d0041    ..A.    STRB     r0,[sp,#0x41]
        0x0000ed32:    e7ff        ..      B        0xed34 ; am_util_stdio_vsprintf + 696
        0x0000ed34:    f89d0040    ..@.    LDRB     r0,[sp,#0x40]
        0x0000ed38:    07c0        ..      LSLS     r0,r0,#31
        0x0000ed3a:    b160        `.      CBZ      r0,0xed56 ; am_util_stdio_vsprintf + 730
        0x0000ed3c:    e7ff        ..      B        0xed3e ; am_util_stdio_vsprintf + 706
        0x0000ed3e:    981d        ..      LDR      r0,[sp,#0x74]
        0x0000ed40:    3007        .0      ADDS     r0,#7
        0x0000ed42:    f0200007     ...    BIC      r0,r0,#7
        0x0000ed46:    f1000108    ....    ADD      r1,r0,#8
        0x0000ed4a:    911d        ..      STR      r1,[sp,#0x74]
        0x0000ed4c:    6801        .h      LDR      r1,[r0,#0]
        0x0000ed4e:    6840        @h      LDR      r0,[r0,#4]
        0x0000ed50:    9107        ..      STR      r1,[sp,#0x1c]
        0x0000ed52:    9008        ..      STR      r0,[sp,#0x20]
        0x0000ed54:    e007        ..      B        0xed66 ; am_util_stdio_vsprintf + 746
        0x0000ed56:    981d        ..      LDR      r0,[sp,#0x74]
        0x0000ed58:    1d01        ..      ADDS     r1,r0,#4
        0x0000ed5a:    911d        ..      STR      r1,[sp,#0x74]
        0x0000ed5c:    6801        .h      LDR      r1,[r0,#0]
        0x0000ed5e:    2000        .       MOVS     r0,#0
        0x0000ed60:    9107        ..      STR      r1,[sp,#0x1c]
        0x0000ed62:    9008        ..      STR      r0,[sp,#0x20]
        0x0000ed64:    e7ff        ..      B        0xed66 ; am_util_stdio_vsprintf + 746
        0x0000ed66:    9907        ..      LDR      r1,[sp,#0x1c]
        0x0000ed68:    9808        ..      LDR      r0,[sp,#0x20]
        0x0000ed6a:    9118        ..      STR      r1,[sp,#0x60]
        0x0000ed6c:    9019        ..      STR      r0,[sp,#0x64]
        0x0000ed6e:    9813        ..      LDR      r0,[sp,#0x4c]
        0x0000ed70:    b318        ..      CBZ      r0,0xedba ; am_util_stdio_vsprintf + 830
        0x0000ed72:    e7ff        ..      B        0xed74 ; am_util_stdio_vsprintf + 760
        0x0000ed74:    9818        ..      LDR      r0,[sp,#0x60]
        0x0000ed76:    9919        ..      LDR      r1,[sp,#0x64]
        0x0000ed78:    f000ff4e    ..N.    BL       ndigits_in_hex ; 0xfc18
        0x0000ed7c:    4601        .F      MOV      r1,r0
        0x0000ed7e:    9813        ..      LDR      r0,[sp,#0x4c]
        0x0000ed80:    1a40        @.      SUBS     r0,r0,r1
        0x0000ed82:    9013        ..      STR      r0,[sp,#0x4c]
        0x0000ed84:    981c        ..      LDR      r0,[sp,#0x70]
        0x0000ed86:    f89d1042    ..B.    LDRB     r1,[sp,#0x42]
        0x0000ed8a:    9a13        ..      LDR      r2,[sp,#0x4c]
        0x0000ed8c:    f000ffa0    ....    BL       padbuffer ; 0xfcd0
        0x0000ed90:    9013        ..      STR      r0,[sp,#0x4c]
        0x0000ed92:    981c        ..      LDR      r0,[sp,#0x70]
        0x0000ed94:    b118        ..      CBZ      r0,0xed9e ; am_util_stdio_vsprintf + 802
        0x0000ed96:    e7ff        ..      B        0xed98 ; am_util_stdio_vsprintf + 796
        0x0000ed98:    9813        ..      LDR      r0,[sp,#0x4c]
        0x0000ed9a:    9006        ..      STR      r0,[sp,#0x18]
        0x0000ed9c:    e002        ..      B        0xeda4 ; am_util_stdio_vsprintf + 808
        0x0000ed9e:    2000        .       MOVS     r0,#0
        0x0000eda0:    9006        ..      STR      r0,[sp,#0x18]
        0x0000eda2:    e7ff        ..      B        0xeda4 ; am_util_stdio_vsprintf + 808
        0x0000eda4:    9906        ..      LDR      r1,[sp,#0x18]
        0x0000eda6:    981c        ..      LDR      r0,[sp,#0x70]
        0x0000eda8:    4408        .D      ADD      r0,r0,r1
        0x0000edaa:    901c        ..      STR      r0,[sp,#0x70]
        0x0000edac:    9913        ..      LDR      r1,[sp,#0x4c]
        0x0000edae:    9814        ..      LDR      r0,[sp,#0x50]
        0x0000edb0:    4408        .D      ADD      r0,r0,r1
        0x0000edb2:    9014        ..      STR      r0,[sp,#0x50]
        0x0000edb4:    2000        .       MOVS     r0,#0
        0x0000edb6:    9013        ..      STR      r0,[sp,#0x4c]
        0x0000edb8:    e7ff        ..      B        0xedba ; am_util_stdio_vsprintf + 830
        0x0000edba:    9818        ..      LDR      r0,[sp,#0x60]
        0x0000edbc:    9919        ..      LDR      r1,[sp,#0x64]
        0x0000edbe:    9a1c        ..      LDR      r2,[sp,#0x70]
        0x0000edc0:    f89d3041    ..A0    LDRB     r3,[sp,#0x41]
        0x0000edc4:    f0030301    ....    AND      r3,r3,#1
        0x0000edc8:    f001f9b6    ....    BL       uint64_to_hexstr ; 0x10138
        0x0000edcc:    9012        ..      STR      r0,[sp,#0x48]
        0x0000edce:    981c        ..      LDR      r0,[sp,#0x70]
        0x0000edd0:    b128        (.      CBZ      r0,0xedde ; am_util_stdio_vsprintf + 866
        0x0000edd2:    e7ff        ..      B        0xedd4 ; am_util_stdio_vsprintf + 856
        0x0000edd4:    9912        ..      LDR      r1,[sp,#0x48]
        0x0000edd6:    981c        ..      LDR      r0,[sp,#0x70]
        0x0000edd8:    4408        .D      ADD      r0,r0,r1
        0x0000edda:    901c        ..      STR      r0,[sp,#0x70]
        0x0000eddc:    e7ff        ..      B        0xedde ; am_util_stdio_vsprintf + 866
        0x0000edde:    9912        ..      LDR      r1,[sp,#0x48]
        0x0000ede0:    9814        ..      LDR      r0,[sp,#0x50]
        0x0000ede2:    4408        .D      ADD      r0,r0,r1
        0x0000ede4:    9014        ..      STR      r0,[sp,#0x50]
        0x0000ede6:    e164        d.      B        0xf0b2 ; am_util_stdio_vsprintf + 1590
        0x0000ede8:    f89d0040    ..@.    LDRB     r0,[sp,#0x40]
        0x0000edec:    07c0        ..      LSLS     r0,r0,#31
        0x0000edee:    b160        `.      CBZ      r0,0xee0a ; am_util_stdio_vsprintf + 910
        0x0000edf0:    e7ff        ..      B        0xedf2 ; am_util_stdio_vsprintf + 886
        0x0000edf2:    981d        ..      LDR      r0,[sp,#0x74]
        0x0000edf4:    3007        .0      ADDS     r0,#7
        0x0000edf6:    f0200007     ...    BIC      r0,r0,#7
        0x0000edfa:    f1000108    ....    ADD      r1,r0,#8
        0x0000edfe:    911d        ..      STR      r1,[sp,#0x74]
        0x0000ee00:    6801        .h      LDR      r1,[r0,#0]
        0x0000ee02:    6840        @h      LDR      r0,[r0,#4]
        0x0000ee04:    9104        ..      STR      r1,[sp,#0x10]
        0x0000ee06:    9005        ..      STR      r0,[sp,#0x14]
        0x0000ee08:    e007        ..      B        0xee1a ; am_util_stdio_vsprintf + 926
        0x0000ee0a:    981d        ..      LDR      r0,[sp,#0x74]
        0x0000ee0c:    1d01        ..      ADDS     r1,r0,#4
        0x0000ee0e:    911d        ..      STR      r1,[sp,#0x74]
        0x0000ee10:    6801        .h      LDR      r1,[r0,#0]
        0x0000ee12:    2000        .       MOVS     r0,#0
        0x0000ee14:    9104        ..      STR      r1,[sp,#0x10]
        0x0000ee16:    9005        ..      STR      r0,[sp,#0x14]
        0x0000ee18:    e7ff        ..      B        0xee1a ; am_util_stdio_vsprintf + 926
        0x0000ee1a:    9904        ..      LDR      r1,[sp,#0x10]
        0x0000ee1c:    9805        ..      LDR      r0,[sp,#0x14]
        0x0000ee1e:    9118        ..      STR      r1,[sp,#0x60]
        0x0000ee20:    9019        ..      STR      r0,[sp,#0x64]
        0x0000ee22:    9813        ..      LDR      r0,[sp,#0x4c]
        0x0000ee24:    b318        ..      CBZ      r0,0xee6e ; am_util_stdio_vsprintf + 1010
        0x0000ee26:    e7ff        ..      B        0xee28 ; am_util_stdio_vsprintf + 940
        0x0000ee28:    9818        ..      LDR      r0,[sp,#0x60]
        0x0000ee2a:    9919        ..      LDR      r1,[sp,#0x64]
        0x0000ee2c:    f000ff2c    ..,.    BL       ndigits_in_u64 ; 0xfc88
        0x0000ee30:    4601        .F      MOV      r1,r0
        0x0000ee32:    9813        ..      LDR      r0,[sp,#0x4c]
        0x0000ee34:    1a40        @.      SUBS     r0,r0,r1
        0x0000ee36:    9013        ..      STR      r0,[sp,#0x4c]
        0x0000ee38:    981c        ..      LDR      r0,[sp,#0x70]
        0x0000ee3a:    f89d1042    ..B.    LDRB     r1,[sp,#0x42]
        0x0000ee3e:    9a13        ..      LDR      r2,[sp,#0x4c]
        0x0000ee40:    f000ff46    ..F.    BL       padbuffer ; 0xfcd0
        0x0000ee44:    9013        ..      STR      r0,[sp,#0x4c]
        0x0000ee46:    981c        ..      LDR      r0,[sp,#0x70]
        0x0000ee48:    b118        ..      CBZ      r0,0xee52 ; am_util_stdio_vsprintf + 982
        0x0000ee4a:    e7ff        ..      B        0xee4c ; am_util_stdio_vsprintf + 976
        0x0000ee4c:    9813        ..      LDR      r0,[sp,#0x4c]
        0x0000ee4e:    9003        ..      STR      r0,[sp,#0xc]
        0x0000ee50:    e002        ..      B        0xee58 ; am_util_stdio_vsprintf + 988
        0x0000ee52:    2000        .       MOVS     r0,#0
        0x0000ee54:    9003        ..      STR      r0,[sp,#0xc]
        0x0000ee56:    e7ff        ..      B        0xee58 ; am_util_stdio_vsprintf + 988
        0x0000ee58:    9903        ..      LDR      r1,[sp,#0xc]
        0x0000ee5a:    981c        ..      LDR      r0,[sp,#0x70]
        0x0000ee5c:    4408        .D      ADD      r0,r0,r1
        0x0000ee5e:    901c        ..      STR      r0,[sp,#0x70]
        0x0000ee60:    9913        ..      LDR      r1,[sp,#0x4c]
        0x0000ee62:    9814        ..      LDR      r0,[sp,#0x50]
        0x0000ee64:    4408        .D      ADD      r0,r0,r1
        0x0000ee66:    9014        ..      STR      r0,[sp,#0x50]
        0x0000ee68:    2000        .       MOVS     r0,#0
        0x0000ee6a:    9013        ..      STR      r0,[sp,#0x4c]
        0x0000ee6c:    e7ff        ..      B        0xee6e ; am_util_stdio_vsprintf + 1010
        0x0000ee6e:    9818        ..      LDR      r0,[sp,#0x60]
        0x0000ee70:    9919        ..      LDR      r1,[sp,#0x64]
        0x0000ee72:    9a1c        ..      LDR      r2,[sp,#0x70]
        0x0000ee74:    f001f9c0    ....    BL       uint64_to_str ; 0x101f8
        0x0000ee78:    9012        ..      STR      r0,[sp,#0x48]
        0x0000ee7a:    981c        ..      LDR      r0,[sp,#0x70]
        0x0000ee7c:    b128        (.      CBZ      r0,0xee8a ; am_util_stdio_vsprintf + 1038
        0x0000ee7e:    e7ff        ..      B        0xee80 ; am_util_stdio_vsprintf + 1028
        0x0000ee80:    9912        ..      LDR      r1,[sp,#0x48]
        0x0000ee82:    981c        ..      LDR      r0,[sp,#0x70]
        0x0000ee84:    4408        .D      ADD      r0,r0,r1
        0x0000ee86:    901c        ..      STR      r0,[sp,#0x70]
        0x0000ee88:    e7ff        ..      B        0xee8a ; am_util_stdio_vsprintf + 1038
        0x0000ee8a:    9912        ..      LDR      r1,[sp,#0x48]
        0x0000ee8c:    9814        ..      LDR      r0,[sp,#0x50]
        0x0000ee8e:    4408        .D      ADD      r0,r0,r1
        0x0000ee90:    9014        ..      STR      r0,[sp,#0x50]
        0x0000ee92:    e10e        ..      B        0xf0b2 ; am_util_stdio_vsprintf + 1590
        0x0000ee94:    f89d0040    ..@.    LDRB     r0,[sp,#0x40]
        0x0000ee98:    07c0        ..      LSLS     r0,r0,#31
        0x0000ee9a:    b160        `.      CBZ      r0,0xeeb6 ; am_util_stdio_vsprintf + 1082
        0x0000ee9c:    e7ff        ..      B        0xee9e ; am_util_stdio_vsprintf + 1058
        0x0000ee9e:    981d        ..      LDR      r0,[sp,#0x74]
        0x0000eea0:    3007        .0      ADDS     r0,#7
        0x0000eea2:    f0200007     ...    BIC      r0,r0,#7
        0x0000eea6:    f1000108    ....    ADD      r1,r0,#8
        0x0000eeaa:    911d        ..      STR      r1,[sp,#0x74]
        0x0000eeac:    6801        .h      LDR      r1,[r0,#0]
        0x0000eeae:    6840        @h      LDR      r0,[r0,#4]
        0x0000eeb0:    9101        ..      STR      r1,[sp,#4]
        0x0000eeb2:    9002        ..      STR      r0,[sp,#8]
        0x0000eeb4:    e007        ..      B        0xeec6 ; am_util_stdio_vsprintf + 1098
        0x0000eeb6:    981d        ..      LDR      r0,[sp,#0x74]
        0x0000eeb8:    1d01        ..      ADDS     r1,r0,#4
        0x0000eeba:    911d        ..      STR      r1,[sp,#0x74]
        0x0000eebc:    6801        .h      LDR      r1,[r0,#0]
        0x0000eebe:    17c8        ..      ASRS     r0,r1,#31
        0x0000eec0:    9101        ..      STR      r1,[sp,#4]
        0x0000eec2:    9002        ..      STR      r0,[sp,#8]
        0x0000eec4:    e7ff        ..      B        0xeec6 ; am_util_stdio_vsprintf + 1098
        0x0000eec6:    9901        ..      LDR      r1,[sp,#4]
        0x0000eec8:    9802        ..      LDR      r0,[sp,#8]
        0x0000eeca:    9116        ..      STR      r1,[sp,#0x58]
        0x0000eecc:    9017        ..      STR      r0,[sp,#0x5c]
        0x0000eece:    9817        ..      LDR      r0,[sp,#0x5c]
        0x0000eed0:    f1b03fff    ...?    CMP      r0,#0xffffffff
        0x0000eed4:    dc0c        ..      BGT      0xeef0 ; am_util_stdio_vsprintf + 1140
        0x0000eed6:    e7ff        ..      B        0xeed8 ; am_util_stdio_vsprintf + 1116
        0x0000eed8:    9816        ..      LDR      r0,[sp,#0x58]
        0x0000eeda:    9a17        ..      LDR      r2,[sp,#0x5c]
        0x0000eedc:    4241        AB      RSBS     r1,r0,#0
        0x0000eede:    f04f0000    O...    MOV      r0,#0
        0x0000eee2:    4190        .A      SBCS     r0,r0,r2
        0x0000eee4:    9118        ..      STR      r1,[sp,#0x60]
        0x0000eee6:    9019        ..      STR      r0,[sp,#0x64]
        0x0000eee8:    2001        .       MOVS     r0,#1
        0x0000eeea:    f88d003f    ..?.    STRB     r0,[sp,#0x3f]
        0x0000eeee:    e007        ..      B        0xef00 ; am_util_stdio_vsprintf + 1156
        0x0000eef0:    9816        ..      LDR      r0,[sp,#0x58]
        0x0000eef2:    9917        ..      LDR      r1,[sp,#0x5c]
        0x0000eef4:    9119        ..      STR      r1,[sp,#0x64]
        0x0000eef6:    9018        ..      STR      r0,[sp,#0x60]
        0x0000eef8:    2000        .       MOVS     r0,#0
        0x0000eefa:    f88d003f    ..?.    STRB     r0,[sp,#0x3f]
        0x0000eefe:    e7ff        ..      B        0xef00 ; am_util_stdio_vsprintf + 1156
        0x0000ef00:    9813        ..      LDR      r0,[sp,#0x4c]
        0x0000ef02:    2800        .(      CMP      r0,#0
        0x0000ef04:    d055        U.      BEQ      0xefb2 ; am_util_stdio_vsprintf + 1334
        0x0000ef06:    e7ff        ..      B        0xef08 ; am_util_stdio_vsprintf + 1164
        0x0000ef08:    9818        ..      LDR      r0,[sp,#0x60]
        0x0000ef0a:    9919        ..      LDR      r1,[sp,#0x64]
        0x0000ef0c:    f000fea4    ....    BL       ndigits_in_i64 ; 0xfc58
        0x0000ef10:    4601        .F      MOV      r1,r0
        0x0000ef12:    9813        ..      LDR      r0,[sp,#0x4c]
        0x0000ef14:    1a40        @.      SUBS     r0,r0,r1
        0x0000ef16:    9013        ..      STR      r0,[sp,#0x4c]
        0x0000ef18:    f89d003f    ..?.    LDRB     r0,[sp,#0x3f]
        0x0000ef1c:    07c0        ..      LSLS     r0,r0,#31
        0x0000ef1e:    b1b0        ..      CBZ      r0,0xef4e ; am_util_stdio_vsprintf + 1234
        0x0000ef20:    e7ff        ..      B        0xef22 ; am_util_stdio_vsprintf + 1190
        0x0000ef22:    9813        ..      LDR      r0,[sp,#0x4c]
        0x0000ef24:    3801        .8      SUBS     r0,#1
        0x0000ef26:    9013        ..      STR      r0,[sp,#0x4c]
        0x0000ef28:    f89d0042    ..B.    LDRB     r0,[sp,#0x42]
        0x0000ef2c:    2830        0(      CMP      r0,#0x30
        0x0000ef2e:    d10d        ..      BNE      0xef4c ; am_util_stdio_vsprintf + 1232
        0x0000ef30:    e7ff        ..      B        0xef32 ; am_util_stdio_vsprintf + 1206
        0x0000ef32:    981c        ..      LDR      r0,[sp,#0x70]
        0x0000ef34:    b130        0.      CBZ      r0,0xef44 ; am_util_stdio_vsprintf + 1224
        0x0000ef36:    e7ff        ..      B        0xef38 ; am_util_stdio_vsprintf + 1212
        0x0000ef38:    991c        ..      LDR      r1,[sp,#0x70]
        0x0000ef3a:    1c48        H.      ADDS     r0,r1,#1
        0x0000ef3c:    901c        ..      STR      r0,[sp,#0x70]
        0x0000ef3e:    202d        -       MOVS     r0,#0x2d
        0x0000ef40:    7008        .p      STRB     r0,[r1,#0]
        0x0000ef42:    e7ff        ..      B        0xef44 ; am_util_stdio_vsprintf + 1224
        0x0000ef44:    9814        ..      LDR      r0,[sp,#0x50]
        0x0000ef46:    3001        .0      ADDS     r0,#1
        0x0000ef48:    9014        ..      STR      r0,[sp,#0x50]
        0x0000ef4a:    e7ff        ..      B        0xef4c ; am_util_stdio_vsprintf + 1232
        0x0000ef4c:    e7ff        ..      B        0xef4e ; am_util_stdio_vsprintf + 1234
        0x0000ef4e:    981c        ..      LDR      r0,[sp,#0x70]
        0x0000ef50:    f89d1042    ..B.    LDRB     r1,[sp,#0x42]
        0x0000ef54:    9a13        ..      LDR      r2,[sp,#0x4c]
        0x0000ef56:    f000febb    ....    BL       padbuffer ; 0xfcd0
        0x0000ef5a:    9013        ..      STR      r0,[sp,#0x4c]
        0x0000ef5c:    981c        ..      LDR      r0,[sp,#0x70]
        0x0000ef5e:    b118        ..      CBZ      r0,0xef68 ; am_util_stdio_vsprintf + 1260
        0x0000ef60:    e7ff        ..      B        0xef62 ; am_util_stdio_vsprintf + 1254
        0x0000ef62:    9813        ..      LDR      r0,[sp,#0x4c]
        0x0000ef64:    9000        ..      STR      r0,[sp,#0]
        0x0000ef66:    e002        ..      B        0xef6e ; am_util_stdio_vsprintf + 1266
        0x0000ef68:    2000        .       MOVS     r0,#0
        0x0000ef6a:    9000        ..      STR      r0,[sp,#0]
        0x0000ef6c:    e7ff        ..      B        0xef6e ; am_util_stdio_vsprintf + 1266
        0x0000ef6e:    9900        ..      LDR      r1,[sp,#0]
        0x0000ef70:    981c        ..      LDR      r0,[sp,#0x70]
        0x0000ef72:    4408        .D      ADD      r0,r0,r1
        0x0000ef74:    901c        ..      STR      r0,[sp,#0x70]
        0x0000ef76:    9913        ..      LDR      r1,[sp,#0x4c]
        0x0000ef78:    9814        ..      LDR      r0,[sp,#0x50]
        0x0000ef7a:    4408        .D      ADD      r0,r0,r1
        0x0000ef7c:    9014        ..      STR      r0,[sp,#0x50]
        0x0000ef7e:    2000        .       MOVS     r0,#0
        0x0000ef80:    9013        ..      STR      r0,[sp,#0x4c]
        0x0000ef82:    f89d003f    ..?.    LDRB     r0,[sp,#0x3f]
        0x0000ef86:    07c0        ..      LSLS     r0,r0,#31
        0x0000ef88:    b190        ..      CBZ      r0,0xefb0 ; am_util_stdio_vsprintf + 1332
        0x0000ef8a:    e7ff        ..      B        0xef8c ; am_util_stdio_vsprintf + 1296
        0x0000ef8c:    f89d0042    ..B.    LDRB     r0,[sp,#0x42]
        0x0000ef90:    2820         (      CMP      r0,#0x20
        0x0000ef92:    d10d        ..      BNE      0xefb0 ; am_util_stdio_vsprintf + 1332
        0x0000ef94:    e7ff        ..      B        0xef96 ; am_util_stdio_vsprintf + 1306
        0x0000ef96:    981c        ..      LDR      r0,[sp,#0x70]
        0x0000ef98:    b130        0.      CBZ      r0,0xefa8 ; am_util_stdio_vsprintf + 1324
        0x0000ef9a:    e7ff        ..      B        0xef9c ; am_util_stdio_vsprintf + 1312
        0x0000ef9c:    991c        ..      LDR      r1,[sp,#0x70]
        0x0000ef9e:    1c48        H.      ADDS     r0,r1,#1
        0x0000efa0:    901c        ..      STR      r0,[sp,#0x70]
        0x0000efa2:    202d        -       MOVS     r0,#0x2d
        0x0000efa4:    7008        .p      STRB     r0,[r1,#0]
        0x0000efa6:    e7ff        ..      B        0xefa8 ; am_util_stdio_vsprintf + 1324
        0x0000efa8:    9814        ..      LDR      r0,[sp,#0x50]
        0x0000efaa:    3001        .0      ADDS     r0,#1
        0x0000efac:    9014        ..      STR      r0,[sp,#0x50]
        0x0000efae:    e7ff        ..      B        0xefb0 ; am_util_stdio_vsprintf + 1332
        0x0000efb0:    e012        ..      B        0xefd8 ; am_util_stdio_vsprintf + 1372
        0x0000efb2:    f89d003f    ..?.    LDRB     r0,[sp,#0x3f]
        0x0000efb6:    07c0        ..      LSLS     r0,r0,#31
        0x0000efb8:    b168        h.      CBZ      r0,0xefd6 ; am_util_stdio_vsprintf + 1370
        0x0000efba:    e7ff        ..      B        0xefbc ; am_util_stdio_vsprintf + 1344
        0x0000efbc:    981c        ..      LDR      r0,[sp,#0x70]
        0x0000efbe:    b130        0.      CBZ      r0,0xefce ; am_util_stdio_vsprintf + 1362
        0x0000efc0:    e7ff        ..      B        0xefc2 ; am_util_stdio_vsprintf + 1350
        0x0000efc2:    991c        ..      LDR      r1,[sp,#0x70]
        0x0000efc4:    1c48        H.      ADDS     r0,r1,#1
        0x0000efc6:    901c        ..      STR      r0,[sp,#0x70]
        0x0000efc8:    202d        -       MOVS     r0,#0x2d
        0x0000efca:    7008        .p      STRB     r0,[r1,#0]
        0x0000efcc:    e7ff        ..      B        0xefce ; am_util_stdio_vsprintf + 1362
        0x0000efce:    9814        ..      LDR      r0,[sp,#0x50]
        0x0000efd0:    3001        .0      ADDS     r0,#1
        0x0000efd2:    9014        ..      STR      r0,[sp,#0x50]
        0x0000efd4:    e7ff        ..      B        0xefd6 ; am_util_stdio_vsprintf + 1370
        0x0000efd6:    e7ff        ..      B        0xefd8 ; am_util_stdio_vsprintf + 1372
        0x0000efd8:    9818        ..      LDR      r0,[sp,#0x60]
        0x0000efda:    9919        ..      LDR      r1,[sp,#0x64]
        0x0000efdc:    9a1c        ..      LDR      r2,[sp,#0x70]
        0x0000efde:    f001f90b    ....    BL       uint64_to_str ; 0x101f8
        0x0000efe2:    9012        ..      STR      r0,[sp,#0x48]
        0x0000efe4:    981c        ..      LDR      r0,[sp,#0x70]
        0x0000efe6:    b128        (.      CBZ      r0,0xeff4 ; am_util_stdio_vsprintf + 1400
        0x0000efe8:    e7ff        ..      B        0xefea ; am_util_stdio_vsprintf + 1390
        0x0000efea:    9912        ..      LDR      r1,[sp,#0x48]
        0x0000efec:    981c        ..      LDR      r0,[sp,#0x70]
        0x0000efee:    4408        .D      ADD      r0,r0,r1
        0x0000eff0:    901c        ..      STR      r0,[sp,#0x70]
        0x0000eff2:    e7ff        ..      B        0xeff4 ; am_util_stdio_vsprintf + 1400
        0x0000eff4:    9912        ..      LDR      r1,[sp,#0x48]
        0x0000eff6:    9814        ..      LDR      r0,[sp,#0x50]
        0x0000eff8:    4408        .D      ADD      r0,r0,r1
        0x0000effa:    9014        ..      STR      r0,[sp,#0x50]
        0x0000effc:    e059        Y.      B        0xf0b2 ; am_util_stdio_vsprintf + 1590
        0x0000effe:    981c        ..      LDR      r0,[sp,#0x70]
        0x0000f000:    2800        .(      CMP      r0,#0
        0x0000f002:    d047        G.      BEQ      0xf094 ; am_util_stdio_vsprintf + 1560
        0x0000f004:    e7ff        ..      B        0xf006 ; am_util_stdio_vsprintf + 1418
        0x0000f006:    981d        ..      LDR      r0,[sp,#0x74]
        0x0000f008:    3007        .0      ADDS     r0,#7
        0x0000f00a:    f0200007     ...    BIC      r0,r0,#7
        0x0000f00e:    f1000108    ....    ADD      r1,r0,#8
        0x0000f012:    911d        ..      STR      r1,[sp,#0x74]
        0x0000f014:    ed900b00    ....    VLDR     d0,[r0,#0]
        0x0000f018:    ec510b10    Q...    VMOV     r0,r1,d0
        0x0000f01c:    f001f9b2    ....    BL       __aeabi_d2f ; 0x10384
        0x0000f020:    900d        ..      STR      r0,[sp,#0x34]
        0x0000f022:    991c        ..      LDR      r1,[sp,#0x70]
        0x0000f024:    2014        .       MOVS     r0,#0x14
        0x0000f026:    6008        .`      STR      r0,[r1,#0]
        0x0000f028:    ed9d0a0d    ....    VLDR     s0,[sp,#0x34]
        0x0000f02c:    981c        ..      LDR      r0,[sp,#0x70]
        0x0000f02e:    9911        ..      LDR      r1,[sp,#0x44]
        0x0000f030:    f000f92e    ....    BL       ftoa ; 0xf290
        0x0000f034:    9012        ..      STR      r0,[sp,#0x48]
        0x0000f036:    9812        ..      LDR      r0,[sp,#0x48]
        0x0000f038:    f1b03fff    ...?    CMP      r0,#0xffffffff
        0x0000f03c:    dc21        !.      BGT      0xf082 ; am_util_stdio_vsprintf + 1542
        0x0000f03e:    e7ff        ..      B        0xf040 ; am_util_stdio_vsprintf + 1476
        0x0000f040:    9812        ..      LDR      r0,[sp,#0x48]
        0x0000f042:    3001        .0      ADDS     r0,#1
        0x0000f044:    b930        0.      CBNZ     r0,0xf054 ; am_util_stdio_vsprintf + 1496
        0x0000f046:    e7ff        ..      B        0xf048 ; am_util_stdio_vsprintf + 1484
        0x0000f048:    f6426030    B.0`    MOV      r0,#0x2e30
        0x0000f04c:    f2c00030    ..0.    MOVT     r0,#0x30
        0x0000f050:    900c        ..      STR      r0,[sp,#0x30]
        0x0000f052:    e010        ..      B        0xf076 ; am_util_stdio_vsprintf + 1530
        0x0000f054:    9812        ..      LDR      r0,[sp,#0x48]
        0x0000f056:    3002        .0      ADDS     r0,#2
        0x0000f058:    b930        0.      CBNZ     r0,0xf068 ; am_util_stdio_vsprintf + 1516
        0x0000f05a:    e7ff        ..      B        0xf05c ; am_util_stdio_vsprintf + 1504
        0x0000f05c:    f6426023    B.#`    MOV      r0,#0x2e23
        0x0000f060:    f2c00023    ..#.    MOVT     r0,#0x23
        0x0000f064:    900c        ..      STR      r0,[sp,#0x30]
        0x0000f066:    e005        ..      B        0xf074 ; am_util_stdio_vsprintf + 1528
        0x0000f068:    f642603f    B.?`    MOV      r0,#0x2e3f
        0x0000f06c:    f2c0003f    ..?.    MOVT     r0,#0x3f
        0x0000f070:    900c        ..      STR      r0,[sp,#0x30]
        0x0000f072:    e7ff        ..      B        0xf074 ; am_util_stdio_vsprintf + 1528
        0x0000f074:    e7ff        ..      B        0xf076 ; am_util_stdio_vsprintf + 1530
        0x0000f076:    980c        ..      LDR      r0,[sp,#0x30]
        0x0000f078:    991c        ..      LDR      r1,[sp,#0x70]
        0x0000f07a:    6008        .`      STR      r0,[r1,#0]
        0x0000f07c:    2003        .       MOVS     r0,#3
        0x0000f07e:    9012        ..      STR      r0,[sp,#0x48]
        0x0000f080:    e7ff        ..      B        0xf082 ; am_util_stdio_vsprintf + 1542
        0x0000f082:    9912        ..      LDR      r1,[sp,#0x48]
        0x0000f084:    9814        ..      LDR      r0,[sp,#0x50]
        0x0000f086:    4408        .D      ADD      r0,r0,r1
        0x0000f088:    9014        ..      STR      r0,[sp,#0x50]
        0x0000f08a:    9912        ..      LDR      r1,[sp,#0x48]
        0x0000f08c:    981c        ..      LDR      r0,[sp,#0x70]
        0x0000f08e:    4408        .D      ADD      r0,r0,r1
        0x0000f090:    901c        ..      STR      r0,[sp,#0x70]
        0x0000f092:    e7ff        ..      B        0xf094 ; am_util_stdio_vsprintf + 1560
        0x0000f094:    e00d        ..      B        0xf0b2 ; am_util_stdio_vsprintf + 1590
        0x0000f096:    981c        ..      LDR      r0,[sp,#0x70]
        0x0000f098:    b138        8.      CBZ      r0,0xf0aa ; am_util_stdio_vsprintf + 1582
        0x0000f09a:    e7ff        ..      B        0xf09c ; am_util_stdio_vsprintf + 1568
        0x0000f09c:    981b        ..      LDR      r0,[sp,#0x6c]
        0x0000f09e:    7800        .x      LDRB     r0,[r0,#0]
        0x0000f0a0:    991c        ..      LDR      r1,[sp,#0x70]
        0x0000f0a2:    1c4a        J.      ADDS     r2,r1,#1
        0x0000f0a4:    921c        ..      STR      r2,[sp,#0x70]
        0x0000f0a6:    7008        .p      STRB     r0,[r1,#0]
        0x0000f0a8:    e7ff        ..      B        0xf0aa ; am_util_stdio_vsprintf + 1582
        0x0000f0aa:    9814        ..      LDR      r0,[sp,#0x50]
        0x0000f0ac:    3001        .0      ADDS     r0,#1
        0x0000f0ae:    9014        ..      STR      r0,[sp,#0x50]
        0x0000f0b0:    e7ff        ..      B        0xf0b2 ; am_util_stdio_vsprintf + 1590
        0x0000f0b2:    981b        ..      LDR      r0,[sp,#0x6c]
        0x0000f0b4:    3001        .0      ADDS     r0,#1
        0x0000f0b6:    901b        ..      STR      r0,[sp,#0x6c]
        0x0000f0b8:    f7ffbce9    ....    B.W      0xea8e ; am_util_stdio_vsprintf + 18
        0x0000f0bc:    981c        ..      LDR      r0,[sp,#0x70]
        0x0000f0be:    b120         .      CBZ      r0,0xf0ca ; am_util_stdio_vsprintf + 1614
        0x0000f0c0:    e7ff        ..      B        0xf0c2 ; am_util_stdio_vsprintf + 1606
        0x0000f0c2:    991c        ..      LDR      r1,[sp,#0x70]
        0x0000f0c4:    2000        .       MOVS     r0,#0
        0x0000f0c6:    7008        .p      STRB     r0,[r1,#0]
        0x0000f0c8:    e7ff        ..      B        0xf0ca ; am_util_stdio_vsprintf + 1614
        0x0000f0ca:    9814        ..      LDR      r0,[sp,#0x50]
        0x0000f0cc:    b01e        ..      ADD      sp,sp,#0x78
        0x0000f0ce:    bd80        ..      POP      {r7,pc}
    decstr_to_int
        0x0000f0d0:    b087        ..      SUB      sp,sp,#0x1c
        0x0000f0d2:    9006        ..      STR      r0,[sp,#0x18]
        0x0000f0d4:    9105        ..      STR      r1,[sp,#0x14]
        0x0000f0d6:    2000        .       MOVS     r0,#0
        0x0000f0d8:    f88d0013    ....    STRB     r0,[sp,#0x13]
        0x0000f0dc:    9003        ..      STR      r0,[sp,#0xc]
        0x0000f0de:    9002        ..      STR      r0,[sp,#8]
        0x0000f0e0:    9806        ..      LDR      r0,[sp,#0x18]
        0x0000f0e2:    7800        .x      LDRB     r0,[r0,#0]
        0x0000f0e4:    282d        -(      CMP      r0,#0x2d
        0x0000f0e6:    d10a        ..      BNE      0xf0fe ; decstr_to_int + 46
        0x0000f0e8:    e7ff        ..      B        0xf0ea ; decstr_to_int + 26
        0x0000f0ea:    2001        .       MOVS     r0,#1
        0x0000f0ec:    f88d0013    ....    STRB     r0,[sp,#0x13]
        0x0000f0f0:    9806        ..      LDR      r0,[sp,#0x18]
        0x0000f0f2:    3001        .0      ADDS     r0,#1
        0x0000f0f4:    9006        ..      STR      r0,[sp,#0x18]
        0x0000f0f6:    9802        ..      LDR      r0,[sp,#8]
        0x0000f0f8:    3001        .0      ADDS     r0,#1
        0x0000f0fa:    9002        ..      STR      r0,[sp,#8]
        0x0000f0fc:    e7ff        ..      B        0xf0fe ; decstr_to_int + 46
        0x0000f0fe:    e7ff        ..      B        0xf100 ; decstr_to_int + 48
        0x0000f100:    9806        ..      LDR      r0,[sp,#0x18]
        0x0000f102:    7801        .x      LDRB     r1,[r0,#0]
        0x0000f104:    2000        .       MOVS     r0,#0
        0x0000f106:    2930        0)      CMP      r1,#0x30
        0x0000f108:    9001        ..      STR      r0,[sp,#4]
        0x0000f10a:    db08        ..      BLT      0xf11e ; decstr_to_int + 78
        0x0000f10c:    e7ff        ..      B        0xf10e ; decstr_to_int + 62
        0x0000f10e:    9806        ..      LDR      r0,[sp,#0x18]
        0x0000f110:    7801        .x      LDRB     r1,[r0,#0]
        0x0000f112:    2000        .       MOVS     r0,#0
        0x0000f114:    293a        :)      CMP      r1,#0x3a
        0x0000f116:    bfb8        ..      IT       LT
        0x0000f118:    2001        .       MOVLT    r0,#1
        0x0000f11a:    9001        ..      STR      r0,[sp,#4]
        0x0000f11c:    e7ff        ..      B        0xf11e ; decstr_to_int + 78
        0x0000f11e:    9801        ..      LDR      r0,[sp,#4]
        0x0000f120:    07c0        ..      LSLS     r0,r0,#31
        0x0000f122:    b190        ..      CBZ      r0,0xf14a ; decstr_to_int + 122
        0x0000f124:    e7ff        ..      B        0xf126 ; decstr_to_int + 86
        0x0000f126:    9802        ..      LDR      r0,[sp,#8]
        0x0000f128:    3001        .0      ADDS     r0,#1
        0x0000f12a:    9002        ..      STR      r0,[sp,#8]
        0x0000f12c:    9803        ..      LDR      r0,[sp,#0xc]
        0x0000f12e:    eb000080    ....    ADD      r0,r0,r0,LSL #2
        0x0000f132:    0040        @.      LSLS     r0,r0,#1
        0x0000f134:    9003        ..      STR      r0,[sp,#0xc]
        0x0000f136:    9806        ..      LDR      r0,[sp,#0x18]
        0x0000f138:    7800        .x      LDRB     r0,[r0,#0]
        0x0000f13a:    9903        ..      LDR      r1,[sp,#0xc]
        0x0000f13c:    4408        .D      ADD      r0,r0,r1
        0x0000f13e:    3830        08      SUBS     r0,r0,#0x30
        0x0000f140:    9003        ..      STR      r0,[sp,#0xc]
        0x0000f142:    9806        ..      LDR      r0,[sp,#0x18]
        0x0000f144:    3001        .0      ADDS     r0,#1
        0x0000f146:    9006        ..      STR      r0,[sp,#0x18]
        0x0000f148:    e7da        ..      B        0xf100 ; decstr_to_int + 48
        0x0000f14a:    9805        ..      LDR      r0,[sp,#0x14]
        0x0000f14c:    b120         .      CBZ      r0,0xf158 ; decstr_to_int + 136
        0x0000f14e:    e7ff        ..      B        0xf150 ; decstr_to_int + 128
        0x0000f150:    9802        ..      LDR      r0,[sp,#8]
        0x0000f152:    9905        ..      LDR      r1,[sp,#0x14]
        0x0000f154:    6008        .`      STR      r0,[r1,#0]
        0x0000f156:    e7ff        ..      B        0xf158 ; decstr_to_int + 136
        0x0000f158:    f89d0013    ....    LDRB     r0,[sp,#0x13]
        0x0000f15c:    07c0        ..      LSLS     r0,r0,#31
        0x0000f15e:    b120         .      CBZ      r0,0xf16a ; decstr_to_int + 154
        0x0000f160:    e7ff        ..      B        0xf162 ; decstr_to_int + 146
        0x0000f162:    9803        ..      LDR      r0,[sp,#0xc]
        0x0000f164:    4240        @B      RSBS     r0,r0,#0
        0x0000f166:    9000        ..      STR      r0,[sp,#0]
        0x0000f168:    e002        ..      B        0xf170 ; decstr_to_int + 160
        0x0000f16a:    9803        ..      LDR      r0,[sp,#0xc]
        0x0000f16c:    9000        ..      STR      r0,[sp,#0]
        0x0000f16e:    e7ff        ..      B        0xf170 ; decstr_to_int + 160
        0x0000f170:    9800        ..      LDR      r0,[sp,#0]
        0x0000f172:    b007        ..      ADD      sp,sp,#0x1c
        0x0000f174:    4770        pG      BX       lr
        0x0000f176:    0000        ..      MOVS     r0,r0
    divu64_10
        0x0000f178:    b08c        ..      SUB      sp,sp,#0x30
        0x0000f17a:    9109        ..      STR      r1,[sp,#0x24]
        0x0000f17c:    9008        ..      STR      r0,[sp,#0x20]
        0x0000f17e:    9809        ..      LDR      r0,[sp,#0x24]
        0x0000f180:    2800        .(      CMP      r0,#0
        0x0000f182:    d05b        [.      BEQ      0xf23c ; divu64_10 + 196
        0x0000f184:    e7ff        ..      B        0xf186 ; divu64_10 + 14
        0x0000f186:    9b08        ..      LDR      r3,[sp,#0x20]
        0x0000f188:    9a09        ..      LDR      r2,[sp,#0x24]
        0x0000f18a:    ea5f0052    _.R.    LSRS.W   r0,r2,#1
        0x0000f18e:    ea4f0133    O.3.    RRX      r1,r3
        0x0000f192:    089b        ..      LSRS     r3,r3,#2
        0x0000f194:    ea437382    C..s    ORR      r3,r3,r2,LSL #30
        0x0000f198:    18c9        ..      ADDS     r1,r1,r3
        0x0000f19a:    eb400092    @...    ADC      r0,r0,r2,LSR #2
        0x0000f19e:    9106        ..      STR      r1,[sp,#0x18]
        0x0000f1a0:    9007        ..      STR      r0,[sp,#0x1c]
        0x0000f1a2:    9906        ..      LDR      r1,[sp,#0x18]
        0x0000f1a4:    9807        ..      LDR      r0,[sp,#0x1c]
        0x0000f1a6:    090a        ..      LSRS     r2,r1,#4
        0x0000f1a8:    ea427200    B..r    ORR      r2,r2,r0,LSL #28
        0x0000f1ac:    1889        ..      ADDS     r1,r1,r2
        0x0000f1ae:    eb401010    @...    ADC      r0,r0,r0,LSR #4
        0x0000f1b2:    9106        ..      STR      r1,[sp,#0x18]
        0x0000f1b4:    9007        ..      STR      r0,[sp,#0x1c]
        0x0000f1b6:    9906        ..      LDR      r1,[sp,#0x18]
        0x0000f1b8:    9807        ..      LDR      r0,[sp,#0x1c]
        0x0000f1ba:    0a0a        ..      LSRS     r2,r1,#8
        0x0000f1bc:    ea426200    B..b    ORR      r2,r2,r0,LSL #24
        0x0000f1c0:    1889        ..      ADDS     r1,r1,r2
        0x0000f1c2:    eb402010    @..     ADC      r0,r0,r0,LSR #8
        0x0000f1c6:    9106        ..      STR      r1,[sp,#0x18]
        0x0000f1c8:    9007        ..      STR      r0,[sp,#0x1c]
        0x0000f1ca:    9906        ..      LDR      r1,[sp,#0x18]
        0x0000f1cc:    9807        ..      LDR      r0,[sp,#0x1c]
        0x0000f1ce:    0c0a        ..      LSRS     r2,r1,#16
        0x0000f1d0:    ea424200    B..B    ORR      r2,r2,r0,LSL #16
        0x0000f1d4:    1889        ..      ADDS     r1,r1,r2
        0x0000f1d6:    eb404010    @..@    ADC      r0,r0,r0,LSR #16
        0x0000f1da:    9106        ..      STR      r1,[sp,#0x18]
        0x0000f1dc:    9007        ..      STR      r0,[sp,#0x1c]
        0x0000f1de:    9906        ..      LDR      r1,[sp,#0x18]
        0x0000f1e0:    9807        ..      LDR      r0,[sp,#0x1c]
        0x0000f1e2:    1809        ..      ADDS     r1,r1,r0
        0x0000f1e4:    f1400000    @...    ADC      r0,r0,#0
        0x0000f1e8:    9106        ..      STR      r1,[sp,#0x18]
        0x0000f1ea:    9007        ..      STR      r0,[sp,#0x1c]
        0x0000f1ec:    9806        ..      LDR      r0,[sp,#0x18]
        0x0000f1ee:    9907        ..      LDR      r1,[sp,#0x1c]
        0x0000f1f0:    08c0        ..      LSRS     r0,r0,#3
        0x0000f1f2:    ea407041    @.Ap    ORR      r0,r0,r1,LSL #29
        0x0000f1f6:    08c9        ..      LSRS     r1,r1,#3
        0x0000f1f8:    9107        ..      STR      r1,[sp,#0x1c]
        0x0000f1fa:    9006        ..      STR      r0,[sp,#0x18]
        0x0000f1fc:    9908        ..      LDR      r1,[sp,#0x20]
        0x0000f1fe:    9809        ..      LDR      r0,[sp,#0x24]
        0x0000f200:    9a06        ..      LDR      r2,[sp,#0x18]
        0x0000f202:    f8ddc01c    ....    LDR      r12,[sp,#0x1c]
        0x0000f206:    230a        .#      MOVS     r3,#0xa
        0x0000f208:    fba23203    ...2    UMULL    r3,r2,r2,r3
        0x0000f20c:    eb0c0c8c    ....    ADD      r12,r12,r12,LSL #2
        0x0000f210:    eb02024c    ..L.    ADD      r2,r2,r12,LSL #1
        0x0000f214:    1ac9        ..      SUBS     r1,r1,r3
        0x0000f216:    4190        .A      SBCS     r0,r0,r2
        0x0000f218:    9104        ..      STR      r1,[sp,#0x10]
        0x0000f21a:    9005        ..      STR      r0,[sp,#0x14]
        0x0000f21c:    9906        ..      LDR      r1,[sp,#0x18]
        0x0000f21e:    9807        ..      LDR      r0,[sp,#0x1c]
        0x0000f220:    9b04        ..      LDR      r3,[sp,#0x10]
        0x0000f222:    9a05        ..      LDR      r2,[sp,#0x14]
        0x0000f224:    3306        .3      ADDS     r3,#6
        0x0000f226:    f1420200    B...    ADC      r2,r2,#0
        0x0000f22a:    091b        ..      LSRS     r3,r3,#4
        0x0000f22c:    ea437302    C..s    ORR      r3,r3,r2,LSL #28
        0x0000f230:    18c9        ..      ADDS     r1,r1,r3
        0x0000f232:    eb401012    @...    ADC      r0,r0,r2,LSR #4
        0x0000f236:    910a        ..      STR      r1,[sp,#0x28]
        0x0000f238:    900b        ..      STR      r0,[sp,#0x2c]
        0x0000f23a:    e025        %.      B        0xf288 ; divu64_10 + 272
        0x0000f23c:    9808        ..      LDR      r0,[sp,#0x20]
        0x0000f23e:    9001        ..      STR      r0,[sp,#4]
        0x0000f240:    9901        ..      LDR      r1,[sp,#4]
        0x0000f242:    0848        H.      LSRS     r0,r1,#1
        0x0000f244:    eb000091    ....    ADD      r0,r0,r1,LSR #2
        0x0000f248:    9003        ..      STR      r0,[sp,#0xc]
        0x0000f24a:    9803        ..      LDR      r0,[sp,#0xc]
        0x0000f24c:    eb001010    ....    ADD      r0,r0,r0,LSR #4
        0x0000f250:    9003        ..      STR      r0,[sp,#0xc]
        0x0000f252:    9803        ..      LDR      r0,[sp,#0xc]
        0x0000f254:    eb002010    ...     ADD      r0,r0,r0,LSR #8
        0x0000f258:    9003        ..      STR      r0,[sp,#0xc]
        0x0000f25a:    9803        ..      LDR      r0,[sp,#0xc]
        0x0000f25c:    eb004010    ...@    ADD      r0,r0,r0,LSR #16
        0x0000f260:    9003        ..      STR      r0,[sp,#0xc]
        0x0000f262:    9803        ..      LDR      r0,[sp,#0xc]
        0x0000f264:    08c0        ..      LSRS     r0,r0,#3
        0x0000f266:    9003        ..      STR      r0,[sp,#0xc]
        0x0000f268:    9801        ..      LDR      r0,[sp,#4]
        0x0000f26a:    9903        ..      LDR      r1,[sp,#0xc]
        0x0000f26c:    eb010181    ....    ADD      r1,r1,r1,LSL #2
        0x0000f270:    eba00041    ..A.    SUB      r0,r0,r1,LSL #1
        0x0000f274:    9002        ..      STR      r0,[sp,#8]
        0x0000f276:    9803        ..      LDR      r0,[sp,#0xc]
        0x0000f278:    9902        ..      LDR      r1,[sp,#8]
        0x0000f27a:    3106        .1      ADDS     r1,#6
        0x0000f27c:    eb001011    ....    ADD      r0,r0,r1,LSR #4
        0x0000f280:    2100        .!      MOVS     r1,#0
        0x0000f282:    910b        ..      STR      r1,[sp,#0x2c]
        0x0000f284:    900a        ..      STR      r0,[sp,#0x28]
        0x0000f286:    e7ff        ..      B        0xf288 ; divu64_10 + 272
        0x0000f288:    980a        ..      LDR      r0,[sp,#0x28]
        0x0000f28a:    990b        ..      LDR      r1,[sp,#0x2c]
        0x0000f28c:    b00c        ..      ADD      sp,sp,#0x30
        0x0000f28e:    4770        pG      BX       lr
    ftoa
        0x0000f290:    b580        ..      PUSH     {r7,lr}
        0x0000f292:    b090        ..      SUB      sp,sp,#0x40
        0x0000f294:    ed8d0a0e    ....    VSTR     s0,[sp,#0x38]
        0x0000f298:    900d        ..      STR      r0,[sp,#0x34]
        0x0000f29a:    910c        ..      STR      r1,[sp,#0x30]
        0x0000f29c:    980d        ..      LDR      r0,[sp,#0x34]
        0x0000f29e:    6800        .h      LDR      r0,[r0,#0]
        0x0000f2a0:    9009        ..      STR      r0,[sp,#0x24]
        0x0000f2a2:    9809        ..      LDR      r0,[sp,#0x24]
        0x0000f2a4:    2803        .(      CMP      r0,#3
        0x0000f2a6:    dc04        ..      BGT      0xf2b2 ; ftoa + 34
        0x0000f2a8:    e7ff        ..      B        0xf2aa ; ftoa + 26
        0x0000f2aa:    f06f0002    o...    MVN      r0,#2
        0x0000f2ae:    900f        ..      STR      r0,[sp,#0x3c]
        0x0000f2b0:    e103        ..      B        0xf4ba ; ftoa + 554
        0x0000f2b2:    ed9d0a0e    ....    VLDR     s0,[sp,#0x38]
        0x0000f2b6:    eeb50a40    ..@.    VCMP.F32 s0,#0.0
        0x0000f2ba:    eef1fa10    ....    VMRS     APSR_nzcv,FPSCR
        0x0000f2be:    d109        ..      BNE      0xf2d4 ; ftoa + 68
        0x0000f2c0:    e7ff        ..      B        0xf2c2 ; ftoa + 50
        0x0000f2c2:    990d        ..      LDR      r1,[sp,#0x34]
        0x0000f2c4:    f6426030    B.0`    MOV      r0,#0x2e30
        0x0000f2c8:    f2c00030    ..0.    MOVT     r0,#0x30
        0x0000f2cc:    6008        .`      STR      r0,[r1,#0]
        0x0000f2ce:    2003        .       MOVS     r0,#3
        0x0000f2d0:    900f        ..      STR      r0,[sp,#0x3c]
        0x0000f2d2:    e0f2        ..      B        0xf4ba ; ftoa + 554
        0x0000f2d4:    980d        ..      LDR      r0,[sp,#0x34]
        0x0000f2d6:    9005        ..      STR      r0,[sp,#0x14]
        0x0000f2d8:    980e        ..      LDR      r0,[sp,#0x38]
        0x0000f2da:    900b        ..      STR      r0,[sp,#0x2c]
        0x0000f2dc:    980b        ..      LDR      r0,[sp,#0x2c]
        0x0000f2de:    0dc1        ..      LSRS     r1,r0,#23
        0x0000f2e0:    f06f007e    o.~.    MVN      r0,#0x7e
        0x0000f2e4:    fa50f081    P...    UXTAB    r0,r0,r1
        0x0000f2e8:    900a        ..      STR      r0,[sp,#0x28]
        0x0000f2ea:    980b        ..      LDR      r0,[sp,#0x2c]
        0x0000f2ec:    f4400000    @...    ORR      r0,r0,#0x800000
        0x0000f2f0:    f020407f     ..@    BIC      r0,r0,#0xff000000
        0x0000f2f4:    9008        ..      STR      r0,[sp,#0x20]
        0x0000f2f6:    2000        .       MOVS     r0,#0
        0x0000f2f8:    9006        ..      STR      r0,[sp,#0x18]
        0x0000f2fa:    9007        ..      STR      r0,[sp,#0x1c]
        0x0000f2fc:    980a        ..      LDR      r0,[sp,#0x28]
        0x0000f2fe:    281f        .(      CMP      r0,#0x1f
        0x0000f300:    db04        ..      BLT      0xf30c ; ftoa + 124
        0x0000f302:    e7ff        ..      B        0xf304 ; ftoa + 116
        0x0000f304:    f06f0001    o...    MVN      r0,#1
        0x0000f308:    900f        ..      STR      r0,[sp,#0x3c]
        0x0000f30a:    e0d6        ..      B        0xf4ba ; ftoa + 554
        0x0000f30c:    980a        ..      LDR      r0,[sp,#0x28]
        0x0000f30e:    f1100f18    ....    CMN      r0,#0x18
        0x0000f312:    dc04        ..      BGT      0xf31e ; ftoa + 142
        0x0000f314:    e7ff        ..      B        0xf316 ; ftoa + 134
        0x0000f316:    f04f30ff    O..0    MOV      r0,#0xffffffff
        0x0000f31a:    900f        ..      STR      r0,[sp,#0x3c]
        0x0000f31c:    e0cd        ..      B        0xf4ba ; ftoa + 554
        0x0000f31e:    980a        ..      LDR      r0,[sp,#0x28]
        0x0000f320:    2817        .(      CMP      r0,#0x17
        0x0000f322:    db06        ..      BLT      0xf332 ; ftoa + 162
        0x0000f324:    e7ff        ..      B        0xf326 ; ftoa + 150
        0x0000f326:    9808        ..      LDR      r0,[sp,#0x20]
        0x0000f328:    990a        ..      LDR      r1,[sp,#0x28]
        0x0000f32a:    3917        .9      SUBS     r1,r1,#0x17
        0x0000f32c:    4088        .@      LSLS     r0,r0,r1
        0x0000f32e:    9007        ..      STR      r0,[sp,#0x1c]
        0x0000f330:    e01a        ..      B        0xf368 ; ftoa + 216
        0x0000f332:    980a        ..      LDR      r0,[sp,#0x28]
        0x0000f334:    2800        .(      CMP      r0,#0
        0x0000f336:    d40e        ..      BMI      0xf356 ; ftoa + 198
        0x0000f338:    e7ff        ..      B        0xf33a ; ftoa + 170
        0x0000f33a:    9808        ..      LDR      r0,[sp,#0x20]
        0x0000f33c:    990a        ..      LDR      r1,[sp,#0x28]
        0x0000f33e:    f1c10117    ....    RSB      r1,r1,#0x17
        0x0000f342:    4108        .A      ASRS     r0,r0,r1
        0x0000f344:    9007        ..      STR      r0,[sp,#0x1c]
        0x0000f346:    9808        ..      LDR      r0,[sp,#0x20]
        0x0000f348:    990a        ..      LDR      r1,[sp,#0x28]
        0x0000f34a:    3101        .1      ADDS     r1,#1
        0x0000f34c:    4088        .@      LSLS     r0,r0,r1
        0x0000f34e:    f020407f     ..@    BIC      r0,r0,#0xff000000
        0x0000f352:    9006        ..      STR      r0,[sp,#0x18]
        0x0000f354:    e007        ..      B        0xf366 ; ftoa + 214
        0x0000f356:    9808        ..      LDR      r0,[sp,#0x20]
        0x0000f358:    f020407f     ..@    BIC      r0,r0,#0xff000000
        0x0000f35c:    990a        ..      LDR      r1,[sp,#0x28]
        0x0000f35e:    43c9        .C      MVNS     r1,r1
        0x0000f360:    40c8        .@      LSRS     r0,r0,r1
        0x0000f362:    9006        ..      STR      r0,[sp,#0x18]
        0x0000f364:    e7ff        ..      B        0xf366 ; ftoa + 214
        0x0000f366:    e7ff        ..      B        0xf368 ; ftoa + 216
        0x0000f368:    e7ff        ..      B        0xf36a ; ftoa + 218
        0x0000f36a:    e7ff        ..      B        0xf36c ; ftoa + 220
        0x0000f36c:    980b        ..      LDR      r0,[sp,#0x2c]
        0x0000f36e:    f1b03fff    ...?    CMP      r0,#0xffffffff
        0x0000f372:    dc06        ..      BGT      0xf382 ; ftoa + 242
        0x0000f374:    e7ff        ..      B        0xf376 ; ftoa + 230
        0x0000f376:    990d        ..      LDR      r1,[sp,#0x34]
        0x0000f378:    1c48        H.      ADDS     r0,r1,#1
        0x0000f37a:    900d        ..      STR      r0,[sp,#0x34]
        0x0000f37c:    202d        -       MOVS     r0,#0x2d
        0x0000f37e:    7008        .p      STRB     r0,[r1,#0]
        0x0000f380:    e7ff        ..      B        0xf382 ; ftoa + 242
        0x0000f382:    9807        ..      LDR      r0,[sp,#0x1c]
        0x0000f384:    b930        0.      CBNZ     r0,0xf394 ; ftoa + 260
        0x0000f386:    e7ff        ..      B        0xf388 ; ftoa + 248
        0x0000f388:    990d        ..      LDR      r1,[sp,#0x34]
        0x0000f38a:    1c48        H.      ADDS     r0,r1,#1
        0x0000f38c:    900d        ..      STR      r0,[sp,#0x34]
        0x0000f38e:    2030        0       MOVS     r0,#0x30
        0x0000f390:    7008        .p      STRB     r0,[r1,#0]
        0x0000f392:    e01f        ..      B        0xf3d4 ; ftoa + 324
        0x0000f394:    9807        ..      LDR      r0,[sp,#0x1c]
        0x0000f396:    2801        .(      CMP      r0,#1
        0x0000f398:    db06        ..      BLT      0xf3a8 ; ftoa + 280
        0x0000f39a:    e7ff        ..      B        0xf39c ; ftoa + 268
        0x0000f39c:    9807        ..      LDR      r0,[sp,#0x1c]
        0x0000f39e:    17c1        ..      ASRS     r1,r0,#31
        0x0000f3a0:    9a0d        ..      LDR      r2,[sp,#0x34]
        0x0000f3a2:    f000ff29    ..).    BL       uint64_to_str ; 0x101f8
        0x0000f3a6:    e00b        ..      B        0xf3c0 ; ftoa + 304
        0x0000f3a8:    990d        ..      LDR      r1,[sp,#0x34]
        0x0000f3aa:    1c48        H.      ADDS     r0,r1,#1
        0x0000f3ac:    900d        ..      STR      r0,[sp,#0x34]
        0x0000f3ae:    202d        -       MOVS     r0,#0x2d
        0x0000f3b0:    7008        .p      STRB     r0,[r1,#0]
        0x0000f3b2:    9807        ..      LDR      r0,[sp,#0x1c]
        0x0000f3b4:    4240        @B      RSBS     r0,r0,#0
        0x0000f3b6:    17c1        ..      ASRS     r1,r0,#31
        0x0000f3b8:    9a0d        ..      LDR      r2,[sp,#0x34]
        0x0000f3ba:    f000ff1d    ....    BL       uint64_to_str ; 0x101f8
        0x0000f3be:    e7ff        ..      B        0xf3c0 ; ftoa + 304
        0x0000f3c0:    e7ff        ..      B        0xf3c2 ; ftoa + 306
        0x0000f3c2:    980d        ..      LDR      r0,[sp,#0x34]
        0x0000f3c4:    7800        .x      LDRB     r0,[r0,#0]
        0x0000f3c6:    b120         .      CBZ      r0,0xf3d2 ; ftoa + 322
        0x0000f3c8:    e7ff        ..      B        0xf3ca ; ftoa + 314
        0x0000f3ca:    980d        ..      LDR      r0,[sp,#0x34]
        0x0000f3cc:    3001        .0      ADDS     r0,#1
        0x0000f3ce:    900d        ..      STR      r0,[sp,#0x34]
        0x0000f3d0:    e7f7        ..      B        0xf3c2 ; ftoa + 306
        0x0000f3d2:    e7ff        ..      B        0xf3d4 ; ftoa + 324
        0x0000f3d4:    990d        ..      LDR      r1,[sp,#0x34]
        0x0000f3d6:    1c48        H.      ADDS     r0,r1,#1
        0x0000f3d8:    900d        ..      STR      r0,[sp,#0x34]
        0x0000f3da:    202e        .       MOVS     r0,#0x2e
        0x0000f3dc:    7008        .p      STRB     r0,[r1,#0]
        0x0000f3de:    9806        ..      LDR      r0,[sp,#0x18]
        0x0000f3e0:    b930        0.      CBNZ     r0,0xf3f0 ; ftoa + 352
        0x0000f3e2:    e7ff        ..      B        0xf3e4 ; ftoa + 340
        0x0000f3e4:    990d        ..      LDR      r1,[sp,#0x34]
        0x0000f3e6:    1c48        H.      ADDS     r0,r1,#1
        0x0000f3e8:    900d        ..      STR      r0,[sp,#0x34]
        0x0000f3ea:    2030        0       MOVS     r0,#0x30
        0x0000f3ec:    7008        .p      STRB     r0,[r1,#0]
        0x0000f3ee:    e05c        \.      B        0xf4aa ; ftoa + 538
        0x0000f3f0:    9909        ..      LDR      r1,[sp,#0x24]
        0x0000f3f2:    980d        ..      LDR      r0,[sp,#0x34]
        0x0000f3f4:    9a05        ..      LDR      r2,[sp,#0x14]
        0x0000f3f6:    1a80        ..      SUBS     r0,r0,r2
        0x0000f3f8:    43c0        .C      MVNS     r0,r0
        0x0000f3fa:    4408        .D      ADD      r0,r0,r1
        0x0000f3fc:    9002        ..      STR      r0,[sp,#8]
        0x0000f3fe:    9802        ..      LDR      r0,[sp,#8]
        0x0000f400:    990c        ..      LDR      r1,[sp,#0x30]
        0x0000f402:    4288        .B      CMP      r0,r1
        0x0000f404:    dd03        ..      BLE      0xf40e ; ftoa + 382
        0x0000f406:    e7ff        ..      B        0xf408 ; ftoa + 376
        0x0000f408:    980c        ..      LDR      r0,[sp,#0x30]
        0x0000f40a:    9001        ..      STR      r0,[sp,#4]
        0x0000f40c:    e002        ..      B        0xf414 ; ftoa + 388
        0x0000f40e:    9802        ..      LDR      r0,[sp,#8]
        0x0000f410:    9001        ..      STR      r0,[sp,#4]
        0x0000f412:    e7ff        ..      B        0xf414 ; ftoa + 388
        0x0000f414:    9801        ..      LDR      r0,[sp,#4]
        0x0000f416:    9002        ..      STR      r0,[sp,#8]
        0x0000f418:    2000        .       MOVS     r0,#0
        0x0000f41a:    9003        ..      STR      r0,[sp,#0xc]
        0x0000f41c:    e7ff        ..      B        0xf41e ; ftoa + 398
        0x0000f41e:    9803        ..      LDR      r0,[sp,#0xc]
        0x0000f420:    9902        ..      LDR      r1,[sp,#8]
        0x0000f422:    4288        .B      CMP      r0,r1
        0x0000f424:    da15        ..      BGE      0xf452 ; ftoa + 450
        0x0000f426:    e7ff        ..      B        0xf428 ; ftoa + 408
        0x0000f428:    9806        ..      LDR      r0,[sp,#0x18]
        0x0000f42a:    eb000080    ....    ADD      r0,r0,r0,LSL #2
        0x0000f42e:    0040        @.      LSLS     r0,r0,#1
        0x0000f430:    9006        ..      STR      r0,[sp,#0x18]
        0x0000f432:    f89d001b    ....    LDRB     r0,[sp,#0x1b]
        0x0000f436:    3030        00      ADDS     r0,r0,#0x30
        0x0000f438:    990d        ..      LDR      r1,[sp,#0x34]
        0x0000f43a:    1c4a        J.      ADDS     r2,r1,#1
        0x0000f43c:    920d        ..      STR      r2,[sp,#0x34]
        0x0000f43e:    7008        .p      STRB     r0,[r1,#0]
        0x0000f440:    9806        ..      LDR      r0,[sp,#0x18]
        0x0000f442:    f020407f     ..@    BIC      r0,r0,#0xff000000
        0x0000f446:    9006        ..      STR      r0,[sp,#0x18]
        0x0000f448:    e7ff        ..      B        0xf44a ; ftoa + 442
        0x0000f44a:    9803        ..      LDR      r0,[sp,#0xc]
        0x0000f44c:    3001        .0      ADDS     r0,#1
        0x0000f44e:    9003        ..      STR      r0,[sp,#0xc]
        0x0000f450:    e7e5        ..      B        0xf41e ; ftoa + 398
        0x0000f452:    9806        ..      LDR      r0,[sp,#0x18]
        0x0000f454:    eb000080    ....    ADD      r0,r0,r0,LSL #2
        0x0000f458:    f34050c7    @..P    SBFX     r0,r0,#23,#8
        0x0000f45c:    2805        .(      CMP      r0,#5
        0x0000f45e:    db23        #.      BLT      0xf4a8 ; ftoa + 536
        0x0000f460:    e7ff        ..      B        0xf462 ; ftoa + 466
        0x0000f462:    980d        ..      LDR      r0,[sp,#0x34]
        0x0000f464:    3801        .8      SUBS     r0,#1
        0x0000f466:    9004        ..      STR      r0,[sp,#0x10]
        0x0000f468:    e7ff        ..      B        0xf46a ; ftoa + 474
        0x0000f46a:    9804        ..      LDR      r0,[sp,#0x10]
        0x0000f46c:    9905        ..      LDR      r1,[sp,#0x14]
        0x0000f46e:    4288        .B      CMP      r0,r1
        0x0000f470:    d319        ..      BCC      0xf4a6 ; ftoa + 534
        0x0000f472:    e7ff        ..      B        0xf474 ; ftoa + 484
        0x0000f474:    9804        ..      LDR      r0,[sp,#0x10]
        0x0000f476:    7800        .x      LDRB     r0,[r0,#0]
        0x0000f478:    282e        .(      CMP      r0,#0x2e
        0x0000f47a:    d101        ..      BNE      0xf480 ; ftoa + 496
        0x0000f47c:    e7ff        ..      B        0xf47e ; ftoa + 494
        0x0000f47e:    e00e        ..      B        0xf49e ; ftoa + 526
        0x0000f480:    9804        ..      LDR      r0,[sp,#0x10]
        0x0000f482:    7800        .x      LDRB     r0,[r0,#0]
        0x0000f484:    2839        9(      CMP      r0,#0x39
        0x0000f486:    d104        ..      BNE      0xf492 ; ftoa + 514
        0x0000f488:    e7ff        ..      B        0xf48a ; ftoa + 506
        0x0000f48a:    9904        ..      LDR      r1,[sp,#0x10]
        0x0000f48c:    2030        0       MOVS     r0,#0x30
        0x0000f48e:    7008        .p      STRB     r0,[r1,#0]
        0x0000f490:    e004        ..      B        0xf49c ; ftoa + 524
        0x0000f492:    9904        ..      LDR      r1,[sp,#0x10]
        0x0000f494:    7808        .x      LDRB     r0,[r1,#0]
        0x0000f496:    3001        .0      ADDS     r0,#1
        0x0000f498:    7008        .p      STRB     r0,[r1,#0]
        0x0000f49a:    e004        ..      B        0xf4a6 ; ftoa + 534
        0x0000f49c:    e7ff        ..      B        0xf49e ; ftoa + 526
        0x0000f49e:    9804        ..      LDR      r0,[sp,#0x10]
        0x0000f4a0:    3801        .8      SUBS     r0,#1
        0x0000f4a2:    9004        ..      STR      r0,[sp,#0x10]
        0x0000f4a4:    e7e1        ..      B        0xf46a ; ftoa + 474
        0x0000f4a6:    e7ff        ..      B        0xf4a8 ; ftoa + 536
        0x0000f4a8:    e7ff        ..      B        0xf4aa ; ftoa + 538
        0x0000f4aa:    990d        ..      LDR      r1,[sp,#0x34]
        0x0000f4ac:    2000        .       MOVS     r0,#0
        0x0000f4ae:    7008        .p      STRB     r0,[r1,#0]
        0x0000f4b0:    980d        ..      LDR      r0,[sp,#0x34]
        0x0000f4b2:    9905        ..      LDR      r1,[sp,#0x14]
        0x0000f4b4:    1a40        @.      SUBS     r0,r0,r1
        0x0000f4b6:    900f        ..      STR      r0,[sp,#0x3c]
        0x0000f4b8:    e7ff        ..      B        0xf4ba ; ftoa + 554
        0x0000f4ba:    980f        ..      LDR      r0,[sp,#0x3c]
        0x0000f4bc:    b010        ..      ADD      sp,sp,#0x40
        0x0000f4be:    bd80        ..      POP      {r7,pc}
    getStackedReg
        0x0000f4c0:    0080        ..      LSLS     r0,r0,#2
        0x0000f4c2:    1840        @.      ADDS     r0,r0,r1
        0x0000f4c4:    6800        .h      LDR      r0,[r0,#0]
        0x0000f4c6:    4770        pG      BX       lr
    hostint_handler
        0x0000f4c8:    f24101b8    A...    MOV      r1,#0x10b8
        0x0000f4cc:    f2c10101    ....    MOVT     r1,#0x1001
        0x0000f4d0:    2001        .       MOVS     r0,#1
        0x0000f4d2:    7008        .p      STRB     r0,[r1,#0]
        0x0000f4d4:    4770        pG      BX       lr
        0x0000f4d6:    0000        ..      MOVS     r0,r0
    internal_iom_reset_on_error
        0x0000f4d8:    b570        p.      PUSH     {r4-r6,lr}
        0x0000f4da:    6842        Bh      LDR      r2,[r0,#4]
        0x0000f4dc:    f2440600    D...    MOVW     r6,#0x4000
        0x0000f4e0:    f2c50600    ....    MOVT     r6,#0x5000
        0x0000f4e4:    0313        ..      LSLS     r3,r2,#12
        0x0000f4e6:    eb063402    ...4    ADD      r4,r6,r2,LSL #12
        0x0000f4ea:    f2442200    D.."    MOVW     r2,#0x4200
        0x0000f4ee:    f2c50200    ....    MOVT     r2,#0x5000
        0x0000f4f2:    f8d0c864    ..d.    LDR      r12,[r0,#0x864]
        0x0000f4f6:    58d5        .X      LDR      r5,[r2,r3]
        0x0000f4f8:    2600        .&      MOVS     r6,#0
        0x0000f4fa:    0508        ..      LSLS     r0,r1,#20
        0x0000f4fc:    50d6        .P      STR      r6,[r2,r3]
        0x0000f4fe:    d53f        ?.      BPL      0xf580 ; internal_iom_reset_on_error + 168
        0x0000f500:    f8d40280    ....    LDR      r0,[r4,#0x280]
        0x0000f504:    0780        ..      LSLS     r0,r0,#30
        0x0000f506:    d421        !.      BMI      0xf54c ; internal_iom_reset_on_error + 116
        0x0000f508:    f8d402b4    ....    LDR      r0,[r4,#0x2b4]
        0x0000f50c:    0780        ..      LSLS     r0,r0,#30
        0x0000f50e:    d507        ..      BPL      0xf520 ; internal_iom_reset_on_error + 72
        0x0000f510:    f8d40100    ....    LDR      r0,[r4,#0x100]
        0x0000f514:    f4100f7c    ..|.    TST      r0,#0xfc0000
        0x0000f518:    d0f6        ..      BEQ      0xf508 ; internal_iom_reset_on_error + 48
        0x0000f51a:    f8d40108    ....    LDR      r0,[r4,#0x108]
        0x0000f51e:    e7f7        ..      B        0xf510 ; internal_iom_reset_on_error + 56
        0x0000f520:    f8d402b4    ....    LDR      r0,[r4,#0x2b4]
        0x0000f524:    f0000006    ....    AND      r0,r0,#6
        0x0000f528:    2804        .(      CMP      r0,#4
        0x0000f52a:    d1f9        ..      BNE      0xf520 ; internal_iom_reset_on_error + 72
        0x0000f52c:    e008        ..      B        0xf540 ; internal_iom_reset_on_error + 104
        0x0000f52e:    bf00        ..      NOP      
        0x0000f530:    f8d40100    ....    LDR      r0,[r4,#0x100]
        0x0000f534:    f4100f7c    ..|.    TST      r0,#0xfc0000
        0x0000f538:    d002        ..      BEQ      0xf540 ; internal_iom_reset_on_error + 104
        0x0000f53a:    f8d40108    ....    LDR      r0,[r4,#0x108]
        0x0000f53e:    e7f7        ..      B        0xf530 ; internal_iom_reset_on_error + 88
        0x0000f540:    f8d40100    ....    LDR      r0,[r4,#0x100]
        0x0000f544:    f4100f7f    ....    TST      r0,#0xff0000
        0x0000f548:    d1f2        ..      BNE      0xf530 ; internal_iom_reset_on_error + 88
        0x0000f54a:    e019        ..      B        0xf580 ; internal_iom_reset_on_error + 168
        0x0000f54c:    f8d42288    ..."    LDR      r2,[r4,#0x288]
        0x0000f550:    b182        ..      CBZ      r2,0xf574 ; internal_iom_reset_on_error + 156
        0x0000f552:    f64b63ef    K..c    MOV      r3,#0xbeef
        0x0000f556:    f6cd63ad    ...c    MOVT     r3,#0xdead
        0x0000f55a:    bf00        ..      NOP      
        0x0000f55c:    f8d40100    ....    LDR      r0,[r4,#0x100]
        0x0000f560:    f4104f7c    ..|O    TST      r0,#0xfc00
        0x0000f564:    d0fa        ..      BEQ      0xf55c ; internal_iom_reset_on_error + 132
        0x0000f566:    2a05        .*      CMP      r2,#5
        0x0000f568:    f8c4310c    ...1    STR      r3,[r4,#0x10c]
        0x0000f56c:    d302        ..      BCC      0xf574 ; internal_iom_reset_on_error + 156
        0x0000f56e:    3a04        .:      SUBS     r2,#4
        0x0000f570:    e7f4        ..      B        0xf55c ; internal_iom_reset_on_error + 132
        0x0000f572:    bf00        ..      NOP      
        0x0000f574:    f8d402b4    ....    LDR      r0,[r4,#0x2b4]
        0x0000f578:    f0000006    ....    AND      r0,r0,#6
        0x0000f57c:    2804        .(      CMP      r0,#4
        0x0000f57e:    d1f9        ..      BNE      0xf574 ; internal_iom_reset_on_error + 156
        0x0000f580:    f4117f04    ....    TST      r1,#0x210
        0x0000f584:    d02c        ,.      BEQ      0xf5e0 ; internal_iom_reset_on_error + 264
        0x0000f586:    f8d46410    ...d    LDR      r6,[r4,#0x410]
        0x0000f58a:    ea4f004c    O.L.    LSL      r0,r12,#1
        0x0000f58e:    bf00        ..      NOP      
        0x0000f590:    f8d412b4    ....    LDR      r1,[r4,#0x2b4]
        0x0000f594:    f0010106    ....    AND      r1,r1,#6
        0x0000f598:    2904        .)      CMP      r1,#4
        0x0000f59a:    d1f9        ..      BNE      0xf590 ; internal_iom_reset_on_error + 184
        0x0000f59c:    f8d41214    ....    LDR      r1,[r4,#0x214]
        0x0000f5a0:    f0210110    !...    BIC      r1,r1,#0x10
        0x0000f5a4:    f8c41214    ....    STR      r1,[r4,#0x214]
        0x0000f5a8:    f8d41110    ....    LDR      r1,[r4,#0x110]
        0x0000f5ac:    f0210102    !...    BIC      r1,r1,#2
        0x0000f5b0:    f8c41110    ....    STR      r1,[r4,#0x110]
        0x0000f5b4:    f8d41410    ....    LDR      r1,[r4,#0x410]
        0x0000f5b8:    f0410102    A...    ORR      r1,r1,#2
        0x0000f5bc:    f8c41410    ....    STR      r1,[r4,#0x410]
        0x0000f5c0:    f7fdfbf6    ....    BL       am_hal_flash_delay ; 0xcdb0
        0x0000f5c4:    f8c46410    ...d    STR      r6,[r4,#0x410]
        0x0000f5c8:    f8d40110    ....    LDR      r0,[r4,#0x110]
        0x0000f5cc:    f0400002    @...    ORR      r0,r0,#2
        0x0000f5d0:    f8c40110    ....    STR      r0,[r4,#0x110]
        0x0000f5d4:    f8d40214    ....    LDR      r0,[r4,#0x214]
        0x0000f5d8:    f0400010    @...    ORR      r0,r0,#0x10
        0x0000f5dc:    f8c40214    ....    STR      r0,[r4,#0x214]
        0x0000f5e0:    f04f30ff    O..0    MOV      r0,#0xffffffff
        0x0000f5e4:    f8c40208    ....    STR      r0,[r4,#0x208]
        0x0000f5e8:    f8c45200    ...R    STR      r5,[r4,#0x200]
        0x0000f5ec:    bd70        p.      POP      {r4-r6,pc}
        0x0000f5ee:    0000        ..      MOVS     r0,r0
    iom_set_up
        0x0000f5f0:    b580        ..      PUSH     {r7,lr}
        0x0000f5f2:    b088        ..      SUB      sp,sp,#0x20
        0x0000f5f4:    9007        ..      STR      r0,[sp,#0x1c]
        0x0000f5f6:    f88d101b    ....    STRB     r1,[sp,#0x1b]
        0x0000f5fa:    9807        ..      LDR      r0,[sp,#0x1c]
        0x0000f5fc:    f2414178    A.xA    MOV      r1,#0x1478
        0x0000f600:    f2c10101    ....    MOVT     r1,#0x1001
        0x0000f604:    9101        ..      STR      r1,[sp,#4]
        0x0000f606:    f7fefa30    ..0.    BL       am_hal_iom_initialize ; 0xda6a
        0x0000f60a:    9801        ..      LDR      r0,[sp,#4]
        0x0000f60c:    6800        .h      LDR      r0,[r0,#0]
        0x0000f60e:    2200        ."      MOVS     r2,#0
        0x0000f610:    4611        .F      MOV      r1,r2
        0x0000f612:    f7fefa4e    ..N.    BL       am_hal_iom_power_ctrl ; 0xdab2
        0x0000f616:    f89d001b    ....    LDRB     r0,[sp,#0x1b]
        0x0000f61a:    07c0        ..      LSLS     r0,r0,#31
        0x0000f61c:    b180        ..      CBZ      r0,0xf640 ; iom_set_up + 80
        0x0000f61e:    e7ff        ..      B        0xf620 ; iom_set_up + 48
        0x0000f620:    f2414078    A.x@    MOV      r0,#0x1478
        0x0000f624:    f2c10001    ....    MOVT     r0,#0x1001
        0x0000f628:    6800        .h      LDR      r0,[r0,#0]
        0x0000f62a:    f2410140    A.@.    MOVW     r1,#0x1040
        0x0000f62e:    f2c10101    ....    MOVT     r1,#0x1001
        0x0000f632:    f7fef871    ..q.    BL       am_hal_iom_configure ; 0xd718
        0x0000f636:    9807        ..      LDR      r0,[sp,#0x1c]
        0x0000f638:    2100        .!      MOVS     r1,#0
        0x0000f63a:    f7fcff27    ..'.    BL       am_bsp_iom_pins_enable ; 0xc48c
        0x0000f63e:    e00f        ..      B        0xf660 ; iom_set_up + 112
        0x0000f640:    f2414078    A.x@    MOV      r0,#0x1478
        0x0000f644:    f2c10001    ....    MOVT     r0,#0x1001
        0x0000f648:    6800        .h      LDR      r0,[r0,#0]
        0x0000f64a:    f241012c    A.,.    MOV      r1,#0x102c
        0x0000f64e:    f2c10101    ....    MOVT     r1,#0x1001
        0x0000f652:    f7fef861    ..a.    BL       am_hal_iom_configure ; 0xd718
        0x0000f656:    9807        ..      LDR      r0,[sp,#0x1c]
        0x0000f658:    2101        .!      MOVS     r1,#1
        0x0000f65a:    f7fcff17    ....    BL       am_bsp_iom_pins_enable ; 0xc48c
        0x0000f65e:    e7ff        ..      B        0xf660 ; iom_set_up + 112
        0x0000f660:    f2414078    A.x@    MOV      r0,#0x1478
        0x0000f664:    f2c10001    ....    MOVT     r0,#0x1001
        0x0000f668:    6800        .h      LDR      r0,[r0,#0]
        0x0000f66a:    f7fef9a7    ....    BL       am_hal_iom_enable ; 0xd9bc
        0x0000f66e:    f2410028    A.(.    MOV      r0,#0x1028
        0x0000f672:    f2c10001    ....    MOVT     r0,#0x1001
        0x0000f676:    6801        .h      LDR      r1,[r0,#0]
        0x0000f678:    2002        .       MOVS     r0,#2
        0x0000f67a:    9000        ..      STR      r0,[sp,#0]
        0x0000f67c:    f7fdfd00    ....    BL       am_hal_gpio_pinconfig ; 0xd080
        0x0000f680:    9900        ..      LDR      r1,[sp,#0]
        0x0000f682:    a803        ..      ADD      r0,sp,#0xc
        0x0000f684:    9002        ..      STR      r0,[sp,#8]
        0x0000f686:    2000        .       MOVS     r0,#0
        0x0000f688:    9005        ..      STR      r0,[sp,#0x14]
        0x0000f68a:    9004        ..      STR      r0,[sp,#0x10]
        0x0000f68c:    9003        ..      STR      r0,[sp,#0xc]
        0x0000f68e:    9802        ..      LDR      r0,[sp,#8]
        0x0000f690:    f7fcfe88    ....    BL       AM_HAL_GPIO_MASKBIT ; 0xc3a4
        0x0000f694:    f7fdfc1f    ....    BL       am_hal_gpio_interrupt_clear ; 0xced6
        0x0000f698:    9800        ..      LDR      r0,[sp,#0]
        0x0000f69a:    f24f41c9    O..A    MOV      r1,#0xf4c9
        0x0000f69e:    f2c00100    ....    MOVT     r1,#0
        0x0000f6a2:    f7fdfc61    ..a.    BL       am_hal_gpio_interrupt_register ; 0xcf68
        0x0000f6a6:    9900        ..      LDR      r1,[sp,#0]
        0x0000f6a8:    9802        ..      LDR      r0,[sp,#8]
        0x0000f6aa:    f7fcfe7b    ..{.    BL       AM_HAL_GPIO_MASKBIT ; 0xc3a4
        0x0000f6ae:    f7fdfc38    ..8.    BL       am_hal_gpio_interrupt_enable ; 0xcf22
        0x0000f6b2:    200d        .       MOVS     r0,#0xd
        0x0000f6b4:    f7fcfed2    ....    BL       __NVIC_EnableIRQ ; 0xc45c
        0x0000f6b8:    b008        ..      ADD      sp,sp,#0x20
        0x0000f6ba:    bd80        ..      POP      {r7,pc}
    iom_slave_read
        0x0000f6bc:    b580        ..      PUSH     {r7,lr}
        0x0000f6be:    b08e        ..      SUB      sp,sp,#0x38
        0x0000f6c0:    f88d0037    ..7.    STRB     r0,[sp,#0x37]
        0x0000f6c4:    910c        ..      STR      r1,[sp,#0x30]
        0x0000f6c6:    920b        ..      STR      r2,[sp,#0x2c]
        0x0000f6c8:    930a        ..      STR      r3,[sp,#0x28]
        0x0000f6ca:    2001        .       MOVS     r0,#1
        0x0000f6cc:    9001        ..      STR      r0,[sp,#4]
        0x0000f6ce:    990c        ..      LDR      r1,[sp,#0x30]
        0x0000f6d0:    9102        ..      STR      r1,[sp,#8]
        0x0000f6d2:    f88d0010    ....    STRB     r0,[sp,#0x10]
        0x0000f6d6:    980a        ..      LDR      r0,[sp,#0x28]
        0x0000f6d8:    9003        ..      STR      r0,[sp,#0xc]
        0x0000f6da:    980b        ..      LDR      r0,[sp,#0x2c]
        0x0000f6dc:    9006        ..      STR      r0,[sp,#0x18]
        0x0000f6de:    2000        .       MOVS     r0,#0
        0x0000f6e0:    f88d001c    ....    STRB     r0,[sp,#0x1c]
        0x0000f6e4:    f88d001d    ....    STRB     r0,[sp,#0x1d]
        0x0000f6e8:    9008        ..      STR      r0,[sp,#0x20]
        0x0000f6ea:    9009        ..      STR      r0,[sp,#0x24]
        0x0000f6ec:    f89d0037    ..7.    LDRB     r0,[sp,#0x37]
        0x0000f6f0:    07c0        ..      LSLS     r0,r0,#31
        0x0000f6f2:    b118        ..      CBZ      r0,0xf6fc ; iom_slave_read + 64
        0x0000f6f4:    e7ff        ..      B        0xf6f6 ; iom_slave_read + 58
        0x0000f6f6:    2000        .       MOVS     r0,#0
        0x0000f6f8:    9000        ..      STR      r0,[sp,#0]
        0x0000f6fa:    e002        ..      B        0xf702 ; iom_slave_read + 70
        0x0000f6fc:    2020                MOVS     r0,#0x20
        0x0000f6fe:    9000        ..      STR      r0,[sp,#0]
        0x0000f700:    e7ff        ..      B        0xf702 ; iom_slave_read + 70
        0x0000f702:    f2414078    A.x@    MOV      r0,#0x1478
        0x0000f706:    f2c10001    ....    MOVT     r0,#0x1001
        0x0000f70a:    6800        .h      LDR      r0,[r0,#0]
        0x0000f70c:    4669        iF      MOV      r1,sp
        0x0000f70e:    f7fdfe71    ..q.    BL       am_hal_iom_blocking_transfer ; 0xd3f4
        0x0000f712:    b00e        ..      ADD      sp,sp,#0x38
        0x0000f714:    bd80        ..      POP      {r7,pc}
        0x0000f716:    0000        ..      MOVS     r0,r0
    iom_slave_write
        0x0000f718:    b580        ..      PUSH     {r7,lr}
        0x0000f71a:    b08e        ..      SUB      sp,sp,#0x38
        0x0000f71c:    f88d0037    ..7.    STRB     r0,[sp,#0x37]
        0x0000f720:    910c        ..      STR      r1,[sp,#0x30]
        0x0000f722:    920b        ..      STR      r2,[sp,#0x2c]
        0x0000f724:    930a        ..      STR      r3,[sp,#0x28]
        0x0000f726:    2001        .       MOVS     r0,#1
        0x0000f728:    9001        ..      STR      r0,[sp,#4]
        0x0000f72a:    980c        ..      LDR      r0,[sp,#0x30]
        0x0000f72c:    9002        ..      STR      r0,[sp,#8]
        0x0000f72e:    2000        .       MOVS     r0,#0
        0x0000f730:    f88d0010    ....    STRB     r0,[sp,#0x10]
        0x0000f734:    990a        ..      LDR      r1,[sp,#0x28]
        0x0000f736:    9103        ..      STR      r1,[sp,#0xc]
        0x0000f738:    990b        ..      LDR      r1,[sp,#0x2c]
        0x0000f73a:    9105        ..      STR      r1,[sp,#0x14]
        0x0000f73c:    f88d001c    ....    STRB     r0,[sp,#0x1c]
        0x0000f740:    f88d001d    ....    STRB     r0,[sp,#0x1d]
        0x0000f744:    9008        ..      STR      r0,[sp,#0x20]
        0x0000f746:    9009        ..      STR      r0,[sp,#0x24]
        0x0000f748:    f89d0037    ..7.    LDRB     r0,[sp,#0x37]
        0x0000f74c:    07c0        ..      LSLS     r0,r0,#31
        0x0000f74e:    b118        ..      CBZ      r0,0xf758 ; iom_slave_write + 64
        0x0000f750:    e7ff        ..      B        0xf752 ; iom_slave_write + 58
        0x0000f752:    2000        .       MOVS     r0,#0
        0x0000f754:    9000        ..      STR      r0,[sp,#0]
        0x0000f756:    e002        ..      B        0xf75e ; iom_slave_write + 70
        0x0000f758:    2020                MOVS     r0,#0x20
        0x0000f75a:    9000        ..      STR      r0,[sp,#0]
        0x0000f75c:    e7ff        ..      B        0xf75e ; iom_slave_write + 70
        0x0000f75e:    f2414078    A.x@    MOV      r0,#0x1478
        0x0000f762:    f2c10001    ....    MOVT     r0,#0x1001
        0x0000f766:    6800        .h      LDR      r0,[r0,#0]
        0x0000f768:    4669        iF      MOV      r1,sp
        0x0000f76a:    f7fdfe43    ..C.    BL       am_hal_iom_blocking_transfer ; 0xd3f4
        0x0000f76e:    b00e        ..      ADD      sp,sp,#0x38
        0x0000f770:    bd80        ..      POP      {r7,pc}
        0x0000f772:    0000        ..      MOVS     r0,r0
    main
        0x0000f774:    b580        ..      PUSH     {r7,lr}
        0x0000f776:    b09a        ..      SUB      sp,sp,#0x68
        0x0000f778:    2100        .!      MOVS     r1,#0
        0x0000f77a:    9119        ..      STR      r1,[sp,#0x64]
        0x0000f77c:    9112        ..      STR      r1,[sp,#0x48]
        0x0000f77e:    4608        .F      MOV      r0,r1
        0x0000f780:    f7fdf924    ..$.    BL       am_hal_clkgen_control ; 0xc9cc
        0x0000f784:    f7fcffde    ....    BL       am_bsp_low_power_init ; 0xc744
        0x0000f788:    f7fcfe2a    ..*.    BL       USE_SPI_get ; 0xc3e0
        0x0000f78c:    f88d0063    ..c.    STRB     r0,[sp,#0x63]
        0x0000f790:    f89d0063    ..c.    LDRB     r0,[sp,#0x63]
        0x0000f794:    07c1        ..      LSLS     r1,r0,#31
        0x0000f796:    20ff        .       MOVS     r0,#0xff
        0x0000f798:    2900        .)      CMP      r1,#0
        0x0000f79a:    bf18        ..      IT       NE
        0x0000f79c:    f24030ff    @..0    MOVNE    r0,#0x3ff
        0x0000f7a0:    9017        ..      STR      r0,[sp,#0x5c]
        0x0000f7a2:    f7fcffac    ....    BL       am_bsp_itm_printf_enable ; 0xc6fe
        0x0000f7a6:    f64020ee    @..     MOV      r0,#0xaee
        0x0000f7aa:    f2c00001    ....    MOVT     r0,#1
        0x0000f7ae:    f7fff92d    ..-.    BL       am_util_stdio_printf ; 0xea0c
        0x0000f7b2:    f89d0063    ..c.    LDRB     r0,[sp,#0x63]
        0x0000f7b6:    07c0        ..      LSLS     r0,r0,#31
        0x0000f7b8:    b1c0        ..      CBZ      r0,0xf7ec ; main + 120
        0x0000f7ba:    e7ff        ..      B        0xf7bc ; main + 72
        0x0000f7bc:    f2410040    A.@.    MOVW     r0,#0x1040
        0x0000f7c0:    f2c10001    ....    MOVT     r0,#0x1001
        0x0000f7c4:    6840        @h      LDR      r0,[r0,#4]
        0x0000f7c6:    f64d6183    M..a    MOV      r1,#0xde83
        0x0000f7ca:    f2c4311b    ...1    MOVT     r1,#0x431b
        0x0000f7ce:    fba02101    ...!    UMULL    r2,r1,r0,r1
        0x0000f7d2:    0c89        ..      LSRS     r1,r1,#18
        0x0000f7d4:    f6435209    C..R    MOV      r2,#0x3d09
        0x0000f7d8:    434a        JC      MULS     r2,r1,r2
        0x0000f7da:    eba01282    ....    SUB      r2,r0,r2,LSL #6
        0x0000f7de:    f6403073    @.s0    MOV      r0,#0xb73
        0x0000f7e2:    f2c00001    ....    MOVT     r0,#1
        0x0000f7e6:    f7fff911    ....    BL       am_util_stdio_printf ; 0xea0c
        0x0000f7ea:    e017        ..      B        0xf81c ; main + 168
        0x0000f7ec:    f241002c    A.,.    MOV      r0,#0x102c
        0x0000f7f0:    f2c10001    ....    MOVT     r0,#0x1001
        0x0000f7f4:    6840        @h      LDR      r0,[r0,#4]
        0x0000f7f6:    f64d6183    M..a    MOV      r1,#0xde83
        0x0000f7fa:    f2c4311b    ...1    MOVT     r1,#0x431b
        0x0000f7fe:    fba02101    ...!    UMULL    r2,r1,r0,r1
        0x0000f802:    0c89        ..      LSRS     r1,r1,#18
        0x0000f804:    f6435209    C..R    MOV      r2,#0x3d09
        0x0000f808:    434a        JC      MULS     r2,r1,r2
        0x0000f80a:    eba01282    ....    SUB      r2,r0,r2,LSL #6
        0x0000f80e:    f640305c    @.\0    MOV      r0,#0xb5c
        0x0000f812:    f2c00001    ....    MOVT     r0,#1
        0x0000f816:    f7fff8f9    ....    BL       am_util_stdio_printf ; 0xea0c
        0x0000f81a:    e7ff        ..      B        0xf81c ; main + 168
        0x0000f81c:    2000        .       MOVS     r0,#0
        0x0000f81e:    9007        ..      STR      r0,[sp,#0x1c]
        0x0000f820:    f000fbd8    ....    BL       start_boot_mode ; 0xffd4
        0x0000f824:    9807        ..      LDR      r0,[sp,#0x1c]
        0x0000f826:    f89d1063    ..c.    LDRB     r1,[sp,#0x63]
        0x0000f82a:    f0010101    ....    AND      r1,r1,#1
        0x0000f82e:    f7fffedf    ....    BL       iom_set_up ; 0xf5f0
        0x0000f832:    9807        ..      LDR      r0,[sp,#0x1c]
        0x0000f834:    f000fc38    ..8.    BL       uart_set_up ; 0x100a8
        0x0000f838:    2001        .       MOVS     r0,#1
        0x0000f83a:    f000fbcb    ....    BL       start_boot_mode ; 0xffd4
        0x0000f83e:    e7ff        ..      B        0xf840 ; main + 204
        0x0000f840:    f24100b8    A...    MOV      r0,#0x10b8
        0x0000f844:    f2c10001    ....    MOVT     r0,#0x1001
        0x0000f848:    7800        .x      LDRB     r0,[r0,#0]
        0x0000f84a:    07c0        ..      LSLS     r0,r0,#31
        0x0000f84c:    b908        ..      CBNZ     r0,0xf852 ; main + 222
        0x0000f84e:    e7ff        ..      B        0xf850 ; main + 220
        0x0000f850:    e7f6        ..      B        0xf840 ; main + 204
        0x0000f852:    f24101b8    A...    MOV      r1,#0x10b8
        0x0000f856:    f2c10101    ....    MOVT     r1,#0x1001
        0x0000f85a:    2000        .       MOVS     r0,#0
        0x0000f85c:    7008        .p      STRB     r0,[r1,#0]
        0x0000f85e:    2001        .       MOVS     r0,#1
        0x0000f860:    f7fff83a    ..:.    BL       am_util_delay_ms ; 0xe8d8
        0x0000f864:    f89d0063    ..c.    LDRB     r0,[sp,#0x63]
        0x0000f868:    f0000001    ....    AND      r0,r0,#1
        0x0000f86c:    f000fad8    ....    BL       send_hello ; 0xfe20
        0x0000f870:    e7ff        ..      B        0xf872 ; main + 254
        0x0000f872:    f24100b8    A...    MOV      r0,#0x10b8
        0x0000f876:    f2c10001    ....    MOVT     r0,#0x1001
        0x0000f87a:    7800        .x      LDRB     r0,[r0,#0]
        0x0000f87c:    07c0        ..      LSLS     r0,r0,#31
        0x0000f87e:    b908        ..      CBNZ     r0,0xf884 ; main + 272
        0x0000f880:    e7ff        ..      B        0xf882 ; main + 270
        0x0000f882:    e7f6        ..      B        0xf872 ; main + 254
        0x0000f884:    f24101b8    A...    MOV      r1,#0x10b8
        0x0000f888:    f2c10101    ....    MOVT     r1,#0x1001
        0x0000f88c:    2000        .       MOVS     r0,#0
        0x0000f88e:    7008        .p      STRB     r0,[r1,#0]
        0x0000f890:    2008        .       MOVS     r0,#8
        0x0000f892:    9015        ..      STR      r0,[sp,#0x54]
        0x0000f894:    9b15        ..      LDR      r3,[sp,#0x54]
        0x0000f896:    f89d0063    ..c.    LDRB     r0,[sp,#0x63]
        0x0000f89a:    f0000001    ....    AND      r0,r0,#1
        0x0000f89e:    f64452a4    D..R    MOV      r2,#0x4da4
        0x0000f8a2:    f2c10201    ....    MOVT     r2,#0x1001
        0x0000f8a6:    9205        ..      STR      r2,[sp,#0x14]
        0x0000f8a8:    217f        .!      MOVS     r1,#0x7f
        0x0000f8aa:    9106        ..      STR      r1,[sp,#0x18]
        0x0000f8ac:    f7ffff06    ....    BL       iom_slave_read ; 0xf6bc
        0x0000f8b0:    9805        ..      LDR      r0,[sp,#0x14]
        0x0000f8b2:    9906        ..      LDR      r1,[sp,#0x18]
        0x0000f8b4:    88c2        ..      LDRH     r2,[r0,#6]
        0x0000f8b6:    9216        ..      STR      r2,[sp,#0x58]
        0x0000f8b8:    9b15        ..      LDR      r3,[sp,#0x54]
        0x0000f8ba:    18c2        ..      ADDS     r2,r0,r3
        0x0000f8bc:    9816        ..      LDR      r0,[sp,#0x58]
        0x0000f8be:    1ac3        ..      SUBS     r3,r0,r3
        0x0000f8c0:    f89d0063    ..c.    LDRB     r0,[sp,#0x63]
        0x0000f8c4:    f0000001    ....    AND      r0,r0,#1
        0x0000f8c8:    f7fffef8    ....    BL       iom_slave_read ; 0xf6bc
        0x0000f8cc:    e7ff        ..      B        0xf8ce ; main + 346
        0x0000f8ce:    f24100b8    A...    MOV      r0,#0x10b8
        0x0000f8d2:    f2c10001    ....    MOVT     r0,#0x1001
        0x0000f8d6:    7800        .x      LDRB     r0,[r0,#0]
        0x0000f8d8:    07c0        ..      LSLS     r0,r0,#31
        0x0000f8da:    2800        .(      CMP      r0,#0
        0x0000f8dc:    d043        C.      BEQ      0xf966 ; main + 498
        0x0000f8de:    e7ff        ..      B        0xf8e0 ; main + 364
        0x0000f8e0:    f24101b8    A...    MOV      r1,#0x10b8
        0x0000f8e4:    f2c10101    ....    MOVT     r1,#0x1001
        0x0000f8e8:    2000        .       MOVS     r0,#0
        0x0000f8ea:    7008        .p      STRB     r0,[r1,#0]
        0x0000f8ec:    f89d0063    ..c.    LDRB     r0,[sp,#0x63]
        0x0000f8f0:    f0000001    ....    AND      r0,r0,#1
        0x0000f8f4:    217c        |!      MOVS     r1,#0x7c
        0x0000f8f6:    aa16        ..      ADD      r2,sp,#0x58
        0x0000f8f8:    2302        .#      MOVS     r3,#2
        0x0000f8fa:    f7fffedf    ....    BL       iom_slave_read ; 0xf6bc
        0x0000f8fe:    9816        ..      LDR      r0,[sp,#0x58]
        0x0000f900:    9917        ..      LDR      r1,[sp,#0x5c]
        0x0000f902:    4288        .B      CMP      r0,r1
        0x0000f904:    d903        ..      BLS      0xf90e ; main + 410
        0x0000f906:    e7ff        ..      B        0xf908 ; main + 404
        0x0000f908:    9817        ..      LDR      r0,[sp,#0x5c]
        0x0000f90a:    9004        ..      STR      r0,[sp,#0x10]
        0x0000f90c:    e002        ..      B        0xf914 ; main + 416
        0x0000f90e:    9816        ..      LDR      r0,[sp,#0x58]
        0x0000f910:    9004        ..      STR      r0,[sp,#0x10]
        0x0000f912:    e7ff        ..      B        0xf914 ; main + 416
        0x0000f914:    9804        ..      LDR      r0,[sp,#0x10]
        0x0000f916:    9016        ..      STR      r0,[sp,#0x58]
        0x0000f918:    9816        ..      LDR      r0,[sp,#0x58]
        0x0000f91a:    b318        ..      CBZ      r0,0xf964 ; main + 496
        0x0000f91c:    e7ff        ..      B        0xf91e ; main + 426
        0x0000f91e:    9b16        ..      LDR      r3,[sp,#0x58]
        0x0000f920:    f89d0063    ..c.    LDRB     r0,[sp,#0x63]
        0x0000f924:    f0000001    ....    AND      r0,r0,#1
        0x0000f928:    f64452a4    D..R    MOV      r2,#0x4da4
        0x0000f92c:    f2c10201    ....    MOVT     r2,#0x1001
        0x0000f930:    9203        ..      STR      r2,[sp,#0xc]
        0x0000f932:    217f        .!      MOVS     r1,#0x7f
        0x0000f934:    f7fffec2    ....    BL       iom_slave_read ; 0xf6bc
        0x0000f938:    9903        ..      LDR      r1,[sp,#0xc]
        0x0000f93a:    2000        .       MOVS     r0,#0
        0x0000f93c:    900d        ..      STR      r0,[sp,#0x34]
        0x0000f93e:    910e        ..      STR      r1,[sp,#0x38]
        0x0000f940:    9916        ..      LDR      r1,[sp,#0x58]
        0x0000f942:    910f        ..      STR      r1,[sp,#0x3c]
        0x0000f944:    f04f31ff    O..1    MOV      r1,#0xffffffff
        0x0000f948:    9110        ..      STR      r1,[sp,#0x40]
        0x0000f94a:    9011        ..      STR      r0,[sp,#0x44]
        0x0000f94c:    f24b50a4    K..P    MOV      r0,#0xb5a4
        0x0000f950:    f2c10001    ....    MOVT     r0,#0x1001
        0x0000f954:    6800        .h      LDR      r0,[r0,#0]
        0x0000f956:    a90d        ..      ADD      r1,sp,#0x34
        0x0000f958:    f7fefee2    ....    BL       am_hal_uart_transfer ; 0xe720
        0x0000f95c:    2001        .       MOVS     r0,#1
        0x0000f95e:    f7feffbb    ....    BL       am_util_delay_ms ; 0xe8d8
        0x0000f962:    e7ff        ..      B        0xf964 ; main + 496
        0x0000f964:    e157        W.      B        0xfc16 ; main + 1186
        0x0000f966:    f644109c    D...    MOV      r0,#0x499c
        0x0000f96a:    f2c10001    ....    MOVT     r0,#0x1001
        0x0000f96e:    7800        .x      LDRB     r0,[r0,#0]
        0x0000f970:    07c0        ..      LSLS     r0,r0,#31
        0x0000f972:    2800        .(      CMP      r0,#0
        0x0000f974:    f000814e    ..N.    BEQ.W    0xfc14 ; main + 1184
        0x0000f978:    e7ff        ..      B        0xf97a ; main + 518
        0x0000f97a:    f24b50ac    K..P    MOV      r0,#0xb5ac
        0x0000f97e:    f2c10001    ....    MOVT     r0,#0x1001
        0x0000f982:    6801        .h      LDR      r1,[r0,#0]
        0x0000f984:    f64020d6    @..     MOV      r0,#0xad6
        0x0000f988:    f2c00001    ....    MOVT     r0,#1
        0x0000f98c:    f000f99a    ....    BL       no_print ; 0xfcc4
        0x0000f990:    2000        .       MOVS     r0,#0
        0x0000f992:    900c        ..      STR      r0,[sp,#0x30]
        0x0000f994:    e7ff        ..      B        0xf996 ; main + 546
        0x0000f996:    990c        ..      LDR      r1,[sp,#0x30]
        0x0000f998:    f24b50ac    K..P    MOV      r0,#0xb5ac
        0x0000f99c:    f2c10001    ....    MOVT     r0,#0x1001
        0x0000f9a0:    6802        .h      LDR      r2,[r0,#0]
        0x0000f9a2:    2000        .       MOVS     r0,#0
        0x0000f9a4:    4291        .B      CMP      r1,r2
        0x0000f9a6:    9002        ..      STR      r0,[sp,#8]
        0x0000f9a8:    d20a        ..      BCS      0xf9c0 ; main + 588
        0x0000f9aa:    e7ff        ..      B        0xf9ac ; main + 568
        0x0000f9ac:    f24b50ac    K..P    MOV      r0,#0xb5ac
        0x0000f9b0:    f2c10001    ....    MOVT     r0,#0x1001
        0x0000f9b4:    6800        .h      LDR      r0,[r0,#0]
        0x0000f9b6:    2800        .(      CMP      r0,#0
        0x0000f9b8:    bf18        ..      IT       NE
        0x0000f9ba:    2001        .       MOVNE    r0,#1
        0x0000f9bc:    9002        ..      STR      r0,[sp,#8]
        0x0000f9be:    e7ff        ..      B        0xf9c0 ; main + 588
        0x0000f9c0:    9802        ..      LDR      r0,[sp,#8]
        0x0000f9c2:    07c0        ..      LSLS     r0,r0,#31
        0x0000f9c4:    2800        .(      CMP      r0,#0
        0x0000f9c6:    f0008116    ....    BEQ.W    0xfbf6 ; main + 1154
        0x0000f9ca:    e7ff        ..      B        0xf9cc ; main + 600
        0x0000f9cc:    990c        ..      LDR      r1,[sp,#0x30]
        0x0000f9ce:    f64750a4    G..P    MOV      r0,#0x7da4
        0x0000f9d2:    f2c10001    ....    MOVT     r0,#0x1001
        0x0000f9d6:    4408        .D      ADD      r0,r0,r1
        0x0000f9d8:    900b        ..      STR      r0,[sp,#0x2c]
        0x0000f9da:    980b        ..      LDR      r0,[sp,#0x2c]
        0x0000f9dc:    88c0        ..      LDRH     r0,[r0,#6]
        0x0000f9de:    900a        ..      STR      r0,[sp,#0x28]
        0x0000f9e0:    990a        ..      LDR      r1,[sp,#0x28]
        0x0000f9e2:    f64020a6    @..     MOV      r0,#0xaa6
        0x0000f9e6:    f2c00001    ....    MOVT     r0,#1
        0x0000f9ea:    f000f96b    ..k.    BL       no_print ; 0xfcc4
        0x0000f9ee:    980a        ..      LDR      r0,[sp,#0x28]
        0x0000f9f0:    b908        ..      CBNZ     r0,0xf9f6 ; main + 642
        0x0000f9f2:    e7ff        ..      B        0xf9f4 ; main + 640
        0x0000f9f4:    e0ff        ..      B        0xfbf6 ; main + 1154
        0x0000f9f6:    2000        .       MOVS     r0,#0
        0x0000f9f8:    9009        ..      STR      r0,[sp,#0x24]
        0x0000f9fa:    e7ff        ..      B        0xf9fc ; main + 648
        0x0000f9fc:    9809        ..      LDR      r0,[sp,#0x24]
        0x0000f9fe:    990a        ..      LDR      r1,[sp,#0x28]
        0x0000fa00:    4288        .B      CMP      r0,r1
        0x0000fa02:    f08080f3    ....    BCS.W    0xfbec ; main + 1144
        0x0000fa06:    e7ff        ..      B        0xfa08 ; main + 660
        0x0000fa08:    9909        ..      LDR      r1,[sp,#0x24]
        0x0000fa0a:    f640205e    @.^     MOV      r0,#0xa5e
        0x0000fa0e:    f2c00001    ....    MOVT     r0,#1
        0x0000fa12:    f000f957    ..W.    BL       no_print ; 0xfcc4
        0x0000fa16:    f6440154    D.T.    MOV      r1,#0x4854
        0x0000fa1a:    f2c10101    ....    MOVT     r1,#0x1001
        0x0000fa1e:    8848        H.      LDRH     r0,[r1,#2]
        0x0000fa20:    f36f30df    o..0    BFC      r0,#15,#17
        0x0000fa24:    8048        H.      STRH     r0,[r1,#2]
        0x0000fa26:    8848        H.      LDRH     r0,[r1,#2]
        0x0000fa28:    f4204080     ..@    BIC      r0,r0,#0x4000
        0x0000fa2c:    8048        H.      STRH     r0,[r1,#2]
        0x0000fa2e:    2000        .       MOVS     r0,#0
        0x0000fa30:    8008        ..      STRH     r0,[r1,#0]
        0x0000fa32:    9809        ..      LDR      r0,[sp,#0x24]
        0x0000fa34:    b948        H.      CBNZ     r0,0xfa4a ; main + 726
        0x0000fa36:    e7ff        ..      B        0xfa38 ; main + 708
        0x0000fa38:    f6440154    D.T.    MOV      r1,#0x4854
        0x0000fa3c:    f2c10101    ....    MOVT     r1,#0x1001
        0x0000fa40:    8848        H.      LDRH     r0,[r1,#2]
        0x0000fa42:    f4404000    @..@    ORR      r0,r0,#0x8000
        0x0000fa46:    8048        H.      STRH     r0,[r1,#2]
        0x0000fa48:    e7ff        ..      B        0xfa4a ; main + 726
        0x0000fa4a:    9809        ..      LDR      r0,[sp,#0x24]
        0x0000fa4c:    3074        t0      ADDS     r0,r0,#0x74
        0x0000fa4e:    990a        ..      LDR      r1,[sp,#0x28]
        0x0000fa50:    4288        .B      CMP      r0,r1
        0x0000fa52:    d309        ..      BCC      0xfa68 ; main + 756
        0x0000fa54:    e7ff        ..      B        0xfa56 ; main + 738
        0x0000fa56:    f6440154    D.T.    MOV      r1,#0x4854
        0x0000fa5a:    f2c10101    ....    MOVT     r1,#0x1001
        0x0000fa5e:    8848        H.      LDRH     r0,[r1,#2]
        0x0000fa60:    f4404080    @..@    ORR      r0,r0,#0x4000
        0x0000fa64:    8048        H.      STRH     r0,[r1,#2]
        0x0000fa66:    e7ff        ..      B        0xfa68 ; main + 756
        0x0000fa68:    980a        ..      LDR      r0,[sp,#0x28]
        0x0000fa6a:    9909        ..      LDR      r1,[sp,#0x24]
        0x0000fa6c:    1a40        @.      SUBS     r0,r0,r1
        0x0000fa6e:    2873        s(      CMP      r0,#0x73
        0x0000fa70:    d805        ..      BHI      0xfa7e ; main + 778
        0x0000fa72:    e7ff        ..      B        0xfa74 ; main + 768
        0x0000fa74:    980a        ..      LDR      r0,[sp,#0x28]
        0x0000fa76:    9909        ..      LDR      r1,[sp,#0x24]
        0x0000fa78:    1a40        @.      SUBS     r0,r0,r1
        0x0000fa7a:    9001        ..      STR      r0,[sp,#4]
        0x0000fa7c:    e002        ..      B        0xfa84 ; main + 784
        0x0000fa7e:    2074        t       MOVS     r0,#0x74
        0x0000fa80:    9001        ..      STR      r0,[sp,#4]
        0x0000fa82:    e7ff        ..      B        0xfa84 ; main + 784
        0x0000fa84:    9901        ..      LDR      r1,[sp,#4]
        0x0000fa86:    f6440054    D.T.    MOV      r0,#0x4854
        0x0000fa8a:    f2c10001    ....    MOVT     r0,#0x1001
        0x0000fa8e:    9000        ..      STR      r0,[sp,#0]
        0x0000fa90:    8001        ..      STRH     r1,[r0,#0]
        0x0000fa92:    9909        ..      LDR      r1,[sp,#0x24]
        0x0000fa94:    9a0c        ..      LDR      r2,[sp,#0x30]
        0x0000fa96:    440a        .D      ADD      r2,r2,r1
        0x0000fa98:    f64751a4    G..Q    MOV      r1,#0x7da4
        0x0000fa9c:    f2c10101    ....    MOVT     r1,#0x1001
        0x0000faa0:    4411        .D      ADD      r1,r1,r2
        0x0000faa2:    8802        ..      LDRH     r2,[r0,#0]
        0x0000faa4:    3004        .0      ADDS     r0,#4
        0x0000faa6:    f7fcfba1    ....    BL       __aeabi_memcpy ; 0xc1ec
        0x0000faaa:    9800        ..      LDR      r0,[sp,#0]
        0x0000faac:    8801        ..      LDRH     r1,[r0,#0]
        0x0000faae:    3104        .1      ADDS     r1,#4
        0x0000fab0:    8001        ..      STRH     r1,[r0,#0]
        0x0000fab2:    f24102b8    A...    MOV      r2,#0x10b8
        0x0000fab6:    f2c10201    ....    MOVT     r2,#0x1001
        0x0000faba:    2100        .!      MOVS     r1,#0
        0x0000fabc:    7011        .p      STRB     r1,[r2,#0]
        0x0000fabe:    8801        ..      LDRH     r1,[r0,#0]
        0x0000fac0:    f6402076    @.v     MOV      r0,#0xa76
        0x0000fac4:    f2c00001    ....    MOVT     r0,#1
        0x0000fac8:    f000f8fc    ....    BL       no_print ; 0xfcc4
        0x0000facc:    9800        ..      LDR      r0,[sp,#0]
        0x0000face:    8840        @.      LDRH     r0,[r0,#2]
        0x0000fad0:    0bc1        ..      LSRS     r1,r0,#15
        0x0000fad2:    f64020be    @..     MOV      r0,#0xabe
        0x0000fad6:    f2c00001    ....    MOVT     r0,#1
        0x0000fada:    f000f8f3    ....    BL       no_print ; 0xfcc4
        0x0000fade:    9800        ..      LDR      r0,[sp,#0]
        0x0000fae0:    8840        @.      LDRH     r0,[r0,#2]
        0x0000fae2:    f3c03180    ...1    UBFX     r1,r0,#14,#1
        0x0000fae6:    f640208e    @..     MOV      r0,#0xa8e
        0x0000faea:    f2c00001    ....    MOVT     r0,#1
        0x0000faee:    f000f8e9    ....    BL       no_print ; 0xfcc4
        0x0000faf2:    9800        ..      LDR      r0,[sp,#0]
        0x0000faf4:    8801        ..      LDRH     r1,[r0,#0]
        0x0000faf6:    9814        ..      LDR      r0,[sp,#0x50]
        0x0000faf8:    4408        .D      ADD      r0,r0,r1
        0x0000fafa:    9014        ..      STR      r0,[sp,#0x50]
        0x0000fafc:    f89d004f    ..O.    LDRB     r0,[sp,#0x4f]
        0x0000fb00:    07c0        ..      LSLS     r0,r0,#31
        0x0000fb02:    b160        `.      CBZ      r0,0xfb1e ; main + 938
        0x0000fb04:    e7ff        ..      B        0xfb06 ; main + 914
        0x0000fb06:    f6440054    D.T.    MOV      r0,#0x4854
        0x0000fb0a:    f2c10001    ....    MOVT     r0,#0x1001
        0x0000fb0e:    8801        ..      LDRH     r1,[r0,#0]
        0x0000fb10:    f64030ad    @..0    MOV      r0,#0xbad
        0x0000fb14:    f2c00001    ....    MOVT     r0,#1
        0x0000fb18:    f000f8d4    ....    BL       no_print ; 0xfcc4
        0x0000fb1c:    e00f        ..      B        0xfb3e ; main + 970
        0x0000fb1e:    f6440054    D.T.    MOV      r0,#0x4854
        0x0000fb22:    f2c10001    ....    MOVT     r0,#0x1001
        0x0000fb26:    8801        ..      LDRH     r1,[r0,#0]
        0x0000fb28:    9a14        ..      LDR      r2,[sp,#0x50]
        0x0000fb2a:    f640308a    @..0    MOV      r0,#0xb8a
        0x0000fb2e:    f2c00001    ....    MOVT     r0,#1
        0x0000fb32:    f000f8c7    ....    BL       no_print ; 0xfcc4
        0x0000fb36:    2001        .       MOVS     r0,#1
        0x0000fb38:    f88d004f    ..O.    STRB     r0,[sp,#0x4f]
        0x0000fb3c:    e7ff        ..      B        0xfb3e ; main + 970
        0x0000fb3e:    9812        ..      LDR      r0,[sp,#0x48]
        0x0000fb40:    2814        .(      CMP      r0,#0x14
        0x0000fb42:    d309        ..      BCC      0xfb58 ; main + 996
        0x0000fb44:    e7ff        ..      B        0xfb46 ; main + 978
        0x0000fb46:    f6403088    @..0    MOV      r0,#0xb88
        0x0000fb4a:    f2c00001    ....    MOVT     r0,#1
        0x0000fb4e:    f7feff5d    ..].    BL       am_util_stdio_printf ; 0xea0c
        0x0000fb52:    2000        .       MOVS     r0,#0
        0x0000fb54:    9012        ..      STR      r0,[sp,#0x48]
        0x0000fb56:    e7ff        ..      B        0xfb58 ; main + 996
        0x0000fb58:    f64030ab    @..0    MOV      r0,#0xbab
        0x0000fb5c:    f2c00001    ....    MOVT     r0,#1
        0x0000fb60:    f7feff54    ..T.    BL       am_util_stdio_printf ; 0xea0c
        0x0000fb64:    9812        ..      LDR      r0,[sp,#0x48]
        0x0000fb66:    3001        .0      ADDS     r0,#1
        0x0000fb68:    9012        ..      STR      r0,[sp,#0x48]
        0x0000fb6a:    f6440254    D.T.    MOV      r2,#0x4854
        0x0000fb6e:    f2c10201    ....    MOVT     r2,#0x1001
        0x0000fb72:    8813        ..      LDRH     r3,[r2,#0]
        0x0000fb74:    f89d0063    ..c.    LDRB     r0,[sp,#0x63]
        0x0000fb78:    f0000001    ....    AND      r0,r0,#1
        0x0000fb7c:    2180        .!      MOVS     r1,#0x80
        0x0000fb7e:    f7fffdcb    ....    BL       iom_slave_write ; 0xf718
        0x0000fb82:    2000        .       MOVS     r0,#0
        0x0000fb84:    9008        ..      STR      r0,[sp,#0x20]
        0x0000fb86:    e7ff        ..      B        0xfb88 ; main + 1044
        0x0000fb88:    9808        ..      LDR      r0,[sp,#0x20]
        0x0000fb8a:    f242710f    B..q    MOV      r1,#0x270f
        0x0000fb8e:    4288        .B      CMP      r0,r1
        0x0000fb90:    d818        ..      BHI      0xfbc4 ; main + 1104
        0x0000fb92:    e7ff        ..      B        0xfb94 ; main + 1056
        0x0000fb94:    f24100b8    A...    MOV      r0,#0x10b8
        0x0000fb98:    f2c10001    ....    MOVT     r0,#0x1001
        0x0000fb9c:    7800        .x      LDRB     r0,[r0,#0]
        0x0000fb9e:    07c0        ..      LSLS     r0,r0,#31
        0x0000fba0:    b138        8.      CBZ      r0,0xfbb2 ; main + 1086
        0x0000fba2:    e7ff        ..      B        0xfba4 ; main + 1072
        0x0000fba4:    f6403038    @.80    MOV      r0,#0xb38
        0x0000fba8:    f2c00001    ....    MOVT     r0,#1
        0x0000fbac:    f000f88a    ....    BL       no_print ; 0xfcc4
        0x0000fbb0:    e008        ..      B        0xfbc4 ; main + 1104
        0x0000fbb2:    2001        .       MOVS     r0,#1
        0x0000fbb4:    f7fefea8    ....    BL       am_util_delay_us ; 0xe908
        0x0000fbb8:    e7ff        ..      B        0xfbba ; main + 1094
        0x0000fbba:    e7ff        ..      B        0xfbbc ; main + 1096
        0x0000fbbc:    9808        ..      LDR      r0,[sp,#0x20]
        0x0000fbbe:    3001        .0      ADDS     r0,#1
        0x0000fbc0:    9008        ..      STR      r0,[sp,#0x20]
        0x0000fbc2:    e7e1        ..      B        0xfb88 ; main + 1044
        0x0000fbc4:    f24100b8    A...    MOV      r0,#0x10b8
        0x0000fbc8:    f2c10001    ....    MOVT     r0,#0x1001
        0x0000fbcc:    7800        .x      LDRB     r0,[r0,#0]
        0x0000fbce:    07c0        ..      LSLS     r0,r0,#31
        0x0000fbd0:    b938        8.      CBNZ     r0,0xfbe2 ; main + 1134
        0x0000fbd2:    e7ff        ..      B        0xfbd4 ; main + 1120
        0x0000fbd4:    f6403010    @..0    MOVW     r0,#0xb10
        0x0000fbd8:    f2c00001    ....    MOVT     r0,#1
        0x0000fbdc:    f000f872    ..r.    BL       no_print ; 0xfcc4
        0x0000fbe0:    e7ff        ..      B        0xfbe2 ; main + 1134
        0x0000fbe2:    e7ff        ..      B        0xfbe4 ; main + 1136
        0x0000fbe4:    9809        ..      LDR      r0,[sp,#0x24]
        0x0000fbe6:    3074        t0      ADDS     r0,r0,#0x74
        0x0000fbe8:    9009        ..      STR      r0,[sp,#0x24]
        0x0000fbea:    e707        ..      B        0xf9fc ; main + 648
        0x0000fbec:    990a        ..      LDR      r1,[sp,#0x28]
        0x0000fbee:    980c        ..      LDR      r0,[sp,#0x30]
        0x0000fbf0:    4408        .D      ADD      r0,r0,r1
        0x0000fbf2:    900c        ..      STR      r0,[sp,#0x30]
        0x0000fbf4:    e6cf        ..      B        0xf996 ; main + 546
        0x0000fbf6:    f24b51ac    K..Q    MOV      r1,#0xb5ac
        0x0000fbfa:    f2c10101    ....    MOVT     r1,#0x1001
        0x0000fbfe:    2000        .       MOVS     r0,#0
        0x0000fc00:    6008        .`      STR      r0,[r1,#0]
        0x0000fc02:    f644119c    D...    MOV      r1,#0x499c
        0x0000fc06:    f2c10101    ....    MOVT     r1,#0x1001
        0x0000fc0a:    7008        .p      STRB     r0,[r1,#0]
        0x0000fc0c:    200f        .       MOVS     r0,#0xf
        0x0000fc0e:    f7fcfc25    ..%.    BL       __NVIC_EnableIRQ ; 0xc45c
        0x0000fc12:    e7ff        ..      B        0xfc14 ; main + 1184
        0x0000fc14:    e7ff        ..      B        0xfc16 ; main + 1186
        0x0000fc16:    e65a        Z.      B        0xf8ce ; main + 346
    ndigits_in_hex
        0x0000fc18:    b084        ..      SUB      sp,sp,#0x10
        0x0000fc1a:    9103        ..      STR      r1,[sp,#0xc]
        0x0000fc1c:    9002        ..      STR      r0,[sp,#8]
        0x0000fc1e:    9802        ..      LDR      r0,[sp,#8]
        0x0000fc20:    9903        ..      LDR      r1,[sp,#0xc]
        0x0000fc22:    4308        .C      ORRS     r0,r0,r1
        0x0000fc24:    fab0f080    ....    CLZ      r0,r0
        0x0000fc28:    0940        @.      LSRS     r0,r0,#5
        0x0000fc2a:    9001        ..      STR      r0,[sp,#4]
        0x0000fc2c:    e7ff        ..      B        0xfc2e ; ndigits_in_hex + 22
        0x0000fc2e:    9802        ..      LDR      r0,[sp,#8]
        0x0000fc30:    9903        ..      LDR      r1,[sp,#0xc]
        0x0000fc32:    4308        .C      ORRS     r0,r0,r1
        0x0000fc34:    b160        `.      CBZ      r0,0xfc50 ; ndigits_in_hex + 56
        0x0000fc36:    e7ff        ..      B        0xfc38 ; ndigits_in_hex + 32
        0x0000fc38:    9802        ..      LDR      r0,[sp,#8]
        0x0000fc3a:    9903        ..      LDR      r1,[sp,#0xc]
        0x0000fc3c:    0900        ..      LSRS     r0,r0,#4
        0x0000fc3e:    ea407001    @..p    ORR      r0,r0,r1,LSL #28
        0x0000fc42:    0909        ..      LSRS     r1,r1,#4
        0x0000fc44:    9103        ..      STR      r1,[sp,#0xc]
        0x0000fc46:    9002        ..      STR      r0,[sp,#8]
        0x0000fc48:    9801        ..      LDR      r0,[sp,#4]
        0x0000fc4a:    3001        .0      ADDS     r0,#1
        0x0000fc4c:    9001        ..      STR      r0,[sp,#4]
        0x0000fc4e:    e7ee        ..      B        0xfc2e ; ndigits_in_hex + 22
        0x0000fc50:    9801        ..      LDR      r0,[sp,#4]
        0x0000fc52:    b004        ..      ADD      sp,sp,#0x10
        0x0000fc54:    4770        pG      BX       lr
        0x0000fc56:    0000        ..      MOVS     r0,r0
    ndigits_in_i64
        0x0000fc58:    b580        ..      PUSH     {r7,lr}
        0x0000fc5a:    b082        ..      SUB      sp,sp,#8
        0x0000fc5c:    9101        ..      STR      r1,[sp,#4]
        0x0000fc5e:    9000        ..      STR      r0,[sp,#0]
        0x0000fc60:    9801        ..      LDR      r0,[sp,#4]
        0x0000fc62:    f1b03fff    ...?    CMP      r0,#0xffffffff
        0x0000fc66:    dc09        ..      BGT      0xfc7c ; ndigits_in_i64 + 36
        0x0000fc68:    e7ff        ..      B        0xfc6a ; ndigits_in_i64 + 18
        0x0000fc6a:    9800        ..      LDR      r0,[sp,#0]
        0x0000fc6c:    9a01        ..      LDR      r2,[sp,#4]
        0x0000fc6e:    4241        AB      RSBS     r1,r0,#0
        0x0000fc70:    f04f0000    O...    MOV      r0,#0
        0x0000fc74:    4190        .A      SBCS     r0,r0,r2
        0x0000fc76:    9100        ..      STR      r1,[sp,#0]
        0x0000fc78:    9001        ..      STR      r0,[sp,#4]
        0x0000fc7a:    e7ff        ..      B        0xfc7c ; ndigits_in_i64 + 36
        0x0000fc7c:    9800        ..      LDR      r0,[sp,#0]
        0x0000fc7e:    9901        ..      LDR      r1,[sp,#4]
        0x0000fc80:    f000f802    ....    BL       ndigits_in_u64 ; 0xfc88
        0x0000fc84:    b002        ..      ADD      sp,sp,#8
        0x0000fc86:    bd80        ..      POP      {r7,pc}
    ndigits_in_u64
        0x0000fc88:    b580        ..      PUSH     {r7,lr}
        0x0000fc8a:    b084        ..      SUB      sp,sp,#0x10
        0x0000fc8c:    9103        ..      STR      r1,[sp,#0xc]
        0x0000fc8e:    9002        ..      STR      r0,[sp,#8]
        0x0000fc90:    9802        ..      LDR      r0,[sp,#8]
        0x0000fc92:    9903        ..      LDR      r1,[sp,#0xc]
        0x0000fc94:    4308        .C      ORRS     r0,r0,r1
        0x0000fc96:    fab0f080    ....    CLZ      r0,r0
        0x0000fc9a:    0940        @.      LSRS     r0,r0,#5
        0x0000fc9c:    9001        ..      STR      r0,[sp,#4]
        0x0000fc9e:    e7ff        ..      B        0xfca0 ; ndigits_in_u64 + 24
        0x0000fca0:    9802        ..      LDR      r0,[sp,#8]
        0x0000fca2:    9903        ..      LDR      r1,[sp,#0xc]
        0x0000fca4:    4308        .C      ORRS     r0,r0,r1
        0x0000fca6:    b150        P.      CBZ      r0,0xfcbe ; ndigits_in_u64 + 54
        0x0000fca8:    e7ff        ..      B        0xfcaa ; ndigits_in_u64 + 34
        0x0000fcaa:    9802        ..      LDR      r0,[sp,#8]
        0x0000fcac:    9903        ..      LDR      r1,[sp,#0xc]
        0x0000fcae:    f7fffa63    ..c.    BL       divu64_10 ; 0xf178
        0x0000fcb2:    9103        ..      STR      r1,[sp,#0xc]
        0x0000fcb4:    9002        ..      STR      r0,[sp,#8]
        0x0000fcb6:    9801        ..      LDR      r0,[sp,#4]
        0x0000fcb8:    3001        .0      ADDS     r0,#1
        0x0000fcba:    9001        ..      STR      r0,[sp,#4]
        0x0000fcbc:    e7f0        ..      B        0xfca0 ; ndigits_in_u64 + 24
        0x0000fcbe:    9801        ..      LDR      r0,[sp,#4]
        0x0000fcc0:    b004        ..      ADD      sp,sp,#0x10
        0x0000fcc2:    bd80        ..      POP      {r7,pc}
    no_print
        0x0000fcc4:    b081        ..      SUB      sp,sp,#4
        0x0000fcc6:    9000        ..      STR      r0,[sp,#0]
        0x0000fcc8:    2000        .       MOVS     r0,#0
        0x0000fcca:    b001        ..      ADD      sp,sp,#4
        0x0000fccc:    4770        pG      BX       lr
        0x0000fcce:    0000        ..      MOVS     r0,r0
    padbuffer
        0x0000fcd0:    b085        ..      SUB      sp,sp,#0x14
        0x0000fcd2:    9003        ..      STR      r0,[sp,#0xc]
        0x0000fcd4:    f88d100b    ....    STRB     r1,[sp,#0xb]
        0x0000fcd8:    9201        ..      STR      r2,[sp,#4]
        0x0000fcda:    2000        .       MOVS     r0,#0
        0x0000fcdc:    9000        ..      STR      r0,[sp,#0]
        0x0000fcde:    9801        ..      LDR      r0,[sp,#4]
        0x0000fce0:    2800        .(      CMP      r0,#0
        0x0000fce2:    dc03        ..      BGT      0xfcec ; padbuffer + 28
        0x0000fce4:    e7ff        ..      B        0xfce6 ; padbuffer + 22
        0x0000fce6:    9800        ..      LDR      r0,[sp,#0]
        0x0000fce8:    9004        ..      STR      r0,[sp,#0x10]
        0x0000fcea:    e016        ..      B        0xfd1a ; padbuffer + 74
        0x0000fcec:    e7ff        ..      B        0xfcee ; padbuffer + 30
        0x0000fcee:    9801        ..      LDR      r0,[sp,#4]
        0x0000fcf0:    1e41        A.      SUBS     r1,r0,#1
        0x0000fcf2:    9101        ..      STR      r1,[sp,#4]
        0x0000fcf4:    b170        p.      CBZ      r0,0xfd14 ; padbuffer + 68
        0x0000fcf6:    e7ff        ..      B        0xfcf8 ; padbuffer + 40
        0x0000fcf8:    9803        ..      LDR      r0,[sp,#0xc]
        0x0000fcfa:    b138        8.      CBZ      r0,0xfd0c ; padbuffer + 60
        0x0000fcfc:    e7ff        ..      B        0xfcfe ; padbuffer + 46
        0x0000fcfe:    f89d000b    ....    LDRB     r0,[sp,#0xb]
        0x0000fd02:    9903        ..      LDR      r1,[sp,#0xc]
        0x0000fd04:    1c4a        J.      ADDS     r2,r1,#1
        0x0000fd06:    9203        ..      STR      r2,[sp,#0xc]
        0x0000fd08:    7008        .p      STRB     r0,[r1,#0]
        0x0000fd0a:    e7ff        ..      B        0xfd0c ; padbuffer + 60
        0x0000fd0c:    9800        ..      LDR      r0,[sp,#0]
        0x0000fd0e:    3001        .0      ADDS     r0,#1
        0x0000fd10:    9000        ..      STR      r0,[sp,#0]
        0x0000fd12:    e7ec        ..      B        0xfcee ; padbuffer + 30
        0x0000fd14:    9800        ..      LDR      r0,[sp,#0]
        0x0000fd16:    9004        ..      STR      r0,[sp,#0x10]
        0x0000fd18:    e7ff        ..      B        0xfd1a ; padbuffer + 74
        0x0000fd1a:    9804        ..      LDR      r0,[sp,#0x10]
        0x0000fd1c:    b005        ..      ADD      sp,sp,#0x14
        0x0000fd1e:    4770        pG      BX       lr
    read_nonblocking
        0x0000fd20:    e92d41f0    -..A    PUSH     {r4-r8,lr}
        0x0000fd24:    b1d0        ..      CBZ      r0,0xfd5c ; read_nonblocking + 60
        0x0000fd26:    4604        .F      MOV      r4,r0
        0x0000fd28:    6800        .h      LDR      r0,[r0,#0]
        0x0000fd2a:    460e        .F      MOV      r6,r1
        0x0000fd2c:    f6496106    I..a    MOV      r1,#0x9e06
        0x0000fd30:    f020407e     .~@    BIC      r0,r0,#0xfe000000
        0x0000fd34:    f2c011ea    ....    MOVT     r1,#0x1ea
        0x0000fd38:    4288        .B      CMP      r0,r1
        0x0000fd3a:    d10f        ..      BNE      0xfd5c ; read_nonblocking + 60
        0x0000fd3c:    4698        .F      MOV      r8,r3
        0x0000fd3e:    4615        .F      MOV      r5,r2
        0x0000fd40:    b113        ..      CBZ      r3,0xfd48 ; read_nonblocking + 40
        0x0000fd42:    2000        .       MOVS     r0,#0
        0x0000fd44:    f8c80000    ....    STR      r0,[r8,#0]
        0x0000fd48:    b15d        ].      CBZ      r5,0xfd62 ; read_nonblocking + 66
        0x0000fd4a:    f8940044    ..D.    LDRB     r0,[r4,#0x44]
        0x0000fd4e:    b158        X.      CBZ      r0,0xfd68 ; read_nonblocking + 72
        0x0000fd50:    4620         F      MOV      r0,r4
        0x0000fd52:    f000f835    ..5.    BL       rx_queue_update ; 0xfdc0
        0x0000fd56:    b1e8        ..      CBZ      r0,0xfd94 ; read_nonblocking + 116
        0x0000fd58:    e8bd81f0    ....    POP      {r4-r8,pc}
        0x0000fd5c:    2002        .       MOVS     r0,#2
        0x0000fd5e:    e8bd81f0    ....    POP      {r4-r8,pc}
        0x0000fd62:    2000        .       MOVS     r0,#0
        0x0000fd64:    e8bd81f0    ....    POP      {r4-r8,pc}
        0x0000fd68:    6a60        `j      LDR      r0,[r4,#0x24]
        0x0000fd6a:    f24c0100    L...    MOVW     r1,#0xc000
        0x0000fd6e:    f2c40101    ....    MOVT     r1,#0x4001
        0x0000fd72:    eb013000    ...0    ADD      r0,r1,r0,LSL #12
        0x0000fd76:    2700        .'      MOVS     r7,#0
        0x0000fd78:    6981        .i      LDR      r1,[r0,#0x18]
        0x0000fd7a:    06c9        ..      LSLS     r1,r1,#27
        0x0000fd7c:    d414        ..      BMI      0xfda8 ; read_nonblocking + 136
        0x0000fd7e:    6801        .h      LDR      r1,[r0,#0]
        0x0000fd80:    f4116f70    ..po    TST      r1,#0xf00
        0x0000fd84:    d112        ..      BNE      0xfdac ; read_nonblocking + 140
        0x0000fd86:    55f1        .U      STRB     r1,[r6,r7]
        0x0000fd88:    3701        .7      ADDS     r7,#1
        0x0000fd8a:    42bd        .B      CMP      r5,r7
        0x0000fd8c:    d1f4        ..      BNE      0xfd78 ; read_nonblocking + 88
        0x0000fd8e:    2000        .       MOVS     r0,#0
        0x0000fd90:    462f        /F      MOV      r7,r5
        0x0000fd92:    e00d        ..      B        0xfdb0 ; read_nonblocking + 144
        0x0000fd94:    6d27        'm      LDR      r7,[r4,#0x50]
        0x0000fd96:    f1040048    ..H.    ADD      r0,r4,#0x48
        0x0000fd9a:    42af        .B      CMP      r7,r5
        0x0000fd9c:    bf88        ..      IT       HI
        0x0000fd9e:    462f        /F      MOVHI    r7,r5
        0x0000fda0:    4631        1F      MOV      r1,r6
        0x0000fda2:    463a        :F      MOV      r2,r7
        0x0000fda4:    f7fefa12    ....    BL       am_hal_queue_item_get ; 0xe1cc
        0x0000fda8:    2000        .       MOVS     r0,#0
        0x0000fdaa:    e001        ..      B        0xfdb0 ; read_nonblocking + 144
        0x0000fdac:    f04f6000    O..`    MOV      r0,#0x8000000
        0x0000fdb0:    f1b80f00    ....    CMP      r8,#0
        0x0000fdb4:    bf18        ..      IT       NE
        0x0000fdb6:    f8c87000    ...p    STRNE    r7,[r8,#0]
        0x0000fdba:    e8bd81f0    ....    POP      {r4-r8,pc}
        0x0000fdbe:    0000        ..      MOVS     r0,r0
    rx_queue_update
        0x0000fdc0:    b510        ..      PUSH     {r4,lr}
        0x0000fdc2:    b08a        ..      SUB      sp,sp,#0x28
        0x0000fdc4:    4604        .F      MOV      r4,r0
        0x0000fdc6:    f7fdfadd    ....    BL       am_hal_interrupt_master_disable ; 0xd384
        0x0000fdca:    9001        ..      STR      r0,[sp,#4]
        0x0000fdcc:    6a60        `j      LDR      r0,[r4,#0x24]
        0x0000fdce:    f24c0100    L...    MOVW     r1,#0xc000
        0x0000fdd2:    f2c40101    ....    MOVT     r1,#0x4001
        0x0000fdd6:    eb013000    ...0    ADD      r0,r1,r0,LSL #12
        0x0000fdda:    2200        ."      MOVS     r2,#0
        0x0000fddc:    a902        ..      ADD      r1,sp,#8
        0x0000fdde:    bf00        ..      NOP      
        0x0000fde0:    6983        .i      LDR      r3,[r0,#0x18]
        0x0000fde2:    06db        ..      LSLS     r3,r3,#27
        0x0000fde4:    d408        ..      BMI      0xfdf8 ; rx_queue_update + 56
        0x0000fde6:    6803        .h      LDR      r3,[r0,#0]
        0x0000fde8:    f4136f70    ..po    TST      r3,#0xf00
        0x0000fdec:    d110        ..      BNE      0xfe10 ; rx_queue_update + 80
        0x0000fdee:    548b        .T      STRB     r3,[r1,r2]
        0x0000fdf0:    3201        .2      ADDS     r2,#1
        0x0000fdf2:    2a20         *      CMP      r2,#0x20
        0x0000fdf4:    d1f4        ..      BNE      0xfde0 ; rx_queue_update + 32
        0x0000fdf6:    2220         "      MOVS     r2,#0x20
        0x0000fdf8:    f1040048    ..H.    ADD      r0,r4,#0x48
        0x0000fdfc:    a902        ..      ADD      r1,sp,#8
        0x0000fdfe:    f7fef9b1    ....    BL       am_hal_queue_item_add ; 0xe164
        0x0000fe02:    2401        .$      MOVS     r4,#1
        0x0000fe04:    f6c00400    ....    MOVT     r4,#0x800
        0x0000fe08:    2800        .(      CMP      r0,#0
        0x0000fe0a:    bf18        ..      IT       NE
        0x0000fe0c:    2400        .$      MOVNE    r4,#0
        0x0000fe0e:    e001        ..      B        0xfe14 ; rx_queue_update + 84
        0x0000fe10:    f04f6400    O..d    MOV      r4,#0x8000000
        0x0000fe14:    9801        ..      LDR      r0,[sp,#4]
        0x0000fe16:    f7fdfabd    ....    BL       am_hal_interrupt_master_set ; 0xd394
        0x0000fe1a:    4620         F      MOV      r0,r4
        0x0000fe1c:    b00a        ..      ADD      sp,sp,#0x28
        0x0000fe1e:    bd10        ..      POP      {r4,pc}
    send_hello
        0x0000fe20:    b580        ..      PUSH     {r7,lr}
        0x0000fe22:    b088        ..      SUB      sp,sp,#0x20
        0x0000fe24:    f88d001f    ....    STRB     r0,[sp,#0x1f]
        0x0000fe28:    f8bd0012    ....    LDRH     r0,[sp,#0x12]
        0x0000fe2c:    f4404000    @..@    ORR      r0,r0,#0x8000
        0x0000fe30:    f8ad0012    ....    STRH     r0,[sp,#0x12]
        0x0000fe34:    f8bd0012    ....    LDRH     r0,[sp,#0x12]
        0x0000fe38:    f4404080    @..@    ORR      r0,r0,#0x4000
        0x0000fe3c:    f8ad0012    ....    STRH     r0,[sp,#0x12]
        0x0000fe40:    200c        .       MOVS     r0,#0xc
        0x0000fe42:    9003        ..      STR      r0,[sp,#0xc]
        0x0000fe44:    f8ad0010    ....    STRH     r0,[sp,#0x10]
        0x0000fe48:    a804        ..      ADD      r0,sp,#0x10
        0x0000fe4a:    9002        ..      STR      r0,[sp,#8]
        0x0000fe4c:    1d01        ..      ADDS     r1,r0,#4
        0x0000fe4e:    9100        ..      STR      r1,[sp,#0]
        0x0000fe50:    3008        .0      ADDS     r0,r0,#8
        0x0000fe52:    9001        ..      STR      r0,[sp,#4]
        0x0000fe54:    2000        .       MOVS     r0,#0
        0x0000fe56:    f8ad0018    ....    STRH     r0,[sp,#0x18]
        0x0000fe5a:    2008        .       MOVS     r0,#8
        0x0000fe5c:    f8ad001a    ....    STRH     r0,[sp,#0x1a]
        0x0000fe60:    f8bd101a    ....    LDRH     r1,[sp,#0x1a]
        0x0000fe64:    f640203e    @.>     MOV      r0,#0xa3e
        0x0000fe68:    f2c00001    ....    MOVT     r0,#1
        0x0000fe6c:    f7fefdce    ....    BL       am_util_stdio_printf ; 0xea0c
        0x0000fe70:    9a00        ..      LDR      r2,[sp,#0]
        0x0000fe72:    9801        ..      LDR      r0,[sp,#4]
        0x0000fe74:    f8bd101a    ....    LDRH     r1,[sp,#0x1a]
        0x0000fe78:    3904        .9      SUBS     r1,#4
        0x0000fe7a:    f7fcfef2    ....    BL       am_hal_crc32 ; 0xcc62
        0x0000fe7e:    9a02        ..      LDR      r2,[sp,#8]
        0x0000fe80:    9b03        ..      LDR      r3,[sp,#0xc]
        0x0000fe82:    f89d001f    ....    LDRB     r0,[sp,#0x1f]
        0x0000fe86:    f0000001    ....    AND      r0,r0,#1
        0x0000fe8a:    2180        .!      MOVS     r1,#0x80
        0x0000fe8c:    f7fffc44    ..D.    BL       iom_slave_write ; 0xf718
        0x0000fe90:    b008        ..      ADD      sp,sp,#0x20
        0x0000fe92:    bd80        ..      POP      {r7,pc}
    set_LPMMODE
        0x0000fe94:    e92d41f0    -..A    PUSH     {r4-r8,lr}
        0x0000fe98:    b082        ..      SUB      sp,sp,#8
        0x0000fe9a:    4680        .F      MOV      r8,r0
        0x0000fe9c:    2803        .(      CMP      r0,#3
        0x0000fe9e:    d81e        ..      BHI      0xfede ; set_LPMMODE + 74
        0x0000fea0:    f44f5040    O.@P    MOV      r0,#0x3000
        0x0000fea4:    f2481400    H...    MOVW     r4,#0x8100
        0x0000fea8:    ea003608    ...6    AND      r6,r0,r8,LSL #12
        0x0000feac:    2700        .'      MOVS     r7,#0
        0x0000feae:    f2c40401    ....    MOVT     r4,#0x4001
        0x0000feb2:    bf00        ..      NOP      
        0x0000feb4:    193d        =.      ADDS     r5,r7,r4
        0x0000feb6:    f7fdfa65    ..e.    BL       am_hal_interrupt_master_disable ; 0xd384
        0x0000feba:    9001        ..      STR      r0,[sp,#4]
        0x0000febc:    4628        (F      MOV      r0,r5
        0x0000febe:    f7fcfff5    ....    BL       am_hal_flash_load_ui32 ; 0xceac
        0x0000fec2:    f420507c     .|P    BIC      r0,r0,#0x3f00
        0x0000fec6:    4330        0C      ORRS     r0,r0,r6
        0x0000fec8:    f44061e0    @..a    ORR      r1,r0,#0x700
        0x0000fecc:    4628        (F      MOV      r0,r5
        0x0000fece:    f7fcfff1    ....    BL       am_hal_flash_store_ui32 ; 0xceb4
        0x0000fed2:    9801        ..      LDR      r0,[sp,#4]
        0x0000fed4:    f7fdfa5e    ..^.    BL       am_hal_interrupt_master_set ; 0xd394
        0x0000fed8:    3704        .7      ADDS     r7,#4
        0x0000feda:    2f10        ./      CMP      r7,#0x10
        0x0000fedc:    d1ea        ..      BNE      0xfeb4 ; set_LPMMODE + 32
        0x0000fede:    2000        .       MOVS     r0,#0
        0x0000fee0:    f1b80f04    ....    CMP      r8,#4
        0x0000fee4:    bf38        8.      IT       CC
        0x0000fee6:    2001        .       MOVCC    r0,#1
        0x0000fee8:    b002        ..      ADD      sp,sp,#8
        0x0000feea:    e8bd81f0    ....    POP      {r4-r8,pc}
        0x0000feee:    0000        ..      MOVS     r0,r0
    set_RDWAIT
        0x0000fef0:    e92d41f0    -..A    PUSH     {r4-r8,lr}
        0x0000fef4:    b082        ..      SUB      sp,sp,#8
        0x0000fef6:    4604        .F      MOV      r4,r0
        0x0000fef8:    280f        .(      CMP      r0,#0xf
        0x0000fefa:    d81c        ..      BHI      0xff36 ; set_RDWAIT + 70
        0x0000fefc:    f2481800    H...    MOVW     r8,#0x8100
        0x0000ff00:    2600        .&      MOVS     r6,#0
        0x0000ff02:    f2c40801    ....    MOVT     r8,#0x4001
        0x0000ff06:    f640770f    @..w    MOV      r7,#0xf0f
        0x0000ff0a:    bf00        ..      NOP      
        0x0000ff0c:    eb060508    ....    ADD      r5,r6,r8
        0x0000ff10:    f7fdfa38    ..8.    BL       am_hal_interrupt_master_disable ; 0xd384
        0x0000ff14:    9001        ..      STR      r0,[sp,#4]
        0x0000ff16:    4628        (F      MOV      r0,r5
        0x0000ff18:    f7fcffc8    ....    BL       am_hal_flash_load_ui32 ; 0xceac
        0x0000ff1c:    43b8        .C      BICS     r0,r0,r7
        0x0000ff1e:    4320         C      ORRS     r0,r0,r4
        0x0000ff20:    f44061e0    @..a    ORR      r1,r0,#0x700
        0x0000ff24:    4628        (F      MOV      r0,r5
        0x0000ff26:    f7fcffc5    ....    BL       am_hal_flash_store_ui32 ; 0xceb4
        0x0000ff2a:    9801        ..      LDR      r0,[sp,#4]
        0x0000ff2c:    f7fdfa32    ..2.    BL       am_hal_interrupt_master_set ; 0xd394
        0x0000ff30:    3604        .6      ADDS     r6,#4
        0x0000ff32:    2e10        ..      CMP      r6,#0x10
        0x0000ff34:    d1ea        ..      BNE      0xff0c ; set_RDWAIT + 28
        0x0000ff36:    2000        .       MOVS     r0,#0
        0x0000ff38:    2c10        .,      CMP      r4,#0x10
        0x0000ff3a:    bf38        8.      IT       CC
        0x0000ff3c:    2001        .       MOVCC    r0,#1
        0x0000ff3e:    b002        ..      ADD      sp,sp,#8
        0x0000ff40:    e8bd81f0    ....    POP      {r4-r8,pc}
    set_SEDELAY
        0x0000ff44:    e92d41f0    -..A    PUSH     {r4-r8,lr}
        0x0000ff48:    b082        ..      SUB      sp,sp,#8
        0x0000ff4a:    4680        .F      MOV      r8,r0
        0x0000ff4c:    2807        .(      CMP      r0,#7
        0x0000ff4e:    d81c        ..      BHI      0xff8a ; set_SEDELAY + 70
        0x0000ff50:    2070        p       MOVS     r0,#0x70
        0x0000ff52:    f2481400    H...    MOVW     r4,#0x8100
        0x0000ff56:    ea001608    ....    AND      r6,r0,r8,LSL #4
        0x0000ff5a:    2700        .'      MOVS     r7,#0
        0x0000ff5c:    f2c40401    ....    MOVT     r4,#0x4001
        0x0000ff60:    193d        =.      ADDS     r5,r7,r4
        0x0000ff62:    f7fdfa0f    ....    BL       am_hal_interrupt_master_disable ; 0xd384
        0x0000ff66:    9001        ..      STR      r0,[sp,#4]
        0x0000ff68:    4628        (F      MOV      r0,r5
        0x0000ff6a:    f7fcff9f    ....    BL       am_hal_flash_load_ui32 ; 0xceac
        0x0000ff6e:    f4206077     .w`    BIC      r0,r0,#0xf70
        0x0000ff72:    4330        0C      ORRS     r0,r0,r6
        0x0000ff74:    f50061e0    ...a    ADD      r1,r0,#0x700
        0x0000ff78:    4628        (F      MOV      r0,r5
        0x0000ff7a:    f7fcff9b    ....    BL       am_hal_flash_store_ui32 ; 0xceb4
        0x0000ff7e:    9801        ..      LDR      r0,[sp,#4]
        0x0000ff80:    f7fdfa08    ....    BL       am_hal_interrupt_master_set ; 0xd394
        0x0000ff84:    3704        .7      ADDS     r7,#4
        0x0000ff86:    2f10        ./      CMP      r7,#0x10
        0x0000ff88:    d1ea        ..      BNE      0xff60 ; set_SEDELAY + 28
        0x0000ff8a:    2000        .       MOVS     r0,#0
        0x0000ff8c:    f1b80f08    ....    CMP      r8,#8
        0x0000ff90:    bf38        8.      IT       CC
        0x0000ff92:    2001        .       MOVCC    r0,#1
        0x0000ff94:    b002        ..      ADD      sp,sp,#8
        0x0000ff96:    e8bd81f0    ....    POP      {r4-r8,pc}
        0x0000ff9a:    0000        ..      MOVS     r0,r0
    simple_strlen
        0x0000ff9c:    b083        ..      SUB      sp,sp,#0xc
        0x0000ff9e:    9001        ..      STR      r0,[sp,#4]
        0x0000ffa0:    2000        .       MOVS     r0,#0
        0x0000ffa2:    9000        ..      STR      r0,[sp,#0]
        0x0000ffa4:    9801        ..      LDR      r0,[sp,#4]
        0x0000ffa6:    b918        ..      CBNZ     r0,0xffb0 ; simple_strlen + 20
        0x0000ffa8:    e7ff        ..      B        0xffaa ; simple_strlen + 14
        0x0000ffaa:    9800        ..      LDR      r0,[sp,#0]
        0x0000ffac:    9002        ..      STR      r0,[sp,#8]
        0x0000ffae:    e00d        ..      B        0xffcc ; simple_strlen + 48
        0x0000ffb0:    e7ff        ..      B        0xffb2 ; simple_strlen + 22
        0x0000ffb2:    9801        ..      LDR      r0,[sp,#4]
        0x0000ffb4:    1c41        A.      ADDS     r1,r0,#1
        0x0000ffb6:    9101        ..      STR      r1,[sp,#4]
        0x0000ffb8:    7800        .x      LDRB     r0,[r0,#0]
        0x0000ffba:    b120         .      CBZ      r0,0xffc6 ; simple_strlen + 42
        0x0000ffbc:    e7ff        ..      B        0xffbe ; simple_strlen + 34
        0x0000ffbe:    9800        ..      LDR      r0,[sp,#0]
        0x0000ffc0:    3001        .0      ADDS     r0,#1
        0x0000ffc2:    9000        ..      STR      r0,[sp,#0]
        0x0000ffc4:    e7f5        ..      B        0xffb2 ; simple_strlen + 22
        0x0000ffc6:    9800        ..      LDR      r0,[sp,#0]
        0x0000ffc8:    9002        ..      STR      r0,[sp,#8]
        0x0000ffca:    e7ff        ..      B        0xffcc ; simple_strlen + 48
        0x0000ffcc:    9802        ..      LDR      r0,[sp,#8]
        0x0000ffce:    b003        ..      ADD      sp,sp,#0xc
        0x0000ffd0:    4770        pG      BX       lr
        0x0000ffd2:    0000        ..      MOVS     r0,r0
    start_boot_mode
        0x0000ffd4:    b580        ..      PUSH     {r7,lr}
        0x0000ffd6:    b088        ..      SUB      sp,sp,#0x20
        0x0000ffd8:    f88d001f    ....    STRB     r0,[sp,#0x1f]
        0x0000ffdc:    f89d001f    ....    LDRB     r0,[sp,#0x1f]
        0x0000ffe0:    07c0        ..      LSLS     r0,r0,#31
        0x0000ffe2:    b9d0        ..      CBNZ     r0,0x1001a ; start_boot_mode + 70
        0x0000ffe4:    e7ff        ..      B        0xffe6 ; start_boot_mode + 18
        0x0000ffe6:    2011        .       MOVS     r0,#0x11
        0x0000ffe8:    9003        ..      STR      r0,[sp,#0xc]
        0x0000ffea:    2101        .!      MOVS     r1,#1
        0x0000ffec:    9104        ..      STR      r1,[sp,#0x10]
        0x0000ffee:    f7fdf97d    ..}.    BL       am_hal_gpio_state_write ; 0xd2ec
        0x0000fff2:    9803        ..      LDR      r0,[sp,#0xc]
        0x0000fff4:    f24071b4    @..q    MOV      r1,#0x7b4
        0x0000fff8:    f2c00101    ....    MOVT     r1,#1
        0x0000fffc:    9105        ..      STR      r1,[sp,#0x14]
        0x0000fffe:    6809        .h      LDR      r1,[r1,#0]
        0x00010000:    f7fdf83e    ..>.    BL       am_hal_gpio_pinconfig ; 0xd080
        0x00010004:    9904        ..      LDR      r1,[sp,#0x10]
        0x00010006:    2010        .       MOVS     r0,#0x10
        0x00010008:    9006        ..      STR      r0,[sp,#0x18]
        0x0001000a:    f7fdf96f    ..o.    BL       am_hal_gpio_state_write ; 0xd2ec
        0x0001000e:    9905        ..      LDR      r1,[sp,#0x14]
        0x00010010:    9806        ..      LDR      r0,[sp,#0x18]
        0x00010012:    6809        .h      LDR      r1,[r1,#0]
        0x00010014:    f7fdf834    ..4.    BL       am_hal_gpio_pinconfig ; 0xd080
        0x00010018:    e015        ..      B        0x10046 ; start_boot_mode + 114
        0x0001001a:    2011        .       MOVS     r0,#0x11
        0x0001001c:    9001        ..      STR      r0,[sp,#4]
        0x0001001e:    2100        .!      MOVS     r1,#0
        0x00010020:    9100        ..      STR      r1,[sp,#0]
        0x00010022:    f7fdf963    ..c.    BL       am_hal_gpio_state_write ; 0xd2ec
        0x00010026:    9900        ..      LDR      r1,[sp,#0]
        0x00010028:    2010        .       MOVS     r0,#0x10
        0x0001002a:    f7fdf95f    .._.    BL       am_hal_gpio_state_write ; 0xd2ec
        0x0001002e:    2005        .       MOVS     r0,#5
        0x00010030:    9002        ..      STR      r0,[sp,#8]
        0x00010032:    f7fefc69    ..i.    BL       am_util_delay_us ; 0xe908
        0x00010036:    9801        ..      LDR      r0,[sp,#4]
        0x00010038:    2101        .!      MOVS     r1,#1
        0x0001003a:    f7fdf957    ..W.    BL       am_hal_gpio_state_write ; 0xd2ec
        0x0001003e:    9802        ..      LDR      r0,[sp,#8]
        0x00010040:    f7fefc62    ..b.    BL       am_util_delay_us ; 0xe908
        0x00010044:    e7ff        ..      B        0x10046 ; start_boot_mode + 114
        0x00010046:    b008        ..      ADD      sp,sp,#0x20
        0x00010048:    bd80        ..      POP      {r7,pc}
        0x0001004a:    0000        ..      MOVS     r0,r0
    tx_queue_update
        0x0001004c:    e92d41f0    -..A    PUSH     {r4-r8,lr}
        0x00010050:    b082        ..      SUB      sp,sp,#8
        0x00010052:    6a45        Ej      LDR      r5,[r0,#0x24]
        0x00010054:    f24c0800    L...    MOVW     r8,#0xc000
        0x00010058:    4604        .F      MOV      r4,r0
        0x0001005a:    f2c40801    ....    MOVT     r8,#0x4001
        0x0001005e:    f7fdf991    ....    BL       am_hal_interrupt_master_disable ; 0xd384
        0x00010062:    9000        ..      STR      r0,[sp,#0]
        0x00010064:    eb083705    ...7    ADD      r7,r8,r5,LSL #12
        0x00010068:    69b8        .i      LDR      r0,[r7,#0x18]
        0x0001006a:    0680        ..      LSLS     r0,r0,#26
        0x0001006c:    d416        ..      BMI      0x1009c ; tx_queue_update + 80
        0x0001006e:    f104052c    ..,.    ADD      r5,r4,#0x2c
        0x00010072:    f10d0607    ....    ADD      r6,sp,#7
        0x00010076:    bf00        ..      NOP      
        0x00010078:    4628        (F      MOV      r0,r5
        0x0001007a:    4631        1F      MOV      r1,r6
        0x0001007c:    2201        ."      MOVS     r2,#1
        0x0001007e:    f7fef8a5    ....    BL       am_hal_queue_item_get ; 0xe1cc
        0x00010082:    b158        X.      CBZ      r0,0x1009c ; tx_queue_update + 80
        0x00010084:    6a60        `j      LDR      r0,[r4,#0x24]
        0x00010086:    f89d1007    ....    LDRB     r1,[sp,#7]
        0x0001008a:    eb083000    ...0    ADD      r0,r8,r0,LSL #12
        0x0001008e:    6982        .i      LDR      r2,[r0,#0x18]
        0x00010090:    0692        ..      LSLS     r2,r2,#26
        0x00010092:    bf58        X.      IT       PL
        0x00010094:    6001        .`      STRPL    r1,[r0,#0]
        0x00010096:    69b8        .i      LDR      r0,[r7,#0x18]
        0x00010098:    0680        ..      LSLS     r0,r0,#26
        0x0001009a:    d5ed        ..      BPL      0x10078 ; tx_queue_update + 44
        0x0001009c:    9800        ..      LDR      r0,[sp,#0]
        0x0001009e:    f7fdf979    ..y.    BL       am_hal_interrupt_master_set ; 0xd394
        0x000100a2:    b002        ..      ADD      sp,sp,#8
        0x000100a4:    e8bd81f0    ....    POP      {r4-r8,pc}
    uart_set_up
        0x000100a8:    b580        ..      PUSH     {r7,lr}
        0x000100aa:    b08e        ..      SUB      sp,sp,#0x38
        0x000100ac:    900d        ..      STR      r0,[sp,#0x34]
        0x000100ae:    a803        ..      ADD      r0,sp,#0xc
        0x000100b0:    9001        ..      STR      r0,[sp,#4]
        0x000100b2:    2128        (!      MOVS     r1,#0x28
        0x000100b4:    f7fcf8df    ....    BL       __aeabi_memclr4 ; 0xc276
        0x000100b8:    f44f30e1    O..0    MOV      r0,#0x1c200
        0x000100bc:    9003        ..      STR      r0,[sp,#0xc]
        0x000100be:    2060        `       MOVS     r0,#0x60
        0x000100c0:    9004        ..      STR      r0,[sp,#0x10]
        0x000100c2:    201b        .       MOVS     r0,#0x1b
        0x000100c4:    9008        ..      STR      r0,[sp,#0x20]
        0x000100c6:    f64a50a4    J..P    MOV      r0,#0xada4
        0x000100ca:    f2c10001    ....    MOVT     r0,#0x1001
        0x000100ce:    9009        ..      STR      r0,[sp,#0x24]
        0x000100d0:    f44f6000    O..`    MOV      r0,#0x800
        0x000100d4:    900a        ..      STR      r0,[sp,#0x28]
        0x000100d6:    980d        ..      LDR      r0,[sp,#0x34]
        0x000100d8:    f24b51a4    K..Q    MOV      r1,#0xb5a4
        0x000100dc:    f2c10101    ....    MOVT     r1,#0x1001
        0x000100e0:    9102        ..      STR      r1,[sp,#8]
        0x000100e2:    f7fef9f5    ....    BL       am_hal_uart_initialize ; 0xe4d0
        0x000100e6:    9802        ..      LDR      r0,[sp,#8]
        0x000100e8:    6800        .h      LDR      r0,[r0,#0]
        0x000100ea:    2200        ."      MOVS     r2,#0
        0x000100ec:    4611        .F      MOV      r1,r2
        0x000100ee:    f7fefaa1    ....    BL       am_hal_uart_power_control ; 0xe634
        0x000100f2:    9901        ..      LDR      r1,[sp,#4]
        0x000100f4:    9802        ..      LDR      r0,[sp,#8]
        0x000100f6:    6800        .h      LDR      r0,[r0,#0]
        0x000100f8:    f7fef8ec    ....    BL       am_hal_uart_configure ; 0xe2d4
        0x000100fc:    f2407014    @..p    MOV      r0,#0x714
        0x00010100:    f2c00001    ....    MOVT     r0,#1
        0x00010104:    6801        .h      LDR      r1,[r0,#0]
        0x00010106:    2016        .       MOVS     r0,#0x16
        0x00010108:    f7fcffba    ....    BL       am_hal_gpio_pinconfig ; 0xd080
        0x0001010c:    f2407010    @..p    MOVW     r0,#0x710
        0x00010110:    f2c00001    ....    MOVT     r0,#1
        0x00010114:    6801        .h      LDR      r1,[r0,#0]
        0x00010116:    2017        .       MOVS     r0,#0x17
        0x00010118:    f7fcffb2    ....    BL       am_hal_gpio_pinconfig ; 0xd080
        0x0001011c:    980d        ..      LDR      r0,[sp,#0x34]
        0x0001011e:    300f        .0      ADDS     r0,r0,#0xf
        0x00010120:    b240        @.      SXTB     r0,r0
        0x00010122:    f7fcf99b    ....    BL       __NVIC_EnableIRQ ; 0xc45c
        0x00010126:    9802        ..      LDR      r0,[sp,#8]
        0x00010128:    6800        .h      LDR      r0,[r0,#0]
        0x0001012a:    2150        P!      MOVS     r1,#0x50
        0x0001012c:    f7fefa0e    ....    BL       am_hal_uart_interrupt_enable ; 0xe54c
        0x00010130:    f7fdf92c    ..,.    BL       am_hal_interrupt_master_enable ; 0xd38c
        0x00010134:    b00e        ..      ADD      sp,sp,#0x38
        0x00010136:    bd80        ..      POP      {r7,pc}
    uint64_to_hexstr
        0x00010138:    b08c        ..      SUB      sp,sp,#0x30
        0x0001013a:    910b        ..      STR      r1,[sp,#0x2c]
        0x0001013c:    900a        ..      STR      r0,[sp,#0x28]
        0x0001013e:    9209        ..      STR      r2,[sp,#0x24]
        0x00010140:    f88d3023    ..#0    STRB     r3,[sp,#0x23]
        0x00010144:    2000        .       MOVS     r0,#0
        0x00010146:    9006        ..      STR      r0,[sp,#0x18]
        0x00010148:    980a        ..      LDR      r0,[sp,#0x28]
        0x0001014a:    990b        ..      LDR      r1,[sp,#0x2c]
        0x0001014c:    4308        .C      ORRS     r0,r0,r1
        0x0001014e:    b940        @.      CBNZ     r0,0x10162 ; uint64_to_hexstr + 42
        0x00010150:    e7ff        ..      B        0x10152 ; uint64_to_hexstr + 26
        0x00010152:    9a06        ..      LDR      r2,[sp,#0x18]
        0x00010154:    1c50        P.      ADDS     r0,r2,#1
        0x00010156:    9006        ..      STR      r0,[sp,#0x18]
        0x00010158:    f10d0103    ....    ADD      r1,sp,#3
        0x0001015c:    2030        0       MOVS     r0,#0x30
        0x0001015e:    5488        .T      STRB     r0,[r1,r2]
        0x00010160:    e7ff        ..      B        0x10162 ; uint64_to_hexstr + 42
        0x00010162:    e7ff        ..      B        0x10164 ; uint64_to_hexstr + 44
        0x00010164:    980a        ..      LDR      r0,[sp,#0x28]
        0x00010166:    990b        ..      LDR      r1,[sp,#0x2c]
        0x00010168:    4308        .C      ORRS     r0,r0,r1
        0x0001016a:    b350        P.      CBZ      r0,0x101c2 ; uint64_to_hexstr + 138
        0x0001016c:    e7ff        ..      B        0x1016e ; uint64_to_hexstr + 54
        0x0001016e:    f89d0028    ..(.    LDRB     r0,[sp,#0x28]
        0x00010172:    f000000f    ....    AND      r0,r0,#0xf
        0x00010176:    f88d0017    ....    STRB     r0,[sp,#0x17]
        0x0001017a:    f89d0017    ....    LDRB     r0,[sp,#0x17]
        0x0001017e:    280a        .(      CMP      r0,#0xa
        0x00010180:    db0d        ..      BLT      0x1019e ; uint64_to_hexstr + 102
        0x00010182:    e7ff        ..      B        0x10184 ; uint64_to_hexstr + 76
        0x00010184:    f89d0023    ..#.    LDRB     r0,[sp,#0x23]
        0x00010188:    07c0        ..      LSLS     r0,r0,#31
        0x0001018a:    2107        .!      MOVS     r1,#7
        0x0001018c:    2800        .(      CMP      r0,#0
        0x0001018e:    bf18        ..      IT       NE
        0x00010190:    2127        '!      MOVNE    r1,#0x27
        0x00010192:    f89d0017    ....    LDRB     r0,[sp,#0x17]
        0x00010196:    4408        .D      ADD      r0,r0,r1
        0x00010198:    f88d0017    ....    STRB     r0,[sp,#0x17]
        0x0001019c:    e7ff        ..      B        0x1019e ; uint64_to_hexstr + 102
        0x0001019e:    f89d0017    ....    LDRB     r0,[sp,#0x17]
        0x000101a2:    3030        00      ADDS     r0,r0,#0x30
        0x000101a4:    9a06        ..      LDR      r2,[sp,#0x18]
        0x000101a6:    1c51        Q.      ADDS     r1,r2,#1
        0x000101a8:    9106        ..      STR      r1,[sp,#0x18]
        0x000101aa:    f10d0103    ....    ADD      r1,sp,#3
        0x000101ae:    5488        .T      STRB     r0,[r1,r2]
        0x000101b0:    980a        ..      LDR      r0,[sp,#0x28]
        0x000101b2:    990b        ..      LDR      r1,[sp,#0x2c]
        0x000101b4:    0900        ..      LSRS     r0,r0,#4
        0x000101b6:    ea407001    @..p    ORR      r0,r0,r1,LSL #28
        0x000101ba:    0909        ..      LSRS     r1,r1,#4
        0x000101bc:    910b        ..      STR      r1,[sp,#0x2c]
        0x000101be:    900a        ..      STR      r0,[sp,#0x28]
        0x000101c0:    e7d0        ..      B        0x10164 ; uint64_to_hexstr + 44
        0x000101c2:    9806        ..      LDR      r0,[sp,#0x18]
        0x000101c4:    9007        ..      STR      r0,[sp,#0x1c]
        0x000101c6:    9809        ..      LDR      r0,[sp,#0x24]
        0x000101c8:    b198        ..      CBZ      r0,0x101f2 ; uint64_to_hexstr + 186
        0x000101ca:    e7ff        ..      B        0x101cc ; uint64_to_hexstr + 148
        0x000101cc:    e7ff        ..      B        0x101ce ; uint64_to_hexstr + 150
        0x000101ce:    9806        ..      LDR      r0,[sp,#0x18]
        0x000101d0:    1e41        A.      SUBS     r1,r0,#1
        0x000101d2:    9106        ..      STR      r1,[sp,#0x18]
        0x000101d4:    b148        H.      CBZ      r0,0x101ea ; uint64_to_hexstr + 178
        0x000101d6:    e7ff        ..      B        0x101d8 ; uint64_to_hexstr + 160
        0x000101d8:    9906        ..      LDR      r1,[sp,#0x18]
        0x000101da:    f10d0003    ....    ADD      r0,sp,#3
        0x000101de:    5c40        @\      LDRB     r0,[r0,r1]
        0x000101e0:    9909        ..      LDR      r1,[sp,#0x24]
        0x000101e2:    1c4a        J.      ADDS     r2,r1,#1
        0x000101e4:    9209        ..      STR      r2,[sp,#0x24]
        0x000101e6:    7008        .p      STRB     r0,[r1,#0]
        0x000101e8:    e7f1        ..      B        0x101ce ; uint64_to_hexstr + 150
        0x000101ea:    9909        ..      LDR      r1,[sp,#0x24]
        0x000101ec:    2000        .       MOVS     r0,#0
        0x000101ee:    7008        .p      STRB     r0,[r1,#0]
        0x000101f0:    e7ff        ..      B        0x101f2 ; uint64_to_hexstr + 186
        0x000101f2:    9807        ..      LDR      r0,[sp,#0x1c]
        0x000101f4:    b00c        ..      ADD      sp,sp,#0x30
        0x000101f6:    4770        pG      BX       lr
    uint64_to_str
        0x000101f8:    b580        ..      PUSH     {r7,lr}
        0x000101fa:    b090        ..      SUB      sp,sp,#0x40
        0x000101fc:    910f        ..      STR      r1,[sp,#0x3c]
        0x000101fe:    900e        ..      STR      r0,[sp,#0x38]
        0x00010200:    920d        ..      STR      r2,[sp,#0x34]
        0x00010202:    2000        .       MOVS     r0,#0
        0x00010204:    9005        ..      STR      r0,[sp,#0x14]
        0x00010206:    9004        ..      STR      r0,[sp,#0x10]
        0x00010208:    e7ff        ..      B        0x1020a ; uint64_to_str + 18
        0x0001020a:    980e        ..      LDR      r0,[sp,#0x38]
        0x0001020c:    990f        ..      LDR      r1,[sp,#0x3c]
        0x0001020e:    f7feffb3    ....    BL       divu64_10 ; 0xf178
        0x00010212:    9101        ..      STR      r1,[sp,#4]
        0x00010214:    9000        ..      STR      r0,[sp,#0]
        0x00010216:    980e        ..      LDR      r0,[sp,#0x38]
        0x00010218:    9900        ..      LDR      r1,[sp,#0]
        0x0001021a:    eb010181    ....    ADD      r1,r1,r1,LSL #2
        0x0001021e:    eba00041    ..A.    SUB      r0,r0,r1,LSL #1
        0x00010222:    9003        ..      STR      r0,[sp,#0xc]
        0x00010224:    9803        ..      LDR      r0,[sp,#0xc]
        0x00010226:    3030        00      ADDS     r0,r0,#0x30
        0x00010228:    9a05        ..      LDR      r2,[sp,#0x14]
        0x0001022a:    1c51        Q.      ADDS     r1,r2,#1
        0x0001022c:    9105        ..      STR      r1,[sp,#0x14]
        0x0001022e:    f10d011b    ....    ADD      r1,sp,#0x1b
        0x00010232:    5488        .T      STRB     r0,[r1,r2]
        0x00010234:    9800        ..      LDR      r0,[sp,#0]
        0x00010236:    9901        ..      LDR      r1,[sp,#4]
        0x00010238:    910f        ..      STR      r1,[sp,#0x3c]
        0x0001023a:    900e        ..      STR      r0,[sp,#0x38]
        0x0001023c:    e7ff        ..      B        0x1023e ; uint64_to_str + 70
        0x0001023e:    980e        ..      LDR      r0,[sp,#0x38]
        0x00010240:    990f        ..      LDR      r1,[sp,#0x3c]
        0x00010242:    4308        .C      ORRS     r0,r0,r1
        0x00010244:    2800        .(      CMP      r0,#0
        0x00010246:    d1e0        ..      BNE      0x1020a ; uint64_to_str + 18
        0x00010248:    e7ff        ..      B        0x1024a ; uint64_to_str + 82
        0x0001024a:    9805        ..      LDR      r0,[sp,#0x14]
        0x0001024c:    9004        ..      STR      r0,[sp,#0x10]
        0x0001024e:    980d        ..      LDR      r0,[sp,#0x34]
        0x00010250:    b198        ..      CBZ      r0,0x1027a ; uint64_to_str + 130
        0x00010252:    e7ff        ..      B        0x10254 ; uint64_to_str + 92
        0x00010254:    e7ff        ..      B        0x10256 ; uint64_to_str + 94
        0x00010256:    9805        ..      LDR      r0,[sp,#0x14]
        0x00010258:    1e41        A.      SUBS     r1,r0,#1
        0x0001025a:    9105        ..      STR      r1,[sp,#0x14]
        0x0001025c:    b148        H.      CBZ      r0,0x10272 ; uint64_to_str + 122
        0x0001025e:    e7ff        ..      B        0x10260 ; uint64_to_str + 104
        0x00010260:    9905        ..      LDR      r1,[sp,#0x14]
        0x00010262:    f10d001b    ....    ADD      r0,sp,#0x1b
        0x00010266:    5c40        @\      LDRB     r0,[r0,r1]
        0x00010268:    990d        ..      LDR      r1,[sp,#0x34]
        0x0001026a:    1c4a        J.      ADDS     r2,r1,#1
        0x0001026c:    920d        ..      STR      r2,[sp,#0x34]
        0x0001026e:    7008        .p      STRB     r0,[r1,#0]
        0x00010270:    e7f1        ..      B        0x10256 ; uint64_to_str + 94
        0x00010272:    990d        ..      LDR      r1,[sp,#0x34]
        0x00010274:    2000        .       MOVS     r0,#0
        0x00010276:    7008        .p      STRB     r0,[r1,#0]
        0x00010278:    e7ff        ..      B        0x1027a ; uint64_to_str + 130
        0x0001027a:    9804        ..      LDR      r0,[sp,#0x10]
        0x0001027c:    b010        ..      ADD      sp,sp,#0x40
        0x0001027e:    bd80        ..      POP      {r7,pc}
    validate_transaction
        0x00010280:    b580        ..      PUSH     {r7,lr}
        0x00010282:    684b        Kh      LDR      r3,[r1,#4]
        0x00010284:    2b03        .+      CMP      r3,#3
        0x00010286:    d805        ..      BHI      0x10294 ; validate_transaction + 20
        0x00010288:    f8d1c008    ....    LDR      r12,[r1,#8]
        0x0001028c:    00db        ..      LSLS     r3,r3,#3
        0x0001028e:    fa3cf303    <...    LSRS     r3,r12,r3
        0x00010292:    d001        ..      BEQ      0x10298 ; validate_transaction + 24
        0x00010294:    2006        .       MOVS     r0,#6
        0x00010296:    bd80        ..      POP      {r7,pc}
        0x00010298:    f891e010    ....    LDRB     lr,[r1,#0x10]
        0x0001029c:    f8d1c00c    ....    LDR      r12,[r1,#0xc]
        0x000102a0:    f1be0f00    ....    CMP      lr,#0
        0x000102a4:    bf18        ..      IT       NE
        0x000102a6:    f1bc0f00    ....    CMPNE    r12,#0
        0x000102aa:    d10d        ..      BNE      0x102c8 ; validate_transaction + 72
        0x000102ac:    f1be0f01    ....    CMP      lr,#1
        0x000102b0:    bf18        ..      IT       NE
        0x000102b2:    f1bc0f00    ....    CMPNE    r12,#0
        0x000102b6:    d10b        ..      BNE      0x102d0 ; validate_transaction + 80
        0x000102b8:    7a00        .z      LDRB     r0,[r0,#8]
        0x000102ba:    b168        h.      CBZ      r0,0x102d8 ; validate_transaction + 88
        0x000102bc:    2801        .(      CMP      r0,#1
        0x000102be:    d115        ..      BNE      0x102ec ; validate_transaction + 108
        0x000102c0:    f5bc7f00    ....    CMP      r12,#0x200
        0x000102c4:    d8e6        ..      BHI      0x10294 ; validate_transaction + 20
        0x000102c6:    e011        ..      B        0x102ec ; validate_transaction + 108
        0x000102c8:    698b        .i      LDR      r3,[r1,#0x18]
        0x000102ca:    2b00        .+      CMP      r3,#0
        0x000102cc:    d1ee        ..      BNE      0x102ac ; validate_transaction + 44
        0x000102ce:    e7e1        ..      B        0x10294 ; validate_transaction + 20
        0x000102d0:    694b        Ki      LDR      r3,[r1,#0x14]
        0x000102d2:    2b00        .+      CMP      r3,#0
        0x000102d4:    d1f0        ..      BNE      0x102b8 ; validate_transaction + 56
        0x000102d6:    e7dd        ..      B        0x10294 ; validate_transaction + 20
        0x000102d8:    2000        .       MOVS     r0,#0
        0x000102da:    ebb03f1c    ...?    CMP      r0,r12,LSR #12
        0x000102de:    f04f0006    O...    MOV      r0,#6
        0x000102e2:    d105        ..      BNE      0x102f0 ; validate_transaction + 112
        0x000102e4:    680b        .h      LDR      r3,[r1,#0]
        0x000102e6:    2b03        .+      CMP      r3,#3
        0x000102e8:    bf88        ..      IT       HI
        0x000102ea:    bd80        ..      POPHI    {r7,pc}
        0x000102ec:    b10a        ..      CBZ      r2,0x102f2 ; validate_transaction + 114
        0x000102ee:    2000        .       MOVS     r0,#0
        0x000102f0:    bd80        ..      POP      {r7,pc}
        0x000102f2:    f8910020    .. .    LDRB     r0,[r1,#0x20]
        0x000102f6:    f0100fe0    ....    TST      r0,#0xe0
        0x000102fa:    d1cb        ..      BNE      0x10294 ; validate_transaction + 20
        0x000102fc:    6a48        Hj      LDR      r0,[r1,#0x24]
        0x000102fe:    f24e01e0    N...    MOV      r1,#0xe0e0
        0x00010302:    f2c001e0    ....    MOVT     r1,#0xe0
        0x00010306:    4208        .B      TST      r0,r1
        0x00010308:    d1c4        ..      BNE      0x10294 ; validate_transaction + 20
        0x0001030a:    e7f0        ..      B        0x102ee ; validate_transaction + 110
    write_nonblocking
        0x0001030c:    b570        p.      PUSH     {r4-r6,lr}
        0x0001030e:    b300        ..      CBZ      r0,0x10352 ; write_nonblocking + 70
        0x00010310:    4605        .F      MOV      r5,r0
        0x00010312:    6800        .h      LDR      r0,[r0,#0]
        0x00010314:    461c        .F      MOV      r4,r3
        0x00010316:    f6496306    I..c    MOV      r3,#0x9e06
        0x0001031a:    f020407e     .~@    BIC      r0,r0,#0xfe000000
        0x0001031e:    f2c013ea    ....    MOVT     r3,#0x1ea
        0x00010322:    4298        .B      CMP      r0,r3
        0x00010324:    d115        ..      BNE      0x10352 ; write_nonblocking + 70
        0x00010326:    b10c        ..      CBZ      r4,0x1032c ; write_nonblocking + 32
        0x00010328:    2000        .       MOVS     r0,#0
        0x0001032a:    6020         `      STR      r0,[r4,#0]
        0x0001032c:    b33a        :.      CBZ      r2,0x1037e ; write_nonblocking + 114
        0x0001032e:    f8950028    ..(.    LDRB     r0,[r5,#0x28]
        0x00010332:    b180        ..      CBZ      r0,0x10356 ; write_nonblocking + 74
        0x00010334:    6b6b        kk      LDR      r3,[r5,#0x34]
        0x00010336:    6bae        .k      LDR      r6,[r5,#0x38]
        0x00010338:    f105002c    ..,.    ADD      r0,r5,#0x2c
        0x0001033c:    1af6        ..      SUBS     r6,r6,r3
        0x0001033e:    4296        .B      CMP      r6,r2
        0x00010340:    bf88        ..      IT       HI
        0x00010342:    4616        .F      MOVHI    r6,r2
        0x00010344:    4632        2F      MOV      r2,r6
        0x00010346:    f7fdff0d    ....    BL       am_hal_queue_item_add ; 0xe164
        0x0001034a:    4628        (F      MOV      r0,r5
        0x0001034c:    f7fffe7e    ..~.    BL       tx_queue_update ; 0x1004c
        0x00010350:    e013        ..      B        0x1037a ; write_nonblocking + 110
        0x00010352:    2002        .       MOVS     r0,#2
        0x00010354:    bd70        p.      POP      {r4-r6,pc}
        0x00010356:    6a68        hj      LDR      r0,[r5,#0x24]
        0x00010358:    f24c0300    L...    MOVW     r3,#0xc000
        0x0001035c:    f2c40301    ....    MOVT     r3,#0x4001
        0x00010360:    eb033000    ...0    ADD      r0,r3,r0,LSL #12
        0x00010364:    2600        .&      MOVS     r6,#0
        0x00010366:    bf00        ..      NOP      
        0x00010368:    6983        .i      LDR      r3,[r0,#0x18]
        0x0001036a:    069b        ..      LSLS     r3,r3,#26
        0x0001036c:    d405        ..      BMI      0x1037a ; write_nonblocking + 110
        0x0001036e:    5d8b        .]      LDRB     r3,[r1,r6]
        0x00010370:    3601        .6      ADDS     r6,#1
        0x00010372:    42b2        .B      CMP      r2,r6
        0x00010374:    6003        .`      STR      r3,[r0,#0]
        0x00010376:    d1f7        ..      BNE      0x10368 ; write_nonblocking + 92
        0x00010378:    4616        .F      MOV      r6,r2
        0x0001037a:    b104        ..      CBZ      r4,0x1037e ; write_nonblocking + 114
        0x0001037c:    6026        &`      STR      r6,[r4,#0]
        0x0001037e:    2000        .       MOVS     r0,#0
        0x00010380:    bd70        p.      POP      {r4-r6,pc}
        0x00010382:    0000        ..      MOVS     r0,r0
    $t
    x$fpl$d2f
    $v0
    __aeabi_d2f
    _d2f
        0x00010384:    f0214200    !..B    BIC      r2,r1,#0x80000000
        0x00010388:    f0014300    ...C    AND      r3,r1,#0x80000000
        0x0001038c:    f1a25260    ..`R    SUB      r2,r2,#0x38000000
        0x00010390:    f5b21f80    ....    CMP      r2,#0x100000
        0x00010394:    bf28        (.      IT       CS
        0x00010396:    f1d26c7f    ...l    RSBSCS   r12,r2,#0xff00000
        0x0001039a:    d90b        ..      BLS      0x103b4 ; __aeabi_d2f + 48
        0x0001039c:    ea5f1c00    _...    LSLS     r12,r0,#4
        0x000103a0:    ea4302c2    C...    ORR      r2,r3,r2,LSL #3
        0x000103a4:    eb427050    B.Pp    ADC      r0,r2,r0,LSR #29
        0x000103a8:    bf18        ..      IT       NE
        0x000103aa:    4770        pG      BXNE     lr
        0x000103ac:    bf28        (.      IT       CS
        0x000103ae:    f0200001     ...    BICCS    r0,r0,#1
        0x000103b2:    4770        pG      BX       lr
        0x000103b4:    f5b21f80    ....    CMP      r2,#0x100000
        0x000103b8:    bfbc        ..      ITT      LT
        0x000103ba:    4618        .F      MOVLT    r0,r3
        0x000103bc:    4770        pG      BXLT     lr
        0x000103be:    ea4f0c41    O.A.    LSL      r12,r1,#1
        0x000103c2:    f51c1f00    ....    CMN      r12,#0x200000
        0x000103c6:    d202        ..      BCS      0x103ce ; __aeabi_d2f + 74
        0x000103c8:    4608        .F      MOV      r0,r1
        0x000103ca:    f000b867    ..g.    B.W      __fpl_fretinf ; 0x1049c
        0x000103ce:    b570        p.      PUSH     {r4-r6,lr}
        0x000103d0:    f000f809    ....    BL       __fpl_dnaninf ; 0x103e6
    $d
        0x000103d4:    89000000    ....    DCD    2298478592
    $t
        0x000103d8:    f7ffbff6    ....    B.W      0x103c8 ; __aeabi_d2f + 68
        0x000103dc:    f04f4000    O..@    MOV      r0,#0x80000000
        0x000103e0:    f5a00080    ....    SUB      r0,r0,#0x400000
        0x000103e4:    4770        pG      BX       lr
    x$fpl$dnaninf
    $v0
    __fpl_dnaninf
        0x000103e6:    f10e0e02    ....    ADD      lr,lr,#2
        0x000103ea:    f02e0e03    ....    BIC      lr,lr,#3
        0x000103ee:    f85e6b04    ^..k    LDR      r6,[lr],#4
        0x000103f2:    4236        6B      TST      r6,r6
        0x000103f4:    d405        ..      BMI      0x10402 ; __fpl_dnaninf + 28
        0x000103f6:    2a01        .*      CMP      r2,#1
        0x000103f8:    eb430503    C...    ADC      r5,r3,r3
        0x000103fc:    f5151f00    ....    CMN      r5,#0x200000
        0x00010400:    d812        ..      BHI      0x10428 ; __fpl_dnaninf + 66
        0x00010402:    2801        .(      CMP      r0,#1
        0x00010404:    eb410c01    A...    ADC      r12,r1,r1
        0x00010408:    f51c1f00    ....    CMN      r12,#0x200000
        0x0001040c:    d80c        ..      BHI      0x10428 ; __fpl_dnaninf + 66
        0x0001040e:    d10e        ..      BNE      0x1042e ; __fpl_dnaninf + 72
        0x00010410:    ea4f7cd1    O..|    LSR      r12,r1,#31
        0x00010414:    eb0c0c4c    ..L.    ADD      r12,r12,r12,LSL #1
        0x00010418:    f10c0c02    ....    ADD      r12,r12,#2
        0x0001041c:    f5151f00    ....    CMN      r5,#0x200000
        0x00010420:    bf08        ..      IT       EQ
        0x00010422:    eb4c7cd3    L..|    ADCEQ    r12,r12,r3,LSR #31
        0x00010426:    e004        ..      B        0x10432 ; __fpl_dnaninf + 76
        0x00010428:    f04f0c08    O...    MOV      r12,#8
        0x0001042c:    e001        ..      B        0x10432 ; __fpl_dnaninf + 76
        0x0001042e:    ea4f7cd3    O..|    LSR      r12,r3,#31
        0x00010432:    eb0c054c    ..L.    ADD      r5,r12,r12,LSL #1
        0x00010436:    fa26f605    &...    LSR      r6,r6,r5
        0x0001043a:    f0060607    ....    AND      r6,r6,#7
        0x0001043e:    f1b60c04    ....    SUBS     r12,r6,#4
        0x00010442:    d206        ..      BCS      0x10452 ; __fpl_dnaninf + 108
        0x00010444:    eb0e0c86    ....    ADD      r12,lr,r6,LSL #2
        0x00010448:    e8bd4070    ..p@    POP      {r4-r6,lr}
        0x0001044c:    f04c0c01    L...    ORR      r12,r12,#1
        0x00010450:    4760        `G      BX       r12
        0x00010452:    e8dff00c    ....    TBB      [pc,r12]
    $d
        0x00010456:    0b09        ..      DCW    2825
        0x00010458:    0202        ..      DCW    514
    $t
        0x0001045a:    f04f4100    O..A    MOV      r1,#0x80000000
        0x0001045e:    f5a12100    ...!    SUB      r1,r1,#0x80000
        0x00010462:    f04f0000    O...    MOV      r0,#0
        0x00010466:    bd70        p.      POP      {r4-r6,pc}
        0x00010468:    4619        .F      MOV      r1,r3
        0x0001046a:    4610        .F      MOV      r0,r2
        0x0001046c:    2801        .(      CMP      r0,#1
        0x0001046e:    eb510401    Q...    ADCS     r4,r1,r1
        0x00010472:    bf18        ..      IT       NE
        0x00010474:    f5d41400    ....    RSBSNE   r4,r4,#0x200000
        0x00010478:    bf84        ..      ITT      HI
        0x0001047a:    2000        .       MOVHI    r0,#0
        0x0001047c:    f0014100    ...A    ANDHI    r1,r1,#0x80000000
        0x00010480:    bd70        p.      POP      {r4-r6,pc}
    x$fpl$fpinit
    $v0
    _fp_init
        0x00010482:    eef10a10    ....    VMRS     r0,FPSCR
        0x00010486:    f64f71ff    O..q    MOV      r1,#0xffff
        0x0001048a:    f2c031c0    ...1    MOVT     r1,#0x3c0
        0x0001048e:    ea200001     ...    BIC      r0,r0,r1
        0x00010492:    f0407040    @.@p    ORR      r0,r0,#0x3000000
        0x00010496:    eee10a10    ....    VMSR     FPSCR,r0
    __fplib_config_fpu_vfp
    __fplib_config_pureend_doubles
        0x0001049a:    4770        pG      BX       lr
    x$fpl$fretinf
    $v0
    __fpl_fretinf
        0x0001049c:    21ff        .!      MOVS     r1,#0xff
        0x0001049e:    ea4150d0    A..P    ORR      r0,r1,r0,LSR #23
        0x000104a2:    05c0        ..      LSLS     r0,r0,#23
        0x000104a4:    4770        pG      BX       lr
    x$fpl$usenofp
    __I$use$fp
        0x000104a6:    0000        ..      MOVS     r0,r0
    $d.realdata
    .L__const.am_hal_flash_store_ui32.SRAM_write_ui32
        0x000104a8:    bf006001    .`..    DCD    3204472833
        0x000104ac:    bf006800    .h..    DCD    3204474880
        0x000104b0:    bf004770    pG..    DCD    3204466544
    am_hal_pwrctrl_peripheral_control
        0x000104b4:    00000000    ....    DCD    0
        0x000104b8:    00000000    ....    DCD    0
        0x000104bc:    00000000    ....    DCD    0
        0x000104c0:    00000001    ....    DCD    1
        0x000104c4:    00000004    ....    DCD    4
        0x000104c8:    00000004    ....    DCD    4
        0x000104cc:    00000002    ....    DCD    2
        0x000104d0:    00000008    ....    DCD    8
        0x000104d4:    00000008    ....    DCD    8
        0x000104d8:    00000004    ....    DCD    4
        0x000104dc:    00000008    ....    DCD    8
        0x000104e0:    00000008    ....    DCD    8
        0x000104e4:    00000008    ....    DCD    8
        0x000104e8:    00000008    ....    DCD    8
        0x000104ec:    00000008    ....    DCD    8
        0x000104f0:    00000010    ....    DCD    16
        0x000104f4:    00000010    ....    DCD    16
        0x000104f8:    00000010    ....    DCD    16
        0x000104fc:    00000020     ...    DCD    32
        0x00010500:    00000010    ....    DCD    16
        0x00010504:    00000010    ....    DCD    16
        0x00010508:    00000040    @...    DCD    64
        0x0001050c:    00000010    ....    DCD    16
        0x00010510:    00000010    ....    DCD    16
        0x00010514:    00000080    ....    DCD    128
        0x00010518:    00000004    ....    DCD    4
        0x0001051c:    00000004    ....    DCD    4
        0x00010520:    00000100    ....    DCD    256
        0x00010524:    00000004    ....    DCD    4
        0x00010528:    00000004    ....    DCD    4
        0x0001052c:    00000200    ....    DCD    512
        0x00010530:    00000020     ...    DCD    32
        0x00010534:    00000020     ...    DCD    32
        0x00010538:    00000400    ....    DCD    1024
        0x0001053c:    00000004    ....    DCD    4
        0x00010540:    00000004    ....    DCD    4
        0x00010544:    00000800    ....    DCD    2048
        0x00010548:    00000040    @...    DCD    64
        0x0001054c:    00000040    @...    DCD    64
        0x00010550:    00001000    ....    DCD    4096
        0x00010554:    00000040    @...    DCD    64
        0x00010558:    00000040    @...    DCD    64
        0x0001055c:    00002000    . ..    DCD    8192
        0x00010560:    00000040    @...    DCD    64
        0x00010564:    00000040    @...    DCD    64
        0x00010568:    00004000    .@..    DCD    16384
        0x0001056c:    00000080    ....    DCD    128
        0x00010570:    00000080    ....    DCD    128
        0x00010574:    00008000    ....    DCD    32768
        0x00010578:    00000100    ....    DCD    256
        0x0001057c:    00000100    ....    DCD    256
    gAmHalCmdQReg
        0x00010580:    50004294    .B.P    DCD    1342194324
        0x00010584:    50004298    .B.P    DCD    1342194328
        0x00010588:    500042ac    .B.P    DCD    1342194348
        0x0001058c:    500042b0    .B.P    DCD    1342194352
        0x00010590:    500042a8    .B.P    DCD    1342194344
        0x00010594:    00008000    ....    DCD    32768
        0x00010598:    5000429c    .B.P    DCD    1342194332
        0x0001059c:    00000001    ....    DCD    1
        0x000105a0:    00000004    ....    DCD    4
        0x000105a4:    00000002    ....    DCD    2
        0x000105a8:    50005294    .R.P    DCD    1342198420
        0x000105ac:    50005298    .R.P    DCD    1342198424
        0x000105b0:    500052ac    .R.P    DCD    1342198444
        0x000105b4:    500052b0    .R.P    DCD    1342198448
        0x000105b8:    500052a8    .R.P    DCD    1342198440
        0x000105bc:    00008000    ....    DCD    32768
        0x000105c0:    5000529c    .R.P    DCD    1342198428
        0x000105c4:    00000001    ....    DCD    1
        0x000105c8:    00000004    ....    DCD    4
        0x000105cc:    00000002    ....    DCD    2
        0x000105d0:    50006294    .b.P    DCD    1342202516
        0x000105d4:    50006298    .b.P    DCD    1342202520
        0x000105d8:    500062ac    .b.P    DCD    1342202540
        0x000105dc:    500062b0    .b.P    DCD    1342202544
        0x000105e0:    500062a8    .b.P    DCD    1342202536
        0x000105e4:    00008000    ....    DCD    32768
        0x000105e8:    5000629c    .b.P    DCD    1342202524
        0x000105ec:    00000001    ....    DCD    1
        0x000105f0:    00000004    ....    DCD    4
        0x000105f4:    00000002    ....    DCD    2
        0x000105f8:    50007294    .r.P    DCD    1342206612
        0x000105fc:    50007298    .r.P    DCD    1342206616
        0x00010600:    500072ac    .r.P    DCD    1342206636
        0x00010604:    500072b0    .r.P    DCD    1342206640
        0x00010608:    500072a8    .r.P    DCD    1342206632
        0x0001060c:    00008000    ....    DCD    32768
        0x00010610:    5000729c    .r.P    DCD    1342206620
        0x00010614:    00000001    ....    DCD    1
        0x00010618:    00000004    ....    DCD    4
        0x0001061c:    00000002    ....    DCD    2
        0x00010620:    50008294    ...P    DCD    1342210708
        0x00010624:    50008298    ...P    DCD    1342210712
        0x00010628:    500082ac    ...P    DCD    1342210732
        0x0001062c:    500082b0    ...P    DCD    1342210736
        0x00010630:    500082a8    ...P    DCD    1342210728
        0x00010634:    00008000    ....    DCD    32768
        0x00010638:    5000829c    ...P    DCD    1342210716
        0x0001063c:    00000001    ....    DCD    1
        0x00010640:    00000004    ....    DCD    4
        0x00010644:    00000002    ....    DCD    2
        0x00010648:    50009294    ...P    DCD    1342214804
        0x0001064c:    50009298    ...P    DCD    1342214808
        0x00010650:    500092ac    ...P    DCD    1342214828
        0x00010654:    500092b0    ...P    DCD    1342214832
        0x00010658:    500092a8    ...P    DCD    1342214824
        0x0001065c:    00008000    ....    DCD    32768
        0x00010660:    5000929c    ...P    DCD    1342214812
        0x00010664:    00000001    ....    DCD    1
        0x00010668:    00000004    ....    DCD    4
        0x0001066c:    00000002    ....    DCD    2
        0x00010670:    500142a0    .B.P    DCD    1342259872
        0x00010674:    500142a8    .B.P    DCD    1342259880
        0x00010678:    500142c0    .B.P    DCD    1342259904
        0x0001067c:    500142c4    .B.P    DCD    1342259908
        0x00010680:    500142b8    .B.P    DCD    1342259896
        0x00010684:    00004000    .@..    DCD    16384
        0x00010688:    500142ac    .B.P    DCD    1342259884
        0x0001068c:    00000001    ....    DCD    1
        0x00010690:    00000004    ....    DCD    4
        0x00010694:    00000008    ....    DCD    8
        0x00010698:    500152a0    .R.P    DCD    1342263968
        0x0001069c:    500152a8    .R.P    DCD    1342263976
        0x000106a0:    500152c0    .R.P    DCD    1342264000
        0x000106a4:    500152c4    .R.P    DCD    1342264004
        0x000106a8:    500152b8    .R.P    DCD    1342263992
        0x000106ac:    00004000    .@..    DCD    16384
        0x000106b0:    500152ac    .R.P    DCD    1342263980
        0x000106b4:    00000001    ....    DCD    1
        0x000106b8:    00000004    ....    DCD    4
        0x000106bc:    00000008    ....    DCD    8
        0x000106c0:    500162a0    .b.P    DCD    1342268064
        0x000106c4:    500162a8    .b.P    DCD    1342268072
        0x000106c8:    500162c0    .b.P    DCD    1342268096
        0x000106cc:    500162c4    .b.P    DCD    1342268100
        0x000106d0:    500162b8    .b.P    DCD    1342268088
        0x000106d4:    00004000    .@..    DCD    16384
        0x000106d8:    500162ac    .b.P    DCD    1342268076
        0x000106dc:    00000001    ....    DCD    1
        0x000106e0:    00000004    ....    DCD    4
        0x000106e4:    00000008    ....    DCD    8
        0x000106e8:    5000c248    H..P    DCD    1342227016
        0x000106ec:    5000c24c    L..P    DCD    1342227020
        0x000106f0:    5000c260    `..P    DCD    1342227040
        0x000106f4:    5000c264    d..P    DCD    1342227044
        0x000106f8:    5000c25c    \..P    DCD    1342227036
        0x000106fc:    00008000    ....    DCD    32768
        0x00010700:    5000c250    P..P    DCD    1342227024
        0x00010704:    00000001    ....    DCD    1
        0x00010708:    00000004    ....    DCD    4
        0x0001070c:    00000002    ....    DCD    2
    g_AM_BSP_GPIO_COM_UART_RX
        0x00010710:    00000000    ....    DCD    0
    g_AM_BSP_GPIO_COM_UART_TX
        0x00010714:    00000000    ....    DCD    0
    g_AM_BSP_GPIO_FT_BRIDGE_MISO
        0x00010718:    00050005    ....    DCD    327685
    g_AM_BSP_GPIO_FT_BRIDGE_MOSI
        0x0001071c:    00050305    ....    DCD    328453
    g_AM_BSP_GPIO_FT_BRIDGE_SCK
        0x00010720:    00050b45    E...    DCD    330565
    g_AM_BSP_GPIO_FT_BRIDGE_SS
        0x00010724:    00350701    ..5.    DCD    3475201
    g_AM_BSP_GPIO_IOM0_CS
        0x00010728:    00010701    ....    DCD    67329
    g_AM_BSP_GPIO_IOM0_MISO
        0x0001072c:    00010001    ....    DCD    65537
    g_AM_BSP_GPIO_IOM0_MOSI
        0x00010730:    00010301    ....    DCD    66305
    g_AM_BSP_GPIO_IOM0_SCK
        0x00010734:    00010301    ....    DCD    66305
    g_AM_BSP_GPIO_IOM0_SCL
        0x00010738:    00010b40    @...    DCD    68416
    g_AM_BSP_GPIO_IOM0_SDA
        0x0001073c:    00010b40    @...    DCD    68416
    g_AM_BSP_GPIO_IOM1_CS
        0x00010740:    00230701    ..#.    DCD    2295553
    g_AM_BSP_GPIO_IOM1_MISO
        0x00010744:    00030001    ....    DCD    196609
    g_AM_BSP_GPIO_IOM1_MOSI
        0x00010748:    00030301    ....    DCD    197377
    g_AM_BSP_GPIO_IOM1_SCK
        0x0001074c:    00030301    ....    DCD    197377
    g_AM_BSP_GPIO_IOM1_SCL
        0x00010750:    00030b40    @...    DCD    199488
    g_AM_BSP_GPIO_IOM1_SDA
        0x00010754:    00030b40    @...    DCD    199488
    g_AM_BSP_GPIO_IOM2_SCL
        0x00010758:    00050b44    D...    DCD    330564
    g_AM_BSP_GPIO_IOM2_SDA
        0x0001075c:    00050b44    D...    DCD    330564
    g_AM_BSP_GPIO_IOM3_CS
        0x00010760:    00070701    ....    DCD    460545
    g_AM_BSP_GPIO_IOM3_MISO
        0x00010764:    00070005    ....    DCD    458757
    g_AM_BSP_GPIO_IOM3_MOSI
        0x00010768:    00070305    ....    DCD    459525
    g_AM_BSP_GPIO_IOM3_SCK
        0x0001076c:    00070305    ....    DCD    459525
    g_AM_BSP_GPIO_IOM3_SCL
        0x00010770:    00070b44    D...    DCD    461636
    g_AM_BSP_GPIO_IOM3_SDA
        0x00010774:    00070b44    D...    DCD    461636
    g_AM_BSP_GPIO_IOM4_CS
        0x00010778:    00190701    ....    DCD    1640193
    g_AM_BSP_GPIO_IOM4_MISO
        0x0001077c:    00090005    ....    DCD    589829
    g_AM_BSP_GPIO_IOM4_MOSI
        0x00010780:    00090305    ....    DCD    590597
    g_AM_BSP_GPIO_IOM4_SCK
        0x00010784:    00090305    ....    DCD    590597
    g_AM_BSP_GPIO_IOM4_SCL
        0x00010788:    00090b44    D...    DCD    592708
    g_AM_BSP_GPIO_IOM4_SDA
        0x0001078c:    00090b44    D...    DCD    592708
    g_AM_BSP_GPIO_IOM5_CS
        0x00010790:    000b0701    ....    DCD    722689
    g_AM_BSP_GPIO_IOM5_MISO
        0x00010794:    000b0005    ....    DCD    720901
    g_AM_BSP_GPIO_IOM5_MOSI
        0x00010798:    000b0305    ....    DCD    721669
    g_AM_BSP_GPIO_IOM5_SCK
        0x0001079c:    000b0305    ....    DCD    721669
    g_AM_BSP_GPIO_IOM5_SCL
        0x000107a0:    000b0b44    D...    DCD    723780
    g_AM_BSP_GPIO_IOM5_SDA
        0x000107a4:    000b0b44    D...    DCD    723780
    g_AM_BSP_GPIO_ITM_SWO
        0x000107a8:    00000002    ....    DCD    2
    g_AM_HAL_GPIO_DISABLE
        0x000107ac:    00000003    ....    DCD    3
    g_AM_HAL_GPIO_INPUT_PULLUP
        0x000107b0:    00001023    #...    DCD    4131
    g_AM_HAL_GPIO_OUTPUT
        0x000107b4:    00000403    ....    DCD    1027
    g_am_hal_mcuctrl_flash_size
        0x000107b8:    00004000    .@..    DCD    16384
        0x000107bc:    00008000    ....    DCD    32768
        0x000107c0:    00010000    ....    DCD    65536
        0x000107c4:    00020000    ....    DCD    131072
        0x000107c8:    00040000    ....    DCD    262144
        0x000107cc:    00080000    ....    DCD    524288
        0x000107d0:    00100000    ....    DCD    1048576
        0x000107d4:    00200000    .. .    DCD    2097152
        0x000107d8:    00180000    ....    DCD    1572864
        0x000107dc:    00000000    ....    DCD    0
        0x000107e0:    00000000    ....    DCD    0
        0x000107e4:    00000000    ....    DCD    0
        0x000107e8:    00000000    ....    DCD    0
        0x000107ec:    00000000    ....    DCD    0
        0x000107f0:    00000000    ....    DCD    0
        0x000107f4:    00000000    ....    DCD    0
    g_am_hal_mcuctrl_sram_size
        0x000107f8:    00004000    .@..    DCD    16384
        0x000107fc:    00008000    ....    DCD    32768
        0x00010800:    00010000    ....    DCD    65536
        0x00010804:    00020000    ....    DCD    131072
        0x00010808:    00040000    ....    DCD    262144
        0x0001080c:    00080000    ....    DCD    524288
        0x00010810:    00100000    ....    DCD    1048576
        0x00010814:    00060000    ....    DCD    393216
        0x00010818:    000c0000    ....    DCD    786432
        0x0001081c:    00000000    ....    DCD    0
        0x00010820:    00000000    ....    DCD    0
        0x00010824:    00000000    ....    DCD    0
        0x00010828:    00000000    ....    DCD    0
        0x0001082c:    00000000    ....    DCD    0
        0x00010830:    00000000    ....    DCD    0
        0x00010834:    00000000    ....    DCD    0
    g_ui8Bit76Capabilities
        0x00010838:    02800101    ....    DCD    41943297
        0x0001083c:    80010180    ....    DCD    2147549568
        0x00010840:    80800101    ....    DCD    2155872513
        0x00010844:    80808080    ....    DCD    2155905152
        0x00010848:    80808080    ....    DCD    2155905152
        0x0001084c:    80808008    ....    DCD    2155905032
        0x00010850:    01800180    ....    DCD    25166208
        0x00010854:    80808080    ....    DCD    2155905152
        0x00010858:    80808080    ....    DCD    2155905152
        0x0001085c:    01800402    ....    DCD    25166850
        0x00010860:    01010401    ....    DCD    16843777
        0x00010864:    80808080    ....    DCD    2155905152
        0x00010868:    80800101    ....    DCD    2155872513
        0x0001086c:    80808080    ....    DCD    2155905152
        0x00010870:    80808080    ....    DCD    2155905152
        0x00010874:    80808080    ....    DCD    2155905152
        0x00010878:    80808080    ....    DCD    2155905152
        0x0001087c:    80808080    ....    DCD    2155905152
        0x00010880:    8080        ..      DCW    32896
    g_ui8Inpen
        0x00010882:    2323        ##      DCW    8995
        0x00010884:    03a16227    'b..    DCD    60908071
        0x00010888:    53031087    ...S    DCD    1392709767
        0x0001088c:    8151e100    ..Q.    DCD    2169626880
        0x00010890:    c4055541    AU..    DCD    3288683841
        0x00010894:    b1014080    .@..    DCD    2969649280
        0x00010898:    31144140    @A.1    DCD    823411008
        0x0001089c:    f10031a0    .1..    DCD    4043321760
        0x000108a0:    21911180    ...!    DCD    563155328
        0x000108a4:    11e511c1    ....    DCD    300224961
        0x000108a8:    00373045    E07.    DCD    3616837
        0x000108ac:    71003130    01.q    DCD    1895838000
        0x000108b0:    31304000    .@01    DCD    825245696
        0x000108b4:    01010100    ....    DCD    16843008
        0x000108b8:    01010101    ....    DCD    16843009
        0x000108bc:    a0010101    ....    DCD    2684420353
        0x000108c0:    0101a050    P...    DCD    16883792
        0x000108c4:    a0010101    ....    DCD    2684420353
        0x000108c8:    50a0a0a0    ...P    DCD    1352704160
    g_ui8NCEtable
        0x000108cc:    0112a4a3    ....    DCD    17999011
        0x000108d0:    a4a2a1a0    ....    DCD    2762121632
        0x000108d4:    92b502b3    ....    DCD    2461336243
        0x000108d8:    82858483    ....    DCD    2189788291
        0x000108dc:    91019493    ....    DCD    2432799891
        0x000108e0:    ffffffff    ....    DCD    4294967295
        0x000108e4:    ffffffff    ....    DCD    4294967295
        0x000108e8:    00951201    ....    DCD    9769473
        0x000108ec:    80028483    ....    DCD    2147648643
        0x000108f0:    b2b5b401    ....    DCD    2998252545
        0x000108f4:    0011a4a3    ....    DCD    1156259
        0x000108f8:    83828180    ....    DCD    2206368128
        0x000108fc:    10850283    ....    DCD    277152387
        0x00010900:    90959493    ....    DCD    2425722003
        0x00010904:    a4a212a0    ....    DCD    2762085024
        0x00010908:    00b2b101    ....    DCD    11710721
        0x0001090c:    85b20280    ....    DCD    2243035776
        0x00010910:    94029190    ....    DCD    2483196304
        0x00010914:    a3a2a102    ....    DCD    2745344258
        0x00010918:    00b311b0    ....    DCD    11735472
        0x0001091c:    92950012    ....    DCD    2459238418
        0x00010920:    0102a4a3    ....    DCD    16950435
        0x00010924:    02b5b4b3    ....    DCD    45462707
        0x00010928:    84828180    ....    DCD    2223145344
        0x0001092c:    95920190    ....    DCD    2509373840
        0x00010930:    a0a501a3    ....    DCD    2695168419
        0x00010934:    b1b5b4b3    ....    DCD    2981475507
        0x00010938:    81008402    ....    DCD    2164294658
        0x0001093c:    00959493    ....    DCD    9802899
        0x00010940:    a1a512a3    ....    DCD    2711949987
        0x00010944:    b002b400    ....    DCD    2952967168
        0x00010948:    84820201    ....    DCD    2223112705
        0x0001094c:    1001b190    ....    DCD    268546448
        0x00010950:    a59211a0    ....    DCD    2777813408
        0x00010954:    11b202b0    ....    DCD    296878768
        0x00010958:    02828101    ....    DCD    42107137
        0x0001095c:    10959493    ....    DCD    278238355
        0x00010960:    00a5a493    ....    DCD    10855571
        0x00010964:    b512b1b0    ....    DCD    3037901232
        0x00010968:    ffffffff    ....    DCD    4294967295
        0x0001096c:    ffffffff    ....    DCD    4294967295
        0x00010970:    10119102    ....    DCD    269586690
        0x00010974:    85820180    ....    DCD    2239889792
        0x00010978:    10029190    ....    DCD    268603792
        0x0001097c:    a5a200a0    ....    DCD    2778857632
        0x00010980:    b185b4b3    ....    DCD    2978329779
        0x00010984:    10020183    ....    DCD    268566915
        0x00010988:    93928111    ....    DCD    2475852049
        0x0001098c:    12a2a101    ....    DCD    312647937
        0x00010990:    81b211b0    ....    DCD    2175930800
        0x00010994:    80b20201    ....    DCD    2159149569
        0x00010998:    809291a4    ....    DCD    2157089188
        0x0001099c:    9200a190    ....    DCD    2449514896
        0x000109a0:    8202b1a0    ....    DCD    2181214624
        0x000109a4:    83858402    ....    DCD    2206565378
        0x000109a8:    84950083    ....    DCD    2224357507
        0x000109ac:    10a5b4a3    ....    DCD    279295139
        0x000109b0:    90b5b400    ....    DCD    2427827200
        0x000109b4:    b50081b3    ....    DCD    3036709299
        0x000109b8:    00929111    ....    DCD    9605393
        0x000109bc:    b0a2a110    ....    DCD    2963448080
        0x000109c0:    0102b100    ....    DCD    16953600
        0x000109c4:    11858410    ....    DCD    293962768
        0x000109c8:    00029401    ....    DCD    168961
        0x000109cc:    10a5a480    ....    DCD    279291008
        0x000109d0:    93a50090    ....    DCD    2477064336
        0x000109d4:    94828101    ....    DCD    2491580673
        0x000109d8:    95b291b0    ....    DCD    2511507888
        0x000109dc:    a0a20083    ....    DCD    2694971523
        0x000109e0:    0100b193    ....    DCD    16822675
        0x000109e4:    118502a3    ....    DCD    293929635
        0x000109e8:    a1b094b3    ....    DCD    2712704179
        0x000109ec:    a2010200    ....    DCD    2717975040
        0x000109f0:    02b5b401    ....    DCD    45462529
    g_ui8nCEpins
        0x000109f4:    02070707    ....    DCD    34014983
        0x000109f8:    00080802    ....    DCD    526338
        0x000109fc:    01020202    ....    DCD    16908802
        0x00010a00:    01010101    ....    DCD    16843009
        0x00010a04:    01010101    ....    DCD    16843009
        0x00010a08:    01010101    ....    DCD    16843009
        0x00010a0c:    01010101    ....    DCD    16843009
        0x00010a10:    01010101    ....    DCD    16843009
        0x00010a14:    01010101    ....    DCD    16843009
        0x00010a18:    08010101    ....    DCD    134283521
        0x00010a1c:    01010008    ....    DCD    16842760
        0x00010a20:    01010101    ....    DCD    16843009
        0x00010a24:    01010101    ....    DCD    16843009
        0x00010a28:    01010101    ....    DCD    16843009
        0x00010a2c:    01010101    ....    DCD    16843009
        0x00010a30:    01010101    ....    DCD    16843009
        0x00010a34:    01010101    ....    DCD    16843009
        0x00010a38:    01010101    ....    DCD    16843009
        0x00010a3c:    0101        ..      DCW    257
    .L.str
        0x00010a3e:    6573        se      DCW    25971
        0x00010a40:    685f646e    nd_h    DCD    1751082094
        0x00010a44:    6f6c6c65    ello    DCD    1869376613
        0x00010a48:    6573203a    : se    DCD    1702043706
        0x00010a4c:    6e69646e    ndin    DCD    1852400750
        0x00010a50:    79622067    g by    DCD    2036473959
        0x00010a54:    3a736574    tes:    DCD    980641140
        0x00010a58:    2e642520     %d.    DCD    778315040
        0x00010a5c:    000a        ..      DCW    10
    .L.str.6
        0x00010a5e:    6e69        in      DCW    28265
        0x00010a60:    20786564    dex     DCD    544761188
        0x00010a64:    20202020            DCD    538976288
        0x00010a68:    20202020            DCD    538976288
        0x00010a6c:    20202020            DCD    538976288
        0x00010a70:    6425203a    : %d    DCD    1680154682
        0x00010a74:    000a        ..      DCW    10
    .L.str.7
        0x00010a76:    4f49        IO      DCW    20297
        0x00010a78:    654c2053    S Le    DCD    1699487827
        0x00010a7c:    6874676e    ngth    DCD    1752459118
        0x00010a80:    20202020            DCD    538976288
        0x00010a84:    20202020            DCD    538976288
        0x00010a88:    6425203a    : %d    DCD    1680154682
        0x00010a8c:    000a        ..      DCW    10
    .L.str.9
        0x00010a8e:    4f49        IO      DCW    20297
        0x00010a90:    6e452053    S En    DCD    1850024019
        0x00010a94:    69422064    d Bi    DCD    1765941348
        0x00010a98:    20202074    t       DCD    538976372
        0x00010a9c:    20202020            DCD    538976288
        0x00010aa0:    6425203a    : %d    DCD    1680154682
        0x00010aa4:    000a        ..      DCW    10
    .L.str.5
        0x00010aa6:    6150        Pa      DCW    24912
        0x00010aa8:    74656b63    cket    DCD    1952803683
        0x00010aac:    6e654c20     Len    DCD    1852132384
        0x00010ab0:    20687467    gth     DCD    543716455
        0x00010ab4:    20202020            DCD    538976288
        0x00010ab8:    6425203a    : %d    DCD    1680154682
        0x00010abc:    000a        ..      DCW    10
    .L.str.8
        0x00010abe:    4f49        IO      DCW    20297
        0x00010ac0:    74532053    S St    DCD    1951604819
        0x00010ac4:    20747261    art     DCD    544502369
        0x00010ac8:    20746942    Bit     DCD    544500034
        0x00010acc:    20202020            DCD    538976288
        0x00010ad0:    6425203a    : %d    DCD    1680154682
        0x00010ad4:    000a        ..      DCW    10
    .L.str.4
        0x00010ad6:    4155        UA      DCW    16725
        0x00010ad8:    44205452    RT D    DCD    1142969426
        0x00010adc:    20617461    ata     DCD    543257697
        0x00010ae0:    657a6953    Size    DCD    1702521171
        0x00010ae4:    20202020            DCD    538976288
        0x00010ae8:    6425203a    : %d    DCD    1680154682
        0x00010aec:    000a        ..      DCW    10
    .L.str.1
        0x00010aee:    410a        .A      DCW    16650
        0x00010af0:    6c6c6f70    poll    DCD    1819045744
        0x00010af4:    5520336f    o3 U    DCD    1428173679
        0x00010af8:    20545241    ART     DCD    542396993
        0x00010afc:    49206f74    to I    DCD    1226862452
        0x00010b00:    4820534f    OS H    DCD    1210078031
        0x00010b04:    2074736f    ost     DCD    544502639
        0x00010b08:    64697242    Brid    DCD    1684632130
        0x00010b0c:    000a6567    ge..    DCD    681319
    .L.str.15
        0x00010b10:    656d6954    Time    DCD    1701669204
        0x00010b14:    756f2064    d ou    DCD    1970217060
        0x00010b18:    61772074    t wa    DCD    1635197044
        0x00010b1c:    6e697469    itin    DCD    1852404841
        0x00010b20:    6f662067    g fo    DCD    1868963943
        0x00010b24:    61482072    r Ha    DCD    1632116850
        0x00010b28:    6873646e    ndsh    DCD    1752392814
        0x00010b2c:    20656b61    ake     DCD    543517537
        0x00010b30:    6e676973    sign    DCD    1852270963
        0x00010b34:    000a6c61    al..    DCD    683105
    .L.str.14
        0x00010b38:    65636552    Rece    DCD    1701012818
        0x00010b3c:    64657669    ived    DCD    1684371049
        0x00010b40:    6e614820     Han    DCD    1851869216
        0x00010b44:    61687364    dsha    DCD    1634235236
        0x00010b48:    6620656b    ke f    DCD    1713399147
        0x00010b4c:    6e20726f    or n    DCD    1847620207
        0x00010b50:    20747865    ext     DCD    544503909
        0x00010b54:    6b636170    pack    DCD    1801675120
        0x00010b58:    000a7465    et..    DCD    685157
    .L.str.3
        0x00010b5c:    20433249    I2C     DCD    541274697
        0x00010b60:    636f6c63    cloc    DCD    1668246627
        0x00010b64:    203d206b    k =     DCD    540876907
        0x00010b68:    252e6425    %d.%    DCD    623797285
        0x00010b6c:    484d2064    d MH    DCD    1213014116
        0x00010b70:    0a7a        z.      DCW    2682
        0x00010b72:    00          .       DCB    0
    .L.str.2
        0x00010b73:    53          S       DCB    83
        0x00010b74:    63204950    PI c    DCD    1663060304
        0x00010b78:    6b636f6c    lock    DCD    1801678700
        0x00010b7c:    25203d20     = %    DCD    622869792
        0x00010b80:    64252e64    d.%d    DCD    1680158308
        0x00010b84:    7a484d20     MHz    DCD    2051558688
    .L.str.12
        0x00010b88:    000a        ..      DCW    10
    .L.str.11
        0x00010b8a:    4f49        IO      DCW    20297
        0x00010b8c:    3a20204d    M  :    DCD    975183949
        0x00010b90:    6e657320     sen    DCD    1852142368
        0x00010b94:    79622074    t by    DCD    2036473972
        0x00010b98:    3a736574    tes:    DCD    980641140
        0x00010b9c:    20642520     %d     DCD    543434016
        0x00010ba0:    756f6328    (cou    DCD    1970234152
        0x00010ba4:    253d746e    nt=%    DCD    624784494
        0x00010ba8:    2964        d)      DCW    10596
        0x00010baa:    00          .       DCB    0
    .L.str.13
        0x00010bab:    2a          *       DCB    42
        0x00010bac:    00          .       DCB    0
    .L.str.10
        0x00010bad:    2c2025      , %     DCB    44,32,37
        0x00010bb0:    00000064    d...    DCD    100
    Region$$Table$$Base
        0x00010bb4:    00010be8    ....    DCD    68584
        0x00010bb8:    10011000    ....    DCD    268505088
        0x00010bbc:    00000058    X...    DCD    88
        0x00010bc0:    0000c170    p...    DCD    49520
        0x00010bc4:    00010c40    @...    DCD    68672
        0x00010bc8:    10011058    X...    DCD    268505176
        0x00010bcc:    0000a7a8    ....    DCD    42920
        0x00010bd0:    0000c18c    ....    DCD    49548
        0x00010bd4:    00010c40    @...    DCD    68672
        0x00010bd8:    10010000    ....    DCD    268500992
        0x00010bdc:    00001000    ....    DCD    4096
        0x00010be0:    0000c18c    ....    DCD    49548
    Region$$Table$$Limit

** Section #2 'RWMEM' (SHT_PROGBITS) [SHF_ALLOC + SHF_WRITE]
    Size   : 88 bytes (alignment 8)
    Address: 0x10011000

    0x10011000:   0a 00 00 00 03 00 00 00 1e 00 00 00 03 00 00 00    ................
    0x10011010:   0f 00 00 00 03 00 00 00 0e 00 00 00 03 00 00 00    ................
    0x10011020:   11 00 00 00 03 00 00 00 03 10 00 00 01 00 00 00    ................
    0x10011030:   40 42 0f 00 00 00 00 00 00 00 00 00 00 00 00 00    @B..............
    0x10011040:   00 00 00 00 00 12 7a 00 00 00 00 00 00 00 00 00    ......z.........
    0x10011050:   00 00 00 00 00 00 00 00                            ........


** Section #3 'RWMEM' (SHT_NOBITS) [SHF_ALLOC + SHF_WRITE]
    Size   : 42920 bytes (alignment 8)
    Address: 0x10011058


** Section #4 'STACKMEM' (SHT_NOBITS) [SHF_ALLOC + SHF_WRITE]
    Size   : 4096 bytes (alignment 8)
    Address: 0x10010000


** Section #5 '.debug_abbrev' (SHT_PROGBITS)
    Size   : 1308 bytes


** Section #6 '.debug_frame' (SHT_PROGBITS)
    Size   : 7144 bytes


** Section #7 '.debug_info' (SHT_PROGBITS)
    Size   : 8437 bytes


** Section #8 '.debug_line' (SHT_PROGBITS)
    Size   : 6782 bytes


** Section #9 '.debug_str' (SHT_PROGBITS)
    Size   : 6456 bytes


** Section #10 '.debug_ranges' (SHT_PROGBITS)
    Size   : 360 bytes


** Section #11 '.symtab' (SHT_SYMTAB)
    Size   : 8208 bytes (alignment 4)
    String table #12 '.strtab'
    Last local symbol no. 250

    Symbol table .symtab (512 symbols, 250 local)

      #  Symbol Name                Value      Bind  Sec  Type  Vis  Size
    ========================================================================

      1  $d                         0x0000c000   Lc    1   --   De 
      2  $t                         0x0000c100   Lc    1   --   De 
      3  $d                         0x0000c130   Lc    1   --   De 
      4  $t                         0x0000c134   Lc    1   --   De 
      5  $d                         0x0000c168   Lc    1   --   De 
      6  $t                         0x0000c170   Lc    1   --   De 
      7  $d                         0x0000c1de   Lc    1   --   De 
      8  $t                         0x0000c1ec   Lc    1   --   De 
      9  $d                         0x0000c390   Lc    1   --   De 
     10  $t                         0x0000c394   Lc    1   --   De 
     11  $d                         0x0000c39c   Lc    1   --   De 
     12  $t                         0x0000c3a0   Lc    1   --   De 
     13  $t.13                      0x0000c3a4   Lc    1   --   De 
     14  $d.9                       0x0000c4a2   Lc    1   --   De 
     15  $t.10                      0x0000c4ce   Lc    1   --   De 
     16  $d.4                       0x0000c872   Lc    1   --   De 
     17  $t.5                       0x0000c884   Lc    1   --   De 
     18  $d.1                       0x0000c9f0   Lc    1   --   De 
     19  $t.2                       0x0000c9fa   Lc    1   --   De 
     20  $d.1                       0x0000d1d4   Lc    1   --   De 
     21  $t.2                       0x0000d1d8   Lc    1   --   De 
     22  $d.6                       0x0000d322   Lc    1   --   De 
     23  $t.7                       0x0000d328   Lc    1   --   De 
     24  $d.5                       0x0000e4c0   Lc    1   --   De 
     25  $t.0                       0x0000e4d0   Lc    1   --   De 
     26  $d.4                       0x0000ebb6   Lc    1   --   De 
     27  $t.5                       0x0000ec1c   Lc    1   --   De 
     28  $t                         0x00010384   Lc    1   --   De 
     29  $d                         0x000103d4   Lc    1   --   De 
     30  $t                         0x000103d8   Lc    1   --   De 
     31  $d                         0x00010456   Lc    1   --   De 
     32  $t                         0x0001045a   Lc    1   --   De 
     33  $d.realdata                0x000104a8   Lc    1   --   De 
     34  $d.realdata                0x10011000   Lc    2   --   De 
     35  $d.realdata                0x10010000   Lc    4   --   De 
     36  uart_boot_host.c           0x00000000   Lc  Abs  File  De 
     37  __NVIC_DisableIRQ          0x0000c425   Lc    1  Code  De   0x38
     38  USE_SPI_get                0x0000c3e1   Lc    1  Code  De   0x42
     39  iom_set_up                 0x0000f5f1   Lc    1  Code  De   0xcc
     40  uart_set_up                0x000100a9   Lc    1  Code  De   0x90
     41  __NVIC_EnableIRQ           0x0000c45d   Lc    1  Code  De   0x30
     42  AM_HAL_GPIO_MASKBIT        0x0000c3a5   Lc    1  Code  De   0x1e
     43  hostint_handler            0x0000f4c9   Lc    1  Code  De   0xe
     44  .L.str                     0x00010a3e   Lc    1  Data  De   0x20
     45  .L.str.6                   0x00010a5e   Lc    1  Data  De   0x18
     46  .L.str.7                   0x00010a76   Lc    1  Data  De   0x18
     47  .L.str.9                   0x00010a8e   Lc    1  Data  De   0x18
     48  .L.str.5                   0x00010aa6   Lc    1  Data  De   0x18
     49  .L.str.8                   0x00010abe   Lc    1  Data  De   0x18
     50  .L.str.4                   0x00010ad6   Lc    1  Data  De   0x18
     51  .L.str.1                   0x00010aee   Lc    1  Data  De   0x22
     52  .L.str.15                  0x00010b10   Lc    1  Data  De   0x28
     53  .L.str.14                  0x00010b38   Lc    1  Data  De   0x24
     54  .L.str.3                   0x00010b5c   Lc    1  Data  De   0x17
     55  .L.str.2                   0x00010b73   Lc    1  Data  De   0x17
     56  .L.str.12                  0x00010b88   Lc    1  Data  De   0x2
     57  .L.str.11                  0x00010b8a   Lc    1  Data  De   0x21
     58  .L.str.13                  0x00010bab   Lc    1  Data  De   0x2
     59  .L.str.10                  0x00010bad   Lc    1  Data  De   0x5
     60  g_sIOMSpiConfig            0x10011040   Lc    2  Data  De   0x14
     61  g_sIOMI2cConfig            0x1001102c   Lc    2  Data  De   0x14
     62  g_AM_BSP_GPIO_BOOT_HANDSHAKE
                                    0x10011028   Lc    2  Data  De   0x4
     63  am_util_delay.c            0x00000000   Lc  Abs  File  De 
     64  am_util_faultisr.c         0x00000000   Lc  Abs  File  De 
     65  am_util_stdio.c            0x00000000   Lc  Abs  File  De 
     66  decstr_to_int              0x0000f0d1   Lc    1  Code  De   0xa6
     67  simple_strlen              0x0000ff9d   Lc    1  Code  De   0x36
     68  padbuffer                  0x0000fcd1   Lc    1  Code  De   0x50
     69  ndigits_in_hex             0x0000fc19   Lc    1  Code  De   0x3e
     70  uint64_to_hexstr           0x00010139   Lc    1  Code  De   0xc0
     71  ndigits_in_u64             0x0000fc89   Lc    1  Code  De   0x3c
     72  uint64_to_str              0x000101f9   Lc    1  Code  De   0x88
     73  ndigits_in_i64             0x0000fc59   Lc    1  Code  De   0x30
     74  ftoa                       0x0000f291   Lc    1  Code  De   0x230
     75  divu64_10                  0x0000f179   Lc    1  Code  De   0x118
     76  g_bTxtXlate                0x1001499e   Lc    3  Data  De   0x1
     77  g_prfbuf                   0x100149a4   Lc    3  Data  De   0x400
     78  ../keil6/startup_keil6.s   0x00000000   Lc  Abs  File  De 
     79  STACK                      0x10010000   Lc    4  Sect  De   0x1000
     80  StackMem                   0x10010000   Lc    4  Data  De 
     81  HEAP                       0x1001b800   Lc    3  Sect  De 
     82  HeapMem                    0x1001b800   Lc    3  Data  De 
     83  RESET                      0x0000c000   Lc    1  Sect  De   0x134
     84  $v0                        0x0000c100   Lc    1   --   De 
     85  .text                      0x0000c1d4   Lc    1  Sect  De   0x18
     86  $v0                        0x0000c1d4   Lc    1   --   De 
     87  am_hal_global.c            0x00000000   Lc  Abs  File  De 
     88  am_bsp.c                   0x00000000   Lc  Abs  File  De 
     89  g_ui32PrintInterface       0x1001b5a8   Lc    3  Data  De   0x4
     90  am_bsp_pins.c              0x00000000   Lc  Abs  File  De 
     91  am_hal_clkgen.c            0x00000000   Lc  Abs  File  De 
     92  am_hal_flash.c             0x00000000   Lc  Abs  File  De 
     93  .L__const.am_hal_flash_store_ui32.SRAM_write_ui32
                                    0x000104a8   Lc    1  Data  De   0xc
     94  am_hal_gpio.c              0x00000000   Lc  Abs  File  De 
     95  g_ui8Bit76Capabilities     0x00010838   Lc    1  Data  De   0x4a
     96  g_ui8Inpen                 0x00010882   Lc    1  Data  De   0x4a
     97  g_ui8nCEpins               0x000109f4   Lc    1  Data  De   0x4a
     98  g_ui8NCEtable              0x000108cc   Lc    1  Data  De   0x128
     99  gpio_ppfnHandlers          0x1001b6d8   Lc    3  Data  De   0x128
    100  gpio_pHandlerCtxt          0x1001b5b0   Lc    3  Data  De   0x128
    101  am_hal_interrupt.c         0x00000000   Lc  Abs  File  De 
    102  am_hal_iom.c               0x00000000   Lc  Abs  File  De 
    103  internal_iom_reset_on_error
                                    0x0000f4d9   Lc    1  Code  De   0x116
    104  am_hal_mcuctrl.c           0x00000000   Lc  Abs  File  De 
    105  am_hal_security.c          0x00000000   Lc  Abs  File  De 
    106  g_CRC_buffer               0x10011278   Lc    3  Data  De   0x200
    107  am_hal_uart.c              0x00000000   Lc  Abs  File  De 
    108  rx_queue_update            0x0000fdc1   Lc    1  Code  De   0x60
    109  tx_queue_update            0x0001004d   Lc    1  Code  De   0x5c
    110  write_nonblocking          0x0001030d   Lc    1  Code  De   0x76
    111  read_nonblocking           0x0000fd21   Lc    1  Code  De   0x9e
    112  g_am_hal_uart_states       0x100148cc   Lc    3  Data  De   0xd0
    113  am_hal_cmdq.c              0x00000000   Lc  Abs  File  De 
    114  gAmHalCmdq                 0x100110bc   Lc    3  Data  De   0x1b8
    115  gAmHalCmdQReg              0x00010580   Lc    1  Data  De   0x190
    116  am_hal_itm.c               0x00000000   Lc  Abs  File  De 
    117  am_hal_pwrctrl.c           0x00000000   Lc  Abs  File  De 
    118  am_hal_queue.c             0x00000000   Lc  Abs  File  De 
    119  am_hal_reset.c             0x00000000   Lc  Abs  File  De 
    120  am_hal_rtc.c               0x00000000   Lc  Abs  File  De 
    121  am_hal_tpiu.c              0x00000000   Lc  Abs  File  De 
    122  am_hal_burst.c             0x00000000   Lc  Abs  File  De 
    123  am_hal_cachectrl.c         0x00000000   Lc  Abs  File  De 
    124  set_LPMMODE                0x0000fe95   Lc    1  Code  De   0x5a
    125  set_SEDELAY                0x0000ff45   Lc    1  Code  De   0x56
    126  set_RDWAIT                 0x0000fef1   Lc    1  Code  De   0x54
    127  dc.s                       0x00000000   Lc  Abs  File  De 
    128  ../clib/memcpset.s         0x00000000   Lc  Abs  File  De 
    129  .text                      0x0000c1ec   Lc    1  Sect  De   0x8a
    130  ../clib/memcpset.s         0x00000000   Lc  Abs  File  De 
    131  .text                      0x0000c276   Lc    1  Sect  De   0x4e
    132  ../clib/heapaux.c          0x00000000   Lc  Abs  File  De 
    133  .text                      0x0000c2c4   Lc    1  Sect  De 
    134  ../clib/angel/startup.s    0x00000000   Lc  Abs  File  De 
    135  !!!main                    0x0000c134   Lc    1  Sect  De   0x8
    136  ../clib/angel/handlers.s   0x00000000   Lc  Abs  File  De 
    137  !!handler_copy             0x0000c170   Lc    1  Sect  De   0x1a
    138  ../fplib/d2f.s             0x00000000   Lc  Abs  File  De 
    139  x$fpl$d2f                  0x00010384   Lc    1  Sect  De   0x62
    140  $v0                        0x00010384   Lc    1   --   De 
    141  ../clib/angel/kernel.s     0x00000000   Lc  Abs  File  De 
    142  .ARM.Collect$$rtentry$$00000000
                                    0x0000c1b4   Lc    1  Sect  De 
    143  ../clib/memcpset.s         0x00000000   Lc  Abs  File  De 
    144  .text                      0x0000c2ca   Lc    1  Sect  De   0x64
    145  ../fplib/dnaninf.s         0x00000000   Lc  Abs  File  De 
    146  x$fpl$dnaninf              0x000103e6   Lc    1  Sect  De   0x9c
    147  $v0                        0x000103e6   Lc    1   --   De 
    148  ../fplib/fretinf.s         0x00000000   Lc  Abs  File  De 
    149  x$fpl$fretinf              0x0001049c   Lc    1  Sect  De   0xa
    150  $v0                        0x0001049c   Lc    1   --   De 
    151  ../fplib/usenofp.s         0x00000000   Lc  Abs  File  De 
    152  x$fpl$usenofp              0x000104a6   Lc    1  Sect  De 
    153  ../clib/angel/kernel.s     0x00000000   Lc  Abs  File  De 
    154  .ARM.Collect$$rtentry$$00000002
                                    0x0000c1b4   Lc    1  Sect  De 
    155  .ARM.Collect$$rtentry$$00000009
                                    0x0000c1ba   Lc    1  Sect  De 
    156  .ARM.Collect$$rtentry$$0000000A
                                    0x0000c1ba   Lc    1  Sect  De   0x4
    157  .ARM.Collect$$rtentry$$0000000C
                                    0x0000c1be   Lc    1  Sect  De 
    158  .ARM.Collect$$rtentry$$0000000D
                                    0x0000c1be   Lc    1  Sect  De   0x8
    159  ../clib/angel/kernel.s     0x00000000   Lc  Abs  File  De 
    160  .ARM.Collect$$rtentry$$00000004
                                    0x0000c1b4   Lc    1  Sect  De   0x6
    161  ../clib/angel/sys.s        0x00000000   Lc  Abs  File  De 
    162  .text                      0x0000c32e   Lc    1  Sect  De   0x4a
    163  ../clib/stdlib.c           0x00000000   Lc  Abs  File  De 
    164  .text                      0x0000c378   Lc    1  Sect  De 
    165  ../clib/angel/boardlib.s   0x00000000   Lc  Abs  File  De 
    166  ../clib/angel/boardlib.s   0x00000000   Lc  Abs  File  De 
    167  ../clib/angel/boardlib.s   0x00000000   Lc  Abs  File  De 
    168  ../clib/libinit.s          0x00000000   Lc  Abs  File  De 
    169  .ARM.Collect$$libinit$$00000000
                                    0x0000c1a8   Lc    1  Sect  De   0x2
    170  ../clib/angel/sys.s        0x00000000   Lc  Abs  File  De 
    171  .text                      0x0000c38c   Lc    1  Sect  De   0x8
    172  .bss                       0x10011058   Lc    3  Sect  De   0x60
    173  ../clib/angel/kernel.s     0x00000000   Lc  Abs  File  De 
    174  .ARM.Collect$$rtexit$$00000000
                                    0x0000c1c6   Lc    1  Sect  De   0x2
    175  ../clib/libinit.s          0x00000000   Lc  Abs  File  De 
    176  .ARM.Collect$$libinit$$00000001
                                    0x0000c1aa   Lc    1  Sect  De   0x4
    177  .ARM.Collect$$libinit$$00000004
                                    0x0000c1ae   Lc    1  Sect  De 
    178  .ARM.Collect$$libinit$$0000000A
                                    0x0000c1ae   Lc    1  Sect  De 
    179  .ARM.Collect$$libinit$$0000000C
                                    0x0000c1ae   Lc    1  Sect  De 
    180  .ARM.Collect$$libinit$$0000000E
                                    0x0000c1ae   Lc    1  Sect  De 
    181  .ARM.Collect$$libinit$$00000011
                                    0x0000c1ae   Lc    1  Sect  De 
    182  .ARM.Collect$$libinit$$00000013
                                    0x0000c1ae   Lc    1  Sect  De 
    183  .ARM.Collect$$libinit$$00000015
                                    0x0000c1ae   Lc    1  Sect  De 
    184  .ARM.Collect$$libinit$$00000017
                                    0x0000c1ae   Lc    1  Sect  De 
    185  .ARM.Collect$$libinit$$00000019
                                    0x0000c1ae   Lc    1  Sect  De 
    186  .ARM.Collect$$libinit$$0000001B
                                    0x0000c1ae   Lc    1  Sect  De 
    187  .ARM.Collect$$libinit$$0000001D
                                    0x0000c1ae   Lc    1  Sect  De 
    188  .ARM.Collect$$libinit$$0000001F
                                    0x0000c1ae   Lc    1  Sect  De 
    189  .ARM.Collect$$libinit$$00000021
                                    0x0000c1ae   Lc    1  Sect  De 
    190  .ARM.Collect$$libinit$$00000023
                                    0x0000c1ae   Lc    1  Sect  De 
    191  .ARM.Collect$$libinit$$00000025
                                    0x0000c1ae   Lc    1  Sect  De 
    192  .ARM.Collect$$libinit$$0000002C
                                    0x0000c1ae   Lc    1  Sect  De 
    193  .ARM.Collect$$libinit$$0000002E
                                    0x0000c1ae   Lc    1  Sect  De 
    194  .ARM.Collect$$libinit$$00000030
                                    0x0000c1ae   Lc    1  Sect  De 
    195  .ARM.Collect$$libinit$$00000032
                                    0x0000c1ae   Lc    1  Sect  De 
    196  .ARM.Collect$$libinit$$00000033
                                    0x0000c1ae   Lc    1  Sect  De   0x2
    197  ../clib/angel/kernel.s     0x00000000   Lc  Abs  File  De 
    198  .ARM.Collect$$rtexit$$00000002
                                    0x0000c1c8   Lc    1  Sect  De 
    199  .ARM.Collect$$rtexit$$00000003
                                    0x0000c1c8   Lc    1  Sect  De   0x4
    200  .ARM.Collect$$rtexit$$00000004
                                    0x0000c1cc   Lc    1  Sect  De   0x6
    201  ../clib/armsys.c           0x00000000   Lc  Abs  File  De 
    202  ../clib/armsys.c           0x00000000   Lc  Abs  File  De 
    203  ../fplib/fpinit.s          0x00000000   Lc  Abs  File  De 
    204  x$fpl$fpinit               0x00010482   Lc    1  Sect  De   0x1a
    205  $v0                        0x00010482   Lc    1   --   De 
    206  ../clib/angel/sysapp.c     0x00000000   Lc  Abs  File  De 
    207  .text                      0x0000c394   Lc    1  Sect  De 
    208  ../clib/angel/sysapp.c     0x00000000   Lc  Abs  File  De 
    209  ../clib/angel/boardlib.s   0x00000000   Lc  Abs  File  De 
    210  ../clib/armsys.c           0x00000000   Lc  Abs  File  De 
    211  ../clib/armsys.c           0x00000000   Lc  Abs  File  De 
    212  ../clib/libinit.s          0x00000000   Lc  Abs  File  De 
    213  .ARM.Collect$$libshutdown$$00000000
                                    0x0000c1b0   Lc    1  Sect  De   0x2
    214  ../clib/angel/sysapp.c     0x00000000   Lc  Abs  File  De 
    215  ../clib/angel/sysapp.c     0x00000000   Lc  Abs  File  De 
    216  ../clib/angel/sys.s        0x00000000   Lc  Abs  File  De 
    217  .text                      0x0000c3a0   Lc    1  Sect  De   0x2
    218  ../clib/angel/sys.s        0x00000000   Lc  Abs  File  De 
    219  .text                      0x0000c3a2   Lc    1  Sect  De 
    220  ../clib/heapalloc.c        0x00000000   Lc  Abs  File  De 
    221  ../clib/signal.c           0x00000000   Lc  Abs  File  De 
    222  ../clib/signal.c           0x00000000   Lc  Abs  File  De 
    223  ../clib/libinit.s          0x00000000   Lc  Abs  File  De 
    224  .ARM.Collect$$libshutdown$$00000002
                                    0x0000c1b2   Lc    1  Sect  De 
    225  .ARM.Collect$$libshutdown$$00000004
                                    0x0000c1b2   Lc    1  Sect  De 
    226  .ARM.Collect$$libshutdown$$00000007
                                    0x0000c1b2   Lc    1  Sect  De 
    227  .ARM.Collect$$libshutdown$$0000000A
                                    0x0000c1b2   Lc    1  Sect  De 
    228  .ARM.Collect$$libshutdown$$0000000C
                                    0x0000c1b2   Lc    1  Sect  De 
    229  .ARM.Collect$$libshutdown$$0000000F
                                    0x0000c1b2   Lc    1  Sect  De 
    230  .ARM.Collect$$libshutdown$$00000010
                                    0x0000c1b2   Lc    1  Sect  De   0x2
    231  ../clib/angel/rt.s         0x00000000   Lc  Abs  File  De 
    232  ../clib/signal.c           0x00000000   Lc  Abs  File  De 
    233  ../clib/signal.c           0x00000000   Lc  Abs  File  De 
    234  ../clib/signal.c           0x00000000   Lc  Abs  File  De 
    235  ../clib/signal.c           0x00000000   Lc  Abs  File  De 
    236  ../clib/angel/sysapp.c     0x00000000   Lc  Abs  File  De 
    237  ../clib/angel/sysapp.c     0x00000000   Lc  Abs  File  De 
    238  ../clib/signal.s           0x00000000   Lc  Abs  File  De 
    239  ../clib/signal.c           0x00000000   Lc  Abs  File  De 
    240  ../clib/signal.c           0x00000000   Lc  Abs  File  De 
    241  ../clib/signal.c           0x00000000   Lc  Abs  File  De 
    242  ../clib/signal.c           0x00000000   Lc  Abs  File  De 
    243  ../clib/signal.c           0x00000000   Lc  Abs  File  De 
    244  ../clib/signal.c           0x00000000   Lc  Abs  File  De 
    245  ../clib/signal.c           0x00000000   Lc  Abs  File  De 
    246  ../clib/signal.c           0x00000000   Lc  Abs  File  De 
    247  ../clib/angel/scatter.s    0x00000000   Lc  Abs  File  De 
    248  !!!scatter                 0x0000c13c   Lc    1  Sect  De   0x34
    249  ../clib/angel/handlers.s   0x00000000   Lc  Abs  File  De 
    250  !!handler_zi               0x0000c18c   Lc    1  Sect  De   0x1c
    251  BuildAttributes$$THM_ISAv4$E$P$D$K$B$S$7EM$VFPi3$EXTD16$VFPS$VFMA$PE$A:L22UL41UL21$X:L11$S22US41US21$IEEE1$IW$~IW$USESV6$~STKCKD$USESV7$~SHL$OSPACE$ROPI$EBA8$UX$STANDARDLIB$REQ8$PRES8$EABIv2
                                    0x00000000   Gb  Abs   --   Hi 
    252  __Vectors                  0x0000c000   Gb    1  Data  Hi 
    253  __Patchable                0x0000c0c8   Gb    1  Data  Hi 
    254  Reset_Handler              0x0000c101   Wk    1  Code  Hi   0x1c
    255  NMI_Handler                0x0000c11f   Wk    1  Code  Hi   0x2
    256  MemManage_Handler          0x0000c121   Wk    1  Code  Hi   0x2
    257  BusFault_Handler           0x0000c123   Wk    1  Code  Hi   0x2
    258  UsageFault_Handler         0x0000c125   Wk    1  Code  Hi   0x2
    259  SVC_Handler                0x0000c127   Wk    1  Code  Hi   0x2
    260  DebugMon_Handler           0x0000c129   Wk    1  Code  Hi   0x2
    261  PendSV_Handler             0x0000c12b   Wk    1  Code  Hi   0x2
    262  SysTick_Handler            0x0000c12d   Wk    1  Code  Hi   0x2
    263  am_adc_isr                 0x0000c12f   Wk    1  Code  Hi 
    264  am_ble_isr                 0x0000c12f   Wk    1  Code  Hi 
    265  am_brownout_isr            0x0000c12f   Wk    1  Code  Hi 
    266  am_clkgen_isr              0x0000c12f   Wk    1  Code  Hi 
    267  am_ctimer_isr              0x0000c12f   Wk    1  Code  Hi 
    268  am_iomaster0_isr           0x0000c12f   Wk    1  Code  Hi 
    269  am_iomaster1_isr           0x0000c12f   Wk    1  Code  Hi 
    270  am_iomaster2_isr           0x0000c12f   Wk    1  Code  Hi 
    271  am_iomaster3_isr           0x0000c12f   Wk    1  Code  Hi 
    272  am_iomaster4_isr           0x0000c12f   Wk    1  Code  Hi 
    273  am_iomaster5_isr           0x0000c12f   Wk    1  Code  Hi 
    274  am_ioslave_acc_isr         0x0000c12f   Wk    1  Code  Hi 
    275  am_ioslave_ios_isr         0x0000c12f   Wk    1  Code  Hi 
    276  am_mspi0_isr               0x0000c12f   Wk    1  Code  Hi 
    277  am_mspi1_isr               0x0000c12f   Wk    1  Code  Hi 
    278  am_mspi2_isr               0x0000c12f   Wk    1  Code  Hi 
    279  am_pdm0_isr                0x0000c12f   Wk    1  Code  Hi 
    280  am_rtc_isr                 0x0000c12f   Wk    1  Code  Hi 
    281  am_scard_isr               0x0000c12f   Wk    1  Code  Hi 
    282  am_software0_isr           0x0000c12f   Wk    1  Code  Hi 
    283  am_stimer_cmpr0_isr        0x0000c12f   Wk    1  Code  Hi 
    284  am_stimer_cmpr1_isr        0x0000c12f   Wk    1  Code  Hi 
    285  am_stimer_cmpr2_isr        0x0000c12f   Wk    1  Code  Hi 
    286  am_stimer_cmpr3_isr        0x0000c12f   Wk    1  Code  Hi 
    287  am_stimer_cmpr4_isr        0x0000c12f   Wk    1  Code  Hi 
    288  am_stimer_cmpr5_isr        0x0000c12f   Wk    1  Code  Hi 
    289  am_stimer_cmpr6_isr        0x0000c12f   Wk    1  Code  Hi 
    290  am_stimer_cmpr7_isr        0x0000c12f   Wk    1  Code  Hi 
    291  am_stimer_isr              0x0000c12f   Wk    1  Code  Hi 
    292  am_uart0_isr               0x0000c12f   Wk    1  Code  Hi 
    293  am_uart1_isr               0x0000c12f   Wk    1  Code  Hi 
    294  am_vcomp_isr               0x0000c12f   Wk    1  Code  Hi 
    295  am_watchdog_isr            0x0000c12f   Wk    1  Code  Hi 
    296  __main                     0x0000c135   Gb    1  Code  Hi   0x8
    297  __scatterload              0x0000c13d   Gb    1  Code  Hi 
    298  __scatterload_rt2          0x0000c13d   Gb    1  Code  Hi   0x2c
    299  __scatterload_rt2_thumb_only
                                    0x0000c13d   Gb    1  Code  Hi 
    300  __scatterload_null         0x0000c14b   Gb    1  Code  Hi 
    301  __scatterload_copy         0x0000c171   Gb    1  Code  Hi   0x1a
    302  __scatterload_zeroinit     0x0000c18d   Gb    1  Code  Hi   0x1c
    303  __rt_lib_init              0x0000c1a9   Gb    1  Code  De 
    304  __rt_lib_init_fp_1         0x0000c1ab   Gb    1  Code  Hi 
    305  __rt_lib_init_alloca_1     0x0000c1af   Gb    1  Code  Hi 
    306  __rt_lib_init_argv_1       0x0000c1af   Gb    1  Code  Hi 
    307  __rt_lib_init_atexit_1     0x0000c1af   Gb    1  Code  Hi 
    308  __rt_lib_init_clock_1      0x0000c1af   Gb    1  Code  Hi 
    309  __rt_lib_init_cpp_1        0x0000c1af   Gb    1  Code  Hi 
    310  __rt_lib_init_exceptions_1 0x0000c1af   Gb    1  Code  Hi 
    311  __rt_lib_init_fp_trap_1    0x0000c1af   Gb    1  Code  Hi 
    312  __rt_lib_init_getenv_1     0x0000c1af   Gb    1  Code  Hi 
    313  __rt_lib_init_heap_1       0x0000c1af   Gb    1  Code  Hi 
    314  __rt_lib_init_lc_collate_1 0x0000c1af   Gb    1  Code  Hi 
    315  __rt_lib_init_lc_ctype_1   0x0000c1af   Gb    1  Code  Hi 
    316  __rt_lib_init_lc_monetary_1
                                    0x0000c1af   Gb    1  Code  Hi 
    317  __rt_lib_init_lc_numeric_1 0x0000c1af   Gb    1  Code  Hi 
    318  __rt_lib_init_lc_time_1    0x0000c1af   Gb    1  Code  Hi 
    319  __rt_lib_init_preinit_1    0x0000c1af   Gb    1  Code  Hi 
    320  __rt_lib_init_rand_1       0x0000c1af   Gb    1  Code  Hi 
    321  __rt_lib_init_return       0x0000c1af   Gb    1  Code  Hi 
    322  __rt_lib_init_signal_1     0x0000c1af   Gb    1  Code  Hi 
    323  __rt_lib_init_stdio_1      0x0000c1af   Gb    1  Code  Hi 
    324  __rt_lib_init_user_alloc_1 0x0000c1af   Gb    1  Code  Hi 
    325  __rt_lib_shutdown          0x0000c1b1   Gb    1  Code  De 
    326  __rt_lib_shutdown_cpp_1    0x0000c1b3   Gb    1  Code  Hi 
    327  __rt_lib_shutdown_fp_trap_1
                                    0x0000c1b3   Gb    1  Code  Hi 
    328  __rt_lib_shutdown_heap_1   0x0000c1b3   Gb    1  Code  Hi 
    329  __rt_lib_shutdown_return   0x0000c1b3   Gb    1  Code  Hi 
    330  __rt_lib_shutdown_signal_1 0x0000c1b3   Gb    1  Code  Hi 
    331  __rt_lib_shutdown_stdio_1  0x0000c1b3   Gb    1  Code  Hi 
    332  __rt_lib_shutdown_user_alloc_1
                                    0x0000c1b3   Gb    1  Code  Hi 
    333  __rt_entry                 0x0000c1b5   Gb    1  Code  Hi 
    334  __rt_entry_presh_1         0x0000c1b5   Gb    1  Code  Hi 
    335  __rt_entry_sh              0x0000c1b5   Gb    1  Code  Hi 
    336  __rt_entry_li              0x0000c1bb   Gb    1  Code  Hi 
    337  __rt_entry_postsh_1        0x0000c1bb   Gb    1  Code  Hi 
    338  __rt_entry_main            0x0000c1bf   Gb    1  Code  Hi 
    339  __rt_entry_postli_1        0x0000c1bf   Gb    1  Code  Hi 
    340  __rt_exit                  0x0000c1c7   Gb    1  Code  De 
    341  __rt_exit_ls               0x0000c1c9   Gb    1  Code  Hi 
    342  __rt_exit_prels_1          0x0000c1c9   Gb    1  Code  Hi 
    343  __rt_exit_exit             0x0000c1cd   Gb    1  Code  Hi 
    344  __user_initial_stackheap   0x0000c1d5   Gb    1  Code  Hi   0xa
    345  __aeabi_memcpy             0x0000c1ed   Gb    1  Code  De 
    346  __rt_memcpy                0x0000c1ed   Gb    1  Code  De   0x8a
    347  _memcpy_lastbytes          0x0000c253   Gb    1  Code  De 
    348  __aeabi_memclr4            0x0000c277   Gb    1  Code  De 
    349  __aeabi_memclr8            0x0000c277   Gb    1  Code  De 
    350  __rt_memclr_w              0x0000c277   Gb    1  Code  De 
    351  _memset_w                  0x0000c27b   Gb    1  Code  De   0x4a
    352  __use_two_region_memory    0x0000c2c5   Gb    1  Code  Hi   0x2
    353  __rt_heap_escrow$2region   0x0000c2c7   Gb    1  Code  De   0x2
    354  __rt_heap_expand$2region   0x0000c2c9   Gb    1  Code  De   0x2
    355  __aeabi_memcpy4            0x0000c2cb   Gb    1  Code  De 
    356  __aeabi_memcpy8            0x0000c2cb   Gb    1  Code  De 
    357  __rt_memcpy_w              0x0000c2cb   Gb    1  Code  De   0x64
    358  _memcpy_lastbytes_aligned  0x0000c313   Gb    1  Code  De 
    359  __user_setup_stackheap     0x0000c32f   Gb    1  Code  De   0x4a
    360  exit                       0x0000c379   Gb    1  Code  De   0x12
    361  __user_libspace            0x0000c38d   Wk    1  Code  De   0x8
    362  __user_perproc_libspace    0x0000c38d   Wk    1  Code  De 
    363  __user_perthread_libspace  0x0000c38d   Wk    1  Code  De 
    364  _sys_exit                  0x0000c395   Gb    1  Code  De   0x8
    365  __I$use$semihosting        0x0000c3a1   Gb    1  Code  Hi 
    366  __use_no_semihosting_swi   0x0000c3a1   Gb    1  Code  Hi   0x2
    367  __semihosting_library_function
                                    0x0000c3a3   Gb    1  Code  Hi 
    368  HardFault_Handler          0x0000c3c5   Gb    1  Code  Hi   0x1a
    369  am_bsp_iom_pins_enable     0x0000c48d   Gb    1  Code  Hi   0x272
    370  am_bsp_itm_printf_enable   0x0000c6ff   Gb    1  Code  Hi   0x44
    371  am_bsp_low_power_init      0x0000c745   Gb    1  Code  Hi   0x46
    372  am_gpio_isr                0x0000c78d   Gb    1  Code  Hi   0x26
    373  am_hal_burst_ldo_charge    0x0000c7b3   Gb    1  Code  Hi   0xac
    374  am_hal_cachectrl_control   0x0000c861   Gb    1  Code  Hi   0x16c
    375  am_hal_clkgen_control      0x0000c9cd   Gb    1  Code  Hi   0x138
    376  am_hal_clkgen_status_get   0x0000cb05   Gb    1  Code  Hi   0x38
    377  am_hal_cmdq_disable        0x0000cb3d   Gb    1  Code  Hi   0x34
    378  am_hal_cmdq_enable         0x0000cb71   Gb    1  Code  Hi   0x34
    379  am_hal_cmdq_init           0x0000cba5   Gb    1  Code  Hi   0xbe
    380  am_hal_crc32               0x0000cc63   Gb    1  Code  Hi   0x2c
    381  am_hal_crc32_accum         0x0000cc91   Gb    1  Code  Hi   0x120
    382  am_hal_flash_delay         0x0000cdb1   Gb    1  Code  Hi   0x2a
    383  am_hal_flash_delay_status_change
                                    0x0000cddd   Gb    1  Code  Hi   0x5e
    384  am_hal_flash_delay_status_check
                                    0x0000ce3d   Gb    1  Code  Hi   0x70
    385  am_hal_flash_load_ui32     0x0000cead   Gb    1  Code  Hi   0x8
    386  am_hal_flash_store_ui32    0x0000ceb5   Gb    1  Code  Hi   0x22
    387  am_hal_gpio_interrupt_clear
                                    0x0000ced7   Gb    1  Code  Hi   0x4c
    388  am_hal_gpio_interrupt_enable
                                    0x0000cf23   Gb    1  Code  Hi   0x46
    389  am_hal_gpio_interrupt_register
                                    0x0000cf69   Gb    1  Code  Hi   0x20
    390  am_hal_gpio_interrupt_service
                                    0x0000cf89   Gb    1  Code  Hi   0x90
    391  am_hal_gpio_interrupt_status_get
                                    0x0000d019   Gb    1  Code  Hi   0x66
    392  am_hal_gpio_pinconfig      0x0000d081   Gb    1  Code  Hi   0x212
    393  am_hal_gpio_state_read     0x0000d293   Gb    1  Code  Hi   0x58
    394  am_hal_gpio_state_write    0x0000d2ed   Gb    1  Code  Hi   0x98
    395  am_hal_interrupt_master_disable
                                    0x0000d385   Gb    1  Code  Hi   0x8
    396  am_hal_interrupt_master_enable
                                    0x0000d38d   Gb    1  Code  Hi   0x8
    397  am_hal_interrupt_master_set
                                    0x0000d395   Gb    1  Code  Hi   0x6
    398  am_hal_iom_CQEnable        0x0000d39b   Gb    1  Code  Hi   0x22
    399  am_hal_iom_CQInit          0x0000d3bd   Gb    1  Code  Hi   0x38
    400  am_hal_iom_blocking_transfer
                                    0x0000d3f5   Gb    1  Code  Hi   0x324
    401  am_hal_iom_configure       0x0000d719   Gb    1  Code  Hi   0x2a4
    402  am_hal_iom_enable          0x0000d9bd   Gb    1  Code  Hi   0xae
    403  am_hal_iom_initialize      0x0000da6b   Gb    1  Code  Hi   0x48
    404  am_hal_iom_power_ctrl      0x0000dab3   Gb    1  Code  Hi   0x1f0
    405  am_hal_itm_enable          0x0000dca5   Gb    1  Code  Hi   0x42
    406  am_hal_itm_print           0x0000dce9   Gb    1  Code  Hi   0x2e
    407  am_hal_mcuctrl_info_get    0x0000dd17   Gb    1  Code  Hi   0x11a
    408  am_hal_pwrctrl_blebuck_trim
                                    0x0000de31   Gb    1  Code  Hi   0x52
    409  am_hal_pwrctrl_bleif_workaround
                                    0x0000de83   Gb    1  Code  Hi   0x74
    410  am_hal_pwrctrl_low_power_init
                                    0x0000def7   Gb    1  Code  Hi   0x144
    411  am_hal_pwrctrl_periph_disable
                                    0x0000e03d   Gb    1  Code  Hi   0x9e
    412  am_hal_pwrctrl_periph_enable
                                    0x0000e0dd   Gb    1  Code  Hi   0x6e
    413  am_hal_queue_init          0x0000e14b   Gb    1  Code  Hi   0x18
    414  am_hal_queue_item_add      0x0000e165   Gb    1  Code  Hi   0x66
    415  am_hal_queue_item_get      0x0000e1cd   Gb    1  Code  Hi   0x60
    416  am_hal_rtc_osc_disable     0x0000e22d   Gb    1  Code  Hi   0x12
    417  am_hal_tpiu_enable         0x0000e23f   Gb    1  Code  Hi   0x94
    418  am_hal_uart_configure      0x0000e2d5   Gb    1  Code  Hi   0x1ec
    419  am_hal_uart_initialize     0x0000e4d1   Gb    1  Code  Hi   0x54
    420  am_hal_uart_interrupt_clear
                                    0x0000e525   Gb    1  Code  Hi   0x28
    421  am_hal_uart_interrupt_enable
                                    0x0000e54d   Gb    1  Code  Hi   0x2c
    422  am_hal_uart_interrupt_service
                                    0x0000e579   Gb    1  Code  Hi   0x88
    423  am_hal_uart_interrupt_status_get
                                    0x0000e601   Gb    1  Code  Hi   0x34
    424  am_hal_uart_power_control  0x0000e635   Gb    1  Code  Hi   0xea
    425  am_hal_uart_transfer       0x0000e721   Gb    1  Code  Hi   0x112
    426  am_uart_isr                0x0000e835   Gb    1  Code  Hi   0xa2
    427  am_util_delay_ms           0x0000e8d9   Gb    1  Code  Hi   0x30
    428  am_util_delay_us           0x0000e909   Gb    1  Code  Hi   0x30
    429  am_util_faultisr_collect_data
                                    0x0000e939   Gb    1  Code  Hi   0xd2
    430  am_util_stdio_printf       0x0000ea0d   Gb    1  Code  Hi   0x5c
    431  am_util_stdio_printf_init  0x0000ea69   Gb    1  Code  Hi   0x14
    432  am_util_stdio_vsprintf     0x0000ea7d   Gb    1  Code  Hi   0x654
    433  getStackedReg              0x0000f4c1   Gb    1  Code  Hi   0x8
    434  iom_slave_read             0x0000f6bd   Gb    1  Code  Hi   0x5a
    435  iom_slave_write            0x0000f719   Gb    1  Code  Hi   0x5a
    436  main                       0x0000f775   Gb    1  Code  Hi   0x4a4
    437  no_print                   0x0000fcc5   Gb    1  Code  Hi   0xa
    438  send_hello                 0x0000fe21   Gb    1  Code  Hi   0x74
    439  start_boot_mode            0x0000ffd5   Gb    1  Code  Hi   0x76
    440  validate_transaction       0x00010281   Gb    1  Code  Hi   0x8c
    441  __aeabi_d2f                0x00010385   Gb    1  Code  De 
    442  _d2f                       0x00010385   Gb    1  Code  De   0x62
    443  __fpl_dnaninf              0x000103e7   Gb    1  Code  De   0x9c
    444  _fp_init                   0x00010483   Gb    1  Code  De   0x1a
    445  __fplib_config_fpu_vfp     0x0001049b   Gb    1  Code  De 
    446  __fplib_config_pureend_doubles
                                    0x0001049b   Gb    1  Code  De 
    447  __fpl_fretinf              0x0001049d   Gb    1  Code  De   0xa
    448  __I$use$fp                 0x000104a6   Gb    1   --   De 
    449  am_hal_pwrctrl_peripheral_control
                                    0x000104b4   Gb    1  Data  Hi   0xcc
    450  g_AM_BSP_GPIO_COM_UART_RX  0x00010710   Gb    1  Data  Hi   0x4
    451  g_AM_BSP_GPIO_COM_UART_TX  0x00010714   Gb    1  Data  Hi   0x4
    452  g_AM_BSP_GPIO_FT_BRIDGE_MISO
                                    0x00010718   Gb    1  Data  Hi   0x4
    453  g_AM_BSP_GPIO_FT_BRIDGE_MOSI
                                    0x0001071c   Gb    1  Data  Hi   0x4
    454  g_AM_BSP_GPIO_FT_BRIDGE_SCK
                                    0x00010720   Gb    1  Data  Hi   0x4
    455  g_AM_BSP_GPIO_FT_BRIDGE_SS 0x00010724   Gb    1  Data  Hi   0x4
    456  g_AM_BSP_GPIO_IOM0_CS      0x00010728   Gb    1  Data  Hi   0x4
    457  g_AM_BSP_GPIO_IOM0_MISO    0x0001072c   Gb    1  Data  Hi   0x4
    458  g_AM_BSP_GPIO_IOM0_MOSI    0x00010730   Gb    1  Data  Hi   0x4
    459  g_AM_BSP_GPIO_IOM0_SCK     0x00010734   Gb    1  Data  Hi   0x4
    460  g_AM_BSP_GPIO_IOM0_SCL     0x00010738   Gb    1  Data  Hi   0x4
    461  g_AM_BSP_GPIO_IOM0_SDA     0x0001073c   Gb    1  Data  Hi   0x4
    462  g_AM_BSP_GPIO_IOM1_CS      0x00010740   Gb    1  Data  Hi   0x4
    463  g_AM_BSP_GPIO_IOM1_MISO    0x00010744   Gb    1  Data  Hi   0x4
    464  g_AM_BSP_GPIO_IOM1_MOSI    0x00010748   Gb    1  Data  Hi   0x4
    465  g_AM_BSP_GPIO_IOM1_SCK     0x0001074c   Gb    1  Data  Hi   0x4
    466  g_AM_BSP_GPIO_IOM1_SCL     0x00010750   Gb    1  Data  Hi   0x4
    467  g_AM_BSP_GPIO_IOM1_SDA     0x00010754   Gb    1  Data  Hi   0x4
    468  g_AM_BSP_GPIO_IOM2_SCL     0x00010758   Gb    1  Data  Hi   0x4
    469  g_AM_BSP_GPIO_IOM2_SDA     0x0001075c   Gb    1  Data  Hi   0x4
    470  g_AM_BSP_GPIO_IOM3_CS      0x00010760   Gb    1  Data  Hi   0x4
    471  g_AM_BSP_GPIO_IOM3_MISO    0x00010764   Gb    1  Data  Hi   0x4
    472  g_AM_BSP_GPIO_IOM3_MOSI    0x00010768   Gb    1  Data  Hi   0x4
    473  g_AM_BSP_GPIO_IOM3_SCK     0x0001076c   Gb    1  Data  Hi   0x4
    474  g_AM_BSP_GPIO_IOM3_SCL     0x00010770   Gb    1  Data  Hi   0x4
    475  g_AM_BSP_GPIO_IOM3_SDA     0x00010774   Gb    1  Data  Hi   0x4
    476  g_AM_BSP_GPIO_IOM4_CS      0x00010778   Gb    1  Data  Hi   0x4
    477  g_AM_BSP_GPIO_IOM4_MISO    0x0001077c   Gb    1  Data  Hi   0x4
    478  g_AM_BSP_GPIO_IOM4_MOSI    0x00010780   Gb    1  Data  Hi   0x4
    479  g_AM_BSP_GPIO_IOM4_SCK     0x00010784   Gb    1  Data  Hi   0x4
    480  g_AM_BSP_GPIO_IOM4_SCL     0x00010788   Gb    1  Data  Hi   0x4
    481  g_AM_BSP_GPIO_IOM4_SDA     0x0001078c   Gb    1  Data  Hi   0x4
    482  g_AM_BSP_GPIO_IOM5_CS      0x00010790   Gb    1  Data  Hi   0x4
    483  g_AM_BSP_GPIO_IOM5_MISO    0x00010794   Gb    1  Data  Hi   0x4
    484  g_AM_BSP_GPIO_IOM5_MOSI    0x00010798   Gb    1  Data  Hi   0x4
    485  g_AM_BSP_GPIO_IOM5_SCK     0x0001079c   Gb    1  Data  Hi   0x4
    486  g_AM_BSP_GPIO_IOM5_SCL     0x000107a0   Gb    1  Data  Hi   0x4
    487  g_AM_BSP_GPIO_IOM5_SDA     0x000107a4   Gb    1  Data  Hi   0x4
    488  g_AM_BSP_GPIO_ITM_SWO      0x000107a8   Gb    1  Data  Hi   0x4
    489  g_AM_HAL_GPIO_DISABLE      0x000107ac   Gb    1  Data  Hi   0x4
    490  g_AM_HAL_GPIO_INPUT_PULLUP 0x000107b0   Gb    1  Data  Hi   0x4
    491  g_AM_HAL_GPIO_OUTPUT       0x000107b4   Gb    1  Data  Hi   0x4
    492  g_am_hal_mcuctrl_flash_size
                                    0x000107b8   Gb    1  Data  Hi   0x40
    493  g_am_hal_mcuctrl_sram_size 0x000107f8   Gb    1  Data  Hi   0x40
    494  Region$$Table$$Base        0x00010bb4   Gb    1   --   Hi 
    495  Region$$Table$$Limit       0x00010be4   Gb    1   --   Hi 
    496  am_bsp_psLEDs              0x10011000   Gb    2  Data  Hi   0x28
    497  __libspace_start           0x10011058   Gb    3  Data  De   0x60
    498  __temporary_stack_top$libspace
                                    0x100110b8   Gb    3  Data  De 
    499  bIosInt                    0x100110b8   Gb    3  Data  Hi   0x1
    500  gAmHalResetStatus          0x10011274   Gb    3  Data  Hi   0x4
    501  g_IOMHandle                0x10011478   Gb    3  Data  Hi   0x4
    502  g_IOMhandles               0x1001147c   Gb    3  Data  Hi   0x33d8
    503  g_IosPktData               0x10014854   Gb    3  Data  Hi   0x78
    504  g_bRxTimeoutFlag           0x1001499c   Gb    3  Data  Hi   0x1
    505  g_bSimobuckTrimsDone       0x1001499d   Gb    3  Data  Hi   0x1
    506  g_bVddfTrimsDone           0x1001499f   Gb    3  Data  Hi   0x1
    507  g_pfnCharPrint             0x100149a0   Gb    3  Data  Hi   0x4
    508  g_psReadData               0x10014da4   Gb    3  Data  Hi   0x3000
    509  g_psWriteData              0x10017da4   Gb    3  Data  Hi   0x3000
    510  g_pui8UARTTXBuffer         0x1001ada4   Gb    3  Data  Hi   0x800
    511  g_pvUART                   0x1001b5a4   Gb    3  Data  Hi   0x4
    512  g_ui32UARTRxIndex          0x1001b5ac   Gb    3  Data  Hi   0x4


** Section #12 '.strtab' (SHT_STRTAB)
    Size   : 8724 bytes

            #  Offset String
        ====================================

            1      1: $d
            2      4: $t
            3      7: $t.13
            4     13: $d.9
            5     18: $t.10
            6     24: $d.4
            7     29: $t.5
            8     34: $d.1
            9     39: $t.2
           10     44: $d.6
           11     49: $t.7
           12     54: $d.5
           13     59: $t.0
           14     64: $d.realdata
           15     76: uart_boot_host.c
           16     93: __NVIC_DisableIRQ
           17    111: USE_SPI_get
           18    123: iom_set_up
           19    134: uart_set_up
           20    146: __NVIC_EnableIRQ
           21    163: AM_HAL_GPIO_MASKBIT
           22    183: hostint_handler
           23    199: .L.str
           24    206: .L.str.6
           25    215: .L.str.7
           26    224: .L.str.9
           27    233: .L.str.5
           28    242: .L.str.8
           29    251: .L.str.4
           30    260: .L.str.1
           31    269: .L.str.15
           32    279: .L.str.14
           33    289: .L.str.3
           34    298: .L.str.2
           35    307: .L.str.12
           36    317: .L.str.11
           37    327: .L.str.13
           38    337: .L.str.10
           39    347: g_sIOMSpiConfig
           40    363: g_sIOMI2cConfig
           41    379: g_AM_BSP_GPIO_BOOT_HANDSHAKE
           42    408: am_util_delay.c
           43    424: am_util_faultisr.c
           44    443: am_util_stdio.c
           45    459: decstr_to_int
           46    473: simple_strlen
           47    487: padbuffer
           48    497: ndigits_in_hex
           49    512: uint64_to_hexstr
           50    529: ndigits_in_u64
           51    544: uint64_to_str
           52    558: ndigits_in_i64
           53    573: ftoa
           54    578: divu64_10
           55    588: g_bTxtXlate
           56    600: g_prfbuf
           57    609: ../keil6/startup_keil6.s
           58    634: STACK
           59    640: StackMem
           60    649: HEAP
           61    654: HeapMem
           62    662: RESET
           63    668: $v0
           64    672: .text
           65    678: am_hal_global.c
           66    694: am_bsp.c
           67    703: g_ui32PrintInterface
           68    724: am_bsp_pins.c
           69    738: am_hal_clkgen.c
           70    754: am_hal_flash.c
           71    769: .L__const.am_hal_flash_store_ui32.SRAM_write_ui32
           72    819: am_hal_gpio.c
           73    833: g_ui8Bit76Capabilities
           74    856: g_ui8Inpen
           75    867: g_ui8nCEpins
           76    880: g_ui8NCEtable
           77    894: gpio_ppfnHandlers
           78    912: gpio_pHandlerCtxt
           79    930: am_hal_interrupt.c
           80    949: am_hal_iom.c
           81    962: internal_iom_reset_on_error
           82    990: am_hal_mcuctrl.c
           83   1007: am_hal_security.c
           84   1025: g_CRC_buffer
           85   1038: am_hal_uart.c
           86   1052: rx_queue_update
           87   1068: tx_queue_update
           88   1084: write_nonblocking
           89   1102: read_nonblocking
           90   1119: g_am_hal_uart_states
           91   1140: am_hal_cmdq.c
           92   1154: gAmHalCmdq
           93   1165: gAmHalCmdQReg
           94   1179: am_hal_itm.c
           95   1192: am_hal_pwrctrl.c
           96   1209: am_hal_queue.c
           97   1224: am_hal_reset.c
           98   1239: am_hal_rtc.c
           99   1252: am_hal_tpiu.c
          100   1266: am_hal_burst.c
          101   1281: am_hal_cachectrl.c
          102   1300: set_LPMMODE
          103   1312: set_SEDELAY
          104   1324: set_RDWAIT
          105   1335: dc.s
          106   1340: ../clib/memcpset.s
          107   1359: ../clib/heapaux.c
          108   1377: ../clib/angel/startup.s
          109   1401: !!!main
          110   1409: ../clib/angel/handlers.s
          111   1434: !!handler_copy
          112   1449: ../fplib/d2f.s
          113   1464: x$fpl$d2f
          114   1474: ../clib/angel/kernel.s
          115   1497: .ARM.Collect$$rtentry$$00000000
          116   1529: ../fplib/dnaninf.s
          117   1548: x$fpl$dnaninf
          118   1562: ../fplib/fretinf.s
          119   1581: x$fpl$fretinf
          120   1595: ../fplib/usenofp.s
          121   1614: x$fpl$usenofp
          122   1628: .ARM.Collect$$rtentry$$00000002
          123   1660: .ARM.Collect$$rtentry$$00000009
          124   1692: .ARM.Collect$$rtentry$$0000000A
          125   1724: .ARM.Collect$$rtentry$$0000000C
          126   1756: .ARM.Collect$$rtentry$$0000000D
          127   1788: .ARM.Collect$$rtentry$$00000004
          128   1820: ../clib/angel/sys.s
          129   1840: ../clib/stdlib.c
          130   1857: ../clib/angel/boardlib.s
          131   1882: ../clib/libinit.s
          132   1900: .ARM.Collect$$libinit$$00000000
          133   1932: .bss
          134   1937: .ARM.Collect$$rtexit$$00000000
          135   1968: .ARM.Collect$$libinit$$00000001
          136   2000: .ARM.Collect$$libinit$$00000004
          137   2032: .ARM.Collect$$libinit$$0000000A
          138   2064: .ARM.Collect$$libinit$$0000000C
          139   2096: .ARM.Collect$$libinit$$0000000E
          140   2128: .ARM.Collect$$libinit$$00000011
          141   2160: .ARM.Collect$$libinit$$00000013
          142   2192: .ARM.Collect$$libinit$$00000015
          143   2224: .ARM.Collect$$libinit$$00000017
          144   2256: .ARM.Collect$$libinit$$00000019
          145   2288: .ARM.Collect$$libinit$$0000001B
          146   2320: .ARM.Collect$$libinit$$0000001D
          147   2352: .ARM.Collect$$libinit$$0000001F
          148   2384: .ARM.Collect$$libinit$$00000021
          149   2416: .ARM.Collect$$libinit$$00000023
          150   2448: .ARM.Collect$$libinit$$00000025
          151   2480: .ARM.Collect$$libinit$$0000002C
          152   2512: .ARM.Collect$$libinit$$0000002E
          153   2544: .ARM.Collect$$libinit$$00000030
          154   2576: .ARM.Collect$$libinit$$00000032
          155   2608: .ARM.Collect$$libinit$$00000033
          156   2640: .ARM.Collect$$rtexit$$00000002
          157   2671: .ARM.Collect$$rtexit$$00000003
          158   2702: .ARM.Collect$$rtexit$$00000004
          159   2733: ../clib/armsys.c
          160   2750: ../fplib/fpinit.s
          161   2768: x$fpl$fpinit
          162   2781: ../clib/angel/sysapp.c
          163   2804: .ARM.Collect$$libshutdown$$00000000
          164   2840: ../clib/heapalloc.c
          165   2860: ../clib/signal.c
          166   2877: .ARM.Collect$$libshutdown$$00000002
          167   2913: .ARM.Collect$$libshutdown$$00000004
          168   2949: .ARM.Collect$$libshutdown$$00000007
          169   2985: .ARM.Collect$$libshutdown$$0000000A
          170   3021: .ARM.Collect$$libshutdown$$0000000C
          171   3057: .ARM.Collect$$libshutdown$$0000000F
          172   3093: .ARM.Collect$$libshutdown$$00000010
          173   3129: ../clib/angel/rt.s
          174   3148: ../clib/signal.s
          175   3165: ../clib/angel/scatter.s
          176   3189: !!!scatter
          177   3200: !!handler_zi
          178   3213: BuildAttributes$$THM_ISAv4$E$P$D$K$B$S$7EM$VFPi3$EXTD16$VFPS$VFMA$PE$A:L22UL41UL21$X:L11$S22US41US21$IEEE1$IW$~IW$USESV6$~STKCKD$USESV7$~SHL$OSPACE$ROPI$EBA8$UX$STANDARDLIB$REQ8$PRES8$EABIv2
          179   3404: __Vectors
          180   3414: __Patchable
          181   3426: Reset_Handler
          182   3440: NMI_Handler
          183   3452: MemManage_Handler
          184   3470: BusFault_Handler
          185   3487: UsageFault_Handler
          186   3506: SVC_Handler
          187   3518: DebugMon_Handler
          188   3535: PendSV_Handler
          189   3550: SysTick_Handler
          190   3566: am_adc_isr
          191   3577: am_ble_isr
          192   3588: am_brownout_isr
          193   3604: am_clkgen_isr
          194   3618: am_ctimer_isr
          195   3632: am_iomaster0_isr
          196   3649: am_iomaster1_isr
          197   3666: am_iomaster2_isr
          198   3683: am_iomaster3_isr
          199   3700: am_iomaster4_isr
          200   3717: am_iomaster5_isr
          201   3734: am_ioslave_acc_isr
          202   3753: am_ioslave_ios_isr
          203   3772: am_mspi0_isr
          204   3785: am_mspi1_isr
          205   3798: am_mspi2_isr
          206   3811: am_pdm0_isr
          207   3823: am_rtc_isr
          208   3834: am_scard_isr
          209   3847: am_software0_isr
          210   3864: am_stimer_cmpr0_isr
          211   3884: am_stimer_cmpr1_isr
          212   3904: am_stimer_cmpr2_isr
          213   3924: am_stimer_cmpr3_isr
          214   3944: am_stimer_cmpr4_isr
          215   3964: am_stimer_cmpr5_isr
          216   3984: am_stimer_cmpr6_isr
          217   4004: am_stimer_cmpr7_isr
          218   4024: am_stimer_isr
          219   4038: am_uart0_isr
          220   4051: am_uart1_isr
          221   4064: am_vcomp_isr
          222   4077: am_watchdog_isr
          223   4093: __main
          224   4100: __scatterload
          225   4114: __scatterload_rt2
          226   4132: __scatterload_rt2_thumb_only
          227   4161: __scatterload_null
          228   4180: __scatterload_copy
          229   4199: __scatterload_zeroinit
          230   4222: __rt_lib_init
          231   4236: __rt_lib_init_fp_1
          232   4255: __rt_lib_init_alloca_1
          233   4278: __rt_lib_init_argv_1
          234   4299: __rt_lib_init_atexit_1
          235   4322: __rt_lib_init_clock_1
          236   4344: __rt_lib_init_cpp_1
          237   4364: __rt_lib_init_exceptions_1
          238   4391: __rt_lib_init_fp_trap_1
          239   4415: __rt_lib_init_getenv_1
          240   4438: __rt_lib_init_heap_1
          241   4459: __rt_lib_init_lc_collate_1
          242   4486: __rt_lib_init_lc_ctype_1
          243   4511: __rt_lib_init_lc_monetary_1
          244   4539: __rt_lib_init_lc_numeric_1
          245   4566: __rt_lib_init_lc_time_1
          246   4590: __rt_lib_init_preinit_1
          247   4614: __rt_lib_init_rand_1
          248   4635: __rt_lib_init_return
          249   4656: __rt_lib_init_signal_1
          250   4679: __rt_lib_init_stdio_1
          251   4701: __rt_lib_init_user_alloc_1
          252   4728: __rt_lib_shutdown
          253   4746: __rt_lib_shutdown_cpp_1
          254   4770: __rt_lib_shutdown_fp_trap_1
          255   4798: __rt_lib_shutdown_heap_1
          256   4823: __rt_lib_shutdown_return
          257   4848: __rt_lib_shutdown_signal_1
          258   4875: __rt_lib_shutdown_stdio_1
          259   4901: __rt_lib_shutdown_user_alloc_1
          260   4932: __rt_entry
          261   4943: __rt_entry_presh_1
          262   4962: __rt_entry_sh
          263   4976: __rt_entry_li
          264   4990: __rt_entry_postsh_1
          265   5010: __rt_entry_main
          266   5026: __rt_entry_postli_1
          267   5046: __rt_exit
          268   5056: __rt_exit_ls
          269   5069: __rt_exit_prels_1
          270   5087: __rt_exit_exit
          271   5102: __user_initial_stackheap
          272   5127: __aeabi_memcpy
          273   5142: __rt_memcpy
          274   5154: _memcpy_lastbytes
          275   5172: __aeabi_memclr4
          276   5188: __aeabi_memclr8
          277   5204: __rt_memclr_w
          278   5218: _memset_w
          279   5228: __use_two_region_memory
          280   5252: __rt_heap_escrow$2region
          281   5277: __rt_heap_expand$2region
          282   5302: __aeabi_memcpy4
          283   5318: __aeabi_memcpy8
          284   5334: __rt_memcpy_w
          285   5348: _memcpy_lastbytes_aligned
          286   5374: __user_setup_stackheap
          287   5397: exit
          288   5402: __user_libspace
          289   5418: __user_perproc_libspace
          290   5442: __user_perthread_libspace
          291   5468: _sys_exit
          292   5478: __I$use$semihosting
          293   5498: __use_no_semihosting_swi
          294   5523: __semihosting_library_function
          295   5554: HardFault_Handler
          296   5572: am_bsp_iom_pins_enable
          297   5595: am_bsp_itm_printf_enable
          298   5620: am_bsp_low_power_init
          299   5642: am_gpio_isr
          300   5654: am_hal_burst_ldo_charge
          301   5678: am_hal_cachectrl_control
          302   5703: am_hal_clkgen_control
          303   5725: am_hal_clkgen_status_get
          304   5750: am_hal_cmdq_disable
          305   5770: am_hal_cmdq_enable
          306   5789: am_hal_cmdq_init
          307   5806: am_hal_crc32
          308   5819: am_hal_crc32_accum
          309   5838: am_hal_flash_delay
          310   5857: am_hal_flash_delay_status_change
          311   5890: am_hal_flash_delay_status_check
          312   5922: am_hal_flash_load_ui32
          313   5945: am_hal_flash_store_ui32
          314   5969: am_hal_gpio_interrupt_clear
          315   5997: am_hal_gpio_interrupt_enable
          316   6026: am_hal_gpio_interrupt_register
          317   6057: am_hal_gpio_interrupt_service
          318   6087: am_hal_gpio_interrupt_status_get
          319   6120: am_hal_gpio_pinconfig
          320   6142: am_hal_gpio_state_read
          321   6165: am_hal_gpio_state_write
          322   6189: am_hal_interrupt_master_disable
          323   6221: am_hal_interrupt_master_enable
          324   6252: am_hal_interrupt_master_set
          325   6280: am_hal_iom_CQEnable
          326   6300: am_hal_iom_CQInit
          327   6318: am_hal_iom_blocking_transfer
          328   6347: am_hal_iom_configure
          329   6368: am_hal_iom_enable
          330   6386: am_hal_iom_initialize
          331   6408: am_hal_iom_power_ctrl
          332   6430: am_hal_itm_enable
          333   6448: am_hal_itm_print
          334   6465: am_hal_mcuctrl_info_get
          335   6489: am_hal_pwrctrl_blebuck_trim
          336   6517: am_hal_pwrctrl_bleif_workaround
          337   6549: am_hal_pwrctrl_low_power_init
          338   6579: am_hal_pwrctrl_periph_disable
          339   6609: am_hal_pwrctrl_periph_enable
          340   6638: am_hal_queue_init
          341   6656: am_hal_queue_item_add
          342   6678: am_hal_queue_item_get
          343   6700: am_hal_rtc_osc_disable
          344   6723: am_hal_tpiu_enable
          345   6742: am_hal_uart_configure
          346   6764: am_hal_uart_initialize
          347   6787: am_hal_uart_interrupt_clear
          348   6815: am_hal_uart_interrupt_enable
          349   6844: am_hal_uart_interrupt_service
          350   6874: am_hal_uart_interrupt_status_get
          351   6907: am_hal_uart_power_control
          352   6933: am_hal_uart_transfer
          353   6954: am_uart_isr
          354   6966: am_util_delay_ms
          355   6983: am_util_delay_us
          356   7000: am_util_faultisr_collect_data
          357   7030: am_util_stdio_printf
          358   7051: am_util_stdio_printf_init
          359   7077: am_util_stdio_vsprintf
          360   7100: getStackedReg
          361   7114: iom_slave_read
          362   7129: iom_slave_write
          363   7145: main
          364   7150: no_print
          365   7159: send_hello
          366   7170: start_boot_mode
          367   7186: validate_transaction
          368   7207: __aeabi_d2f
          369   7219: _d2f
          370   7224: __fpl_dnaninf
          371   7238: _fp_init
          372   7247: __fplib_config_fpu_vfp
          373   7270: __fplib_config_pureend_doubles
          374   7301: __fpl_fretinf
          375   7315: __I$use$fp
          376   7326: am_hal_pwrctrl_peripheral_control
          377   7360: g_AM_BSP_GPIO_COM_UART_RX
          378   7386: g_AM_BSP_GPIO_COM_UART_TX
          379   7412: g_AM_BSP_GPIO_FT_BRIDGE_MISO
          380   7441: g_AM_BSP_GPIO_FT_BRIDGE_MOSI
          381   7470: g_AM_BSP_GPIO_FT_BRIDGE_SCK
          382   7498: g_AM_BSP_GPIO_FT_BRIDGE_SS
          383   7525: g_AM_BSP_GPIO_IOM0_CS
          384   7547: g_AM_BSP_GPIO_IOM0_MISO
          385   7571: g_AM_BSP_GPIO_IOM0_MOSI
          386   7595: g_AM_BSP_GPIO_IOM0_SCK
          387   7618: g_AM_BSP_GPIO_IOM0_SCL
          388   7641: g_AM_BSP_GPIO_IOM0_SDA
          389   7664: g_AM_BSP_GPIO_IOM1_CS
          390   7686: g_AM_BSP_GPIO_IOM1_MISO
          391   7710: g_AM_BSP_GPIO_IOM1_MOSI
          392   7734: g_AM_BSP_GPIO_IOM1_SCK
          393   7757: g_AM_BSP_GPIO_IOM1_SCL
          394   7780: g_AM_BSP_GPIO_IOM1_SDA
          395   7803: g_AM_BSP_GPIO_IOM2_SCL
          396   7826: g_AM_BSP_GPIO_IOM2_SDA
          397   7849: g_AM_BSP_GPIO_IOM3_CS
          398   7871: g_AM_BSP_GPIO_IOM3_MISO
          399   7895: g_AM_BSP_GPIO_IOM3_MOSI
          400   7919: g_AM_BSP_GPIO_IOM3_SCK
          401   7942: g_AM_BSP_GPIO_IOM3_SCL
          402   7965: g_AM_BSP_GPIO_IOM3_SDA
          403   7988: g_AM_BSP_GPIO_IOM4_CS
          404   8010: g_AM_BSP_GPIO_IOM4_MISO
          405   8034: g_AM_BSP_GPIO_IOM4_MOSI
          406   8058: g_AM_BSP_GPIO_IOM4_SCK
          407   8081: g_AM_BSP_GPIO_IOM4_SCL
          408   8104: g_AM_BSP_GPIO_IOM4_SDA
          409   8127: g_AM_BSP_GPIO_IOM5_CS
          410   8149: g_AM_BSP_GPIO_IOM5_MISO
          411   8173: g_AM_BSP_GPIO_IOM5_MOSI
          412   8197: g_AM_BSP_GPIO_IOM5_SCK
          413   8220: g_AM_BSP_GPIO_IOM5_SCL
          414   8243: g_AM_BSP_GPIO_IOM5_SDA
          415   8266: g_AM_BSP_GPIO_ITM_SWO
          416   8288: g_AM_HAL_GPIO_DISABLE
          417   8310: g_AM_HAL_GPIO_INPUT_PULLUP
          418   8337: g_AM_HAL_GPIO_OUTPUT
          419   8358: g_am_hal_mcuctrl_flash_size
          420   8386: g_am_hal_mcuctrl_sram_size
          421   8413: Region$$Table$$Base
          422   8433: Region$$Table$$Limit
          423   8454: am_bsp_psLEDs
          424   8468: __libspace_start
          425   8485: __temporary_stack_top$libspace
          426   8516: bIosInt
          427   8524: gAmHalResetStatus
          428   8542: g_IOMHandle
          429   8554: g_IOMhandles
          430   8567: g_IosPktData
          431   8580: g_bRxTimeoutFlag
          432   8597: g_bSimobuckTrimsDone
          433   8618: g_bVddfTrimsDone
          434   8635: g_pfnCharPrint
          435   8650: g_psReadData
          436   8663: g_psWriteData
          437   8677: g_pui8UARTTXBuffer
          438   8696: g_pvUART
          439   8705: g_ui32UARTRxIndex
          440   8723: 


** Section #13 '.note' (SHT_NOTE)
    Size   : 32 bytes (alignment 4)


** Section #14 '.comment' (SHT_PROGBITS)
    Size   : 1560 bytes


** Section #15 '.shstrtab' (SHT_STRTAB)
    Size   : 144 bytes

            #  Offset String
        ====================================

            1      1: ROMEM
            2      7: RWMEM
            3     13: TCM
            4     17: STACKMEM
            5     26: .debug_abbrev
            6     40: .debug_frame
            7     53: .debug_info
            8     65: .debug_line
            9     77: .debug_str
           10     88: .debug_ranges
           11    102: .symtab
           12    110: .strtab
           13    118: .note
           14    124: .comment
           15    133: .shstrtab
           16    143: 


