
========================================================================

** ELF Header Information

    File Name: bin\iom_power_example.axf

    Machine class: ELFCLASS32 (32-bit)
    Data encoding: ELFDATA2LSB (Little endian)
    Header version: EV_CURRENT (Current version)
    Operating System ABI: none
    ABI Version: 0
    File Type: ET_EXEC (Executable) (2)
    Machine: EM_ARM (ARM)

    Image Entry point: 0x0000c135
    Flags: EF_ARM_HASENTRY + EF_ARM_ABI_FLOAT_HARD (0x05000402)

    ARM ELF revision: 5 (ABI version 2)

    Conforms to Hard float procedure-call standard

    Built with
    Component: ARM Compiler 6.16 Tool: armasm [5dfea300]
    Component: ARM Compiler 6.16 Tool: armlink [5dfeaa00]

    Header size: 52 bytes (0x34)
    Program header entry size: 32 bytes (0x20)
    Section header entry size: 40 bytes (0x28)

    Program header entries: 1
    Section header entries: 16

    Program header offset: 72940 (0x00011cec)
    Section header offset: 72972 (0x00011d0c)

    Section header string table index: 15

========================================================================

** Program header #0 (PT_LOAD) [PF_X + PF_W + PF_R + PF_ARM_ENTRY]
    Size : 42568 bytes (22176 bytes in file)
    Virtual address: 0x0000c000 (Alignment 8)


========================================================================

** Section #1 'ROMEM' (SHT_PROGBITS) [SHF_ALLOC + SHF_EXECINSTR]
    Size   : 21948 bytes (alignment 4)
    Address: 0x0000c000

    $d
    RESET
    __Vectors
        0x0000c000:    10011000    ....    DCD    268505088
        0x0000c004:    0000c101    ....    DCD    49409
        0x0000c008:    0000c11f    ....    DCD    49439
        0x0000c00c:    0000c269    i...    DCD    49769
        0x0000c010:    0000c121    !...    DCD    49441
        0x0000c014:    0000c123    #...    DCD    49443
        0x0000c018:    0000c125    %...    DCD    49445
        0x0000c01c:    00000000    ....    DCD    0
        0x0000c020:    00000000    ....    DCD    0
        0x0000c024:    00000000    ....    DCD    0
        0x0000c028:    00000000    ....    DCD    0
        0x0000c02c:    0000c127    '...    DCD    49447
        0x0000c030:    0000c129    )...    DCD    49449
        0x0000c034:    00000000    ....    DCD    0
        0x0000c038:    0000c12b    +...    DCD    49451
        0x0000c03c:    0000c12d    -...    DCD    49453
        0x0000c040:    0000c12f    /...    DCD    49455
        0x0000c044:    0000c12f    /...    DCD    49455
        0x0000c048:    0000c12f    /...    DCD    49455
        0x0000c04c:    0000c12f    /...    DCD    49455
        0x0000c050:    0000c12f    /...    DCD    49455
        0x0000c054:    0000c12f    /...    DCD    49455
        0x0000c058:    0000c12f    /...    DCD    49455
        0x0000c05c:    0000c12f    /...    DCD    49455
        0x0000c060:    0000c12f    /...    DCD    49455
        0x0000c064:    0000f659    Y...    DCD    63065
        0x0000c068:    0000c12f    /...    DCD    49455
        0x0000c06c:    0000c12f    /...    DCD    49455
        0x0000c070:    0000c12f    /...    DCD    49455
        0x0000c074:    0000c12f    /...    DCD    49455
        0x0000c078:    0000c7e1    ....    DCD    51169
        0x0000c07c:    0000c12f    /...    DCD    49455
        0x0000c080:    0000c12f    /...    DCD    49455
        0x0000c084:    0000c12f    /...    DCD    49455
        0x0000c088:    0000c12f    /...    DCD    49455
        0x0000c08c:    0000c12f    /...    DCD    49455
        0x0000c090:    0000c12f    /...    DCD    49455
        0x0000c094:    0000c12f    /...    DCD    49455
        0x0000c098:    0000c12f    /...    DCD    49455
        0x0000c09c:    0000c12f    /...    DCD    49455
        0x0000c0a0:    0000c12f    /...    DCD    49455
        0x0000c0a4:    0000c12f    /...    DCD    49455
        0x0000c0a8:    0000c12f    /...    DCD    49455
        0x0000c0ac:    0000c12f    /...    DCD    49455
        0x0000c0b0:    0000c12f    /...    DCD    49455
        0x0000c0b4:    0000c12f    /...    DCD    49455
        0x0000c0b8:    0000c12f    /...    DCD    49455
        0x0000c0bc:    0000c12f    /...    DCD    49455
        0x0000c0c0:    0000c12f    /...    DCD    49455
        0x0000c0c4:    0000c12f    /...    DCD    49455
    __Patchable
        0x0000c0c8:    00000000    ....    DCD    0
        0x0000c0cc:    00000000    ....    DCD    0
        0x0000c0d0:    00000000    ....    DCD    0
        0x0000c0d4:    00000000    ....    DCD    0
        0x0000c0d8:    00000000    ....    DCD    0
        0x0000c0dc:    00000000    ....    DCD    0
        0x0000c0e0:    00000000    ....    DCD    0
        0x0000c0e4:    00000000    ....    DCD    0
        0x0000c0e8:    00000000    ....    DCD    0
        0x0000c0ec:    00000000    ....    DCD    0
        0x0000c0f0:    00000000    ....    DCD    0
        0x0000c0f4:    00000000    ....    DCD    0
        0x0000c0f8:    00000000    ....    DCD    0
        0x0000c0fc:    00000000    ....    DCD    0
    $t
    $v0
    Reset_Handler
        0x0000c100:    f64e5088    N..P    MOV      r0,#0xed88
        0x0000c104:    f2ce0000    ....    MOVT     r0,#0xe000
        0x0000c108:    6801        .h      LDR      r1,[r0,#0]
        0x0000c10a:    f4410170    A.p.    ORR      r1,r1,#0xf00000
        0x0000c10e:    6001        .`      STR      r1,[r0,#0]
        0x0000c110:    f3bf8f4f    ..O.    DSB      
        0x0000c114:    f3bf8f6f    ..o.    ISB      
        0x0000c118:    4805        .H      LDR      r0,[pc,#20] ; [0xc130] = 0xc135
        0x0000c11a:    4700        .G      BX       r0
        0x0000c11c:    e7fe        ..      B        0xc11c ; Reset_Handler + 28
    NMI_Handler
        0x0000c11e:    e7fe        ..      B        NMI_Handler ; 0xc11e
    MemManage_Handler
        0x0000c120:    e7fe        ..      B        MemManage_Handler ; 0xc120
    BusFault_Handler
        0x0000c122:    e7fe        ..      B        BusFault_Handler ; 0xc122
    UsageFault_Handler
        0x0000c124:    e7fe        ..      B        UsageFault_Handler ; 0xc124
    SVC_Handler
        0x0000c126:    e7fe        ..      B        SVC_Handler ; 0xc126
    DebugMon_Handler
        0x0000c128:    e7fe        ..      B        DebugMon_Handler ; 0xc128
    PendSV_Handler
        0x0000c12a:    e7fe        ..      B        PendSV_Handler ; 0xc12a
    SysTick_Handler
        0x0000c12c:    e7fe        ..      B        SysTick_Handler ; 0xc12c
    am_adc_isr
    am_ble_isr
    am_brownout_isr
    am_clkgen_isr
    am_gpio_isr
    am_iomaster0_isr
    am_iomaster1_isr
    am_iomaster2_isr
    am_iomaster4_isr
    am_iomaster5_isr
    am_ioslave_acc_isr
    am_ioslave_ios_isr
    am_mspi0_isr
    am_mspi1_isr
    am_mspi2_isr
    am_pdm0_isr
    am_rtc_isr
    am_scard_isr
    am_software0_isr
    am_stimer_cmpr0_isr
    am_stimer_cmpr1_isr
    am_stimer_cmpr2_isr
    am_stimer_cmpr3_isr
    am_stimer_cmpr4_isr
    am_stimer_cmpr5_isr
    am_stimer_cmpr6_isr
    am_stimer_cmpr7_isr
    am_stimer_isr
    am_uart0_isr
    am_uart1_isr
    am_uart_isr
    am_vcomp_isr
    am_watchdog_isr
        0x0000c12e:    e7fe        ..      B        am_adc_isr ; 0xc12e
    $d
        0x0000c130:    0000c135    5...    DCD    49461
    $t
    !!!main
    __main
        0x0000c134:    f000f802    ....    BL       __scatterload ; 0xc13c
        0x0000c138:    f000f83c    ..<.    BL       __rt_entry ; 0xc1b4
    !!!scatter
    __scatterload
    __scatterload_rt2
    __scatterload_rt2_thumb_only
        0x0000c13c:    a00a        ..      ADR      r0,{pc}+0x2c ; 0xc168
        0x0000c13e:    e8900c00    ....    LDM      r0,{r10,r11}
        0x0000c142:    4482        .D      ADD      r10,r10,r0
        0x0000c144:    4483        .D      ADD      r11,r11,r0
        0x0000c146:    f1aa0701    ....    SUB      r7,r10,#1
    __scatterload_null
        0x0000c14a:    45da        .E      CMP      r10,r11
        0x0000c14c:    d101        ..      BNE      0xc152 ; __scatterload_null + 8
        0x0000c14e:    f000f831    ..1.    BL       __rt_entry ; 0xc1b4
        0x0000c152:    f2af0e09    ....    ADR      lr,{pc}-7 ; 0xc14b
        0x0000c156:    e8ba000f    ....    LDM      r10!,{r0-r3}
        0x0000c15a:    f0130f01    ....    TST      r3,#1
        0x0000c15e:    bf18        ..      IT       NE
        0x0000c160:    1afb        ..      SUBNE    r3,r7,r3
        0x0000c162:    f0430301    C...    ORR      r3,r3,#1
        0x0000c166:    4718        .G      BX       r3
    $d
        0x0000c168:    00005424    $T..    DCD    21540
        0x0000c16c:    00005454    TT..    DCD    21588
    $t
    !!handler_copy
    __scatterload_copy
        0x0000c170:    3a10        .:      SUBS     r2,r2,#0x10
        0x0000c172:    bf24        $.      ITT      CS
        0x0000c174:    c878        x.      LDMCS    r0!,{r3-r6}
        0x0000c176:    c178        x.      STMCS    r1!,{r3-r6}
        0x0000c178:    d8fa        ..      BHI      __scatterload_copy ; 0xc170
        0x0000c17a:    0752        R.      LSLS     r2,r2,#29
        0x0000c17c:    bf24        $.      ITT      CS
        0x0000c17e:    c830        0.      LDMCS    r0!,{r4,r5}
        0x0000c180:    c130        0.      STMCS    r1!,{r4,r5}
        0x0000c182:    bf44        D.      ITT      MI
        0x0000c184:    6804        .h      LDRMI    r4,[r0,#0]
        0x0000c186:    600c        .`      STRMI    r4,[r1,#0]
        0x0000c188:    4770        pG      BX       lr
        0x0000c18a:    0000        ..      MOVS     r0,r0
    !!handler_zi
    __scatterload_zeroinit
        0x0000c18c:    2300        .#      MOVS     r3,#0
        0x0000c18e:    2400        .$      MOVS     r4,#0
        0x0000c190:    2500        .%      MOVS     r5,#0
        0x0000c192:    2600        .&      MOVS     r6,#0
        0x0000c194:    3a10        .:      SUBS     r2,r2,#0x10
        0x0000c196:    bf28        (.      IT       CS
        0x0000c198:    c178        x.      STMCS    r1!,{r3-r6}
        0x0000c19a:    d8fb        ..      BHI      0xc194 ; __scatterload_zeroinit + 8
        0x0000c19c:    0752        R.      LSLS     r2,r2,#29
        0x0000c19e:    bf28        (.      IT       CS
        0x0000c1a0:    c130        0.      STMCS    r1!,{r4,r5}
        0x0000c1a2:    bf48        H.      IT       MI
        0x0000c1a4:    600b        .`      STRMI    r3,[r1,#0]
        0x0000c1a6:    4770        pG      BX       lr
    .ARM.Collect$$libinit$$00000000
    __rt_lib_init
        0x0000c1a8:    b51f        ..      PUSH     {r0-r4,lr}
    .ARM.Collect$$libinit$$00000001
    __rt_lib_init_fp_1
        0x0000c1aa:    f004fe3c    ..<.    BL       _fp_init ; 0x10e26
    .ARM.Collect$$libinit$$00000004
    .ARM.Collect$$libinit$$0000000A
    .ARM.Collect$$libinit$$0000000C
    .ARM.Collect$$libinit$$0000000E
    .ARM.Collect$$libinit$$00000011
    .ARM.Collect$$libinit$$00000013
    .ARM.Collect$$libinit$$00000015
    .ARM.Collect$$libinit$$00000017
    .ARM.Collect$$libinit$$00000019
    .ARM.Collect$$libinit$$0000001B
    .ARM.Collect$$libinit$$0000001D
    .ARM.Collect$$libinit$$0000001F
    .ARM.Collect$$libinit$$00000021
    .ARM.Collect$$libinit$$00000023
    .ARM.Collect$$libinit$$00000025
    .ARM.Collect$$libinit$$0000002C
    .ARM.Collect$$libinit$$0000002E
    .ARM.Collect$$libinit$$00000030
    .ARM.Collect$$libinit$$00000032
    .ARM.Collect$$libinit$$00000033
    __rt_lib_init_alloca_1
    __rt_lib_init_argv_1
    __rt_lib_init_atexit_1
    __rt_lib_init_clock_1
    __rt_lib_init_cpp_1
    __rt_lib_init_exceptions_1
    __rt_lib_init_fp_trap_1
    __rt_lib_init_getenv_1
    __rt_lib_init_heap_1
    __rt_lib_init_lc_collate_1
    __rt_lib_init_lc_ctype_1
    __rt_lib_init_lc_monetary_1
    __rt_lib_init_lc_numeric_1
    __rt_lib_init_lc_time_1
    __rt_lib_init_preinit_1
    __rt_lib_init_rand_1
    __rt_lib_init_return
    __rt_lib_init_signal_1
    __rt_lib_init_stdio_1
    __rt_lib_init_user_alloc_1
        0x0000c1ae:    bd1f        ..      POP      {r0-r4,pc}
    .ARM.Collect$$libshutdown$$00000000
    __rt_lib_shutdown
        0x0000c1b0:    b510        ..      PUSH     {r4,lr}
    .ARM.Collect$$libshutdown$$00000002
    .ARM.Collect$$libshutdown$$00000004
    .ARM.Collect$$libshutdown$$00000007
    .ARM.Collect$$libshutdown$$0000000A
    .ARM.Collect$$libshutdown$$0000000C
    .ARM.Collect$$libshutdown$$0000000F
    .ARM.Collect$$libshutdown$$00000010
    __rt_lib_shutdown_cpp_1
    __rt_lib_shutdown_fp_trap_1
    __rt_lib_shutdown_heap_1
    __rt_lib_shutdown_return
    __rt_lib_shutdown_signal_1
    __rt_lib_shutdown_stdio_1
    __rt_lib_shutdown_user_alloc_1
        0x0000c1b2:    bd10        ..      POP      {r4,pc}
    .ARM.Collect$$rtentry$$00000000
    .ARM.Collect$$rtentry$$00000002
    .ARM.Collect$$rtentry$$00000004
    __rt_entry
    __rt_entry_presh_1
    __rt_entry_sh
        0x0000c1b4:    f000f81d    ....    BL       __user_setup_stackheap ; 0xc1f2
        0x0000c1b8:    4611        .F      MOV      r1,r2
    .ARM.Collect$$rtentry$$00000009
    .ARM.Collect$$rtentry$$0000000A
    __rt_entry_li
    __rt_entry_postsh_1
        0x0000c1ba:    f7fffff5    ....    BL       __rt_lib_init ; 0xc1a8
    .ARM.Collect$$rtentry$$0000000C
    .ARM.Collect$$rtentry$$0000000D
    __rt_entry_main
    __rt_entry_postli_1
        0x0000c1be:    f004f94d    ..M.    BL       main ; 0x1045c
        0x0000c1c2:    f000f83b    ..;.    BL       exit ; 0xc23c
    .ARM.Collect$$rtexit$$00000000
    __rt_exit
        0x0000c1c6:    b403        ..      PUSH     {r0,r1}
    .ARM.Collect$$rtexit$$00000002
    .ARM.Collect$$rtexit$$00000003
    __rt_exit_ls
    __rt_exit_prels_1
        0x0000c1c8:    f7fffff2    ....    BL       __rt_lib_shutdown ; 0xc1b0
    .ARM.Collect$$rtexit$$00000004
    __rt_exit_exit
        0x0000c1cc:    bc03        ..      POP      {r0,r1}
        0x0000c1ce:    f000f843    ..C.    BL       _sys_exit ; 0xc258
        0x0000c1d2:    0000        ..      MOVS     r0,r0
    .text
    $v0
    __user_initial_stackheap
        0x0000c1d4:    4802        .H      LDR      r0,[pc,#8] ; [0xc1e0] = 0x10015088
        0x0000c1d6:    4903        .I      LDR      r1,[pc,#12] ; [0xc1e4] = 0x10011000
        0x0000c1d8:    4a01        .J      LDR      r2,[pc,#4] ; [0xc1e0] = 0x10015088
        0x0000c1da:    4b03        .K      LDR      r3,[pc,#12] ; [0xc1e8] = 0x10010000
        0x0000c1dc:    4770        pG      BX       lr
    $d
        0x0000c1de:    0000        ..      DCW    0
        0x0000c1e0:    10015088    .P..    DCD    268521608
        0x0000c1e4:    10011000    ....    DCD    268505088
        0x0000c1e8:    10010000    ....    DCD    268500992
    $t
    .text
    __use_two_region_memory
        0x0000c1ec:    4770        pG      BX       lr
    __rt_heap_escrow$2region
        0x0000c1ee:    4770        pG      BX       lr
    __rt_heap_expand$2region
        0x0000c1f0:    4770        pG      BX       lr
    .text
    __user_setup_stackheap
        0x0000c1f2:    4675        uF      MOV      r5,lr
        0x0000c1f4:    f000f82c    ..,.    BL       __user_libspace ; 0xc250
        0x0000c1f8:    46ae        .F      MOV      lr,r5
        0x0000c1fa:    0005        ..      MOVS     r5,r0
        0x0000c1fc:    4669        iF      MOV      r1,sp
        0x0000c1fe:    4653        SF      MOV      r3,r10
        0x0000c200:    f0200007     ...    BIC      r0,r0,#7
        0x0000c204:    4685        .F      MOV      sp,r0
        0x0000c206:    b018        ..      ADD      sp,sp,#0x60
        0x0000c208:    b520         .      PUSH     {r5,lr}
        0x0000c20a:    f7ffffe3    ....    BL       __user_initial_stackheap ; 0xc1d4
        0x0000c20e:    e8bd4020    .. @    POP      {r5,lr}
        0x0000c212:    f04f0600    O...    MOV      r6,#0
        0x0000c216:    f04f0700    O...    MOV      r7,#0
        0x0000c21a:    f04f0800    O...    MOV      r8,#0
        0x0000c21e:    f04f0b00    O...    MOV      r11,#0
        0x0000c222:    46ac        .F      MOV      r12,r5
        0x0000c224:    e8ac09c0    ....    STM      r12!,{r6-r8,r11}
        0x0000c228:    e8ac09c0    ....    STM      r12!,{r6-r8,r11}
        0x0000c22c:    e8ac09c0    ....    STM      r12!,{r6-r8,r11}
        0x0000c230:    e8ac09c0    ....    STM      r12!,{r6-r8,r11}
        0x0000c234:    f0210107    !...    BIC      r1,r1,#7
        0x0000c238:    468d        .F      MOV      sp,r1
        0x0000c23a:    4770        pG      BX       lr
    .text
    exit
        0x0000c23c:    b510        ..      PUSH     {r4,lr}
        0x0000c23e:    4604        .F      MOV      r4,r0
        0x0000c240:    f3af8000    ....    NOP.W    
        0x0000c244:    4620         F      MOV      r0,r4
        0x0000c246:    e8bd4010    ...@    POP      {r4,lr}
        0x0000c24a:    f7ffbfbc    ....    B.W      __rt_exit ; 0xc1c6
        0x0000c24e:    0000        ..      MOVS     r0,r0
    .text
    __user_libspace
    __user_perproc_libspace
    __user_perthread_libspace
        0x0000c250:    4800        .H      LDR      r0,[pc,#0] ; [0xc254] = 0x100110e0
        0x0000c252:    4770        pG      BX       lr
    $d
        0x0000c254:    100110e0    ....    DCD    268505312
    $t
    .text
    _sys_exit
        0x0000c258:    4901        .I      LDR      r1,[pc,#4] ; [0xc260] = 0x20026
        0x0000c25a:    2018        .       MOVS     r0,#0x18
        0x0000c25c:    beab        ..      BKPT     #0xab
        0x0000c25e:    e7fe        ..      B        0xc25e ; _sys_exit + 6
    $d
        0x0000c260:    00020026    &...    DCD    131110
    $t
    .text
    __I$use$semihosting
    __use_no_semihosting_swi
        0x0000c264:    4770        pG      BX       lr
    .text
    __semihosting_library_function
        0x0000c266:    0000        ..      MOVS     r0,r0
    $t.0
    HardFault_Handler
        0x0000c268:    b501        ..      PUSH     {r0,lr}
        0x0000c26a:    f01e0f04    ....    TST      lr,#4
        0x0000c26e:    bf0a        ..      ITET     EQ
        0x0000c270:    f3ef8008    ....    MRSEQ    r0,MSP
        0x0000c274:    f3ef8009    ....    MRSNE    r0,PSP
        0x0000c278:    f1100008    ....    ADDSEQ   r0,r0,#8
        0x0000c27c:    f003fa0e    ....    BL       am_util_faultisr_collect_data ; 0xf69c
        0x0000c280:    bd01        ..      POP      {r0,pc}
        0x0000c282:    0000        ..      MOVS     r0,r0
    __NVIC_DisableIRQ
        0x0000c284:    b081        ..      SUB      sp,sp,#4
        0x0000c286:    f88d0003    ....    STRB     r0,[sp,#3]
        0x0000c28a:    f99d0003    ....    LDRSB    r0,[sp,#3]
        0x0000c28e:    2800        .(      CMP      r0,#0
        0x0000c290:    d412        ..      BMI      0xc2b8 ; __NVIC_DisableIRQ + 52
        0x0000c292:    e7ff        ..      B        0xc294 ; __NVIC_DisableIRQ + 16
        0x0000c294:    f99d1003    ....    LDRSB    r1,[sp,#3]
        0x0000c298:    f001021f    ....    AND      r2,r1,#0x1f
        0x0000c29c:    2001        .       MOVS     r0,#1
        0x0000c29e:    4090        .@      LSLS     r0,r0,r2
        0x0000c2a0:    094a        J.      LSRS     r2,r1,#5
        0x0000c2a2:    f24e1180    N...    MOV      r1,#0xe180
        0x0000c2a6:    f2ce0100    ....    MOVT     r1,#0xe000
        0x0000c2aa:    f8410022    A.".    STR      r0,[r1,r2,LSL #2]
        0x0000c2ae:    f3bf8f4f    ..O.    DSB      
        0x0000c2b2:    f3bf8f6f    ..o.    ISB      
        0x0000c2b6:    e7ff        ..      B        0xc2b8 ; __NVIC_DisableIRQ + 52
        0x0000c2b8:    b001        ..      ADD      sp,sp,#4
        0x0000c2ba:    4770        pG      BX       lr
    __NVIC_EnableIRQ
        0x0000c2bc:    b081        ..      SUB      sp,sp,#4
        0x0000c2be:    f88d0003    ....    STRB     r0,[sp,#3]
        0x0000c2c2:    f99d0003    ....    LDRSB    r0,[sp,#3]
        0x0000c2c6:    2800        .(      CMP      r0,#0
        0x0000c2c8:    d40e        ..      BMI      0xc2e8 ; __NVIC_EnableIRQ + 44
        0x0000c2ca:    e7ff        ..      B        0xc2cc ; __NVIC_EnableIRQ + 16
        0x0000c2cc:    f99d1003    ....    LDRSB    r1,[sp,#3]
        0x0000c2d0:    f001021f    ....    AND      r2,r1,#0x1f
        0x0000c2d4:    2001        .       MOVS     r0,#1
        0x0000c2d6:    4090        .@      LSLS     r0,r0,r2
        0x0000c2d8:    094a        J.      LSRS     r2,r1,#5
        0x0000c2da:    f24e1100    N...    MOVW     r1,#0xe100
        0x0000c2de:    f2ce0100    ....    MOVT     r1,#0xe000
        0x0000c2e2:    f8410022    A.".    STR      r0,[r1,r2,LSL #2]
        0x0000c2e6:    e7ff        ..      B        0xc2e8 ; __NVIC_EnableIRQ + 44
        0x0000c2e8:    b001        ..      ADD      sp,sp,#4
        0x0000c2ea:    4770        pG      BX       lr
    am_bsp_iom_pins_disable
        0x0000c2ec:    b510        ..      PUSH     {r4,lr}
        0x0000c2ee:    2805        .(      CMP      r0,#5
        0x0000c2f0:    d900        ..      BLS      0xc2f4 ; am_bsp_iom_pins_disable + 8
        0x0000c2f2:    bd10        ..      POP      {r4,pc}
        0x0000c2f4:    ea410080    A...    ORR      r0,r1,r0,LSL #2
        0x0000c2f8:    2815        .(      CMP      r0,#0x15
        0x0000c2fa:    bf88        ..      IT       HI
        0x0000c2fc:    bd10        ..      POPHI    {r4,pc}
        0x0000c2fe:    e8dff000    ....    TBB      [pc,r0]
    $d.12
        0x0000c302:    2f0c        ./      DCW    12044
        0x0000c304:    4d3a0b0b    ..:M    DCD    1295649547
        0x0000c308:    6b580b0b    ..Xk    DCD    1800932107
        0x0000c30c:    85760b0b    ..v.    DCD    2239105803
        0x0000c310:    a3900b0b    ....    DCD    2744126219
        0x0000c314:    c1ae0b0b    ....    DCD    3249408779
    $t.13
        0x0000c318:    e7eb        ..      B        0xc2f2 ; am_bsp_iom_pins_disable + 6
        0x0000c31a:    f241105c    A.\.    MOV      r0,#0x115c
        0x0000c31e:    f2c00001    ....    MOVT     r0,#1
        0x0000c322:    6804        .h      LDR      r4,[r0,#0]
        0x0000c324:    2005        .       MOVS     r0,#5
        0x0000c326:    4621        !F      MOV      r1,r4
        0x0000c328:    f001fbca    ....    BL       am_hal_gpio_pinconfig ; 0xdac0
        0x0000c32c:    2006        .       MOVS     r0,#6
        0x0000c32e:    4621        !F      MOV      r1,r4
        0x0000c330:    f001fbc6    ....    BL       am_hal_gpio_pinconfig ; 0xdac0
        0x0000c334:    2007        .       MOVS     r0,#7
        0x0000c336:    4621        !F      MOV      r1,r4
        0x0000c338:    f001fbc2    ....    BL       am_hal_gpio_pinconfig ; 0xdac0
        0x0000c33c:    200d        .       MOVS     r0,#0xd
        0x0000c33e:    4621        !F      MOV      r1,r4
        0x0000c340:    f001fbbe    ....    BL       am_hal_gpio_pinconfig ; 0xdac0
        0x0000c344:    2005        .       MOVS     r0,#5
        0x0000c346:    4621        !F      MOV      r1,r4
        0x0000c348:    f001fbba    ....    BL       am_hal_gpio_pinconfig ; 0xdac0
        0x0000c34c:    2006        .       MOVS     r0,#6
        0x0000c34e:    4621        !F      MOV      r1,r4
        0x0000c350:    f001fbb6    ....    BL       am_hal_gpio_pinconfig ; 0xdac0
        0x0000c354:    2007        .       MOVS     r0,#7
        0x0000c356:    4621        !F      MOV      r1,r4
        0x0000c358:    f001fbb2    ....    BL       am_hal_gpio_pinconfig ; 0xdac0
        0x0000c35c:    2021        !       MOVS     r0,#0x21
        0x0000c35e:    e09b        ..      B        0xc498 ; am_bsp_iom_pins_disable + 428
        0x0000c360:    f241105c    A.\.    MOV      r0,#0x115c
        0x0000c364:    f2c00001    ....    MOVT     r0,#1
        0x0000c368:    6804        .h      LDR      r4,[r0,#0]
        0x0000c36a:    2005        .       MOVS     r0,#5
        0x0000c36c:    4621        !F      MOV      r1,r4
        0x0000c36e:    f001fba7    ....    BL       am_hal_gpio_pinconfig ; 0xdac0
        0x0000c372:    2006        .       MOVS     r0,#6
        0x0000c374:    e090        ..      B        0xc498 ; am_bsp_iom_pins_disable + 428
        0x0000c376:    f241105c    A.\.    MOV      r0,#0x115c
        0x0000c37a:    f2c00001    ....    MOVT     r0,#1
        0x0000c37e:    6804        .h      LDR      r4,[r0,#0]
        0x0000c380:    2008        .       MOVS     r0,#8
        0x0000c382:    4621        !F      MOV      r1,r4
        0x0000c384:    f001fb9c    ....    BL       am_hal_gpio_pinconfig ; 0xdac0
        0x0000c388:    2009        .       MOVS     r0,#9
        0x0000c38a:    4621        !F      MOV      r1,r4
        0x0000c38c:    f001fb98    ....    BL       am_hal_gpio_pinconfig ; 0xdac0
        0x0000c390:    200a        .       MOVS     r0,#0xa
        0x0000c392:    4621        !F      MOV      r1,r4
        0x0000c394:    f001fb94    ....    BL       am_hal_gpio_pinconfig ; 0xdac0
        0x0000c398:    2022        "       MOVS     r0,#0x22
        0x0000c39a:    e07d        }.      B        0xc498 ; am_bsp_iom_pins_disable + 428
        0x0000c39c:    f241105c    A.\.    MOV      r0,#0x115c
        0x0000c3a0:    f2c00001    ....    MOVT     r0,#1
        0x0000c3a4:    6804        .h      LDR      r4,[r0,#0]
        0x0000c3a6:    2008        .       MOVS     r0,#8
        0x0000c3a8:    4621        !F      MOV      r1,r4
        0x0000c3aa:    f001fb89    ....    BL       am_hal_gpio_pinconfig ; 0xdac0
        0x0000c3ae:    2009        .       MOVS     r0,#9
        0x0000c3b0:    e072        r.      B        0xc498 ; am_bsp_iom_pins_disable + 428
        0x0000c3b2:    f241105c    A.\.    MOV      r0,#0x115c
        0x0000c3b6:    f2c00001    ....    MOVT     r0,#1
        0x0000c3ba:    6804        .h      LDR      r4,[r0,#0]
        0x0000c3bc:    201b        .       MOVS     r0,#0x1b
        0x0000c3be:    4621        !F      MOV      r1,r4
        0x0000c3c0:    f001fb7e    ..~.    BL       am_hal_gpio_pinconfig ; 0xdac0
        0x0000c3c4:    2019        .       MOVS     r0,#0x19
        0x0000c3c6:    4621        !F      MOV      r1,r4
        0x0000c3c8:    f001fb7a    ..z.    BL       am_hal_gpio_pinconfig ; 0xdac0
        0x0000c3cc:    201c        .       MOVS     r0,#0x1c
        0x0000c3ce:    4621        !F      MOV      r1,r4
        0x0000c3d0:    f001fb76    ..v.    BL       am_hal_gpio_pinconfig ; 0xdac0
        0x0000c3d4:    200f        .       MOVS     r0,#0xf
        0x0000c3d6:    e05f        _.      B        0xc498 ; am_bsp_iom_pins_disable + 428
        0x0000c3d8:    f241105c    A.\.    MOV      r0,#0x115c
        0x0000c3dc:    f2c00001    ....    MOVT     r0,#1
        0x0000c3e0:    6804        .h      LDR      r4,[r0,#0]
        0x0000c3e2:    201b        .       MOVS     r0,#0x1b
        0x0000c3e4:    4621        !F      MOV      r1,r4
        0x0000c3e6:    f001fb6b    ..k.    BL       am_hal_gpio_pinconfig ; 0xdac0
        0x0000c3ea:    2019        .       MOVS     r0,#0x19
        0x0000c3ec:    e054        T.      B        0xc498 ; am_bsp_iom_pins_disable + 428
        0x0000c3ee:    f241105c    A.\.    MOV      r0,#0x115c
        0x0000c3f2:    f2c00001    ....    MOVT     r0,#1
        0x0000c3f6:    6804        .h      LDR      r4,[r0,#0]
        0x0000c3f8:    202a        *       MOVS     r0,#0x2a
        0x0000c3fa:    4621        !F      MOV      r1,r4
        0x0000c3fc:    f001fb60    ..`.    BL       am_hal_gpio_pinconfig ; 0xdac0
        0x0000c400:    202b        +       MOVS     r0,#0x2b
        0x0000c402:    4621        !F      MOV      r1,r4
        0x0000c404:    f001fb5c    ..\.    BL       am_hal_gpio_pinconfig ; 0xdac0
        0x0000c408:    2026        &       MOVS     r0,#0x26
        0x0000c40a:    e036        6.      B        0xc47a ; am_bsp_iom_pins_disable + 398
        0x0000c40c:    f241105c    A.\.    MOV      r0,#0x115c
        0x0000c410:    f2c00001    ....    MOVT     r0,#1
        0x0000c414:    6804        .h      LDR      r4,[r0,#0]
        0x0000c416:    202a        *       MOVS     r0,#0x2a
        0x0000c418:    4621        !F      MOV      r1,r4
        0x0000c41a:    f001fb51    ..Q.    BL       am_hal_gpio_pinconfig ; 0xdac0
        0x0000c41e:    202b        +       MOVS     r0,#0x2b
        0x0000c420:    e03a        :.      B        0xc498 ; am_bsp_iom_pins_disable + 428
        0x0000c422:    f241105c    A.\.    MOV      r0,#0x115c
        0x0000c426:    f2c00001    ....    MOVT     r0,#1
        0x0000c42a:    6804        .h      LDR      r4,[r0,#0]
        0x0000c42c:    2027        '       MOVS     r0,#0x27
        0x0000c42e:    4621        !F      MOV      r1,r4
        0x0000c430:    f001fb46    ..F.    BL       am_hal_gpio_pinconfig ; 0xdac0
        0x0000c434:    2028        (       MOVS     r0,#0x28
        0x0000c436:    4621        !F      MOV      r1,r4
        0x0000c438:    f001fb42    ..B.    BL       am_hal_gpio_pinconfig ; 0xdac0
        0x0000c43c:    202c        ,       MOVS     r0,#0x2c
        0x0000c43e:    4621        !F      MOV      r1,r4
        0x0000c440:    f001fb3e    ..>.    BL       am_hal_gpio_pinconfig ; 0xdac0
        0x0000c444:    200d        .       MOVS     r0,#0xd
        0x0000c446:    e027        '.      B        0xc498 ; am_bsp_iom_pins_disable + 428
        0x0000c448:    f241105c    A.\.    MOV      r0,#0x115c
        0x0000c44c:    f2c00001    ....    MOVT     r0,#1
        0x0000c450:    6804        .h      LDR      r4,[r0,#0]
        0x0000c452:    2027        '       MOVS     r0,#0x27
        0x0000c454:    4621        !F      MOV      r1,r4
        0x0000c456:    f001fb33    ..3.    BL       am_hal_gpio_pinconfig ; 0xdac0
        0x0000c45a:    2028        (       MOVS     r0,#0x28
        0x0000c45c:    e01c        ..      B        0xc498 ; am_bsp_iom_pins_disable + 428
        0x0000c45e:    f241105c    A.\.    MOV      r0,#0x115c
        0x0000c462:    f2c00001    ....    MOVT     r0,#1
        0x0000c466:    6804        .h      LDR      r4,[r0,#0]
        0x0000c468:    2030        0       MOVS     r0,#0x30
        0x0000c46a:    4621        !F      MOV      r1,r4
        0x0000c46c:    f001fb28    ..(.    BL       am_hal_gpio_pinconfig ; 0xdac0
        0x0000c470:    202f        /       MOVS     r0,#0x2f
        0x0000c472:    4621        !F      MOV      r1,r4
        0x0000c474:    f001fb24    ..$.    BL       am_hal_gpio_pinconfig ; 0xdac0
        0x0000c478:    200c        .       MOVS     r0,#0xc
        0x0000c47a:    4621        !F      MOV      r1,r4
        0x0000c47c:    f001fb20    .. .    BL       am_hal_gpio_pinconfig ; 0xdac0
        0x0000c480:    201d        .       MOVS     r0,#0x1d
        0x0000c482:    e009        ..      B        0xc498 ; am_bsp_iom_pins_disable + 428
        0x0000c484:    f241105c    A.\.    MOV      r0,#0x115c
        0x0000c488:    f2c00001    ....    MOVT     r0,#1
        0x0000c48c:    6804        .h      LDR      r4,[r0,#0]
        0x0000c48e:    2030        0       MOVS     r0,#0x30
        0x0000c490:    4621        !F      MOV      r1,r4
        0x0000c492:    f001fb15    ....    BL       am_hal_gpio_pinconfig ; 0xdac0
        0x0000c496:    2031        1       MOVS     r0,#0x31
        0x0000c498:    4621        !F      MOV      r1,r4
        0x0000c49a:    e8bd4010    ...@    POP      {r4,lr}
        0x0000c49e:    f001bb0f    ....    B.W      am_hal_gpio_pinconfig ; 0xdac0
        0x0000c4a2:    0000        ..      MOVS     r0,r0
    am_bsp_iom_pins_enable
        0x0000c4a4:    b580        ..      PUSH     {r7,lr}
        0x0000c4a6:    2805        .(      CMP      r0,#5
        0x0000c4a8:    d900        ..      BLS      0xc4ac ; am_bsp_iom_pins_enable + 8
        0x0000c4aa:    bd80        ..      POP      {r7,pc}
        0x0000c4ac:    ea410080    A...    ORR      r0,r1,r0,LSL #2
        0x0000c4b0:    2815        .(      CMP      r0,#0x15
        0x0000c4b2:    bf88        ..      IT       HI
        0x0000c4b4:    bd80        ..      POPHI    {r7,pc}
        0x0000c4b6:    e8dff010    ....    TBH      [pc,r0,LSL #1]
    $d.9
        0x0000c4ba:    0017        ..      DCW    23
        0x0000c4bc:    00160056    V...    DCD    1441878
        0x0000c4c0:    00650016    ..e.    DCD    6619158
        0x0000c4c4:    00160084    ....    DCD    1441924
        0x0000c4c8:    00930016    ....    DCD    9633814
        0x0000c4cc:    001600b2    ....    DCD    1441970
        0x0000c4d0:    00c10016    ....    DCD    12648470
        0x0000c4d4:    001600de    ....    DCD    1442014
        0x0000c4d8:    00ed0016    ....    DCD    15532054
        0x0000c4dc:    0016010c    ....    DCD    1442060
        0x0000c4e0:    011b0016    ....    DCD    18546710
        0x0000c4e4:    013a        :.      DCW    314
    $t.10
        0x0000c4e6:    e7e0        ..      B        0xc4aa ; am_bsp_iom_pins_enable + 6
        0x0000c4e8:    f24100bc    A...    MOV      r0,#0x10bc
        0x0000c4ec:    f2c00001    ....    MOVT     r0,#1
        0x0000c4f0:    6801        .h      LDR      r1,[r0,#0]
        0x0000c4f2:    2005        .       MOVS     r0,#5
        0x0000c4f4:    f001fae4    ....    BL       am_hal_gpio_pinconfig ; 0xdac0
        0x0000c4f8:    f24100c4    A...    MOV      r0,#0x10c4
        0x0000c4fc:    f2c00001    ....    MOVT     r0,#1
        0x0000c500:    6801        .h      LDR      r1,[r0,#0]
        0x0000c502:    2006        .       MOVS     r0,#6
        0x0000c504:    f001fadc    ....    BL       am_hal_gpio_pinconfig ; 0xdac0
        0x0000c508:    f24100c0    A...    MOVW     r0,#0x10c0
        0x0000c50c:    f2c00001    ....    MOVT     r0,#1
        0x0000c510:    6801        .h      LDR      r1,[r0,#0]
        0x0000c512:    2007        .       MOVS     r0,#7
        0x0000c514:    f001fad4    ....    BL       am_hal_gpio_pinconfig ; 0xdac0
        0x0000c518:    f24100b8    A...    MOV      r0,#0x10b8
        0x0000c51c:    f2c00001    ....    MOVT     r0,#1
        0x0000c520:    6801        .h      LDR      r1,[r0,#0]
        0x0000c522:    200d        .       MOVS     r0,#0xd
        0x0000c524:    f001facc    ....    BL       am_hal_gpio_pinconfig ; 0xdac0
        0x0000c528:    f24100d4    A...    MOV      r0,#0x10d4
        0x0000c52c:    f2c00001    ....    MOVT     r0,#1
        0x0000c530:    6801        .h      LDR      r1,[r0,#0]
        0x0000c532:    2005        .       MOVS     r0,#5
        0x0000c534:    f001fac4    ....    BL       am_hal_gpio_pinconfig ; 0xdac0
        0x0000c538:    f24100cc    A...    MOV      r0,#0x10cc
        0x0000c53c:    f2c00001    ....    MOVT     r0,#1
        0x0000c540:    6801        .h      LDR      r1,[r0,#0]
        0x0000c542:    2006        .       MOVS     r0,#6
        0x0000c544:    f001fabc    ....    BL       am_hal_gpio_pinconfig ; 0xdac0
        0x0000c548:    f24100d0    A...    MOV      r0,#0x10d0
        0x0000c54c:    f2c00001    ....    MOVT     r0,#1
        0x0000c550:    6801        .h      LDR      r1,[r0,#0]
        0x0000c552:    2007        .       MOVS     r0,#7
        0x0000c554:    f001fab4    ....    BL       am_hal_gpio_pinconfig ; 0xdac0
        0x0000c558:    f24100c8    A...    MOV      r0,#0x10c8
        0x0000c55c:    f2c00001    ....    MOVT     r0,#1
        0x0000c560:    6801        .h      LDR      r1,[r0,#0]
        0x0000c562:    2021        !       MOVS     r0,#0x21
        0x0000c564:    e0f1        ..      B        0xc74a ; am_bsp_iom_pins_enable + 678
        0x0000c566:    f24100e8    A...    MOV      r0,#0x10e8
        0x0000c56a:    f2c00001    ....    MOVT     r0,#1
        0x0000c56e:    6801        .h      LDR      r1,[r0,#0]
        0x0000c570:    2005        .       MOVS     r0,#5
        0x0000c572:    f001faa5    ....    BL       am_hal_gpio_pinconfig ; 0xdac0
        0x0000c576:    f24100ec    A...    MOV      r0,#0x10ec
        0x0000c57a:    f2c00001    ....    MOVT     r0,#1
        0x0000c57e:    6801        .h      LDR      r1,[r0,#0]
        0x0000c580:    2006        .       MOVS     r0,#6
        0x0000c582:    e0e2        ..      B        0xc74a ; am_bsp_iom_pins_enable + 678
        0x0000c584:    f24100fc    A...    MOV      r0,#0x10fc
        0x0000c588:    f2c00001    ....    MOVT     r0,#1
        0x0000c58c:    6801        .h      LDR      r1,[r0,#0]
        0x0000c58e:    2008        .       MOVS     r0,#8
        0x0000c590:    f001fa96    ....    BL       am_hal_gpio_pinconfig ; 0xdac0
        0x0000c594:    f24100f4    A...    MOV      r0,#0x10f4
        0x0000c598:    f2c00001    ....    MOVT     r0,#1
        0x0000c59c:    6801        .h      LDR      r1,[r0,#0]
        0x0000c59e:    2009        .       MOVS     r0,#9
        0x0000c5a0:    f001fa8e    ....    BL       am_hal_gpio_pinconfig ; 0xdac0
        0x0000c5a4:    f24100f8    A...    MOV      r0,#0x10f8
        0x0000c5a8:    f2c00001    ....    MOVT     r0,#1
        0x0000c5ac:    6801        .h      LDR      r1,[r0,#0]
        0x0000c5ae:    200a        .       MOVS     r0,#0xa
        0x0000c5b0:    f001fa86    ....    BL       am_hal_gpio_pinconfig ; 0xdac0
        0x0000c5b4:    f24100f0    A...    MOV      r0,#0x10f0
        0x0000c5b8:    f2c00001    ....    MOVT     r0,#1
        0x0000c5bc:    6801        .h      LDR      r1,[r0,#0]
        0x0000c5be:    2022        "       MOVS     r0,#0x22
        0x0000c5c0:    e0c3        ..      B        0xc74a ; am_bsp_iom_pins_enable + 678
        0x0000c5c2:    f2411000    A...    MOVW     r0,#0x1100
        0x0000c5c6:    f2c00001    ....    MOVT     r0,#1
        0x0000c5ca:    6801        .h      LDR      r1,[r0,#0]
        0x0000c5cc:    2008        .       MOVS     r0,#8
        0x0000c5ce:    f001fa77    ..w.    BL       am_hal_gpio_pinconfig ; 0xdac0
        0x0000c5d2:    f2411004    A...    MOV      r0,#0x1104
        0x0000c5d6:    f2c00001    ....    MOVT     r0,#1
        0x0000c5da:    6801        .h      LDR      r1,[r0,#0]
        0x0000c5dc:    2009        .       MOVS     r0,#9
        0x0000c5de:    e0b4        ..      B        0xc74a ; am_bsp_iom_pins_enable + 678
        0x0000c5e0:    f24100e0    A...    MOVW     r0,#0x10e0
        0x0000c5e4:    f2c00001    ....    MOVT     r0,#1
        0x0000c5e8:    6801        .h      LDR      r1,[r0,#0]
        0x0000c5ea:    201b        .       MOVS     r0,#0x1b
        0x0000c5ec:    f001fa68    ..h.    BL       am_hal_gpio_pinconfig ; 0xdac0
        0x0000c5f0:    f24100d8    A...    MOV      r0,#0x10d8
        0x0000c5f4:    f2c00001    ....    MOVT     r0,#1
        0x0000c5f8:    6801        .h      LDR      r1,[r0,#0]
        0x0000c5fa:    2019        .       MOVS     r0,#0x19
        0x0000c5fc:    f001fa60    ..`.    BL       am_hal_gpio_pinconfig ; 0xdac0
        0x0000c600:    f24100dc    A...    MOV      r0,#0x10dc
        0x0000c604:    f2c00001    ....    MOVT     r0,#1
        0x0000c608:    6801        .h      LDR      r1,[r0,#0]
        0x0000c60a:    201c        .       MOVS     r0,#0x1c
        0x0000c60c:    f001fa58    ..X.    BL       am_hal_gpio_pinconfig ; 0xdac0
        0x0000c610:    f24100e4    A...    MOV      r0,#0x10e4
        0x0000c614:    f2c00001    ....    MOVT     r0,#1
        0x0000c618:    6801        .h      LDR      r1,[r0,#0]
        0x0000c61a:    200f        .       MOVS     r0,#0xf
        0x0000c61c:    e095        ..      B        0xc74a ; am_bsp_iom_pins_enable + 678
        0x0000c61e:    f2411008    A...    MOV      r0,#0x1108
        0x0000c622:    f2c00001    ....    MOVT     r0,#1
        0x0000c626:    6801        .h      LDR      r1,[r0,#0]
        0x0000c628:    201b        .       MOVS     r0,#0x1b
        0x0000c62a:    f001fa49    ..I.    BL       am_hal_gpio_pinconfig ; 0xdac0
        0x0000c62e:    f241100c    A...    MOV      r0,#0x110c
        0x0000c632:    f2c00001    ....    MOVT     r0,#1
        0x0000c636:    6801        .h      LDR      r1,[r0,#0]
        0x0000c638:    2019        .       MOVS     r0,#0x19
        0x0000c63a:    e086        ..      B        0xc74a ; am_bsp_iom_pins_enable + 678
        0x0000c63c:    f241101c    A...    MOV      r0,#0x111c
        0x0000c640:    f2c00001    ....    MOVT     r0,#1
        0x0000c644:    6801        .h      LDR      r1,[r0,#0]
        0x0000c646:    202a        *       MOVS     r0,#0x2a
        0x0000c648:    f001fa3a    ..:.    BL       am_hal_gpio_pinconfig ; 0xdac0
        0x0000c64c:    f2411014    A...    MOV      r0,#0x1114
        0x0000c650:    f2c00001    ....    MOVT     r0,#1
        0x0000c654:    6801        .h      LDR      r1,[r0,#0]
        0x0000c656:    202b        +       MOVS     r0,#0x2b
        0x0000c658:    f001fa32    ..2.    BL       am_hal_gpio_pinconfig ; 0xdac0
        0x0000c65c:    f2411018    A...    MOV      r0,#0x1118
        0x0000c660:    f2c00001    ....    MOVT     r0,#1
        0x0000c664:    6801        .h      LDR      r1,[r0,#0]
        0x0000c666:    2026        &       MOVS     r0,#0x26
        0x0000c668:    f001fa2a    ..*.    BL       am_hal_gpio_pinconfig ; 0xdac0
        0x0000c66c:    f2411010    A...    MOV      r0,#0x1110
        0x0000c670:    f2c00001    ....    MOVT     r0,#1
        0x0000c674:    e058        X.      B        0xc728 ; am_bsp_iom_pins_enable + 644
        0x0000c676:    f2411054    A.T.    MOV      r0,#0x1154
        0x0000c67a:    f2c00001    ....    MOVT     r0,#1
        0x0000c67e:    6801        .h      LDR      r1,[r0,#0]
        0x0000c680:    202a        *       MOVS     r0,#0x2a
        0x0000c682:    f001fa1d    ....    BL       am_hal_gpio_pinconfig ; 0xdac0
        0x0000c686:    f2411058    A.X.    MOV      r0,#0x1158
        0x0000c68a:    f2c00001    ....    MOVT     r0,#1
        0x0000c68e:    6801        .h      LDR      r1,[r0,#0]
        0x0000c690:    202b        +       MOVS     r0,#0x2b
        0x0000c692:    e05a        Z.      B        0xc74a ; am_bsp_iom_pins_enable + 678
        0x0000c694:    f241102c    A.,.    MOV      r0,#0x112c
        0x0000c698:    f2c00001    ....    MOVT     r0,#1
        0x0000c69c:    6801        .h      LDR      r1,[r0,#0]
        0x0000c69e:    2027        '       MOVS     r0,#0x27
        0x0000c6a0:    f001fa0e    ....    BL       am_hal_gpio_pinconfig ; 0xdac0
        0x0000c6a4:    f2411024    A.$.    MOV      r0,#0x1124
        0x0000c6a8:    f2c00001    ....    MOVT     r0,#1
        0x0000c6ac:    6801        .h      LDR      r1,[r0,#0]
        0x0000c6ae:    2028        (       MOVS     r0,#0x28
        0x0000c6b0:    f001fa06    ....    BL       am_hal_gpio_pinconfig ; 0xdac0
        0x0000c6b4:    f2411028    A.(.    MOV      r0,#0x1128
        0x0000c6b8:    f2c00001    ....    MOVT     r0,#1
        0x0000c6bc:    6801        .h      LDR      r1,[r0,#0]
        0x0000c6be:    202c        ,       MOVS     r0,#0x2c
        0x0000c6c0:    f001f9fe    ....    BL       am_hal_gpio_pinconfig ; 0xdac0
        0x0000c6c4:    f2411020    A. .    MOVW     r0,#0x1120
        0x0000c6c8:    f2c00001    ....    MOVT     r0,#1
        0x0000c6cc:    6801        .h      LDR      r1,[r0,#0]
        0x0000c6ce:    200d        .       MOVS     r0,#0xd
        0x0000c6d0:    e03b        ;.      B        0xc74a ; am_bsp_iom_pins_enable + 678
        0x0000c6d2:    f2411030    A.0.    MOV      r0,#0x1130
        0x0000c6d6:    f2c00001    ....    MOVT     r0,#1
        0x0000c6da:    6801        .h      LDR      r1,[r0,#0]
        0x0000c6dc:    2027        '       MOVS     r0,#0x27
        0x0000c6de:    f001f9ef    ....    BL       am_hal_gpio_pinconfig ; 0xdac0
        0x0000c6e2:    f2411034    A.4.    MOV      r0,#0x1134
        0x0000c6e6:    f2c00001    ....    MOVT     r0,#1
        0x0000c6ea:    6801        .h      LDR      r1,[r0,#0]
        0x0000c6ec:    2028        (       MOVS     r0,#0x28
        0x0000c6ee:    e02c        ,.      B        0xc74a ; am_bsp_iom_pins_enable + 678
        0x0000c6f0:    f241104c    A.L.    MOV      r0,#0x114c
        0x0000c6f4:    f2c00001    ....    MOVT     r0,#1
        0x0000c6f8:    6801        .h      LDR      r1,[r0,#0]
        0x0000c6fa:    2030        0       MOVS     r0,#0x30
        0x0000c6fc:    f001f9e0    ....    BL       am_hal_gpio_pinconfig ; 0xdac0
        0x0000c700:    f2411050    A.P.    MOV      r0,#0x1150
        0x0000c704:    f2c00001    ....    MOVT     r0,#1
        0x0000c708:    6801        .h      LDR      r1,[r0,#0]
        0x0000c70a:    202f        /       MOVS     r0,#0x2f
        0x0000c70c:    f001f9d8    ....    BL       am_hal_gpio_pinconfig ; 0xdac0
        0x0000c710:    f2411044    A.D.    MOV      r0,#0x1144
        0x0000c714:    f2c00001    ....    MOVT     r0,#1
        0x0000c718:    6801        .h      LDR      r1,[r0,#0]
        0x0000c71a:    200c        .       MOVS     r0,#0xc
        0x0000c71c:    f001f9d0    ....    BL       am_hal_gpio_pinconfig ; 0xdac0
        0x0000c720:    f2411048    A.H.    MOV      r0,#0x1148
        0x0000c724:    f2c00001    ....    MOVT     r0,#1
        0x0000c728:    6801        .h      LDR      r1,[r0,#0]
        0x0000c72a:    201d        .       MOVS     r0,#0x1d
        0x0000c72c:    e00d        ..      B        0xc74a ; am_bsp_iom_pins_enable + 678
        0x0000c72e:    f2411038    A.8.    MOV      r0,#0x1138
        0x0000c732:    f2c00001    ....    MOVT     r0,#1
        0x0000c736:    6801        .h      LDR      r1,[r0,#0]
        0x0000c738:    2030        0       MOVS     r0,#0x30
        0x0000c73a:    f001f9c1    ....    BL       am_hal_gpio_pinconfig ; 0xdac0
        0x0000c73e:    f241103c    A.<.    MOV      r0,#0x113c
        0x0000c742:    f2c00001    ....    MOVT     r0,#1
        0x0000c746:    6801        .h      LDR      r1,[r0,#0]
        0x0000c748:    2031        1       MOVS     r0,#0x31
        0x0000c74a:    e8bd4080    ...@    POP      {r7,lr}
        0x0000c74e:    f001b9b7    ....    B.W      am_hal_gpio_pinconfig ; 0xdac0
    am_bsp_itm_printf_enable
        0x0000c752:    b580        ..      PUSH     {r7,lr}
        0x0000c754:    b086        ..      SUB      sp,sp,#0x18
        0x0000c756:    f2450080    E...    MOVW     r0,#0x5080
        0x0000c75a:    f2c10001    ....    MOVT     r0,#0x1001
        0x0000c75e:    2101        .!      MOVS     r1,#1
        0x0000c760:    6001        .`      STR      r1,[r0,#0]
        0x0000c762:    f002fae5    ....    BL       am_hal_itm_enable ; 0xed30
        0x0000c766:    f2442040    D.@     MOV      r0,#0x4240
        0x0000c76a:    f2c0000f    ....    MOVT     r0,#0xf
        0x0000c76e:    9001        ..      STR      r0,[sp,#4]
        0x0000c770:    a801        ..      ADD      r0,sp,#4
        0x0000c772:    f002ff27    ..'.    BL       am_hal_tpiu_enable ; 0xf5c4
        0x0000c776:    f2411040    A.@.    MOVW     r0,#0x1140
        0x0000c77a:    f2c00001    ....    MOVT     r0,#1
        0x0000c77e:    6801        .h      LDR      r1,[r0,#0]
        0x0000c780:    2029        )       MOVS     r0,#0x29
        0x0000c782:    f001f99d    ....    BL       am_hal_gpio_pinconfig ; 0xdac0
        0x0000c786:    f64e5075    N.uP    MOV      r0,#0xed75
        0x0000c78a:    f2c00000    ....    MOVT     r0,#0
        0x0000c78e:    f003f81d    ....    BL       am_util_stdio_printf_init ; 0xf7cc
        0x0000c792:    b006        ..      ADD      sp,sp,#0x18
        0x0000c794:    bd80        ..      POP      {r7,pc}
        0x0000c796:    0000        ..      MOVS     r0,r0
    am_bsp_low_power_init
        0x0000c798:    b5f0        ..      PUSH     {r4-r7,lr}
        0x0000c79a:    b081        ..      SUB      sp,sp,#4
        0x0000c79c:    f002fcf7    ....    BL       am_hal_pwrctrl_low_power_init ; 0xf18e
        0x0000c7a0:    f002feb3    ....    BL       am_hal_rtc_osc_disable ; 0xf50a
        0x0000c7a4:    f2411060    A.`.    MOVW     r0,#0x1160
        0x0000c7a8:    f2c00001    ....    MOVT     r0,#1
        0x0000c7ac:    6804        .h      LDR      r4,[r0,#0]
        0x0000c7ae:    f2410700    A...    MOVW     r7,#0x1000
        0x0000c7b2:    2600        .&      MOVS     r6,#0
        0x0000c7b4:    f2c10701    ....    MOVT     r7,#0x1001
        0x0000c7b8:    f8575036    W.6P    LDR      r5,[r7,r6,LSL #3]
        0x0000c7bc:    4621        !F      MOV      r1,r4
        0x0000c7be:    4628        (F      MOV      r0,r5
        0x0000c7c0:    f001f97e    ..~.    BL       am_hal_gpio_pinconfig ; 0xdac0
        0x0000c7c4:    4628        (F      MOV      r0,r5
        0x0000c7c6:    2103        .!      MOVS     r1,#3
        0x0000c7c8:    f001fa84    ....    BL       am_hal_gpio_state_write ; 0xdcd4
        0x0000c7cc:    4628        (F      MOV      r0,r5
        0x0000c7ce:    2100        .!      MOVS     r1,#0
        0x0000c7d0:    f001fa80    ....    BL       am_hal_gpio_state_write ; 0xdcd4
        0x0000c7d4:    3601        .6      ADDS     r6,#1
        0x0000c7d6:    2e05        ..      CMP      r6,#5
        0x0000c7d8:    d1ee        ..      BNE      0xc7b8 ; am_bsp_low_power_init + 32
        0x0000c7da:    b001        ..      ADD      sp,sp,#4
        0x0000c7dc:    bdf0        ..      POP      {r4-r7,pc}
        0x0000c7de:    0000        ..      MOVS     r0,r0
    am_ctimer_isr
        0x0000c7e0:    b580        ..      PUSH     {r7,lr}
        0x0000c7e2:    b082        ..      SUB      sp,sp,#8
        0x0000c7e4:    2001        .       MOVS     r0,#1
        0x0000c7e6:    f001f88a    ....    BL       am_hal_ctimer_int_status_get ; 0xd8fe
        0x0000c7ea:    9001        ..      STR      r0,[sp,#4]
        0x0000c7ec:    9801        ..      LDR      r0,[sp,#4]
        0x0000c7ee:    b138        8.      CBZ      r0,0xc800 ; am_ctimer_isr + 32
        0x0000c7f0:    e7ff        ..      B        0xc7f2 ; am_ctimer_isr + 18
        0x0000c7f2:    9801        ..      LDR      r0,[sp,#4]
        0x0000c7f4:    f000ff53    ..S.    BL       am_hal_ctimer_int_clear ; 0xd69e
        0x0000c7f8:    9801        ..      LDR      r0,[sp,#4]
        0x0000c7fa:    f001f867    ..g.    BL       am_hal_ctimer_int_service ; 0xd8cc
        0x0000c7fe:    e7ff        ..      B        0xc800 ; am_ctimer_isr + 32
        0x0000c800:    b002        ..      ADD      sp,sp,#8
        0x0000c802:    bd80        ..      POP      {r7,pc}
    am_device_command_read
        0x0000c804:    b510        ..      PUSH     {r4,lr}
        0x0000c806:    b092        ..      SUB      sp,sp,#0x48
        0x0000c808:    4613        .F      MOV      r3,r2
        0x0000c80a:    468c        .F      MOV      r12,r1
        0x0000c80c:    4686        .F      MOV      lr,r0
        0x0000c80e:    9a15        ..      LDR      r2,[sp,#0x54]
        0x0000c810:    9914        ..      LDR      r1,[sp,#0x50]
        0x0000c812:    9818        ..      LDR      r0,[sp,#0x60]
        0x0000c814:    9817        ..      LDR      r0,[sp,#0x5c]
        0x0000c816:    9816        ..      LDR      r0,[sp,#0x58]
        0x0000c818:    f8cde040    ..@.    STR      lr,[sp,#0x40]
        0x0000c81c:    f88dc03f    ..?.    STRB     r12,[sp,#0x3f]
        0x0000c820:    930e        ..      STR      r3,[sp,#0x38]
        0x0000c822:    920d        ..      STR      r2,[sp,#0x34]
        0x0000c824:    910c        ..      STR      r1,[sp,#0x30]
        0x0000c826:    f88d002f    ../.    STRB     r0,[sp,#0x2f]
        0x0000c82a:    980e        ..      LDR      r0,[sp,#0x38]
        0x0000c82c:    9002        ..      STR      r0,[sp,#8]
        0x0000c82e:    980c        ..      LDR      r0,[sp,#0x30]
        0x0000c830:    9003        ..      STR      r0,[sp,#0xc]
        0x0000c832:    2001        .       MOVS     r0,#1
        0x0000c834:    f88d0014    ....    STRB     r0,[sp,#0x14]
        0x0000c838:    9818        ..      LDR      r0,[sp,#0x60]
        0x0000c83a:    9004        ..      STR      r0,[sp,#0x10]
        0x0000c83c:    9817        ..      LDR      r0,[sp,#0x5c]
        0x0000c83e:    9007        ..      STR      r0,[sp,#0x1c]
        0x0000c840:    f89d003f    ..?.    LDRB     r0,[sp,#0x3f]
        0x0000c844:    9001        ..      STR      r0,[sp,#4]
        0x0000c846:    f89d002f    ../.    LDRB     r0,[sp,#0x2f]
        0x0000c84a:    f0000001    ....    AND      r0,r0,#1
        0x0000c84e:    f88d0020    .. .    STRB     r0,[sp,#0x20]
        0x0000c852:    2000        .       MOVS     r0,#0
        0x0000c854:    f88d0021    ..!.    STRB     r0,[sp,#0x21]
        0x0000c858:    9009        ..      STR      r0,[sp,#0x24]
        0x0000c85a:    900a        ..      STR      r0,[sp,#0x28]
        0x0000c85c:    9810        ..      LDR      r0,[sp,#0x40]
        0x0000c85e:    a901        ..      ADD      r1,sp,#4
        0x0000c860:    f001fb7d    ..}.    BL       am_hal_iom_blocking_transfer ; 0xdf5e
        0x0000c864:    b118        ..      CBZ      r0,0xc86e ; am_device_command_read + 106
        0x0000c866:    e7ff        ..      B        0xc868 ; am_device_command_read + 100
        0x0000c868:    2001        .       MOVS     r0,#1
        0x0000c86a:    9011        ..      STR      r0,[sp,#0x44]
        0x0000c86c:    e002        ..      B        0xc874 ; am_device_command_read + 112
        0x0000c86e:    2000        .       MOVS     r0,#0
        0x0000c870:    9011        ..      STR      r0,[sp,#0x44]
        0x0000c872:    e7ff        ..      B        0xc874 ; am_device_command_read + 112
        0x0000c874:    9811        ..      LDR      r0,[sp,#0x44]
        0x0000c876:    b012        ..      ADD      sp,sp,#0x48
        0x0000c878:    bd10        ..      POP      {r4,pc}
        0x0000c87a:    0000        ..      MOVS     r0,r0
    am_device_command_write
        0x0000c87c:    b510        ..      PUSH     {r4,lr}
        0x0000c87e:    b092        ..      SUB      sp,sp,#0x48
        0x0000c880:    4613        .F      MOV      r3,r2
        0x0000c882:    468c        .F      MOV      r12,r1
        0x0000c884:    4686        .F      MOV      lr,r0
        0x0000c886:    9a15        ..      LDR      r2,[sp,#0x54]
        0x0000c888:    9914        ..      LDR      r1,[sp,#0x50]
        0x0000c88a:    9818        ..      LDR      r0,[sp,#0x60]
        0x0000c88c:    9817        ..      LDR      r0,[sp,#0x5c]
        0x0000c88e:    9816        ..      LDR      r0,[sp,#0x58]
        0x0000c890:    f8cde040    ..@.    STR      lr,[sp,#0x40]
        0x0000c894:    f88dc03f    ..?.    STRB     r12,[sp,#0x3f]
        0x0000c898:    930e        ..      STR      r3,[sp,#0x38]
        0x0000c89a:    920d        ..      STR      r2,[sp,#0x34]
        0x0000c89c:    910c        ..      STR      r1,[sp,#0x30]
        0x0000c89e:    f88d002f    ../.    STRB     r0,[sp,#0x2f]
        0x0000c8a2:    980e        ..      LDR      r0,[sp,#0x38]
        0x0000c8a4:    9002        ..      STR      r0,[sp,#8]
        0x0000c8a6:    980c        ..      LDR      r0,[sp,#0x30]
        0x0000c8a8:    9003        ..      STR      r0,[sp,#0xc]
        0x0000c8aa:    2000        .       MOVS     r0,#0
        0x0000c8ac:    f88d0014    ....    STRB     r0,[sp,#0x14]
        0x0000c8b0:    9918        ..      LDR      r1,[sp,#0x60]
        0x0000c8b2:    9104        ..      STR      r1,[sp,#0x10]
        0x0000c8b4:    9917        ..      LDR      r1,[sp,#0x5c]
        0x0000c8b6:    9106        ..      STR      r1,[sp,#0x18]
        0x0000c8b8:    f89d103f    ..?.    LDRB     r1,[sp,#0x3f]
        0x0000c8bc:    9101        ..      STR      r1,[sp,#4]
        0x0000c8be:    f89d102f    ../.    LDRB     r1,[sp,#0x2f]
        0x0000c8c2:    f0010101    ....    AND      r1,r1,#1
        0x0000c8c6:    f88d1020    .. .    STRB     r1,[sp,#0x20]
        0x0000c8ca:    f88d0021    ..!.    STRB     r0,[sp,#0x21]
        0x0000c8ce:    9009        ..      STR      r0,[sp,#0x24]
        0x0000c8d0:    900a        ..      STR      r0,[sp,#0x28]
        0x0000c8d2:    9810        ..      LDR      r0,[sp,#0x40]
        0x0000c8d4:    a901        ..      ADD      r1,sp,#4
        0x0000c8d6:    f001fb42    ..B.    BL       am_hal_iom_blocking_transfer ; 0xdf5e
        0x0000c8da:    b118        ..      CBZ      r0,0xc8e4 ; am_device_command_write + 104
        0x0000c8dc:    e7ff        ..      B        0xc8de ; am_device_command_write + 98
        0x0000c8de:    2001        .       MOVS     r0,#1
        0x0000c8e0:    9011        ..      STR      r0,[sp,#0x44]
        0x0000c8e2:    e002        ..      B        0xc8ea ; am_device_command_write + 110
        0x0000c8e4:    2000        .       MOVS     r0,#0
        0x0000c8e6:    9011        ..      STR      r0,[sp,#0x44]
        0x0000c8e8:    e7ff        ..      B        0xc8ea ; am_device_command_write + 110
        0x0000c8ea:    9811        ..      LDR      r0,[sp,#0x44]
        0x0000c8ec:    b012        ..      ADD      sp,sp,#0x48
        0x0000c8ee:    bd10        ..      POP      {r4,pc}
    am_devices_mb85rc256v_blocking_read
        0x0000c8f0:    b580        ..      PUSH     {r7,lr}
        0x0000c8f2:    b08c        ..      SUB      sp,sp,#0x30
        0x0000c8f4:    900a        ..      STR      r0,[sp,#0x28]
        0x0000c8f6:    9109        ..      STR      r1,[sp,#0x24]
        0x0000c8f8:    9208        ..      STR      r2,[sp,#0x20]
        0x0000c8fa:    9307        ..      STR      r3,[sp,#0x1c]
        0x0000c8fc:    980a        ..      LDR      r0,[sp,#0x28]
        0x0000c8fe:    9006        ..      STR      r0,[sp,#0x18]
        0x0000c900:    9806        ..      LDR      r0,[sp,#0x18]
        0x0000c902:    6840        @h      LDR      r0,[r0,#4]
        0x0000c904:    f8bd1020    .. .    LDRH     r1,[sp,#0x20]
        0x0000c908:    9b09        ..      LDR      r3,[sp,#0x24]
        0x0000c90a:    f8ddc01c    ....    LDR      r12,[sp,#0x1c]
        0x0000c90e:    466a        jF      MOV      r2,sp
        0x0000c910:    f8c2c010    ....    STR      r12,[r2,#0x10]
        0x0000c914:    60d3        .`      STR      r3,[r2,#0xc]
        0x0000c916:    2300        .#      MOVS     r3,#0
        0x0000c918:    6093        .`      STR      r3,[r2,#8]
        0x0000c91a:    6053        S`      STR      r3,[r2,#4]
        0x0000c91c:    6011        .`      STR      r1,[r2,#0]
        0x0000c91e:    2150        P!      MOVS     r1,#0x50
        0x0000c920:    2202        ."      MOVS     r2,#2
        0x0000c922:    f7ffff6f    ..o.    BL       am_device_command_read ; 0xc804
        0x0000c926:    b118        ..      CBZ      r0,0xc930 ; am_devices_mb85rc256v_blocking_read + 64
        0x0000c928:    e7ff        ..      B        0xc92a ; am_devices_mb85rc256v_blocking_read + 58
        0x0000c92a:    2001        .       MOVS     r0,#1
        0x0000c92c:    900b        ..      STR      r0,[sp,#0x2c]
        0x0000c92e:    e002        ..      B        0xc936 ; am_devices_mb85rc256v_blocking_read + 70
        0x0000c930:    2000        .       MOVS     r0,#0
        0x0000c932:    900b        ..      STR      r0,[sp,#0x2c]
        0x0000c934:    e7ff        ..      B        0xc936 ; am_devices_mb85rc256v_blocking_read + 70
        0x0000c936:    980b        ..      LDR      r0,[sp,#0x2c]
        0x0000c938:    b00c        ..      ADD      sp,sp,#0x30
        0x0000c93a:    bd80        ..      POP      {r7,pc}
    am_devices_mb85rc256v_blocking_write
        0x0000c93c:    b580        ..      PUSH     {r7,lr}
        0x0000c93e:    b08c        ..      SUB      sp,sp,#0x30
        0x0000c940:    900a        ..      STR      r0,[sp,#0x28]
        0x0000c942:    9109        ..      STR      r1,[sp,#0x24]
        0x0000c944:    9208        ..      STR      r2,[sp,#0x20]
        0x0000c946:    9307        ..      STR      r3,[sp,#0x1c]
        0x0000c948:    980a        ..      LDR      r0,[sp,#0x28]
        0x0000c94a:    9006        ..      STR      r0,[sp,#0x18]
        0x0000c94c:    9806        ..      LDR      r0,[sp,#0x18]
        0x0000c94e:    6840        @h      LDR      r0,[r0,#4]
        0x0000c950:    f8bd1020    .. .    LDRH     r1,[sp,#0x20]
        0x0000c954:    9b09        ..      LDR      r3,[sp,#0x24]
        0x0000c956:    f8ddc01c    ....    LDR      r12,[sp,#0x1c]
        0x0000c95a:    466a        jF      MOV      r2,sp
        0x0000c95c:    f8c2c010    ....    STR      r12,[r2,#0x10]
        0x0000c960:    60d3        .`      STR      r3,[r2,#0xc]
        0x0000c962:    2300        .#      MOVS     r3,#0
        0x0000c964:    6093        .`      STR      r3,[r2,#8]
        0x0000c966:    6053        S`      STR      r3,[r2,#4]
        0x0000c968:    6011        .`      STR      r1,[r2,#0]
        0x0000c96a:    2150        P!      MOVS     r1,#0x50
        0x0000c96c:    2202        ."      MOVS     r2,#2
        0x0000c96e:    f7ffff85    ....    BL       am_device_command_write ; 0xc87c
        0x0000c972:    b118        ..      CBZ      r0,0xc97c ; am_devices_mb85rc256v_blocking_write + 64
        0x0000c974:    e7ff        ..      B        0xc976 ; am_devices_mb85rc256v_blocking_write + 58
        0x0000c976:    2001        .       MOVS     r0,#1
        0x0000c978:    900b        ..      STR      r0,[sp,#0x2c]
        0x0000c97a:    e002        ..      B        0xc982 ; am_devices_mb85rc256v_blocking_write + 70
        0x0000c97c:    2000        .       MOVS     r0,#0
        0x0000c97e:    900b        ..      STR      r0,[sp,#0x2c]
        0x0000c980:    e7ff        ..      B        0xc982 ; am_devices_mb85rc256v_blocking_write + 70
        0x0000c982:    980b        ..      LDR      r0,[sp,#0x2c]
        0x0000c984:    b00c        ..      ADD      sp,sp,#0x30
        0x0000c986:    bd80        ..      POP      {r7,pc}
    am_devices_mb85rc256v_init
        0x0000c988:    b580        ..      PUSH     {r7,lr}
        0x0000c98a:    b08e        ..      SUB      sp,sp,#0x38
        0x0000c98c:    900c        ..      STR      r0,[sp,#0x30]
        0x0000c98e:    910b        ..      STR      r1,[sp,#0x2c]
        0x0000c990:    920a        ..      STR      r2,[sp,#0x28]
        0x0000c992:    9309        ..      STR      r3,[sp,#0x24]
        0x0000c994:    2000        .       MOVS     r0,#0
        0x0000c996:    9002        ..      STR      r0,[sp,#8]
        0x0000c998:    e7ff        ..      B        0xc99a ; am_devices_mb85rc256v_init + 18
        0x0000c99a:    9802        ..      LDR      r0,[sp,#8]
        0x0000c99c:    b998        ..      CBNZ     r0,0xc9c6 ; am_devices_mb85rc256v_init + 62
        0x0000c99e:    e7ff        ..      B        0xc9a0 ; am_devices_mb85rc256v_init + 24
        0x0000c9a0:    9802        ..      LDR      r0,[sp,#8]
        0x0000c9a2:    eb000140    ..@.    ADD      r1,r0,r0,LSL #1
        0x0000c9a6:    f24160fc    A..`    MOV      r0,#0x16fc
        0x0000c9aa:    f2c10001    ....    MOVT     r0,#0x1001
        0x0000c9ae:    eb000081    ....    ADD      r0,r0,r1,LSL #2
        0x0000c9b2:    7a00        .z      LDRB     r0,[r0,#8]
        0x0000c9b4:    07c0        ..      LSLS     r0,r0,#31
        0x0000c9b6:    b908        ..      CBNZ     r0,0xc9bc ; am_devices_mb85rc256v_init + 52
        0x0000c9b8:    e7ff        ..      B        0xc9ba ; am_devices_mb85rc256v_init + 50
        0x0000c9ba:    e004        ..      B        0xc9c6 ; am_devices_mb85rc256v_init + 62
        0x0000c9bc:    e7ff        ..      B        0xc9be ; am_devices_mb85rc256v_init + 54
        0x0000c9be:    9802        ..      LDR      r0,[sp,#8]
        0x0000c9c0:    3001        .0      ADDS     r0,#1
        0x0000c9c2:    9002        ..      STR      r0,[sp,#8]
        0x0000c9c4:    e7e9        ..      B        0xc99a ; am_devices_mb85rc256v_init + 18
        0x0000c9c6:    9802        ..      LDR      r0,[sp,#8]
        0x0000c9c8:    2801        .(      CMP      r0,#1
        0x0000c9ca:    d103        ..      BNE      0xc9d4 ; am_devices_mb85rc256v_init + 76
        0x0000c9cc:    e7ff        ..      B        0xc9ce ; am_devices_mb85rc256v_init + 70
        0x0000c9ce:    2001        .       MOVS     r0,#1
        0x0000c9d0:    900d        ..      STR      r0,[sp,#0x34]
        0x0000c9d2:    e06e        n.      B        0xcab2 ; am_devices_mb85rc256v_init + 298
        0x0000c9d4:    980c        ..      LDR      r0,[sp,#0x30]
        0x0000c9d6:    2806        .(      CMP      r0,#6
        0x0000c9d8:    d803        ..      BHI      0xc9e2 ; am_devices_mb85rc256v_init + 90
        0x0000c9da:    e7ff        ..      B        0xc9dc ; am_devices_mb85rc256v_init + 84
        0x0000c9dc:    980b        ..      LDR      r0,[sp,#0x2c]
        0x0000c9de:    b918        ..      CBNZ     r0,0xc9e8 ; am_devices_mb85rc256v_init + 96
        0x0000c9e0:    e7ff        ..      B        0xc9e2 ; am_devices_mb85rc256v_init + 90
        0x0000c9e2:    2001        .       MOVS     r0,#1
        0x0000c9e4:    900d        ..      STR      r0,[sp,#0x34]
        0x0000c9e6:    e064        d.      B        0xcab2 ; am_devices_mb85rc256v_init + 298
        0x0000c9e8:    2100        .!      MOVS     r1,#0
        0x0000c9ea:    4608        .F      MOV      r0,r1
        0x0000c9ec:    f002f9da    ....    BL       am_hal_mcuctrl_control ; 0xeda4
        0x0000c9f0:    f2410c5c    A.\.    MOV      r12,#0x105c
        0x0000c9f4:    f2c10c01    ....    MOVT     r12,#0x1001
        0x0000c9f8:    f8dc0000    ....    LDR      r0,[r12,#0]
        0x0000c9fc:    f8dc1004    ....    LDR      r1,[r12,#4]
        0x0000ca00:    f8dc2008    ...     LDR      r2,[r12,#8]
        0x0000ca04:    f8dc300c    ...0    LDR      r3,[r12,#0xc]
        0x0000ca08:    f8dcc010    ....    LDR      r12,[r12,#0x10]
        0x0000ca0c:    f8cdc01c    ....    STR      r12,[sp,#0x1c]
        0x0000ca10:    9306        ..      STR      r3,[sp,#0x18]
        0x0000ca12:    9205        ..      STR      r2,[sp,#0x14]
        0x0000ca14:    9104        ..      STR      r1,[sp,#0x10]
        0x0000ca16:    9003        ..      STR      r0,[sp,#0xc]
        0x0000ca18:    980b        ..      LDR      r0,[sp,#0x2c]
        0x0000ca1a:    6880        .h      LDR      r0,[r0,#8]
        0x0000ca1c:    9007        ..      STR      r0,[sp,#0x1c]
        0x0000ca1e:    980b        ..      LDR      r0,[sp,#0x2c]
        0x0000ca20:    6840        @h      LDR      r0,[r0,#4]
        0x0000ca22:    9006        ..      STR      r0,[sp,#0x18]
        0x0000ca24:    980b        ..      LDR      r0,[sp,#0x2c]
        0x0000ca26:    6800        .h      LDR      r0,[r0,#0]
        0x0000ca28:    9004        ..      STR      r0,[sp,#0x10]
        0x0000ca2a:    980c        ..      LDR      r0,[sp,#0x30]
        0x0000ca2c:    a908        ..      ADD      r1,sp,#0x20
        0x0000ca2e:    f001fe0a    ....    BL       am_hal_iom_initialize ; 0xe646
        0x0000ca32:    b990        ..      CBNZ     r0,0xca5a ; am_devices_mb85rc256v_init + 210
        0x0000ca34:    e7ff        ..      B        0xca36 ; am_devices_mb85rc256v_init + 174
        0x0000ca36:    9808        ..      LDR      r0,[sp,#0x20]
        0x0000ca38:    2200        ."      MOVS     r2,#0
        0x0000ca3a:    4611        .F      MOV      r1,r2
        0x0000ca3c:    f002f867    ..g.    BL       am_hal_iom_power_ctrl ; 0xeb0e
        0x0000ca40:    b958        X.      CBNZ     r0,0xca5a ; am_devices_mb85rc256v_init + 210
        0x0000ca42:    e7ff        ..      B        0xca44 ; am_devices_mb85rc256v_init + 188
        0x0000ca44:    9808        ..      LDR      r0,[sp,#0x20]
        0x0000ca46:    a903        ..      ADD      r1,sp,#0xc
        0x0000ca48:    f001fc1b    ....    BL       am_hal_iom_configure ; 0xe282
        0x0000ca4c:    b928        (.      CBNZ     r0,0xca5a ; am_devices_mb85rc256v_init + 210
        0x0000ca4e:    e7ff        ..      B        0xca50 ; am_devices_mb85rc256v_init + 200
        0x0000ca50:    9808        ..      LDR      r0,[sp,#0x20]
        0x0000ca52:    f001fda1    ....    BL       am_hal_iom_enable ; 0xe598
        0x0000ca56:    b118        ..      CBZ      r0,0xca60 ; am_devices_mb85rc256v_init + 216
        0x0000ca58:    e7ff        ..      B        0xca5a ; am_devices_mb85rc256v_init + 210
        0x0000ca5a:    2001        .       MOVS     r0,#1
        0x0000ca5c:    900d        ..      STR      r0,[sp,#0x34]
        0x0000ca5e:    e028        (.      B        0xcab2 ; am_devices_mb85rc256v_init + 298
        0x0000ca60:    980c        ..      LDR      r0,[sp,#0x30]
        0x0000ca62:    2101        .!      MOVS     r1,#1
        0x0000ca64:    9101        ..      STR      r1,[sp,#4]
        0x0000ca66:    f7fffd1d    ....    BL       am_bsp_iom_pins_enable ; 0xc4a4
        0x0000ca6a:    9901        ..      LDR      r1,[sp,#4]
        0x0000ca6c:    9802        ..      LDR      r0,[sp,#8]
        0x0000ca6e:    eb000240    ..@.    ADD      r2,r0,r0,LSL #1
        0x0000ca72:    f24160fc    A..`    MOV      r0,#0x16fc
        0x0000ca76:    f2c10001    ....    MOVT     r0,#0x1001
        0x0000ca7a:    eb000282    ....    ADD      r2,r0,r2,LSL #2
        0x0000ca7e:    7211        .r      STRB     r1,[r2,#8]
        0x0000ca80:    990c        ..      LDR      r1,[sp,#0x30]
        0x0000ca82:    9a02        ..      LDR      r2,[sp,#8]
        0x0000ca84:    eb020242    ..B.    ADD      r2,r2,r2,LSL #1
        0x0000ca88:    f8401022    @.".    STR      r1,[r0,r2,LSL #2]
        0x0000ca8c:    9908        ..      LDR      r1,[sp,#0x20]
        0x0000ca8e:    9a02        ..      LDR      r2,[sp,#8]
        0x0000ca90:    eb020242    ..B.    ADD      r2,r2,r2,LSL #1
        0x0000ca94:    eb000282    ....    ADD      r2,r0,r2,LSL #2
        0x0000ca98:    6051        Q`      STR      r1,[r2,#4]
        0x0000ca9a:    9a09        ..      LDR      r2,[sp,#0x24]
        0x0000ca9c:    6011        .`      STR      r1,[r2,#0]
        0x0000ca9e:    9902        ..      LDR      r1,[sp,#8]
        0x0000caa0:    eb010141    ..A.    ADD      r1,r1,r1,LSL #1
        0x0000caa4:    eb000081    ....    ADD      r0,r0,r1,LSL #2
        0x0000caa8:    990a        ..      LDR      r1,[sp,#0x28]
        0x0000caaa:    6008        .`      STR      r0,[r1,#0]
        0x0000caac:    2000        .       MOVS     r0,#0
        0x0000caae:    900d        ..      STR      r0,[sp,#0x34]
        0x0000cab0:    e7ff        ..      B        0xcab2 ; am_devices_mb85rc256v_init + 298
        0x0000cab2:    980d        ..      LDR      r0,[sp,#0x34]
        0x0000cab4:    b00e        ..      ADD      sp,sp,#0x38
        0x0000cab6:    bd80        ..      POP      {r7,pc}
    am_devices_mb85rc256v_nonblocking_read
        0x0000cab8:    b580        ..      PUSH     {r7,lr}
        0x0000caba:    b090        ..      SUB      sp,sp,#0x40
        0x0000cabc:    f8ddc04c    ..L.    LDR      r12,[sp,#0x4c]
        0x0000cac0:    f8ddc048    ..H.    LDR      r12,[sp,#0x48]
        0x0000cac4:    900e        ..      STR      r0,[sp,#0x38]
        0x0000cac6:    910d        ..      STR      r1,[sp,#0x34]
        0x0000cac8:    920c        ..      STR      r2,[sp,#0x30]
        0x0000caca:    930b        ..      STR      r3,[sp,#0x2c]
        0x0000cacc:    980e        ..      LDR      r0,[sp,#0x38]
        0x0000cace:    9000        ..      STR      r0,[sp,#0]
        0x0000cad0:    2001        .       MOVS     r0,#1
        0x0000cad2:    f88d0022    ..".    STRB     r0,[sp,#0x22]
        0x0000cad6:    f88d0014    ....    STRB     r0,[sp,#0x14]
        0x0000cada:    2002        .       MOVS     r0,#2
        0x0000cadc:    9002        ..      STR      r0,[sp,#8]
        0x0000cade:    f8bd0030    ..0.    LDRH     r0,[sp,#0x30]
        0x0000cae2:    9003        ..      STR      r0,[sp,#0xc]
        0x0000cae4:    980b        ..      LDR      r0,[sp,#0x2c]
        0x0000cae6:    9004        ..      STR      r0,[sp,#0x10]
        0x0000cae8:    980d        ..      LDR      r0,[sp,#0x34]
        0x0000caea:    9007        ..      STR      r0,[sp,#0x1c]
        0x0000caec:    2050        P       MOVS     r0,#0x50
        0x0000caee:    9001        ..      STR      r0,[sp,#4]
        0x0000caf0:    2000        .       MOVS     r0,#0
        0x0000caf2:    f88d0021    ..!.    STRB     r0,[sp,#0x21]
        0x0000caf6:    9009        ..      STR      r0,[sp,#0x24]
        0x0000caf8:    900a        ..      STR      r0,[sp,#0x28]
        0x0000cafa:    f88d0020    .. .    STRB     r0,[sp,#0x20]
        0x0000cafe:    9800        ..      LDR      r0,[sp,#0]
        0x0000cb00:    6840        @h      LDR      r0,[r0,#4]
        0x0000cb02:    9a12        ..      LDR      r2,[sp,#0x48]
        0x0000cb04:    9b13        ..      LDR      r3,[sp,#0x4c]
        0x0000cb06:    a901        ..      ADD      r1,sp,#4
        0x0000cb08:    f001ff42    ..B.    BL       am_hal_iom_nonblocking_transfer ; 0xe990
        0x0000cb0c:    b118        ..      CBZ      r0,0xcb16 ; am_devices_mb85rc256v_nonblocking_read + 94
        0x0000cb0e:    e7ff        ..      B        0xcb10 ; am_devices_mb85rc256v_nonblocking_read + 88
        0x0000cb10:    2001        .       MOVS     r0,#1
        0x0000cb12:    900f        ..      STR      r0,[sp,#0x3c]
        0x0000cb14:    e002        ..      B        0xcb1c ; am_devices_mb85rc256v_nonblocking_read + 100
        0x0000cb16:    2000        .       MOVS     r0,#0
        0x0000cb18:    900f        ..      STR      r0,[sp,#0x3c]
        0x0000cb1a:    e7ff        ..      B        0xcb1c ; am_devices_mb85rc256v_nonblocking_read + 100
        0x0000cb1c:    980f        ..      LDR      r0,[sp,#0x3c]
        0x0000cb1e:    b010        ..      ADD      sp,sp,#0x40
        0x0000cb20:    bd80        ..      POP      {r7,pc}
        0x0000cb22:    0000        ..      MOVS     r0,r0
    am_devices_mb85rc256v_nonblocking_write
        0x0000cb24:    b580        ..      PUSH     {r7,lr}
        0x0000cb26:    b090        ..      SUB      sp,sp,#0x40
        0x0000cb28:    f8ddc04c    ..L.    LDR      r12,[sp,#0x4c]
        0x0000cb2c:    f8ddc048    ..H.    LDR      r12,[sp,#0x48]
        0x0000cb30:    900e        ..      STR      r0,[sp,#0x38]
        0x0000cb32:    910d        ..      STR      r1,[sp,#0x34]
        0x0000cb34:    920c        ..      STR      r2,[sp,#0x30]
        0x0000cb36:    930b        ..      STR      r3,[sp,#0x2c]
        0x0000cb38:    980e        ..      LDR      r0,[sp,#0x38]
        0x0000cb3a:    9000        ..      STR      r0,[sp,#0]
        0x0000cb3c:    2000        .       MOVS     r0,#0
        0x0000cb3e:    f88d0021    ..!.    STRB     r0,[sp,#0x21]
        0x0000cb42:    9009        ..      STR      r0,[sp,#0x24]
        0x0000cb44:    900a        ..      STR      r0,[sp,#0x28]
        0x0000cb46:    2101        .!      MOVS     r1,#1
        0x0000cb48:    f88d1022    ..".    STRB     r1,[sp,#0x22]
        0x0000cb4c:    2150        P!      MOVS     r1,#0x50
        0x0000cb4e:    9101        ..      STR      r1,[sp,#4]
        0x0000cb50:    f88d0020    .. .    STRB     r0,[sp,#0x20]
        0x0000cb54:    f88d0014    ....    STRB     r0,[sp,#0x14]
        0x0000cb58:    2002        .       MOVS     r0,#2
        0x0000cb5a:    9002        ..      STR      r0,[sp,#8]
        0x0000cb5c:    f8bd0030    ..0.    LDRH     r0,[sp,#0x30]
        0x0000cb60:    9003        ..      STR      r0,[sp,#0xc]
        0x0000cb62:    980b        ..      LDR      r0,[sp,#0x2c]
        0x0000cb64:    9004        ..      STR      r0,[sp,#0x10]
        0x0000cb66:    980d        ..      LDR      r0,[sp,#0x34]
        0x0000cb68:    9006        ..      STR      r0,[sp,#0x18]
        0x0000cb6a:    9800        ..      LDR      r0,[sp,#0]
        0x0000cb6c:    6840        @h      LDR      r0,[r0,#4]
        0x0000cb6e:    9a12        ..      LDR      r2,[sp,#0x48]
        0x0000cb70:    9b13        ..      LDR      r3,[sp,#0x4c]
        0x0000cb72:    a901        ..      ADD      r1,sp,#4
        0x0000cb74:    f001ff0c    ....    BL       am_hal_iom_nonblocking_transfer ; 0xe990
        0x0000cb78:    b118        ..      CBZ      r0,0xcb82 ; am_devices_mb85rc256v_nonblocking_write + 94
        0x0000cb7a:    e7ff        ..      B        0xcb7c ; am_devices_mb85rc256v_nonblocking_write + 88
        0x0000cb7c:    2001        .       MOVS     r0,#1
        0x0000cb7e:    900f        ..      STR      r0,[sp,#0x3c]
        0x0000cb80:    e002        ..      B        0xcb88 ; am_devices_mb85rc256v_nonblocking_write + 100
        0x0000cb82:    2000        .       MOVS     r0,#0
        0x0000cb84:    900f        ..      STR      r0,[sp,#0x3c]
        0x0000cb86:    e7ff        ..      B        0xcb88 ; am_devices_mb85rc256v_nonblocking_write + 100
        0x0000cb88:    980f        ..      LDR      r0,[sp,#0x3c]
        0x0000cb8a:    b010        ..      ADD      sp,sp,#0x40
        0x0000cb8c:    bd80        ..      POP      {r7,pc}
        0x0000cb8e:    0000        ..      MOVS     r0,r0
    am_devices_mb85rc256v_read_id
        0x0000cb90:    b580        ..      PUSH     {r7,lr}
        0x0000cb92:    b08a        ..      SUB      sp,sp,#0x28
        0x0000cb94:    9008        ..      STR      r0,[sp,#0x20]
        0x0000cb96:    9107        ..      STR      r1,[sp,#0x1c]
        0x0000cb98:    9808        ..      LDR      r0,[sp,#0x20]
        0x0000cb9a:    9006        ..      STR      r0,[sp,#0x18]
        0x0000cb9c:    9806        ..      LDR      r0,[sp,#0x18]
        0x0000cb9e:    6840        @h      LDR      r0,[r0,#4]
        0x0000cba0:    9907        ..      LDR      r1,[sp,#0x1c]
        0x0000cba2:    466a        jF      MOV      r2,sp
        0x0000cba4:    2303        .#      MOVS     r3,#3
        0x0000cba6:    6113        .a      STR      r3,[r2,#0x10]
        0x0000cba8:    60d1        .`      STR      r1,[r2,#0xc]
        0x0000cbaa:    2100        .!      MOVS     r1,#0
        0x0000cbac:    6091        .`      STR      r1,[r2,#8]
        0x0000cbae:    6051        Q`      STR      r1,[r2,#4]
        0x0000cbb0:    21a0        .!      MOVS     r1,#0xa0
        0x0000cbb2:    6011        .`      STR      r1,[r2,#0]
        0x0000cbb4:    217c        |!      MOVS     r1,#0x7c
        0x0000cbb6:    2201        ."      MOVS     r2,#1
        0x0000cbb8:    f7fffe24    ..$.    BL       am_device_command_read ; 0xc804
        0x0000cbbc:    b118        ..      CBZ      r0,0xcbc6 ; am_devices_mb85rc256v_read_id + 54
        0x0000cbbe:    e7ff        ..      B        0xcbc0 ; am_devices_mb85rc256v_read_id + 48
        0x0000cbc0:    2001        .       MOVS     r0,#1
        0x0000cbc2:    9009        ..      STR      r0,[sp,#0x24]
        0x0000cbc4:    e002        ..      B        0xcbcc ; am_devices_mb85rc256v_read_id + 60
        0x0000cbc6:    2000        .       MOVS     r0,#0
        0x0000cbc8:    9009        ..      STR      r0,[sp,#0x24]
        0x0000cbca:    e7ff        ..      B        0xcbcc ; am_devices_mb85rc256v_read_id + 60
        0x0000cbcc:    9809        ..      LDR      r0,[sp,#0x24]
        0x0000cbce:    b00a        ..      ADD      sp,sp,#0x28
        0x0000cbd0:    bd80        ..      POP      {r7,pc}
        0x0000cbd2:    0000        ..      MOVS     r0,r0
    am_devices_mb85rc256v_term
        0x0000cbd4:    b580        ..      PUSH     {r7,lr}
        0x0000cbd6:    b084        ..      SUB      sp,sp,#0x10
        0x0000cbd8:    9002        ..      STR      r0,[sp,#8]
        0x0000cbda:    9802        ..      LDR      r0,[sp,#8]
        0x0000cbdc:    9001        ..      STR      r0,[sp,#4]
        0x0000cbde:    9801        ..      LDR      r0,[sp,#4]
        0x0000cbe0:    6800        .h      LDR      r0,[r0,#0]
        0x0000cbe2:    2807        .(      CMP      r0,#7
        0x0000cbe4:    d303        ..      BCC      0xcbee ; am_devices_mb85rc256v_term + 26
        0x0000cbe6:    e7ff        ..      B        0xcbe8 ; am_devices_mb85rc256v_term + 20
        0x0000cbe8:    2001        .       MOVS     r0,#1
        0x0000cbea:    9003        ..      STR      r0,[sp,#0xc]
        0x0000cbec:    e019        ..      B        0xcc22 ; am_devices_mb85rc256v_term + 78
        0x0000cbee:    9801        ..      LDR      r0,[sp,#4]
        0x0000cbf0:    6840        @h      LDR      r0,[r0,#4]
        0x0000cbf2:    f001fc98    ....    BL       am_hal_iom_disable ; 0xe526
        0x0000cbf6:    9801        ..      LDR      r0,[sp,#4]
        0x0000cbf8:    6840        @h      LDR      r0,[r0,#4]
        0x0000cbfa:    2102        .!      MOVS     r1,#2
        0x0000cbfc:    2200        ."      MOVS     r2,#0
        0x0000cbfe:    9200        ..      STR      r2,[sp,#0]
        0x0000cc00:    f001ff85    ....    BL       am_hal_iom_power_ctrl ; 0xeb0e
        0x0000cc04:    9801        ..      LDR      r0,[sp,#4]
        0x0000cc06:    6840        @h      LDR      r0,[r0,#4]
        0x0000cc08:    f002f879    ..y.    BL       am_hal_iom_uninitialize ; 0xecfe
        0x0000cc0c:    9800        ..      LDR      r0,[sp,#0]
        0x0000cc0e:    9901        ..      LDR      r1,[sp,#4]
        0x0000cc10:    7208        .r      STRB     r0,[r1,#8]
        0x0000cc12:    9801        ..      LDR      r0,[sp,#4]
        0x0000cc14:    6800        .h      LDR      r0,[r0,#0]
        0x0000cc16:    2101        .!      MOVS     r1,#1
        0x0000cc18:    f7fffb68    ..h.    BL       am_bsp_iom_pins_disable ; 0xc2ec
        0x0000cc1c:    9800        ..      LDR      r0,[sp,#0]
        0x0000cc1e:    9003        ..      STR      r0,[sp,#0xc]
        0x0000cc20:    e7ff        ..      B        0xcc22 ; am_devices_mb85rc256v_term + 78
        0x0000cc22:    9803        ..      LDR      r0,[sp,#0xc]
        0x0000cc24:    b004        ..      ADD      sp,sp,#0x10
        0x0000cc26:    bd80        ..      POP      {r7,pc}
    am_hal_burst_ldo_charge
        0x0000cc28:    b510        ..      PUSH     {r4,lr}
        0x0000cc2a:    f6430038    C.8.    MOV      r0,#0x3838
        0x0000cc2e:    f2c50002    ....    MOVT     r0,#0x5002
        0x0000cc32:    6800        .h      LDR      r0,[r0,#0]
        0x0000cc34:    0700        ..      LSLS     r0,r0,#28
        0x0000cc36:    bf48        H.      IT       MI
        0x0000cc38:    bd10        ..      POPMI    {r4,pc}
        0x0000cc3a:    2460        `$      MOVS     r4,#0x60
        0x0000cc3c:    f2c40402    ....    MOVT     r4,#0x4002
        0x0000cc40:    6820         h      LDR      r0,[r4,#0]
        0x0000cc42:    f0200080     ...    BIC      r0,r0,#0x80
        0x0000cc46:    6020         `      STR      r0,[r4,#0]
        0x0000cc48:    6820         h      LDR      r0,[r4,#0]
        0x0000cc4a:    f0200020     . .    BIC      r0,r0,#0x20
        0x0000cc4e:    6020         `      STR      r0,[r4,#0]
        0x0000cc50:    6820         h      LDR      r0,[r4,#0]
        0x0000cc52:    f0400040    @.@.    ORR      r0,r0,#0x40
        0x0000cc56:    6020         `      STR      r0,[r4,#0]
        0x0000cc58:    6820         h      LDR      r0,[r4,#0]
        0x0000cc5a:    f4407080    @..p    ORR      r0,r0,#0x100
        0x0000cc5e:    6020         `      STR      r0,[r4,#0]
        0x0000cc60:    f2471000    G...    MOVW     r0,#0x7100
        0x0000cc64:    f2c00002    ....    MOVT     r0,#2
        0x0000cc68:    f000fec7    ....    BL       am_hal_flash_delay ; 0xd9fa
        0x0000cc6c:    6860        `h      LDR      r0,[r4,#4]
        0x0000cc6e:    f0400008    @...    ORR      r0,r0,#8
        0x0000cc72:    6060        ``      STR      r0,[r4,#4]
        0x0000cc74:    6860        `h      LDR      r0,[r4,#4]
        0x0000cc76:    f0400001    @...    ORR      r0,r0,#1
        0x0000cc7a:    6060        ``      STR      r0,[r4,#4]
        0x0000cc7c:    6860        `h      LDR      r0,[r4,#4]
        0x0000cc7e:    f0400004    @...    ORR      r0,r0,#4
        0x0000cc82:    6060        ``      STR      r0,[r4,#4]
        0x0000cc84:    6860        `h      LDR      r0,[r4,#4]
        0x0000cc86:    f0200002     ...    BIC      r0,r0,#2
        0x0000cc8a:    6060        ``      STR      r0,[r4,#4]
        0x0000cc8c:    6860        `h      LDR      r0,[r4,#4]
        0x0000cc8e:    f0400010    @...    ORR      r0,r0,#0x10
        0x0000cc92:    6060        ``      STR      r0,[r4,#4]
        0x0000cc94:    2020                MOVS     r0,#0x20
        0x0000cc96:    f000feb0    ....    BL       am_hal_flash_delay ; 0xd9fa
        0x0000cc9a:    6860        `h      LDR      r0,[r4,#4]
        0x0000cc9c:    f0400002    @...    ORR      r0,r0,#2
        0x0000cca0:    6060        ``      STR      r0,[r4,#4]
        0x0000cca2:    f44f40fa    O..@    MOV      r0,#0x7d00
        0x0000cca6:    f000fea8    ....    BL       am_hal_flash_delay ; 0xd9fa
        0x0000ccaa:    6860        `h      LDR      r0,[r4,#4]
        0x0000ccac:    f0200001     ...    BIC      r0,r0,#1
        0x0000ccb0:    6060        ``      STR      r0,[r4,#4]
        0x0000ccb2:    6860        `h      LDR      r0,[r4,#4]
        0x0000ccb4:    f0200004     ...    BIC      r0,r0,#4
        0x0000ccb8:    6060        ``      STR      r0,[r4,#4]
        0x0000ccba:    6860        `h      LDR      r0,[r4,#4]
        0x0000ccbc:    f0200002     ...    BIC      r0,r0,#2
        0x0000ccc0:    6060        ``      STR      r0,[r4,#4]
        0x0000ccc2:    6820         h      LDR      r0,[r4,#0]
        0x0000ccc4:    f0200040     .@.    BIC      r0,r0,#0x40
        0x0000ccc8:    6020         `      STR      r0,[r4,#0]
        0x0000ccca:    6820         h      LDR      r0,[r4,#0]
        0x0000cccc:    f4207080     ..p    BIC      r0,r0,#0x100
        0x0000ccd0:    6020         `      STR      r0,[r4,#0]
        0x0000ccd2:    bd10        ..      POP      {r4,pc}
    am_hal_burst_ldo_patch_check
        0x0000ccd4:    f6430038    C.8.    MOV      r0,#0x3838
        0x0000ccd8:    f2c50002    ....    MOVT     r0,#0x5002
        0x0000ccdc:    6800        .h      LDR      r0,[r0,#0]
        0x0000ccde:    2101        .!      MOVS     r1,#1
        0x0000cce0:    f0000008    ....    AND      r0,r0,#8
        0x0000cce4:    ea8100d0    ....    EOR      r0,r1,r0,LSR #3
        0x0000cce8:    4770        pG      BX       lr
    am_hal_burst_mode_disable
        0x0000ccea:    b570        p.      PUSH     {r4-r6,lr}
        0x0000ccec:    b082        ..      SUB      sp,sp,#8
        0x0000ccee:    f644416c    D.lA    MOV      r1,#0x4c6c
        0x0000ccf2:    f2c10101    ....    MOVT     r1,#0x1001
        0x0000ccf6:    7809        .x      LDRB     r1,[r1,#0]
        0x0000ccf8:    4604        .F      MOV      r4,r0
        0x0000ccfa:    b309        ..      CBZ      r1,0xcd40 ; am_hal_burst_mode_disable + 86
        0x0000ccfc:    f2440534    D.4.    MOV      r5,#0x4034
        0x0000cd00:    f2c40500    ....    MOVT     r5,#0x4000
        0x0000cd04:    f001f832    ..2.    BL       am_hal_interrupt_master_disable ; 0xdd6c
        0x0000cd08:    9001        ..      STR      r0,[sp,#4]
        0x0000cd0a:    4628        (F      MOV      r0,r5
        0x0000cd0c:    2100        .!      MOVS     r1,#0
        0x0000cd0e:    f000fec5    ....    BL       am_hal_flash_store_ui32 ; 0xda9c
        0x0000cd12:    9801        ..      LDR      r0,[sp,#4]
        0x0000cd14:    f001f832    ..2.    BL       am_hal_interrupt_master_set ; 0xdd7c
        0x0000cd18:    f2410028    A.(.    MOV      r0,#0x1028
        0x0000cd1c:    f2c40002    ....    MOVT     r0,#0x4002
        0x0000cd20:    6801        .h      LDR      r1,[r0,#0]
        0x0000cd22:    2601        .&      MOVS     r6,#1
        0x0000cd24:    f0214100    !..A    BIC      r1,r1,#0x80000000
        0x0000cd28:    6001        .`      STR      r1,[r0,#0]
        0x0000cd2a:    f2427010    B..p    MOV      r0,#0x2710
        0x0000cd2e:    4629        )F      MOV      r1,r5
        0x0000cd30:    2204        ."      MOVS     r2,#4
        0x0000cd32:    2300        .#      MOVS     r3,#0
        0x0000cd34:    9600        ..      STR      r6,[sp,#0]
        0x0000cd36:    f000fe75    ..u.    BL       am_hal_flash_delay_status_check ; 0xda24
        0x0000cd3a:    b138        8.      CBZ      r0,0xcd4c ; am_hal_burst_mode_disable + 98
        0x0000cd3c:    7026        &p      STRB     r6,[r4,#0]
        0x0000cd3e:    e00a        ..      B        0xcd56 ; am_hal_burst_mode_disable + 108
        0x0000cd40:    4620         F      MOV      r0,r4
        0x0000cd42:    b002        ..      ADD      sp,sp,#8
        0x0000cd44:    e8bd4070    ..p@    POP      {r4-r6,lr}
        0x0000cd48:    f000b807    ....    B.W      am_hal_burst_mode_disable_w_manual_sequence ; 0xcd5a
        0x0000cd4c:    6828        (h      LDR      r0,[r5,#0]
        0x0000cd4e:    ea260090    &...    BIC      r0,r6,r0,LSR #2
        0x0000cd52:    7020         p      STRB     r0,[r4,#0]
        0x0000cd54:    2000        .       MOVS     r0,#0
        0x0000cd56:    b002        ..      ADD      sp,sp,#8
        0x0000cd58:    bd70        p.      POP      {r4-r6,pc}
    am_hal_burst_mode_disable_w_manual_sequence
        0x0000cd5a:    b510        ..      PUSH     {r4,lr}
        0x0000cd5c:    b150        P.      CBZ      r0,0xcd74 ; am_hal_burst_mode_disable_w_manual_sequence + 26
        0x0000cd5e:    f644446c    D.lD    MOV      r4,#0x4c6c
        0x0000cd62:    f2c10401    ....    MOVT     r4,#0x1001
        0x0000cd66:    2101        .!      MOVS     r1,#1
        0x0000cd68:    7021        !p      STRB     r1,[r4,#0]
        0x0000cd6a:    f7ffffbe    ....    BL       am_hal_burst_mode_disable ; 0xccea
        0x0000cd6e:    2100        .!      MOVS     r1,#0
        0x0000cd70:    7021        !p      STRB     r1,[r4,#0]
        0x0000cd72:    e000        ..      B        0xcd76 ; am_hal_burst_mode_disable_w_manual_sequence + 28
        0x0000cd74:    2002        .       MOVS     r0,#2
        0x0000cd76:    f6430138    C.8.    MOV      r1,#0x3838
        0x0000cd7a:    f2c50102    ....    MOVT     r1,#0x5002
        0x0000cd7e:    6809        .h      LDR      r1,[r1,#0]
        0x0000cd80:    0709        ..      LSLS     r1,r1,#28
        0x0000cd82:    bf48        H.      IT       MI
        0x0000cd84:    bd10        ..      POPMI    {r4,pc}
        0x0000cd86:    2164        d!      MOVS     r1,#0x64
        0x0000cd88:    f2c40102    ....    MOVT     r1,#0x4002
        0x0000cd8c:    680a        .h      LDR      r2,[r1,#0]
        0x0000cd8e:    f0220204    "...    BIC      r2,r2,#4
        0x0000cd92:    600a        .`      STR      r2,[r1,#0]
        0x0000cd94:    680a        .h      LDR      r2,[r1,#0]
        0x0000cd96:    f0220202    "...    BIC      r2,r2,#2
        0x0000cd9a:    600a        .`      STR      r2,[r1,#0]
        0x0000cd9c:    f8d12fc0    .../    LDR      r2,[r1,#0xfc0]
        0x0000cda0:    f0220280    "...    BIC      r2,r2,#0x80
        0x0000cda4:    f8c12fc0    .../    STR      r2,[r1,#0xfc0]
        0x0000cda8:    bd10        ..      POP      {r4,pc}
    am_hal_burst_mode_enable
        0x0000cdaa:    b570        p.      PUSH     {r4-r6,lr}
        0x0000cdac:    b082        ..      SUB      sp,sp,#8
        0x0000cdae:    f644416d    D.mA    MOV      r1,#0x4c6d
        0x0000cdb2:    f2c10101    ....    MOVT     r1,#0x1001
        0x0000cdb6:    7809        .x      LDRB     r1,[r1,#0]
        0x0000cdb8:    4604        .F      MOV      r4,r0
        0x0000cdba:    b1c9        ..      CBZ      r1,0xcdf0 ; am_hal_burst_mode_enable + 70
        0x0000cdbc:    f64430e4    D..0    MOV      r0,#0x4be4
        0x0000cdc0:    f2c10001    ....    MOVT     r0,#0x1001
        0x0000cdc4:    7800        .x      LDRB     r0,[r0,#0]
        0x0000cdc6:    b1c8        ..      CBZ      r0,0xcdfc ; am_hal_burst_mode_enable + 82
        0x0000cdc8:    f2440534    D.4.    MOV      r5,#0x4034
        0x0000cdcc:    f2c40500    ....    MOVT     r5,#0x4000
        0x0000cdd0:    6828        (h      LDR      r0,[r5,#0]
        0x0000cdd2:    2601        .&      MOVS     r6,#1
        0x0000cdd4:    f0400001    @...    ORR      r0,r0,#1
        0x0000cdd8:    6028        (`      STR      r0,[r5,#0]
        0x0000cdda:    f2427010    B..p    MOV      r0,#0x2710
        0x0000cdde:    4629        )F      MOV      r1,r5
        0x0000cde0:    2204        ."      MOVS     r2,#4
        0x0000cde2:    2304        .#      MOVS     r3,#4
        0x0000cde4:    9600        ..      STR      r6,[sp,#0]
        0x0000cde6:    f000fe1d    ....    BL       am_hal_flash_delay_status_check ; 0xda24
        0x0000cdea:    b158        X.      CBZ      r0,0xce04 ; am_hal_burst_mode_enable + 90
        0x0000cdec:    7026        &p      STRB     r6,[r4,#0]
        0x0000cdee:    e015        ..      B        0xce1c ; am_hal_burst_mode_enable + 114
        0x0000cdf0:    4620         F      MOV      r0,r4
        0x0000cdf2:    b002        ..      ADD      sp,sp,#8
        0x0000cdf4:    e8bd4070    ..p@    POP      {r4-r6,lr}
        0x0000cdf8:    f000b812    ....    B.W      am_hal_burst_mode_enable_w_manual_sequence ; 0xce20
        0x0000cdfc:    2001        .       MOVS     r0,#1
        0x0000cdfe:    7020         p      STRB     r0,[r4,#0]
        0x0000ce00:    2007        .       MOVS     r0,#7
        0x0000ce02:    e00b        ..      B        0xce1c ; am_hal_burst_mode_enable + 114
        0x0000ce04:    6828        (h      LDR      r0,[r5,#0]
        0x0000ce06:    0780        ..      LSLS     r0,r0,#30
        0x0000ce08:    d402        ..      BMI      0xce10 ; am_hal_burst_mode_enable + 102
        0x0000ce0a:    2001        .       MOVS     r0,#1
        0x0000ce0c:    7020         p      STRB     r0,[r4,#0]
        0x0000ce0e:    e005        ..      B        0xce1c ; am_hal_burst_mode_enable + 114
        0x0000ce10:    6828        (h      LDR      r0,[r5,#0]
        0x0000ce12:    2101        .!      MOVS     r1,#1
        0x0000ce14:    ea210090    !...    BIC      r0,r1,r0,LSR #2
        0x0000ce18:    7020         p      STRB     r0,[r4,#0]
        0x0000ce1a:    2000        .       MOVS     r0,#0
        0x0000ce1c:    b002        ..      ADD      sp,sp,#8
        0x0000ce1e:    bd70        p.      POP      {r4-r6,pc}
    am_hal_burst_mode_enable_w_manual_sequence
        0x0000ce20:    b570        p.      PUSH     {r4-r6,lr}
        0x0000ce22:    b082        ..      SUB      sp,sp,#8
        0x0000ce24:    f64431e4    D..1    MOV      r1,#0x4be4
        0x0000ce28:    f2c10101    ....    MOVT     r1,#0x1001
        0x0000ce2c:    7809        .x      LDRB     r1,[r1,#0]
        0x0000ce2e:    4604        .F      MOV      r4,r0
        0x0000ce30:    2900        .)      CMP      r1,#0
        0x0000ce32:    d04d        M.      BEQ      0xced0 ; am_hal_burst_mode_enable_w_manual_sequence + 176
        0x0000ce34:    f6430038    C.8.    MOV      r0,#0x3838
        0x0000ce38:    f2c50002    ....    MOVT     r0,#0x5002
        0x0000ce3c:    6800        .h      LDR      r0,[r0,#0]
        0x0000ce3e:    0700        ..      LSLS     r0,r0,#28
        0x0000ce40:    d44a        J.      BMI      0xced8 ; am_hal_burst_mode_enable_w_manual_sequence + 184
        0x0000ce42:    2560        `%      MOVS     r5,#0x60
        0x0000ce44:    f2c40502    ....    MOVT     r5,#0x4002
        0x0000ce48:    f000ff90    ....    BL       am_hal_interrupt_master_disable ; 0xdd6c
        0x0000ce4c:    9001        ..      STR      r0,[sp,#4]
        0x0000ce4e:    f002fb3d    ..=.    BL       am_hal_pwrctrl_wa_vddf_restore ; 0xf4cc
        0x0000ce52:    6828        (h      LDR      r0,[r5,#0]
        0x0000ce54:    f2410604    A...    MOV      r6,#0x1004
        0x0000ce58:    f0400080    @...    ORR      r0,r0,#0x80
        0x0000ce5c:    6028        (`      STR      r0,[r5,#0]
        0x0000ce5e:    6828        (h      LDR      r0,[r5,#0]
        0x0000ce60:    f2c40602    ....    MOVT     r6,#0x4002
        0x0000ce64:    f0400040    @.@.    ORR      r0,r0,#0x40
        0x0000ce68:    6028        (`      STR      r0,[r5,#0]
        0x0000ce6a:    6830        0h      LDR      r0,[r6,#0]
        0x0000ce6c:    6829        )h      LDR      r1,[r5,#0]
        0x0000ce6e:    f3c0005a    ..Z.    UBFX     r0,r0,#1,#27
        0x0000ce72:    f3601145    `.E.    BFI      r1,r0,#5,#1
        0x0000ce76:    6029        )`      STR      r1,[r5,#0]
        0x0000ce78:    6828        (h      LDR      r0,[r5,#0]
        0x0000ce7a:    f4407080    @..p    ORR      r0,r0,#0x100
        0x0000ce7e:    6028        (`      STR      r0,[r5,#0]
        0x0000ce80:    20a0        .       MOVS     r0,#0xa0
        0x0000ce82:    f000fdba    ....    BL       am_hal_flash_delay ; 0xd9fa
        0x0000ce86:    6828        (h      LDR      r0,[r5,#0]
        0x0000ce88:    f0400020    @. .    ORR      r0,r0,#0x20
        0x0000ce8c:    6028        (`      STR      r0,[r5,#0]
        0x0000ce8e:    6a30        0j      LDR      r0,[r6,#0x20]
        0x0000ce90:    f0400080    @...    ORR      r0,r0,#0x80
        0x0000ce94:    6230        0b      STR      r0,[r6,#0x20]
        0x0000ce96:    f8d50fa0    ....    LDR      r0,[r5,#0xfa0]
        0x0000ce9a:    f0400001    @...    ORR      r0,r0,#1
        0x0000ce9e:    f8c50fa0    ....    STR      r0,[r5,#0xfa0]
        0x0000cea2:    6869        ih      LDR      r1,[r5,#4]
        0x0000cea4:    6868        hh      LDR      r0,[r5,#4]
        0x0000cea6:    06c9        ..      LSLS     r1,r1,#27
        0x0000cea8:    d422        ".      BMI      0xcef0 ; am_hal_burst_mode_enable_w_manual_sequence + 208
        0x0000ceaa:    f0400008    @...    ORR      r0,r0,#8
        0x0000ceae:    6068        h`      STR      r0,[r5,#4]
        0x0000ceb0:    6868        hh      LDR      r0,[r5,#4]
        0x0000ceb2:    f0400001    @...    ORR      r0,r0,#1
        0x0000ceb6:    6068        h`      STR      r0,[r5,#4]
        0x0000ceb8:    6868        hh      LDR      r0,[r5,#4]
        0x0000ceba:    f0400004    @...    ORR      r0,r0,#4
        0x0000cebe:    6068        h`      STR      r0,[r5,#4]
        0x0000cec0:    6868        hh      LDR      r0,[r5,#4]
        0x0000cec2:    f0200002     ...    BIC      r0,r0,#2
        0x0000cec6:    6068        h`      STR      r0,[r5,#4]
        0x0000cec8:    6868        hh      LDR      r0,[r5,#4]
        0x0000ceca:    f0400010    @...    ORR      r0,r0,#0x10
        0x0000cece:    e011        ..      B        0xcef4 ; am_hal_burst_mode_enable_w_manual_sequence + 212
        0x0000ced0:    2001        .       MOVS     r0,#1
        0x0000ced2:    7020         p      STRB     r0,[r4,#0]
        0x0000ced4:    2407        .$      MOVS     r4,#7
        0x0000ced6:    e044        D.      B        0xcf62 ; am_hal_burst_mode_enable_w_manual_sequence + 322
        0x0000ced8:    f644456d    D.mE    MOV      r5,#0x4c6d
        0x0000cedc:    f2c10501    ....    MOVT     r5,#0x1001
        0x0000cee0:    2001        .       MOVS     r0,#1
        0x0000cee2:    7028        (p      STRB     r0,[r5,#0]
        0x0000cee4:    4620         F      MOV      r0,r4
        0x0000cee6:    f7ffff60    ..`.    BL       am_hal_burst_mode_enable ; 0xcdaa
        0x0000ceea:    2100        .!      MOVS     r1,#0
        0x0000ceec:    7029        )p      STRB     r1,[r5,#0]
        0x0000ceee:    e039        9.      B        0xcf64 ; am_hal_burst_mode_enable_w_manual_sequence + 324
        0x0000cef0:    f0400004    @...    ORR      r0,r0,#4
        0x0000cef4:    6068        h`      STR      r0,[r5,#4]
        0x0000cef6:    2020                MOVS     r0,#0x20
        0x0000cef8:    f000fd7f    ....    BL       am_hal_flash_delay ; 0xd9fa
        0x0000cefc:    6868        hh      LDR      r0,[r5,#4]
        0x0000cefe:    f0400002    @...    ORR      r0,r0,#2
        0x0000cf02:    6068        h`      STR      r0,[r5,#4]
        0x0000cf04:    2010        .       MOVS     r0,#0x10
        0x0000cf06:    f000fd78    ..x.    BL       am_hal_flash_delay ; 0xd9fa
        0x0000cf0a:    f644466d    D.mF    MOV      r6,#0x4c6d
        0x0000cf0e:    f2c10601    ....    MOVT     r6,#0x1001
        0x0000cf12:    2001        .       MOVS     r0,#1
        0x0000cf14:    7030        0p      STRB     r0,[r6,#0]
        0x0000cf16:    4620         F      MOV      r0,r4
        0x0000cf18:    f7ffff47    ..G.    BL       am_hal_burst_mode_enable ; 0xcdaa
        0x0000cf1c:    4604        .F      MOV      r4,r0
        0x0000cf1e:    2000        .       MOVS     r0,#0
        0x0000cf20:    7030        0p      STRB     r0,[r6,#0]
        0x0000cf22:    f44f70c8    O..p    MOV      r0,#0x190
        0x0000cf26:    f000fd68    ..h.    BL       am_hal_flash_delay ; 0xd9fa
        0x0000cf2a:    6828        (h      LDR      r0,[r5,#0]
        0x0000cf2c:    f4207080     ..p    BIC      r0,r0,#0x100
        0x0000cf30:    6028        (`      STR      r0,[r5,#0]
        0x0000cf32:    6828        (h      LDR      r0,[r5,#0]
        0x0000cf34:    f0200080     ...    BIC      r0,r0,#0x80
        0x0000cf38:    6028        (`      STR      r0,[r5,#0]
        0x0000cf3a:    6828        (h      LDR      r0,[r5,#0]
        0x0000cf3c:    f0200040     .@.    BIC      r0,r0,#0x40
        0x0000cf40:    6028        (`      STR      r0,[r5,#0]
        0x0000cf42:    6828        (h      LDR      r0,[r5,#0]
        0x0000cf44:    f0200020     . .    BIC      r0,r0,#0x20
        0x0000cf48:    6028        (`      STR      r0,[r5,#0]
        0x0000cf4a:    6868        hh      LDR      r0,[r5,#4]
        0x0000cf4c:    07c0        ..      LSLS     r0,r0,#31
        0x0000cf4e:    d003        ..      BEQ      0xcf58 ; am_hal_burst_mode_enable_w_manual_sequence + 312
        0x0000cf50:    6868        hh      LDR      r0,[r5,#4]
        0x0000cf52:    f0200001     ...    BIC      r0,r0,#1
        0x0000cf56:    6068        h`      STR      r0,[r5,#4]
        0x0000cf58:    f002fa99    ....    BL       am_hal_pwrctrl_wa_vddf_boost ; 0xf48e
        0x0000cf5c:    9801        ..      LDR      r0,[sp,#4]
        0x0000cf5e:    f000ff0d    ....    BL       am_hal_interrupt_master_set ; 0xdd7c
        0x0000cf62:    4620         F      MOV      r0,r4
        0x0000cf64:    b002        ..      ADD      sp,sp,#8
        0x0000cf66:    bd70        p.      POP      {r4-r6,pc}
    am_hal_cachectrl_config
        0x0000cf68:    b5b0        ..      PUSH     {r4,r5,r7,lr}
        0x0000cf6a:    b082        ..      SUB      sp,sp,#8
        0x0000cf6c:    4604        .F      MOV      r4,r0
        0x0000cf6e:    f000fefd    ....    BL       am_hal_interrupt_master_disable ; 0xdd6c
        0x0000cf72:    f2480500    H...    MOVW     r5,#0x8000
        0x0000cf76:    9001        ..      STR      r0,[sp,#4]
        0x0000cf78:    f2c40501    ....    MOVT     r5,#0x4001
        0x0000cf7c:    6828        (h      LDR      r0,[r5,#0]
        0x0000cf7e:    f4207040     .@p    BIC      r0,r0,#0x300
        0x0000cf82:    6028        (`      STR      r0,[r5,#0]
        0x0000cf84:    9801        ..      LDR      r0,[sp,#4]
        0x0000cf86:    f000fef9    ....    BL       am_hal_interrupt_master_set ; 0xdd7c
        0x0000cf8a:    78a1        .x      LDRB     r1,[r4,#2]
        0x0000cf8c:    7820         x      LDRB     r0,[r4,#0]
        0x0000cf8e:    7862        bx      LDRB     r2,[r4,#1]
        0x0000cf90:    0049        I.      LSLS     r1,r1,#1
        0x0000cf92:    b2c9        ..      UXTB     r1,r1
        0x0000cf94:    f0020203    ....    AND      r2,r2,#3
        0x0000cf98:    f3601107    `...    BFI      r1,r0,#4,#4
        0x0000cf9c:    ea412002    A..     ORR      r0,r1,r2,LSL #8
        0x0000cfa0:    f4401080    @...    ORR      r0,r0,#0x100000
        0x0000cfa4:    f4406180    @..a    ORR      r1,r0,#0x400
        0x0000cfa8:    2000        .       MOVS     r0,#0
        0x0000cfaa:    6029        )`      STR      r1,[r5,#0]
        0x0000cfac:    b002        ..      ADD      sp,sp,#8
        0x0000cfae:    bdb0        ..      POP      {r4,r5,r7,pc}
    am_hal_cachectrl_control
        0x0000cfb0:    b510        ..      PUSH     {r4,lr}
        0x0000cfb2:    b082        ..      SUB      sp,sp,#8
        0x0000cfb4:    1e42        B.      SUBS     r2,r0,#1
        0x0000cfb6:    2a10        .*      CMP      r2,#0x10
        0x0000cfb8:    f200807e    ..~.    BHI.W    0xd0b8 ; am_hal_cachectrl_control + 264
        0x0000cfbc:    2001        .       MOVS     r0,#1
        0x0000cfbe:    e8dff002    ....    TBB      [pc,r2]
    $d.4
        0x0000cfc2:    097e        ~.      DCW    2430
        0x0000cfc4:    1a181512    ....    DCD    437785874
        0x0000cfc8:    2f221f1c    .."/    DCD    790765340
        0x0000cfcc:    604f483e    >HO`    DCD    1615808574
        0x0000cfd0:    00716a65    ejq.    DCD    7432805
    $t.5
        0x0000cfd4:    f2480000    H...    MOVW     r0,#0x8000
        0x0000cfd8:    f2c40001    ....    MOVT     r0,#0x4001
        0x0000cfdc:    6800        .h      LDR      r0,[r0,#0]
        0x0000cfde:    01c0        ..      LSLS     r0,r0,#7
        0x0000cfe0:    d46c        l.      BMI      0xd0bc ; am_hal_cachectrl_control + 268
        0x0000cfe2:    2407        .$      MOVS     r4,#7
        0x0000cfe4:    e071        q.      B        0xd0ca ; am_hal_cachectrl_control + 282
        0x0000cfe6:    f44f6088    O..`    MOV      r0,#0x440
        0x0000cfea:    e068        h.      B        0xd0be ; am_hal_cachectrl_control + 270
        0x0000cfec:    f44f7008    O..p    MOV      r0,#0x220
        0x0000cff0:    e065        e.      B        0xd0be ; am_hal_cachectrl_control + 270
        0x0000cff2:    2040        @       MOVS     r0,#0x40
        0x0000cff4:    e063        c.      B        0xd0be ; am_hal_cachectrl_control + 270
        0x0000cff6:    2020                MOVS     r0,#0x20
        0x0000cff8:    e061        a.      B        0xd0be ; am_hal_cachectrl_control + 270
        0x0000cffa:    f44f6080    O..`    MOV      r0,#0x400
        0x0000cffe:    e05e        ^.      B        0xd0be ; am_hal_cachectrl_control + 270
        0x0000d000:    f44f7000    O..p    MOV      r0,#0x200
        0x0000d004:    e05b        [.      B        0xd0be ; am_hal_cachectrl_control + 270
        0x0000d006:    f000feb1    ....    BL       am_hal_interrupt_master_disable ; 0xdd6c
        0x0000d00a:    9001        ..      STR      r0,[sp,#4]
        0x0000d00c:    f2480000    H...    MOVW     r0,#0x8000
        0x0000d010:    f2c40001    ....    MOVT     r0,#0x4001
        0x0000d014:    6801        .h      LDR      r1,[r0,#0]
        0x0000d016:    f0417180    A..q    ORR      r1,r1,#0x1000000
        0x0000d01a:    6001        .`      STR      r1,[r0,#0]
        0x0000d01c:    9801        ..      LDR      r0,[sp,#4]
        0x0000d01e:    e00b        ..      B        0xd038 ; am_hal_cachectrl_control + 136
        0x0000d020:    f000fea4    ....    BL       am_hal_interrupt_master_disable ; 0xdd6c
        0x0000d024:    9000        ..      STR      r0,[sp,#0]
        0x0000d026:    f2480000    H...    MOVW     r0,#0x8000
        0x0000d02a:    f2c40001    ....    MOVT     r0,#0x4001
        0x0000d02e:    6801        .h      LDR      r1,[r0,#0]
        0x0000d030:    f0217180    !..q    BIC      r1,r1,#0x1000000
        0x0000d034:    6001        .`      STR      r1,[r0,#0]
        0x0000d036:    9800        ..      LDR      r0,[sp,#0]
        0x0000d038:    f000fea0    ....    BL       am_hal_interrupt_master_set ; 0xdd7c
        0x0000d03c:    e044        D.      B        0xd0c8 ; am_hal_cachectrl_control + 280
        0x0000d03e:    2000        .       MOVS     r0,#0
        0x0000d040:    f003fc2e    ....    BL       set_LPMMODE ; 0x108a0
        0x0000d044:    b360        `.      CBZ      r0,0xd0a0 ; am_hal_cachectrl_control + 240
        0x0000d046:    2007        .       MOVS     r0,#7
        0x0000d048:    f003fc82    ....    BL       set_SEDELAY ; 0x10950
        0x0000d04c:    b340        @.      CBZ      r0,0xd0a0 ; am_hal_cachectrl_control + 240
        0x0000d04e:    2003        .       MOVS     r0,#3
        0x0000d050:    e023        #.      B        0xd09a ; am_hal_cachectrl_control + 234
        0x0000d052:    2001        .       MOVS     r0,#1
        0x0000d054:    2401        .$      MOVS     r4,#1
        0x0000d056:    f003fc23    ..#.    BL       set_LPMMODE ; 0x108a0
        0x0000d05a:    b3b0        ..      CBZ      r0,0xd0ca ; am_hal_cachectrl_control + 282
        0x0000d05c:    2005        .       MOVS     r0,#5
        0x0000d05e:    e005        ..      B        0xd06c ; am_hal_cachectrl_control + 188
        0x0000d060:    2001        .       MOVS     r0,#1
        0x0000d062:    2401        .$      MOVS     r4,#1
        0x0000d064:    f003fc1c    ....    BL       set_LPMMODE ; 0x108a0
        0x0000d068:    b378        x.      CBZ      r0,0xd0ca ; am_hal_cachectrl_control + 282
        0x0000d06a:    2006        .       MOVS     r0,#6
        0x0000d06c:    f003fc70    ..p.    BL       set_SEDELAY ; 0x10950
        0x0000d070:    b1b0        ..      CBZ      r0,0xd0a0 ; am_hal_cachectrl_control + 240
        0x0000d072:    2001        .       MOVS     r0,#1
        0x0000d074:    2401        .$      MOVS     r4,#1
        0x0000d076:    f003fc41    ..A.    BL       set_RDWAIT ; 0x108fc
        0x0000d07a:    2800        .(      CMP      r0,#0
        0x0000d07c:    bf18        ..      IT       NE
        0x0000d07e:    2400        .$      MOVNE    r4,#0
        0x0000d080:    e023        #.      B        0xd0ca ; am_hal_cachectrl_control + 282
        0x0000d082:    b1c9        ..      CBZ      r1,0xd0b8 ; am_hal_cachectrl_control + 264
        0x0000d084:    6808        .h      LDR      r0,[r1,#0]
        0x0000d086:    f003fc0b    ....    BL       set_LPMMODE ; 0x108a0
        0x0000d08a:    e008        ..      B        0xd09e ; am_hal_cachectrl_control + 238
        0x0000d08c:    b1a1        ..      CBZ      r1,0xd0b8 ; am_hal_cachectrl_control + 264
        0x0000d08e:    6808        .h      LDR      r0,[r1,#0]
        0x0000d090:    f003fc5e    ..^.    BL       set_SEDELAY ; 0x10950
        0x0000d094:    e003        ..      B        0xd09e ; am_hal_cachectrl_control + 238
        0x0000d096:    b179        y.      CBZ      r1,0xd0b8 ; am_hal_cachectrl_control + 264
        0x0000d098:    6808        .h      LDR      r0,[r1,#0]
        0x0000d09a:    f003fc2f    ../.    BL       set_RDWAIT ; 0x108fc
        0x0000d09e:    b998        ..      CBNZ     r0,0xd0c8 ; am_hal_cachectrl_control + 280
        0x0000d0a0:    2401        .$      MOVS     r4,#1
        0x0000d0a2:    e012        ..      B        0xd0ca ; am_hal_cachectrl_control + 282
        0x0000d0a4:    b141        A.      CBZ      r1,0xd0b8 ; am_hal_cachectrl_control + 264
        0x0000d0a6:    6848        Hh      LDR      r0,[r1,#4]
        0x0000d0a8:    220f        ."      MOVS     r2,#0xf
        0x0000d0aa:    f6cf0200    ....    MOVT     r2,#0xf800
        0x0000d0ae:    4210        .B      TST      r0,r2
        0x0000d0b0:    d102        ..      BNE      0xd0b8 ; am_hal_cachectrl_control + 264
        0x0000d0b2:    688b        .h      LDR      r3,[r1,#8]
        0x0000d0b4:    4213        .B      TST      r3,r2
        0x0000d0b6:    d00b        ..      BEQ      0xd0d0 ; am_hal_cachectrl_control + 288
        0x0000d0b8:    2406        .$      MOVS     r4,#6
        0x0000d0ba:    e006        ..      B        0xd0ca ; am_hal_cachectrl_control + 282
        0x0000d0bc:    2002        .       MOVS     r0,#2
        0x0000d0be:    f2480100    H...    MOVW     r1,#0x8000
        0x0000d0c2:    f2c40101    ....    MOVT     r1,#0x4001
        0x0000d0c6:    6088        .`      STR      r0,[r1,#8]
        0x0000d0c8:    2400        .$      MOVS     r4,#0
        0x0000d0ca:    4620         F      MOV      r0,r4
        0x0000d0cc:    b002        ..      ADD      sp,sp,#8
        0x0000d0ce:    bd10        ..      POP      {r4,pc}
        0x0000d0d0:    780a        .x      LDRB     r2,[r1,#0]
        0x0000d0d2:    2a01        .*      CMP      r2,#1
        0x0000d0d4:    d011        ..      BEQ      0xd0fa ; am_hal_cachectrl_control + 330
        0x0000d0d6:    2a00        .*      CMP      r2,#0
        0x0000d0d8:    d1ee        ..      BNE      0xd0b8 ; am_hal_cachectrl_control + 264
        0x0000d0da:    f2480200    H...    MOVW     r2,#0x8000
        0x0000d0de:    f2c40201    ....    MOVT     r2,#0x4001
        0x0000d0e2:    6110        .a      STR      r0,[r2,#0x10]
        0x0000d0e4:    6888        .h      LDR      r0,[r1,#8]
        0x0000d0e6:    6150        Pa      STR      r0,[r2,#0x14]
        0x0000d0e8:    7848        Hx      LDRB     r0,[r1,#1]
        0x0000d0ea:    6811        .h      LDR      r1,[r2,#0]
        0x0000d0ec:    f000003f    ..?.    AND      r0,r0,#0x3f
        0x0000d0f0:    f0210104    !...    BIC      r1,r1,#4
        0x0000d0f4:    ea410080    A...    ORR      r0,r1,r0,LSL #2
        0x0000d0f8:    e00e        ..      B        0xd118 ; am_hal_cachectrl_control + 360
        0x0000d0fa:    f2480200    H...    MOVW     r2,#0x8000
        0x0000d0fe:    f2c40201    ....    MOVT     r2,#0x4001
        0x0000d102:    6190        .a      STR      r0,[r2,#0x18]
        0x0000d104:    6888        .h      LDR      r0,[r1,#8]
        0x0000d106:    61d0        .a      STR      r0,[r2,#0x1c]
        0x0000d108:    7848        Hx      LDRB     r0,[r1,#1]
        0x0000d10a:    6811        .h      LDR      r1,[r2,#0]
        0x0000d10c:    f000001f    ....    AND      r0,r0,#0x1f
        0x0000d110:    f0210108    !...    BIC      r1,r1,#8
        0x0000d114:    ea4100c0    A...    ORR      r0,r1,r0,LSL #3
        0x0000d118:    6010        .`      STR      r0,[r2,#0]
        0x0000d11a:    e7d5        ..      B        0xd0c8 ; am_hal_cachectrl_control + 280
    am_hal_cachectrl_enable
        0x0000d11c:    f2480100    H...    MOVW     r1,#0x8000
        0x0000d120:    f2c40101    ....    MOVT     r1,#0x4001
        0x0000d124:    6808        .h      LDR      r0,[r1,#0]
        0x0000d126:    f0400201    @...    ORR      r2,r0,#1
        0x0000d12a:    2000        .       MOVS     r0,#0
        0x0000d12c:    600a        .`      STR      r2,[r1,#0]
        0x0000d12e:    4770        pG      BX       lr
    am_hal_clkgen_control
        0x0000d130:    b510        ..      PUSH     {r4,lr}
        0x0000d132:    f24162f8    A..b    MOV      r2,#0x16f8
        0x0000d136:    f2c10201    ....    MOVT     r2,#0x1001
        0x0000d13a:    6813        .h      LDR      r3,[r2,#0]
        0x0000d13c:    460c        .F      MOV      r4,r1
        0x0000d13e:    b92b        +.      CBNZ     r3,0xd14c ; am_hal_clkgen_control + 28
        0x0000d140:    f24f0100    O...    MOVW     r1,#0xf000
        0x0000d144:    f6c471ff    ...q    MOVT     r1,#0x4fff
        0x0000d148:    6809        .h      LDR      r1,[r1,#0]
        0x0000d14a:    6011        .`      STR      r1,[r2,#0]
        0x0000d14c:    2809        .(      CMP      r0,#9
        0x0000d14e:    d80f        ..      BHI      0xd170 ; am_hal_clkgen_control + 64
        0x0000d150:    e8dff000    ....    TBB      [pc,r0]
    $d.1
        0x0000d154:    20181005    ...     DCD    538447877
        0x0000d158:    544c4139    9ALT    DCD    1414283577
        0x0000d15c:    775e        ^w      DCW    30558
    $t.2
        0x0000d15e:    f244010c    D...    MOV      r1,#0x400c
        0x0000d162:    f2c40100    ....    MOVT     r1,#0x4000
        0x0000d166:    2047        G       MOVS     r0,#0x47
        0x0000d168:    6088        .`      STR      r0,[r1,#8]
        0x0000d16a:    2000        .       MOVS     r0,#0
        0x0000d16c:    60c8        .`      STR      r0,[r1,#0xc]
        0x0000d16e:    e03b        ;.      B        0xd1e8 ; am_hal_clkgen_control + 184
        0x0000d170:    2006        .       MOVS     r0,#6
        0x0000d172:    bd10        ..      POP      {r4,pc}
        0x0000d174:    f244000c    D...    MOV      r0,#0x400c
        0x0000d178:    f2c40000    ....    MOVT     r0,#0x4000
        0x0000d17c:    6801        .h      LDR      r1,[r0,#0]
        0x0000d17e:    f0210101    !...    BIC      r1,r1,#1
        0x0000d182:    e042        B.      B        0xd20a ; am_hal_clkgen_control + 218
        0x0000d184:    f244000c    D...    MOV      r0,#0x400c
        0x0000d188:    f2c40000    ....    MOVT     r0,#0x4000
        0x0000d18c:    6801        .h      LDR      r1,[r0,#0]
        0x0000d18e:    f0210102    !...    BIC      r1,r1,#2
        0x0000d192:    e03a        :.      B        0xd20a ; am_hal_clkgen_control + 218
        0x0000d194:    f2401020    @. .    MOVW     r0,#0x120
        0x0000d198:    f64f61ec    O..a    MOV      r1,#0xfeec
        0x0000d19c:    f2c40002    ....    MOVT     r0,#0x4002
        0x0000d1a0:    f6cf71ff    ...q    MOVT     r1,#0xffff
        0x0000d1a4:    5841        AX      LDR      r1,[r0,r1]
        0x0000d1a6:    b2c9        ..      UXTB     r1,r1
        0x0000d1a8:    2921        !)      CMP      r1,#0x21
        0x0000d1aa:    d304        ..      BCC      0xd1b6 ; am_hal_clkgen_control + 134
        0x0000d1ac:    6801        .h      LDR      r1,[r0,#0]
        0x0000d1ae:    2201        ."      MOVS     r2,#1
        0x0000d1b0:    f3622109    b..!    BFI      r1,r2,#8,#2
        0x0000d1b4:    6001        .`      STR      r1,[r0,#0]
        0x0000d1b6:    f244000c    D...    MOV      r0,#0x400c
        0x0000d1ba:    f2c40000    ....    MOVT     r0,#0x4000
        0x0000d1be:    6801        .h      LDR      r1,[r0,#0]
        0x0000d1c0:    f0410101    A...    ORR      r1,r1,#1
        0x0000d1c4:    e021        !.      B        0xd20a ; am_hal_clkgen_control + 218
        0x0000d1c6:    f244000c    D...    MOV      r0,#0x400c
        0x0000d1ca:    f2c40000    ....    MOVT     r0,#0x4000
        0x0000d1ce:    6801        .h      LDR      r1,[r0,#0]
        0x0000d1d0:    f0410102    A...    ORR      r1,r1,#2
        0x0000d1d4:    e019        ..      B        0xd20a ; am_hal_clkgen_control + 218
        0x0000d1d6:    f244010c    D...    MOV      r1,#0x400c
        0x0000d1da:    f2c40100    ....    MOVT     r1,#0x4000
        0x0000d1de:    2047        G       MOVS     r0,#0x47
        0x0000d1e0:    6088        .`      STR      r0,[r1,#8]
        0x0000d1e2:    2001        .       MOVS     r0,#1
        0x0000d1e4:    60c8        .`      STR      r0,[r1,#0xc]
        0x0000d1e6:    2000        .       MOVS     r0,#0
        0x0000d1e8:    6088        .`      STR      r0,[r1,#8]
        0x0000d1ea:    bd10        ..      POP      {r4,pc}
        0x0000d1ec:    f244000c    D...    MOV      r0,#0x400c
        0x0000d1f0:    f2c40000    ....    MOVT     r0,#0x4000
        0x0000d1f4:    6801        .h      LDR      r1,[r0,#0]
        0x0000d1f6:    f0210180    !...    BIC      r1,r1,#0x80
        0x0000d1fa:    e006        ..      B        0xd20a ; am_hal_clkgen_control + 218
        0x0000d1fc:    f244000c    D...    MOV      r0,#0x400c
        0x0000d200:    f2c40000    ....    MOVT     r0,#0x4000
        0x0000d204:    6801        .h      LDR      r1,[r0,#0]
        0x0000d206:    f0410180    A...    ORR      r1,r1,#0x80
        0x0000d20a:    6001        .`      STR      r1,[r0,#0]
        0x0000d20c:    2000        .       MOVS     r0,#0
        0x0000d20e:    bd10        ..      POP      {r4,pc}
        0x0000d210:    f2401020    @. .    MOVW     r0,#0x120
        0x0000d214:    f64f61ec    O..a    MOV      r1,#0xfeec
        0x0000d218:    f2c40002    ....    MOVT     r0,#0x4002
        0x0000d21c:    f6cf71ff    ...q    MOVT     r1,#0xffff
        0x0000d220:    5841        AX      LDR      r1,[r0,r1]
        0x0000d222:    b2c9        ..      UXTB     r1,r1
        0x0000d224:    2921        !)      CMP      r1,#0x21
        0x0000d226:    d307        ..      BCC      0xd238 ; am_hal_clkgen_control + 264
        0x0000d228:    6801        .h      LDR      r1,[r0,#0]
        0x0000d22a:    f4417140    A.@q    ORR      r1,r1,#0x300
        0x0000d22e:    6001        .`      STR      r1,[r0,#0]
        0x0000d230:    f44f507a    O.zP    MOV      r0,#0x3e80
        0x0000d234:    f000fbe1    ....    BL       am_hal_flash_delay ; 0xd9fa
        0x0000d238:    b164        d.      CBZ      r4,0xd254 ; am_hal_clkgen_control + 292
        0x0000d23a:    6820         h      LDR      r0,[r4,#0]
        0x0000d23c:    f0400001    @...    ORR      r0,r0,#1
        0x0000d240:    e00c        ..      B        0xd25c ; am_hal_clkgen_control + 300
        0x0000d242:    f244000c    D...    MOV      r0,#0x400c
        0x0000d246:    f2c40000    ....    MOVT     r0,#0x4000
        0x0000d24a:    6941        Ai      LDR      r1,[r0,#0x14]
        0x0000d24c:    f0210101    !...    BIC      r1,r1,#1
        0x0000d250:    6141        Aa      STR      r1,[r0,#0x14]
        0x0000d252:    e7db        ..      B        0xd20c ; am_hal_clkgen_control + 220
        0x0000d254:    f64b0001    K...    MOV      r0,#0xb801
        0x0000d258:    f2c00025    ..%.    MOVT     r0,#0x25
        0x0000d25c:    f244010c    D...    MOV      r1,#0x400c
        0x0000d260:    f2c40100    ....    MOVT     r1,#0x4000
        0x0000d264:    6148        Ha      STR      r0,[r1,#0x14]
        0x0000d266:    e7d1        ..      B        0xd20c ; am_hal_clkgen_control + 220
    am_hal_clkgen_status_get
        0x0000d268:    b1c0        ..      CBZ      r0,0xd29c ; am_hal_clkgen_status_get + 52
        0x0000d26a:    f2440118    D...    MOV      r1,#0x4018
        0x0000d26e:    f2c40100    ....    MOVT     r1,#0x4000
        0x0000d272:    680a        .h      LDR      r2,[r1,#0]
        0x0000d274:    07d2        ..      LSLS     r2,r2,#31
        0x0000d276:    f2436200    C..b    MOVW     r2,#0x3600
        0x0000d27a:    f2c0126e    ..n.    MOVT     r2,#0x16e
        0x0000d27e:    bf04        ..      ITT      EQ
        0x0000d280:    f6464200    F..B    MOVWEQ   r2,#0x6c00
        0x0000d284:    f2c022dc    ..."    MOVTEQ   r2,#0x2dc
        0x0000d288:    6002        .`      STR      r2,[r0,#0]
        0x0000d28a:    6849        Ih      LDR      r1,[r1,#4]
        0x0000d28c:    f0010201    ....    AND      r2,r1,#1
        0x0000d290:    f3c10140    ..@.    UBFX     r1,r1,#1,#1
        0x0000d294:    6042        B`      STR      r2,[r0,#4]
        0x0000d296:    7201        .r      STRB     r1,[r0,#8]
        0x0000d298:    2000        .       MOVS     r0,#0
        0x0000d29a:    4770        pG      BX       lr
        0x0000d29c:    2006        .       MOVS     r0,#6
        0x0000d29e:    4770        pG      BX       lr
    am_hal_cmdq_alloc_block
        0x0000d2a0:    b5f0        ..      PUSH     {r4-r7,lr}
        0x0000d2a2:    b081        ..      SUB      sp,sp,#4
        0x0000d2a4:    b1f0        ..      CBZ      r0,0xd2e4 ; am_hal_cmdq_alloc_block + 68
        0x0000d2a6:    4605        .F      MOV      r5,r0
        0x0000d2a8:    6800        .h      LDR      r0,[r0,#0]
        0x0000d2aa:    460f        .F      MOV      r7,r1
        0x0000d2ac:    f64c51cd    L..Q    MOV      r1,#0xcdcd
        0x0000d2b0:    f020407e     .~@    BIC      r0,r0,#0xfe000000
        0x0000d2b4:    f2c011cd    ....    MOVT     r1,#0x1cd
        0x0000d2b8:    4288        .B      CMP      r0,r1
        0x0000d2ba:    d113        ..      BNE      0xd2e4 ; am_hal_cmdq_alloc_block + 68
        0x0000d2bc:    4616        .F      MOV      r6,r2
        0x0000d2be:    f04f0006    O...    MOV      r0,#6
        0x0000d2c2:    b182        ..      CBZ      r2,0xd2e6 ; am_hal_cmdq_alloc_block + 70
        0x0000d2c4:    461c        .F      MOV      r4,r3
        0x0000d2c6:    b173        s.      CBZ      r3,0xd2e6 ; am_hal_cmdq_alloc_block + 70
        0x0000d2c8:    e9d50104    ....    LDRD     r0,r1,[r5,#0x10]
        0x0000d2cc:    4288        .B      CMP      r0,r1
        0x0000d2ce:    d10c        ..      BNE      0xd2ea ; am_hal_cmdq_alloc_block + 74
        0x0000d2d0:    4628        (F      MOV      r0,r5
        0x0000d2d2:    f003fc4b    ..K.    BL       update_indices ; 0x10b6c
        0x0000d2d6:    e9d51007    ....    LDRD     r1,r0,[r5,#0x1c]
        0x0000d2da:    31fe        .1      ADDS     r1,r1,#0xfe
        0x0000d2dc:    4281        .B      CMP      r1,r0
        0x0000d2de:    da06        ..      BGE      0xd2ee ; am_hal_cmdq_alloc_block + 78
        0x0000d2e0:    2005        .       MOVS     r0,#5
        0x0000d2e2:    e000        ..      B        0xd2e6 ; am_hal_cmdq_alloc_block + 70
        0x0000d2e4:    2002        .       MOVS     r0,#2
        0x0000d2e6:    b001        ..      ADD      sp,sp,#4
        0x0000d2e8:    bdf0        ..      POP      {r4-r7,pc}
        0x0000d2ea:    2007        .       MOVS     r0,#7
        0x0000d2ec:    e7fb        ..      B        0xd2e6 ; am_hal_cmdq_alloc_block + 70
        0x0000d2ee:    e9d53103    ...1    LDRD     r3,r1,[r5,#0xc]
        0x0000d2f2:    00fa        ..      LSLS     r2,r7,#3
        0x0000d2f4:    4299        .B      CMP      r1,r3
        0x0000d2f6:    d204        ..      BCS      0xd302 ; am_hal_cmdq_alloc_block + 98
        0x0000d2f8:    1857        W.      ADDS     r7,r2,r1
        0x0000d2fa:    3708        .7      ADDS     r7,r7,#8
        0x0000d2fc:    429f        .B      CMP      r7,r3
        0x0000d2fe:    d2ef        ..      BCS      0xd2e0 ; am_hal_cmdq_alloc_block + 64
        0x0000d300:    e013        ..      B        0xd32a ; am_hal_cmdq_alloc_block + 138
        0x0000d302:    eb020c01    ....    ADD      r12,r2,r1
        0x0000d306:    f8d5e008    ....    LDR      lr,[r5,#8]
        0x0000d30a:    f10c0710    ....    ADD      r7,r12,#0x10
        0x0000d30e:    4577        wE      CMP      r7,lr
        0x0000d310:    d90b        ..      BLS      0xd32a ; am_hal_cmdq_alloc_block + 138
        0x0000d312:    f8d5c004    ....    LDR      r12,[r5,#4]
        0x0000d316:    eb02070c    ....    ADD      r7,r2,r12
        0x0000d31a:    3708        .7      ADDS     r7,r7,#8
        0x0000d31c:    429f        .B      CMP      r7,r3
        0x0000d31e:    d2df        ..      BCS      0xd2e0 ; am_hal_cmdq_alloc_block + 64
        0x0000d320:    6a6b        kj      LDR      r3,[r5,#0x24]
        0x0000d322:    685b        [h      LDR      r3,[r3,#4]
        0x0000d324:    e9c13c00    ...<    STRD     r3,r12,[r1,#0]
        0x0000d328:    4661        aF      MOV      r1,r12
        0x0000d32a:    3001        .0      ADDS     r0,#1
        0x0000d32c:    6228        (b      STR      r0,[r5,#0x20]
        0x0000d32e:    6020         `      STR      r0,[r4,#0]
        0x0000d330:    1888        ..      ADDS     r0,r1,r2
        0x0000d332:    6168        ha      STR      r0,[r5,#0x14]
        0x0000d334:    2000        .       MOVS     r0,#0
        0x0000d336:    6031        1`      STR      r1,[r6,#0]
        0x0000d338:    e7d5        ..      B        0xd2e6 ; am_hal_cmdq_alloc_block + 70
    am_hal_cmdq_disable
        0x0000d33a:    b1b0        ..      CBZ      r0,0xd36a ; am_hal_cmdq_disable + 48
        0x0000d33c:    6801        .h      LDR      r1,[r0,#0]
        0x0000d33e:    f64c53cd    L..S    MOV      r3,#0xcdcd
        0x0000d342:    f021427e    !.~B    BIC      r2,r1,#0xfe000000
        0x0000d346:    f2c013cd    ....    MOVT     r3,#0x1cd
        0x0000d34a:    429a        .B      CMP      r2,r3
        0x0000d34c:    d10d        ..      BNE      0xd36a ; am_hal_cmdq_disable + 48
        0x0000d34e:    0189        ..      LSLS     r1,r1,#6
        0x0000d350:    d509        ..      BPL      0xd366 ; am_hal_cmdq_disable + 44
        0x0000d352:    6a41        Aj      LDR      r1,[r0,#0x24]
        0x0000d354:    6809        .h      LDR      r1,[r1,#0]
        0x0000d356:    680a        .h      LDR      r2,[r1,#0]
        0x0000d358:    f0220201    "...    BIC      r2,r2,#1
        0x0000d35c:    600a        .`      STR      r2,[r1,#0]
        0x0000d35e:    6801        .h      LDR      r1,[r0,#0]
        0x0000d360:    f0217100    !..q    BIC      r1,r1,#0x2000000
        0x0000d364:    6001        .`      STR      r1,[r0,#0]
        0x0000d366:    2000        .       MOVS     r0,#0
        0x0000d368:    4770        pG      BX       lr
        0x0000d36a:    2002        .       MOVS     r0,#2
        0x0000d36c:    4770        pG      BX       lr
    am_hal_cmdq_enable
        0x0000d36e:    b1b0        ..      CBZ      r0,0xd39e ; am_hal_cmdq_enable + 48
        0x0000d370:    6801        .h      LDR      r1,[r0,#0]
        0x0000d372:    f64c53cd    L..S    MOV      r3,#0xcdcd
        0x0000d376:    f021427e    !.~B    BIC      r2,r1,#0xfe000000
        0x0000d37a:    f2c013cd    ....    MOVT     r3,#0x1cd
        0x0000d37e:    429a        .B      CMP      r2,r3
        0x0000d380:    d10d        ..      BNE      0xd39e ; am_hal_cmdq_enable + 48
        0x0000d382:    0189        ..      LSLS     r1,r1,#6
        0x0000d384:    d409        ..      BMI      0xd39a ; am_hal_cmdq_enable + 44
        0x0000d386:    6a41        Aj      LDR      r1,[r0,#0x24]
        0x0000d388:    6809        .h      LDR      r1,[r1,#0]
        0x0000d38a:    680a        .h      LDR      r2,[r1,#0]
        0x0000d38c:    f0420201    B...    ORR      r2,r2,#1
        0x0000d390:    600a        .`      STR      r2,[r1,#0]
        0x0000d392:    6801        .h      LDR      r1,[r0,#0]
        0x0000d394:    f0417100    A..q    ORR      r1,r1,#0x2000000
        0x0000d398:    6001        .`      STR      r1,[r0,#0]
        0x0000d39a:    2000        .       MOVS     r0,#0
        0x0000d39c:    4770        pG      BX       lr
        0x0000d39e:    2002        .       MOVS     r0,#2
        0x0000d3a0:    4770        pG      BX       lr
        0x0000d3a2:    0000        ..      MOVS     r0,r0
    am_hal_cmdq_error_resume
        0x0000d3a4:    b510        ..      PUSH     {r4,lr}
        0x0000d3a6:    b368        h.      CBZ      r0,0xd404 ; am_hal_cmdq_error_resume + 96
        0x0000d3a8:    6801        .h      LDR      r1,[r0,#0]
        0x0000d3aa:    f64c53cd    L..S    MOV      r3,#0xcdcd
        0x0000d3ae:    f021427e    !.~B    BIC      r2,r1,#0xfe000000
        0x0000d3b2:    f2c013cd    ....    MOVT     r3,#0x1cd
        0x0000d3b6:    429a        .B      CMP      r2,r3
        0x0000d3b8:    d124        $.      BNE      0xd404 ; am_hal_cmdq_error_resume + 96
        0x0000d3ba:    0189        ..      LSLS     r1,r1,#6
        0x0000d3bc:    d520         .      BPL      0xd400 ; am_hal_cmdq_error_resume + 92
        0x0000d3be:    6a41        Aj      LDR      r1,[r0,#0x24]
        0x0000d3c0:    e9d12c00    ...,    LDRD     r2,r12,[r1,#0]
        0x0000d3c4:    688c        .h      LDR      r4,[r1,#8]
        0x0000d3c6:    6811        .h      LDR      r1,[r2,#0]
        0x0000d3c8:    f0210101    !...    BIC      r1,r1,#1
        0x0000d3cc:    6011        .`      STR      r1,[r2,#0]
        0x0000d3ce:    f8dc2000    ...     LDR      r2,[r12,#0]
        0x0000d3d2:    6811        .h      LDR      r1,[r2,#0]
        0x0000d3d4:    f0210e01    !...    BIC      lr,r1,#1
        0x0000d3d8:    45a6        .E      CMP      lr,r4
        0x0000d3da:    d009        ..      BEQ      0xd3f0 ; am_hal_cmdq_error_resume + 76
        0x0000d3dc:    4561        aE      CMP      r1,r12
        0x0000d3de:    bf14        ..      ITE      NE
        0x0000d3e0:    3208        .2      ADDNE    r2,r2,#8
        0x0000d3e2:    6852        Rh      LDREQ    r2,[r2,#4]
        0x0000d3e4:    6811        .h      LDR      r1,[r2,#0]
        0x0000d3e6:    f0210301    !...    BIC      r3,r1,#1
        0x0000d3ea:    42a3        .B      CMP      r3,r4
        0x0000d3ec:    d1f6        ..      BNE      0xd3dc ; am_hal_cmdq_error_resume + 56
        0x0000d3ee:    46a6        .F      MOV      lr,r4
        0x0000d3f0:    f8c2e000    ....    STR      lr,[r2,#0]
        0x0000d3f4:    f8cc2000    ...     STR      r2,[r12,#0]
        0x0000d3f8:    6801        .h      LDR      r1,[r0,#0]
        0x0000d3fa:    f0217100    !..q    BIC      r1,r1,#0x2000000
        0x0000d3fe:    6001        .`      STR      r1,[r0,#0]
        0x0000d400:    2000        .       MOVS     r0,#0
        0x0000d402:    bd10        ..      POP      {r4,pc}
        0x0000d404:    2002        .       MOVS     r0,#2
        0x0000d406:    bd10        ..      POP      {r4,pc}
    am_hal_cmdq_get_status
        0x0000d408:    b5b0        ..      PUSH     {r4,r5,r7,lr}
        0x0000d40a:    b368        h.      CBZ      r0,0xd468 ; am_hal_cmdq_get_status + 96
        0x0000d40c:    4605        .F      MOV      r5,r0
        0x0000d40e:    6800        .h      LDR      r0,[r0,#0]
        0x0000d410:    460c        .F      MOV      r4,r1
        0x0000d412:    f64c51cd    L..Q    MOV      r1,#0xcdcd
        0x0000d416:    f020407e     .~@    BIC      r0,r0,#0xfe000000
        0x0000d41a:    f2c011cd    ....    MOVT     r1,#0x1cd
        0x0000d41e:    4288        .B      CMP      r0,r1
        0x0000d420:    d122        ".      BNE      0xd468 ; am_hal_cmdq_get_status + 96
        0x0000d422:    b31c        ..      CBZ      r4,0xd46c ; am_hal_cmdq_get_status + 100
        0x0000d424:    4628        (F      MOV      r0,r5
        0x0000d426:    f003fba1    ....    BL       update_indices ; 0x10b6c
        0x0000d42a:    e9d50104    ....    LDRD     r0,r1,[r5,#0x10]
        0x0000d42e:    e9d52307    ...#    LDRD     r2,r3,[r5,#0x1c]
        0x0000d432:    4281        .B      CMP      r1,r0
        0x0000d434:    60a3        .`      STR      r3,[r4,#8]
        0x0000d436:    bf18        ..      IT       NE
        0x0000d438:    3b01        .;      SUBNE    r3,#1
        0x0000d43a:    6a68        hj      LDR      r0,[r5,#0x24]
        0x0000d43c:    6063        c`      STR      r3,[r4,#4]
        0x0000d43e:    f1000318    ....    ADD      r3,r0,#0x18
        0x0000d442:    6022        "`      STR      r2,[r4,#0]
        0x0000d444:    cb0e        ..      LDM      r3,{r1-r3}
        0x0000d446:    6a40        @j      LDR      r0,[r0,#0x24]
        0x0000d448:    6809        .h      LDR      r1,[r1,#0]
        0x0000d44a:    400a        .@      ANDS     r2,r2,r1
        0x0000d44c:    bf18        ..      IT       NE
        0x0000d44e:    2201        ."      MOVNE    r2,#1
        0x0000d450:    4008        .@      ANDS     r0,r0,r1
        0x0000d452:    7322        "s      STRB     r2,[r4,#0xc]
        0x0000d454:    bf18        ..      IT       NE
        0x0000d456:    2001        .       MOVNE    r0,#1
        0x0000d458:    7360        `s      STRB     r0,[r4,#0xd]
        0x0000d45a:    ea130001    ....    ANDS     r0,r3,r1
        0x0000d45e:    bf18        ..      IT       NE
        0x0000d460:    2001        .       MOVNE    r0,#1
        0x0000d462:    73a0        .s      STRB     r0,[r4,#0xe]
        0x0000d464:    2000        .       MOVS     r0,#0
        0x0000d466:    bdb0        ..      POP      {r4,r5,r7,pc}
        0x0000d468:    2002        .       MOVS     r0,#2
        0x0000d46a:    bdb0        ..      POP      {r4,r5,r7,pc}
        0x0000d46c:    2006        .       MOVS     r0,#6
        0x0000d46e:    bdb0        ..      POP      {r4,r5,r7,pc}
    am_hal_cmdq_init
        0x0000d470:    e92d41f0    -..A    PUSH     {r4-r8,lr}
        0x0000d474:    2809        .(      CMP      r0,#9
        0x0000d476:    bf84        ..      ITT      HI
        0x0000d478:    2005        .       MOVHI    r0,#5
        0x0000d47a:    e8bd81f0    ....    POPHI    {r4-r8,pc}
        0x0000d47e:    b171        q.      CBZ      r1,0xd49e ; am_hal_cmdq_init + 46
        0x0000d480:    4603        .F      MOV      r3,r0
        0x0000d482:    2a00        .*      CMP      r2,#0
        0x0000d484:    f04f0006    O...    MOV      r0,#6
        0x0000d488:    d04f        O.      BEQ      0xd52a ; am_hal_cmdq_init + 186
        0x0000d48a:    f8d1e004    ....    LDR      lr,[r1,#4]
        0x0000d48e:    f1be0f00    ....    CMP      lr,#0
        0x0000d492:    bf08        ..      IT       EQ
        0x0000d494:    e8bd81f0    ....    POPEQ    {r4-r8,pc}
        0x0000d498:    6808        .h      LDR      r0,[r1,#0]
        0x0000d49a:    2802        .(      CMP      r0,#2
        0x0000d49c:    d202        ..      BCS      0xd4a4 ; am_hal_cmdq_init + 52
        0x0000d49e:    2006        .       MOVS     r0,#6
        0x0000d4a0:    e8bd81f0    ....    POP      {r4-r8,pc}
        0x0000d4a4:    f2415c40    A.@\    MOVW     r12,#0x1540
        0x0000d4a8:    252c        ,%      MOVS     r5,#0x2c
        0x0000d4aa:    f2c10c01    ....    MOVT     r12,#0x1001
        0x0000d4ae:    fb03f405    ....    MUL      r4,r3,r5
        0x0000d4b2:    f85c4004    \..@    LDR      r4,[r12,r4]
        0x0000d4b6:    01e6        ..      LSLS     r6,r4,#7
        0x0000d4b8:    bf44        D.      ITT      MI
        0x0000d4ba:    2007        .       MOVMI    r0,#7
        0x0000d4bc:    e8bd81f0    ....    POPMI    {r4-r8,pc}
        0x0000d4c0:    f6407828    @.(x    MOV      r8,#0xf28
        0x0000d4c4:    fb13cc05    ....    SMLABB   r12,r3,r5,r12
        0x0000d4c8:    00c5        ..      LSLS     r5,r0,#3
        0x0000d4ca:    eb0e06c0    ....    ADD      r6,lr,r0,LSL #3
        0x0000d4ce:    f64c50cd    L..P    MOV      r0,#0xcdcd
        0x0000d4d2:    eb030383    ....    ADD      r3,r3,r3,LSL #2
        0x0000d4d6:    f2c00801    ....    MOVT     r8,#1
        0x0000d4da:    f2c010cd    ....    MOVT     r0,#0x1cd
        0x0000d4de:    eb0807c3    ....    ADD      r7,r8,r3,LSL #3
        0x0000d4e2:    f3600419    `...    BFI      r4,r0,#0,#26
        0x0000d4e6:    e9cce601    ....    STRD     lr,r6,[r12,#4]
        0x0000d4ea:    e9cce505    ....    STRD     lr,r5,[r12,#0x14]
        0x0000d4ee:    e9d76502    ...e    LDRD     r6,r5,[r7,#8]
        0x0000d4f2:    f8cc4000    ...@    STR      r4,[r12,#0]
        0x0000d4f6:    2000        .       MOVS     r0,#0
        0x0000d4f8:    693c        <i      LDR      r4,[r7,#0x10]
        0x0000d4fa:    f8cc7024    ..$p    STR      r7,[r12,#0x24]
        0x0000d4fe:    e9ccee03    ....    STRD     lr,lr,[r12,#0xc]
        0x0000d502:    e9cc0007    ....    STRD     r0,r0,[r12,#0x1c]
        0x0000d506:    6030        0`      STR      r0,[r6,#0]
        0x0000d508:    6028        (`      STR      r0,[r5,#0]
        0x0000d50a:    697e        ~i      LDR      r6,[r7,#0x14]
        0x0000d50c:    6825        %h      LDR      r5,[r4,#0]
        0x0000d50e:    687f        .h      LDR      r7,[r7,#4]
        0x0000d510:    432e        .C      ORRS     r6,r6,r5
        0x0000d512:    6026        &`      STR      r6,[r4,#0]
        0x0000d514:    684e        Nh      LDR      r6,[r1,#4]
        0x0000d516:    f8583033    X.30    LDR      r3,[r8,r3,LSL #3]
        0x0000d51a:    603e        >`      STR      r6,[r7,#0]
        0x0000d51c:    7a09        .z      LDRB     r1,[r1,#8]
        0x0000d51e:    2702        .'      MOVS     r7,#2
        0x0000d520:    ea070141    ..A.    AND      r1,r7,r1,LSL #1
        0x0000d524:    6019        .`      STR      r1,[r3,#0]
        0x0000d526:    f8c2c000    ....    STR      r12,[r2,#0]
        0x0000d52a:    e8bd81f0    ....    POP      {r4-r8,pc}
    am_hal_cmdq_post_block
        0x0000d52e:    b580        ..      PUSH     {r7,lr}
        0x0000d530:    b1f8        ..      CBZ      r0,0xd572 ; am_hal_cmdq_post_block + 68
        0x0000d532:    6802        .h      LDR      r2,[r0,#0]
        0x0000d534:    f64c53cd    L..S    MOV      r3,#0xcdcd
        0x0000d538:    f022427e    ".~B    BIC      r2,r2,#0xfe000000
        0x0000d53c:    f2c013cd    ....    MOVT     r3,#0x1cd
        0x0000d540:    429a        .B      CMP      r2,r3
        0x0000d542:    d116        ..      BNE      0xd572 ; am_hal_cmdq_post_block + 68
        0x0000d544:    e9d03204    ...2    LDRD     r3,r2,[r0,#0x10]
        0x0000d548:    4293        .B      CMP      r3,r2
        0x0000d54a:    bf04        ..      ITT      EQ
        0x0000d54c:    2007        .       MOVEQ    r0,#7
        0x0000d54e:    bd80        ..      POPEQ    {r7,pc}
        0x0000d550:    e9d0c308    ....    LDRD     r12,r3,[r0,#0x20]
        0x0000d554:    e9d3e302    ....    LDRD     lr,r3,[r3,#8]
        0x0000d558:    ea41010e    A...    ORR      r1,r1,lr
        0x0000d55c:    e9c21c00    ....    STRD     r1,r12,[r2,#0]
        0x0000d560:    f1020108    ....    ADD      r1,r2,#8
        0x0000d564:    e9c01104    ....    STRD     r1,r1,[r0,#0x10]
        0x0000d568:    fa5ff08c    _...    UXTB     r0,r12
        0x0000d56c:    6018        .`      STR      r0,[r3,#0]
        0x0000d56e:    2000        .       MOVS     r0,#0
        0x0000d570:    bd80        ..      POP      {r7,pc}
        0x0000d572:    2002        .       MOVS     r0,#2
        0x0000d574:    bd80        ..      POP      {r7,pc}
    am_hal_cmdq_release_block
        0x0000d576:    b1a0        ..      CBZ      r0,0xd5a2 ; am_hal_cmdq_release_block + 44
        0x0000d578:    6801        .h      LDR      r1,[r0,#0]
        0x0000d57a:    f64c52cd    L..R    MOV      r2,#0xcdcd
        0x0000d57e:    f021417e    !.~A    BIC      r1,r1,#0xfe000000
        0x0000d582:    f2c012cd    ....    MOVT     r2,#0x1cd
        0x0000d586:    4291        .B      CMP      r1,r2
        0x0000d588:    d10b        ..      BNE      0xd5a2 ; am_hal_cmdq_release_block + 44
        0x0000d58a:    e9d01204    ....    LDRD     r1,r2,[r0,#0x10]
        0x0000d58e:    4291        .B      CMP      r1,r2
        0x0000d590:    bf04        ..      ITT      EQ
        0x0000d592:    2007        .       MOVEQ    r0,#7
        0x0000d594:    4770        pG      BXEQ     lr
        0x0000d596:    6a02        .j      LDR      r2,[r0,#0x20]
        0x0000d598:    6141        Aa      STR      r1,[r0,#0x14]
        0x0000d59a:    1e51        Q.      SUBS     r1,r2,#1
        0x0000d59c:    6201        .b      STR      r1,[r0,#0x20]
        0x0000d59e:    2000        .       MOVS     r0,#0
        0x0000d5a0:    4770        pG      BX       lr
        0x0000d5a2:    2002        .       MOVS     r0,#2
        0x0000d5a4:    4770        pG      BX       lr
    am_hal_cmdq_term
        0x0000d5a6:    b5b0        ..      PUSH     {r4,r5,r7,lr}
        0x0000d5a8:    b330        0.      CBZ      r0,0xd5f8 ; am_hal_cmdq_term + 82
        0x0000d5aa:    4604        .F      MOV      r4,r0
        0x0000d5ac:    6800        .h      LDR      r0,[r0,#0]
        0x0000d5ae:    460d        .F      MOV      r5,r1
        0x0000d5b0:    f64c51cd    L..Q    MOV      r1,#0xcdcd
        0x0000d5b4:    f020407e     .~@    BIC      r0,r0,#0xfe000000
        0x0000d5b8:    f2c011cd    ....    MOVT     r1,#0x1cd
        0x0000d5bc:    4288        .B      CMP      r0,r1
        0x0000d5be:    d11b        ..      BNE      0xd5f8 ; am_hal_cmdq_term + 82
        0x0000d5c0:    4620         F      MOV      r0,r4
        0x0000d5c2:    f003fad3    ....    BL       update_indices ; 0x10b6c
        0x0000d5c6:    b92d        -.      CBNZ     r5,0xd5d4 ; am_hal_cmdq_term + 46
        0x0000d5c8:    e9d40107    ....    LDRD     r0,r1,[r4,#0x1c]
        0x0000d5cc:    4288        .B      CMP      r0,r1
        0x0000d5ce:    bf1c        ..      ITT      NE
        0x0000d5d0:    2003        .       MOVNE    r0,#3
        0x0000d5d2:    bdb0        ..      POPNE    {r4,r5,r7,pc}
        0x0000d5d4:    6820         h      LDR      r0,[r4,#0]
        0x0000d5d6:    6a61        aj      LDR      r1,[r4,#0x24]
        0x0000d5d8:    f0207080     ..p    BIC      r0,r0,#0x1000000
        0x0000d5dc:    6020         `      STR      r0,[r4,#0]
        0x0000d5de:    6808        .h      LDR      r0,[r1,#0]
        0x0000d5e0:    690a        .i      LDR      r2,[r1,#0x10]
        0x0000d5e2:    6803        .h      LDR      r3,[r0,#0]
        0x0000d5e4:    f0230301    #...    BIC      r3,r3,#1
        0x0000d5e8:    6003        .`      STR      r3,[r0,#0]
        0x0000d5ea:    6948        Hi      LDR      r0,[r1,#0x14]
        0x0000d5ec:    6811        .h      LDR      r1,[r2,#0]
        0x0000d5ee:    ea210000    !...    BIC      r0,r1,r0
        0x0000d5f2:    6010        .`      STR      r0,[r2,#0]
        0x0000d5f4:    2000        .       MOVS     r0,#0
        0x0000d5f6:    bdb0        ..      POP      {r4,r5,r7,pc}
        0x0000d5f8:    2002        .       MOVS     r0,#2
        0x0000d5fa:    bdb0        ..      POP      {r4,r5,r7,pc}
    am_hal_ctimer_clear
        0x0000d5fc:    b5b0        ..      PUSH     {r4,r5,r7,lr}
        0x0000d5fe:    b082        ..      SUB      sp,sp,#8
        0x0000d600:    460c        .F      MOV      r4,r1
        0x0000d602:    0145        E.      LSLS     r5,r0,#5
        0x0000d604:    f000fbb2    ....    BL       am_hal_interrupt_master_disable ; 0xdd6c
        0x0000d608:    9001        ..      STR      r0,[sp,#4]
        0x0000d60a:    f248000c    H...    MOV      r0,#0x800c
        0x0000d60e:    f2c40000    ....    MOVT     r0,#0x4000
        0x0000d612:    5941        AY      LDR      r1,[r0,r5]
        0x0000d614:    f0042208    ..."    AND      r2,r4,#0x8000800
        0x0000d618:    4311        .C      ORRS     r1,r1,r2
        0x0000d61a:    5141        AQ      STR      r1,[r0,r5]
        0x0000d61c:    9801        ..      LDR      r0,[sp,#4]
        0x0000d61e:    b002        ..      ADD      sp,sp,#8
        0x0000d620:    e8bd40b0    ...@    POP      {r4,r5,r7,lr}
        0x0000d624:    f000bbaa    ....    B.W      am_hal_interrupt_master_set ; 0xdd7c
    am_hal_ctimer_config
        0x0000d628:    e92d41f0    -..A    PUSH     {r4-r8,lr}
        0x0000d62c:    b082        ..      SUB      sp,sp,#8
        0x0000d62e:    460d        .F      MOV      r5,r1
        0x0000d630:    4680        .F      MOV      r8,r0
        0x0000d632:    0146        F.      LSLS     r6,r0,#5
        0x0000d634:    f000fb9a    ....    BL       am_hal_interrupt_master_disable ; 0xdd6c
        0x0000d638:    f248070c    H...    MOV      r7,#0x800c
        0x0000d63c:    9001        ..      STR      r0,[sp,#4]
        0x0000d63e:    f2c40700    ....    MOVT     r7,#0x4000
        0x0000d642:    59b8        .Y      LDR      r0,[r7,r6]
        0x0000d644:    f0402008    @..     ORR      r0,r0,#0x8000800
        0x0000d648:    51b8        .Q      STR      r0,[r7,r6]
        0x0000d64a:    9801        ..      LDR      r0,[sp,#4]
        0x0000d64c:    f000fb96    ....    BL       am_hal_interrupt_master_set ; 0xdd7c
        0x0000d650:    68a9        .h      LDR      r1,[r5,#8]
        0x0000d652:    e9d52000    ...     LDRD     r2,r0,[r5,#0]
        0x0000d656:    ea404401    @..D    ORR      r4,r0,r1,LSL #16
        0x0000d65a:    2a00        .*      CMP      r2,#0
        0x0000d65c:    bf18        ..      IT       NE
        0x0000d65e:    f0444400    D..D    ORRNE    r4,r4,#0x80000000
        0x0000d662:    f000fb83    ....    BL       am_hal_interrupt_master_disable ; 0xdd6c
        0x0000d666:    9000        ..      STR      r0,[sp,#0]
        0x0000d668:    51bc        .Q      STR      r4,[r7,r6]
        0x0000d66a:    9800        ..      LDR      r0,[sp,#0]
        0x0000d66c:    f000fb86    ....    BL       am_hal_interrupt_master_set ; 0xdd7c
        0x0000d670:    6868        hh      LDR      r0,[r5,#4]
        0x0000d672:    b910        ..      CBNZ     r0,0xd67a ; am_hal_ctimer_config + 82
        0x0000d674:    6828        (h      LDR      r0,[r5,#0]
        0x0000d676:    b168        h.      CBZ      r0,0xd694 ; am_hal_ctimer_config + 108
        0x0000d678:    2000        .       MOVS     r0,#0
        0x0000d67a:    2100        .!      MOVS     r1,#0
        0x0000d67c:    f241027c    A.|.    MOV      r2,#0x107c
        0x0000d680:    f2c10201    ....    MOVT     r2,#0x1001
        0x0000d684:    f3c00044    ..D.    UBFX     r0,r0,#1,#5
        0x0000d688:    eb020248    ..H.    ADD      r2,r2,r8,LSL #1
        0x0000d68c:    5450        PT      STRB     r0,[r2,r1]
        0x0000d68e:    b002        ..      ADD      sp,sp,#8
        0x0000d690:    e8bd81f0    ....    POP      {r4-r8,pc}
        0x0000d694:    68a8        .h      LDR      r0,[r5,#8]
        0x0000d696:    2800        .(      CMP      r0,#0
        0x0000d698:    d0f9        ..      BEQ      0xd68e ; am_hal_ctimer_config + 102
        0x0000d69a:    2101        .!      MOVS     r1,#1
        0x0000d69c:    e7ee        ..      B        0xd67c ; am_hal_ctimer_config + 84
    am_hal_ctimer_int_clear
        0x0000d69e:    b510        ..      PUSH     {r4,lr}
        0x0000d6a0:    b082        ..      SUB      sp,sp,#8
        0x0000d6a2:    4604        .F      MOV      r4,r0
        0x0000d6a4:    f000fb62    ..b.    BL       am_hal_interrupt_master_disable ; 0xdd6c
        0x0000d6a8:    9001        ..      STR      r0,[sp,#4]
        0x0000d6aa:    f2482008    H..     MOV      r0,#0x8208
        0x0000d6ae:    f2c40000    ....    MOVT     r0,#0x4000
        0x0000d6b2:    6004        .`      STR      r4,[r0,#0]
        0x0000d6b4:    9801        ..      LDR      r0,[sp,#4]
        0x0000d6b6:    b002        ..      ADD      sp,sp,#8
        0x0000d6b8:    e8bd4010    ...@    POP      {r4,lr}
        0x0000d6bc:    f000bb5e    ..^.    B.W      am_hal_interrupt_master_set ; 0xdd7c
    am_hal_ctimer_int_disable
        0x0000d6c0:    b510        ..      PUSH     {r4,lr}
        0x0000d6c2:    b082        ..      SUB      sp,sp,#8
        0x0000d6c4:    4604        .F      MOV      r4,r0
        0x0000d6c6:    f000fb51    ..Q.    BL       am_hal_interrupt_master_disable ; 0xdd6c
        0x0000d6ca:    9001        ..      STR      r0,[sp,#4]
        0x0000d6cc:    f2482000    H..     MOVW     r0,#0x8200
        0x0000d6d0:    f2c40000    ....    MOVT     r0,#0x4000
        0x0000d6d4:    6801        .h      LDR      r1,[r0,#0]
        0x0000d6d6:    43a1        .C      BICS     r1,r1,r4
        0x0000d6d8:    6001        .`      STR      r1,[r0,#0]
        0x0000d6da:    9801        ..      LDR      r0,[sp,#4]
        0x0000d6dc:    b002        ..      ADD      sp,sp,#8
        0x0000d6de:    e8bd4010    ...@    POP      {r4,lr}
        0x0000d6e2:    f000bb4b    ..K.    B.W      am_hal_interrupt_master_set ; 0xdd7c
    am_hal_ctimer_int_enable
        0x0000d6e6:    b510        ..      PUSH     {r4,lr}
        0x0000d6e8:    b082        ..      SUB      sp,sp,#8
        0x0000d6ea:    4604        .F      MOV      r4,r0
        0x0000d6ec:    f000fb3e    ..>.    BL       am_hal_interrupt_master_disable ; 0xdd6c
        0x0000d6f0:    9001        ..      STR      r0,[sp,#4]
        0x0000d6f2:    f2482000    H..     MOVW     r0,#0x8200
        0x0000d6f6:    f2c40000    ....    MOVT     r0,#0x4000
        0x0000d6fa:    6801        .h      LDR      r1,[r0,#0]
        0x0000d6fc:    4321        !C      ORRS     r1,r1,r4
        0x0000d6fe:    6001        .`      STR      r1,[r0,#0]
        0x0000d700:    9801        ..      LDR      r0,[sp,#4]
        0x0000d702:    b002        ..      ADD      sp,sp,#8
        0x0000d704:    e8bd4010    ...@    POP      {r4,lr}
        0x0000d708:    f000bb38    ..8.    B.W      am_hal_interrupt_master_set ; 0xdd7c
    am_hal_ctimer_int_register
        0x0000d70c:    b510        ..      PUSH     {r4,lr}
        0x0000d70e:    f5b04f00    ...O    CMP      r0,#0x8000
        0x0000d712:    460c        .F      MOV      r4,r1
        0x0000d714:    da10        ..      BGE      0xd738 ; am_hal_ctimer_int_register + 44
        0x0000d716:    287f        .(      CMP      r0,#0x7f
        0x0000d718:    dc20         .      BGT      0xd75c ; am_hal_ctimer_int_register + 80
        0x0000d71a:    280f        .(      CMP      r0,#0xf
        0x0000d71c:    dc5b        [.      BGT      0xd7d6 ; am_hal_ctimer_int_register + 202
        0x0000d71e:    1e41        A.      SUBS     r1,r0,#1
        0x0000d720:    2907        .)      CMP      r1,#7
        0x0000d722:    f2008084    ....    BHI.W    0xd82e ; am_hal_ctimer_int_register + 290
        0x0000d726:    2000        .       MOVS     r0,#0
        0x0000d728:    e8dff001    ....    TBB      [pc,r1]
    $d.2
        0x0000d72c:    86a604ad    ....    DCD    2259027117
        0x0000d730:    88a6a6a6    ....    DCD    2292623014
    $t.3
        0x0000d734:    2001        .       MOVS     r0,#1
        0x0000d736:    e0a6        ..      B        0xd886 ; am_hal_ctimer_int_register + 378
        0x0000d738:    f5b00f00    ....    CMP      r0,#0x800000
        0x0000d73c:    da1c        ..      BGE      0xd778 ; am_hal_ctimer_int_register + 108
        0x0000d73e:    f5b02f00    .../    CMP      r0,#0x80000
        0x0000d742:    da27        '.      BGE      0xd794 ; am_hal_ctimer_int_register + 136
        0x0000d744:    f5b03f00    ...?    CMP      r0,#0x20000
        0x0000d748:    da4d        M.      BGE      0xd7e6 ; am_hal_ctimer_int_register + 218
        0x0000d74a:    f5b04f00    ...O    CMP      r0,#0x8000
        0x0000d74e:    d077        w.      BEQ      0xd840 ; am_hal_ctimer_int_register + 308
        0x0000d750:    f5b03f80    ...?    CMP      r0,#0x10000
        0x0000d754:    f0408090    @...    BNE.W    0xd878 ; am_hal_ctimer_int_register + 364
        0x0000d758:    2010        .       MOVS     r0,#0x10
        0x0000d75a:    e094        ..      B        0xd886 ; am_hal_ctimer_int_register + 378
        0x0000d75c:    f5b06f00    ...o    CMP      r0,#0x800
        0x0000d760:    da23        #.      BGE      0xd7aa ; am_hal_ctimer_int_register + 158
        0x0000d762:    f5b07f00    ....    CMP      r0,#0x200
        0x0000d766:    da44        D.      BGE      0xd7f2 ; am_hal_ctimer_int_register + 230
        0x0000d768:    2880        .(      CMP      r0,#0x80
        0x0000d76a:    d06b        k.      BEQ      0xd844 ; am_hal_ctimer_int_register + 312
        0x0000d76c:    f5b07f80    ....    CMP      r0,#0x100
        0x0000d770:    f0408082    @...    BNE.W    0xd878 ; am_hal_ctimer_int_register + 364
        0x0000d774:    2008        .       MOVS     r0,#8
        0x0000d776:    e086        ..      B        0xd886 ; am_hal_ctimer_int_register + 378
        0x0000d778:    f1b06f00    ...o    CMP      r0,#0x8000000
        0x0000d77c:    da20         .      BGE      0xd7c0 ; am_hal_ctimer_int_register + 180
        0x0000d77e:    f1b07f00    ....    CMP      r0,#0x2000000
        0x0000d782:    da3c        <.      BGE      0xd7fe ; am_hal_ctimer_int_register + 242
        0x0000d784:    f5b00f00    ....    CMP      r0,#0x800000
        0x0000d788:    d05e        ^.      BEQ      0xd848 ; am_hal_ctimer_int_register + 316
        0x0000d78a:    f1b07f80    ....    CMP      r0,#0x1000000
        0x0000d78e:    d173        s.      BNE      0xd878 ; am_hal_ctimer_int_register + 364
        0x0000d790:    2018        .       MOVS     r0,#0x18
        0x0000d792:    e078        x.      B        0xd886 ; am_hal_ctimer_int_register + 378
        0x0000d794:    f5b01f00    ....    CMP      r0,#0x200000
        0x0000d798:    da37        7.      BGE      0xd80a ; am_hal_ctimer_int_register + 254
        0x0000d79a:    f5b02f00    .../    CMP      r0,#0x80000
        0x0000d79e:    d055        U.      BEQ      0xd84c ; am_hal_ctimer_int_register + 320
        0x0000d7a0:    f5b01f80    ....    CMP      r0,#0x100000
        0x0000d7a4:    d168        h.      BNE      0xd878 ; am_hal_ctimer_int_register + 364
        0x0000d7a6:    2014        .       MOVS     r0,#0x14
        0x0000d7a8:    e06d        m.      B        0xd886 ; am_hal_ctimer_int_register + 378
        0x0000d7aa:    f5b05f00    ..._    CMP      r0,#0x2000
        0x0000d7ae:    da32        2.      BGE      0xd816 ; am_hal_ctimer_int_register + 266
        0x0000d7b0:    f5b06f00    ...o    CMP      r0,#0x800
        0x0000d7b4:    d04c        L.      BEQ      0xd850 ; am_hal_ctimer_int_register + 324
        0x0000d7b6:    f5b05f80    ..._    CMP      r0,#0x1000
        0x0000d7ba:    d15d        ].      BNE      0xd878 ; am_hal_ctimer_int_register + 364
        0x0000d7bc:    200c        .       MOVS     r0,#0xc
        0x0000d7be:    e062        b.      B        0xd886 ; am_hal_ctimer_int_register + 378
        0x0000d7c0:    f1b05f00    ..._    CMP      r0,#0x20000000
        0x0000d7c4:    da2d        -.      BGE      0xd822 ; am_hal_ctimer_int_register + 278
        0x0000d7c6:    f1b06f00    ...o    CMP      r0,#0x8000000
        0x0000d7ca:    d043        C.      BEQ      0xd854 ; am_hal_ctimer_int_register + 328
        0x0000d7cc:    f1b05f80    ..._    CMP      r0,#0x10000000
        0x0000d7d0:    d152        R.      BNE      0xd878 ; am_hal_ctimer_int_register + 364
        0x0000d7d2:    201c        .       MOVS     r0,#0x1c
        0x0000d7d4:    e057        W.      B        0xd886 ; am_hal_ctimer_int_register + 378
        0x0000d7d6:    2810        .(      CMP      r0,#0x10
        0x0000d7d8:    d03e        >.      BEQ      0xd858 ; am_hal_ctimer_int_register + 332
        0x0000d7da:    2820         (      CMP      r0,#0x20
        0x0000d7dc:    d03e        >.      BEQ      0xd85c ; am_hal_ctimer_int_register + 336
        0x0000d7de:    2840        @(      CMP      r0,#0x40
        0x0000d7e0:    d14a        J.      BNE      0xd878 ; am_hal_ctimer_int_register + 364
        0x0000d7e2:    2006        .       MOVS     r0,#6
        0x0000d7e4:    e04f        O.      B        0xd886 ; am_hal_ctimer_int_register + 378
        0x0000d7e6:    d03b        ;.      BEQ      0xd860 ; am_hal_ctimer_int_register + 340
        0x0000d7e8:    f5b02f80    .../    CMP      r0,#0x40000
        0x0000d7ec:    d144        D.      BNE      0xd878 ; am_hal_ctimer_int_register + 364
        0x0000d7ee:    2012        .       MOVS     r0,#0x12
        0x0000d7f0:    e049        I.      B        0xd886 ; am_hal_ctimer_int_register + 378
        0x0000d7f2:    d037        7.      BEQ      0xd864 ; am_hal_ctimer_int_register + 344
        0x0000d7f4:    f5b06f80    ...o    CMP      r0,#0x400
        0x0000d7f8:    d13e        >.      BNE      0xd878 ; am_hal_ctimer_int_register + 364
        0x0000d7fa:    200a        .       MOVS     r0,#0xa
        0x0000d7fc:    e043        C.      B        0xd886 ; am_hal_ctimer_int_register + 378
        0x0000d7fe:    d033        3.      BEQ      0xd868 ; am_hal_ctimer_int_register + 348
        0x0000d800:    f1b06f80    ...o    CMP      r0,#0x4000000
        0x0000d804:    d138        8.      BNE      0xd878 ; am_hal_ctimer_int_register + 364
        0x0000d806:    201a        .       MOVS     r0,#0x1a
        0x0000d808:    e03d        =.      B        0xd886 ; am_hal_ctimer_int_register + 378
        0x0000d80a:    d02f        /.      BEQ      0xd86c ; am_hal_ctimer_int_register + 352
        0x0000d80c:    f5b00f80    ....    CMP      r0,#0x400000
        0x0000d810:    d132        2.      BNE      0xd878 ; am_hal_ctimer_int_register + 364
        0x0000d812:    2016        .       MOVS     r0,#0x16
        0x0000d814:    e037        7.      B        0xd886 ; am_hal_ctimer_int_register + 378
        0x0000d816:    d02b        +.      BEQ      0xd870 ; am_hal_ctimer_int_register + 356
        0x0000d818:    f5b04f80    ...O    CMP      r0,#0x4000
        0x0000d81c:    d12c        ,.      BNE      0xd878 ; am_hal_ctimer_int_register + 364
        0x0000d81e:    200e        .       MOVS     r0,#0xe
        0x0000d820:    e031        1.      B        0xd886 ; am_hal_ctimer_int_register + 378
        0x0000d822:    d027        '.      BEQ      0xd874 ; am_hal_ctimer_int_register + 360
        0x0000d824:    f1b04f80    ...O    CMP      r0,#0x40000000
        0x0000d828:    d126        &.      BNE      0xd878 ; am_hal_ctimer_int_register + 364
        0x0000d82a:    201e        .       MOVS     r0,#0x1e
        0x0000d82c:    e02b        +.      B        0xd886 ; am_hal_ctimer_int_register + 378
        0x0000d82e:    f1b04f00    ...O    CMP      r0,#0x80000000
        0x0000d832:    d121        !.      BNE      0xd878 ; am_hal_ctimer_int_register + 364
        0x0000d834:    201f        .       MOVS     r0,#0x1f
        0x0000d836:    e026        &.      B        0xd886 ; am_hal_ctimer_int_register + 378
        0x0000d838:    2002        .       MOVS     r0,#2
        0x0000d83a:    e024        $.      B        0xd886 ; am_hal_ctimer_int_register + 378
        0x0000d83c:    2003        .       MOVS     r0,#3
        0x0000d83e:    e022        ".      B        0xd886 ; am_hal_ctimer_int_register + 378
        0x0000d840:    200f        .       MOVS     r0,#0xf
        0x0000d842:    e020         .      B        0xd886 ; am_hal_ctimer_int_register + 378
        0x0000d844:    2007        .       MOVS     r0,#7
        0x0000d846:    e01e        ..      B        0xd886 ; am_hal_ctimer_int_register + 378
        0x0000d848:    2017        .       MOVS     r0,#0x17
        0x0000d84a:    e01c        ..      B        0xd886 ; am_hal_ctimer_int_register + 378
        0x0000d84c:    2013        .       MOVS     r0,#0x13
        0x0000d84e:    e01a        ..      B        0xd886 ; am_hal_ctimer_int_register + 378
        0x0000d850:    200b        .       MOVS     r0,#0xb
        0x0000d852:    e018        ..      B        0xd886 ; am_hal_ctimer_int_register + 378
        0x0000d854:    201b        .       MOVS     r0,#0x1b
        0x0000d856:    e016        ..      B        0xd886 ; am_hal_ctimer_int_register + 378
        0x0000d858:    2004        .       MOVS     r0,#4
        0x0000d85a:    e014        ..      B        0xd886 ; am_hal_ctimer_int_register + 378
        0x0000d85c:    2005        .       MOVS     r0,#5
        0x0000d85e:    e012        ..      B        0xd886 ; am_hal_ctimer_int_register + 378
        0x0000d860:    2011        .       MOVS     r0,#0x11
        0x0000d862:    e010        ..      B        0xd886 ; am_hal_ctimer_int_register + 378
        0x0000d864:    2009        .       MOVS     r0,#9
        0x0000d866:    e00e        ..      B        0xd886 ; am_hal_ctimer_int_register + 378
        0x0000d868:    2019        .       MOVS     r0,#0x19
        0x0000d86a:    e00c        ..      B        0xd886 ; am_hal_ctimer_int_register + 378
        0x0000d86c:    2015        .       MOVS     r0,#0x15
        0x0000d86e:    e00a        ..      B        0xd886 ; am_hal_ctimer_int_register + 378
        0x0000d870:    200d        .       MOVS     r0,#0xd
        0x0000d872:    e008        ..      B        0xd886 ; am_hal_ctimer_int_register + 378
        0x0000d874:    201d        .       MOVS     r0,#0x1d
        0x0000d876:    e006        ..      B        0xd886 ; am_hal_ctimer_int_register + 378
        0x0000d878:    a006        ..      ADR      r0,{pc}+0x1c ; 0xd894
        0x0000d87a:    a20a        ..      ADR      r2,{pc}+0x2a ; 0xd8a4
        0x0000d87c:    f24011e7    @...    MOV      r1,#0x1e7
        0x0000d880:    f000f8ba    ....    BL       am_hal_debug_error ; 0xd9f8
        0x0000d884:    2000        .       MOVS     r0,#0
        0x0000d886:    f64431e8    D..1    MOV      r1,#0x4be8
        0x0000d88a:    f2c10101    ....    MOVT     r1,#0x1001
        0x0000d88e:    f8414020    A. @    STR      r4,[r1,r0,LSL #2]
        0x0000d892:    bd10        ..      POP      {r4,pc}
    $d.4
        0x0000d894:    685f6d61    am_h    DCD    1751084385
        0x0000d898:    635f6c61    al_c    DCD    1667198049
        0x0000d89c:    656d6974    time    DCD    1701669236
        0x0000d8a0:    00632e72    r.c.    DCD    6499954
        0x0000d8a4:    6d695443    CTim    DCD    1835619395
        0x0000d8a8:    69207265    er i    DCD    1763734117
        0x0000d8ac:    7265746e    nter    DCD    1919251566
        0x0000d8b0:    74707572    rupt    DCD    1953527154
        0x0000d8b4:    6d756e20     num    DCD    1836412448
        0x0000d8b8:    20726562    ber     DCD    544367970
        0x0000d8bc:    2074756f    out     DCD    544503151
        0x0000d8c0:    7220666f    of r    DCD    1914725999
        0x0000d8c4:    65676e61    ange    DCD    1701277281
        0x0000d8c8:    0000002e    ....    DCD    46
    $t.0
    am_hal_ctimer_int_service
        0x0000d8cc:    b5f0        ..      PUSH     {r4-r7,lr}
        0x0000d8ce:    b081        ..      SUB      sp,sp,#4
        0x0000d8d0:    b198        ..      CBZ      r0,0xd8fa ; am_hal_ctimer_int_service + 46
        0x0000d8d2:    f64436e8    D..6    MOV      r6,#0x4be8
        0x0000d8d6:    4604        .F      MOV      r4,r0
        0x0000d8d8:    f04f4500    O..E    MOV      r5,#0x80000000
        0x0000d8dc:    f2c10601    ....    MOVT     r6,#0x1001
        0x0000d8e0:    fab4f784    ....    CLZ      r7,r4
        0x0000d8e4:    f087001f    ....    EOR      r0,r7,#0x1f
        0x0000d8e8:    f8560020    V. .    LDR      r0,[r6,r0,LSL #2]
        0x0000d8ec:    b100        ..      CBZ      r0,0xd8f0 ; am_hal_ctimer_int_service + 36
        0x0000d8ee:    4780        .G      BLX      r0
        0x0000d8f0:    fa25f007    %...    LSR      r0,r5,r7
        0x0000d8f4:    4384        .C      BICS     r4,r4,r0
        0x0000d8f6:    2c00        .,      CMP      r4,#0
        0x0000d8f8:    d1f2        ..      BNE      0xd8e0 ; am_hal_ctimer_int_service + 20
        0x0000d8fa:    b001        ..      ADD      sp,sp,#4
        0x0000d8fc:    bdf0        ..      POP      {r4-r7,pc}
    am_hal_ctimer_int_status_get
        0x0000d8fe:    b570        p.      PUSH     {r4-r6,lr}
        0x0000d900:    b082        ..      SUB      sp,sp,#8
        0x0000d902:    f2482600    H..&    MOVW     r6,#0x8200
        0x0000d906:    4605        .F      MOV      r5,r0
        0x0000d908:    f2c40600    ....    MOVT     r6,#0x4000
        0x0000d90c:    f000fa2e    ....    BL       am_hal_interrupt_master_disable ; 0xdd6c
        0x0000d910:    9001        ..      STR      r0,[sp,#4]
        0x0000d912:    6874        th      LDR      r4,[r6,#4]
        0x0000d914:    b10d        ..      CBZ      r5,0xd91a ; am_hal_ctimer_int_status_get + 28
        0x0000d916:    6830        0h      LDR      r0,[r6,#0]
        0x0000d918:    4004        .@      ANDS     r4,r4,r0
        0x0000d91a:    9801        ..      LDR      r0,[sp,#4]
        0x0000d91c:    f000fa2e    ....    BL       am_hal_interrupt_master_set ; 0xdd7c
        0x0000d920:    4620         F      MOV      r0,r4
        0x0000d922:    b002        ..      ADD      sp,sp,#8
        0x0000d924:    bd70        p.      POP      {r4-r6,pc}
    am_hal_ctimer_period_set
        0x0000d926:    e92d43f0    -..C    PUSH     {r4-r9,lr}
        0x0000d92a:    b081        ..      SUB      sp,sp,#4
        0x0000d92c:    f2480804    H...    MOV      r8,#0x8004
        0x0000d930:    f2c40800    ....    MOVT     r8,#0x4000
        0x0000d934:    461e        .F      MOV      r6,r3
        0x0000d936:    4614        .F      MOV      r4,r2
        0x0000d938:    460d        .F      MOV      r5,r1
        0x0000d93a:    ea4f1940    O.@.    LSL      r9,r0,#5
        0x0000d93e:    eb081740    ..@.    ADD      r7,r8,r0,LSL #5
        0x0000d942:    f000fa13    ....    BL       am_hal_interrupt_master_disable ; 0xdd6c
        0x0000d946:    9000        ..      STR      r0,[sp,#0]
        0x0000d948:    68b8        .h      LDR      r0,[r7,#8]
        0x0000d94a:    f5153f80    ...?    CMN      r5,#0x10000
        0x0000d94e:    bf08        ..      IT       EQ
        0x0000d950:    0c00        ..      LSREQ    r0,r0,#16
        0x0000d952:    f40070c0    ...p    AND      r0,r0,#0x180
        0x0000d956:    2880        .(      CMP      r0,#0x80
        0x0000d958:    4620         F      MOV      r0,r4
        0x0000d95a:    f64f71ff    O..q    MOV      r1,#0xffff
        0x0000d95e:    bf0c        ..      ITE      EQ
        0x0000d960:    1b80        ..      SUBEQ    r0,r0,r6
        0x0000d962:    2400        .$      MOVNE    r4,#0
        0x0000d964:    428d        .B      CMP      r5,r1
        0x0000d966:    eac04104    ...A    PKHBT    r1,r0,r4,LSL #16
        0x0000d96a:    d102        ..      BNE      0xd972 ; am_hal_ctimer_period_set + 76
        0x0000d96c:    f8481009    H...    STR      r1,[r8,r9]
        0x0000d970:    e00c        ..      B        0xd98c ; am_hal_ctimer_period_set + 102
        0x0000d972:    f5153f80    ...?    CMN      r5,#0x10000
        0x0000d976:    f1080204    ....    ADD      r2,r8,#4
        0x0000d97a:    bf0f        ..      ITEEE    EQ
        0x0000d97c:    f8491002    I...    STREQ    r1,[r9,r2]
        0x0000d980:    f8481009    H...    STRNE    r1,[r8,r9]
        0x0000d984:    eac44020    .. @    PKHTBNE  r0,r4,r0,ASR #16
        0x0000d988:    f8490002    I...    STRNE    r0,[r9,r2]
        0x0000d98c:    9800        ..      LDR      r0,[sp,#0]
        0x0000d98e:    b001        ..      ADD      sp,sp,#4
        0x0000d990:    e8bd43f0    ...C    POP      {r4-r9,lr}
        0x0000d994:    f000b9f2    ....    B.W      am_hal_interrupt_master_set ; 0xdd7c
    am_hal_ctimer_start
        0x0000d998:    b570        p.      PUSH     {r4-r6,lr}
        0x0000d99a:    b082        ..      SUB      sp,sp,#8
        0x0000d99c:    460c        .F      MOV      r4,r1
        0x0000d99e:    4605        .F      MOV      r5,r0
        0x0000d9a0:    0146        F.      LSLS     r6,r0,#5
        0x0000d9a2:    f000f9e3    ....    BL       am_hal_interrupt_master_disable ; 0xdd6c
        0x0000d9a6:    9001        ..      STR      r0,[sp,#4]
        0x0000d9a8:    f248000c    H...    MOV      r0,#0x800c
        0x0000d9ac:    f2c40000    ....    MOVT     r0,#0x4000
        0x0000d9b0:    5981        .Y      LDR      r1,[r0,r6]
        0x0000d9b2:    2201        ."      MOVS     r2,#1
        0x0000d9b4:    f06f2308    o..#    MVN      r3,#0x8000800
        0x0000d9b8:    f5143f80    ...?    CMN      r4,#0x10000
        0x0000d9bc:    bf08        ..      IT       EQ
        0x0000d9be:    2211        ."      MOVEQ    r2,#0x11
        0x0000d9c0:    ea630304    c...    ORN      r3,r3,r4
        0x0000d9c4:    fa21f202    !...    LSR      r2,r1,r2
        0x0000d9c8:    4019        .@      ANDS     r1,r1,r3
        0x0000d9ca:    f0041301    ....    AND      r3,r4,#0x10001
        0x0000d9ce:    4319        .C      ORRS     r1,r1,r3
        0x0000d9d0:    f241037c    A.|.    MOV      r3,#0x107c
        0x0000d9d4:    f2c10301    ....    MOVT     r3,#0x1001
        0x0000d9d8:    f002021f    ....    AND      r2,r2,#0x1f
        0x0000d9dc:    eb030345    ..E.    ADD      r3,r3,r5,LSL #1
        0x0000d9e0:    f5143f80    ...?    CMN      r4,#0x10000
        0x0000d9e4:    bf08        ..      IT       EQ
        0x0000d9e6:    3301        .3      ADDEQ    r3,#1
        0x0000d9e8:    701a        .p      STRB     r2,[r3,#0]
        0x0000d9ea:    5181        .Q      STR      r1,[r0,r6]
        0x0000d9ec:    9801        ..      LDR      r0,[sp,#4]
        0x0000d9ee:    b002        ..      ADD      sp,sp,#8
        0x0000d9f0:    e8bd4070    ..p@    POP      {r4-r6,lr}
        0x0000d9f4:    f000b9c2    ....    B.W      am_hal_interrupt_master_set ; 0xdd7c
    am_hal_debug_error
        0x0000d9f8:    e7fe        ..      B        am_hal_debug_error ; 0xd9f8
    am_hal_flash_delay
        0x0000d9fa:    f2440134    D.4.    MOV      r1,#0x4034
        0x0000d9fe:    f2c40100    ....    MOVT     r1,#0x4000
        0x0000da02:    680a        .h      LDR      r2,[r1,#0]
        0x0000da04:    f3c20180    ....    UBFX     r1,r2,#2,#1
        0x0000da08:    4088        .@      LSLS     r0,r0,r1
        0x0000da0a:    210e        .!      MOVS     r1,#0xe
        0x0000da0c:    f0120f04    ....    TST      r2,#4
        0x0000da10:    bf08        ..      IT       EQ
        0x0000da12:    210b        .!      MOVEQ    r1,#0xb
        0x0000da14:    4281        .B      CMP      r1,r0
        0x0000da16:    bf28        (.      IT       CS
        0x0000da18:    4770        pG      BXCS     lr
        0x0000da1a:    1a40        @.      SUBS     r0,r0,r1
        0x0000da1c:    219d        .!      MOVS     r1,#0x9d
        0x0000da1e:    f6c00100    ....    MOVT     r1,#0x800
        0x0000da22:    4708        .G      BX       r1
    am_hal_flash_delay_status_check
        0x0000da24:    e92d4ff0    -..O    PUSH     {r4-r11,lr}
        0x0000da28:    b081        ..      SUB      sp,sp,#4
        0x0000da2a:    f8dd8028    ..(.    LDR      r8,[sp,#0x28]
        0x0000da2e:    f2440934    D.4.    MOV      r9,#0x4034
        0x0000da32:    f2400b9d    @...    MOVW     r11,#0x9d
        0x0000da36:    461c        .F      MOV      r4,r3
        0x0000da38:    4615        .F      MOV      r5,r2
        0x0000da3a:    460e        .F      MOV      r6,r1
        0x0000da3c:    4607        .F      MOV      r7,r0
        0x0000da3e:    f2c40900    ....    MOVT     r9,#0x4000
        0x0000da42:    f04f0a10    O...    MOV      r10,#0x10
        0x0000da46:    f6c00b00    ....    MOVT     r11,#0x800
        0x0000da4a:    bf00        ..      NOP      
        0x0000da4c:    6830        0h      LDR      r0,[r6,#0]
        0x0000da4e:    f1b80f00    ....    CMP      r8,#0
        0x0000da52:    ea000005    ....    AND      r0,r0,r5
        0x0000da56:    d003        ..      BEQ      0xda60 ; am_hal_flash_delay_status_check + 60
        0x0000da58:    42a0        .B      CMP      r0,r4
        0x0000da5a:    d103        ..      BNE      0xda64 ; am_hal_flash_delay_status_check + 64
        0x0000da5c:    e014        ..      B        0xda88 ; am_hal_flash_delay_status_check + 100
        0x0000da5e:    bf00        ..      NOP      
        0x0000da60:    42a0        .B      CMP      r0,r4
        0x0000da62:    d111        ..      BNE      0xda88 ; am_hal_flash_delay_status_check + 100
        0x0000da64:    b197        ..      CBZ      r7,0xda8c ; am_hal_flash_delay_status_check + 104
        0x0000da66:    f8d90000    ....    LDR      r0,[r9,#0]
        0x0000da6a:    3f01        .?      SUBS     r7,#1
        0x0000da6c:    f3c00180    ....    UBFX     r1,r0,#2,#1
        0x0000da70:    f0100f04    ....    TST      r0,#4
        0x0000da74:    f06f000d    o...    MVN      r0,#0xd
        0x0000da78:    bf08        ..      IT       EQ
        0x0000da7a:    f06f000a    o...    MVNEQ    r0,#0xa
        0x0000da7e:    fa0af101    ....    LSL      r1,r10,r1
        0x0000da82:    4408        .D      ADD      r0,r0,r1
        0x0000da84:    47d8        .G      BLX      r11
        0x0000da86:    e7e1        ..      B        0xda4c ; am_hal_flash_delay_status_check + 40
        0x0000da88:    2000        .       MOVS     r0,#0
        0x0000da8a:    e000        ..      B        0xda8e ; am_hal_flash_delay_status_check + 106
        0x0000da8c:    2004        .       MOVS     r0,#4
        0x0000da8e:    b001        ..      ADD      sp,sp,#4
        0x0000da90:    e8bd8ff0    ....    POP      {r4-r11,pc}
    am_hal_flash_load_ui32
        0x0000da94:    2175        u!      MOVS     r1,#0x75
        0x0000da96:    f6c00100    ....    MOVT     r1,#0x800
        0x0000da9a:    4708        .G      BX       r1
    am_hal_flash_store_ui32
        0x0000da9c:    b580        ..      PUSH     {r7,lr}
        0x0000da9e:    b084        ..      SUB      sp,sp,#0x10
        0x0000daa0:    f640624c    @.Lb    MOV      r2,#0xe4c
        0x0000daa4:    f2c00201    ....    MOVT     r2,#1
        0x0000daa8:    e9d23c00    ...<    LDRD     r3,r12,[r2,#0]
        0x0000daac:    6892        .h      LDR      r2,[r2,#8]
        0x0000daae:    e9cd3c01    ...<    STRD     r3,r12,[sp,#4]
        0x0000dab2:    9203        ..      STR      r2,[sp,#0xc]
        0x0000dab4:    aa01        ..      ADD      r2,sp,#4
        0x0000dab6:    3201        .2      ADDS     r2,#1
        0x0000dab8:    4790        .G      BLX      r2
        0x0000daba:    b004        ..      ADD      sp,sp,#0x10
        0x0000dabc:    bd80        ..      POP      {r7,pc}
        0x0000dabe:    0000        ..      MOVS     r0,r0
    am_hal_gpio_pinconfig
        0x0000dac0:    e92d4ff0    -..O    PUSH     {r4-r11,lr}
        0x0000dac4:    b085        ..      SUB      sp,sp,#0x14
        0x0000dac6:    2849        I(      CMP      r0,#0x49
        0x0000dac8:    d904        ..      BLS      0xdad4 ; am_hal_gpio_pinconfig + 20
        0x0000daca:    2506        .%      MOVS     r5,#6
        0x0000dacc:    4628        (F      MOV      r0,r5
        0x0000dace:    b005        ..      ADD      sp,sp,#0x14
        0x0000dad0:    e8bd8ff0    ....    POP      {r4-r11,pc}
        0x0000dad4:    b2ce        ..      UXTB     r6,r1
        0x0000dad6:    4604        .F      MOV      r4,r0
        0x0000dad8:    f2401200    @...    MOVW     r2,#0x100
        0x0000dadc:    f0060307    ....    AND      r3,r6,#7
        0x0000dae0:    2000        .       MOVS     r0,#0
        0x0000dae2:    f6c00200    ....    MOVT     r2,#0x800
        0x0000dae6:    ebb01f56    ..V.    CMP      r0,r6,LSR #5
        0x0000daea:    ea4f00c3    O...    LSL      r0,r3,#3
        0x0000daee:    d01d        ..      BEQ      0xdb2c ; am_hal_gpio_pinconfig + 108
        0x0000daf0:    0977        w.      LSRS     r7,r6,#5
        0x0000daf2:    2ebf        ..      CMP      r6,#0xbf
        0x0000daf4:    f0400001    @...    ORR      r0,r0,#1
        0x0000daf8:    d80d        ..      BHI      0xdb16 ; am_hal_gpio_pinconfig + 86
        0x0000dafa:    2f01        ./      CMP      r7,#1
        0x0000dafc:    d00b        ..      BEQ      0xdb16 ; am_hal_gpio_pinconfig + 86
        0x0000dafe:    f24116e4    A...    MOV      r6,#0x11e4
        0x0000db02:    f2c00601    ....    MOVT     r6,#1
        0x0000db06:    5d36        6]      LDRB     r6,[r6,r4]
        0x0000db08:    4615        .F      MOV      r5,r2
        0x0000db0a:    07f6        ..      LSLS     r6,r6,#31
        0x0000db0c:    d0de        ..      BEQ      0xdacc ; am_hal_gpio_pinconfig + 12
        0x0000db0e:    ea401087    @...    ORR      r0,r0,r7,LSL #6
        0x0000db12:    3880        .8      SUBS     r0,r0,#0x80
        0x0000db14:    e00a        ..      B        0xdb2c ; am_hal_gpio_pinconfig + 108
        0x0000db16:    2f06        ./      CMP      r7,#6
        0x0000db18:    d103        ..      BNE      0xdb22 ; am_hal_gpio_pinconfig + 98
        0x0000db1a:    2c14        .,      CMP      r4,#0x14
        0x0000db1c:    d006        ..      BEQ      0xdb2c ; am_hal_gpio_pinconfig + 108
        0x0000db1e:    1c55        U.      ADDS     r5,r2,#1
        0x0000db20:    e7d4        ..      B        0xdacc ; am_hal_gpio_pinconfig + 12
        0x0000db22:    2c14        .,      CMP      r4,#0x14
        0x0000db24:    d102        ..      BNE      0xdb2c ; am_hal_gpio_pinconfig + 108
        0x0000db26:    2f01        ./      CMP      r7,#1
        0x0000db28:    4615        .F      MOV      r5,r2
        0x0000db2a:    d0cf        ..      BEQ      0xdacc ; am_hal_gpio_pinconfig + 12
        0x0000db2c:    f3c107c1    ....    UBFX     r7,r1,#3,#2
        0x0000db30:    b197        ..      CBZ      r7,0xdb58 ; am_hal_gpio_pinconfig + 152
        0x0000db32:    2f02        ./      CMP      r7,#2
        0x0000db34:    f1020502    ....    ADD      r5,r2,#2
        0x0000db38:    d008        ..      BEQ      0xdb4c ; am_hal_gpio_pinconfig + 140
        0x0000db3a:    2f01        ./      CMP      r7,#1
        0x0000db3c:    d1c6        ..      BNE      0xdacc ; am_hal_gpio_pinconfig + 12
        0x0000db3e:    2c24        $,      CMP      r4,#0x24
        0x0000db40:    d001        ..      BEQ      0xdb46 ; am_hal_gpio_pinconfig + 134
        0x0000db42:    2c03        .,      CMP      r4,#3
        0x0000db44:    d1c2        ..      BNE      0xdacc ; am_hal_gpio_pinconfig + 12
        0x0000db46:    f0400040    @.@.    ORR      r0,r0,#0x40
        0x0000db4a:    e005        ..      B        0xdb58 ; am_hal_gpio_pinconfig + 152
        0x0000db4c:    2c29        ),      CMP      r4,#0x29
        0x0000db4e:    d001        ..      BEQ      0xdb54 ; am_hal_gpio_pinconfig + 148
        0x0000db50:    2c25        %,      CMP      r4,#0x25
        0x0000db52:    d1bb        ..      BNE      0xdacc ; am_hal_gpio_pinconfig + 12
        0x0000db54:    f0400080    @...    ORR      r0,r0,#0x80
        0x0000db58:    f241272e    A..'    MOV      r7,#0x122e
        0x0000db5c:    f2c00701    ....    MOVT     r7,#1
        0x0000db60:    5d3f        ?]      LDRB     r7,[r7,r4]
        0x0000db62:    40df        .@      LSRS     r7,r7,r3
        0x0000db64:    07ff        ..      LSLS     r7,r7,#31
        0x0000db66:    f24137a0    A..7    MOVW     r7,#0x13a0
        0x0000db6a:    f2c00701    ....    MOVT     r7,#1
        0x0000db6e:    5d3f        ?]      LDRB     r7,[r7,r4]
        0x0000db70:    bf18        ..      IT       NE
        0x0000db72:    f0400002    @...    ORRNE    r0,r0,#2
        0x0000db76:    429f        .B      CMP      r7,r3
        0x0000db78:    d127        '.      BNE      0xdbca ; am_hal_gpio_pinconfig + 266
        0x0000db7a:    0c0b        ..      LSRS     r3,r1,#16
        0x0000db7c:    f003070d    ....    AND      r7,r3,#0xd
        0x0000db80:    2f0d        ./      CMP      r7,#0xd
        0x0000db82:    f1020503    ....    ADD      r5,r2,#3
        0x0000db86:    d0a1        ..      BEQ      0xdacc ; am_hal_gpio_pinconfig + 12
        0x0000db88:    07df        ..      LSLS     r7,r3,#31
        0x0000db8a:    d103        ..      BNE      0xdb94 ; am_hal_gpio_pinconfig + 212
        0x0000db8c:    f003070e    ....    AND      r7,r3,#0xe
        0x0000db90:    2f04        ./      CMP      r7,#4
        0x0000db92:    d89b        ..      BHI      0xdacc ; am_hal_gpio_pinconfig + 12
        0x0000db94:    01df        ..      LSLS     r7,r3,#7
        0x0000db96:    f0030330    ..0.    AND      r3,r3,#0x30
        0x0000db9a:    f3c14642    ..BF    UBFX     r6,r1,#17,#3
        0x0000db9e:    b2ff        ..      UXTB     r7,r7
        0x0000dba0:    4433        3D      ADD      r3,r3,r6
        0x0000dba2:    441f        .D      ADD      r7,r7,r3
        0x0000dba4:    f2412378    A.x#    MOV      r3,#0x1278
        0x0000dba8:    f2c00301    ....    MOVT     r3,#1
        0x0000dbac:    eb030684    ....    ADD      r6,r3,r4,LSL #2
        0x0000dbb0:    2300        .#      MOVS     r3,#0
        0x0000dbb2:    bf00        ..      NOP      
        0x0000dbb4:    7835        5x      LDRB     r5,[r6,#0]
        0x0000dbb6:    42af        .B      CMP      r7,r5
        0x0000dbb8:    f0008083    ....    BEQ.W    0xdcc2 ; am_hal_gpio_pinconfig + 514
        0x0000dbbc:    3302        .3      ADDS     r3,#2
        0x0000dbbe:    2b08        .+      CMP      r3,#8
        0x0000dbc0:    f1060601    ....    ADD      r6,r6,#1
        0x0000dbc4:    d1f6        ..      BNE      0xdbb4 ; am_hal_gpio_pinconfig + 244
        0x0000dbc6:    1d15        ..      ADDS     r5,r2,#4
        0x0000dbc8:    e780        ..      B        0xdacc ; am_hal_gpio_pinconfig + 12
        0x0000dbca:    2202        ."      MOVS     r2,#2
        0x0000dbcc:    ea0222d1    ..."    AND      r2,r2,r1,LSR #11
        0x0000dbd0:    4310        .C      ORRS     r0,r0,r2
        0x0000dbd2:    2208        ."      MOVS     r2,#8
        0x0000dbd4:    f3c12381    ...#    UBFX     r3,r1,#10,#2
        0x0000dbd8:    ea022291    ..."    AND      r2,r2,r1,LSR #10
        0x0000dbdc:    ea420243    B.C.    ORR      r2,r2,r3,LSL #1
        0x0000dbe0:    3b01        .;      SUBS     r3,#1
        0x0000dbe2:    1ecf        ..      SUBS     r7,r1,#3
        0x0000dbe4:    fab3f383    ....    CLZ      r3,r3
        0x0000dbe8:    fab7f787    ....    CLZ      r7,r7
        0x0000dbec:    095b        [.      LSRS     r3,r3,#5
        0x0000dbee:    097f        ..      LSRS     r7,r7,#5
        0x0000dbf0:    433b        ;C      ORRS     r3,r3,r7
        0x0000dbf2:    f4114fc0    ...O    TST      r1,#0x6000
        0x0000dbf6:    9303        ..      STR      r3,[sp,#0xc]
        0x0000dbf8:    bf07        ..      ITTEE    EQ
        0x0000dbfa:    f3c133c0    ...3    UBFXEQ   r3,r1,#15,#1
        0x0000dbfe:    ea420c03    B...    ORREQ    r12,r2,r3
        0x0000dc02:    f3c13380    ...3    UBFXNE   r3,r1,#14,#1
        0x0000dc06:    eb020c03    ....    ADDNE    r12,r2,r3
        0x0000dc0a:    0a09        ..      LSRS     r1,r1,#8
        0x0000dc0c:    f0010103    ....    AND      r1,r1,#3
        0x0000dc10:    e8dff001    ....    TBB      [pc,r1]
    $d.1
        0x0000dc14:    06080209    ....    DCD    101188105
    $t.2
        0x0000dc18:    f0400004    @...    ORR      r0,r0,#4
        0x0000dc1c:    2100        .!      MOVS     r1,#0
        0x0000dc1e:    e002        ..      B        0xdc26 ; am_hal_gpio_pinconfig + 358
        0x0000dc20:    f0400004    @...    ORR      r0,r0,#4
        0x0000dc24:    2101        .!      MOVS     r1,#1
        0x0000dc26:    f06f0303    o...    MVN      r3,#3
        0x0000dc2a:    ea030a54    ..T.    AND      r10,r3,r4,LSR #1
        0x0000dc2e:    231c        .#      MOVS     r3,#0x1c
        0x0000dc30:    2518        .%      MOVS     r5,#0x18
        0x0000dc32:    ea030384    ....    AND      r3,r3,r4,LSL #2
        0x0000dc36:    ea0502c4    ....    AND      r2,r5,r4,LSL #3
        0x0000dc3a:    250f        .%      MOVS     r5,#0xf
        0x0000dc3c:    409d        .@      LSLS     r5,r5,r3
        0x0000dc3e:    43ed        .C      MVNS     r5,r5
        0x0000dc40:    2600        .&      MOVS     r6,#0
        0x0000dc42:    9502        ..      STR      r5,[sp,#8]
        0x0000dc44:    25ff        .%      MOVS     r5,#0xff
        0x0000dc46:    fa00f802    ....    LSL      r8,r0,r2
        0x0000dc4a:    fa01f002    ....    LSL      r0,r1,r2
        0x0000dc4e:    f2c40601    ....    MOVT     r6,#0x4001
        0x0000dc52:    4095        .@      LSLS     r5,r5,r2
        0x0000dc54:    9001        ..      STR      r0,[sp,#4]
        0x0000dc56:    fa0cf003    ....    LSL      r0,r12,r3
        0x0000dc5a:    f1060b4c    ..L.    ADD      r11,r6,#0x4c
        0x0000dc5e:    f0240703    $...    BIC      r7,r4,#3
        0x0000dc62:    f10609f8    ....    ADD      r9,r6,#0xf8
        0x0000dc66:    43ed        .C      MVNS     r5,r5
        0x0000dc68:    9000        ..      STR      r0,[sp,#0]
        0x0000dc6a:    f000f87f    ....    BL       am_hal_interrupt_master_disable ; 0xdd6c
        0x0000dc6e:    9903        ..      LDR      r1,[sp,#0xc]
        0x0000dc70:    9004        ..      STR      r0,[sp,#0x10]
        0x0000dc72:    b151        Q.      CBZ      r1,0xdc8a ; am_hal_gpio_pinconfig + 458
        0x0000dc74:    f004001f    ....    AND      r0,r4,#0x1f
        0x0000dc78:    2101        .!      MOVS     r1,#1
        0x0000dc7a:    fa01f000    ....    LSL      r0,r1,r0
        0x0000dc7e:    f3c41141    ..A.    UBFX     r1,r4,#5,#2
        0x0000dc82:    eb060181    ....    ADD      r1,r6,r1,LSL #2
        0x0000dc86:    f8c100c8    ....    STR      r0,[r1,#0xc8]
        0x0000dc8a:    2073        s       MOVS     r0,#0x73
        0x0000dc8c:    6770        pg      STR      r0,[r6,#0x74]
        0x0000dc8e:    59f0        .Y      LDR      r0,[r6,r7]
        0x0000dc90:    4028        (@      ANDS     r0,r0,r5
        0x0000dc92:    ea400008    @...    ORR      r0,r0,r8
        0x0000dc96:    51f0        .Q      STR      r0,[r6,r7]
        0x0000dc98:    f85a000b    Z...    LDR      r0,[r10,r11]
        0x0000dc9c:    9902        ..      LDR      r1,[sp,#8]
        0x0000dc9e:    4008        .@      ANDS     r0,r0,r1
        0x0000dca0:    9900        ..      LDR      r1,[sp,#0]
        0x0000dca2:    4308        .C      ORRS     r0,r0,r1
        0x0000dca4:    f84a000b    J...    STR      r0,[r10,r11]
        0x0000dca8:    f8570009    W...    LDR      r0,[r7,r9]
        0x0000dcac:    9901        ..      LDR      r1,[sp,#4]
        0x0000dcae:    4028        (@      ANDS     r0,r0,r5
        0x0000dcb0:    4308        .C      ORRS     r0,r0,r1
        0x0000dcb2:    2500        .%      MOVS     r5,#0
        0x0000dcb4:    f8470009    G...    STR      r0,[r7,r9]
        0x0000dcb8:    6775        ug      STR      r5,[r6,#0x74]
        0x0000dcba:    9804        ..      LDR      r0,[sp,#0x10]
        0x0000dcbc:    f000f85e    ..^.    BL       am_hal_interrupt_master_set ; 0xdd7c
        0x0000dcc0:    e704        ..      B        0xdacc ; am_hal_gpio_pinconfig + 12
        0x0000dcc2:    2208        ."      MOVS     r2,#8
        0x0000dcc4:    ea0242d1    ...B    AND      r2,r2,r1,LSR #19
        0x0000dcc8:    ea430c02    C...    ORR      r12,r3,r2
        0x0000dccc:    2200        ."      MOVS     r2,#0
        0x0000dcce:    9203        ..      STR      r2,[sp,#0xc]
        0x0000dcd0:    e79b        ..      B        0xdc0a ; am_hal_gpio_pinconfig + 330
        0x0000dcd2:    0000        ..      MOVS     r0,r0
    am_hal_gpio_state_write
        0x0000dcd4:    b5b0        ..      PUSH     {r4,r5,r7,lr}
        0x0000dcd6:    b082        ..      SUB      sp,sp,#8
        0x0000dcd8:    2849        I(      CMP      r0,#0x49
        0x0000dcda:    d901        ..      BLS      0xdce0 ; am_hal_gpio_state_write + 12
        0x0000dcdc:    2405        .$      MOVS     r4,#5
        0x0000dcde:    e040        @.      B        0xdd62 ; am_hal_gpio_state_write + 142
        0x0000dce0:    460d        .F      MOV      r5,r1
        0x0000dce2:    2905        .)      CMP      r1,#5
        0x0000dce4:    d901        ..      BLS      0xdcea ; am_hal_gpio_state_write + 22
        0x0000dce6:    2406        .$      MOVS     r4,#6
        0x0000dce8:    e03b        ;.      B        0xdd62 ; am_hal_gpio_state_write + 142
        0x0000dcea:    4604        .F      MOV      r4,r0
        0x0000dcec:    f000f83e    ..>.    BL       am_hal_interrupt_master_disable ; 0xdd6c
        0x0000dcf0:    2d05        .-      CMP      r5,#5
        0x0000dcf2:    9001        ..      STR      r0,[sp,#4]
        0x0000dcf4:    d838        8.      BHI      0xdd68 ; am_hal_gpio_state_write + 148
        0x0000dcf6:    f004001f    ....    AND      r0,r4,#0x1f
        0x0000dcfa:    2101        .!      MOVS     r1,#1
        0x0000dcfc:    fa01f000    ....    LSL      r0,r1,r0
        0x0000dd00:    210c        .!      MOVS     r1,#0xc
        0x0000dd02:    ea0101d4    ....    AND      r1,r1,r4,LSR #3
        0x0000dd06:    e8dff005    ....    TBB      [pc,r5]
    $d.6
        0x0000dd0a:    0903        ..      DCW    2307
        0x0000dd0c:    211b160f    ...!    DCD    555423247
    $t.7
        0x0000dd10:    228c        ."      MOVS     r2,#0x8c
        0x0000dd12:    f2c40201    ....    MOVT     r2,#0x4001
        0x0000dd16:    4411        .D      ADD      r1,r1,r2
        0x0000dd18:    6188        .a      STR      r0,[r1,#0x18]
        0x0000dd1a:    e01e        ..      B        0xdd5a ; am_hal_gpio_state_write + 134
        0x0000dd1c:    228c        ."      MOVS     r2,#0x8c
        0x0000dd1e:    f2c40201    ....    MOVT     r2,#0x4001
        0x0000dd22:    4411        .D      ADD      r1,r1,r2
        0x0000dd24:    60c8        .`      STR      r0,[r1,#0xc]
        0x0000dd26:    e018        ..      B        0xdd5a ; am_hal_gpio_state_write + 134
        0x0000dd28:    228c        ."      MOVS     r2,#0x8c
        0x0000dd2a:    f2c40201    ....    MOVT     r2,#0x4001
        0x0000dd2e:    588b        .X      LDR      r3,[r1,r2]
        0x0000dd30:    4058        X@      EORS     r0,r0,r3
        0x0000dd32:    5088        .P      STR      r0,[r1,r2]
        0x0000dd34:    e011        ..      B        0xdd5a ; am_hal_gpio_state_write + 134
        0x0000dd36:    228c        ."      MOVS     r2,#0x8c
        0x0000dd38:    f2c40201    ....    MOVT     r2,#0x4001
        0x0000dd3c:    4411        .D      ADD      r1,r1,r2
        0x0000dd3e:    e00b        ..      B        0xdd58 ; am_hal_gpio_state_write + 132
        0x0000dd40:    228c        ."      MOVS     r2,#0x8c
        0x0000dd42:    f2c40201    ....    MOVT     r2,#0x4001
        0x0000dd46:    4411        .D      ADD      r1,r1,r2
        0x0000dd48:    6308        .c      STR      r0,[r1,#0x30]
        0x0000dd4a:    e006        ..      B        0xdd5a ; am_hal_gpio_state_write + 134
        0x0000dd4c:    228c        ."      MOVS     r2,#0x8c
        0x0000dd4e:    f2c40201    ....    MOVT     r2,#0x4001
        0x0000dd52:    4411        .D      ADD      r1,r1,r2
        0x0000dd54:    6bca        .k      LDR      r2,[r1,#0x3c]
        0x0000dd56:    4050        P@      EORS     r0,r0,r2
        0x0000dd58:    63c8        .c      STR      r0,[r1,#0x3c]
        0x0000dd5a:    2400        .$      MOVS     r4,#0
        0x0000dd5c:    9801        ..      LDR      r0,[sp,#4]
        0x0000dd5e:    f000f80d    ....    BL       am_hal_interrupt_master_set ; 0xdd7c
        0x0000dd62:    4620         F      MOV      r0,r4
        0x0000dd64:    b002        ..      ADD      sp,sp,#8
        0x0000dd66:    bdb0        ..      POP      {r4,r5,r7,pc}
        0x0000dd68:    2406        .$      MOVS     r4,#6
        0x0000dd6a:    e7f7        ..      B        0xdd5c ; am_hal_gpio_state_write + 136
    am_hal_interrupt_master_disable
        0x0000dd6c:    f3ef8010    ....    MRS      r0,PRIMASK
        0x0000dd70:    b672        r.      CPSID    i
        0x0000dd72:    4770        pG      BX       lr
    am_hal_interrupt_master_enable
        0x0000dd74:    f3ef8010    ....    MRS      r0,PRIMASK
        0x0000dd78:    b662        b.      CPSIE    i
        0x0000dd7a:    4770        pG      BX       lr
    am_hal_interrupt_master_set
        0x0000dd7c:    f3808810    ....    MSR      PRIMASK,r0
        0x0000dd80:    4770        pG      BX       lr
    am_hal_iom_CQAddTransaction
        0x0000dd82:    e92d47f0    -..G    PUSH     {r4-r10,lr}
        0x0000dd86:    b082        ..      SUB      sp,sp,#8
        0x0000dd88:    4605        .F      MOV      r5,r0
        0x0000dd8a:    6a40        @j      LDR      r0,[r0,#0x24]
        0x0000dd8c:    f5b07f80    ....    CMP      r0,#0x100
        0x0000dd90:    d00a        ..      BEQ      0xdda8 ; am_hal_iom_CQAddTransaction + 38
        0x0000dd92:    f8d50828    ..(.    LDR      r0,[r5,#0x828]
        0x0000dd96:    4698        .F      MOV      r8,r3
        0x0000dd98:    4691        .F      MOV      r9,r2
        0x0000dd9a:    460f        .F      MOV      r7,r1
        0x0000dd9c:    aa01        ..      ADD      r2,sp,#4
        0x0000dd9e:    466b        kF      MOV      r3,sp
        0x0000dda0:    210b        .!      MOVS     r1,#0xb
        0x0000dda2:    f7fffa7d    ..}.    BL       am_hal_cmdq_alloc_block ; 0xd2a0
        0x0000dda6:    b118        ..      CBZ      r0,0xddb0 ; am_hal_iom_CQAddTransaction + 46
        0x0000dda8:    2005        .       MOVS     r0,#5
        0x0000ddaa:    b002        ..      ADD      sp,sp,#8
        0x0000ddac:    e8bd87f0    ....    POP      {r4-r10,pc}
        0x0000ddb0:    686c        lh      LDR      r4,[r5,#4]
        0x0000ddb2:    f2440100    D...    MOVW     r1,#0x4000
        0x0000ddb6:    f2c50100    ....    MOVT     r1,#0x5000
        0x0000ddba:    eb013c04    ...<    ADD      r12,r1,r4,LSL #12
        0x0000ddbe:    f2442120    D. !    MOV      r1,#0x4220
        0x0000ddc2:    9801        ..      LDR      r0,[sp,#4]
        0x0000ddc4:    f2c50100    ....    MOVT     r1,#0x5000
        0x0000ddc8:    f8d7e008    ....    LDR      lr,[r7,#8]
        0x0000ddcc:    eb013104    ...1    ADD      r1,r1,r4,LSL #12
        0x0000ddd0:    6101        .a      STR      r1,[r0,#0x10]
        0x0000ddd2:    f3ce210f    ...!    UBFX     r1,lr,#8,#16
        0x0000ddd6:    6141        Aa      STR      r1,[r0,#0x14]
        0x0000ddd8:    f2444104    D..A    MOV      r1,#0x4404
        0x0000dddc:    f2c50100    ....    MOVT     r1,#0x5000
        0x0000dde0:    eb013104    ...1    ADD      r1,r1,r4,LSL #12
        0x0000dde4:    6181        .a      STR      r1,[r0,#0x18]
        0x0000dde6:    f2442288    D.."    MOV      r2,#0x4288
        0x0000ddea:    683b        ;h      LDR      r3,[r7,#0]
        0x0000ddec:    f2c50200    ....    MOVT     r2,#0x5000
        0x0000ddf0:    eb023204    ...2    ADD      r2,r2,r4,LSL #12
        0x0000ddf4:    f36f239f    o..#    BFC      r3,#10,#22
        0x0000ddf8:    6282        .b      STR      r2,[r0,#0x28]
        0x0000ddfa:    f244228c    D.."    MOV      r2,#0x428c
        0x0000ddfe:    61c3        .a      STR      r3,[r0,#0x1c]
        0x0000de00:    f2442380    D..#    MOVW     r3,#0x4280
        0x0000de04:    f2c50200    ....    MOVT     r2,#0x5000
        0x0000de08:    f897a010    ....    LDRB     r10,[r7,#0x10]
        0x0000de0c:    f2c50300    ....    MOVT     r3,#0x5000
        0x0000de10:    eb023204    ...2    ADD      r2,r2,r4,LSL #12
        0x0000de14:    eb033604    ...6    ADD      r6,r3,r4,LSL #12
        0x0000de18:    2300        .#      MOVS     r3,#0
        0x0000de1a:    6302        .c      STR      r2,[r0,#0x30]
        0x0000de1c:    2218        ."      MOVS     r2,#0x18
        0x0000de1e:    68f9        .h      LDR      r1,[r7,#0xc]
        0x0000de20:    6206        .b      STR      r6,[r0,#0x20]
        0x0000de22:    6243        Cb      STR      r3,[r0,#0x24]
        0x0000de24:    f1ba0f00    ....    CMP      r10,#0
        0x0000de28:    bf08        ..      IT       EQ
        0x0000de2a:    2214        ."      MOVEQ    r2,#0x14
        0x0000de2c:    58ba        .X      LDR      r2,[r7,r2]
        0x0000de2e:    6386        .c      STR      r6,[r0,#0x38]
        0x0000de30:    6342        Bc      STR      r2,[r0,#0x34]
        0x0000de32:    7fba        ..      LDRB     r2,[r7,#0x1e]
        0x0000de34:    460e        .F      MOV      r6,r1
        0x0000de36:    62c1        .b      STR      r1,[r0,#0x2c]
        0x0000de38:    f0020201    ....    AND      r2,r2,#1
        0x0000de3c:    2900        .)      CMP      r1,#0
        0x0000de3e:    bf18        ..      IT       NE
        0x0000de40:    2601        .&      MOVNE    r6,#1
        0x0000de42:    f1ba0f00    ....    CMP      r10,#0
        0x0000de46:    bf08        ..      IT       EQ
        0x0000de48:    3602        .6      ADDEQ    r6,#2
        0x0000de4a:    ea462202    F.."    ORR      r2,r6,r2,LSL #8
        0x0000de4e:    63c2        .c      STR      r2,[r0,#0x3c]
        0x0000de50:    f244221c    D.."    MOV      r2,#0x421c
        0x0000de54:    7a2e        .z      LDRB     r6,[r5,#8]
        0x0000de56:    f2c50200    ....    MOVT     r2,#0x5000
        0x0000de5a:    eb023204    ...2    ADD      r2,r2,r4,LSL #12
        0x0000de5e:    6402        .d      STR      r2,[r0,#0x40]
        0x0000de60:    b10e        ..      CBZ      r6,0xde66 ; am_hal_iom_CQAddTransaction + 228
        0x0000de62:    6443        Cd      STR      r3,[r0,#0x44]
        0x0000de64:    e009        ..      B        0xde7a ; am_hal_iom_CQAddTransaction + 248
        0x0000de66:    683a        :h      LDR      r2,[r7,#0]
        0x0000de68:    f44f1340    O.@.    MOV      r3,#0x300000
        0x0000de6c:    442a        *D      ADD      r2,r2,r5
        0x0000de6e:    f89228a0    ...(    LDRB     r2,[r2,#0x8a0]
        0x0000de72:    6442        Bd      STR      r2,[r0,#0x44]
        0x0000de74:    683a        :h      LDR      r2,[r7,#0]
        0x0000de76:    ea035302    ...S    AND      r3,r3,r2,LSL #20
        0x0000de7a:    f64f7600    O..v    MOVW     r6,#0xff00
        0x0000de7e:    f2c0060f    ....    MOVT     r6,#0xf
        0x0000de82:    ea062101    ...!    AND      r1,r6,r1,LSL #8
        0x0000de86:    2601        .&      MOVS     r6,#1
        0x0000de88:    7f3a        :.      LDRB     r2,[r7,#0x1c]
        0x0000de8a:    687c        |h      LDR      r4,[r7,#4]
        0x0000de8c:    f1ba0f01    ....    CMP      r10,#1
        0x0000de90:    bf08        ..      IT       EQ
        0x0000de92:    2602        .&      MOVEQ    r6,#2
        0x0000de94:    ea46660e    F..f    ORR      r6,r6,lr,LSL #24
        0x0000de98:    4431        1D      ADD      r1,r1,r6
        0x0000de9a:    f0020201    ....    AND      r2,r2,#1
        0x0000de9e:    4319        .C      ORRS     r1,r1,r3
        0x0000dea0:    f0040403    ....    AND      r4,r4,#3
        0x0000dea4:    ea4111c2    A...    ORR      r1,r1,r2,LSL #7
        0x0000dea8:    ea411144    A.D.    ORR      r1,r1,r4,LSL #5
        0x0000deac:    f50c7206    ...r    ADD      r2,r12,#0x218
        0x0000deb0:    e9c02112    ...!    STRD     r2,r1,[r0,#0x48]
        0x0000deb4:    f8d52838    ..8(    LDR      r2,[r5,#0x838]
        0x0000deb8:    f50c732a    ..*s    ADD      r3,r12,#0x2a8
        0x0000debc:    f44f4100    O..A    MOV      r1,#0x8000
        0x0000dec0:    2a02        .*      CMP      r2,#2
        0x0000dec2:    6003        .`      STR      r3,[r0,#0]
        0x0000dec4:    6083        .`      STR      r3,[r0,#8]
        0x0000dec6:    60c1        .`      STR      r1,[r0,#0xc]
        0x0000dec8:    d00c        ..      BEQ      0xdee4 ; am_hal_iom_CQAddTransaction + 354
        0x0000deca:    6a39        9j      LDR      r1,[r7,#0x20]
        0x0000decc:    2a01        .*      CMP      r2,#1
        0x0000dece:    d106        ..      BNE      0xdede ; am_hal_iom_CQAddTransaction + 348
        0x0000ded0:    f24802a0    H...    MOV      r2,#0x80a0
        0x0000ded4:    4311        .C      ORRS     r1,r1,r2
        0x0000ded6:    2202        ."      MOVS     r2,#2
        0x0000ded8:    f8c52838    ..8(    STR      r2,[r5,#0x838]
        0x0000dedc:    e002        ..      B        0xdee4 ; am_hal_iom_CQAddTransaction + 354
        0x0000dede:    f2480280    H...    MOV      r2,#0x8080
        0x0000dee2:    4311        .C      ORRS     r1,r1,r2
        0x0000dee4:    f50c7229    ..)r    ADD      r2,r12,#0x2a4
        0x0000dee8:    6041        A`      STR      r1,[r0,#4]
        0x0000deea:    6a79        yj      LDR      r1,[r7,#0x24]
        0x0000deec:    6502        .e      STR      r2,[r0,#0x50]
        0x0000deee:    f89d2000    ...     LDRB     r2,[sp,#0]
        0x0000def2:    6541        Ae      STR      r1,[r0,#0x54]
        0x0000def4:    eb050082    ....    ADD      r0,r5,r2,LSL #2
        0x0000def8:    f8c09028    ..(.    STR      r9,[r0,#0x28]
        0x0000defc:    f8c08428    ..(.    STR      r8,[r0,#0x428]
        0x0000df00:    2000        .       MOVS     r0,#0
        0x0000df02:    e752        R.      B        0xddaa ; am_hal_iom_CQAddTransaction + 40
    am_hal_iom_CQEnable
        0x0000df04:    6a41        Aj      LDR      r1,[r0,#0x24]
        0x0000df06:    b951        Q.      CBNZ     r1,0xdf1e ; am_hal_iom_CQEnable + 26
        0x0000df08:    6841        Ah      LDR      r1,[r0,#4]
        0x0000df0a:    f2442398    D..#    MOV      r3,#0x4298
        0x0000df0e:    030a        ..      LSLS     r2,r1,#12
        0x0000df10:    f2c50300    ....    MOVT     r3,#0x5000
        0x0000df14:    589a        .X      LDR      r2,[r3,r2]
        0x0000df16:    eb033101    ...1    ADD      r1,r3,r1,LSL #12
        0x0000df1a:    e9c21200    ....    STRD     r1,r2,[r2,#0]
        0x0000df1e:    f8d00828    ..(.    LDR      r0,[r0,#0x828]
        0x0000df22:    f7ffba24    ..$.    B        am_hal_cmdq_enable ; 0xd36e
    am_hal_iom_CQInit
        0x0000df26:    b510        ..      PUSH     {r4,lr}
        0x0000df28:    b084        ..      SUB      sp,sp,#0x10
        0x0000df2a:    4604        .F      MOV      r4,r0
        0x0000df2c:    0849        I.      LSRS     r1,r1,#1
        0x0000df2e:    7900        .y      LDRB     r0,[r0,#4]
        0x0000df30:    f6040c28    ..(.    ADD      r12,r4,#0x828
        0x0000df34:    9101        ..      STR      r1,[sp,#4]
        0x0000df36:    2101        .!      MOVS     r1,#1
        0x0000df38:    2300        .#      MOVS     r3,#0
        0x0000df3a:    9202        ..      STR      r2,[sp,#8]
        0x0000df3c:    f88d100c    ....    STRB     r1,[sp,#0xc]
        0x0000df40:    a901        ..      ADD      r1,sp,#4
        0x0000df42:    4662        bF      MOV      r2,r12
        0x0000df44:    f8c43828    ..(8    STR      r3,[r4,#0x828]
        0x0000df48:    6223        #b      STR      r3,[r4,#0x20]
        0x0000df4a:    f8c4385c    ..\8    STR      r3,[r4,#0x85c]
        0x0000df4e:    f7fffa8f    ....    BL       am_hal_cmdq_init ; 0xd470
        0x0000df52:    b910        ..      CBNZ     r0,0xdf5a ; am_hal_iom_CQInit + 52
        0x0000df54:    f44f7180    O..q    MOV      r1,#0x100
        0x0000df58:    6221        !b      STR      r1,[r4,#0x20]
        0x0000df5a:    b004        ..      ADD      sp,sp,#0x10
        0x0000df5c:    bd10        ..      POP      {r4,pc}
    am_hal_iom_blocking_transfer
        0x0000df5e:    e92d4ff0    -..O    PUSH     {r4-r11,lr}
        0x0000df62:    b087        ..      SUB      sp,sp,#0x1c
        0x0000df64:    b180        ..      CBZ      r0,0xdf88 ; am_hal_iom_blocking_transfer + 42
        0x0000df66:    4604        .F      MOV      r4,r0
        0x0000df68:    6800        .h      LDR      r0,[r0,#0]
        0x0000df6a:    460e        .F      MOV      r6,r1
        0x0000df6c:    f2434156    C.VA    MOV      r1,#0x3456
        0x0000df70:    f020407e     .~@    BIC      r0,r0,#0xfe000000
        0x0000df74:    f2c01112    ....    MOVT     r1,#0x112
        0x0000df78:    4288        .B      CMP      r0,r1
        0x0000df7a:    d105        ..      BNE      0xdf88 ; am_hal_iom_blocking_transfer + 42
        0x0000df7c:    b14e        N.      CBZ      r6,0xdf92 ; am_hal_iom_blocking_transfer + 52
        0x0000df7e:    7c35        5|      LDRB     r5,[r6,#0x10]
        0x0000df80:    2d01        .-      CMP      r5,#1
        0x0000df82:    d908        ..      BLS      0xdf96 ; am_hal_iom_blocking_transfer + 56
        0x0000df84:    2707        .'      MOVS     r7,#7
        0x0000df86:    e000        ..      B        0xdf8a ; am_hal_iom_blocking_transfer + 44
        0x0000df88:    2702        .'      MOVS     r7,#2
        0x0000df8a:    4638        8F      MOV      r0,r7
        0x0000df8c:    b007        ..      ADD      sp,sp,#0x1c
        0x0000df8e:    e8bd8ff0    ....    POP      {r4-r11,pc}
        0x0000df92:    2706        .'      MOVS     r7,#6
        0x0000df94:    e7f9        ..      B        0xdf8a ; am_hal_iom_blocking_transfer + 44
        0x0000df96:    f8d6b00c    ....    LDR      r11,[r6,#0xc]
        0x0000df9a:    4620         F      MOV      r0,r4
        0x0000df9c:    4631        1F      MOV      r1,r6
        0x0000df9e:    2201        ."      MOVS     r2,#1
        0x0000dfa0:    f1bb0f00    ....    CMP      r11,#0
        0x0000dfa4:    bf04        ..      ITT      EQ
        0x0000dfa6:    2500        .%      MOVEQ    r5,#0
        0x0000dfa8:    7435        5t      STRBEQ   r5,[r6,#0x10]
        0x0000dfaa:    f002fdfa    ....    BL       validate_transaction ; 0x10ba2
        0x0000dfae:    4607        .F      MOV      r7,r0
        0x0000dfb0:    2800        .(      CMP      r0,#0
        0x0000dfb2:    d1ea        ..      BNE      0xdf8a ; am_hal_iom_blocking_transfer + 44
        0x0000dfb4:    f894082c    ..,.    LDRB     r0,[r4,#0x82c]
        0x0000dfb8:    2802        .(      CMP      r0,#2
        0x0000dfba:    d0e3        ..      BEQ      0xdf84 ; am_hal_iom_blocking_transfer + 38
        0x0000dfbc:    6860        `h      LDR      r0,[r4,#4]
        0x0000dfbe:    2d00        .-      CMP      r5,#0
        0x0000dfc0:    9006        ..      STR      r0,[sp,#0x18]
        0x0000dfc2:    6870        ph      LDR      r0,[r6,#4]
        0x0000dfc4:    f1040124    ..$.    ADD      r1,r4,#0x24
        0x0000dfc8:    9004        ..      STR      r0,[sp,#0x10]
        0x0000dfca:    68b0        .h      LDR      r0,[r6,#8]
        0x0000dfcc:    f04f0801    O...    MOV      r8,#1
        0x0000dfd0:    9005        ..      STR      r0,[sp,#0x14]
        0x0000dfd2:    7f30        0.      LDRB     r0,[r6,#0x1c]
        0x0000dfd4:    f04f32ff    O..2    MOV      r2,#0xffffffff
        0x0000dfd8:    9003        ..      STR      r0,[sp,#0xc]
        0x0000dfda:    f04f0018    O...    MOV      r0,#0x18
        0x0000dfde:    bf08        ..      IT       EQ
        0x0000dfe0:    2014        .       MOVEQ    r0,#0x14
        0x0000dfe2:    f8569000    V...    LDR      r9,[r6,r0]
        0x0000dfe6:    f8d40860    ..`.    LDR      r0,[r4,#0x860]
        0x0000dfea:    2300        .#      MOVS     r3,#0
        0x0000dfec:    f8cd8000    ....    STR      r8,[sp,#0]
        0x0000dff0:    f7fffd18    ....    BL       am_hal_flash_delay_status_check ; 0xda24
        0x0000dff4:    4607        .F      MOV      r7,r0
        0x0000dff6:    2800        .(      CMP      r0,#0
        0x0000dff8:    d1c7        ..      BNE      0xdf8a ; am_hal_iom_blocking_transfer + 44
        0x0000dffa:    f24421b4    D..!    MOV      r1,#0x42b4
        0x0000dffe:    9a06        ..      LDR      r2,[sp,#0x18]
        0x0000e000:    f2c50100    ....    MOVT     r1,#0x5000
        0x0000e004:    f8d40860    ..`.    LDR      r0,[r4,#0x860]
        0x0000e008:    eb013a02    ...:    ADD      r10,r1,r2,LSL #12
        0x0000e00c:    4651        QF      MOV      r1,r10
        0x0000e00e:    2206        ."      MOVS     r2,#6
        0x0000e010:    2304        .#      MOVS     r3,#4
        0x0000e012:    f8cd8000    ....    STR      r8,[sp,#0]
        0x0000e016:    f7fffd05    ....    BL       am_hal_flash_delay_status_check ; 0xda24
        0x0000e01a:    4607        .F      MOV      r7,r0
        0x0000e01c:    2800        .(      CMP      r0,#0
        0x0000e01e:    d1b4        ..      BNE      0xdf8a ; am_hal_iom_blocking_transfer + 44
        0x0000e020:    f2440000    D...    MOVW     r0,#0x4000
        0x0000e024:    9906        ..      LDR      r1,[sp,#0x18]
        0x0000e026:    f2c50000    ....    MOVT     r0,#0x5000
        0x0000e02a:    f8cda008    ....    STR      r10,[sp,#8]
        0x0000e02e:    eb003a01    ...:    ADD      r10,r0,r1,LSL #12
        0x0000e032:    f8da0200    ....    LDR      r0,[r10,#0x200]
        0x0000e036:    9006        ..      STR      r0,[sp,#0x18]
        0x0000e038:    2000        .       MOVS     r0,#0
        0x0000e03a:    f8ca0200    ....    STR      r0,[r10,#0x200]
        0x0000e03e:    f8da1280    ....    LDR      r1,[r10,#0x280]
        0x0000e042:    f0210101    !...    BIC      r1,r1,#1
        0x0000e046:    f8ca1280    ....    STR      r1,[r10,#0x280]
        0x0000e04a:    f04f31ff    O..1    MOV      r1,#0xffffffff
        0x0000e04e:    f8ca1208    ....    STR      r1,[r10,#0x208]
        0x0000e052:    6831        1h      LDR      r1,[r6,#0]
        0x0000e054:    f8ca1404    ....    STR      r1,[r10,#0x404]
        0x0000e058:    7a21        !z      LDRB     r1,[r4,#8]
        0x0000e05a:    b919        ..      CBNZ     r1,0xe064 ; am_hal_iom_blocking_transfer + 262
        0x0000e05c:    6830        0h      LDR      r0,[r6,#0]
        0x0000e05e:    4420         D      ADD      r0,r0,r4
        0x0000e060:    f89008a0    ....    LDRB     r0,[r0,#0x8a0]
        0x0000e064:    f8ca021c    ....    STR      r0,[r10,#0x21c]
        0x0000e068:    7a20         z      LDRB     r0,[r4,#8]
        0x0000e06a:    b110        ..      CBZ      r0,0xe072 ; am_hal_iom_blocking_transfer + 276
        0x0000e06c:    f04f0c00    O...    MOV      r12,#0
        0x0000e070:    e004        ..      B        0xe07c ; am_hal_iom_blocking_transfer + 286
        0x0000e072:    6830        0h      LDR      r0,[r6,#0]
        0x0000e074:    f44f1140    O.@.    MOV      r1,#0x300000
        0x0000e078:    ea015c00    ...\    AND      r12,r1,r0,LSL #20
        0x0000e07c:    2201        ."      MOVS     r2,#1
        0x0000e07e:    2d01        .-      CMP      r5,#1
        0x0000e080:    bf08        ..      IT       EQ
        0x0000e082:    2202        ."      MOVEQ    r2,#2
        0x0000e084:    9803        ..      LDR      r0,[sp,#0xc]
        0x0000e086:    f64f7100    O..q    MOVW     r1,#0xff00
        0x0000e08a:    f0000301    ....    AND      r3,r0,#1
        0x0000e08e:    9804        ..      LDR      r0,[sp,#0x10]
        0x0000e090:    f2c0010f    ....    MOVT     r1,#0xf
        0x0000e094:    f0000703    ....    AND      r7,r0,#3
        0x0000e098:    9805        ..      LDR      r0,[sp,#0x14]
        0x0000e09a:    ea01210b    ...!    AND      r1,r1,r11,LSL #8
        0x0000e09e:    ea416100    A..a    ORR      r1,r1,r0,LSL #24
        0x0000e0a2:    ea411147    A.G.    ORR      r1,r1,r7,LSL #5
        0x0000e0a6:    4411        .D      ADD      r1,r1,r2
        0x0000e0a8:    f3c0220f    ..."    UBFX     r2,r0,#8,#16
        0x0000e0ac:    f8ca2220    .. "    STR      r2,[r10,#0x220]
        0x0000e0b0:    f24a181f    J...    MOV      r8,#0xa11f
        0x0000e0b4:    ea4111c3    A...    ORR      r1,r1,r3,LSL #7
        0x0000e0b8:    68f6        .h      LDR      r6,[r6,#0xc]
        0x0000e0ba:    f2c00807    ....    MOVT     r8,#7
        0x0000e0be:    2d01        .-      CMP      r5,#1
        0x0000e0c0:    ea41000c    A...    ORR      r0,r1,r12
        0x0000e0c4:    d153        S.      BNE      0xe16e ; am_hal_iom_blocking_transfer + 528
        0x0000e0c6:    2e00        ..      CMP      r6,#0
        0x0000e0c8:    f04f0b00    O...    MOV      r11,#0
        0x0000e0cc:    f8ca0218    ....    STR      r0,[r10,#0x218]
        0x0000e0d0:    f00080a3    ....    BEQ.W    0xe21a ; am_hal_iom_blocking_transfer + 700
        0x0000e0d4:    f8da0100    ....    LDR      r0,[r10,#0x100]
        0x0000e0d8:    2100        .!      MOVS     r1,#0
        0x0000e0da:    f3c04007    ...@    UBFX     r0,r0,#16,#8
        0x0000e0de:    2804        .(      CMP      r0,#4
        0x0000e0e0:    bf38        8.      IT       CC
        0x0000e0e2:    2101        .!      MOVCC    r1,#1
        0x0000e0e4:    4286        .B      CMP      r6,r0
        0x0000e0e6:    f04f0200    O...    MOV      r2,#0
        0x0000e0ea:    bf88        ..      IT       HI
        0x0000e0ec:    2201        ."      MOVHI    r2,#1
        0x0000e0ee:    ea1b0f02    ....    TST      r11,r2
        0x0000e0f2:    d122        ".      BNE      0xe13a ; am_hal_iom_blocking_transfer + 476
        0x0000e0f4:    2803        .(      CMP      r0,#3
        0x0000e0f6:    d820         .      BHI      0xe13a ; am_hal_iom_blocking_transfer + 476
        0x0000e0f8:    2501        .%      MOVS     r5,#1
        0x0000e0fa:    2010        .       MOVS     r0,#0x10
        0x0000e0fc:    f7fffc7d    ..}.    BL       am_hal_flash_delay ; 0xd9fa
        0x0000e100:    f8da0204    ....    LDR      r0,[r10,#0x204]
        0x0000e104:    f8da1100    ....    LDR      r1,[r10,#0x100]
        0x0000e108:    f0000b01    ....    AND      r11,r0,#1
        0x0000e10c:    f3c14007    ...@    UBFX     r0,r1,#16,#8
        0x0000e110:    2804        .(      CMP      r0,#4
        0x0000e112:    f04f0100    O...    MOV      r1,#0
        0x0000e116:    bf38        8.      IT       CC
        0x0000e118:    2101        .!      MOVCC    r1,#1
        0x0000e11a:    4286        .B      CMP      r6,r0
        0x0000e11c:    f04f0200    O...    MOV      r2,#0
        0x0000e120:    bf88        ..      IT       HI
        0x0000e122:    2201        ."      MOVHI    r2,#1
        0x0000e124:    ea1b0f02    ....    TST      r11,r2
        0x0000e128:    d107        ..      BNE      0xe13a ; am_hal_iom_blocking_transfer + 476
        0x0000e12a:    f1080201    ....    ADD      r2,r8,#1
        0x0000e12e:    4295        .B      CMP      r5,r2
        0x0000e130:    d203        ..      BCS      0xe13a ; am_hal_iom_blocking_transfer + 476
        0x0000e132:    2804        .(      CMP      r0,#4
        0x0000e134:    f1050501    ....    ADD      r5,r5,#1
        0x0000e138:    d3df        ..      BCC      0xe0fa ; am_hal_iom_blocking_transfer + 412
        0x0000e13a:    2900        .)      CMP      r1,#0
        0x0000e13c:    f040809c    @...    BNE.W    0xe278 ; am_hal_iom_blocking_transfer + 794
        0x0000e140:    2804        .(      CMP      r0,#4
        0x0000e142:    d30f        ..      BCC      0xe164 ; am_hal_iom_blocking_transfer + 518
        0x0000e144:    b176        v.      CBZ      r6,0xe164 ; am_hal_iom_blocking_transfer + 518
        0x0000e146:    3804        .8      SUBS     r0,#4
        0x0000e148:    f8da1108    ....    LDR      r1,[r10,#0x108]
        0x0000e14c:    2e03        ..      CMP      r6,#3
        0x0000e14e:    d95a        Z.      BLS      0xe206 ; am_hal_iom_blocking_transfer + 680
        0x0000e150:    f8491b04    I...    STR      r1,[r9],#4
        0x0000e154:    3804        .8      SUBS     r0,#4
        0x0000e156:    f1a60104    ....    SUB      r1,r6,#4
        0x0000e15a:    d304        ..      BCC      0xe166 ; am_hal_iom_blocking_transfer + 520
        0x0000e15c:    2e04        ..      CMP      r6,#4
        0x0000e15e:    460e        .F      MOV      r6,r1
        0x0000e160:    d1f2        ..      BNE      0xe148 ; am_hal_iom_blocking_transfer + 490
        0x0000e162:    e000        ..      B        0xe166 ; am_hal_iom_blocking_transfer + 520
        0x0000e164:    4631        1F      MOV      r1,r6
        0x0000e166:    2900        .)      CMP      r1,#0
        0x0000e168:    460e        .F      MOV      r6,r1
        0x0000e16a:    d1b3        ..      BNE      0xe0d4 ; am_hal_iom_blocking_transfer + 374
        0x0000e16c:    e053        S.      B        0xe216 ; am_hal_iom_blocking_transfer + 696
        0x0000e16e:    f8da1100    ....    LDR      r1,[r10,#0x100]
        0x0000e172:    b19e        ..      CBZ      r6,0xe19c ; am_hal_iom_blocking_transfer + 574
        0x0000e174:    f3c12107    ...!    UBFX     r1,r1,#8,#8
        0x0000e178:    2904        .)      CMP      r1,#4
        0x0000e17a:    d30f        ..      BCC      0xe19c ; am_hal_iom_blocking_transfer + 574
        0x0000e17c:    3904        .9      SUBS     r1,#4
        0x0000e17e:    f8592b04    Y..+    LDR      r2,[r9],#4
        0x0000e182:    2e03        ..      CMP      r6,#3
        0x0000e184:    f8ca210c    ...!    STR      r2,[r10,#0x10c]
        0x0000e188:    f04f0200    O...    MOV      r2,#0
        0x0000e18c:    bf88        ..      IT       HI
        0x0000e18e:    1f32        2.      SUBHI    r2,r6,#4
        0x0000e190:    4616        .F      MOV      r6,r2
        0x0000e192:    b11a        ..      CBZ      r2,0xe19c ; am_hal_iom_blocking_transfer + 574
        0x0000e194:    2903        .)      CMP      r1,#3
        0x0000e196:    f1a10104    ....    SUB      r1,r1,#4
        0x0000e19a:    d8f0        ..      BHI      0xe17e ; am_hal_iom_blocking_transfer + 544
        0x0000e19c:    f04f0b00    O...    MOV      r11,#0
        0x0000e1a0:    f8ca0218    ....    STR      r0,[r10,#0x218]
        0x0000e1a4:    b3ce        ..      CBZ      r6,0xe21a ; am_hal_iom_blocking_transfer + 700
        0x0000e1a6:    f04f0b01    O...    MOV      r11,#1
        0x0000e1aa:    f8da0100    ....    LDR      r0,[r10,#0x100]
        0x0000e1ae:    f3c02007    ...     UBFX     r0,r0,#8,#8
        0x0000e1b2:    2803        .(      CMP      r0,#3
        0x0000e1b4:    d811        ..      BHI      0xe1da ; am_hal_iom_blocking_transfer + 636
        0x0000e1b6:    2500        .%      MOVS     r5,#0
        0x0000e1b8:    f8da0204    ....    LDR      r0,[r10,#0x204]
        0x0000e1bc:    4545        EE      CMP      r5,r8
        0x0000e1be:    d82c        ,.      BHI      0xe21a ; am_hal_iom_blocking_transfer + 700
        0x0000e1c0:    f0100001    ....    ANDS     r0,r0,#1
        0x0000e1c4:    d129        ).      BNE      0xe21a ; am_hal_iom_blocking_transfer + 700
        0x0000e1c6:    2010        .       MOVS     r0,#0x10
        0x0000e1c8:    3501        .5      ADDS     r5,#1
        0x0000e1ca:    f7fffc16    ....    BL       am_hal_flash_delay ; 0xd9fa
        0x0000e1ce:    f8da0100    ....    LDR      r0,[r10,#0x100]
        0x0000e1d2:    f3c02007    ...     UBFX     r0,r0,#8,#8
        0x0000e1d6:    2804        .(      CMP      r0,#4
        0x0000e1d8:    d3ee        ..      BCC      0xe1b8 ; am_hal_iom_blocking_transfer + 602
        0x0000e1da:    b186        ..      CBZ      r6,0xe1fe ; am_hal_iom_blocking_transfer + 672
        0x0000e1dc:    3804        .8      SUBS     r0,#4
        0x0000e1de:    f8591b04    Y...    LDR      r1,[r9],#4
        0x0000e1e2:    2e03        ..      CMP      r6,#3
        0x0000e1e4:    f8ca110c    ....    STR      r1,[r10,#0x10c]
        0x0000e1e8:    f04f0100    O...    MOV      r1,#0
        0x0000e1ec:    bf88        ..      IT       HI
        0x0000e1ee:    1f31        1.      SUBHI    r1,r6,#4
        0x0000e1f0:    460e        .F      MOV      r6,r1
        0x0000e1f2:    b129        ).      CBZ      r1,0xe200 ; am_hal_iom_blocking_transfer + 674
        0x0000e1f4:    2803        .(      CMP      r0,#3
        0x0000e1f6:    f1a00004    ....    SUB      r0,r0,#4
        0x0000e1fa:    d8f0        ..      BHI      0xe1de ; am_hal_iom_blocking_transfer + 640
        0x0000e1fc:    e000        ..      B        0xe200 ; am_hal_iom_blocking_transfer + 674
        0x0000e1fe:    2600        .&      MOVS     r6,#0
        0x0000e200:    2e00        ..      CMP      r6,#0
        0x0000e202:    d1d2        ..      BNE      0xe1aa ; am_hal_iom_blocking_transfer + 588
        0x0000e204:    e007        ..      B        0xe216 ; am_hal_iom_blocking_transfer + 696
        0x0000e206:    2000        .       MOVS     r0,#0
        0x0000e208:    f8091000    ....    STRB     r1,[r9,r0]
        0x0000e20c:    3001        .0      ADDS     r0,#1
        0x0000e20e:    4286        .B      CMP      r6,r0
        0x0000e210:    ea4f2111    O..!    LSR      r1,r1,#8
        0x0000e214:    d1f8        ..      BNE      0xe208 ; am_hal_iom_blocking_transfer + 682
        0x0000e216:    f04f0b00    O...    MOV      r11,#0
        0x0000e21a:    9902        ..      LDR      r1,[sp,#8]
        0x0000e21c:    f1080001    ....    ADD      r0,r8,#1
        0x0000e220:    2701        .'      MOVS     r7,#1
        0x0000e222:    2206        ."      MOVS     r2,#6
        0x0000e224:    2304        .#      MOVS     r3,#4
        0x0000e226:    9700        ..      STR      r7,[sp,#0]
        0x0000e228:    f7fffbfc    ....    BL       am_hal_flash_delay_status_check ; 0xda24
        0x0000e22c:    4607        .F      MOV      r7,r0
        0x0000e22e:    b9b0        ..      CBNZ     r0,0xe25e ; am_hal_iom_blocking_transfer + 768
        0x0000e230:    f8da0204    ....    LDR      r0,[r10,#0x204]
        0x0000e234:    f0100f6c    ..l.    TST      r0,#0x6c
        0x0000e238:    d002        ..      BEQ      0xe240 ; am_hal_iom_blocking_transfer + 738
        0x0000e23a:    f04f6700    O..g    MOV      r7,#0x8000000
        0x0000e23e:    e00e        ..      B        0xe25e ; am_hal_iom_blocking_transfer + 768
        0x0000e240:    2701        .'      MOVS     r7,#1
        0x0000e242:    0581        ..      LSLS     r1,r0,#22
        0x0000e244:    f6c00700    ....    MOVT     r7,#0x800
        0x0000e248:    d409        ..      BMI      0xe25e ; am_hal_iom_blocking_transfer + 768
        0x0000e24a:    06c1        ..      LSLS     r1,r0,#27
        0x0000e24c:    d406        ..      BMI      0xe25c ; am_hal_iom_blocking_transfer + 766
        0x0000e24e:    f4004090    ...@    AND      r0,r0,#0x4800
        0x0000e252:    eb10000b    ....    ADDS     r0,r0,r11
        0x0000e256:    d012        ..      BEQ      0xe27e ; am_hal_iom_blocking_transfer + 800
        0x0000e258:    2701        .'      MOVS     r7,#1
        0x0000e25a:    e000        ..      B        0xe25e ; am_hal_iom_blocking_transfer + 768
        0x0000e25c:    3701        .7      ADDS     r7,#1
        0x0000e25e:    f8da1204    ....    LDR      r1,[r10,#0x204]
        0x0000e262:    4620         F      MOV      r0,r4
        0x0000e264:    f002f86e    ..n.    BL       internal_iom_reset_on_error ; 0x10344
        0x0000e268:    f04f30ff    O..0    MOV      r0,#0xffffffff
        0x0000e26c:    f8ca0208    ....    STR      r0,[r10,#0x208]
        0x0000e270:    9806        ..      LDR      r0,[sp,#0x18]
        0x0000e272:    f8ca0200    ....    STR      r0,[r10,#0x200]
        0x0000e276:    e688        ..      B        0xdf8a ; am_hal_iom_blocking_transfer + 44
        0x0000e278:    f04f0b01    O...    MOV      r11,#1
        0x0000e27c:    e7cd        ..      B        0xe21a ; am_hal_iom_blocking_transfer + 700
        0x0000e27e:    2700        .'      MOVS     r7,#0
        0x0000e280:    e7f2        ..      B        0xe268 ; am_hal_iom_blocking_transfer + 778
    am_hal_iom_configure
        0x0000e282:    e92d4ff0    -..O    PUSH     {r4-r11,lr}
        0x0000e286:    b170        p.      CBZ      r0,0xe2a6 ; am_hal_iom_configure + 36
        0x0000e288:    6803        .h      LDR      r3,[r0,#0]
        0x0000e28a:    f2434756    C.VG    MOV      r7,#0x3456
        0x0000e28e:    f023427e    #.~B    BIC      r2,r3,#0xfe000000
        0x0000e292:    f2c01712    ....    MOVT     r7,#0x112
        0x0000e296:    42ba        .B      CMP      r2,r7
        0x0000e298:    d105        ..      BNE      0xe2a6 ; am_hal_iom_configure + 36
        0x0000e29a:    b111        ..      CBZ      r1,0xe2a2 ; am_hal_iom_configure + 32
        0x0000e29c:    6842        Bh      LDR      r2,[r0,#4]
        0x0000e29e:    2a05        .*      CMP      r2,#5
        0x0000e2a0:    d905        ..      BLS      0xe2ae ; am_hal_iom_configure + 44
        0x0000e2a2:    2106        .!      MOVS     r1,#6
        0x0000e2a4:    e000        ..      B        0xe2a8 ; am_hal_iom_configure + 38
        0x0000e2a6:    2102        .!      MOVS     r1,#2
        0x0000e2a8:    4608        .F      MOV      r0,r1
        0x0000e2aa:    e8bd8ff0    ....    POP      {r4-r11,pc}
        0x0000e2ae:    019b        ..      LSLS     r3,r3,#6
        0x0000e2b0:    d440        @.      BMI      0xe334 ; am_hal_iom_configure + 178
        0x0000e2b2:    68cb        .h      LDR      r3,[r1,#0xc]
        0x0000e2b4:    f1b35f80    ..._    CMP      r3,#0x10000000
        0x0000e2b8:    d304        ..      BCC      0xe2c4 ; am_hal_iom_configure + 66
        0x0000e2ba:    2700        .'      MOVS     r7,#0
        0x0000e2bc:    f2c10701    ....    MOVT     r7,#0x1001
        0x0000e2c0:    42bb        .B      CMP      r3,r7
        0x0000e2c2:    d339        9.      BCC      0xe338 ; am_hal_iom_configure + 182
        0x0000e2c4:    780b        .x      LDRB     r3,[r1,#0]
        0x0000e2c6:    f2441704    D...    MOV      r7,#0x4104
        0x0000e2ca:    7203        .r      STRB     r3,[r0,#8]
        0x0000e2cc:    0313        ..      LSLS     r3,r2,#12
        0x0000e2ce:    f2c50700    ....    MOVT     r7,#0x5000
        0x0000e2d2:    f2410610    A...    MOV      r6,#0x1010
        0x0000e2d6:    50fe        .P      STR      r6,[r7,r3]
        0x0000e2d8:    780b        .x      LDRB     r3,[r1,#0]
        0x0000e2da:    f2440700    D...    MOVW     r7,#0x4000
        0x0000e2de:    f2c50700    ....    MOVT     r7,#0x5000
        0x0000e2e2:    2b01        .+      CMP      r3,#1
        0x0000e2e4:    eb073202    ...2    ADD      r2,r7,r2,LSL #12
        0x0000e2e8:    d028        (.      BEQ      0xe33c ; am_hal_iom_configure + 186
        0x0000e2ea:    bb2b        +.      CBNZ     r3,0xe338 ; am_hal_iom_configure + 182
        0x0000e2ec:    f891e008    ....    LDRB     lr,[r1,#8]
        0x0000e2f0:    f1be0f03    ....    CMP      lr,#3
        0x0000e2f4:    d8d5        ..      BHI      0xe2a2 ; am_hal_iom_configure + 32
        0x0000e2f6:    684c        Lh      LDR      r4,[r1,#4]
        0x0000e2f8:    f6464c00    F..L    MOVW     r12,#0x6c00
        0x0000e2fc:    f2c02cdc    ...,    MOVT     r12,#0x2dc
        0x0000e300:    4564        dE      CMP      r4,r12
        0x0000e302:    d8ce        ..      BHI      0xe2a2 ; am_hal_iom_configure + 32
        0x0000e304:    2c00        .,      CMP      r4,#0
        0x0000e306:    d07b        {.      BEQ      0xe400 ; am_hal_iom_configure + 382
        0x0000e308:    fbbcf5f4    ....    UDIV     r5,r12,r4
        0x0000e30c:    fb05c314    ....    MLS      r3,r5,r4,r12
        0x0000e310:    2b00        .+      CMP      r3,#0
        0x0000e312:    bf18        ..      IT       NE
        0x0000e314:    3501        .5      ADDNE    r5,#1
        0x0000e316:    426b        kB      RSBS     r3,r5,#0
        0x0000e318:    402b        +@      ANDS     r3,r3,r5
        0x0000e31a:    fab3f383    ....    CLZ      r3,r3
        0x0000e31e:    f1c3031f    ....    RSB      r3,r3,#0x1f
        0x0000e322:    2b06        .+      CMP      r3,#6
        0x0000e324:    bfa8        ..      IT       GE
        0x0000e326:    2306        .#      MOVGE    r3,#6
        0x0000e328:    f5b46f37    ..7o    CMP      r4,#0xb70
        0x0000e32c:    d83c        <.      BHI      0xe3a8 ; am_hal_iom_configure + 294
        0x0000e32e:    f04f0901    O...    MOV      r9,#1
        0x0000e332:    e049        I.      B        0xe3c8 ; am_hal_iom_configure + 326
        0x0000e334:    2107        .!      MOVS     r1,#7
        0x0000e336:    e7b7        ..      B        0xe2a8 ; am_hal_iom_configure + 38
        0x0000e338:    2105        .!      MOVS     r1,#5
        0x0000e33a:    e7b5        ..      B        0xe2a8 ; am_hal_iom_configure + 38
        0x0000e33c:    684b        Kh      LDR      r3,[r1,#4]
        0x0000e33e:    f2442740    D.@'    MOV      r7,#0x4240
        0x0000e342:    f2c0070f    ....    MOVT     r7,#0xf
        0x0000e346:    42bb        .B      CMP      r3,r7
        0x0000e348:    d016        ..      BEQ      0xe378 ; am_hal_iom_configure + 246
        0x0000e34a:    f6412780    A..'    MOVW     r7,#0x1a80
        0x0000e34e:    f2c00706    ....    MOVT     r7,#6
        0x0000e352:    42bb        .B      CMP      r3,r7
        0x0000e354:    d01b        ..      BEQ      0xe38e ; am_hal_iom_configure + 268
        0x0000e356:    f24867a0    H..g    MOV      r7,#0x86a0
        0x0000e35a:    f2c00701    ....    MOVT     r7,#1
        0x0000e35e:    42bb        .B      CMP      r3,r7
        0x0000e360:    d19f        ..      BNE      0xe2a2 ; am_hal_iom_configure + 32
        0x0000e362:    f24f0370    O.p.    MOV      r3,#0xf070
        0x0000e366:    f2c00303    ....    MOVT     r3,#3
        0x0000e36a:    f8c23400    ...4    STR      r3,[r2,#0x400]
        0x0000e36e:    f2412301    A..#    MOV      r3,#0x1201
        0x0000e372:    f2c7733b    ..;s    MOVT     r3,#0x773b
        0x0000e376:    e0ac        ..      B        0xe4d2 ; am_hal_iom_configure + 592
        0x0000e378:    f2430340    C.@.    MOVW     r3,#0x3040
        0x0000e37c:    f2c00321    ..!.    MOVT     r3,#0x21
        0x0000e380:    f8c23400    ...4    STR      r3,[r2,#0x400]
        0x0000e384:    f2413301    A..3    MOV      r3,#0x1301
        0x0000e388:    f2c06303    ...c    MOVT     r3,#0x603
        0x0000e38c:    e0a1        ..      B        0xe4d2 ; am_hal_iom_configure + 592
        0x0000e38e:    f24f0370    O.p.    MOV      r3,#0xf070
        0x0000e392:    f2c00303    ....    MOVT     r3,#3
        0x0000e396:    f5037300    ...s    ADD      r3,r3,#0x200
        0x0000e39a:    f8c23400    ...4    STR      r3,[r2,#0x400]
        0x0000e39e:    f2412301    A..#    MOV      r3,#0x1201
        0x0000e3a2:    f6c1530e    ...S    MOVT     r3,#0x1d0e
        0x0000e3a6:    e094        ..      B        0xe4d2 ; am_hal_iom_configure + 592
        0x0000e3a8:    f2424600    B..F    MOVW     r6,#0x2400
        0x0000e3ac:    f2c006f4    ....    MOVT     r6,#0xf4
        0x0000e3b0:    42b4        .B      CMP      r4,r6
        0x0000e3b2:    f04f0900    O...    MOV      r9,#0
        0x0000e3b6:    d307        ..      BCC      0xe3c8 ; am_hal_iom_configure + 326
        0x0000e3b8:    f2436600    C..f    MOVW     r6,#0x3600
        0x0000e3bc:    f2c0166e    ..n.    MOVT     r6,#0x16e
        0x0000e3c0:    42b4        .B      CMP      r4,r6
        0x0000e3c2:    bf38        8.      IT       CC
        0x0000e3c4:    f04f0901    O...    MOVCC    r9,#1
        0x0000e3c8:    ea4f0649    O.I.    LSL      r6,r9,#1
        0x0000e3cc:    f1060801    ....    ADD      r8,r6,#1
        0x0000e3d0:    fa08f603    ....    LSL      r6,r8,r3
        0x0000e3d4:    fbb5f7f6    ....    UDIV     r7,r5,r6
        0x0000e3d8:    fb075616    ...V    MLS      r6,r7,r6,r5
        0x0000e3dc:    2e00        ..      CMP      r6,#0
        0x0000e3de:    bf18        ..      IT       NE
        0x0000e3e0:    3701        .7      ADDNE    r7,#1
        0x0000e3e2:    fab7fb87    ....    CLZ      r11,r7
        0x0000e3e6:    f1cb061f    ....    RSB      r6,r11,#0x1f
        0x0000e3ea:    eb030a06    ....    ADD      r10,r3,r6
        0x0000e3ee:    2e07        ..      CMP      r6,#7
        0x0000e3f0:    bf88        ..      IT       HI
        0x0000e3f2:    f1aa0307    ....    SUBHI    r3,r10,#7
        0x0000e3f6:    f1030a01    ....    ADD      r10,r3,#1
        0x0000e3fa:    f1ba0f07    ....    CMP      r10,#7
        0x0000e3fe:    d901        ..      BLS      0xe404 ; am_hal_iom_configure + 386
        0x0000e400:    2301        .#      MOVS     r3,#1
        0x0000e402:    e064        d.      B        0xe4ce ; am_hal_iom_configure + 588
        0x0000e404:    2e08        ..      CMP      r6,#8
        0x0000e406:    d30b        ..      BCC      0xe420 ; am_hal_iom_configure + 414
        0x0000e408:    f1cb0b18    ....    RSB      r11,r11,#0x18
        0x0000e40c:    f04f36ff    O..6    MOV      r6,#0xffffffff
        0x0000e410:    fa06f60b    ....    LSL      r6,r6,r11
        0x0000e414:    43f6        .C      MVNS     r6,r6
        0x0000e416:    4237        7B      TST      r7,r6
        0x0000e418:    fa27f70b    '...    LSR      r7,r7,r11
        0x0000e41c:    bf18        ..      IT       NE
        0x0000e41e:    3701        .7      ADDNE    r7,#1
        0x0000e420:    f6413b00    A..;    MOVW     r11,#0x1b00
        0x0000e424:    f2c00bb7    ....    MOVT     r11,#0xb7
        0x0000e428:    455c        \E      CMP      r4,r11
        0x0000e42a:    f04f0b01    O...    MOV      r11,#1
        0x0000e42e:    f04f0600    O...    MOV      r6,#0
        0x0000e432:    fa0bf403    ....    LSL      r4,r11,r3
        0x0000e436:    bf38        8.      IT       CC
        0x0000e438:    2601        .&      MOVCC    r6,#1
        0x0000e43a:    1b2c        ,.      SUBS     r4,r5,r4
        0x0000e43c:    f44f65e0    O..e    MOV      r5,#0x700
        0x0000e440:    bf18        ..      IT       NE
        0x0000e442:    2401        .$      MOVNE    r4,#1
        0x0000e444:    ea052a0a    ...*    AND      r10,r5,r10,LSL #8
        0x0000e448:    4034        4@      ANDS     r4,r4,r6
        0x0000e44a:    ea4a26c9    J..&    ORR      r6,r10,r9,LSL #11
        0x0000e44e:    f00e09fe    ....    AND      r9,lr,#0xfe
        0x0000e452:    f364360c    d..6    BFI      r6,r4,#12,#1
        0x0000e456:    1e7d        }.      SUBS     r5,r7,#1
        0x0000e458:    f1b90f02    ....    CMP      r9,#2
        0x0000e45c:    fa08f303    ....    LSL      r3,r8,r3
        0x0000e460:    ea466605    F..f    ORR      r6,r6,r5,LSL #24
        0x0000e464:    bf08        ..      IT       EQ
        0x0000e466:    f50775ff    ...u    ADDEQ    r5,r7,#0x1fe
        0x0000e46a:    2c00        .,      CMP      r4,#0
        0x0000e46c:    bf18        ..      IT       NE
        0x0000e46e:    46bb        .F      MOVNE    r11,r7
        0x0000e470:    fb0bf303    ....    MUL      r3,r11,r3
        0x0000e474:    fbbcf4f3    ....    UDIV     r4,r12,r3
        0x0000e478:    fb04c713    ....    MLS      r7,r4,r3,r12
        0x0000e47c:    f24d0c8f    M...    MOV      r12,#0xd08f
        0x0000e480:    ebb70f53    ..S.    CMP      r7,r3,LSR #1
        0x0000e484:    f64d6383    M..c    MOV      r3,#0xde83
        0x0000e488:    f2c4331b    ...3    MOVT     r3,#0x431b
        0x0000e48c:    bf88        ..      IT       HI
        0x0000e48e:    3401        .4      ADDHI    r4,#1
        0x0000e490:    fba43703    ...7    UMULL    r3,r7,r4,r3
        0x0000e494:    f40573ff    ...s    AND      r3,r5,#0x1fe
        0x0000e498:    f2c00c03    ....    MOVT     r12,#3
        0x0000e49c:    ea4633c3    F..3    ORR      r3,r6,r3,LSL #15
        0x0000e4a0:    0c3e        >.      LSRS     r6,r7,#16
        0x0000e4a2:    f10c0501    ....    ADD      r5,r12,#1
        0x0000e4a6:    fb064515    ...E    MLS      r5,r6,r5,r4
        0x0000e4aa:    f04f36ff    O..6    MOV      r6,#0xffffffff
        0x0000e4ae:    eb064617    ...F    ADD      r6,r6,r7,LSR #16
        0x0000e4b2:    ea164f17    ...O    TST      r6,r7,LSR #16
        0x0000e4b6:    461e        .F      MOV      r6,r3
        0x0000e4b8:    bf08        ..      IT       EQ
        0x0000e4ba:    f50a6600    ...f    ADDEQ    r6,r10,#0x800
        0x0000e4be:    2d00        .-      CMP      r5,#0
        0x0000e4c0:    bf18        ..      IT       NE
        0x0000e4c2:    461e        .F      MOVNE    r6,r3
        0x0000e4c4:    4564        dE      CMP      r4,r12
        0x0000e4c6:    bf98        ..      IT       LS
        0x0000e4c8:    461e        .F      MOVLS    r6,r3
        0x0000e4ca:    f0460301    F...    ORR      r3,r6,#1
        0x0000e4ce:    f8c2e300    ....    STR      lr,[r2,#0x300]
        0x0000e4d2:    f8c23210    ...2    STR      r3,[r2,#0x210]
        0x0000e4d6:    690a        .i      LDR      r2,[r1,#0x10]
        0x0000e4d8:    f06f031f    o...    MVN      r3,#0x1f
        0x0000e4dc:    f64a27ab    J..'    MOV      r7,#0xaaab
        0x0000e4e0:    eb030382    ....    ADD      r3,r3,r2,LSL #2
        0x0000e4e4:    f6ca27aa    ...'    MOVT     r7,#0xaaaa
        0x0000e4e8:    fba37607    ...v    UMULL    r7,r6,r3,r7
        0x0000e4ec:    684f        Oh      LDR      r7,[r1,#4]
        0x0000e4ee:    f6464500    F..E    MOVW     r5,#0x6c00
        0x0000e4f2:    f2c025dc    ...%    MOVT     r5,#0x2dc
        0x0000e4f6:    68c9        .h      LDR      r1,[r1,#0xc]
        0x0000e4f8:    fbb5f7f7    ....    UDIV     r7,r5,r7
        0x0000e4fc:    f44f757a    O.zu    MOV      r5,#0x3e8
        0x0000e500:    e9c01203    ....    STRD     r1,r2,[r0,#0xc]
        0x0000e504:    09b1        ..      LSRS     r1,r6,#6
        0x0000e506:    f246025f    F._.    MOV      r2,#0x605f
        0x0000e50a:    f8c05860    ..`X    STR      r5,[r0,#0x860]
        0x0000e50e:    f8c07864    ..dx    STR      r7,[r0,#0x864]
        0x0000e512:    4293        .B      CMP      r3,r2
        0x0000e514:    bf88        ..      IT       HI
        0x0000e516:    f44f7180    O..q    MOVHI    r1,#0x100
        0x0000e51a:    f8c01858    ..X.    STR      r1,[r0,#0x858]
        0x0000e51e:    2100        .!      MOVS     r1,#0
        0x0000e520:    f8c018a0    ....    STR      r1,[r0,#0x8a0]
        0x0000e524:    e6c0        ..      B        0xe2a8 ; am_hal_iom_configure + 38
    am_hal_iom_disable
        0x0000e526:    b510        ..      PUSH     {r4,lr}
        0x0000e528:    b178        x.      CBZ      r0,0xe54a ; am_hal_iom_disable + 36
        0x0000e52a:    4604        .F      MOV      r4,r0
        0x0000e52c:    6800        .h      LDR      r0,[r0,#0]
        0x0000e52e:    f2434256    C.VB    MOV      r2,#0x3456
        0x0000e532:    f020417e     .~A    BIC      r1,r0,#0xfe000000
        0x0000e536:    f2c01212    ....    MOVT     r2,#0x112
        0x0000e53a:    4291        .B      CMP      r1,r2
        0x0000e53c:    d105        ..      BNE      0xe54a ; am_hal_iom_disable + 36
        0x0000e53e:    0180        ..      LSLS     r0,r0,#6
        0x0000e540:    d528        (.      BPL      0xe594 ; am_hal_iom_disable + 110
        0x0000e542:    6a60        `j      LDR      r0,[r4,#0x24]
        0x0000e544:    b118        ..      CBZ      r0,0xe54e ; am_hal_iom_disable + 40
        0x0000e546:    2003        .       MOVS     r0,#3
        0x0000e548:    bd10        ..      POP      {r4,pc}
        0x0000e54a:    2002        .       MOVS     r0,#2
        0x0000e54c:    bd10        ..      POP      {r4,pc}
        0x0000e54e:    6860        `h      LDR      r0,[r4,#4]
        0x0000e550:    f2440100    D...    MOVW     r1,#0x4000
        0x0000e554:    f2c50100    ....    MOVT     r1,#0x5000
        0x0000e558:    eb013000    ...0    ADD      r0,r1,r0,LSL #12
        0x0000e55c:    f8d02214    ..."    LDR      r2,[r0,#0x214]
        0x0000e560:    f0220201    "...    BIC      r2,r2,#1
        0x0000e564:    f8c02214    ..."    STR      r2,[r0,#0x214]
        0x0000e568:    6860        `h      LDR      r0,[r4,#4]
        0x0000e56a:    eb013000    ...0    ADD      r0,r1,r0,LSL #12
        0x0000e56e:    f8d01214    ....    LDR      r1,[r0,#0x214]
        0x0000e572:    f0210110    !...    BIC      r1,r1,#0x10
        0x0000e576:    f8c01214    ....    STR      r1,[r0,#0x214]
        0x0000e57a:    f8d40828    ..(.    LDR      r0,[r4,#0x828]
        0x0000e57e:    b128        (.      CBZ      r0,0xe58c ; am_hal_iom_disable + 102
        0x0000e580:    2101        .!      MOVS     r1,#1
        0x0000e582:    f7fff810    ....    BL       am_hal_cmdq_term ; 0xd5a6
        0x0000e586:    2000        .       MOVS     r0,#0
        0x0000e588:    f8c40828    ..(.    STR      r0,[r4,#0x828]
        0x0000e58c:    6820         h      LDR      r0,[r4,#0]
        0x0000e58e:    f0207000     ..p    BIC      r0,r0,#0x2000000
        0x0000e592:    6020         `      STR      r0,[r4,#0]
        0x0000e594:    2000        .       MOVS     r0,#0
        0x0000e596:    bd10        ..      POP      {r4,pc}
    am_hal_iom_enable
        0x0000e598:    b5b0        ..      PUSH     {r4,r5,r7,lr}
        0x0000e59a:    2800        .(      CMP      r0,#0
        0x0000e59c:    d04b        K.      BEQ      0xe636 ; am_hal_iom_enable + 158
        0x0000e59e:    4604        .F      MOV      r4,r0
        0x0000e5a0:    6800        .h      LDR      r0,[r0,#0]
        0x0000e5a2:    f2434256    C.VB    MOV      r2,#0x3456
        0x0000e5a6:    f020417e     .~A    BIC      r1,r0,#0xfe000000
        0x0000e5aa:    f2c01212    ....    MOVT     r2,#0x112
        0x0000e5ae:    4291        .B      CMP      r1,r2
        0x0000e5b0:    d141        A.      BNE      0xe636 ; am_hal_iom_enable + 158
        0x0000e5b2:    0180        ..      LSLS     r0,r0,#6
        0x0000e5b4:    d445        E.      BMI      0xe642 ; am_hal_iom_enable + 170
        0x0000e5b6:    f2440500    D...    MOVW     r5,#0x4000
        0x0000e5ba:    6861        ah      LDR      r1,[r4,#4]
        0x0000e5bc:    f2c50500    ....    MOVT     r5,#0x5000
        0x0000e5c0:    eb053101    ...1    ADD      r1,r5,r1,LSL #12
        0x0000e5c4:    7a20         z      LDRB     r0,[r4,#8]
        0x0000e5c6:    f8d12214    ..."    LDR      r2,[r1,#0x214]
        0x0000e5ca:    2800        .(      CMP      r0,#0
        0x0000e5cc:    f3c20242    ..B.    UBFX     r2,r2,#1,#3
        0x0000e5d0:    f04f0310    O...    MOV      r3,#0x10
        0x0000e5d4:    bf18        ..      IT       NE
        0x0000e5d6:    2001        .       MOVNE    r0,#1
        0x0000e5d8:    4282        .B      CMP      r2,r0
        0x0000e5da:    bf08        ..      IT       EQ
        0x0000e5dc:    2301        .#      MOVEQ    r3,#1
        0x0000e5de:    f8c13214    ...2    STR      r3,[r1,#0x214]
        0x0000e5e2:    68e0        .h      LDR      r0,[r4,#0xc]
        0x0000e5e4:    b348        H.      CBZ      r0,0xe63a ; am_hal_iom_enable + 162
        0x0000e5e6:    2000        .       MOVS     r0,#0
        0x0000e5e8:    6260        `b      STR      r0,[r4,#0x24]
        0x0000e5ea:    6861        ah      LDR      r1,[r4,#4]
        0x0000e5ec:    2240        @"      MOVS     r2,#0x40
        0x0000e5ee:    eb053101    ...1    ADD      r1,r5,r1,LSL #12
        0x0000e5f2:    f2c00280    ....    MOVT     r2,#0x80
        0x0000e5f6:    61e0        .a      STR      r0,[r4,#0x1c]
        0x0000e5f8:    f8c122a4    ..."    STR      r2,[r1,#0x2a4]
        0x0000e5fc:    f8c40854    ..T.    STR      r0,[r4,#0x854]
        0x0000e600:    f884083c    ..<.    STRB     r0,[r4,#0x83c]
        0x0000e604:    f44f7180    O..q    MOV      r1,#0x100
        0x0000e608:    f8a4182c    ..,.    STRH     r1,[r4,#0x82c]
        0x0000e60c:    e9d42103    ...!    LDRD     r2,r1,[r4,#0xc]
        0x0000e610:    f8c40838    ..8.    STR      r0,[r4,#0x838]
        0x0000e614:    f8c40840    ..@.    STR      r0,[r4,#0x840]
        0x0000e618:    f8c40844    ..D.    STR      r0,[r4,#0x844]
        0x0000e61c:    f8c40830    ..0.    STR      r0,[r4,#0x830]
        0x0000e620:    4620         F      MOV      r0,r4
        0x0000e622:    f7fffc80    ....    BL       am_hal_iom_CQInit ; 0xdf26
        0x0000e626:    6861        ah      LDR      r1,[r4,#4]
        0x0000e628:    2202        ."      MOVS     r2,#2
        0x0000e62a:    eb053101    ...1    ADD      r1,r5,r1,LSL #12
        0x0000e62e:    f8c12240    ..@"    STR      r2,[r1,#0x240]
        0x0000e632:    b110        ..      CBZ      r0,0xe63a ; am_hal_iom_enable + 162
        0x0000e634:    bdb0        ..      POP      {r4,r5,r7,pc}
        0x0000e636:    2002        .       MOVS     r0,#2
        0x0000e638:    bdb0        ..      POP      {r4,r5,r7,pc}
        0x0000e63a:    6820         h      LDR      r0,[r4,#0]
        0x0000e63c:    f0407000    @..p    ORR      r0,r0,#0x2000000
        0x0000e640:    6020         `      STR      r0,[r4,#0]
        0x0000e642:    2000        .       MOVS     r0,#0
        0x0000e644:    bdb0        ..      POP      {r4,r5,r7,pc}
    am_hal_iom_initialize
        0x0000e646:    b580        ..      PUSH     {r7,lr}
        0x0000e648:    2805        .(      CMP      r0,#5
        0x0000e64a:    bf84        ..      ITT      HI
        0x0000e64c:    2005        .       MOVHI    r0,#5
        0x0000e64e:    bd80        ..      POPHI    {r7,pc}
        0x0000e650:    b1d9        ..      CBZ      r1,0xe68a ; am_hal_iom_initialize + 68
        0x0000e652:    f6410c08    A...    MOV      r12,#0x1808
        0x0000e656:    f6400ea4    @...    MOV      lr,#0x8a4
        0x0000e65a:    f2c10c01    ....    MOVT     r12,#0x1001
        0x0000e65e:    fb00f20e    ....    MUL      r2,r0,lr
        0x0000e662:    f85c2002    \..     LDR      r2,[r12,r2]
        0x0000e666:    01d3        ..      LSLS     r3,r2,#7
        0x0000e668:    bf44        D.      ITT      MI
        0x0000e66a:    2007        .       MOVMI    r0,#7
        0x0000e66c:    bd80        ..      POPMI    {r7,pc}
        0x0000e66e:    f2434356    C.VC    MOV      r3,#0x3456
        0x0000e672:    fb00cc0e    ....    MLA      r12,r0,lr,r12
        0x0000e676:    f2c01312    ....    MOVT     r3,#0x112
        0x0000e67a:    f3630219    c...    BFI      r2,r3,#0,#26
        0x0000e67e:    e9cc2000    ...     STRD     r2,r0,[r12,#0]
        0x0000e682:    2000        .       MOVS     r0,#0
        0x0000e684:    f8c1c000    ....    STR      r12,[r1,#0]
        0x0000e688:    bd80        ..      POP      {r7,pc}
        0x0000e68a:    2006        .       MOVS     r0,#6
        0x0000e68c:    bd80        ..      POP      {r7,pc}
    am_hal_iom_interrupt_clear
        0x0000e68e:    b188        ..      CBZ      r0,0xe6b4 ; am_hal_iom_interrupt_clear + 38
        0x0000e690:    6802        .h      LDR      r2,[r0,#0]
        0x0000e692:    f2434356    C.VC    MOV      r3,#0x3456
        0x0000e696:    f022427e    ".~B    BIC      r2,r2,#0xfe000000
        0x0000e69a:    f2c01312    ....    MOVT     r3,#0x112
        0x0000e69e:    429a        .B      CMP      r2,r3
        0x0000e6a0:    d108        ..      BNE      0xe6b4 ; am_hal_iom_interrupt_clear + 38
        0x0000e6a2:    6840        @h      LDR      r0,[r0,#4]
        0x0000e6a4:    f2442208    D.."    MOV      r2,#0x4208
        0x0000e6a8:    0300        ..      LSLS     r0,r0,#12
        0x0000e6aa:    f2c50200    ....    MOVT     r2,#0x5000
        0x0000e6ae:    5011        .P      STR      r1,[r2,r0]
        0x0000e6b0:    2000        .       MOVS     r0,#0
        0x0000e6b2:    4770        pG      BX       lr
        0x0000e6b4:    2002        .       MOVS     r0,#2
        0x0000e6b6:    4770        pG      BX       lr
    am_hal_iom_interrupt_service
        0x0000e6b8:    e92d4ff0    -..O    PUSH     {r4-r11,lr}
        0x0000e6bc:    b085        ..      SUB      sp,sp,#0x14
        0x0000e6be:    2800        .(      CMP      r0,#0
        0x0000e6c0:    d04d        M.      BEQ      0xe75e ; am_hal_iom_interrupt_service + 166
        0x0000e6c2:    4604        .F      MOV      r4,r0
        0x0000e6c4:    6800        .h      LDR      r0,[r0,#0]
        0x0000e6c6:    460d        .F      MOV      r5,r1
        0x0000e6c8:    f2434156    C.VA    MOV      r1,#0x3456
        0x0000e6cc:    f020407e     .~@    BIC      r0,r0,#0xfe000000
        0x0000e6d0:    f2c01112    ....    MOVT     r1,#0x112
        0x0000e6d4:    4288        .B      CMP      r0,r1
        0x0000e6d6:    d142        B.      BNE      0xe75e ; am_hal_iom_interrupt_service + 166
        0x0000e6d8:    f8d4b004    ....    LDR      r11,[r4,#4]
        0x0000e6dc:    f894083c    ..<.    LDRB     r0,[r4,#0x83c]
        0x0000e6e0:    2800        .(      CMP      r0,#0
        0x0000e6e2:    d03e        >.      BEQ      0xe762 ; am_hal_iom_interrupt_service + 170
        0x0000e6e4:    69a0        .i      LDR      r0,[r4,#0x18]
        0x0000e6e6:    ea400105    @...    ORR      r1,r0,r5
        0x0000e6ea:    f6400001    @...    MOV      r0,#0x801
        0x0000e6ee:    4201        .B      TST      r1,r0
        0x0000e6f0:    61a1        .a      STR      r1,[r4,#0x18]
        0x0000e6f2:    f0008097    ....    BEQ.W    0xe824 ; am_hal_iom_interrupt_service + 364
        0x0000e6f6:    f2440000    D...    MOVW     r0,#0x4000
        0x0000e6fa:    f2c50000    ....    MOVT     r0,#0x5000
        0x0000e6fe:    eb00350b    ...5    ADD      r5,r0,r11,LSL #12
        0x0000e702:    f8d50280    ....    LDR      r0,[r5,#0x280]
        0x0000e706:    f644627c    D.|b    MOV      r2,#0x4e7c
        0x0000e70a:    4211        .B      TST      r1,r2
        0x0000e70c:    d103        ..      BNE      0xe716 ; am_hal_iom_interrupt_service + 94
        0x0000e70e:    f0100001    ....    ANDS     r0,r0,#1
        0x0000e712:    f0408087    @...    BNE.W    0xe824 ; am_hal_iom_interrupt_service + 364
        0x0000e716:    f8d40850    ..P.    LDR      r0,[r4,#0x850]
        0x0000e71a:    f8d42848    ..H(    LDR      r2,[r4,#0x848]
        0x0000e71e:    3001        .0      ADDS     r0,#1
        0x0000e720:    fbb0f3f2    ....    UDIV     r3,r0,r2
        0x0000e724:    f8d47840    ..@x    LDR      r7,[r4,#0x840]
        0x0000e728:    fb030212    ....    MLS      r2,r3,r2,r0
        0x0000e72c:    f8d43854    ..T8    LDR      r3,[r4,#0x854]
        0x0000e730:    f8c40850    ..P.    STR      r0,[r4,#0x850]
        0x0000e734:    1e78        x.      SUBS     r0,r7,#1
        0x0000e736:    f8c40840    ..@.    STR      r0,[r4,#0x840]
        0x0000e73a:    eb031042    ..B.    ADD      r0,r3,r2,LSL #5
        0x0000e73e:    4606        .F      MOV      r6,r0
        0x0000e740:    f8562f18    V../    LDR      r2,[r6,#0x18]!
        0x0000e744:    2a00        .*      CMP      r2,#0
        0x0000e746:    f0008081    ....    BEQ.W    0xe84c ; am_hal_iom_interrupt_service + 404
        0x0000e74a:    69c0        .i      LDR      r0,[r0,#0x1c]
        0x0000e74c:    f8d53204    ...2    LDR      r3,[r5,#0x204]
        0x0000e750:    430b        .C      ORRS     r3,r3,r1
        0x0000e752:    f0130f6c    ..l.    TST      r3,#0x6c
        0x0000e756:    d067        g.      BEQ      0xe828 ; am_hal_iom_interrupt_service + 368
        0x0000e758:    f04f6100    O..a    MOV      r1,#0x8000000
        0x0000e75c:    e072        r.      B        0xe844 ; am_hal_iom_interrupt_service + 396
        0x0000e75e:    2602        .&      MOVS     r6,#2
        0x0000e760:    e0ed        ..      B        0xe93e ; am_hal_iom_interrupt_service + 646
        0x0000e762:    6a60        `j      LDR      r0,[r4,#0x24]
        0x0000e764:    2800        .(      CMP      r0,#0
        0x0000e766:    d05d        ].      BEQ      0xe824 ; am_hal_iom_interrupt_service + 364
        0x0000e768:    f8d40828    ..(.    LDR      r0,[r4,#0x828]
        0x0000e76c:    2800        .(      CMP      r0,#0
        0x0000e76e:    f00080d3    ....    BEQ.W    0xe918 ; am_hal_iom_interrupt_service + 608
        0x0000e772:    a901        ..      ADD      r1,sp,#4
        0x0000e774:    f7fefe48    ..H.    BL       am_hal_cmdq_get_status ; 0xd408
        0x0000e778:    4606        .F      MOV      r6,r0
        0x0000e77a:    2800        .(      CMP      r0,#0
        0x0000e77c:    f04080cd    @...    BNE.W    0xe91a ; am_hal_iom_interrupt_service + 610
        0x0000e780:    f04f0800    O...    MOV      r8,#0
        0x0000e784:    f8848834    ..4.    STRB     r8,[r4,#0x834]
        0x0000e788:    69e0        .i      LDR      r0,[r4,#0x1c]
        0x0000e78a:    9901        ..      LDR      r1,[sp,#4]
        0x0000e78c:    4288        .B      CMP      r0,r1
        0x0000e78e:    d01d        ..      BEQ      0xe7cc ; am_hal_iom_interrupt_service + 276
        0x0000e790:    f1040628    ..(.    ADD      r6,r4,#0x28
        0x0000e794:    f5046985    ...i    ADD      r9,r4,#0x428
        0x0000e798:    f8941834    ..4.    LDRB     r1,[r4,#0x834]
        0x0000e79c:    b9b1        ..      CBNZ     r1,0xe7cc ; am_hal_iom_interrupt_service + 276
        0x0000e79e:    3001        .0      ADDS     r0,#1
        0x0000e7a0:    61e0        .a      STR      r0,[r4,#0x1c]
        0x0000e7a2:    6a61        aj      LDR      r1,[r4,#0x24]
        0x0000e7a4:    b2c7        ..      UXTB     r7,r0
        0x0000e7a6:    3901        .9      SUBS     r1,#1
        0x0000e7a8:    6261        ab      STR      r1,[r4,#0x24]
        0x0000e7aa:    f8562027    V.'     LDR      r2,[r6,r7,LSL #2]
        0x0000e7ae:    b14a        J.      CBZ      r2,0xe7c4 ; am_hal_iom_interrupt_service + 268
        0x0000e7b0:    f8590027    Y.'.    LDR      r0,[r9,r7,LSL #2]
        0x0000e7b4:    2100        .!      MOVS     r1,#0
        0x0000e7b6:    4790        .G      BLX      r2
        0x0000e7b8:    f894082c    ..,.    LDRB     r0,[r4,#0x82c]
        0x0000e7bc:    2802        .(      CMP      r0,#2
        0x0000e7be:    bf18        ..      IT       NE
        0x0000e7c0:    f8468027    F.'.    STRNE    r8,[r6,r7,LSL #2]
        0x0000e7c4:    69e0        .i      LDR      r0,[r4,#0x1c]
        0x0000e7c6:    9901        ..      LDR      r1,[sp,#4]
        0x0000e7c8:    4288        .B      CMP      r0,r1
        0x0000e7ca:    d1e5        ..      BNE      0xe798 ; am_hal_iom_interrupt_service + 224
        0x0000e7cc:    f8941834    ..4.    LDRB     r1,[r4,#0x834]
        0x0000e7d0:    f644227c    D.|"    MOV      r2,#0x4a7c
        0x0000e7d4:    ea150802    ....    ANDS     r8,r5,r2
        0x0000e7d8:    f0008098    ....    BEQ.W    0xe90c ; am_hal_iom_interrupt_service + 596
        0x0000e7dc:    2900        .)      CMP      r1,#0
        0x0000e7de:    f0408095    @...    BNE.W    0xe90c ; am_hal_iom_interrupt_service + 596
        0x0000e7e2:    3001        .0      ADDS     r0,#1
        0x0000e7e4:    61e0        .a      STR      r0,[r4,#0x1c]
        0x0000e7e6:    6a61        aj      LDR      r1,[r4,#0x24]
        0x0000e7e8:    fa5ff980    _...    UXTB     r9,r0
        0x0000e7ec:    3901        .9      SUBS     r1,#1
        0x0000e7ee:    6261        ab      STR      r1,[r4,#0x24]
        0x0000e7f0:    f1040a28    ..(.    ADD      r10,r4,#0x28
        0x0000e7f4:    f85a2029    Z.)     LDR      r2,[r10,r9,LSL #2]
        0x0000e7f8:    f2440100    D...    MOVW     r1,#0x4000
        0x0000e7fc:    2a00        .*      CMP      r2,#0
        0x0000e7fe:    f2c50100    ....    MOVT     r1,#0x5000
        0x0000e802:    d04e        N.      BEQ      0xe8a2 ; am_hal_iom_interrupt_service + 490
        0x0000e804:    eb040089    ....    ADD      r0,r4,r9,LSL #2
        0x0000e808:    eb01360b    ...6    ADD      r6,r1,r11,LSL #12
        0x0000e80c:    f8d00428    ..(.    LDR      r0,[r0,#0x428]
        0x0000e810:    f8d61204    ....    LDR      r1,[r6,#0x204]
        0x0000e814:    ea410305    A...    ORR      r3,r1,r5
        0x0000e818:    f0130f6c    ..l.    TST      r3,#0x6c
        0x0000e81c:    d044        D.      BEQ      0xe8a8 ; am_hal_iom_interrupt_service + 496
        0x0000e81e:    f04f6100    O..a    MOV      r1,#0x8000000
        0x0000e822:    e04f        O.      B        0xe8c4 ; am_hal_iom_interrupt_service + 524
        0x0000e824:    2600        .&      MOVS     r6,#0
        0x0000e826:    e08a        ..      B        0xe93e ; am_hal_iom_interrupt_service + 646
        0x0000e828:    0599        ..      LSLS     r1,r3,#22
        0x0000e82a:    f2400101    @...    MOVW     r1,#1
        0x0000e82e:    f6c00100    ....    MOVT     r1,#0x800
        0x0000e832:    d407        ..      BMI      0xe844 ; am_hal_iom_interrupt_service + 396
        0x0000e834:    06df        ..      LSLS     r7,r3,#27
        0x0000e836:    d404        ..      BMI      0xe842 ; am_hal_iom_interrupt_service + 394
        0x0000e838:    f4134190    ...A    ANDS     r1,r3,#0x4800
        0x0000e83c:    bf18        ..      IT       NE
        0x0000e83e:    2101        .!      MOVNE    r1,#1
        0x0000e840:    e000        ..      B        0xe844 ; am_hal_iom_interrupt_service + 396
        0x0000e842:    3101        .1      ADDS     r1,#1
        0x0000e844:    4790        .G      BLX      r2
        0x0000e846:    2000        .       MOVS     r0,#0
        0x0000e848:    6030        0`      STR      r0,[r6,#0]
        0x0000e84a:    69a1        .i      LDR      r1,[r4,#0x18]
        0x0000e84c:    f644207c    D.|     MOV      r0,#0x4a7c
        0x0000e850:    4201        .B      TST      r1,r0
        0x0000e852:    d00d        ..      BEQ      0xe870 ; am_hal_iom_interrupt_service + 440
        0x0000e854:    f8d51280    ....    LDR      r1,[r5,#0x280]
        0x0000e858:    f0210101    !...    BIC      r1,r1,#1
        0x0000e85c:    f8c51280    ....    STR      r1,[r5,#0x280]
        0x0000e860:    2100        .!      MOVS     r1,#0
        0x0000e862:    f8c51290    ....    STR      r1,[r5,#0x290]
        0x0000e866:    69a1        .i      LDR      r1,[r4,#0x18]
        0x0000e868:    4001        .@      ANDS     r1,r1,r0
        0x0000e86a:    4620         F      MOV      r0,r4
        0x0000e86c:    f001fd6a    ..j.    BL       internal_iom_reset_on_error ; 0x10344
        0x0000e870:    f8d40840    ..@.    LDR      r0,[r4,#0x840]
        0x0000e874:    2600        .&      MOVS     r6,#0
        0x0000e876:    b130        0.      CBZ      r0,0xe886 ; am_hal_iom_interrupt_service + 462
        0x0000e878:    4620         F      MOV      r0,r4
        0x0000e87a:    f8c56290    ...b    STR      r6,[r5,#0x290]
        0x0000e87e:    61a6        .a      STR      r6,[r4,#0x18]
        0x0000e880:    f001ff8e    ....    BL       program_dma ; 0x107a0
        0x0000e884:    e05b        [.      B        0xe93e ; am_hal_iom_interrupt_service + 646
        0x0000e886:    f884683c    ..<h    STRB     r6,[r4,#0x83c]
        0x0000e88a:    f8d50200    ....    LDR      r0,[r5,#0x200]
        0x0000e88e:    f2404101    @..A    MOV      r1,#0x401
        0x0000e892:    4388        .C      BICS     r0,r0,r1
        0x0000e894:    f8c50200    ....    STR      r0,[r5,#0x200]
        0x0000e898:    f44f0000    O...    MOV      r0,#0x800000
        0x0000e89c:    f8c502a4    ....    STR      r0,[r5,#0x2a4]
        0x0000e8a0:    e04d        M.      B        0xe93e ; am_hal_iom_interrupt_service + 646
        0x0000e8a2:    eb01360b    ...6    ADD      r6,r1,r11,LSL #12
        0x0000e8a6:    e015        ..      B        0xe8d4 ; am_hal_iom_interrupt_service + 540
        0x0000e8a8:    0599        ..      LSLS     r1,r3,#22
        0x0000e8aa:    f2400101    @...    MOVW     r1,#1
        0x0000e8ae:    f6c00100    ....    MOVT     r1,#0x800
        0x0000e8b2:    d407        ..      BMI      0xe8c4 ; am_hal_iom_interrupt_service + 524
        0x0000e8b4:    06df        ..      LSLS     r7,r3,#27
        0x0000e8b6:    d404        ..      BMI      0xe8c2 ; am_hal_iom_interrupt_service + 522
        0x0000e8b8:    f4134190    ...A    ANDS     r1,r3,#0x4800
        0x0000e8bc:    bf18        ..      IT       NE
        0x0000e8be:    2101        .!      MOVNE    r1,#1
        0x0000e8c0:    e000        ..      B        0xe8c4 ; am_hal_iom_interrupt_service + 524
        0x0000e8c2:    3101        .1      ADDS     r1,#1
        0x0000e8c4:    4790        .G      BLX      r2
        0x0000e8c6:    f894082c    ..,.    LDRB     r0,[r4,#0x82c]
        0x0000e8ca:    2802        .(      CMP      r0,#2
        0x0000e8cc:    bf1c        ..      ITT      NE
        0x0000e8ce:    2000        .       MOVNE    r0,#0
        0x0000e8d0:    f84a0029    J.).    STRNE    r0,[r10,r9,LSL #2]
        0x0000e8d4:    f8d60294    ....    LDR      r0,[r6,#0x294]
        0x0000e8d8:    4641        AF      MOV      r1,r8
        0x0000e8da:    f0200001     ...    BIC      r0,r0,#1
        0x0000e8de:    f8c60294    ....    STR      r0,[r6,#0x294]
        0x0000e8e2:    f8d60280    ....    LDR      r0,[r6,#0x280]
        0x0000e8e6:    f0200001     ...    BIC      r0,r0,#1
        0x0000e8ea:    f8c60280    ....    STR      r0,[r6,#0x280]
        0x0000e8ee:    2000        .       MOVS     r0,#0
        0x0000e8f0:    f8c60290    ....    STR      r0,[r6,#0x290]
        0x0000e8f4:    4620         F      MOV      r0,r4
        0x0000e8f6:    f001fd25    ..%.    BL       internal_iom_reset_on_error ; 0x10344
        0x0000e8fa:    f8d40828    ..(.    LDR      r0,[r4,#0x828]
        0x0000e8fe:    f7fefd51    ..Q.    BL       am_hal_cmdq_error_resume ; 0xd3a4
        0x0000e902:    6a60        `j      LDR      r0,[r4,#0x24]
        0x0000e904:    b110        ..      CBZ      r0,0xe90c ; am_hal_iom_interrupt_service + 596
        0x0000e906:    4620         F      MOV      r0,r4
        0x0000e908:    f7fffafc    ....    BL       am_hal_iom_CQEnable ; 0xdf04
        0x0000e90c:    6a60        `j      LDR      r0,[r4,#0x24]
        0x0000e90e:    b918        ..      CBNZ     r0,0xe918 ; am_hal_iom_interrupt_service + 608
        0x0000e910:    f8d40828    ..(.    LDR      r0,[r4,#0x828]
        0x0000e914:    f7fefd11    ....    BL       am_hal_cmdq_disable ; 0xd33a
        0x0000e918:    2600        .&      MOVS     r6,#0
        0x0000e91a:    6a60        `j      LDR      r0,[r4,#0x24]
        0x0000e91c:    b978        x.      CBNZ     r0,0xe93e ; am_hal_iom_interrupt_service + 646
        0x0000e91e:    f2440000    D...    MOVW     r0,#0x4000
        0x0000e922:    f2c50000    ....    MOVT     r0,#0x5000
        0x0000e926:    eb00300b    ...0    ADD      r0,r0,r11,LSL #12
        0x0000e92a:    2100        .!      MOVS     r1,#0
        0x0000e92c:    f8c01200    ....    STR      r1,[r0,#0x200]
        0x0000e930:    f04f31ff    O..1    MOV      r1,#0xffffffff
        0x0000e934:    f8c01208    ....    STR      r1,[r0,#0x208]
        0x0000e938:    6961        ai      LDR      r1,[r4,#0x14]
        0x0000e93a:    f8c01200    ....    STR      r1,[r0,#0x200]
        0x0000e93e:    4630        0F      MOV      r0,r6
        0x0000e940:    b005        ..      ADD      sp,sp,#0x14
        0x0000e942:    e8bd8ff0    ....    POP      {r4-r11,pc}
    am_hal_iom_interrupt_status_get
        0x0000e946:    b1f8        ..      CBZ      r0,0xe988 ; am_hal_iom_interrupt_status_get + 66
        0x0000e948:    6803        .h      LDR      r3,[r0,#0]
        0x0000e94a:    f0234c7e    #.~L    BIC      r12,r3,#0xfe000000
        0x0000e94e:    f2434356    C.VC    MOV      r3,#0x3456
        0x0000e952:    f2c01312    ....    MOVT     r3,#0x112
        0x0000e956:    459c        .E      CMP      r12,r3
        0x0000e958:    d116        ..      BNE      0xe988 ; am_hal_iom_interrupt_status_get + 66
        0x0000e95a:    b1ba        ..      CBZ      r2,0xe98c ; am_hal_iom_interrupt_status_get + 70
        0x0000e95c:    6843        Ch      LDR      r3,[r0,#4]
        0x0000e95e:    f2442004    D..     MOV      r0,#0x4204
        0x0000e962:    ea4f3c03    O..<    LSL      r12,r3,#12
        0x0000e966:    f2c50000    ....    MOVT     r0,#0x5000
        0x0000e96a:    f850000c    P...    LDR      r0,[r0,r12]
        0x0000e96e:    b141        A.      CBZ      r1,0xe982 ; am_hal_iom_interrupt_status_get + 60
        0x0000e970:    f2440100    D...    MOVW     r1,#0x4000
        0x0000e974:    f2c50100    ....    MOVT     r1,#0x5000
        0x0000e978:    eb013103    ...1    ADD      r1,r1,r3,LSL #12
        0x0000e97c:    f8d11200    ....    LDR      r1,[r1,#0x200]
        0x0000e980:    4008        .@      ANDS     r0,r0,r1
        0x0000e982:    6010        .`      STR      r0,[r2,#0]
        0x0000e984:    2000        .       MOVS     r0,#0
        0x0000e986:    4770        pG      BX       lr
        0x0000e988:    2002        .       MOVS     r0,#2
        0x0000e98a:    4770        pG      BX       lr
        0x0000e98c:    2006        .       MOVS     r0,#6
        0x0000e98e:    4770        pG      BX       lr
    am_hal_iom_nonblocking_transfer
        0x0000e990:    e92d43f0    -..C    PUSH     {r4-r9,lr}
        0x0000e994:    b081        ..      SUB      sp,sp,#4
        0x0000e996:    b180        ..      CBZ      r0,0xe9ba ; am_hal_iom_nonblocking_transfer + 42
        0x0000e998:    4604        .F      MOV      r4,r0
        0x0000e99a:    6800        .h      LDR      r0,[r0,#0]
        0x0000e99c:    460d        .F      MOV      r5,r1
        0x0000e99e:    f2434156    C.VA    MOV      r1,#0x3456
        0x0000e9a2:    f020407e     .~@    BIC      r0,r0,#0xfe000000
        0x0000e9a6:    f2c01112    ....    MOVT     r1,#0x112
        0x0000e9aa:    4288        .B      CMP      r0,r1
        0x0000e9ac:    d105        ..      BNE      0xe9ba ; am_hal_iom_nonblocking_transfer + 42
        0x0000e9ae:    b14d        M.      CBZ      r5,0xe9c4 ; am_hal_iom_nonblocking_transfer + 52
        0x0000e9b0:    7c28        (|      LDRB     r0,[r5,#0x10]
        0x0000e9b2:    2801        .(      CMP      r0,#1
        0x0000e9b4:    d908        ..      BLS      0xe9c8 ; am_hal_iom_nonblocking_transfer + 56
        0x0000e9b6:    2707        .'      MOVS     r7,#7
        0x0000e9b8:    e000        ..      B        0xe9bc ; am_hal_iom_nonblocking_transfer + 44
        0x0000e9ba:    2702        .'      MOVS     r7,#2
        0x0000e9bc:    4638        8F      MOV      r0,r7
        0x0000e9be:    b001        ..      ADD      sp,sp,#4
        0x0000e9c0:    e8bd83f0    ....    POP      {r4-r9,pc}
        0x0000e9c4:    2706        .'      MOVS     r7,#6
        0x0000e9c6:    e7f9        ..      B        0xe9bc ; am_hal_iom_nonblocking_transfer + 44
        0x0000e9c8:    2118        .!      MOVS     r1,#0x18
        0x0000e9ca:    2800        .(      CMP      r0,#0
        0x0000e9cc:    bf08        ..      IT       EQ
        0x0000e9ce:    2114        .!      MOVEQ    r1,#0x14
        0x0000e9d0:    5868        hX      LDR      r0,[r5,r1]
        0x0000e9d2:    461e        .F      MOV      r6,r3
        0x0000e9d4:    4690        .F      MOV      r8,r2
        0x0000e9d6:    f1b05f80    ..._    CMP      r0,#0x10000000
        0x0000e9da:    d306        ..      BCC      0xe9ea ; am_hal_iom_nonblocking_transfer + 90
        0x0000e9dc:    2100        .!      MOVS     r1,#0
        0x0000e9de:    f2c10101    ....    MOVT     r1,#0x1001
        0x0000e9e2:    4288        .B      CMP      r0,r1
        0x0000e9e4:    d201        ..      BCS      0xe9ea ; am_hal_iom_nonblocking_transfer + 90
        0x0000e9e6:    2705        .'      MOVS     r7,#5
        0x0000e9e8:    e7e8        ..      B        0xe9bc ; am_hal_iom_nonblocking_transfer + 44
        0x0000e9ea:    68e8        .h      LDR      r0,[r5,#0xc]
        0x0000e9ec:    b908        ..      CBNZ     r0,0xe9f2 ; am_hal_iom_nonblocking_transfer + 98
        0x0000e9ee:    2000        .       MOVS     r0,#0
        0x0000e9f0:    7428        (t      STRB     r0,[r5,#0x10]
        0x0000e9f2:    4620         F      MOV      r0,r4
        0x0000e9f4:    4629        )F      MOV      r1,r5
        0x0000e9f6:    2200        ."      MOVS     r2,#0
        0x0000e9f8:    f002f8d3    ....    BL       validate_transaction ; 0x10ba2
        0x0000e9fc:    4607        .F      MOV      r7,r0
        0x0000e9fe:    2800        .(      CMP      r0,#0
        0x0000ea00:    d1dc        ..      BNE      0xe9bc ; am_hal_iom_nonblocking_transfer + 44
        0x0000ea02:    f8d40828    ..(.    LDR      r0,[r4,#0x828]
        0x0000ea06:    2800        .(      CMP      r0,#0
        0x0000ea08:    d0d5        ..      BEQ      0xe9b6 ; am_hal_iom_nonblocking_transfer + 38
        0x0000ea0a:    f894082c    ..,.    LDRB     r0,[r4,#0x82c]
        0x0000ea0e:    2802        .(      CMP      r0,#2
        0x0000ea10:    d0d1        ..      BEQ      0xe9b6 ; am_hal_iom_nonblocking_transfer + 38
        0x0000ea12:    f8d41838    ..8.    LDR      r1,[r4,#0x838]
        0x0000ea16:    b139        9.      CBZ      r1,0xea28 ; am_hal_iom_nonblocking_transfer + 152
        0x0000ea18:    6a28        (j      LDR      r0,[r5,#0x20]
        0x0000ea1a:    2800        .(      CMP      r0,#0
        0x0000ea1c:    d1cb        ..      BNE      0xe9b6 ; am_hal_iom_nonblocking_transfer + 38
        0x0000ea1e:    fab8f088    ....    CLZ      r0,r8
        0x0000ea22:    ea4f1950    O.P.    LSR      r9,r0,#5
        0x0000ea26:    e018        ..      B        0xea5a ; am_hal_iom_nonblocking_transfer + 202
        0x0000ea28:    f1b80f00    ....    CMP      r8,#0
        0x0000ea2c:    d002        ..      BEQ      0xea34 ; am_hal_iom_nonblocking_transfer + 164
        0x0000ea2e:    f04f0900    O...    MOV      r9,#0
        0x0000ea32:    e012        ..      B        0xea5a ; am_hal_iom_nonblocking_transfer + 202
        0x0000ea34:    b110        ..      CBZ      r0,0xea3c ; am_hal_iom_nonblocking_transfer + 172
        0x0000ea36:    f04f0800    O...    MOV      r8,#0
        0x0000ea3a:    e00c        ..      B        0xea56 ; am_hal_iom_nonblocking_transfer + 198
        0x0000ea3c:    f8d40858    ..X.    LDR      r0,[r4,#0x858]
        0x0000ea40:    f8d4185c    ..\.    LDR      r1,[r4,#0x85c]
        0x0000ea44:    f240485b    @.[H    MOV      r8,#0x45b
        0x0000ea48:    f2c00801    ....    MOVT     r8,#1
        0x0000ea4c:    ebb10f50    ..P.    CMP      r1,r0,LSR #1
        0x0000ea50:    bf38        8.      IT       CC
        0x0000ea52:    f04f0800    O...    MOVCC    r8,#0
        0x0000ea56:    f04f0901    O...    MOV      r9,#1
        0x0000ea5a:    4620         F      MOV      r0,r4
        0x0000ea5c:    4629        )F      MOV      r1,r5
        0x0000ea5e:    4642        BF      MOV      r2,r8
        0x0000ea60:    4633        3F      MOV      r3,r6
        0x0000ea62:    f7fff98e    ....    BL       am_hal_iom_CQAddTransaction ; 0xdd82
        0x0000ea66:    4607        .F      MOV      r7,r0
        0x0000ea68:    2800        .(      CMP      r0,#0
        0x0000ea6a:    d1a7        ..      BNE      0xe9bc ; am_hal_iom_nonblocking_transfer + 44
        0x0000ea6c:    f7fff97e    ..~.    BL       am_hal_interrupt_master_disable ; 0xdd6c
        0x0000ea70:    4605        .F      MOV      r5,r0
        0x0000ea72:    f8d40828    ..(.    LDR      r0,[r4,#0x828]
        0x0000ea76:    4641        AF      MOV      r1,r8
        0x0000ea78:    f1b80f00    ....    CMP      r8,#0
        0x0000ea7c:    bf18        ..      IT       NE
        0x0000ea7e:    2101        .!      MOVNE    r1,#1
        0x0000ea80:    f7fefd55    ..U.    BL       am_hal_cmdq_post_block ; 0xd52e
        0x0000ea84:    4607        .F      MOV      r7,r0
        0x0000ea86:    b120         .      CBZ      r0,0xea92 ; am_hal_iom_nonblocking_transfer + 258
        0x0000ea88:    f8d40828    ..(.    LDR      r0,[r4,#0x828]
        0x0000ea8c:    f7fefd73    ..s.    BL       am_hal_cmdq_release_block ; 0xd576
        0x0000ea90:    e039        9.      B        0xeb06 ; am_hal_iom_nonblocking_transfer + 374
        0x0000ea92:    6a60        `j      LDR      r0,[r4,#0x24]
        0x0000ea94:    f1b90f00    ....    CMP      r9,#0
        0x0000ea98:    f1000101    ....    ADD      r1,r0,#1
        0x0000ea9c:    6261        ab      STR      r1,[r4,#0x24]
        0x0000ea9e:    f8d41830    ..0.    LDR      r1,[r4,#0x830]
        0x0000eaa2:    f1010101    ....    ADD      r1,r1,#1
        0x0000eaa6:    f8c41830    ..0.    STR      r1,[r4,#0x830]
        0x0000eaaa:    d004        ..      BEQ      0xeab6 ; am_hal_iom_nonblocking_transfer + 294
        0x0000eaac:    f1b80f00    ....    CMP      r8,#0
        0x0000eab0:    d005        ..      BEQ      0xeabe ; am_hal_iom_nonblocking_transfer + 302
        0x0000eab2:    2100        .!      MOVS     r1,#0
        0x0000eab4:    e006        ..      B        0xeac4 ; am_hal_iom_nonblocking_transfer + 308
        0x0000eab6:    2100        .!      MOVS     r1,#0
        0x0000eab8:    f884182d    ..-.    STRB     r1,[r4,#0x82d]
        0x0000eabc:    e002        ..      B        0xeac4 ; am_hal_iom_nonblocking_transfer + 308
        0x0000eabe:    f8d4185c    ..\.    LDR      r1,[r4,#0x85c]
        0x0000eac2:    3101        .1      ADDS     r1,#1
        0x0000eac4:    f8c4185c    ..\.    STR      r1,[r4,#0x85c]
        0x0000eac8:    b9e8        ..      CBNZ     r0,0xeb06 ; am_hal_iom_nonblocking_transfer + 374
        0x0000eaca:    6860        `h      LDR      r0,[r4,#4]
        0x0000eacc:    f2440100    D...    MOVW     r1,#0x4000
        0x0000ead0:    f2c50100    ....    MOVT     r1,#0x5000
        0x0000ead4:    eb013000    ...0    ADD      r0,r1,r0,LSL #12
        0x0000ead8:    f8d02200    ..."    LDR      r2,[r0,#0x200]
        0x0000eadc:    6162        ba      STR      r2,[r4,#0x14]
        0x0000eade:    2200        ."      MOVS     r2,#0
        0x0000eae0:    f8c02200    ..."    STR      r2,[r0,#0x200]
        0x0000eae4:    6860        `h      LDR      r0,[r4,#4]
        0x0000eae6:    f04f32ff    O..2    MOV      r2,#0xffffffff
        0x0000eaea:    eb013000    ...0    ADD      r0,r1,r0,LSL #12
        0x0000eaee:    f8c02208    ..."    STR      r2,[r0,#0x208]
        0x0000eaf2:    6860        `h      LDR      r0,[r4,#4]
        0x0000eaf4:    eb013000    ...0    ADD      r0,r1,r0,LSL #12
        0x0000eaf8:    f646217c    F.|!    MOV      r1,#0x6a7c
        0x0000eafc:    f8c01200    ....    STR      r1,[r0,#0x200]
        0x0000eb00:    4620         F      MOV      r0,r4
        0x0000eb02:    f7fff9ff    ....    BL       am_hal_iom_CQEnable ; 0xdf04
        0x0000eb06:    4628        (F      MOV      r0,r5
        0x0000eb08:    f7fff938    ..8.    BL       am_hal_interrupt_master_set ; 0xdd7c
        0x0000eb0c:    e756        V.      B        0xe9bc ; am_hal_iom_nonblocking_transfer + 44
    am_hal_iom_power_ctrl
        0x0000eb0e:    b5b0        ..      PUSH     {r4,r5,r7,lr}
        0x0000eb10:    2800        .(      CMP      r0,#0
        0x0000eb12:    d05e        ^.      BEQ      0xebd2 ; am_hal_iom_power_ctrl + 196
        0x0000eb14:    4604        .F      MOV      r4,r0
        0x0000eb16:    6800        .h      LDR      r0,[r0,#0]
        0x0000eb18:    f2434356    C.VC    MOV      r3,#0x3456
        0x0000eb1c:    4615        .F      MOV      r5,r2
        0x0000eb1e:    f020427e     .~B    BIC      r2,r0,#0xfe000000
        0x0000eb22:    f2c01312    ....    MOVT     r3,#0x112
        0x0000eb26:    429a        .B      CMP      r2,r3
        0x0000eb28:    d153        S.      BNE      0xebd2 ; am_hal_iom_power_ctrl + 196
        0x0000eb2a:    1e4a        J.      SUBS     r2,r1,#1
        0x0000eb2c:    2a02        .*      CMP      r2,#2
        0x0000eb2e:    d252        R.      BCS      0xebd6 ; am_hal_iom_power_ctrl + 200
        0x0000eb30:    0180        ..      LSLS     r0,r0,#6
        0x0000eb32:    d45f        _.      BMI      0xebf4 ; am_hal_iom_power_ctrl + 230
        0x0000eb34:    2d00        .-      CMP      r5,#0
        0x0000eb36:    d045        E.      BEQ      0xebc4 ; am_hal_iom_power_ctrl + 182
        0x0000eb38:    6860        `h      LDR      r0,[r4,#4]
        0x0000eb3a:    f2440100    D...    MOVW     r1,#0x4000
        0x0000eb3e:    f2c50100    ....    MOVT     r1,#0x5000
        0x0000eb42:    eb013000    ...0    ADD      r0,r1,r0,LSL #12
        0x0000eb46:    f8d01104    ....    LDR      r1,[r0,#0x104]
        0x0000eb4a:    f8c4186c    ..l.    STR      r1,[r4,#0x86c]
        0x0000eb4e:    f8d01210    ....    LDR      r1,[r0,#0x210]
        0x0000eb52:    f8c41874    ..t.    STR      r1,[r4,#0x874]
        0x0000eb56:    f8d01214    ....    LDR      r1,[r0,#0x214]
        0x0000eb5a:    f8c41878    ..x.    STR      r1,[r4,#0x878]
        0x0000eb5e:    f8d01294    ....    LDR      r1,[r0,#0x294]
        0x0000eb62:    f8c4187c    ..|.    STR      r1,[r4,#0x87c]
        0x0000eb66:    f8d01298    ....    LDR      r1,[r0,#0x298]
        0x0000eb6a:    f8c41880    ....    STR      r1,[r4,#0x880]
        0x0000eb6e:    f8d012a0    ....    LDR      r1,[r0,#0x2a0]
        0x0000eb72:    f8c41884    ....    STR      r1,[r4,#0x884]
        0x0000eb76:    f8d012a8    ....    LDR      r1,[r0,#0x2a8]
        0x0000eb7a:    f8c41888    ....    STR      r1,[r4,#0x888]
        0x0000eb7e:    f8d012ac    ....    LDR      r1,[r0,#0x2ac]
        0x0000eb82:    f8c4188c    ....    STR      r1,[r4,#0x88c]
        0x0000eb86:    f8d012b0    ....    LDR      r1,[r0,#0x2b0]
        0x0000eb8a:    f8c41890    ....    STR      r1,[r4,#0x890]
        0x0000eb8e:    f8d01300    ....    LDR      r1,[r0,#0x300]
        0x0000eb92:    f8c41894    ....    STR      r1,[r4,#0x894]
        0x0000eb96:    f8d01400    ....    LDR      r1,[r0,#0x400]
        0x0000eb9a:    f8c41898    ....    STR      r1,[r4,#0x898]
        0x0000eb9e:    f8d01200    ....    LDR      r1,[r0,#0x200]
        0x0000eba2:    f8c4189c    ....    STR      r1,[r4,#0x89c]
        0x0000eba6:    f8d01240    ..@.    LDR      r1,[r0,#0x240]
        0x0000ebaa:    f8c41870    ..p.    STR      r1,[r4,#0x870]
        0x0000ebae:    f8d00294    ....    LDR      r0,[r0,#0x294]
        0x0000ebb2:    07c0        ..      LSLS     r0,r0,#31
        0x0000ebb4:    d003        ..      BEQ      0xebbe ; am_hal_iom_power_ctrl + 176
        0x0000ebb6:    f8d40828    ..(.    LDR      r0,[r4,#0x828]
        0x0000ebba:    f7fefbbe    ....    BL       am_hal_cmdq_disable ; 0xd33a
        0x0000ebbe:    2001        .       MOVS     r0,#1
        0x0000ebc0:    f8840868    ..h.    STRB     r0,[r4,#0x868]
        0x0000ebc4:    7920         y      LDRB     r0,[r4,#4]
        0x0000ebc6:    3002        .0      ADDS     r0,#2
        0x0000ebc8:    b2c0        ..      UXTB     r0,r0
        0x0000ebca:    f000fb83    ....    BL       am_hal_pwrctrl_periph_disable ; 0xf2d4
        0x0000ebce:    b978        x.      CBNZ     r0,0xebf0 ; am_hal_iom_power_ctrl + 226
        0x0000ebd0:    e091        ..      B        0xecf6 ; am_hal_iom_power_ctrl + 488
        0x0000ebd2:    2002        .       MOVS     r0,#2
        0x0000ebd4:    bdb0        ..      POP      {r4,r5,r7,pc}
        0x0000ebd6:    b9f9        ..      CBNZ     r1,0xec18 ; am_hal_iom_power_ctrl + 266
        0x0000ebd8:    b125        %.      CBZ      r5,0xebe4 ; am_hal_iom_power_ctrl + 214
        0x0000ebda:    f8940868    ..h.    LDRB     r0,[r4,#0x868]
        0x0000ebde:    2800        .(      CMP      r0,#0
        0x0000ebe0:    f000808b    ....    BEQ.W    0xecfa ; am_hal_iom_power_ctrl + 492
        0x0000ebe4:    7920         y      LDRB     r0,[r4,#4]
        0x0000ebe6:    3002        .0      ADDS     r0,#2
        0x0000ebe8:    b2c0        ..      UXTB     r0,r0
        0x0000ebea:    f000fbc3    ....    BL       am_hal_pwrctrl_periph_enable ; 0xf374
        0x0000ebee:    b1a8        ..      CBZ      r0,0xec1c ; am_hal_iom_power_ctrl + 270
        0x0000ebf0:    2009        .       MOVS     r0,#9
        0x0000ebf2:    bdb0        ..      POP      {r4,r5,r7,pc}
        0x0000ebf4:    6860        `h      LDR      r0,[r4,#4]
        0x0000ebf6:    f2440100    D...    MOVW     r1,#0x4000
        0x0000ebfa:    f2c50100    ....    MOVT     r1,#0x5000
        0x0000ebfe:    eb013000    ...0    ADD      r0,r1,r0,LSL #12
        0x0000ec02:    f8d002b4    ....    LDR      r0,[r0,#0x2b4]
        0x0000ec06:    f0000006    ....    AND      r0,r0,#6
        0x0000ec0a:    2804        .(      CMP      r0,#4
        0x0000ec0c:    d102        ..      BNE      0xec14 ; am_hal_iom_power_ctrl + 262
        0x0000ec0e:    6a60        `j      LDR      r0,[r4,#0x24]
        0x0000ec10:    2800        .(      CMP      r0,#0
        0x0000ec12:    d08f        ..      BEQ      0xeb34 ; am_hal_iom_power_ctrl + 38
        0x0000ec14:    2003        .       MOVS     r0,#3
        0x0000ec16:    bdb0        ..      POP      {r4,r5,r7,pc}
        0x0000ec18:    2006        .       MOVS     r0,#6
        0x0000ec1a:    bdb0        ..      POP      {r4,r5,r7,pc}
        0x0000ec1c:    2d00        .-      CMP      r5,#0
        0x0000ec1e:    d06a        j.      BEQ      0xecf6 ; am_hal_iom_power_ctrl + 488
        0x0000ec20:    6862        bh      LDR      r2,[r4,#4]
        0x0000ec22:    f2440000    D...    MOVW     r0,#0x4000
        0x0000ec26:    f8d4186c    ..l.    LDR      r1,[r4,#0x86c]
        0x0000ec2a:    f2c50000    ....    MOVT     r0,#0x5000
        0x0000ec2e:    eb003202    ...2    ADD      r2,r0,r2,LSL #12
        0x0000ec32:    f8c21104    ....    STR      r1,[r2,#0x104]
        0x0000ec36:    6861        ah      LDR      r1,[r4,#4]
        0x0000ec38:    f8d42874    ..t(    LDR      r2,[r4,#0x874]
        0x0000ec3c:    eb003101    ...1    ADD      r1,r0,r1,LSL #12
        0x0000ec40:    f8c12210    ..."    STR      r2,[r1,#0x210]
        0x0000ec44:    6861        ah      LDR      r1,[r4,#4]
        0x0000ec46:    f8d42878    ..x(    LDR      r2,[r4,#0x878]
        0x0000ec4a:    eb003101    ...1    ADD      r1,r0,r1,LSL #12
        0x0000ec4e:    f8c12214    ..."    STR      r2,[r1,#0x214]
        0x0000ec52:    6861        ah      LDR      r1,[r4,#4]
        0x0000ec54:    f8d42880    ...(    LDR      r2,[r4,#0x880]
        0x0000ec58:    eb003101    ...1    ADD      r1,r0,r1,LSL #12
        0x0000ec5c:    f8c12298    ..."    STR      r2,[r1,#0x298]
        0x0000ec60:    6861        ah      LDR      r1,[r4,#4]
        0x0000ec62:    f8d42888    ...(    LDR      r2,[r4,#0x888]
        0x0000ec66:    eb003101    ...1    ADD      r1,r0,r1,LSL #12
        0x0000ec6a:    f8c122a8    ..."    STR      r2,[r1,#0x2a8]
        0x0000ec6e:    6861        ah      LDR      r1,[r4,#4]
        0x0000ec70:    f8d4288c    ...(    LDR      r2,[r4,#0x88c]
        0x0000ec74:    eb003101    ...1    ADD      r1,r0,r1,LSL #12
        0x0000ec78:    f8c122ac    ..."    STR      r2,[r1,#0x2ac]
        0x0000ec7c:    6861        ah      LDR      r1,[r4,#4]
        0x0000ec7e:    f8d42890    ...(    LDR      r2,[r4,#0x890]
        0x0000ec82:    eb003101    ...1    ADD      r1,r0,r1,LSL #12
        0x0000ec86:    f8c122b0    ..."    STR      r2,[r1,#0x2b0]
        0x0000ec8a:    6861        ah      LDR      r1,[r4,#4]
        0x0000ec8c:    f8d42894    ...(    LDR      r2,[r4,#0x894]
        0x0000ec90:    eb003101    ...1    ADD      r1,r0,r1,LSL #12
        0x0000ec94:    f8c12300    ...#    STR      r2,[r1,#0x300]
        0x0000ec98:    6861        ah      LDR      r1,[r4,#4]
        0x0000ec9a:    f8d42898    ...(    LDR      r2,[r4,#0x898]
        0x0000ec9e:    eb003101    ...1    ADD      r1,r0,r1,LSL #12
        0x0000eca2:    f8c12400    ...$    STR      r2,[r1,#0x400]
        0x0000eca6:    6861        ah      LDR      r1,[r4,#4]
        0x0000eca8:    f8d4289c    ...(    LDR      r2,[r4,#0x89c]
        0x0000ecac:    eb003101    ...1    ADD      r1,r0,r1,LSL #12
        0x0000ecb0:    f8c12200    ..."    STR      r2,[r1,#0x200]
        0x0000ecb4:    6861        ah      LDR      r1,[r4,#4]
        0x0000ecb6:    f8d42870    ..p(    LDR      r2,[r4,#0x870]
        0x0000ecba:    eb003101    ...1    ADD      r1,r0,r1,LSL #12
        0x0000ecbe:    f8c12240    ..@"    STR      r2,[r1,#0x240]
        0x0000ecc2:    6861        ah      LDR      r1,[r4,#4]
        0x0000ecc4:    f8942884    ...(    LDRB     r2,[r4,#0x884]
        0x0000ecc8:    eb003101    ...1    ADD      r1,r0,r1,LSL #12
        0x0000eccc:    f8c122a4    ..."    STR      r2,[r1,#0x2a4]
        0x0000ecd0:    f8d4187c    ..|.    LDR      r1,[r4,#0x87c]
        0x0000ecd4:    6862        bh      LDR      r2,[r4,#4]
        0x0000ecd6:    f0210101    !...    BIC      r1,r1,#1
        0x0000ecda:    eb003002    ...0    ADD      r0,r0,r2,LSL #12
        0x0000ecde:    f8c01294    ....    STR      r1,[r0,#0x294]
        0x0000ece2:    f894087c    ..|.    LDRB     r0,[r4,#0x87c]
        0x0000ece6:    07c0        ..      LSLS     r0,r0,#31
        0x0000ece8:    d002        ..      BEQ      0xecf0 ; am_hal_iom_power_ctrl + 482
        0x0000ecea:    4620         F      MOV      r0,r4
        0x0000ecec:    f7fff90a    ....    BL       am_hal_iom_CQEnable ; 0xdf04
        0x0000ecf0:    2000        .       MOVS     r0,#0
        0x0000ecf2:    f8840868    ..h.    STRB     r0,[r4,#0x868]
        0x0000ecf6:    2000        .       MOVS     r0,#0
        0x0000ecf8:    bdb0        ..      POP      {r4,r5,r7,pc}
        0x0000ecfa:    2007        .       MOVS     r0,#7
        0x0000ecfc:    bdb0        ..      POP      {r4,r5,r7,pc}
    am_hal_iom_uninitialize
        0x0000ecfe:    b510        ..      PUSH     {r4,lr}
        0x0000ed00:    b1a0        ..      CBZ      r0,0xed2c ; am_hal_iom_uninitialize + 46
        0x0000ed02:    4604        .F      MOV      r4,r0
        0x0000ed04:    6800        .h      LDR      r0,[r0,#0]
        0x0000ed06:    f2434256    C.VB    MOV      r2,#0x3456
        0x0000ed0a:    f020417e     .~A    BIC      r1,r0,#0xfe000000
        0x0000ed0e:    f2c01212    ....    MOVT     r2,#0x112
        0x0000ed12:    4291        .B      CMP      r1,r2
        0x0000ed14:    d10a        ..      BNE      0xed2c ; am_hal_iom_uninitialize + 46
        0x0000ed16:    0181        ..      LSLS     r1,r0,#6
        0x0000ed18:    d503        ..      BPL      0xed22 ; am_hal_iom_uninitialize + 36
        0x0000ed1a:    4620         F      MOV      r0,r4
        0x0000ed1c:    f7fffc03    ....    BL       am_hal_iom_disable ; 0xe526
        0x0000ed20:    6820         h      LDR      r0,[r4,#0]
        0x0000ed22:    f0207080     ..p    BIC      r0,r0,#0x1000000
        0x0000ed26:    6020         `      STR      r0,[r4,#0]
        0x0000ed28:    2000        .       MOVS     r0,#0
        0x0000ed2a:    bd10        ..      POP      {r4,pc}
        0x0000ed2c:    2002        .       MOVS     r0,#2
        0x0000ed2e:    bd10        ..      POP      {r4,pc}
    am_hal_itm_enable
        0x0000ed30:    f64e50fc    N..P    MOV      r0,#0xedfc
        0x0000ed34:    f2ce0000    ....    MOVT     r0,#0xe000
        0x0000ed38:    6801        .h      LDR      r1,[r0,#0]
        0x0000ed3a:    f0417180    A..q    ORR      r1,r1,#0x1000000
        0x0000ed3e:    6001        .`      STR      r1,[r0,#0]
        0x0000ed40:    6801        .h      LDR      r1,[r0,#0]
        0x0000ed42:    01c9        ..      LSLS     r1,r1,#7
        0x0000ed44:    d5fc        ..      BPL      0xed40 ; am_hal_itm_enable + 16
        0x0000ed46:    f6406000    @..`    MOVW     r0,#0xe00
        0x0000ed4a:    f64c6155    L.Ua    MOV      r1,#0xce55
        0x0000ed4e:    f2ce0000    ....    MOVT     r0,#0xe000
        0x0000ed52:    f2cc51ac    ...Q    MOVT     r1,#0xc5ac
        0x0000ed56:    f8c011b0    ....    STR      r1,[r0,#0x1b0]
        0x0000ed5a:    210f        .!      MOVS     r1,#0xf
        0x0000ed5c:    6401        .d      STR      r1,[r0,#0x40]
        0x0000ed5e:    f04f31ff    O..1    MOV      r1,#0xffffffff
        0x0000ed62:    6001        .`      STR      r1,[r0,#0]
        0x0000ed64:    f2405111    @..Q    MOV      r1,#0x511
        0x0000ed68:    f2c00115    ....    MOVT     r1,#0x15
        0x0000ed6c:    f8c01080    ....    STR      r1,[r0,#0x80]
        0x0000ed70:    4770        pG      BX       lr
        0x0000ed72:    0000        ..      MOVS     r0,r0
    am_hal_itm_print
        0x0000ed74:    2100        .!      MOVS     r1,#0
        0x0000ed76:    bf00        ..      NOP      
        0x0000ed78:    5c42        B\      LDRB     r2,[r0,r1]
        0x0000ed7a:    3101        .1      ADDS     r1,#1
        0x0000ed7c:    2a00        .*      CMP      r2,#0
        0x0000ed7e:    d1fb        ..      BNE      0xed78 ; am_hal_itm_print + 4
        0x0000ed80:    3901        .9      SUBS     r1,#1
        0x0000ed82:    bf08        ..      IT       EQ
        0x0000ed84:    4770        pG      BXEQ     lr
        0x0000ed86:    f04f4260    O.`B    MOV      r2,#0xe0000000
        0x0000ed8a:    bf00        ..      NOP      
        0x0000ed8c:    f890c000    ....    LDRB     r12,[r0,#0]
        0x0000ed90:    6813        .h      LDR      r3,[r2,#0]
        0x0000ed92:    2b00        .+      CMP      r3,#0
        0x0000ed94:    d0fc        ..      BEQ      0xed90 ; am_hal_itm_print + 28
        0x0000ed96:    3001        .0      ADDS     r0,#1
        0x0000ed98:    3901        .9      SUBS     r1,#1
        0x0000ed9a:    f882c000    ....    STRB     r12,[r2,#0]
        0x0000ed9e:    d1f5        ..      BNE      0xed8c ; am_hal_itm_print + 24
        0x0000eda0:    4770        pG      BX       lr
        0x0000eda2:    0000        ..      MOVS     r0,r0
    am_hal_mcuctrl_control
        0x0000eda4:    e92d43f0    -..C    PUSH     {r4-r9,lr}
        0x0000eda8:    b081        ..      SUB      sp,sp,#4
        0x0000edaa:    2804        .(      CMP      r0,#4
        0x0000edac:    d837        7.      BHI      0xee1e ; am_hal_mcuctrl_control + 122
        0x0000edae:    e8dff000    ....    TBB      [pc,r0]
    $d.1
        0x0000edb2:    0c03        ..      DCW    3075
        0x0000edb4:    00312317    .#1.    DCD    3220247
    $t.2
        0x0000edb8:    f2401020    @. .    MOVW     r0,#0x120
        0x0000edbc:    f2c40002    ....    MOVT     r0,#0x4002
        0x0000edc0:    f8d010b0    ....    LDR      r1,[r0,#0xb0]
        0x0000edc4:    f0410101    A...    ORR      r1,r1,#1
        0x0000edc8:    e007        ..      B        0xedda ; am_hal_mcuctrl_control + 54
        0x0000edca:    f2401020    @. .    MOVW     r0,#0x120
        0x0000edce:    f2c40002    ....    MOVT     r0,#0x4002
        0x0000edd2:    f8d010b0    ....    LDR      r1,[r0,#0xb0]
        0x0000edd6:    f0210101    !...    BIC      r1,r1,#1
        0x0000edda:    f8c010b0    ....    STR      r1,[r0,#0xb0]
        0x0000edde:    e017        ..      B        0xee10 ; am_hal_mcuctrl_control + 108
        0x0000ede0:    f2401020    @. .    MOVW     r0,#0x120
        0x0000ede4:    f2c40002    ....    MOVT     r0,#0x4002
        0x0000ede8:    6801        .h      LDR      r1,[r0,#0]
        0x0000edea:    f021011f    !...    BIC      r1,r1,#0x1f
        0x0000edee:    6001        .`      STR      r1,[r0,#0]
        0x0000edf0:    6801        .h      LDR      r1,[r0,#0]
        0x0000edf2:    f0410107    A...    ORR      r1,r1,#7
        0x0000edf6:    e00a        ..      B        0xee0e ; am_hal_mcuctrl_control + 106
        0x0000edf8:    f2401020    @. .    MOVW     r0,#0x120
        0x0000edfc:    f2c40002    ....    MOVT     r0,#0x4002
        0x0000ee00:    6801        .h      LDR      r1,[r0,#0]
        0x0000ee02:    f021011f    !...    BIC      r1,r1,#0x1f
        0x0000ee06:    6001        .`      STR      r1,[r0,#0]
        0x0000ee08:    6801        .h      LDR      r1,[r0,#0]
        0x0000ee0a:    f0410118    A...    ORR      r1,r1,#0x18
        0x0000ee0e:    6001        .`      STR      r1,[r0,#0]
        0x0000ee10:    2000        .       MOVS     r0,#0
        0x0000ee12:    e005        ..      B        0xee20 ; am_hal_mcuctrl_control + 124
        0x0000ee14:    6809        .h      LDR      r1,[r1,#0]
        0x0000ee16:    f06f1033    o.3.    MVN      r0,#0x330033
        0x0000ee1a:    4201        .B      TST      r1,r0
        0x0000ee1c:    d003        ..      BEQ      0xee26 ; am_hal_mcuctrl_control + 130
        0x0000ee1e:    2006        .       MOVS     r0,#6
        0x0000ee20:    b001        ..      ADD      sp,sp,#4
        0x0000ee22:    e8bd83f0    ....    POP      {r4-r9,pc}
        0x0000ee26:    fa91f0a1    ....    RBIT     r0,r1
        0x0000ee2a:    220c        ."      MOVS     r2,#0xc
        0x0000ee2c:    f2401820    @. .    MOVW     r8,#0x120
        0x0000ee30:    ea027010    ...p    AND      r0,r2,r0,LSR #28
        0x0000ee34:    2202        ."      MOVS     r2,#2
        0x0000ee36:    f2c40802    ....    MOVT     r8,#0x4002
        0x0000ee3a:    ea0232d1    ...2    AND      r2,r2,r1,LSR #15
        0x0000ee3e:    4410        .D      ADD      r0,r0,r2
        0x0000ee40:    f8d82164    ..d!    LDR      r2,[r8,#0x164]
        0x0000ee44:    f3c14340    ..@C    UBFX     r3,r1,#17,#1
        0x0000ee48:    4418        .D      ADD      r0,r0,r3
        0x0000ee4a:    f0020301    ....    AND      r3,r2,#1
        0x0000ee4e:    ea4000c3    @...    ORR      r0,r0,r3,LSL #3
        0x0000ee52:    f0020302    ....    AND      r3,r2,#2
        0x0000ee56:    ea400343    @.C.    ORR      r3,r0,r3,LSL #1
        0x0000ee5a:    2007        .       MOVS     r0,#7
        0x0000ee5c:    f04f0900    O...    MOV      r9,#0
        0x0000ee60:    2500        .%      MOVS     r5,#0
        0x0000ee62:    e8dff003    ....    TBB      [pc,r3]
    $d.3
        0x0000ee66:    1116        ..      DCW    4374
        0x0000ee68:    16080909    ....    DCD    369625353
        0x0000ee6c:    0d0d0908    ....    DCD    218958088
        0x0000ee70:    0d130909    ....    DCD    219351305
        0x0000ee74:    0908        ..      DCW    2312
    $t.4
        0x0000ee76:    e7d3        ..      B        0xee20 ; am_hal_mcuctrl_control + 124
        0x0000ee78:    2503        .%      MOVS     r5,#3
        0x0000ee7a:    f04f0900    O...    MOV      r9,#0
        0x0000ee7e:    e008        ..      B        0xee92 ; am_hal_mcuctrl_control + 238
        0x0000ee80:    2502        .%      MOVS     r5,#2
        0x0000ee82:    f04f0901    O...    MOV      r9,#1
        0x0000ee86:    e004        ..      B        0xee92 ; am_hal_mcuctrl_control + 238
        0x0000ee88:    2502        .%      MOVS     r5,#2
        0x0000ee8a:    e7f6        ..      B        0xee7a ; am_hal_mcuctrl_control + 214
        0x0000ee8c:    2500        .%      MOVS     r5,#0
        0x0000ee8e:    f04f0903    O...    MOV      r9,#3
        0x0000ee92:    2404        .$      MOVS     r4,#4
        0x0000ee94:    2008        .       MOVS     r0,#8
        0x0000ee96:    ea0407d1    ....    AND      r7,r4,r1,LSR #3
        0x0000ee9a:    2602        .&      MOVS     r6,#2
        0x0000ee9c:    ea000351    ..Q.    AND      r3,r0,r1,LSR #1
        0x0000eea0:    ea0646d1    ...F    AND      r6,r6,r1,LSR #19
        0x0000eea4:    ea475151    G.QQ    ORR      r1,r7,r1,LSR #21
        0x0000eea8:    4319        .C      ORRS     r1,r1,r3
        0x0000eeaa:    ea000052    ..R.    AND      r0,r0,r2,LSR #1
        0x0000eeae:    4331        1C      ORRS     r1,r1,r6
        0x0000eeb0:    ea0402d2    ....    AND      r2,r4,r2,LSR #3
        0x0000eeb4:    4308        .C      ORRS     r0,r0,r1
        0x0000eeb6:    ea400102    @...    ORR      r1,r0,r2
        0x0000eeba:    2007        .       MOVS     r0,#7
        0x0000eebc:    e8dff001    ....    TBB      [pc,r1]
    $d.5
        0x0000eec0:    09090f13    ....    DCD    151588627
        0x0000eec4:    09081308    ....    DCD    151524104
        0x0000eec8:    09090b0b    ....    DCD    151587595
        0x0000eecc:    09080b11    ....    DCD    151522065
    $t.6
        0x0000eed0:    e7a6        ..      B        0xee20 ; am_hal_mcuctrl_control + 124
        0x0000eed2:    2530        0%      MOVS     r5,#0x30
        0x0000eed4:    e007        ..      B        0xeee6 ; am_hal_mcuctrl_control + 322
        0x0000eed6:    2520         %      MOVS     r5,#0x20
        0x0000eed8:    f04f0910    O...    MOV      r9,#0x10
        0x0000eedc:    e003        ..      B        0xeee6 ; am_hal_mcuctrl_control + 322
        0x0000eede:    2520         %      MOVS     r5,#0x20
        0x0000eee0:    e001        ..      B        0xeee6 ; am_hal_mcuctrl_control + 322
        0x0000eee2:    f04f0930    O.0.    MOV      r9,#0x30
        0x0000eee6:    f7feff41    ..A.    BL       am_hal_interrupt_master_disable ; 0xdd6c
        0x0000eeea:    9000        ..      STR      r0,[sp,#0]
        0x0000eeec:    f8d80164    ..d.    LDR      r0,[r8,#0x164]
        0x0000eef0:    ea400009    @...    ORR      r0,r0,r9
        0x0000eef4:    43a8        .C      BICS     r0,r0,r5
        0x0000eef6:    f8c80164    ..d.    STR      r0,[r8,#0x164]
        0x0000eefa:    9800        ..      LDR      r0,[sp,#0]
        0x0000eefc:    f7feff3e    ..>.    BL       am_hal_interrupt_master_set ; 0xdd7c
        0x0000ef00:    e786        ..      B        0xee10 ; am_hal_mcuctrl_control + 108
    am_hal_mcuctrl_info_get
        0x0000ef02:    b1e1        ..      CBZ      r1,0xef3e ; am_hal_mcuctrl_info_get + 60
        0x0000ef04:    2802        .(      CMP      r0,#2
        0x0000ef06:    d01c        ..      BEQ      0xef42 ; am_hal_mcuctrl_info_get + 64
        0x0000ef08:    2801        .(      CMP      r0,#1
        0x0000ef0a:    d037        7.      BEQ      0xef7c ; am_hal_mcuctrl_info_get + 122
        0x0000ef0c:    b9b8        ..      CBNZ     r0,0xef3e ; am_hal_mcuctrl_info_get + 60
        0x0000ef0e:    2000        .       MOVS     r0,#0
        0x0000ef10:    f2c40002    ....    MOVT     r0,#0x4002
        0x0000ef14:    6982        .i      LDR      r2,[r0,#0x18]
        0x0000ef16:    b2d2        ..      UXTB     r2,r2
        0x0000ef18:    f3c21380    ....    UBFX     r3,r2,#6,#1
        0x0000ef1c:    f3c20280    ....    UBFX     r2,r2,#2,#1
        0x0000ef20:    700b        .p      STRB     r3,[r1,#0]
        0x0000ef22:    704a        Jp      STRB     r2,[r1,#1]
        0x0000ef24:    f8d021a0    ...!    LDR      r2,[r0,#0x1a0]
        0x0000ef28:    f3c26281    ...b    UBFX     r2,r2,#26,#2
        0x0000ef2c:    710a        .q      STRB     r2,[r1,#4]
        0x0000ef2e:    6940        @i      LDR      r0,[r0,#0x14]
        0x0000ef30:    f3c00240    ..@.    UBFX     r2,r0,#1,#1
        0x0000ef34:    f0000001    ....    AND      r0,r0,#1
        0x0000ef38:    708a        .p      STRB     r2,[r1,#2]
        0x0000ef3a:    70c8        .p      STRB     r0,[r1,#3]
        0x0000ef3c:    e06c        l.      B        0xf018 ; am_hal_mcuctrl_info_get + 278
        0x0000ef3e:    2006        .       MOVS     r0,#6
        0x0000ef40:    4770        pG      BX       lr
        0x0000ef42:    2000        .       MOVS     r0,#0
        0x0000ef44:    f2c40002    ....    MOVT     r0,#0x4002
        0x0000ef48:    f8d021cc    ...!    LDR      r2,[r0,#0x1cc]
        0x0000ef4c:    b2d3        ..      UXTB     r3,r2
        0x0000ef4e:    f0020201    ....    AND      r2,r2,#1
        0x0000ef52:    700a        .p      STRB     r2,[r1,#0]
        0x0000ef54:    f3c30240    ..@.    UBFX     r2,r3,#1,#1
        0x0000ef58:    720a        .r      STRB     r2,[r1,#8]
        0x0000ef5a:    f3c30280    ....    UBFX     r2,r3,#2,#1
        0x0000ef5e:    740a        .t      STRB     r2,[r1,#0x10]
        0x0000ef60:    f8d021c4    ...!    LDR      r2,[r0,#0x1c4]
        0x0000ef64:    60ca        .`      STR      r2,[r1,#0xc]
        0x0000ef66:    f8d021c0    ...!    LDR      r2,[r0,#0x1c0]
        0x0000ef6a:    684b        Kh      LDR      r3,[r1,#4]
        0x0000ef6c:    431a        .C      ORRS     r2,r2,r3
        0x0000ef6e:    604a        J`      STR      r2,[r1,#4]
        0x0000ef70:    f8d001c8    ....    LDR      r0,[r0,#0x1c8]
        0x0000ef74:    694a        Ji      LDR      r2,[r1,#0x14]
        0x0000ef76:    4310        .C      ORRS     r0,r0,r2
        0x0000ef78:    6148        Ha      STR      r0,[r1,#0x14]
        0x0000ef7a:    e04d        M.      B        0xf018 ; am_hal_mcuctrl_info_get + 278
        0x0000ef7c:    2000        .       MOVS     r0,#0
        0x0000ef7e:    f2c40002    ....    MOVT     r0,#0x4002
        0x0000ef82:    6802        .h      LDR      r2,[r0,#0]
        0x0000ef84:    600a        .`      STR      r2,[r1,#0]
        0x0000ef86:    6843        Ch      LDR      r3,[r0,#4]
        0x0000ef88:    604b        K`      STR      r3,[r1,#4]
        0x0000ef8a:    6883        .h      LDR      r3,[r0,#8]
        0x0000ef8c:    608b        .`      STR      r3,[r1,#8]
        0x0000ef8e:    68c3        .h      LDR      r3,[r0,#0xc]
        0x0000ef90:    60cb        .`      STR      r3,[r1,#0xc]
        0x0000ef92:    6903        .i      LDR      r3,[r0,#0x10]
        0x0000ef94:    610b        .a      STR      r3,[r1,#0x10]
        0x0000ef96:    6940        @i      LDR      r0,[r0,#0x14]
        0x0000ef98:    f2411364    A.d.    MOV      r3,#0x1164
        0x0000ef9c:    6148        Ha      STR      r0,[r1,#0x14]
        0x0000ef9e:    2001        .       MOVS     r0,#1
        0x0000efa0:    6188        .a      STR      r0,[r1,#0x18]
        0x0000efa2:    f3c25003    ...P    UBFX     r0,r2,#20,#4
        0x0000efa6:    f2c00301    ....    MOVT     r3,#1
        0x0000efaa:    f8530020    S. .    LDR      r0,[r3,r0,LSL #2]
        0x0000efae:    f24113a4    A...    MOV      r3,#0x11a4
        0x0000efb2:    f3c24203    ...B    UBFX     r2,r2,#16,#4
        0x0000efb6:    f2c00301    ....    MOVT     r3,#1
        0x0000efba:    f8532022    S."     LDR      r2,[r3,r2,LSL #2]
        0x0000efbe:    e9c10207    ....    STRD     r0,r2,[r1,#0x1c]
        0x0000efc2:    f64070e0    @..p    MOVW     r0,#0xfe0
        0x0000efc6:    f2cf0000    ....    MOVT     r0,#0xf000
        0x0000efca:    6802        .h      LDR      r2,[r0,#0]
        0x0000efcc:    b2d2        ..      UXTB     r2,r2
        0x0000efce:    624a        Jb      STR      r2,[r1,#0x24]
        0x0000efd0:    6843        Ch      LDR      r3,[r0,#4]
        0x0000efd2:    f363220b    c.."    BFI      r2,r3,#8,#4
        0x0000efd6:    624a        Jb      STR      r2,[r1,#0x24]
        0x0000efd8:    6842        Bh      LDR      r2,[r0,#4]
        0x0000efda:    f3c21203    ....    UBFX     r2,r2,#4,#4
        0x0000efde:    628a        .b      STR      r2,[r1,#0x28]
        0x0000efe0:    6883        .h      LDR      r3,[r0,#8]
        0x0000efe2:    f3631207    c...    BFI      r2,r3,#4,#4
        0x0000efe6:    628a        .b      STR      r2,[r1,#0x28]
        0x0000efe8:    6882        .h      LDR      r2,[r0,#8]
        0x0000efea:    f00202f0    ....    AND      r2,r2,#0xf0
        0x0000efee:    62ca        .b      STR      r2,[r1,#0x2c]
        0x0000eff0:    68c3        .h      LDR      r3,[r0,#0xc]
        0x0000eff2:    f3c31303    ....    UBFX     r3,r3,#4,#4
        0x0000eff6:    441a        .D      ADD      r2,r2,r3
        0x0000eff8:    62ca        .b      STR      r2,[r1,#0x2c]
        0x0000effa:    69c2        .i      LDR      r2,[r0,#0x1c]
        0x0000effc:    0612        ..      LSLS     r2,r2,#24
        0x0000effe:    630a        .c      STR      r2,[r1,#0x30]
        0x0000f000:    6983        .i      LDR      r3,[r0,#0x18]
        0x0000f002:    f3634217    c..B    BFI      r2,r3,#16,#8
        0x0000f006:    630a        .c      STR      r2,[r1,#0x30]
        0x0000f008:    6943        Ci      LDR      r3,[r0,#0x14]
        0x0000f00a:    f363220f    c.."    BFI      r2,r3,#8,#8
        0x0000f00e:    630a        .c      STR      r2,[r1,#0x30]
        0x0000f010:    6900        .i      LDR      r0,[r0,#0x10]
        0x0000f012:    b2c0        ..      UXTB     r0,r0
        0x0000f014:    4410        .D      ADD      r0,r0,r2
        0x0000f016:    6308        .c      STR      r0,[r1,#0x30]
        0x0000f018:    2000        .       MOVS     r0,#0
        0x0000f01a:    4770        pG      BX       lr
    am_hal_pwrctrl_blebuck_trim
        0x0000f01c:    b510        ..      PUSH     {r4,lr}
        0x0000f01e:    b082        ..      SUB      sp,sp,#8
        0x0000f020:    f2403468    @.h4    MOVW     r4,#0x368
        0x0000f024:    f64f40a4    O..@    MOV      r0,#0xfca4
        0x0000f028:    f2c40402    ....    MOVT     r4,#0x4002
        0x0000f02c:    f6cf70ff    ...p    MOVT     r0,#0xffff
        0x0000f030:    5820         X      LDR      r0,[r4,r0]
        0x0000f032:    f00000fe    ....    AND      r0,r0,#0xfe
        0x0000f036:    2812        .(      CMP      r0,#0x12
        0x0000f038:    d317        ..      BCC      0xf06a ; am_hal_pwrctrl_blebuck_trim + 78
        0x0000f03a:    f7fefe97    ....    BL       am_hal_interrupt_master_disable ; 0xdd6c
        0x0000f03e:    9001        ..      STR      r0,[sp,#4]
        0x0000f040:    6820         h      LDR      r0,[r4,#0]
        0x0000f042:    2119        .!      MOVS     r1,#0x19
        0x0000f044:    f361108b    a...    BFI      r0,r1,#6,#6
        0x0000f048:    6020         `      STR      r0,[r4,#0]
        0x0000f04a:    6820         h      LDR      r0,[r4,#0]
        0x0000f04c:    210c        .!      MOVS     r1,#0xc
        0x0000f04e:    f3610005    a...    BFI      r0,r1,#0,#6
        0x0000f052:    6020         `      STR      r0,[r4,#0]
        0x0000f054:    f244003c    D.<.    MOV      r0,#0x403c
        0x0000f058:    f2c40000    ....    MOVT     r0,#0x4000
        0x0000f05c:    6801        .h      LDR      r1,[r0,#0]
        0x0000f05e:    f4210180    !...    BIC      r1,r1,#0x400000
        0x0000f062:    6001        .`      STR      r1,[r0,#0]
        0x0000f064:    9801        ..      LDR      r0,[sp,#4]
        0x0000f066:    f7fefe89    ....    BL       am_hal_interrupt_master_set ; 0xdd7c
        0x0000f06a:    b002        ..      ADD      sp,sp,#8
        0x0000f06c:    bd10        ..      POP      {r4,pc}
    am_hal_pwrctrl_bleif_workaround
        0x0000f06e:    f6430138    C.8.    MOV      r1,#0x3838
        0x0000f072:    f2c50102    ....    MOVT     r1,#0x5002
        0x0000f076:    460a        .F      MOV      r2,r1
        0x0000f078:    f8520b38    R.8.    LDR      r0,[r2],#0x38
        0x0000f07c:    f0100008    ....    ANDS     r0,r0,#8
        0x0000f080:    f2400088    @...    MOVW     r0,#0x88
        0x0000f084:    f2c40002    ....    MOVT     r0,#0x4002
        0x0000f088:    4603        .F      MOV      r3,r0
        0x0000f08a:    bf08        ..      IT       EQ
        0x0000f08c:    f1010334    ..4.    ADDEQ    r3,r1,#0x34
        0x0000f090:    6819        .h      LDR      r1,[r3,#0]
        0x0000f092:    bf18        ..      IT       NE
        0x0000f094:    f5007232    ..2r    ADDNE    r2,r0,#0x2c8
        0x0000f098:    6803        .h      LDR      r3,[r0,#0]
        0x0000f09a:    f001013f    ..?.    AND      r1,r1,#0x3f
        0x0000f09e:    f023033f    #.?.    BIC      r3,r3,#0x3f
        0x0000f0a2:    293c        <)      CMP      r1,#0x3c
        0x0000f0a4:    bf28        (.      IT       CS
        0x0000f0a6:    213c        <!      MOVCS    r1,#0x3c
        0x0000f0a8:    6003        .`      STR      r3,[r0,#0]
        0x0000f0aa:    6803        .h      LDR      r3,[r0,#0]
        0x0000f0ac:    3103        .1      ADDS     r1,#3
        0x0000f0ae:    4319        .C      ORRS     r1,r1,r3
        0x0000f0b0:    6001        .`      STR      r1,[r0,#0]
        0x0000f0b2:    6811        .h      LDR      r1,[r2,#0]
        0x0000f0b4:    f8d022c8    ..."    LDR      r2,[r0,#0x2c8]
        0x0000f0b8:    f3c14105    ...A    UBFX     r1,r1,#16,#6
        0x0000f0bc:    f422127c    ".|.    BIC      r2,r2,#0x3f0000
        0x0000f0c0:    293a        :)      CMP      r1,#0x3a
        0x0000f0c2:    bf28        (.      IT       CS
        0x0000f0c4:    213a        :!      MOVCS    r1,#0x3a
        0x0000f0c6:    f8c022c8    ..."    STR      r2,[r0,#0x2c8]
        0x0000f0ca:    f44f22a0    O.."    MOV      r2,#0x50000
        0x0000f0ce:    eb024101    ...A    ADD      r1,r2,r1,LSL #16
        0x0000f0d2:    f8d022c8    ..."    LDR      r2,[r0,#0x2c8]
        0x0000f0d6:    f401117c    ..|.    AND      r1,r1,#0x3f0000
        0x0000f0da:    4311        .C      ORRS     r1,r1,r2
        0x0000f0dc:    f8c012c8    ....    STR      r1,[r0,#0x2c8]
        0x0000f0e0:    4770        pG      BX       lr
    am_hal_pwrctrl_ldo_vddx_active_trim_adj_default
        0x0000f0e2:    b5b0        ..      PUSH     {r4,r5,r7,lr}
        0x0000f0e4:    b082        ..      SUB      sp,sp,#8
        0x0000f0e6:    460c        .F      MOV      r4,r1
        0x0000f0e8:    4605        .F      MOV      r5,r0
        0x0000f0ea:    f7fefe3f    ..?.    BL       am_hal_interrupt_master_disable ; 0xdd6c
        0x0000f0ee:    2d01        .-      CMP      r5,#1
        0x0000f0f0:    9001        ..      STR      r0,[sp,#4]
        0x0000f0f2:    d00b        ..      BEQ      0xf10c ; am_hal_pwrctrl_ldo_vddx_active_trim_adj_default + 42
        0x0000f0f4:    b9ad        ..      CBNZ     r5,0xf122 ; am_hal_pwrctrl_ldo_vddx_active_trim_adj_default + 64
        0x0000f0f6:    f7fdfded    ....    BL       am_hal_burst_ldo_patch_check ; 0xccd4
        0x0000f0fa:    b1a0        ..      CBZ      r0,0xf126 ; am_hal_pwrctrl_ldo_vddx_active_trim_adj_default + 68
        0x0000f0fc:    f6430068    C.h.    MOV      r0,#0x3868
        0x0000f100:    f2c50002    ....    MOVT     r0,#0x5002
        0x0000f104:    6800        .h      LDR      r0,[r0,#0]
        0x0000f106:    f36f209f    o..     BFC      r0,#10,#22
        0x0000f10a:    e00d        ..      B        0xf128 ; am_hal_pwrctrl_ldo_vddx_active_trim_adj_default + 70
        0x0000f10c:    f7fdfde2    ....    BL       am_hal_burst_ldo_patch_check ; 0xccd4
        0x0000f110:    b300        ..      CBZ      r0,0xf154 ; am_hal_pwrctrl_ldo_vddx_active_trim_adj_default + 114
        0x0000f112:    f6430068    C.h.    MOV      r0,#0x3868
        0x0000f116:    f2c50002    ....    MOVT     r0,#0x5002
        0x0000f11a:    6840        @h      LDR      r0,[r0,#4]
        0x0000f11c:    f000003f    ..?.    AND      r0,r0,#0x3f
        0x0000f120:    e019        ..      B        0xf156 ; am_hal_pwrctrl_ldo_vddx_active_trim_adj_default + 116
        0x0000f122:    2400        .$      MOVS     r4,#0
        0x0000f124:    e029        ).      B        0xf17a ; am_hal_pwrctrl_ldo_vddx_active_trim_adj_default + 152
        0x0000f126:    2000        .       MOVS     r0,#0
        0x0000f128:    1901        ..      ADDS     r1,r0,r4
        0x0000f12a:    f24032ff    @..2    MOV      r2,#0x3ff
        0x0000f12e:    4291        .B      CMP      r1,r2
        0x0000f130:    f24033ff    @..3    MOV      r3,#0x3ff
        0x0000f134:    bf38        8.      IT       CC
        0x0000f136:    460b        .F      MOVCC    r3,r1
        0x0000f138:    2900        .)      CMP      r1,#0
        0x0000f13a:    f2400180    @...    MOVW     r1,#0x80
        0x0000f13e:    f2c40102    ....    MOVT     r1,#0x4002
        0x0000f142:    bf48        H.      IT       MI
        0x0000f144:    2300        .#      MOVMI    r3,#0
        0x0000f146:    680d        .h      LDR      r5,[r1,#0]
        0x0000f148:    1a1c        ..      SUBS     r4,r3,r0
        0x0000f14a:    ea250002    %...    BIC      r0,r5,r2
        0x0000f14e:    4318        .C      ORRS     r0,r0,r3
        0x0000f150:    6008        .`      STR      r0,[r1,#0]
        0x0000f152:    e012        ..      B        0xf17a ; am_hal_pwrctrl_ldo_vddx_active_trim_adj_default + 152
        0x0000f154:    2000        .       MOVS     r0,#0
        0x0000f156:    1901        ..      ADDS     r1,r0,r4
        0x0000f158:    293f        ?)      CMP      r1,#0x3f
        0x0000f15a:    460a        .F      MOV      r2,r1
        0x0000f15c:    bf28        (.      IT       CS
        0x0000f15e:    223f        ?"      MOVCS    r2,#0x3f
        0x0000f160:    2900        .)      CMP      r1,#0
        0x0000f162:    f2400180    @...    MOVW     r1,#0x80
        0x0000f166:    f2c40102    ....    MOVT     r1,#0x4002
        0x0000f16a:    bf48        H.      IT       MI
        0x0000f16c:    2200        ."      MOVMI    r2,#0
        0x0000f16e:    688b        .h      LDR      r3,[r1,#8]
        0x0000f170:    1a14        ..      SUBS     r4,r2,r0
        0x0000f172:    f023003f    #.?.    BIC      r0,r3,#0x3f
        0x0000f176:    4310        .C      ORRS     r0,r0,r2
        0x0000f178:    6088        .`      STR      r0,[r1,#8]
        0x0000f17a:    f44f70a0    O..p    MOV      r0,#0x140
        0x0000f17e:    f7fefc3c    ..<.    BL       am_hal_flash_delay ; 0xd9fa
        0x0000f182:    9801        ..      LDR      r0,[sp,#4]
        0x0000f184:    f7fefdfa    ....    BL       am_hal_interrupt_master_set ; 0xdd7c
        0x0000f188:    4620         F      MOV      r0,r4
        0x0000f18a:    b002        ..      ADD      sp,sp,#8
        0x0000f18c:    bdb0        ..      POP      {r4,r5,r7,pc}
    am_hal_pwrctrl_low_power_init
        0x0000f18e:    b5b0        ..      PUSH     {r4,r5,r7,lr}
        0x0000f190:    b082        ..      SUB      sp,sp,#8
        0x0000f192:    f24160f8    A..`    MOV      r0,#0x16f8
        0x0000f196:    f2c10001    ....    MOVT     r0,#0x1001
        0x0000f19a:    6801        .h      LDR      r1,[r0,#0]
        0x0000f19c:    b929        ).      CBNZ     r1,0xf1aa ; am_hal_pwrctrl_low_power_init + 28
        0x0000f19e:    f24f0100    O...    MOVW     r1,#0xf000
        0x0000f1a2:    f6c471ff    ...q    MOVT     r1,#0x4fff
        0x0000f1a6:    6809        .h      LDR      r1,[r1,#0]
        0x0000f1a8:    6001        .`      STR      r1,[r0,#0]
        0x0000f1aa:    f2403450    @.P4    MOVW     r4,#0x350
        0x0000f1ae:    f64f45bc    O..E    MOV      r5,#0xfcbc
        0x0000f1b2:    f2c40402    ....    MOVT     r4,#0x4002
        0x0000f1b6:    f6cf75ff    ...u    MOVT     r5,#0xffff
        0x0000f1ba:    5960        `Y      LDR      r0,[r4,r5]
        0x0000f1bc:    b2c0        ..      UXTB     r0,r0
        0x0000f1be:    2821        !(      CMP      r0,#0x21
        0x0000f1c0:    d34f        O.      BCC      0xf262 ; am_hal_pwrctrl_low_power_init + 212
        0x0000f1c2:    f644406f    D.o@    MOV      r0,#0x4c6f
        0x0000f1c6:    f2c10001    ....    MOVT     r0,#0x1001
        0x0000f1ca:    7801        .x      LDRB     r1,[r0,#0]
        0x0000f1cc:    2900        .)      CMP      r1,#0
        0x0000f1ce:    d13e        >.      BNE      0xf24e ; am_hal_pwrctrl_low_power_init + 192
        0x0000f1d0:    2101        .!      MOVS     r1,#1
        0x0000f1d2:    7001        .p      STRB     r1,[r0,#0]
        0x0000f1d4:    6820         h      LDR      r0,[r4,#0]
        0x0000f1d6:    6822        "h      LDR      r2,[r4,#0]
        0x0000f1d8:    f3c05085    ...P    UBFX     r0,r0,#22,#6
        0x0000f1dc:    380c        .8      SUBS     r0,r0,#0xc
        0x0000f1de:    f04f0100    O...    MOV      r1,#0
        0x0000f1e2:    bf38        8.      IT       CC
        0x0000f1e4:    4608        .F      MOVCC    r0,r1
        0x0000f1e6:    f022627c    ".|b    BIC      r2,r2,#0xfc00000
        0x0000f1ea:    ea425080    B..P    ORR      r0,r2,r0,LSL #22
        0x0000f1ee:    6020         `      STR      r0,[r4,#0]
        0x0000f1f0:    6820         h      LDR      r0,[r4,#0]
        0x0000f1f2:    6822        "h      LDR      r2,[r4,#0]
        0x0000f1f4:    f3c02085    ...     UBFX     r0,r0,#10,#6
        0x0000f1f8:    380d        .8      SUBS     r0,r0,#0xd
        0x0000f1fa:    bf38        8.      IT       CC
        0x0000f1fc:    4608        .F      MOVCC    r0,r1
        0x0000f1fe:    f422417c    ".|A    BIC      r1,r2,#0xfc00
        0x0000f202:    ea412080    A..     ORR      r0,r1,r0,LSL #10
        0x0000f206:    6020         `      STR      r0,[r4,#0]
        0x0000f208:    6860        `h      LDR      r0,[r4,#4]
        0x0000f20a:    2108        .!      MOVS     r1,#8
        0x0000f20c:    f3615017    a..P    BFI      r0,r1,#20,#4
        0x0000f210:    6060        ``      STR      r0,[r4,#4]
        0x0000f212:    6860        `h      LDR      r0,[r4,#4]
        0x0000f214:    2205        ."      MOVS     r2,#5
        0x0000f216:    f3624013    b..@    BFI      r0,r2,#16,#4
        0x0000f21a:    6060        ``      STR      r0,[r4,#4]
        0x0000f21c:    68e0        .h      LDR      r0,[r4,#0xc]
        0x0000f21e:    f3610003    a...    BFI      r0,r1,#0,#4
        0x0000f222:    60e0        .`      STR      r0,[r4,#0xc]
        0x0000f224:    68a0        .h      LDR      r0,[r4,#8]
        0x0000f226:    2106        .!      MOVS     r1,#6
        0x0000f228:    f36160de    a..`    BFI      r0,r1,#27,#4
        0x0000f22c:    60a0        .`      STR      r0,[r4,#8]
        0x0000f22e:    68e0        .h      LDR      r0,[r4,#0xc]
        0x0000f230:    f4400000    @...    ORR      r0,r0,#0x800000
        0x0000f234:    60e0        .`      STR      r0,[r4,#0xc]
        0x0000f236:    68e0        .h      LDR      r0,[r4,#0xc]
        0x0000f238:    f0207080     ..p    BIC      r0,r0,#0x1000000
        0x0000f23c:    60e0        .`      STR      r0,[r4,#0xc]
        0x0000f23e:    6860        `h      LDR      r0,[r4,#4]
        0x0000f240:    f0405040    @.@P    ORR      r0,r0,#0x30000000
        0x0000f244:    6060        ``      STR      r0,[r4,#4]
        0x0000f246:    6860        `h      LDR      r0,[r4,#4]
        0x0000f248:    f040001f    @...    ORR      r0,r0,#0x1f
        0x0000f24c:    6060        ``      STR      r0,[r4,#4]
        0x0000f24e:    f6444071    D.q@    MOV      r0,#0x4c71
        0x0000f252:    f2c10001    ....    MOVT     r0,#0x1001
        0x0000f256:    7801        .x      LDRB     r1,[r0,#0]
        0x0000f258:    b919        ..      CBNZ     r1,0xf262 ; am_hal_pwrctrl_low_power_init + 212
        0x0000f25a:    2101        .!      MOVS     r1,#1
        0x0000f25c:    7001        .p      STRB     r1,[r0,#0]
        0x0000f25e:    f7ffff06    ....    BL       am_hal_pwrctrl_bleif_workaround ; 0xf06e
        0x0000f262:    5960        `Y      LDR      r0,[r4,r5]
        0x0000f264:    f00000fe    ....    AND      r0,r0,#0xfe
        0x0000f268:    2812        .(      CMP      r0,#0x12
        0x0000f26a:    d303        ..      BCC      0xf274 ; am_hal_pwrctrl_low_power_init + 230
        0x0000f26c:    68e0        .h      LDR      r0,[r4,#0xc]
        0x0000f26e:    f0207080     ..p    BIC      r0,r0,#0x1000000
        0x0000f272:    60e0        .`      STR      r0,[r4,#0xc]
        0x0000f274:    f2410500    A...    MOVW     r5,#0x1000
        0x0000f278:    200c        .       MOVS     r0,#0xc
        0x0000f27a:    2100        .!      MOVS     r1,#0
        0x0000f27c:    f2c40502    ....    MOVT     r5,#0x4002
        0x0000f280:    f7fdfe96    ....    BL       am_hal_cachectrl_control ; 0xcfb0
        0x0000f284:    69a8        .i      LDR      r0,[r5,#0x18]
        0x0000f286:    05c0        ..      LSLS     r0,r0,#23
        0x0000f288:    d41e        ..      BMI      0xf2c8 ; am_hal_pwrctrl_low_power_init + 314
        0x0000f28a:    f7fffec7    ....    BL       am_hal_pwrctrl_blebuck_trim ; 0xf01c
        0x0000f28e:    f64f40c8    O..@    MOV      r0,#0xfcc8
        0x0000f292:    f6cf70ff    ...p    MOVT     r0,#0xffff
        0x0000f296:    5822        "X      LDR      r2,[r4,r0]
        0x0000f298:    f5a4714e    ..Nq    SUB      r1,r4,#0x338
        0x0000f29c:    f0420201    B...    ORR      r2,r2,#1
        0x0000f2a0:    5022        "P      STR      r2,[r4,r0]
        0x0000f2a2:    2401        .$      MOVS     r4,#1
        0x0000f2a4:    f2427010    B..p    MOV      r0,#0x2710
        0x0000f2a8:    2207        ."      MOVS     r2,#7
        0x0000f2aa:    2307        .#      MOVS     r3,#7
        0x0000f2ac:    9400        ..      STR      r4,[sp,#0]
        0x0000f2ae:    f7fefbb9    ....    BL       am_hal_flash_delay_status_check ; 0xda24
        0x0000f2b2:    b108        ..      CBZ      r0,0xf2b8 ; am_hal_pwrctrl_low_power_init + 298
        0x0000f2b4:    2004        .       MOVS     r0,#4
        0x0000f2b6:    e00a        ..      B        0xf2ce ; am_hal_pwrctrl_low_power_init + 320
        0x0000f2b8:    6828        (h      LDR      r0,[r5,#0]
        0x0000f2ba:    f0400001    @...    ORR      r0,r0,#1
        0x0000f2be:    6028        (`      STR      r0,[r5,#0]
        0x0000f2c0:    6a68        hj      LDR      r0,[r5,#0x24]
        0x0000f2c2:    f0400040    @.@.    ORR      r0,r0,#0x40
        0x0000f2c6:    6268        hb      STR      r0,[r5,#0x24]
        0x0000f2c8:    f7fdfcae    ....    BL       am_hal_burst_ldo_charge ; 0xcc28
        0x0000f2cc:    2000        .       MOVS     r0,#0
        0x0000f2ce:    b002        ..      ADD      sp,sp,#8
        0x0000f2d0:    bdb0        ..      POP      {r4,r5,r7,pc}
        0x0000f2d2:    0000        ..      MOVS     r0,r0
    am_hal_pwrctrl_periph_disable
        0x0000f2d4:    b5f0        ..      PUSH     {r4-r7,lr}
        0x0000f2d6:    b081        ..      SUB      sp,sp,#4
        0x0000f2d8:    f2410508    A...    MOV      r5,#0x1008
        0x0000f2dc:    4604        .F      MOV      r4,r0
        0x0000f2de:    f2c40502    ....    MOVT     r5,#0x4002
        0x0000f2e2:    f7fefd43    ..C.    BL       am_hal_interrupt_master_disable ; 0xdd6c
        0x0000f2e6:    f640615c    @.\a    MOV      r1,#0xe5c
        0x0000f2ea:    9000        ..      STR      r0,[sp,#0]
        0x0000f2ec:    eb040044    ..D.    ADD      r0,r4,r4,LSL #1
        0x0000f2f0:    f2c00101    ....    MOVT     r1,#1
        0x0000f2f4:    eb010680    ....    ADD      r6,r1,r0,LSL #2
        0x0000f2f8:    f8564b04    V..K    LDR      r4,[r6],#4
        0x0000f2fc:    6828        (h      LDR      r0,[r5,#0]
        0x0000f2fe:    43a0        .C      BICS     r0,r0,r4
        0x0000f300:    6028        (`      STR      r0,[r5,#0]
        0x0000f302:    9800        ..      LDR      r0,[sp,#0]
        0x0000f304:    f7fefd3a    ..:.    BL       am_hal_interrupt_master_set ; 0xdd7c
        0x0000f308:    6836        6h      LDR      r6,[r6,#0]
        0x0000f30a:    2700        .'      MOVS     r7,#0
        0x0000f30c:    20a0        .       MOVS     r0,#0xa0
        0x0000f30e:    f7fefb74    ..t.    BL       am_hal_flash_delay ; 0xd9fa
        0x0000f312:    6928        (i      LDR      r0,[r5,#0x10]
        0x0000f314:    4206        .B      TST      r6,r0
        0x0000f316:    d003        ..      BEQ      0xf320 ; am_hal_pwrctrl_periph_disable + 76
        0x0000f318:    2f0a        ./      CMP      r7,#0xa
        0x0000f31a:    f107070a    ....    ADD      r7,r7,#0xa
        0x0000f31e:    d3f5        ..      BCC      0xf30c ; am_hal_pwrctrl_periph_disable + 56
        0x0000f320:    6928        (i      LDR      r0,[r5,#0x10]
        0x0000f322:    4206        .B      TST      r6,r0
        0x0000f324:    d00d        ..      BEQ      0xf342 ; am_hal_pwrctrl_periph_disable + 110
        0x0000f326:    6829        )h      LDR      r1,[r5,#0]
        0x0000f328:    2e0f        ..      CMP      r6,#0xf
        0x0000f32a:    f04f0001    O...    MOV      r0,#1
        0x0000f32e:    dc0a        ..      BGT      0xf346 ; am_hal_pwrctrl_periph_disable + 114
        0x0000f330:    2e04        ..      CMP      r6,#4
        0x0000f332:    d015        ..      BEQ      0xf360 ; am_hal_pwrctrl_periph_disable + 140
        0x0000f334:    2e08        ..      CMP      r6,#8
        0x0000f336:    d111        ..      BNE      0xf35c ; am_hal_pwrctrl_periph_disable + 136
        0x0000f338:    f0110f0e    ....    TST      r1,#0xe
        0x0000f33c:    d10a        ..      BNE      0xf354 ; am_hal_pwrctrl_periph_disable + 128
        0x0000f33e:    2001        .       MOVS     r0,#1
        0x0000f340:    e00c        ..      B        0xf35c ; am_hal_pwrctrl_periph_disable + 136
        0x0000f342:    2000        .       MOVS     r0,#0
        0x0000f344:    e00a        ..      B        0xf35c ; am_hal_pwrctrl_periph_disable + 136
        0x0000f346:    2e10        ..      CMP      r6,#0x10
        0x0000f348:    d00f        ..      BEQ      0xf36a ; am_hal_pwrctrl_periph_disable + 150
        0x0000f34a:    2e40        @.      CMP      r6,#0x40
        0x0000f34c:    d106        ..      BNE      0xf35c ; am_hal_pwrctrl_periph_disable + 136
        0x0000f34e:    f4115f60    ..`_    TST      r1,#0x3800
        0x0000f352:    d0f4        ..      BEQ      0xf33e ; am_hal_pwrctrl_periph_disable + 106
        0x0000f354:    ea140001    ....    ANDS     r0,r4,r1
        0x0000f358:    bf18        ..      IT       NE
        0x0000f35a:    2001        .       MOVNE    r0,#1
        0x0000f35c:    b001        ..      ADD      sp,sp,#4
        0x0000f35e:    bdf0        ..      POP      {r4-r7,pc}
        0x0000f360:    f2405081    @..P    MOV      r0,#0x581
        0x0000f364:    4201        .B      TST      r1,r0
        0x0000f366:    d1f5        ..      BNE      0xf354 ; am_hal_pwrctrl_periph_disable + 128
        0x0000f368:    e7e9        ..      B        0xf33e ; am_hal_pwrctrl_periph_disable + 106
        0x0000f36a:    f0110f70    ..p.    TST      r1,#0x70
        0x0000f36e:    d1f1        ..      BNE      0xf354 ; am_hal_pwrctrl_periph_disable + 128
        0x0000f370:    e7e5        ..      B        0xf33e ; am_hal_pwrctrl_periph_disable + 106
        0x0000f372:    0000        ..      MOVS     r0,r0
    am_hal_pwrctrl_periph_enable
        0x0000f374:    b5f0        ..      PUSH     {r4-r7,lr}
        0x0000f376:    b083        ..      SUB      sp,sp,#0xc
        0x0000f378:    f2410508    A...    MOV      r5,#0x1008
        0x0000f37c:    4604        .F      MOV      r4,r0
        0x0000f37e:    f2c40502    ....    MOVT     r5,#0x4002
        0x0000f382:    f7fefcf3    ....    BL       am_hal_interrupt_master_disable ; 0xdd6c
        0x0000f386:    f640615c    @.\a    MOV      r1,#0xe5c
        0x0000f38a:    9002        ..      STR      r0,[sp,#8]
        0x0000f38c:    eb040044    ..D.    ADD      r0,r4,r4,LSL #1
        0x0000f390:    f2c00101    ....    MOVT     r1,#1
        0x0000f394:    eb010680    ....    ADD      r6,r1,r0,LSL #2
        0x0000f398:    f8564b04    V..K    LDR      r4,[r6],#4
        0x0000f39c:    6828        (h      LDR      r0,[r5,#0]
        0x0000f39e:    4320         C      ORRS     r0,r0,r4
        0x0000f3a0:    6028        (`      STR      r0,[r5,#0]
        0x0000f3a2:    9802        ..      LDR      r0,[sp,#8]
        0x0000f3a4:    f7fefcea    ....    BL       am_hal_interrupt_master_set ; 0xdd7c
        0x0000f3a8:    6836        6h      LDR      r6,[r6,#0]
        0x0000f3aa:    2700        .'      MOVS     r7,#0
        0x0000f3ac:    20a0        .       MOVS     r0,#0xa0
        0x0000f3ae:    f7fefb24    ..$.    BL       am_hal_flash_delay ; 0xd9fa
        0x0000f3b2:    6928        (i      LDR      r0,[r5,#0x10]
        0x0000f3b4:    4206        .B      TST      r6,r0
        0x0000f3b6:    d103        ..      BNE      0xf3c0 ; am_hal_pwrctrl_periph_enable + 76
        0x0000f3b8:    2f0a        ./      CMP      r7,#0xa
        0x0000f3ba:    f107070a    ....    ADD      r7,r7,#0xa
        0x0000f3be:    d3f5        ..      BCC      0xf3ac ; am_hal_pwrctrl_periph_enable + 56
        0x0000f3c0:    6928        (i      LDR      r0,[r5,#0x10]
        0x0000f3c2:    4206        .B      TST      r6,r0
        0x0000f3c4:    d001        ..      BEQ      0xf3ca ; am_hal_pwrctrl_periph_enable + 86
        0x0000f3c6:    2000        .       MOVS     r0,#0
        0x0000f3c8:    e009        ..      B        0xf3de ; am_hal_pwrctrl_periph_enable + 106
        0x0000f3ca:    f7fefccf    ....    BL       am_hal_interrupt_master_disable ; 0xdd6c
        0x0000f3ce:    9001        ..      STR      r0,[sp,#4]
        0x0000f3d0:    6828        (h      LDR      r0,[r5,#0]
        0x0000f3d2:    43a0        .C      BICS     r0,r0,r4
        0x0000f3d4:    6028        (`      STR      r0,[r5,#0]
        0x0000f3d6:    9801        ..      LDR      r0,[sp,#4]
        0x0000f3d8:    f7fefcd0    ....    BL       am_hal_interrupt_master_set ; 0xdd7c
        0x0000f3dc:    2001        .       MOVS     r0,#1
        0x0000f3de:    b003        ..      ADD      sp,sp,#0xc
        0x0000f3e0:    bdf0        ..      POP      {r4-r7,pc}
    am_hal_pwrctrl_simobuck_vddx_active_trim_adj_default
        0x0000f3e2:    b570        p.      PUSH     {r4-r6,lr}
        0x0000f3e4:    b082        ..      SUB      sp,sp,#8
        0x0000f3e6:    460c        .F      MOV      r4,r1
        0x0000f3e8:    4605        .F      MOV      r5,r0
        0x0000f3ea:    f7fdfc73    ..s.    BL       am_hal_burst_ldo_patch_check ; 0xccd4
        0x0000f3ee:    b1a0        ..      CBZ      r0,0xf41a ; am_hal_pwrctrl_simobuck_vddx_active_trim_adj_default + 56
        0x0000f3f0:    f2403650    @.P6    MOVW     r6,#0x350
        0x0000f3f4:    f2c40602    ....    MOVT     r6,#0x4002
        0x0000f3f8:    f7fefcb8    ....    BL       am_hal_interrupt_master_disable ; 0xdd6c
        0x0000f3fc:    2d01        .-      CMP      r5,#1
        0x0000f3fe:    9001        ..      STR      r0,[sp,#4]
        0x0000f400:    d00d        ..      BEQ      0xf41e ; am_hal_pwrctrl_simobuck_vddx_active_trim_adj_default + 60
        0x0000f402:    b9bd        ..      CBNZ     r5,0xf434 ; am_hal_pwrctrl_simobuck_vddx_active_trim_adj_default + 82
        0x0000f404:    f7fdfc66    ..f.    BL       am_hal_burst_ldo_patch_check ; 0xccd4
        0x0000f408:    b1b0        ..      CBZ      r0,0xf438 ; am_hal_pwrctrl_simobuck_vddx_active_trim_adj_default + 86
        0x0000f40a:    f6430070    C.p.    MOV      r0,#0x3870
        0x0000f40e:    f2c50002    ....    MOVT     r0,#0x5002
        0x0000f412:    6801        .h      LDR      r1,[r0,#0]
        0x0000f414:    f36f219f    o..!    BFC      r1,#10,#22
        0x0000f418:    e00f        ..      B        0xf43a ; am_hal_pwrctrl_simobuck_vddx_active_trim_adj_default + 88
        0x0000f41a:    2400        .$      MOVS     r4,#0
        0x0000f41c:    e034        4.      B        0xf488 ; am_hal_pwrctrl_simobuck_vddx_active_trim_adj_default + 166
        0x0000f41e:    f7fdfc59    ..Y.    BL       am_hal_burst_ldo_patch_check ; 0xccd4
        0x0000f422:    b1d0        ..      CBZ      r0,0xf45a ; am_hal_pwrctrl_simobuck_vddx_active_trim_adj_default + 120
        0x0000f424:    f6430070    C.p.    MOV      r0,#0x3870
        0x0000f428:    f2c50002    ....    MOVT     r0,#0x5002
        0x0000f42c:    6800        .h      LDR      r0,[r0,#0]
        0x0000f42e:    f3c04005    ...@    UBFX     r0,r0,#16,#6
        0x0000f432:    e013        ..      B        0xf45c ; am_hal_pwrctrl_simobuck_vddx_active_trim_adj_default + 122
        0x0000f434:    2400        .$      MOVS     r4,#0
        0x0000f436:    e020         .      B        0xf47a ; am_hal_pwrctrl_simobuck_vddx_active_trim_adj_default + 152
        0x0000f438:    2100        .!      MOVS     r1,#0
        0x0000f43a:    190a        ..      ADDS     r2,r1,r4
        0x0000f43c:    f24033ff    @..3    MOV      r3,#0x3ff
        0x0000f440:    f24030ff    @..0    MOV      r0,#0x3ff
        0x0000f444:    429a        .B      CMP      r2,r3
        0x0000f446:    bf38        8.      IT       CC
        0x0000f448:    4610        .F      MOVCC    r0,r2
        0x0000f44a:    2a00        .*      CMP      r2,#0
        0x0000f44c:    bf48        H.      IT       MI
        0x0000f44e:    2000        .       MOVMI    r0,#0
        0x0000f450:    6832        2h      LDR      r2,[r6,#0]
        0x0000f452:    1a44        D.      SUBS     r4,r0,r1
        0x0000f454:    ea220103    "...    BIC      r1,r2,r3
        0x0000f458:    e00d        ..      B        0xf476 ; am_hal_pwrctrl_simobuck_vddx_active_trim_adj_default + 148
        0x0000f45a:    2000        .       MOVS     r0,#0
        0x0000f45c:    1901        ..      ADDS     r1,r0,r4
        0x0000f45e:    460a        .F      MOV      r2,r1
        0x0000f460:    293f        ?)      CMP      r1,#0x3f
        0x0000f462:    bf28        (.      IT       CS
        0x0000f464:    223f        ?"      MOVCS    r2,#0x3f
        0x0000f466:    2900        .)      CMP      r1,#0
        0x0000f468:    bf48        H.      IT       MI
        0x0000f46a:    2200        ."      MOVMI    r2,#0
        0x0000f46c:    6831        1h      LDR      r1,[r6,#0]
        0x0000f46e:    1a14        ..      SUBS     r4,r2,r0
        0x0000f470:    0410        ..      LSLS     r0,r2,#16
        0x0000f472:    f421117c    !.|.    BIC      r1,r1,#0x3f0000
        0x0000f476:    4308        .C      ORRS     r0,r0,r1
        0x0000f478:    6030        0`      STR      r0,[r6,#0]
        0x0000f47a:    f44f70a0    O..p    MOV      r0,#0x140
        0x0000f47e:    f7fefabc    ....    BL       am_hal_flash_delay ; 0xd9fa
        0x0000f482:    9801        ..      LDR      r0,[sp,#4]
        0x0000f484:    f7fefc7a    ..z.    BL       am_hal_interrupt_master_set ; 0xdd7c
        0x0000f488:    4620         F      MOV      r0,r4
        0x0000f48a:    b002        ..      ADD      sp,sp,#8
        0x0000f48c:    bd70        p.      POP      {r4-r6,pc}
    am_hal_pwrctrl_wa_vddf_boost
        0x0000f48e:    b580        ..      PUSH     {r7,lr}
        0x0000f490:    b082        ..      SUB      sp,sp,#8
        0x0000f492:    f7fefc6b    ..k.    BL       am_hal_interrupt_master_disable ; 0xdd6c
        0x0000f496:    9001        ..      STR      r0,[sp,#4]
        0x0000f498:    f2410024    A.$.    MOV      r0,#0x1024
        0x0000f49c:    f2c40002    ....    MOVT     r0,#0x4002
        0x0000f4a0:    6800        .h      LDR      r0,[r0,#0]
        0x0000f4a2:    07c0        ..      LSLS     r0,r0,#31
        0x0000f4a4:    d104        ..      BNE      0xf4b0 ; am_hal_pwrctrl_wa_vddf_boost + 34
        0x0000f4a6:    2001        .       MOVS     r0,#1
        0x0000f4a8:    2103        .!      MOVS     r1,#3
        0x0000f4aa:    f7fffe1a    ....    BL       am_hal_pwrctrl_ldo_vddx_active_trim_adj_default ; 0xf0e2
        0x0000f4ae:    e003        ..      B        0xf4b8 ; am_hal_pwrctrl_wa_vddf_boost + 42
        0x0000f4b0:    2001        .       MOVS     r0,#1
        0x0000f4b2:    2105        .!      MOVS     r1,#5
        0x0000f4b4:    f7ffff95    ....    BL       am_hal_pwrctrl_simobuck_vddx_active_trim_adj_default ; 0xf3e2
        0x0000f4b8:    f44f70a0    O..p    MOV      r0,#0x140
        0x0000f4bc:    f7fefa9d    ....    BL       am_hal_flash_delay ; 0xd9fa
        0x0000f4c0:    9801        ..      LDR      r0,[sp,#4]
        0x0000f4c2:    b002        ..      ADD      sp,sp,#8
        0x0000f4c4:    e8bd4080    ...@    POP      {r7,lr}
        0x0000f4c8:    f7febc58    ..X.    B        am_hal_interrupt_master_set ; 0xdd7c
    am_hal_pwrctrl_wa_vddf_restore
        0x0000f4cc:    b580        ..      PUSH     {r7,lr}
        0x0000f4ce:    b082        ..      SUB      sp,sp,#8
        0x0000f4d0:    f7fefc4c    ..L.    BL       am_hal_interrupt_master_disable ; 0xdd6c
        0x0000f4d4:    9001        ..      STR      r0,[sp,#4]
        0x0000f4d6:    f2410024    A.$.    MOV      r0,#0x1024
        0x0000f4da:    f2c40002    ....    MOVT     r0,#0x4002
        0x0000f4de:    6800        .h      LDR      r0,[r0,#0]
        0x0000f4e0:    07c0        ..      LSLS     r0,r0,#31
        0x0000f4e2:    d104        ..      BNE      0xf4ee ; am_hal_pwrctrl_wa_vddf_restore + 34
        0x0000f4e4:    2001        .       MOVS     r0,#1
        0x0000f4e6:    2100        .!      MOVS     r1,#0
        0x0000f4e8:    f7fffdfb    ....    BL       am_hal_pwrctrl_ldo_vddx_active_trim_adj_default ; 0xf0e2
        0x0000f4ec:    e003        ..      B        0xf4f6 ; am_hal_pwrctrl_wa_vddf_restore + 42
        0x0000f4ee:    2001        .       MOVS     r0,#1
        0x0000f4f0:    2100        .!      MOVS     r1,#0
        0x0000f4f2:    f7ffff76    ..v.    BL       am_hal_pwrctrl_simobuck_vddx_active_trim_adj_default ; 0xf3e2
        0x0000f4f6:    f44f70a0    O..p    MOV      r0,#0x140
        0x0000f4fa:    f7fefa7e    ..~.    BL       am_hal_flash_delay ; 0xd9fa
        0x0000f4fe:    9801        ..      LDR      r0,[sp,#4]
        0x0000f500:    b002        ..      ADD      sp,sp,#8
        0x0000f502:    e8bd4080    ...@    POP      {r7,lr}
        0x0000f506:    f7febc39    ..9.    B        am_hal_interrupt_master_set ; 0xdd7c
    am_hal_rtc_osc_disable
        0x0000f50a:    f2442050    D.P     MOV      r0,#0x4250
        0x0000f50e:    f2c40000    ....    MOVT     r0,#0x4000
        0x0000f512:    6801        .h      LDR      r1,[r0,#0]
        0x0000f514:    f0410110    A...    ORR      r1,r1,#0x10
        0x0000f518:    6001        .`      STR      r1,[r0,#0]
        0x0000f51a:    4770        pG      BX       lr
    am_hal_sysctrl_sleep
        0x0000f51c:    b5b0        ..      PUSH     {r4,r5,r7,lr}
        0x0000f51e:    b082        ..      SUB      sp,sp,#8
        0x0000f520:    4604        .F      MOV      r4,r0
        0x0000f522:    f7fefc23    ..#.    BL       am_hal_interrupt_master_disable ; 0xdd6c
        0x0000f526:    9000        ..      STR      r0,[sp,#0]
        0x0000f528:    f6444068    D.h@    MOV      r0,#0x4c68
        0x0000f52c:    f2c10001    ....    MOVT     r0,#0x1001
        0x0000f530:    6801        .h      LDR      r1,[r0,#0]
        0x0000f532:    3101        .1      ADDS     r1,#1
        0x0000f534:    6001        .`      STR      r1,[r0,#0]
        0x0000f536:    f2440034    D.4.    MOV      r0,#0x4034
        0x0000f53a:    f2c40000    ....    MOVT     r0,#0x4000
        0x0000f53e:    6800        .h      LDR      r0,[r0,#0]
        0x0000f540:    f0100504    ....    ANDS     r5,r0,#4
        0x0000f544:    d00a        ..      BEQ      0xf55c ; am_hal_sysctrl_sleep + 64
        0x0000f546:    f10d0007    ....    ADD      r0,sp,#7
        0x0000f54a:    f7fdfbce    ....    BL       am_hal_burst_mode_disable ; 0xccea
        0x0000f54e:    bb08        ..      CBNZ     r0,0xf594 ; am_hal_sysctrl_sleep + 120
        0x0000f550:    f89d0007    ....    LDRB     r0,[sp,#7]
        0x0000f554:    2801        .(      CMP      r0,#1
        0x0000f556:    d11d        ..      BNE      0xf594 ; am_hal_sysctrl_sleep + 120
        0x0000f558:    f7ffffb8    ....    BL       am_hal_pwrctrl_wa_vddf_restore ; 0xf4cc
        0x0000f55c:    f64e5010    N..P    MOV      r0,#0xed10
        0x0000f560:    f2ce0000    ....    MOVT     r0,#0xe000
        0x0000f564:    b1bc        ..      CBZ      r4,0xf596 ; am_hal_sysctrl_sleep + 122
        0x0000f566:    f2402150    @.P!    MOVW     r1,#0x250
        0x0000f56a:    f2c40102    ....    MOVT     r1,#0x4002
        0x0000f56e:    6809        .h      LDR      r1,[r1,#0]
        0x0000f570:    07c9        ..      LSLS     r1,r1,#31
        0x0000f572:    d110        ..      BNE      0xf596 ; am_hal_sysctrl_sleep + 122
        0x0000f574:    f24161f8    A..a    MOV      r1,#0x16f8
        0x0000f578:    f2c10101    ....    MOVT     r1,#0x1001
        0x0000f57c:    680a        .h      LDR      r2,[r1,#0]
        0x0000f57e:    b92a        *.      CBNZ     r2,0xf58c ; am_hal_sysctrl_sleep + 112
        0x0000f580:    f24f0200    O...    MOVW     r2,#0xf000
        0x0000f584:    f6c472ff    ...r    MOVT     r2,#0x4fff
        0x0000f588:    6812        .h      LDR      r2,[r2,#0]
        0x0000f58a:    600a        .`      STR      r2,[r1,#0]
        0x0000f58c:    6801        .h      LDR      r1,[r0,#0]
        0x0000f58e:    f0410104    A...    ORR      r1,r1,#4
        0x0000f592:    e003        ..      B        0xf59c ; am_hal_sysctrl_sleep + 128
        0x0000f594:    e7fe        ..      B        0xf594 ; am_hal_sysctrl_sleep + 120
        0x0000f596:    6801        .h      LDR      r1,[r0,#0]
        0x0000f598:    f0210104    !...    BIC      r1,r1,#4
        0x0000f59c:    6001        .`      STR      r1,[r0,#0]
        0x0000f59e:    2000        .       MOVS     r0,#0
        0x0000f5a0:    f3bf8f4f    ..O.    DSB      
        0x0000f5a4:    f6c570ff    ...p    MOVT     r0,#0x5fff
        0x0000f5a8:    6800        .h      LDR      r0,[r0,#0]
        0x0000f5aa:    bf30        0.      WFI      
        0x0000f5ac:    f3bf8f6f    ..o.    ISB      
        0x0000f5b0:    b11d        ..      CBZ      r5,0xf5ba ; am_hal_sysctrl_sleep + 158
        0x0000f5b2:    f10d0007    ....    ADD      r0,sp,#7
        0x0000f5b6:    f7fdfbf8    ....    BL       am_hal_burst_mode_enable ; 0xcdaa
        0x0000f5ba:    9800        ..      LDR      r0,[sp,#0]
        0x0000f5bc:    f7fefbde    ....    BL       am_hal_interrupt_master_set ; 0xdd7c
        0x0000f5c0:    b002        ..      ADD      sp,sp,#8
        0x0000f5c2:    bdb0        ..      POP      {r4,r5,r7,pc}
    am_hal_tpiu_enable
        0x0000f5c4:    b570        p.      PUSH     {r4-r6,lr}
        0x0000f5c6:    b084        ..      SUB      sp,sp,#0x10
        0x0000f5c8:    6806        .h      LDR      r6,[r0,#0]
        0x0000f5ca:    f6407400    @..t    MOVW     r4,#0xf00
        0x0000f5ce:    2504        .%      MOVS     r5,#4
        0x0000f5d0:    f2ce0404    ....    MOVT     r4,#0xe004
        0x0000f5d4:    f2ce0504    ....    MOVT     r5,#0xe004
        0x0000f5d8:    2200        ."      MOVS     r2,#0
        0x0000f5da:    f8c52300    ...#    STR      r2,[r5,#0x300]
        0x0000f5de:    b1ce        ..      CBZ      r6,0xf614 ; am_hal_tpiu_enable + 80
        0x0000f5e0:    2001        .       MOVS     r0,#1
        0x0000f5e2:    6028        (`      STR      r0,[r5,#0]
        0x0000f5e4:    a801        ..      ADD      r0,sp,#4
        0x0000f5e6:    f7fdfe3f    ..?.    BL       am_hal_clkgen_status_get ; 0xd268
        0x0000f5ea:    9801        ..      LDR      r0,[sp,#4]
        0x0000f5ec:    1c41        A.      ADDS     r1,r0,#1
        0x0000f5ee:    d01f        ..      BEQ      0xf630 ; am_hal_tpiu_enable + 108
        0x0000f5f0:    f24a3280    J..2    MOV      r2,#0xa380
        0x0000f5f4:    f5a64161    ..aA    SUB      r1,r6,#0xe100
        0x0000f5f8:    f2c0021d    ....    MOVT     r2,#0x1d
        0x0000f5fc:    08c0        ..      LSRS     r0,r0,#3
        0x0000f5fe:    4291        .B      CMP      r1,r2
        0x0000f600:    bf84        ..      ITT      HI
        0x0000f602:    f2442640    D.@&    MOVHI    r6,#0x4240
        0x0000f606:    f2c0060f    ....    MOVTHI   r6,#0xf
        0x0000f60a:    fbb0f0f6    ....    UDIV     r0,r0,r6
        0x0000f60e:    3801        .8      SUBS     r0,#1
        0x0000f610:    b280        ..      UXTH     r0,r0
        0x0000f612:    e00e        ..      B        0xf632 ; am_hal_tpiu_enable + 110
        0x0000f614:    e9d01301    ....    LDRD     r1,r3,[r0,#4]
        0x0000f618:    e9d00603    ....    LDRD     r0,r6,[r0,#0xc]
        0x0000f61c:    60ee        .`      STR      r6,[r5,#0xc]
        0x0000f61e:    f8c530ec    ...0    STR      r3,[r5,#0xec]
        0x0000f622:    3801        .8      SUBS     r0,#1
        0x0000f624:    2301        .#      MOVS     r3,#1
        0x0000f626:    fa03f000    ....    LSL      r0,r3,r0
        0x0000f62a:    6028        (`      STR      r0,[r5,#0]
        0x0000f62c:    6022        "`      STR      r2,[r4,#0]
        0x0000f62e:    e008        ..      B        0xf642 ; am_hal_tpiu_enable + 126
        0x0000f630:    2005        .       MOVS     r0,#5
        0x0000f632:    60e8        .`      STR      r0,[r5,#0xc]
        0x0000f634:    2002        .       MOVS     r0,#2
        0x0000f636:    f8c500ec    ....    STR      r0,[r5,#0xec]
        0x0000f63a:    2000        .       MOVS     r0,#0
        0x0000f63c:    6020         `      STR      r0,[r4,#0]
        0x0000f63e:    f2402101    @..!    MOV      r1,#0x201
        0x0000f642:    f2402050    @.P     MOVW     r0,#0x250
        0x0000f646:    f2c40002    ....    MOVT     r0,#0x4002
        0x0000f64a:    6001        .`      STR      r1,[r0,#0]
        0x0000f64c:    f44f7048    O.Hp    MOV      r0,#0x320
        0x0000f650:    f7fef9d3    ....    BL       am_hal_flash_delay ; 0xd9fa
        0x0000f654:    b004        ..      ADD      sp,sp,#0x10
        0x0000f656:    bd70        p.      POP      {r4-r6,pc}
    am_iomaster3_isr
        0x0000f658:    b580        ..      PUSH     {r7,lr}
        0x0000f65a:    b082        ..      SUB      sp,sp,#8
        0x0000f65c:    f6444074    D.t@    MOV      r0,#0x4c74
        0x0000f660:    f2c10001    ....    MOVT     r0,#0x1001
        0x0000f664:    6800        .h      LDR      r0,[r0,#0]
        0x0000f666:    2101        .!      MOVS     r1,#1
        0x0000f668:    aa01        ..      ADD      r2,sp,#4
        0x0000f66a:    f7fff96c    ..l.    BL       am_hal_iom_interrupt_status_get ; 0xe946
        0x0000f66e:    b998        ..      CBNZ     r0,0xf698 ; am_iomaster3_isr + 64
        0x0000f670:    e7ff        ..      B        0xf672 ; am_iomaster3_isr + 26
        0x0000f672:    9801        ..      LDR      r0,[sp,#4]
        0x0000f674:    b178        x.      CBZ      r0,0xf696 ; am_iomaster3_isr + 62
        0x0000f676:    e7ff        ..      B        0xf678 ; am_iomaster3_isr + 32
        0x0000f678:    f6444074    D.t@    MOV      r0,#0x4c74
        0x0000f67c:    f2c10001    ....    MOVT     r0,#0x1001
        0x0000f680:    9000        ..      STR      r0,[sp,#0]
        0x0000f682:    6800        .h      LDR      r0,[r0,#0]
        0x0000f684:    9901        ..      LDR      r1,[sp,#4]
        0x0000f686:    f7fff802    ....    BL       am_hal_iom_interrupt_clear ; 0xe68e
        0x0000f68a:    9800        ..      LDR      r0,[sp,#0]
        0x0000f68c:    6800        .h      LDR      r0,[r0,#0]
        0x0000f68e:    9901        ..      LDR      r1,[sp,#4]
        0x0000f690:    f7fff812    ....    BL       am_hal_iom_interrupt_service ; 0xe6b8
        0x0000f694:    e7ff        ..      B        0xf696 ; am_iomaster3_isr + 62
        0x0000f696:    e7ff        ..      B        0xf698 ; am_iomaster3_isr + 64
        0x0000f698:    b002        ..      ADD      sp,sp,#8
        0x0000f69a:    bd80        ..      POP      {r7,pc}
    am_util_faultisr_collect_data
        0x0000f69c:    b580        ..      PUSH     {r7,lr}
        0x0000f69e:    b098        ..      SUB      sp,sp,#0x60
        0x0000f6a0:    9017        ..      STR      r0,[sp,#0x5c]
        0x0000f6a2:    2000        .       MOVS     r0,#0
        0x0000f6a4:    900a        ..      STR      r0,[sp,#0x28]
        0x0000f6a6:    9009        ..      STR      r0,[sp,#0x24]
        0x0000f6a8:    9008        ..      STR      r0,[sp,#0x20]
        0x0000f6aa:    9007        ..      STR      r0,[sp,#0x1c]
        0x0000f6ac:    9006        ..      STR      r0,[sp,#0x18]
        0x0000f6ae:    9005        ..      STR      r0,[sp,#0x14]
        0x0000f6b0:    9004        ..      STR      r0,[sp,#0x10]
        0x0000f6b2:    9804        ..      LDR      r0,[sp,#0x10]
        0x0000f6b4:    9015        ..      STR      r0,[sp,#0x54]
        0x0000f6b6:    f64e5028    N.(P    MOV      r0,#0xed28
        0x0000f6ba:    f2ce0000    ....    MOVT     r0,#0xe000
        0x0000f6be:    6800        .h      LDR      r0,[r0,#0]
        0x0000f6c0:    9015        ..      STR      r0,[sp,#0x54]
        0x0000f6c2:    9815        ..      LDR      r0,[sp,#0x54]
        0x0000f6c4:    f88d0058    ..X.    STRB     r0,[sp,#0x58]
        0x0000f6c8:    9815        ..      LDR      r0,[sp,#0x54]
        0x0000f6ca:    0a00        ..      LSRS     r0,r0,#8
        0x0000f6cc:    f88d0059    ..Y.    STRB     r0,[sp,#0x59]
        0x0000f6d0:    9815        ..      LDR      r0,[sp,#0x54]
        0x0000f6d2:    0c00        ..      LSRS     r0,r0,#16
        0x0000f6d4:    f8ad005a    ..Z.    STRH     r0,[sp,#0x5a]
        0x0000f6d8:    f64e5038    N.8P    MOV      r0,#0xed38
        0x0000f6dc:    f2ce0000    ....    MOVT     r0,#0xe000
        0x0000f6e0:    6800        .h      LDR      r0,[r0,#0]
        0x0000f6e2:    9014        ..      STR      r0,[sp,#0x50]
        0x0000f6e4:    f89d0059    ..Y.    LDRB     r0,[sp,#0x59]
        0x0000f6e8:    0780        ..      LSLS     r0,r0,#30
        0x0000f6ea:    2800        .(      CMP      r0,#0
        0x0000f6ec:    d506        ..      BPL      0xf6fc ; am_util_faultisr_collect_data + 96
        0x0000f6ee:    e7ff        ..      B        0xf6f0 ; am_util_faultisr_collect_data + 84
        0x0000f6f0:    9917        ..      LDR      r1,[sp,#0x5c]
        0x0000f6f2:    2006        .       MOVS     r0,#6
        0x0000f6f4:    f000fe04    ....    BL       getStackedReg ; 0x10300
        0x0000f6f8:    9003        ..      STR      r0,[sp,#0xc]
        0x0000f6fa:    e003        ..      B        0xf704 ; am_util_faultisr_collect_data + 104
        0x0000f6fc:    f04f30ff    O..0    MOV      r0,#0xffffffff
        0x0000f700:    9003        ..      STR      r0,[sp,#0xc]
        0x0000f702:    e7ff        ..      B        0xf704 ; am_util_faultisr_collect_data + 104
        0x0000f704:    9803        ..      LDR      r0,[sp,#0xc]
        0x0000f706:    9013        ..      STR      r0,[sp,#0x4c]
        0x0000f708:    9917        ..      LDR      r1,[sp,#0x5c]
        0x0000f70a:    2000        .       MOVS     r0,#0
        0x0000f70c:    9002        ..      STR      r0,[sp,#8]
        0x0000f70e:    f000fdf7    ....    BL       getStackedReg ; 0x10300
        0x0000f712:    900b        ..      STR      r0,[sp,#0x2c]
        0x0000f714:    9917        ..      LDR      r1,[sp,#0x5c]
        0x0000f716:    2001        .       MOVS     r0,#1
        0x0000f718:    f000fdf2    ....    BL       getStackedReg ; 0x10300
        0x0000f71c:    900c        ..      STR      r0,[sp,#0x30]
        0x0000f71e:    9917        ..      LDR      r1,[sp,#0x5c]
        0x0000f720:    2002        .       MOVS     r0,#2
        0x0000f722:    9001        ..      STR      r0,[sp,#4]
        0x0000f724:    f000fdec    ....    BL       getStackedReg ; 0x10300
        0x0000f728:    900d        ..      STR      r0,[sp,#0x34]
        0x0000f72a:    9917        ..      LDR      r1,[sp,#0x5c]
        0x0000f72c:    2003        .       MOVS     r0,#3
        0x0000f72e:    f000fde7    ....    BL       getStackedReg ; 0x10300
        0x0000f732:    900e        ..      STR      r0,[sp,#0x38]
        0x0000f734:    9917        ..      LDR      r1,[sp,#0x5c]
        0x0000f736:    2004        .       MOVS     r0,#4
        0x0000f738:    f000fde2    ....    BL       getStackedReg ; 0x10300
        0x0000f73c:    900f        ..      STR      r0,[sp,#0x3c]
        0x0000f73e:    9917        ..      LDR      r1,[sp,#0x5c]
        0x0000f740:    2005        .       MOVS     r0,#5
        0x0000f742:    f000fddd    ....    BL       getStackedReg ; 0x10300
        0x0000f746:    9010        ..      STR      r0,[sp,#0x40]
        0x0000f748:    9917        ..      LDR      r1,[sp,#0x5c]
        0x0000f74a:    2006        .       MOVS     r0,#6
        0x0000f74c:    f000fdd8    ....    BL       getStackedReg ; 0x10300
        0x0000f750:    9011        ..      STR      r0,[sp,#0x44]
        0x0000f752:    9917        ..      LDR      r1,[sp,#0x5c]
        0x0000f754:    2007        .       MOVS     r0,#7
        0x0000f756:    f000fdd3    ....    BL       getStackedReg ; 0x10300
        0x0000f75a:    4601        .F      MOV      r1,r0
        0x0000f75c:    9801        ..      LDR      r0,[sp,#4]
        0x0000f75e:    9112        ..      STR      r1,[sp,#0x48]
        0x0000f760:    a905        ..      ADD      r1,sp,#0x14
        0x0000f762:    f7fffbce    ....    BL       am_hal_mcuctrl_info_get ; 0xef02
        0x0000f766:    9802        ..      LDR      r0,[sp,#8]
        0x0000f768:    9004        ..      STR      r0,[sp,#0x10]
        0x0000f76a:    e7ff        ..      B        0xf76c ; am_util_faultisr_collect_data + 208
        0x0000f76c:    e7fe        ..      B        0xf76c ; am_util_faultisr_collect_data + 208
        0x0000f76e:    0000        ..      MOVS     r0,r0
    am_util_stdio_printf
        0x0000f770:    b083        ..      SUB      sp,sp,#0xc
        0x0000f772:    b580        ..      PUSH     {r7,lr}
        0x0000f774:    b085        ..      SUB      sp,sp,#0x14
        0x0000f776:    9309        ..      STR      r3,[sp,#0x24]
        0x0000f778:    9208        ..      STR      r2,[sp,#0x20]
        0x0000f77a:    9107        ..      STR      r1,[sp,#0x1c]
        0x0000f77c:    9003        ..      STR      r0,[sp,#0xc]
        0x0000f77e:    f6444078    D.x@    MOV      r0,#0x4c78
        0x0000f782:    f2c10001    ....    MOVT     r0,#0x1001
        0x0000f786:    6800        .h      LDR      r0,[r0,#0]
        0x0000f788:    b918        ..      CBNZ     r0,0xf792 ; am_util_stdio_printf + 34
        0x0000f78a:    e7ff        ..      B        0xf78c ; am_util_stdio_printf + 28
        0x0000f78c:    2000        .       MOVS     r0,#0
        0x0000f78e:    9004        ..      STR      r0,[sp,#0x10]
        0x0000f790:    e016        ..      B        0xf7c0 ; am_util_stdio_printf + 80
        0x0000f792:    a807        ..      ADD      r0,sp,#0x1c
        0x0000f794:    9001        ..      STR      r0,[sp,#4]
        0x0000f796:    9903        ..      LDR      r1,[sp,#0xc]
        0x0000f798:    9a01        ..      LDR      r2,[sp,#4]
        0x0000f79a:    f644407c    D.|@    MOV      r0,#0x4c7c
        0x0000f79e:    f2c10001    ....    MOVT     r0,#0x1001
        0x0000f7a2:    9000        ..      STR      r0,[sp,#0]
        0x0000f7a4:    f000f824    ..$.    BL       am_util_stdio_vsprintf ; 0xf7f0
        0x0000f7a8:    4601        .F      MOV      r1,r0
        0x0000f7aa:    9800        ..      LDR      r0,[sp,#0]
        0x0000f7ac:    9102        ..      STR      r1,[sp,#8]
        0x0000f7ae:    f6444178    D.xA    MOV      r1,#0x4c78
        0x0000f7b2:    f2c10101    ....    MOVT     r1,#0x1001
        0x0000f7b6:    6809        .h      LDR      r1,[r1,#0]
        0x0000f7b8:    4788        .G      BLX      r1
        0x0000f7ba:    9802        ..      LDR      r0,[sp,#8]
        0x0000f7bc:    9004        ..      STR      r0,[sp,#0x10]
        0x0000f7be:    e7ff        ..      B        0xf7c0 ; am_util_stdio_printf + 80
        0x0000f7c0:    9804        ..      LDR      r0,[sp,#0x10]
        0x0000f7c2:    b005        ..      ADD      sp,sp,#0x14
        0x0000f7c4:    e8bd4080    ...@    POP      {r7,lr}
        0x0000f7c8:    b003        ..      ADD      sp,sp,#0xc
        0x0000f7ca:    4770        pG      BX       lr
    am_util_stdio_printf_init
        0x0000f7cc:    b081        ..      SUB      sp,sp,#4
        0x0000f7ce:    9000        ..      STR      r0,[sp,#0]
        0x0000f7d0:    9800        ..      LDR      r0,[sp,#0]
        0x0000f7d2:    f6444178    D.xA    MOV      r1,#0x4c78
        0x0000f7d6:    f2c10101    ....    MOVT     r1,#0x1001
        0x0000f7da:    6008        .`      STR      r0,[r1,#0]
        0x0000f7dc:    b001        ..      ADD      sp,sp,#4
        0x0000f7de:    4770        pG      BX       lr
    am_util_stdio_terminal_clear
        0x0000f7e0:    b580        ..      PUSH     {r7,lr}
        0x0000f7e2:    f2415078    A.xP    MOV      r0,#0x1578
        0x0000f7e6:    f2c00001    ....    MOVT     r0,#1
        0x0000f7ea:    f7ffffc1    ....    BL       am_util_stdio_printf ; 0xf770
        0x0000f7ee:    bd80        ..      POP      {r7,pc}
    am_util_stdio_vsprintf
        0x0000f7f0:    b580        ..      PUSH     {r7,lr}
        0x0000f7f2:    b09e        ..      SUB      sp,sp,#0x78
        0x0000f7f4:    921d        ..      STR      r2,[sp,#0x74]
        0x0000f7f6:    901c        ..      STR      r0,[sp,#0x70]
        0x0000f7f8:    911b        ..      STR      r1,[sp,#0x6c]
        0x0000f7fa:    2000        .       MOVS     r0,#0
        0x0000f7fc:    9014        ..      STR      r0,[sp,#0x50]
        0x0000f7fe:    900e        ..      STR      r0,[sp,#0x38]
        0x0000f800:    e7ff        ..      B        0xf802 ; am_util_stdio_vsprintf + 18
        0x0000f802:    981b        ..      LDR      r0,[sp,#0x6c]
        0x0000f804:    7800        .x      LDRB     r0,[r0,#0]
        0x0000f806:    2800        .(      CMP      r0,#0
        0x0000f808:    f0008312    ....    BEQ.W    0xfe30 ; am_util_stdio_vsprintf + 1600
        0x0000f80c:    e7ff        ..      B        0xf80e ; am_util_stdio_vsprintf + 30
        0x0000f80e:    2006        .       MOVS     r0,#6
        0x0000f810:    9011        ..      STR      r0,[sp,#0x44]
        0x0000f812:    981b        ..      LDR      r0,[sp,#0x6c]
        0x0000f814:    7800        .x      LDRB     r0,[r0,#0]
        0x0000f816:    2825        %(      CMP      r0,#0x25
        0x0000f818:    d027        '.      BEQ      0xf86a ; am_util_stdio_vsprintf + 122
        0x0000f81a:    e7ff        ..      B        0xf81c ; am_util_stdio_vsprintf + 44
        0x0000f81c:    981c        ..      LDR      r0,[sp,#0x70]
        0x0000f81e:    b1e8        ..      CBZ      r0,0xf85c ; am_util_stdio_vsprintf + 108
        0x0000f820:    e7ff        ..      B        0xf822 ; am_util_stdio_vsprintf + 50
        0x0000f822:    981b        ..      LDR      r0,[sp,#0x6c]
        0x0000f824:    7800        .x      LDRB     r0,[r0,#0]
        0x0000f826:    280a        .(      CMP      r0,#0xa
        0x0000f828:    d111        ..      BNE      0xf84e ; am_util_stdio_vsprintf + 94
        0x0000f82a:    e7ff        ..      B        0xf82c ; am_util_stdio_vsprintf + 60
        0x0000f82c:    f6444070    D.p@    MOV      r0,#0x4c70
        0x0000f830:    f2c10001    ....    MOVT     r0,#0x1001
        0x0000f834:    7800        .x      LDRB     r0,[r0,#0]
        0x0000f836:    07c0        ..      LSLS     r0,r0,#31
        0x0000f838:    b148        H.      CBZ      r0,0xf84e ; am_util_stdio_vsprintf + 94
        0x0000f83a:    e7ff        ..      B        0xf83c ; am_util_stdio_vsprintf + 76
        0x0000f83c:    991c        ..      LDR      r1,[sp,#0x70]
        0x0000f83e:    1c48        H.      ADDS     r0,r1,#1
        0x0000f840:    901c        ..      STR      r0,[sp,#0x70]
        0x0000f842:    200d        .       MOVS     r0,#0xd
        0x0000f844:    7008        .p      STRB     r0,[r1,#0]
        0x0000f846:    9814        ..      LDR      r0,[sp,#0x50]
        0x0000f848:    3001        .0      ADDS     r0,#1
        0x0000f84a:    9014        ..      STR      r0,[sp,#0x50]
        0x0000f84c:    e7ff        ..      B        0xf84e ; am_util_stdio_vsprintf + 94
        0x0000f84e:    981b        ..      LDR      r0,[sp,#0x6c]
        0x0000f850:    7800        .x      LDRB     r0,[r0,#0]
        0x0000f852:    991c        ..      LDR      r1,[sp,#0x70]
        0x0000f854:    1c4a        J.      ADDS     r2,r1,#1
        0x0000f856:    921c        ..      STR      r2,[sp,#0x70]
        0x0000f858:    7008        .p      STRB     r0,[r1,#0]
        0x0000f85a:    e7ff        ..      B        0xf85c ; am_util_stdio_vsprintf + 108
        0x0000f85c:    981b        ..      LDR      r0,[sp,#0x6c]
        0x0000f85e:    3001        .0      ADDS     r0,#1
        0x0000f860:    901b        ..      STR      r0,[sp,#0x6c]
        0x0000f862:    9814        ..      LDR      r0,[sp,#0x50]
        0x0000f864:    3001        .0      ADDS     r0,#1
        0x0000f866:    9014        ..      STR      r0,[sp,#0x50]
        0x0000f868:    e7cb        ..      B        0xf802 ; am_util_stdio_vsprintf + 18
        0x0000f86a:    981b        ..      LDR      r0,[sp,#0x6c]
        0x0000f86c:    3001        .0      ADDS     r0,#1
        0x0000f86e:    901b        ..      STR      r0,[sp,#0x6c]
        0x0000f870:    2000        .       MOVS     r0,#0
        0x0000f872:    f88d0040    ..@.    STRB     r0,[sp,#0x40]
        0x0000f876:    f88d0041    ..A.    STRB     r0,[sp,#0x41]
        0x0000f87a:    2020                MOVS     r0,#0x20
        0x0000f87c:    f88d0042    ..B.    STRB     r0,[sp,#0x42]
        0x0000f880:    981b        ..      LDR      r0,[sp,#0x6c]
        0x0000f882:    7800        .x      LDRB     r0,[r0,#0]
        0x0000f884:    2830        0(      CMP      r0,#0x30
        0x0000f886:    d107        ..      BNE      0xf898 ; am_util_stdio_vsprintf + 168
        0x0000f888:    e7ff        ..      B        0xf88a ; am_util_stdio_vsprintf + 154
        0x0000f88a:    2030        0       MOVS     r0,#0x30
        0x0000f88c:    f88d0042    ..B.    STRB     r0,[sp,#0x42]
        0x0000f890:    981b        ..      LDR      r0,[sp,#0x6c]
        0x0000f892:    3001        .0      ADDS     r0,#1
        0x0000f894:    901b        ..      STR      r0,[sp,#0x6c]
        0x0000f896:    e7ff        ..      B        0xf898 ; am_util_stdio_vsprintf + 168
        0x0000f898:    981b        ..      LDR      r0,[sp,#0x6c]
        0x0000f89a:    a915        ..      ADD      r1,sp,#0x54
        0x0000f89c:    f000fad2    ....    BL       decstr_to_int ; 0xfe44
        0x0000f8a0:    9013        ..      STR      r0,[sp,#0x4c]
        0x0000f8a2:    9915        ..      LDR      r1,[sp,#0x54]
        0x0000f8a4:    981b        ..      LDR      r0,[sp,#0x6c]
        0x0000f8a6:    4408        .D      ADD      r0,r0,r1
        0x0000f8a8:    901b        ..      STR      r0,[sp,#0x6c]
        0x0000f8aa:    981b        ..      LDR      r0,[sp,#0x6c]
        0x0000f8ac:    7800        .x      LDRB     r0,[r0,#0]
        0x0000f8ae:    2873        s(      CMP      r0,#0x73
        0x0000f8b0:    d009        ..      BEQ      0xf8c6 ; am_util_stdio_vsprintf + 214
        0x0000f8b2:    e7ff        ..      B        0xf8b4 ; am_util_stdio_vsprintf + 196
        0x0000f8b4:    9813        ..      LDR      r0,[sp,#0x4c]
        0x0000f8b6:    f1b03fff    ...?    CMP      r0,#0xffffffff
        0x0000f8ba:    dc04        ..      BGT      0xf8c6 ; am_util_stdio_vsprintf + 214
        0x0000f8bc:    e7ff        ..      B        0xf8be ; am_util_stdio_vsprintf + 206
        0x0000f8be:    9813        ..      LDR      r0,[sp,#0x4c]
        0x0000f8c0:    4240        @B      RSBS     r0,r0,#0
        0x0000f8c2:    9013        ..      STR      r0,[sp,#0x4c]
        0x0000f8c4:    e7ff        ..      B        0xf8c6 ; am_util_stdio_vsprintf + 214
        0x0000f8c6:    981b        ..      LDR      r0,[sp,#0x6c]
        0x0000f8c8:    7800        .x      LDRB     r0,[r0,#0]
        0x0000f8ca:    282e        .(      CMP      r0,#0x2e
        0x0000f8cc:    d10d        ..      BNE      0xf8ea ; am_util_stdio_vsprintf + 250
        0x0000f8ce:    e7ff        ..      B        0xf8d0 ; am_util_stdio_vsprintf + 224
        0x0000f8d0:    981b        ..      LDR      r0,[sp,#0x6c]
        0x0000f8d2:    3001        .0      ADDS     r0,#1
        0x0000f8d4:    901b        ..      STR      r0,[sp,#0x6c]
        0x0000f8d6:    981b        ..      LDR      r0,[sp,#0x6c]
        0x0000f8d8:    a915        ..      ADD      r1,sp,#0x54
        0x0000f8da:    f000fab3    ....    BL       decstr_to_int ; 0xfe44
        0x0000f8de:    9011        ..      STR      r0,[sp,#0x44]
        0x0000f8e0:    9915        ..      LDR      r1,[sp,#0x54]
        0x0000f8e2:    981b        ..      LDR      r0,[sp,#0x6c]
        0x0000f8e4:    4408        .D      ADD      r0,r0,r1
        0x0000f8e6:    901b        ..      STR      r0,[sp,#0x6c]
        0x0000f8e8:    e7ff        ..      B        0xf8ea ; am_util_stdio_vsprintf + 250
        0x0000f8ea:    981b        ..      LDR      r0,[sp,#0x6c]
        0x0000f8ec:    7800        .x      LDRB     r0,[r0,#0]
        0x0000f8ee:    286c        l(      CMP      r0,#0x6c
        0x0000f8f0:    d110        ..      BNE      0xf914 ; am_util_stdio_vsprintf + 292
        0x0000f8f2:    e7ff        ..      B        0xf8f4 ; am_util_stdio_vsprintf + 260
        0x0000f8f4:    981b        ..      LDR      r0,[sp,#0x6c]
        0x0000f8f6:    3001        .0      ADDS     r0,#1
        0x0000f8f8:    901b        ..      STR      r0,[sp,#0x6c]
        0x0000f8fa:    981b        ..      LDR      r0,[sp,#0x6c]
        0x0000f8fc:    7800        .x      LDRB     r0,[r0,#0]
        0x0000f8fe:    286c        l(      CMP      r0,#0x6c
        0x0000f900:    d107        ..      BNE      0xf912 ; am_util_stdio_vsprintf + 290
        0x0000f902:    e7ff        ..      B        0xf904 ; am_util_stdio_vsprintf + 276
        0x0000f904:    981b        ..      LDR      r0,[sp,#0x6c]
        0x0000f906:    3001        .0      ADDS     r0,#1
        0x0000f908:    901b        ..      STR      r0,[sp,#0x6c]
        0x0000f90a:    2001        .       MOVS     r0,#1
        0x0000f90c:    f88d0040    ..@.    STRB     r0,[sp,#0x40]
        0x0000f910:    e7ff        ..      B        0xf912 ; am_util_stdio_vsprintf + 290
        0x0000f912:    e7ff        ..      B        0xf914 ; am_util_stdio_vsprintf + 292
        0x0000f914:    981b        ..      LDR      r0,[sp,#0x6c]
        0x0000f916:    7800        .x      LDRB     r0,[r0,#0]
        0x0000f918:    3846        F8      SUBS     r0,r0,#0x46
        0x0000f91a:    4601        .F      MOV      r1,r0
        0x0000f91c:    910b        ..      STR      r1,[sp,#0x2c]
        0x0000f91e:    2832        2(      CMP      r0,#0x32
        0x0000f920:    f2008273    ..s.    BHI.W    0xfe0a ; am_util_stdio_vsprintf + 1562
        0x0000f924:    990b        ..      LDR      r1,[sp,#0x2c]
        0x0000f926:    e8dff011    ....    TBH      [pc,r1,LSL #1]
    $d.4
        0x0000f92a:    0224        $.      DCW    548
        0x0000f92c:    02700270    p.p.    DCD    40895088
        0x0000f930:    02700270    p.p.    DCD    40895088
        0x0000f934:    02700270    p.p.    DCD    40895088
        0x0000f938:    02700270    p.p.    DCD    40895088
        0x0000f93c:    02700270    p.p.    DCD    40895088
        0x0000f940:    02700270    p.p.    DCD    40895088
        0x0000f944:    02700270    p.p.    DCD    40895088
        0x0000f948:    02700270    p.p.    DCD    40895088
        0x0000f94c:    00bf0270    p...    DCD    12518000
        0x0000f950:    02700270    p.p.    DCD    40895088
        0x0000f954:    02700270    p.p.    DCD    40895088
        0x0000f958:    02700270    p.p.    DCD    40895088
        0x0000f95c:    02700270    p.p.    DCD    40895088
        0x0000f960:    02700270    p.p.    DCD    40895088
        0x0000f964:    016f0033    3.o.    DCD    24051763
        0x0000f968:    02240270    p.$.    DCD    35914352
        0x0000f96c:    02700270    p.p.    DCD    40895088
        0x0000f970:    0270016f    o.p.    DCD    40894831
        0x0000f974:    02700270    p.p.    DCD    40895088
        0x0000f978:    02700270    p.p.    DCD    40895088
        0x0000f97c:    02700270    p.p.    DCD    40895088
        0x0000f980:    02700270    p.p.    DCD    40895088
        0x0000f984:    02700047    G.p.    DCD    40894535
        0x0000f988:    02700119    ..p.    DCD    40894745
        0x0000f98c:    00bb0270    p...    DCD    12255856
    $t.5
        0x0000f990:    981d        ..      LDR      r0,[sp,#0x74]
        0x0000f992:    1d01        ..      ADDS     r1,r0,#4
        0x0000f994:    911d        ..      STR      r1,[sp,#0x74]
        0x0000f996:    6800        .h      LDR      r0,[r0,#0]
        0x0000f998:    f88d0043    ..C.    STRB     r0,[sp,#0x43]
        0x0000f99c:    981c        ..      LDR      r0,[sp,#0x70]
        0x0000f99e:    b138        8.      CBZ      r0,0xf9b0 ; am_util_stdio_vsprintf + 448
        0x0000f9a0:    e7ff        ..      B        0xf9a2 ; am_util_stdio_vsprintf + 434
        0x0000f9a2:    f89d0043    ..C.    LDRB     r0,[sp,#0x43]
        0x0000f9a6:    991c        ..      LDR      r1,[sp,#0x70]
        0x0000f9a8:    1c4a        J.      ADDS     r2,r1,#1
        0x0000f9aa:    921c        ..      STR      r2,[sp,#0x70]
        0x0000f9ac:    7008        .p      STRB     r0,[r1,#0]
        0x0000f9ae:    e7ff        ..      B        0xf9b0 ; am_util_stdio_vsprintf + 448
        0x0000f9b0:    9814        ..      LDR      r0,[sp,#0x50]
        0x0000f9b2:    3001        .0      ADDS     r0,#1
        0x0000f9b4:    9014        ..      STR      r0,[sp,#0x50]
        0x0000f9b6:    e236        6.      B        0xfe26 ; am_util_stdio_vsprintf + 1590
        0x0000f9b8:    981d        ..      LDR      r0,[sp,#0x74]
        0x0000f9ba:    1d01        ..      ADDS     r1,r0,#4
        0x0000f9bc:    911d        ..      STR      r1,[sp,#0x74]
        0x0000f9be:    6800        .h      LDR      r0,[r0,#0]
        0x0000f9c0:    901a        ..      STR      r0,[sp,#0x68]
        0x0000f9c2:    981a        ..      LDR      r0,[sp,#0x68]
        0x0000f9c4:    f000fff0    ....    BL       simple_strlen ; 0x109a8
        0x0000f9c8:    900e        ..      STR      r0,[sp,#0x38]
        0x0000f9ca:    9813        ..      LDR      r0,[sp,#0x4c]
        0x0000f9cc:    2801        .(      CMP      r0,#1
        0x0000f9ce:    db25        %.      BLT      0xfa1c ; am_util_stdio_vsprintf + 556
        0x0000f9d0:    e7ff        ..      B        0xf9d2 ; am_util_stdio_vsprintf + 482
        0x0000f9d2:    980e        ..      LDR      r0,[sp,#0x38]
        0x0000f9d4:    9913        ..      LDR      r1,[sp,#0x4c]
        0x0000f9d6:    4288        .B      CMP      r0,r1
        0x0000f9d8:    d21f        ..      BCS      0xfa1a ; am_util_stdio_vsprintf + 554
        0x0000f9da:    e7ff        ..      B        0xf9dc ; am_util_stdio_vsprintf + 492
        0x0000f9dc:    990e        ..      LDR      r1,[sp,#0x38]
        0x0000f9de:    9813        ..      LDR      r0,[sp,#0x4c]
        0x0000f9e0:    1a40        @.      SUBS     r0,r0,r1
        0x0000f9e2:    9013        ..      STR      r0,[sp,#0x4c]
        0x0000f9e4:    981c        ..      LDR      r0,[sp,#0x70]
        0x0000f9e6:    f89d1042    ..B.    LDRB     r1,[sp,#0x42]
        0x0000f9ea:    9a13        ..      LDR      r2,[sp,#0x4c]
        0x0000f9ec:    f000feb0    ....    BL       padbuffer ; 0x10750
        0x0000f9f0:    9013        ..      STR      r0,[sp,#0x4c]
        0x0000f9f2:    981c        ..      LDR      r0,[sp,#0x70]
        0x0000f9f4:    b118        ..      CBZ      r0,0xf9fe ; am_util_stdio_vsprintf + 526
        0x0000f9f6:    e7ff        ..      B        0xf9f8 ; am_util_stdio_vsprintf + 520
        0x0000f9f8:    9813        ..      LDR      r0,[sp,#0x4c]
        0x0000f9fa:    900a        ..      STR      r0,[sp,#0x28]
        0x0000f9fc:    e002        ..      B        0xfa04 ; am_util_stdio_vsprintf + 532
        0x0000f9fe:    2000        .       MOVS     r0,#0
        0x0000fa00:    900a        ..      STR      r0,[sp,#0x28]
        0x0000fa02:    e7ff        ..      B        0xfa04 ; am_util_stdio_vsprintf + 532
        0x0000fa04:    990a        ..      LDR      r1,[sp,#0x28]
        0x0000fa06:    981c        ..      LDR      r0,[sp,#0x70]
        0x0000fa08:    4408        .D      ADD      r0,r0,r1
        0x0000fa0a:    901c        ..      STR      r0,[sp,#0x70]
        0x0000fa0c:    9913        ..      LDR      r1,[sp,#0x4c]
        0x0000fa0e:    9814        ..      LDR      r0,[sp,#0x50]
        0x0000fa10:    4408        .D      ADD      r0,r0,r1
        0x0000fa12:    9014        ..      STR      r0,[sp,#0x50]
        0x0000fa14:    2000        .       MOVS     r0,#0
        0x0000fa16:    9013        ..      STR      r0,[sp,#0x4c]
        0x0000fa18:    e7ff        ..      B        0xfa1a ; am_util_stdio_vsprintf + 554
        0x0000fa1a:    e7ff        ..      B        0xfa1c ; am_util_stdio_vsprintf + 556
        0x0000fa1c:    e7ff        ..      B        0xfa1e ; am_util_stdio_vsprintf + 558
        0x0000fa1e:    981a        ..      LDR      r0,[sp,#0x68]
        0x0000fa20:    7800        .x      LDRB     r0,[r0,#0]
        0x0000fa22:    b188        ..      CBZ      r0,0xfa48 ; am_util_stdio_vsprintf + 600
        0x0000fa24:    e7ff        ..      B        0xfa26 ; am_util_stdio_vsprintf + 566
        0x0000fa26:    981c        ..      LDR      r0,[sp,#0x70]
        0x0000fa28:    b138        8.      CBZ      r0,0xfa3a ; am_util_stdio_vsprintf + 586
        0x0000fa2a:    e7ff        ..      B        0xfa2c ; am_util_stdio_vsprintf + 572
        0x0000fa2c:    981a        ..      LDR      r0,[sp,#0x68]
        0x0000fa2e:    7800        .x      LDRB     r0,[r0,#0]
        0x0000fa30:    991c        ..      LDR      r1,[sp,#0x70]
        0x0000fa32:    1c4a        J.      ADDS     r2,r1,#1
        0x0000fa34:    921c        ..      STR      r2,[sp,#0x70]
        0x0000fa36:    7008        .p      STRB     r0,[r1,#0]
        0x0000fa38:    e7ff        ..      B        0xfa3a ; am_util_stdio_vsprintf + 586
        0x0000fa3a:    981a        ..      LDR      r0,[sp,#0x68]
        0x0000fa3c:    3001        .0      ADDS     r0,#1
        0x0000fa3e:    901a        ..      STR      r0,[sp,#0x68]
        0x0000fa40:    9814        ..      LDR      r0,[sp,#0x50]
        0x0000fa42:    3001        .0      ADDS     r0,#1
        0x0000fa44:    9014        ..      STR      r0,[sp,#0x50]
        0x0000fa46:    e7ea        ..      B        0xfa1e ; am_util_stdio_vsprintf + 558
        0x0000fa48:    9813        ..      LDR      r0,[sp,#0x4c]
        0x0000fa4a:    b340        @.      CBZ      r0,0xfa9e ; am_util_stdio_vsprintf + 686
        0x0000fa4c:    e7ff        ..      B        0xfa4e ; am_util_stdio_vsprintf + 606
        0x0000fa4e:    9813        ..      LDR      r0,[sp,#0x4c]
        0x0000fa50:    4240        @B      RSBS     r0,r0,#0
        0x0000fa52:    9013        ..      STR      r0,[sp,#0x4c]
        0x0000fa54:    980e        ..      LDR      r0,[sp,#0x38]
        0x0000fa56:    9913        ..      LDR      r1,[sp,#0x4c]
        0x0000fa58:    4288        .B      CMP      r0,r1
        0x0000fa5a:    d21f        ..      BCS      0xfa9c ; am_util_stdio_vsprintf + 684
        0x0000fa5c:    e7ff        ..      B        0xfa5e ; am_util_stdio_vsprintf + 622
        0x0000fa5e:    990e        ..      LDR      r1,[sp,#0x38]
        0x0000fa60:    9813        ..      LDR      r0,[sp,#0x4c]
        0x0000fa62:    1a40        @.      SUBS     r0,r0,r1
        0x0000fa64:    9013        ..      STR      r0,[sp,#0x4c]
        0x0000fa66:    981c        ..      LDR      r0,[sp,#0x70]
        0x0000fa68:    f89d1042    ..B.    LDRB     r1,[sp,#0x42]
        0x0000fa6c:    9a13        ..      LDR      r2,[sp,#0x4c]
        0x0000fa6e:    f000fe6f    ..o.    BL       padbuffer ; 0x10750
        0x0000fa72:    9013        ..      STR      r0,[sp,#0x4c]
        0x0000fa74:    981c        ..      LDR      r0,[sp,#0x70]
        0x0000fa76:    b118        ..      CBZ      r0,0xfa80 ; am_util_stdio_vsprintf + 656
        0x0000fa78:    e7ff        ..      B        0xfa7a ; am_util_stdio_vsprintf + 650
        0x0000fa7a:    9813        ..      LDR      r0,[sp,#0x4c]
        0x0000fa7c:    9009        ..      STR      r0,[sp,#0x24]
        0x0000fa7e:    e002        ..      B        0xfa86 ; am_util_stdio_vsprintf + 662
        0x0000fa80:    2000        .       MOVS     r0,#0
        0x0000fa82:    9009        ..      STR      r0,[sp,#0x24]
        0x0000fa84:    e7ff        ..      B        0xfa86 ; am_util_stdio_vsprintf + 662
        0x0000fa86:    9909        ..      LDR      r1,[sp,#0x24]
        0x0000fa88:    981c        ..      LDR      r0,[sp,#0x70]
        0x0000fa8a:    4408        .D      ADD      r0,r0,r1
        0x0000fa8c:    901c        ..      STR      r0,[sp,#0x70]
        0x0000fa8e:    9913        ..      LDR      r1,[sp,#0x4c]
        0x0000fa90:    9814        ..      LDR      r0,[sp,#0x50]
        0x0000fa92:    4408        .D      ADD      r0,r0,r1
        0x0000fa94:    9014        ..      STR      r0,[sp,#0x50]
        0x0000fa96:    2000        .       MOVS     r0,#0
        0x0000fa98:    9013        ..      STR      r0,[sp,#0x4c]
        0x0000fa9a:    e7ff        ..      B        0xfa9c ; am_util_stdio_vsprintf + 684
        0x0000fa9c:    e7ff        ..      B        0xfa9e ; am_util_stdio_vsprintf + 686
        0x0000fa9e:    e1c2        ..      B        0xfe26 ; am_util_stdio_vsprintf + 1590
        0x0000faa0:    2001        .       MOVS     r0,#1
        0x0000faa2:    f88d0041    ..A.    STRB     r0,[sp,#0x41]
        0x0000faa6:    e7ff        ..      B        0xfaa8 ; am_util_stdio_vsprintf + 696
        0x0000faa8:    f89d0040    ..@.    LDRB     r0,[sp,#0x40]
        0x0000faac:    07c0        ..      LSLS     r0,r0,#31
        0x0000faae:    b160        `.      CBZ      r0,0xfaca ; am_util_stdio_vsprintf + 730
        0x0000fab0:    e7ff        ..      B        0xfab2 ; am_util_stdio_vsprintf + 706
        0x0000fab2:    981d        ..      LDR      r0,[sp,#0x74]
        0x0000fab4:    3007        .0      ADDS     r0,#7
        0x0000fab6:    f0200007     ...    BIC      r0,r0,#7
        0x0000faba:    f1000108    ....    ADD      r1,r0,#8
        0x0000fabe:    911d        ..      STR      r1,[sp,#0x74]
        0x0000fac0:    6801        .h      LDR      r1,[r0,#0]
        0x0000fac2:    6840        @h      LDR      r0,[r0,#4]
        0x0000fac4:    9107        ..      STR      r1,[sp,#0x1c]
        0x0000fac6:    9008        ..      STR      r0,[sp,#0x20]
        0x0000fac8:    e007        ..      B        0xfada ; am_util_stdio_vsprintf + 746
        0x0000faca:    981d        ..      LDR      r0,[sp,#0x74]
        0x0000facc:    1d01        ..      ADDS     r1,r0,#4
        0x0000face:    911d        ..      STR      r1,[sp,#0x74]
        0x0000fad0:    6801        .h      LDR      r1,[r0,#0]
        0x0000fad2:    2000        .       MOVS     r0,#0
        0x0000fad4:    9107        ..      STR      r1,[sp,#0x1c]
        0x0000fad6:    9008        ..      STR      r0,[sp,#0x20]
        0x0000fad8:    e7ff        ..      B        0xfada ; am_util_stdio_vsprintf + 746
        0x0000fada:    9907        ..      LDR      r1,[sp,#0x1c]
        0x0000fadc:    9808        ..      LDR      r0,[sp,#0x20]
        0x0000fade:    9118        ..      STR      r1,[sp,#0x60]
        0x0000fae0:    9019        ..      STR      r0,[sp,#0x64]
        0x0000fae2:    9813        ..      LDR      r0,[sp,#0x4c]
        0x0000fae4:    b318        ..      CBZ      r0,0xfb2e ; am_util_stdio_vsprintf + 830
        0x0000fae6:    e7ff        ..      B        0xfae8 ; am_util_stdio_vsprintf + 760
        0x0000fae8:    9818        ..      LDR      r0,[sp,#0x60]
        0x0000faea:    9919        ..      LDR      r1,[sp,#0x64]
        0x0000faec:    f000fdda    ....    BL       ndigits_in_hex ; 0x106a4
        0x0000faf0:    4601        .F      MOV      r1,r0
        0x0000faf2:    9813        ..      LDR      r0,[sp,#0x4c]
        0x0000faf4:    1a40        @.      SUBS     r0,r0,r1
        0x0000faf6:    9013        ..      STR      r0,[sp,#0x4c]
        0x0000faf8:    981c        ..      LDR      r0,[sp,#0x70]
        0x0000fafa:    f89d1042    ..B.    LDRB     r1,[sp,#0x42]
        0x0000fafe:    9a13        ..      LDR      r2,[sp,#0x4c]
        0x0000fb00:    f000fe26    ..&.    BL       padbuffer ; 0x10750
        0x0000fb04:    9013        ..      STR      r0,[sp,#0x4c]
        0x0000fb06:    981c        ..      LDR      r0,[sp,#0x70]
        0x0000fb08:    b118        ..      CBZ      r0,0xfb12 ; am_util_stdio_vsprintf + 802
        0x0000fb0a:    e7ff        ..      B        0xfb0c ; am_util_stdio_vsprintf + 796
        0x0000fb0c:    9813        ..      LDR      r0,[sp,#0x4c]
        0x0000fb0e:    9006        ..      STR      r0,[sp,#0x18]
        0x0000fb10:    e002        ..      B        0xfb18 ; am_util_stdio_vsprintf + 808
        0x0000fb12:    2000        .       MOVS     r0,#0
        0x0000fb14:    9006        ..      STR      r0,[sp,#0x18]
        0x0000fb16:    e7ff        ..      B        0xfb18 ; am_util_stdio_vsprintf + 808
        0x0000fb18:    9906        ..      LDR      r1,[sp,#0x18]
        0x0000fb1a:    981c        ..      LDR      r0,[sp,#0x70]
        0x0000fb1c:    4408        .D      ADD      r0,r0,r1
        0x0000fb1e:    901c        ..      STR      r0,[sp,#0x70]
        0x0000fb20:    9913        ..      LDR      r1,[sp,#0x4c]
        0x0000fb22:    9814        ..      LDR      r0,[sp,#0x50]
        0x0000fb24:    4408        .D      ADD      r0,r0,r1
        0x0000fb26:    9014        ..      STR      r0,[sp,#0x50]
        0x0000fb28:    2000        .       MOVS     r0,#0
        0x0000fb2a:    9013        ..      STR      r0,[sp,#0x4c]
        0x0000fb2c:    e7ff        ..      B        0xfb2e ; am_util_stdio_vsprintf + 830
        0x0000fb2e:    9818        ..      LDR      r0,[sp,#0x60]
        0x0000fb30:    9919        ..      LDR      r1,[sp,#0x64]
        0x0000fb32:    9a1c        ..      LDR      r2,[sp,#0x70]
        0x0000fb34:    f89d3041    ..A0    LDRB     r3,[sp,#0x41]
        0x0000fb38:    f0030301    ....    AND      r3,r3,#1
        0x0000fb3c:    f000ff72    ..r.    BL       uint64_to_hexstr ; 0x10a24
        0x0000fb40:    9012        ..      STR      r0,[sp,#0x48]
        0x0000fb42:    981c        ..      LDR      r0,[sp,#0x70]
        0x0000fb44:    b128        (.      CBZ      r0,0xfb52 ; am_util_stdio_vsprintf + 866
        0x0000fb46:    e7ff        ..      B        0xfb48 ; am_util_stdio_vsprintf + 856
        0x0000fb48:    9912        ..      LDR      r1,[sp,#0x48]
        0x0000fb4a:    981c        ..      LDR      r0,[sp,#0x70]
        0x0000fb4c:    4408        .D      ADD      r0,r0,r1
        0x0000fb4e:    901c        ..      STR      r0,[sp,#0x70]
        0x0000fb50:    e7ff        ..      B        0xfb52 ; am_util_stdio_vsprintf + 866
        0x0000fb52:    9912        ..      LDR      r1,[sp,#0x48]
        0x0000fb54:    9814        ..      LDR      r0,[sp,#0x50]
        0x0000fb56:    4408        .D      ADD      r0,r0,r1
        0x0000fb58:    9014        ..      STR      r0,[sp,#0x50]
        0x0000fb5a:    e164        d.      B        0xfe26 ; am_util_stdio_vsprintf + 1590
        0x0000fb5c:    f89d0040    ..@.    LDRB     r0,[sp,#0x40]
        0x0000fb60:    07c0        ..      LSLS     r0,r0,#31
        0x0000fb62:    b160        `.      CBZ      r0,0xfb7e ; am_util_stdio_vsprintf + 910
        0x0000fb64:    e7ff        ..      B        0xfb66 ; am_util_stdio_vsprintf + 886
        0x0000fb66:    981d        ..      LDR      r0,[sp,#0x74]
        0x0000fb68:    3007        .0      ADDS     r0,#7
        0x0000fb6a:    f0200007     ...    BIC      r0,r0,#7
        0x0000fb6e:    f1000108    ....    ADD      r1,r0,#8
        0x0000fb72:    911d        ..      STR      r1,[sp,#0x74]
        0x0000fb74:    6801        .h      LDR      r1,[r0,#0]
        0x0000fb76:    6840        @h      LDR      r0,[r0,#4]
        0x0000fb78:    9104        ..      STR      r1,[sp,#0x10]
        0x0000fb7a:    9005        ..      STR      r0,[sp,#0x14]
        0x0000fb7c:    e007        ..      B        0xfb8e ; am_util_stdio_vsprintf + 926
        0x0000fb7e:    981d        ..      LDR      r0,[sp,#0x74]
        0x0000fb80:    1d01        ..      ADDS     r1,r0,#4
        0x0000fb82:    911d        ..      STR      r1,[sp,#0x74]
        0x0000fb84:    6801        .h      LDR      r1,[r0,#0]
        0x0000fb86:    2000        .       MOVS     r0,#0
        0x0000fb88:    9104        ..      STR      r1,[sp,#0x10]
        0x0000fb8a:    9005        ..      STR      r0,[sp,#0x14]
        0x0000fb8c:    e7ff        ..      B        0xfb8e ; am_util_stdio_vsprintf + 926
        0x0000fb8e:    9904        ..      LDR      r1,[sp,#0x10]
        0x0000fb90:    9805        ..      LDR      r0,[sp,#0x14]
        0x0000fb92:    9118        ..      STR      r1,[sp,#0x60]
        0x0000fb94:    9019        ..      STR      r0,[sp,#0x64]
        0x0000fb96:    9813        ..      LDR      r0,[sp,#0x4c]
        0x0000fb98:    b318        ..      CBZ      r0,0xfbe2 ; am_util_stdio_vsprintf + 1010
        0x0000fb9a:    e7ff        ..      B        0xfb9c ; am_util_stdio_vsprintf + 940
        0x0000fb9c:    9818        ..      LDR      r0,[sp,#0x60]
        0x0000fb9e:    9919        ..      LDR      r1,[sp,#0x64]
        0x0000fba0:    f000fdb8    ....    BL       ndigits_in_u64 ; 0x10714
        0x0000fba4:    4601        .F      MOV      r1,r0
        0x0000fba6:    9813        ..      LDR      r0,[sp,#0x4c]
        0x0000fba8:    1a40        @.      SUBS     r0,r0,r1
        0x0000fbaa:    9013        ..      STR      r0,[sp,#0x4c]
        0x0000fbac:    981c        ..      LDR      r0,[sp,#0x70]
        0x0000fbae:    f89d1042    ..B.    LDRB     r1,[sp,#0x42]
        0x0000fbb2:    9a13        ..      LDR      r2,[sp,#0x4c]
        0x0000fbb4:    f000fdcc    ....    BL       padbuffer ; 0x10750
        0x0000fbb8:    9013        ..      STR      r0,[sp,#0x4c]
        0x0000fbba:    981c        ..      LDR      r0,[sp,#0x70]
        0x0000fbbc:    b118        ..      CBZ      r0,0xfbc6 ; am_util_stdio_vsprintf + 982
        0x0000fbbe:    e7ff        ..      B        0xfbc0 ; am_util_stdio_vsprintf + 976
        0x0000fbc0:    9813        ..      LDR      r0,[sp,#0x4c]
        0x0000fbc2:    9003        ..      STR      r0,[sp,#0xc]
        0x0000fbc4:    e002        ..      B        0xfbcc ; am_util_stdio_vsprintf + 988
        0x0000fbc6:    2000        .       MOVS     r0,#0
        0x0000fbc8:    9003        ..      STR      r0,[sp,#0xc]
        0x0000fbca:    e7ff        ..      B        0xfbcc ; am_util_stdio_vsprintf + 988
        0x0000fbcc:    9903        ..      LDR      r1,[sp,#0xc]
        0x0000fbce:    981c        ..      LDR      r0,[sp,#0x70]
        0x0000fbd0:    4408        .D      ADD      r0,r0,r1
        0x0000fbd2:    901c        ..      STR      r0,[sp,#0x70]
        0x0000fbd4:    9913        ..      LDR      r1,[sp,#0x4c]
        0x0000fbd6:    9814        ..      LDR      r0,[sp,#0x50]
        0x0000fbd8:    4408        .D      ADD      r0,r0,r1
        0x0000fbda:    9014        ..      STR      r0,[sp,#0x50]
        0x0000fbdc:    2000        .       MOVS     r0,#0
        0x0000fbde:    9013        ..      STR      r0,[sp,#0x4c]
        0x0000fbe0:    e7ff        ..      B        0xfbe2 ; am_util_stdio_vsprintf + 1010
        0x0000fbe2:    9818        ..      LDR      r0,[sp,#0x60]
        0x0000fbe4:    9919        ..      LDR      r1,[sp,#0x64]
        0x0000fbe6:    9a1c        ..      LDR      r2,[sp,#0x70]
        0x0000fbe8:    f000ff7c    ..|.    BL       uint64_to_str ; 0x10ae4
        0x0000fbec:    9012        ..      STR      r0,[sp,#0x48]
        0x0000fbee:    981c        ..      LDR      r0,[sp,#0x70]
        0x0000fbf0:    b128        (.      CBZ      r0,0xfbfe ; am_util_stdio_vsprintf + 1038
        0x0000fbf2:    e7ff        ..      B        0xfbf4 ; am_util_stdio_vsprintf + 1028
        0x0000fbf4:    9912        ..      LDR      r1,[sp,#0x48]
        0x0000fbf6:    981c        ..      LDR      r0,[sp,#0x70]
        0x0000fbf8:    4408        .D      ADD      r0,r0,r1
        0x0000fbfa:    901c        ..      STR      r0,[sp,#0x70]
        0x0000fbfc:    e7ff        ..      B        0xfbfe ; am_util_stdio_vsprintf + 1038
        0x0000fbfe:    9912        ..      LDR      r1,[sp,#0x48]
        0x0000fc00:    9814        ..      LDR      r0,[sp,#0x50]
        0x0000fc02:    4408        .D      ADD      r0,r0,r1
        0x0000fc04:    9014        ..      STR      r0,[sp,#0x50]
        0x0000fc06:    e10e        ..      B        0xfe26 ; am_util_stdio_vsprintf + 1590
        0x0000fc08:    f89d0040    ..@.    LDRB     r0,[sp,#0x40]
        0x0000fc0c:    07c0        ..      LSLS     r0,r0,#31
        0x0000fc0e:    b160        `.      CBZ      r0,0xfc2a ; am_util_stdio_vsprintf + 1082
        0x0000fc10:    e7ff        ..      B        0xfc12 ; am_util_stdio_vsprintf + 1058
        0x0000fc12:    981d        ..      LDR      r0,[sp,#0x74]
        0x0000fc14:    3007        .0      ADDS     r0,#7
        0x0000fc16:    f0200007     ...    BIC      r0,r0,#7
        0x0000fc1a:    f1000108    ....    ADD      r1,r0,#8
        0x0000fc1e:    911d        ..      STR      r1,[sp,#0x74]
        0x0000fc20:    6801        .h      LDR      r1,[r0,#0]
        0x0000fc22:    6840        @h      LDR      r0,[r0,#4]
        0x0000fc24:    9101        ..      STR      r1,[sp,#4]
        0x0000fc26:    9002        ..      STR      r0,[sp,#8]
        0x0000fc28:    e007        ..      B        0xfc3a ; am_util_stdio_vsprintf + 1098
        0x0000fc2a:    981d        ..      LDR      r0,[sp,#0x74]
        0x0000fc2c:    1d01        ..      ADDS     r1,r0,#4
        0x0000fc2e:    911d        ..      STR      r1,[sp,#0x74]
        0x0000fc30:    6801        .h      LDR      r1,[r0,#0]
        0x0000fc32:    17c8        ..      ASRS     r0,r1,#31
        0x0000fc34:    9101        ..      STR      r1,[sp,#4]
        0x0000fc36:    9002        ..      STR      r0,[sp,#8]
        0x0000fc38:    e7ff        ..      B        0xfc3a ; am_util_stdio_vsprintf + 1098
        0x0000fc3a:    9901        ..      LDR      r1,[sp,#4]
        0x0000fc3c:    9802        ..      LDR      r0,[sp,#8]
        0x0000fc3e:    9116        ..      STR      r1,[sp,#0x58]
        0x0000fc40:    9017        ..      STR      r0,[sp,#0x5c]
        0x0000fc42:    9817        ..      LDR      r0,[sp,#0x5c]
        0x0000fc44:    f1b03fff    ...?    CMP      r0,#0xffffffff
        0x0000fc48:    dc0c        ..      BGT      0xfc64 ; am_util_stdio_vsprintf + 1140
        0x0000fc4a:    e7ff        ..      B        0xfc4c ; am_util_stdio_vsprintf + 1116
        0x0000fc4c:    9816        ..      LDR      r0,[sp,#0x58]
        0x0000fc4e:    9a17        ..      LDR      r2,[sp,#0x5c]
        0x0000fc50:    4241        AB      RSBS     r1,r0,#0
        0x0000fc52:    f04f0000    O...    MOV      r0,#0
        0x0000fc56:    4190        .A      SBCS     r0,r0,r2
        0x0000fc58:    9118        ..      STR      r1,[sp,#0x60]
        0x0000fc5a:    9019        ..      STR      r0,[sp,#0x64]
        0x0000fc5c:    2001        .       MOVS     r0,#1
        0x0000fc5e:    f88d003f    ..?.    STRB     r0,[sp,#0x3f]
        0x0000fc62:    e007        ..      B        0xfc74 ; am_util_stdio_vsprintf + 1156
        0x0000fc64:    9816        ..      LDR      r0,[sp,#0x58]
        0x0000fc66:    9917        ..      LDR      r1,[sp,#0x5c]
        0x0000fc68:    9119        ..      STR      r1,[sp,#0x64]
        0x0000fc6a:    9018        ..      STR      r0,[sp,#0x60]
        0x0000fc6c:    2000        .       MOVS     r0,#0
        0x0000fc6e:    f88d003f    ..?.    STRB     r0,[sp,#0x3f]
        0x0000fc72:    e7ff        ..      B        0xfc74 ; am_util_stdio_vsprintf + 1156
        0x0000fc74:    9813        ..      LDR      r0,[sp,#0x4c]
        0x0000fc76:    2800        .(      CMP      r0,#0
        0x0000fc78:    d055        U.      BEQ      0xfd26 ; am_util_stdio_vsprintf + 1334
        0x0000fc7a:    e7ff        ..      B        0xfc7c ; am_util_stdio_vsprintf + 1164
        0x0000fc7c:    9818        ..      LDR      r0,[sp,#0x60]
        0x0000fc7e:    9919        ..      LDR      r1,[sp,#0x64]
        0x0000fc80:    f000fd30    ..0.    BL       ndigits_in_i64 ; 0x106e4
        0x0000fc84:    4601        .F      MOV      r1,r0
        0x0000fc86:    9813        ..      LDR      r0,[sp,#0x4c]
        0x0000fc88:    1a40        @.      SUBS     r0,r0,r1
        0x0000fc8a:    9013        ..      STR      r0,[sp,#0x4c]
        0x0000fc8c:    f89d003f    ..?.    LDRB     r0,[sp,#0x3f]
        0x0000fc90:    07c0        ..      LSLS     r0,r0,#31
        0x0000fc92:    b1b0        ..      CBZ      r0,0xfcc2 ; am_util_stdio_vsprintf + 1234
        0x0000fc94:    e7ff        ..      B        0xfc96 ; am_util_stdio_vsprintf + 1190
        0x0000fc96:    9813        ..      LDR      r0,[sp,#0x4c]
        0x0000fc98:    3801        .8      SUBS     r0,#1
        0x0000fc9a:    9013        ..      STR      r0,[sp,#0x4c]
        0x0000fc9c:    f89d0042    ..B.    LDRB     r0,[sp,#0x42]
        0x0000fca0:    2830        0(      CMP      r0,#0x30
        0x0000fca2:    d10d        ..      BNE      0xfcc0 ; am_util_stdio_vsprintf + 1232
        0x0000fca4:    e7ff        ..      B        0xfca6 ; am_util_stdio_vsprintf + 1206
        0x0000fca6:    981c        ..      LDR      r0,[sp,#0x70]
        0x0000fca8:    b130        0.      CBZ      r0,0xfcb8 ; am_util_stdio_vsprintf + 1224
        0x0000fcaa:    e7ff        ..      B        0xfcac ; am_util_stdio_vsprintf + 1212
        0x0000fcac:    991c        ..      LDR      r1,[sp,#0x70]
        0x0000fcae:    1c48        H.      ADDS     r0,r1,#1
        0x0000fcb0:    901c        ..      STR      r0,[sp,#0x70]
        0x0000fcb2:    202d        -       MOVS     r0,#0x2d
        0x0000fcb4:    7008        .p      STRB     r0,[r1,#0]
        0x0000fcb6:    e7ff        ..      B        0xfcb8 ; am_util_stdio_vsprintf + 1224
        0x0000fcb8:    9814        ..      LDR      r0,[sp,#0x50]
        0x0000fcba:    3001        .0      ADDS     r0,#1
        0x0000fcbc:    9014        ..      STR      r0,[sp,#0x50]
        0x0000fcbe:    e7ff        ..      B        0xfcc0 ; am_util_stdio_vsprintf + 1232
        0x0000fcc0:    e7ff        ..      B        0xfcc2 ; am_util_stdio_vsprintf + 1234
        0x0000fcc2:    981c        ..      LDR      r0,[sp,#0x70]
        0x0000fcc4:    f89d1042    ..B.    LDRB     r1,[sp,#0x42]
        0x0000fcc8:    9a13        ..      LDR      r2,[sp,#0x4c]
        0x0000fcca:    f000fd41    ..A.    BL       padbuffer ; 0x10750
        0x0000fcce:    9013        ..      STR      r0,[sp,#0x4c]
        0x0000fcd0:    981c        ..      LDR      r0,[sp,#0x70]
        0x0000fcd2:    b118        ..      CBZ      r0,0xfcdc ; am_util_stdio_vsprintf + 1260
        0x0000fcd4:    e7ff        ..      B        0xfcd6 ; am_util_stdio_vsprintf + 1254
        0x0000fcd6:    9813        ..      LDR      r0,[sp,#0x4c]
        0x0000fcd8:    9000        ..      STR      r0,[sp,#0]
        0x0000fcda:    e002        ..      B        0xfce2 ; am_util_stdio_vsprintf + 1266
        0x0000fcdc:    2000        .       MOVS     r0,#0
        0x0000fcde:    9000        ..      STR      r0,[sp,#0]
        0x0000fce0:    e7ff        ..      B        0xfce2 ; am_util_stdio_vsprintf + 1266
        0x0000fce2:    9900        ..      LDR      r1,[sp,#0]
        0x0000fce4:    981c        ..      LDR      r0,[sp,#0x70]
        0x0000fce6:    4408        .D      ADD      r0,r0,r1
        0x0000fce8:    901c        ..      STR      r0,[sp,#0x70]
        0x0000fcea:    9913        ..      LDR      r1,[sp,#0x4c]
        0x0000fcec:    9814        ..      LDR      r0,[sp,#0x50]
        0x0000fcee:    4408        .D      ADD      r0,r0,r1
        0x0000fcf0:    9014        ..      STR      r0,[sp,#0x50]
        0x0000fcf2:    2000        .       MOVS     r0,#0
        0x0000fcf4:    9013        ..      STR      r0,[sp,#0x4c]
        0x0000fcf6:    f89d003f    ..?.    LDRB     r0,[sp,#0x3f]
        0x0000fcfa:    07c0        ..      LSLS     r0,r0,#31
        0x0000fcfc:    b190        ..      CBZ      r0,0xfd24 ; am_util_stdio_vsprintf + 1332
        0x0000fcfe:    e7ff        ..      B        0xfd00 ; am_util_stdio_vsprintf + 1296
        0x0000fd00:    f89d0042    ..B.    LDRB     r0,[sp,#0x42]
        0x0000fd04:    2820         (      CMP      r0,#0x20
        0x0000fd06:    d10d        ..      BNE      0xfd24 ; am_util_stdio_vsprintf + 1332
        0x0000fd08:    e7ff        ..      B        0xfd0a ; am_util_stdio_vsprintf + 1306
        0x0000fd0a:    981c        ..      LDR      r0,[sp,#0x70]
        0x0000fd0c:    b130        0.      CBZ      r0,0xfd1c ; am_util_stdio_vsprintf + 1324
        0x0000fd0e:    e7ff        ..      B        0xfd10 ; am_util_stdio_vsprintf + 1312
        0x0000fd10:    991c        ..      LDR      r1,[sp,#0x70]
        0x0000fd12:    1c48        H.      ADDS     r0,r1,#1
        0x0000fd14:    901c        ..      STR      r0,[sp,#0x70]
        0x0000fd16:    202d        -       MOVS     r0,#0x2d
        0x0000fd18:    7008        .p      STRB     r0,[r1,#0]
        0x0000fd1a:    e7ff        ..      B        0xfd1c ; am_util_stdio_vsprintf + 1324
        0x0000fd1c:    9814        ..      LDR      r0,[sp,#0x50]
        0x0000fd1e:    3001        .0      ADDS     r0,#1
        0x0000fd20:    9014        ..      STR      r0,[sp,#0x50]
        0x0000fd22:    e7ff        ..      B        0xfd24 ; am_util_stdio_vsprintf + 1332
        0x0000fd24:    e012        ..      B        0xfd4c ; am_util_stdio_vsprintf + 1372
        0x0000fd26:    f89d003f    ..?.    LDRB     r0,[sp,#0x3f]
        0x0000fd2a:    07c0        ..      LSLS     r0,r0,#31
        0x0000fd2c:    b168        h.      CBZ      r0,0xfd4a ; am_util_stdio_vsprintf + 1370
        0x0000fd2e:    e7ff        ..      B        0xfd30 ; am_util_stdio_vsprintf + 1344
        0x0000fd30:    981c        ..      LDR      r0,[sp,#0x70]
        0x0000fd32:    b130        0.      CBZ      r0,0xfd42 ; am_util_stdio_vsprintf + 1362
        0x0000fd34:    e7ff        ..      B        0xfd36 ; am_util_stdio_vsprintf + 1350
        0x0000fd36:    991c        ..      LDR      r1,[sp,#0x70]
        0x0000fd38:    1c48        H.      ADDS     r0,r1,#1
        0x0000fd3a:    901c        ..      STR      r0,[sp,#0x70]
        0x0000fd3c:    202d        -       MOVS     r0,#0x2d
        0x0000fd3e:    7008        .p      STRB     r0,[r1,#0]
        0x0000fd40:    e7ff        ..      B        0xfd42 ; am_util_stdio_vsprintf + 1362
        0x0000fd42:    9814        ..      LDR      r0,[sp,#0x50]
        0x0000fd44:    3001        .0      ADDS     r0,#1
        0x0000fd46:    9014        ..      STR      r0,[sp,#0x50]
        0x0000fd48:    e7ff        ..      B        0xfd4a ; am_util_stdio_vsprintf + 1370
        0x0000fd4a:    e7ff        ..      B        0xfd4c ; am_util_stdio_vsprintf + 1372
        0x0000fd4c:    9818        ..      LDR      r0,[sp,#0x60]
        0x0000fd4e:    9919        ..      LDR      r1,[sp,#0x64]
        0x0000fd50:    9a1c        ..      LDR      r2,[sp,#0x70]
        0x0000fd52:    f000fec7    ....    BL       uint64_to_str ; 0x10ae4
        0x0000fd56:    9012        ..      STR      r0,[sp,#0x48]
        0x0000fd58:    981c        ..      LDR      r0,[sp,#0x70]
        0x0000fd5a:    b128        (.      CBZ      r0,0xfd68 ; am_util_stdio_vsprintf + 1400
        0x0000fd5c:    e7ff        ..      B        0xfd5e ; am_util_stdio_vsprintf + 1390
        0x0000fd5e:    9912        ..      LDR      r1,[sp,#0x48]
        0x0000fd60:    981c        ..      LDR      r0,[sp,#0x70]
        0x0000fd62:    4408        .D      ADD      r0,r0,r1
        0x0000fd64:    901c        ..      STR      r0,[sp,#0x70]
        0x0000fd66:    e7ff        ..      B        0xfd68 ; am_util_stdio_vsprintf + 1400
        0x0000fd68:    9912        ..      LDR      r1,[sp,#0x48]
        0x0000fd6a:    9814        ..      LDR      r0,[sp,#0x50]
        0x0000fd6c:    4408        .D      ADD      r0,r0,r1
        0x0000fd6e:    9014        ..      STR      r0,[sp,#0x50]
        0x0000fd70:    e059        Y.      B        0xfe26 ; am_util_stdio_vsprintf + 1590
        0x0000fd72:    981c        ..      LDR      r0,[sp,#0x70]
        0x0000fd74:    2800        .(      CMP      r0,#0
        0x0000fd76:    d047        G.      BEQ      0xfe08 ; am_util_stdio_vsprintf + 1560
        0x0000fd78:    e7ff        ..      B        0xfd7a ; am_util_stdio_vsprintf + 1418
        0x0000fd7a:    981d        ..      LDR      r0,[sp,#0x74]
        0x0000fd7c:    3007        .0      ADDS     r0,#7
        0x0000fd7e:    f0200007     ...    BIC      r0,r0,#7
        0x0000fd82:    f1000108    ....    ADD      r1,r0,#8
        0x0000fd86:    911d        ..      STR      r1,[sp,#0x74]
        0x0000fd88:    ed900b00    ....    VLDR     d0,[r0,#0]
        0x0000fd8c:    ec510b10    Q...    VMOV     r0,r1,d0
        0x0000fd90:    f000ffca    ....    BL       __aeabi_d2f ; 0x10d28
        0x0000fd94:    900d        ..      STR      r0,[sp,#0x34]
        0x0000fd96:    991c        ..      LDR      r1,[sp,#0x70]
        0x0000fd98:    2014        .       MOVS     r0,#0x14
        0x0000fd9a:    6008        .`      STR      r0,[r1,#0]
        0x0000fd9c:    ed9d0a0d    ....    VLDR     s0,[sp,#0x34]
        0x0000fda0:    981c        ..      LDR      r0,[sp,#0x70]
        0x0000fda2:    9911        ..      LDR      r1,[sp,#0x44]
        0x0000fda4:    f000f994    ....    BL       ftoa ; 0x100d0
        0x0000fda8:    9012        ..      STR      r0,[sp,#0x48]
        0x0000fdaa:    9812        ..      LDR      r0,[sp,#0x48]
        0x0000fdac:    f1b03fff    ...?    CMP      r0,#0xffffffff
        0x0000fdb0:    dc21        !.      BGT      0xfdf6 ; am_util_stdio_vsprintf + 1542
        0x0000fdb2:    e7ff        ..      B        0xfdb4 ; am_util_stdio_vsprintf + 1476
        0x0000fdb4:    9812        ..      LDR      r0,[sp,#0x48]
        0x0000fdb6:    3001        .0      ADDS     r0,#1
        0x0000fdb8:    b930        0.      CBNZ     r0,0xfdc8 ; am_util_stdio_vsprintf + 1496
        0x0000fdba:    e7ff        ..      B        0xfdbc ; am_util_stdio_vsprintf + 1484
        0x0000fdbc:    f6426030    B.0`    MOV      r0,#0x2e30
        0x0000fdc0:    f2c00030    ..0.    MOVT     r0,#0x30
        0x0000fdc4:    900c        ..      STR      r0,[sp,#0x30]
        0x0000fdc6:    e010        ..      B        0xfdea ; am_util_stdio_vsprintf + 1530
        0x0000fdc8:    9812        ..      LDR      r0,[sp,#0x48]
        0x0000fdca:    3002        .0      ADDS     r0,#2
        0x0000fdcc:    b930        0.      CBNZ     r0,0xfddc ; am_util_stdio_vsprintf + 1516
        0x0000fdce:    e7ff        ..      B        0xfdd0 ; am_util_stdio_vsprintf + 1504
        0x0000fdd0:    f6426023    B.#`    MOV      r0,#0x2e23
        0x0000fdd4:    f2c00023    ..#.    MOVT     r0,#0x23
        0x0000fdd8:    900c        ..      STR      r0,[sp,#0x30]
        0x0000fdda:    e005        ..      B        0xfde8 ; am_util_stdio_vsprintf + 1528
        0x0000fddc:    f642603f    B.?`    MOV      r0,#0x2e3f
        0x0000fde0:    f2c0003f    ..?.    MOVT     r0,#0x3f
        0x0000fde4:    900c        ..      STR      r0,[sp,#0x30]
        0x0000fde6:    e7ff        ..      B        0xfde8 ; am_util_stdio_vsprintf + 1528
        0x0000fde8:    e7ff        ..      B        0xfdea ; am_util_stdio_vsprintf + 1530
        0x0000fdea:    980c        ..      LDR      r0,[sp,#0x30]
        0x0000fdec:    991c        ..      LDR      r1,[sp,#0x70]
        0x0000fdee:    6008        .`      STR      r0,[r1,#0]
        0x0000fdf0:    2003        .       MOVS     r0,#3
        0x0000fdf2:    9012        ..      STR      r0,[sp,#0x48]
        0x0000fdf4:    e7ff        ..      B        0xfdf6 ; am_util_stdio_vsprintf + 1542
        0x0000fdf6:    9912        ..      LDR      r1,[sp,#0x48]
        0x0000fdf8:    9814        ..      LDR      r0,[sp,#0x50]
        0x0000fdfa:    4408        .D      ADD      r0,r0,r1
        0x0000fdfc:    9014        ..      STR      r0,[sp,#0x50]
        0x0000fdfe:    9912        ..      LDR      r1,[sp,#0x48]
        0x0000fe00:    981c        ..      LDR      r0,[sp,#0x70]
        0x0000fe02:    4408        .D      ADD      r0,r0,r1
        0x0000fe04:    901c        ..      STR      r0,[sp,#0x70]
        0x0000fe06:    e7ff        ..      B        0xfe08 ; am_util_stdio_vsprintf + 1560
        0x0000fe08:    e00d        ..      B        0xfe26 ; am_util_stdio_vsprintf + 1590
        0x0000fe0a:    981c        ..      LDR      r0,[sp,#0x70]
        0x0000fe0c:    b138        8.      CBZ      r0,0xfe1e ; am_util_stdio_vsprintf + 1582
        0x0000fe0e:    e7ff        ..      B        0xfe10 ; am_util_stdio_vsprintf + 1568
        0x0000fe10:    981b        ..      LDR      r0,[sp,#0x6c]
        0x0000fe12:    7800        .x      LDRB     r0,[r0,#0]
        0x0000fe14:    991c        ..      LDR      r1,[sp,#0x70]
        0x0000fe16:    1c4a        J.      ADDS     r2,r1,#1
        0x0000fe18:    921c        ..      STR      r2,[sp,#0x70]
        0x0000fe1a:    7008        .p      STRB     r0,[r1,#0]
        0x0000fe1c:    e7ff        ..      B        0xfe1e ; am_util_stdio_vsprintf + 1582
        0x0000fe1e:    9814        ..      LDR      r0,[sp,#0x50]
        0x0000fe20:    3001        .0      ADDS     r0,#1
        0x0000fe22:    9014        ..      STR      r0,[sp,#0x50]
        0x0000fe24:    e7ff        ..      B        0xfe26 ; am_util_stdio_vsprintf + 1590
        0x0000fe26:    981b        ..      LDR      r0,[sp,#0x6c]
        0x0000fe28:    3001        .0      ADDS     r0,#1
        0x0000fe2a:    901b        ..      STR      r0,[sp,#0x6c]
        0x0000fe2c:    f7ffbce9    ....    B.W      0xf802 ; am_util_stdio_vsprintf + 18
        0x0000fe30:    981c        ..      LDR      r0,[sp,#0x70]
        0x0000fe32:    b120         .      CBZ      r0,0xfe3e ; am_util_stdio_vsprintf + 1614
        0x0000fe34:    e7ff        ..      B        0xfe36 ; am_util_stdio_vsprintf + 1606
        0x0000fe36:    991c        ..      LDR      r1,[sp,#0x70]
        0x0000fe38:    2000        .       MOVS     r0,#0
        0x0000fe3a:    7008        .p      STRB     r0,[r1,#0]
        0x0000fe3c:    e7ff        ..      B        0xfe3e ; am_util_stdio_vsprintf + 1614
        0x0000fe3e:    9814        ..      LDR      r0,[sp,#0x50]
        0x0000fe40:    b01e        ..      ADD      sp,sp,#0x78
        0x0000fe42:    bd80        ..      POP      {r7,pc}
    decstr_to_int
        0x0000fe44:    b087        ..      SUB      sp,sp,#0x1c
        0x0000fe46:    9006        ..      STR      r0,[sp,#0x18]
        0x0000fe48:    9105        ..      STR      r1,[sp,#0x14]
        0x0000fe4a:    2000        .       MOVS     r0,#0
        0x0000fe4c:    f88d0013    ....    STRB     r0,[sp,#0x13]
        0x0000fe50:    9003        ..      STR      r0,[sp,#0xc]
        0x0000fe52:    9002        ..      STR      r0,[sp,#8]
        0x0000fe54:    9806        ..      LDR      r0,[sp,#0x18]
        0x0000fe56:    7800        .x      LDRB     r0,[r0,#0]
        0x0000fe58:    282d        -(      CMP      r0,#0x2d
        0x0000fe5a:    d10a        ..      BNE      0xfe72 ; decstr_to_int + 46
        0x0000fe5c:    e7ff        ..      B        0xfe5e ; decstr_to_int + 26
        0x0000fe5e:    2001        .       MOVS     r0,#1
        0x0000fe60:    f88d0013    ....    STRB     r0,[sp,#0x13]
        0x0000fe64:    9806        ..      LDR      r0,[sp,#0x18]
        0x0000fe66:    3001        .0      ADDS     r0,#1
        0x0000fe68:    9006        ..      STR      r0,[sp,#0x18]
        0x0000fe6a:    9802        ..      LDR      r0,[sp,#8]
        0x0000fe6c:    3001        .0      ADDS     r0,#1
        0x0000fe6e:    9002        ..      STR      r0,[sp,#8]
        0x0000fe70:    e7ff        ..      B        0xfe72 ; decstr_to_int + 46
        0x0000fe72:    e7ff        ..      B        0xfe74 ; decstr_to_int + 48
        0x0000fe74:    9806        ..      LDR      r0,[sp,#0x18]
        0x0000fe76:    7801        .x      LDRB     r1,[r0,#0]
        0x0000fe78:    2000        .       MOVS     r0,#0
        0x0000fe7a:    2930        0)      CMP      r1,#0x30
        0x0000fe7c:    9001        ..      STR      r0,[sp,#4]
        0x0000fe7e:    db08        ..      BLT      0xfe92 ; decstr_to_int + 78
        0x0000fe80:    e7ff        ..      B        0xfe82 ; decstr_to_int + 62
        0x0000fe82:    9806        ..      LDR      r0,[sp,#0x18]
        0x0000fe84:    7801        .x      LDRB     r1,[r0,#0]
        0x0000fe86:    2000        .       MOVS     r0,#0
        0x0000fe88:    293a        :)      CMP      r1,#0x3a
        0x0000fe8a:    bfb8        ..      IT       LT
        0x0000fe8c:    2001        .       MOVLT    r0,#1
        0x0000fe8e:    9001        ..      STR      r0,[sp,#4]
        0x0000fe90:    e7ff        ..      B        0xfe92 ; decstr_to_int + 78
        0x0000fe92:    9801        ..      LDR      r0,[sp,#4]
        0x0000fe94:    07c0        ..      LSLS     r0,r0,#31
        0x0000fe96:    b190        ..      CBZ      r0,0xfebe ; decstr_to_int + 122
        0x0000fe98:    e7ff        ..      B        0xfe9a ; decstr_to_int + 86
        0x0000fe9a:    9802        ..      LDR      r0,[sp,#8]
        0x0000fe9c:    3001        .0      ADDS     r0,#1
        0x0000fe9e:    9002        ..      STR      r0,[sp,#8]
        0x0000fea0:    9803        ..      LDR      r0,[sp,#0xc]
        0x0000fea2:    eb000080    ....    ADD      r0,r0,r0,LSL #2
        0x0000fea6:    0040        @.      LSLS     r0,r0,#1
        0x0000fea8:    9003        ..      STR      r0,[sp,#0xc]
        0x0000feaa:    9806        ..      LDR      r0,[sp,#0x18]
        0x0000feac:    7800        .x      LDRB     r0,[r0,#0]
        0x0000feae:    9903        ..      LDR      r1,[sp,#0xc]
        0x0000feb0:    4408        .D      ADD      r0,r0,r1
        0x0000feb2:    3830        08      SUBS     r0,r0,#0x30
        0x0000feb4:    9003        ..      STR      r0,[sp,#0xc]
        0x0000feb6:    9806        ..      LDR      r0,[sp,#0x18]
        0x0000feb8:    3001        .0      ADDS     r0,#1
        0x0000feba:    9006        ..      STR      r0,[sp,#0x18]
        0x0000febc:    e7da        ..      B        0xfe74 ; decstr_to_int + 48
        0x0000febe:    9805        ..      LDR      r0,[sp,#0x14]
        0x0000fec0:    b120         .      CBZ      r0,0xfecc ; decstr_to_int + 136
        0x0000fec2:    e7ff        ..      B        0xfec4 ; decstr_to_int + 128
        0x0000fec4:    9802        ..      LDR      r0,[sp,#8]
        0x0000fec6:    9905        ..      LDR      r1,[sp,#0x14]
        0x0000fec8:    6008        .`      STR      r0,[r1,#0]
        0x0000feca:    e7ff        ..      B        0xfecc ; decstr_to_int + 136
        0x0000fecc:    f89d0013    ....    LDRB     r0,[sp,#0x13]
        0x0000fed0:    07c0        ..      LSLS     r0,r0,#31
        0x0000fed2:    b120         .      CBZ      r0,0xfede ; decstr_to_int + 154
        0x0000fed4:    e7ff        ..      B        0xfed6 ; decstr_to_int + 146
        0x0000fed6:    9803        ..      LDR      r0,[sp,#0xc]
        0x0000fed8:    4240        @B      RSBS     r0,r0,#0
        0x0000feda:    9000        ..      STR      r0,[sp,#0]
        0x0000fedc:    e002        ..      B        0xfee4 ; decstr_to_int + 160
        0x0000fede:    9803        ..      LDR      r0,[sp,#0xc]
        0x0000fee0:    9000        ..      STR      r0,[sp,#0]
        0x0000fee2:    e7ff        ..      B        0xfee4 ; decstr_to_int + 160
        0x0000fee4:    9800        ..      LDR      r0,[sp,#0]
        0x0000fee6:    b007        ..      ADD      sp,sp,#0x1c
        0x0000fee8:    4770        pG      BX       lr
        0x0000feea:    0000        ..      MOVS     r0,r0
    divu64_10
        0x0000feec:    b08c        ..      SUB      sp,sp,#0x30
        0x0000feee:    9109        ..      STR      r1,[sp,#0x24]
        0x0000fef0:    9008        ..      STR      r0,[sp,#0x20]
        0x0000fef2:    9809        ..      LDR      r0,[sp,#0x24]
        0x0000fef4:    2800        .(      CMP      r0,#0
        0x0000fef6:    d05b        [.      BEQ      0xffb0 ; divu64_10 + 196
        0x0000fef8:    e7ff        ..      B        0xfefa ; divu64_10 + 14
        0x0000fefa:    9b08        ..      LDR      r3,[sp,#0x20]
        0x0000fefc:    9a09        ..      LDR      r2,[sp,#0x24]
        0x0000fefe:    ea5f0052    _.R.    LSRS.W   r0,r2,#1
        0x0000ff02:    ea4f0133    O.3.    RRX      r1,r3
        0x0000ff06:    089b        ..      LSRS     r3,r3,#2
        0x0000ff08:    ea437382    C..s    ORR      r3,r3,r2,LSL #30
        0x0000ff0c:    18c9        ..      ADDS     r1,r1,r3
        0x0000ff0e:    eb400092    @...    ADC      r0,r0,r2,LSR #2
        0x0000ff12:    9106        ..      STR      r1,[sp,#0x18]
        0x0000ff14:    9007        ..      STR      r0,[sp,#0x1c]
        0x0000ff16:    9906        ..      LDR      r1,[sp,#0x18]
        0x0000ff18:    9807        ..      LDR      r0,[sp,#0x1c]
        0x0000ff1a:    090a        ..      LSRS     r2,r1,#4
        0x0000ff1c:    ea427200    B..r    ORR      r2,r2,r0,LSL #28
        0x0000ff20:    1889        ..      ADDS     r1,r1,r2
        0x0000ff22:    eb401010    @...    ADC      r0,r0,r0,LSR #4
        0x0000ff26:    9106        ..      STR      r1,[sp,#0x18]
        0x0000ff28:    9007        ..      STR      r0,[sp,#0x1c]
        0x0000ff2a:    9906        ..      LDR      r1,[sp,#0x18]
        0x0000ff2c:    9807        ..      LDR      r0,[sp,#0x1c]
        0x0000ff2e:    0a0a        ..      LSRS     r2,r1,#8
        0x0000ff30:    ea426200    B..b    ORR      r2,r2,r0,LSL #24
        0x0000ff34:    1889        ..      ADDS     r1,r1,r2
        0x0000ff36:    eb402010    @..     ADC      r0,r0,r0,LSR #8
        0x0000ff3a:    9106        ..      STR      r1,[sp,#0x18]
        0x0000ff3c:    9007        ..      STR      r0,[sp,#0x1c]
        0x0000ff3e:    9906        ..      LDR      r1,[sp,#0x18]
        0x0000ff40:    9807        ..      LDR      r0,[sp,#0x1c]
        0x0000ff42:    0c0a        ..      LSRS     r2,r1,#16
        0x0000ff44:    ea424200    B..B    ORR      r2,r2,r0,LSL #16
        0x0000ff48:    1889        ..      ADDS     r1,r1,r2
        0x0000ff4a:    eb404010    @..@    ADC      r0,r0,r0,LSR #16
        0x0000ff4e:    9106        ..      STR      r1,[sp,#0x18]
        0x0000ff50:    9007        ..      STR      r0,[sp,#0x1c]
        0x0000ff52:    9906        ..      LDR      r1,[sp,#0x18]
        0x0000ff54:    9807        ..      LDR      r0,[sp,#0x1c]
        0x0000ff56:    1809        ..      ADDS     r1,r1,r0
        0x0000ff58:    f1400000    @...    ADC      r0,r0,#0
        0x0000ff5c:    9106        ..      STR      r1,[sp,#0x18]
        0x0000ff5e:    9007        ..      STR      r0,[sp,#0x1c]
        0x0000ff60:    9806        ..      LDR      r0,[sp,#0x18]
        0x0000ff62:    9907        ..      LDR      r1,[sp,#0x1c]
        0x0000ff64:    08c0        ..      LSRS     r0,r0,#3
        0x0000ff66:    ea407041    @.Ap    ORR      r0,r0,r1,LSL #29
        0x0000ff6a:    08c9        ..      LSRS     r1,r1,#3
        0x0000ff6c:    9107        ..      STR      r1,[sp,#0x1c]
        0x0000ff6e:    9006        ..      STR      r0,[sp,#0x18]
        0x0000ff70:    9908        ..      LDR      r1,[sp,#0x20]
        0x0000ff72:    9809        ..      LDR      r0,[sp,#0x24]
        0x0000ff74:    9a06        ..      LDR      r2,[sp,#0x18]
        0x0000ff76:    f8ddc01c    ....    LDR      r12,[sp,#0x1c]
        0x0000ff7a:    230a        .#      MOVS     r3,#0xa
        0x0000ff7c:    fba23203    ...2    UMULL    r3,r2,r2,r3
        0x0000ff80:    eb0c0c8c    ....    ADD      r12,r12,r12,LSL #2
        0x0000ff84:    eb02024c    ..L.    ADD      r2,r2,r12,LSL #1
        0x0000ff88:    1ac9        ..      SUBS     r1,r1,r3
        0x0000ff8a:    4190        .A      SBCS     r0,r0,r2
        0x0000ff8c:    9104        ..      STR      r1,[sp,#0x10]
        0x0000ff8e:    9005        ..      STR      r0,[sp,#0x14]
        0x0000ff90:    9906        ..      LDR      r1,[sp,#0x18]
        0x0000ff92:    9807        ..      LDR      r0,[sp,#0x1c]
        0x0000ff94:    9b04        ..      LDR      r3,[sp,#0x10]
        0x0000ff96:    9a05        ..      LDR      r2,[sp,#0x14]
        0x0000ff98:    3306        .3      ADDS     r3,#6
        0x0000ff9a:    f1420200    B...    ADC      r2,r2,#0
        0x0000ff9e:    091b        ..      LSRS     r3,r3,#4
        0x0000ffa0:    ea437302    C..s    ORR      r3,r3,r2,LSL #28
        0x0000ffa4:    18c9        ..      ADDS     r1,r1,r3
        0x0000ffa6:    eb401012    @...    ADC      r0,r0,r2,LSR #4
        0x0000ffaa:    910a        ..      STR      r1,[sp,#0x28]
        0x0000ffac:    900b        ..      STR      r0,[sp,#0x2c]
        0x0000ffae:    e025        %.      B        0xfffc ; divu64_10 + 272
        0x0000ffb0:    9808        ..      LDR      r0,[sp,#0x20]
        0x0000ffb2:    9001        ..      STR      r0,[sp,#4]
        0x0000ffb4:    9901        ..      LDR      r1,[sp,#4]
        0x0000ffb6:    0848        H.      LSRS     r0,r1,#1
        0x0000ffb8:    eb000091    ....    ADD      r0,r0,r1,LSR #2
        0x0000ffbc:    9003        ..      STR      r0,[sp,#0xc]
        0x0000ffbe:    9803        ..      LDR      r0,[sp,#0xc]
        0x0000ffc0:    eb001010    ....    ADD      r0,r0,r0,LSR #4
        0x0000ffc4:    9003        ..      STR      r0,[sp,#0xc]
        0x0000ffc6:    9803        ..      LDR      r0,[sp,#0xc]
        0x0000ffc8:    eb002010    ...     ADD      r0,r0,r0,LSR #8
        0x0000ffcc:    9003        ..      STR      r0,[sp,#0xc]
        0x0000ffce:    9803        ..      LDR      r0,[sp,#0xc]
        0x0000ffd0:    eb004010    ...@    ADD      r0,r0,r0,LSR #16
        0x0000ffd4:    9003        ..      STR      r0,[sp,#0xc]
        0x0000ffd6:    9803        ..      LDR      r0,[sp,#0xc]
        0x0000ffd8:    08c0        ..      LSRS     r0,r0,#3
        0x0000ffda:    9003        ..      STR      r0,[sp,#0xc]
        0x0000ffdc:    9801        ..      LDR      r0,[sp,#4]
        0x0000ffde:    9903        ..      LDR      r1,[sp,#0xc]
        0x0000ffe0:    eb010181    ....    ADD      r1,r1,r1,LSL #2
        0x0000ffe4:    eba00041    ..A.    SUB      r0,r0,r1,LSL #1
        0x0000ffe8:    9002        ..      STR      r0,[sp,#8]
        0x0000ffea:    9803        ..      LDR      r0,[sp,#0xc]
        0x0000ffec:    9902        ..      LDR      r1,[sp,#8]
        0x0000ffee:    3106        .1      ADDS     r1,#6
        0x0000fff0:    eb001011    ....    ADD      r0,r0,r1,LSR #4
        0x0000fff4:    2100        .!      MOVS     r1,#0
        0x0000fff6:    910b        ..      STR      r1,[sp,#0x2c]
        0x0000fff8:    900a        ..      STR      r0,[sp,#0x28]
        0x0000fffa:    e7ff        ..      B        0xfffc ; divu64_10 + 272
        0x0000fffc:    980a        ..      LDR      r0,[sp,#0x28]
        0x0000fffe:    990b        ..      LDR      r1,[sp,#0x2c]
        0x00010000:    b00c        ..      ADD      sp,sp,#0x30
        0x00010002:    4770        pG      BX       lr
    fram_init
        0x00010004:    b580        ..      PUSH     {r7,lr}
        0x00010006:    b086        ..      SUB      sp,sp,#0x18
        0x00010008:    2000        .       MOVS     r0,#0
        0x0001000a:    9003        ..      STR      r0,[sp,#0xc]
        0x0001000c:    f245007c    E.|.    MOV      r0,#0x507c
        0x00010010:    f2c10001    ....    MOVT     r0,#0x1001
        0x00010014:    6800        .h      LDR      r0,[r0,#0]
        0x00010016:    9000        ..      STR      r0,[sp,#0]
        0x00010018:    f2411040    A.@.    MOVW     r0,#0x1140
        0x0001001c:    f2c10001    ....    MOVT     r0,#0x1001
        0x00010020:    9001        ..      STR      r0,[sp,#4]
        0x00010022:    f44f7080    O..p    MOV      r0,#0x100
        0x00010026:    9002        ..      STR      r0,[sp,#8]
        0x00010028:    f2410028    A.(.    MOV      r0,#0x1028
        0x0001002c:    f2c10001    ....    MOVT     r0,#0x1001
        0x00010030:    f8d0c014    ....    LDR      r12,[r0,#0x14]
        0x00010034:    f64432e0    D..2    MOV      r2,#0x4be0
        0x00010038:    f2c10201    ....    MOVT     r2,#0x1001
        0x0001003c:    f6444374    D.tC    MOV      r3,#0x4c74
        0x00010040:    f2c10301    ....    MOVT     r3,#0x1001
        0x00010044:    2003        .       MOVS     r0,#3
        0x00010046:    4669        iF      MOV      r1,sp
        0x00010048:    47e0        .G      BLX      r12
        0x0001004a:    9004        ..      STR      r0,[sp,#0x10]
        0x0001004c:    9804        ..      LDR      r0,[sp,#0x10]
        0x0001004e:    bb48        H.      CBNZ     r0,0x100a4 ; fram_init + 160
        0x00010050:    e7ff        ..      B        0x10052 ; fram_init + 78
        0x00010052:    f2410028    A.(.    MOV      r0,#0x1028
        0x00010056:    f2c10001    ....    MOVT     r0,#0x1001
        0x0001005a:    69c2        .i      LDR      r2,[r0,#0x1c]
        0x0001005c:    f64430e0    D..0    MOV      r0,#0x4be0
        0x00010060:    f2c10001    ....    MOVT     r0,#0x1001
        0x00010064:    6800        .h      LDR      r0,[r0,#0]
        0x00010066:    a903        ..      ADD      r1,sp,#0xc
        0x00010068:    4790        .G      BLX      r2
        0x0001006a:    9004        ..      STR      r0,[sp,#0x10]
        0x0001006c:    9804        ..      LDR      r0,[sp,#0x10]
        0x0001006e:    b940        @.      CBNZ     r0,0x10082 ; fram_init + 126
        0x00010070:    e7ff        ..      B        0x10072 ; fram_init + 110
        0x00010072:    9803        ..      LDR      r0,[sp,#0xc]
        0x00010074:    f24a3100    J..1    MOVW     r1,#0xa300
        0x00010078:    f2c00158    ..X.    MOVT     r1,#0x58
        0x0001007c:    4288        .B      CMP      r0,r1
        0x0001007e:    d004        ..      BEQ      0x1008a ; fram_init + 134
        0x00010080:    e7ff        ..      B        0x10082 ; fram_init + 126
        0x00010082:    f04f30ff    O..0    MOV      r0,#0xffffffff
        0x00010086:    9005        ..      STR      r0,[sp,#0x14]
        0x00010088:    e010        ..      B        0x100ac ; fram_init + 168
        0x0001008a:    f2414032    A.2@    MOV      r0,#0x1432
        0x0001008e:    f2c00001    ....    MOVT     r0,#1
        0x00010092:    f2410128    A.(.    MOV      r1,#0x1028
        0x00010096:    f2c10101    ....    MOVT     r1,#0x1001
        0x0001009a:    f7fffb69    ..i.    BL       am_util_stdio_printf ; 0xf770
        0x0001009e:    2000        .       MOVS     r0,#0
        0x000100a0:    9005        ..      STR      r0,[sp,#0x14]
        0x000100a2:    e003        ..      B        0x100ac ; fram_init + 168
        0x000100a4:    f04f30ff    O..0    MOV      r0,#0xffffffff
        0x000100a8:    9005        ..      STR      r0,[sp,#0x14]
        0x000100aa:    e7ff        ..      B        0x100ac ; fram_init + 168
        0x000100ac:    9805        ..      LDR      r0,[sp,#0x14]
        0x000100ae:    b006        ..      ADD      sp,sp,#0x18
        0x000100b0:    bd80        ..      POP      {r7,pc}
        0x000100b2:    0000        ..      MOVS     r0,r0
    fram_term
        0x000100b4:    b580        ..      PUSH     {r7,lr}
        0x000100b6:    f2410028    A.(.    MOV      r0,#0x1028
        0x000100ba:    f2c10001    ....    MOVT     r0,#0x1001
        0x000100be:    6981        .i      LDR      r1,[r0,#0x18]
        0x000100c0:    f64430e0    D..0    MOV      r0,#0x4be0
        0x000100c4:    f2c10001    ....    MOVT     r0,#0x1001
        0x000100c8:    6800        .h      LDR      r0,[r0,#0]
        0x000100ca:    4788        .G      BLX      r1
        0x000100cc:    bd80        ..      POP      {r7,pc}
        0x000100ce:    0000        ..      MOVS     r0,r0
    ftoa
        0x000100d0:    b580        ..      PUSH     {r7,lr}
        0x000100d2:    b090        ..      SUB      sp,sp,#0x40
        0x000100d4:    ed8d0a0e    ....    VSTR     s0,[sp,#0x38]
        0x000100d8:    900d        ..      STR      r0,[sp,#0x34]
        0x000100da:    910c        ..      STR      r1,[sp,#0x30]
        0x000100dc:    980d        ..      LDR      r0,[sp,#0x34]
        0x000100de:    6800        .h      LDR      r0,[r0,#0]
        0x000100e0:    9009        ..      STR      r0,[sp,#0x24]
        0x000100e2:    9809        ..      LDR      r0,[sp,#0x24]
        0x000100e4:    2803        .(      CMP      r0,#3
        0x000100e6:    dc04        ..      BGT      0x100f2 ; ftoa + 34
        0x000100e8:    e7ff        ..      B        0x100ea ; ftoa + 26
        0x000100ea:    f06f0002    o...    MVN      r0,#2
        0x000100ee:    900f        ..      STR      r0,[sp,#0x3c]
        0x000100f0:    e103        ..      B        0x102fa ; ftoa + 554
        0x000100f2:    ed9d0a0e    ....    VLDR     s0,[sp,#0x38]
        0x000100f6:    eeb50a40    ..@.    VCMP.F32 s0,#0.0
        0x000100fa:    eef1fa10    ....    VMRS     APSR_nzcv,FPSCR
        0x000100fe:    d109        ..      BNE      0x10114 ; ftoa + 68
        0x00010100:    e7ff        ..      B        0x10102 ; ftoa + 50
        0x00010102:    990d        ..      LDR      r1,[sp,#0x34]
        0x00010104:    f6426030    B.0`    MOV      r0,#0x2e30
        0x00010108:    f2c00030    ..0.    MOVT     r0,#0x30
        0x0001010c:    6008        .`      STR      r0,[r1,#0]
        0x0001010e:    2003        .       MOVS     r0,#3
        0x00010110:    900f        ..      STR      r0,[sp,#0x3c]
        0x00010112:    e0f2        ..      B        0x102fa ; ftoa + 554
        0x00010114:    980d        ..      LDR      r0,[sp,#0x34]
        0x00010116:    9005        ..      STR      r0,[sp,#0x14]
        0x00010118:    980e        ..      LDR      r0,[sp,#0x38]
        0x0001011a:    900b        ..      STR      r0,[sp,#0x2c]
        0x0001011c:    980b        ..      LDR      r0,[sp,#0x2c]
        0x0001011e:    0dc1        ..      LSRS     r1,r0,#23
        0x00010120:    f06f007e    o.~.    MVN      r0,#0x7e
        0x00010124:    fa50f081    P...    UXTAB    r0,r0,r1
        0x00010128:    900a        ..      STR      r0,[sp,#0x28]
        0x0001012a:    980b        ..      LDR      r0,[sp,#0x2c]
        0x0001012c:    f4400000    @...    ORR      r0,r0,#0x800000
        0x00010130:    f020407f     ..@    BIC      r0,r0,#0xff000000
        0x00010134:    9008        ..      STR      r0,[sp,#0x20]
        0x00010136:    2000        .       MOVS     r0,#0
        0x00010138:    9006        ..      STR      r0,[sp,#0x18]
        0x0001013a:    9007        ..      STR      r0,[sp,#0x1c]
        0x0001013c:    980a        ..      LDR      r0,[sp,#0x28]
        0x0001013e:    281f        .(      CMP      r0,#0x1f
        0x00010140:    db04        ..      BLT      0x1014c ; ftoa + 124
        0x00010142:    e7ff        ..      B        0x10144 ; ftoa + 116
        0x00010144:    f06f0001    o...    MVN      r0,#1
        0x00010148:    900f        ..      STR      r0,[sp,#0x3c]
        0x0001014a:    e0d6        ..      B        0x102fa ; ftoa + 554
        0x0001014c:    980a        ..      LDR      r0,[sp,#0x28]
        0x0001014e:    f1100f18    ....    CMN      r0,#0x18
        0x00010152:    dc04        ..      BGT      0x1015e ; ftoa + 142
        0x00010154:    e7ff        ..      B        0x10156 ; ftoa + 134
        0x00010156:    f04f30ff    O..0    MOV      r0,#0xffffffff
        0x0001015a:    900f        ..      STR      r0,[sp,#0x3c]
        0x0001015c:    e0cd        ..      B        0x102fa ; ftoa + 554
        0x0001015e:    980a        ..      LDR      r0,[sp,#0x28]
        0x00010160:    2817        .(      CMP      r0,#0x17
        0x00010162:    db06        ..      BLT      0x10172 ; ftoa + 162
        0x00010164:    e7ff        ..      B        0x10166 ; ftoa + 150
        0x00010166:    9808        ..      LDR      r0,[sp,#0x20]
        0x00010168:    990a        ..      LDR      r1,[sp,#0x28]
        0x0001016a:    3917        .9      SUBS     r1,r1,#0x17
        0x0001016c:    4088        .@      LSLS     r0,r0,r1
        0x0001016e:    9007        ..      STR      r0,[sp,#0x1c]
        0x00010170:    e01a        ..      B        0x101a8 ; ftoa + 216
        0x00010172:    980a        ..      LDR      r0,[sp,#0x28]
        0x00010174:    2800        .(      CMP      r0,#0
        0x00010176:    d40e        ..      BMI      0x10196 ; ftoa + 198
        0x00010178:    e7ff        ..      B        0x1017a ; ftoa + 170
        0x0001017a:    9808        ..      LDR      r0,[sp,#0x20]
        0x0001017c:    990a        ..      LDR      r1,[sp,#0x28]
        0x0001017e:    f1c10117    ....    RSB      r1,r1,#0x17
        0x00010182:    4108        .A      ASRS     r0,r0,r1
        0x00010184:    9007        ..      STR      r0,[sp,#0x1c]
        0x00010186:    9808        ..      LDR      r0,[sp,#0x20]
        0x00010188:    990a        ..      LDR      r1,[sp,#0x28]
        0x0001018a:    3101        .1      ADDS     r1,#1
        0x0001018c:    4088        .@      LSLS     r0,r0,r1
        0x0001018e:    f020407f     ..@    BIC      r0,r0,#0xff000000
        0x00010192:    9006        ..      STR      r0,[sp,#0x18]
        0x00010194:    e007        ..      B        0x101a6 ; ftoa + 214
        0x00010196:    9808        ..      LDR      r0,[sp,#0x20]
        0x00010198:    f020407f     ..@    BIC      r0,r0,#0xff000000
        0x0001019c:    990a        ..      LDR      r1,[sp,#0x28]
        0x0001019e:    43c9        .C      MVNS     r1,r1
        0x000101a0:    40c8        .@      LSRS     r0,r0,r1
        0x000101a2:    9006        ..      STR      r0,[sp,#0x18]
        0x000101a4:    e7ff        ..      B        0x101a6 ; ftoa + 214
        0x000101a6:    e7ff        ..      B        0x101a8 ; ftoa + 216
        0x000101a8:    e7ff        ..      B        0x101aa ; ftoa + 218
        0x000101aa:    e7ff        ..      B        0x101ac ; ftoa + 220
        0x000101ac:    980b        ..      LDR      r0,[sp,#0x2c]
        0x000101ae:    f1b03fff    ...?    CMP      r0,#0xffffffff
        0x000101b2:    dc06        ..      BGT      0x101c2 ; ftoa + 242
        0x000101b4:    e7ff        ..      B        0x101b6 ; ftoa + 230
        0x000101b6:    990d        ..      LDR      r1,[sp,#0x34]
        0x000101b8:    1c48        H.      ADDS     r0,r1,#1
        0x000101ba:    900d        ..      STR      r0,[sp,#0x34]
        0x000101bc:    202d        -       MOVS     r0,#0x2d
        0x000101be:    7008        .p      STRB     r0,[r1,#0]
        0x000101c0:    e7ff        ..      B        0x101c2 ; ftoa + 242
        0x000101c2:    9807        ..      LDR      r0,[sp,#0x1c]
        0x000101c4:    b930        0.      CBNZ     r0,0x101d4 ; ftoa + 260
        0x000101c6:    e7ff        ..      B        0x101c8 ; ftoa + 248
        0x000101c8:    990d        ..      LDR      r1,[sp,#0x34]
        0x000101ca:    1c48        H.      ADDS     r0,r1,#1
        0x000101cc:    900d        ..      STR      r0,[sp,#0x34]
        0x000101ce:    2030        0       MOVS     r0,#0x30
        0x000101d0:    7008        .p      STRB     r0,[r1,#0]
        0x000101d2:    e01f        ..      B        0x10214 ; ftoa + 324
        0x000101d4:    9807        ..      LDR      r0,[sp,#0x1c]
        0x000101d6:    2801        .(      CMP      r0,#1
        0x000101d8:    db06        ..      BLT      0x101e8 ; ftoa + 280
        0x000101da:    e7ff        ..      B        0x101dc ; ftoa + 268
        0x000101dc:    9807        ..      LDR      r0,[sp,#0x1c]
        0x000101de:    17c1        ..      ASRS     r1,r0,#31
        0x000101e0:    9a0d        ..      LDR      r2,[sp,#0x34]
        0x000101e2:    f000fc7f    ....    BL       uint64_to_str ; 0x10ae4
        0x000101e6:    e00b        ..      B        0x10200 ; ftoa + 304
        0x000101e8:    990d        ..      LDR      r1,[sp,#0x34]
        0x000101ea:    1c48        H.      ADDS     r0,r1,#1
        0x000101ec:    900d        ..      STR      r0,[sp,#0x34]
        0x000101ee:    202d        -       MOVS     r0,#0x2d
        0x000101f0:    7008        .p      STRB     r0,[r1,#0]
        0x000101f2:    9807        ..      LDR      r0,[sp,#0x1c]
        0x000101f4:    4240        @B      RSBS     r0,r0,#0
        0x000101f6:    17c1        ..      ASRS     r1,r0,#31
        0x000101f8:    9a0d        ..      LDR      r2,[sp,#0x34]
        0x000101fa:    f000fc73    ..s.    BL       uint64_to_str ; 0x10ae4
        0x000101fe:    e7ff        ..      B        0x10200 ; ftoa + 304
        0x00010200:    e7ff        ..      B        0x10202 ; ftoa + 306
        0x00010202:    980d        ..      LDR      r0,[sp,#0x34]
        0x00010204:    7800        .x      LDRB     r0,[r0,#0]
        0x00010206:    b120         .      CBZ      r0,0x10212 ; ftoa + 322
        0x00010208:    e7ff        ..      B        0x1020a ; ftoa + 314
        0x0001020a:    980d        ..      LDR      r0,[sp,#0x34]
        0x0001020c:    3001        .0      ADDS     r0,#1
        0x0001020e:    900d        ..      STR      r0,[sp,#0x34]
        0x00010210:    e7f7        ..      B        0x10202 ; ftoa + 306
        0x00010212:    e7ff        ..      B        0x10214 ; ftoa + 324
        0x00010214:    990d        ..      LDR      r1,[sp,#0x34]
        0x00010216:    1c48        H.      ADDS     r0,r1,#1
        0x00010218:    900d        ..      STR      r0,[sp,#0x34]
        0x0001021a:    202e        .       MOVS     r0,#0x2e
        0x0001021c:    7008        .p      STRB     r0,[r1,#0]
        0x0001021e:    9806        ..      LDR      r0,[sp,#0x18]
        0x00010220:    b930        0.      CBNZ     r0,0x10230 ; ftoa + 352
        0x00010222:    e7ff        ..      B        0x10224 ; ftoa + 340
        0x00010224:    990d        ..      LDR      r1,[sp,#0x34]
        0x00010226:    1c48        H.      ADDS     r0,r1,#1
        0x00010228:    900d        ..      STR      r0,[sp,#0x34]
        0x0001022a:    2030        0       MOVS     r0,#0x30
        0x0001022c:    7008        .p      STRB     r0,[r1,#0]
        0x0001022e:    e05c        \.      B        0x102ea ; ftoa + 538
        0x00010230:    9909        ..      LDR      r1,[sp,#0x24]
        0x00010232:    980d        ..      LDR      r0,[sp,#0x34]
        0x00010234:    9a05        ..      LDR      r2,[sp,#0x14]
        0x00010236:    1a80        ..      SUBS     r0,r0,r2
        0x00010238:    43c0        .C      MVNS     r0,r0
        0x0001023a:    4408        .D      ADD      r0,r0,r1
        0x0001023c:    9002        ..      STR      r0,[sp,#8]
        0x0001023e:    9802        ..      LDR      r0,[sp,#8]
        0x00010240:    990c        ..      LDR      r1,[sp,#0x30]
        0x00010242:    4288        .B      CMP      r0,r1
        0x00010244:    dd03        ..      BLE      0x1024e ; ftoa + 382
        0x00010246:    e7ff        ..      B        0x10248 ; ftoa + 376
        0x00010248:    980c        ..      LDR      r0,[sp,#0x30]
        0x0001024a:    9001        ..      STR      r0,[sp,#4]
        0x0001024c:    e002        ..      B        0x10254 ; ftoa + 388
        0x0001024e:    9802        ..      LDR      r0,[sp,#8]
        0x00010250:    9001        ..      STR      r0,[sp,#4]
        0x00010252:    e7ff        ..      B        0x10254 ; ftoa + 388
        0x00010254:    9801        ..      LDR      r0,[sp,#4]
        0x00010256:    9002        ..      STR      r0,[sp,#8]
        0x00010258:    2000        .       MOVS     r0,#0
        0x0001025a:    9003        ..      STR      r0,[sp,#0xc]
        0x0001025c:    e7ff        ..      B        0x1025e ; ftoa + 398
        0x0001025e:    9803        ..      LDR      r0,[sp,#0xc]
        0x00010260:    9902        ..      LDR      r1,[sp,#8]
        0x00010262:    4288        .B      CMP      r0,r1
        0x00010264:    da15        ..      BGE      0x10292 ; ftoa + 450
        0x00010266:    e7ff        ..      B        0x10268 ; ftoa + 408
        0x00010268:    9806        ..      LDR      r0,[sp,#0x18]
        0x0001026a:    eb000080    ....    ADD      r0,r0,r0,LSL #2
        0x0001026e:    0040        @.      LSLS     r0,r0,#1
        0x00010270:    9006        ..      STR      r0,[sp,#0x18]
        0x00010272:    f89d001b    ....    LDRB     r0,[sp,#0x1b]
        0x00010276:    3030        00      ADDS     r0,r0,#0x30
        0x00010278:    990d        ..      LDR      r1,[sp,#0x34]
        0x0001027a:    1c4a        J.      ADDS     r2,r1,#1
        0x0001027c:    920d        ..      STR      r2,[sp,#0x34]
        0x0001027e:    7008        .p      STRB     r0,[r1,#0]
        0x00010280:    9806        ..      LDR      r0,[sp,#0x18]
        0x00010282:    f020407f     ..@    BIC      r0,r0,#0xff000000
        0x00010286:    9006        ..      STR      r0,[sp,#0x18]
        0x00010288:    e7ff        ..      B        0x1028a ; ftoa + 442
        0x0001028a:    9803        ..      LDR      r0,[sp,#0xc]
        0x0001028c:    3001        .0      ADDS     r0,#1
        0x0001028e:    9003        ..      STR      r0,[sp,#0xc]
        0x00010290:    e7e5        ..      B        0x1025e ; ftoa + 398
        0x00010292:    9806        ..      LDR      r0,[sp,#0x18]
        0x00010294:    eb000080    ....    ADD      r0,r0,r0,LSL #2
        0x00010298:    f34050c7    @..P    SBFX     r0,r0,#23,#8
        0x0001029c:    2805        .(      CMP      r0,#5
        0x0001029e:    db23        #.      BLT      0x102e8 ; ftoa + 536
        0x000102a0:    e7ff        ..      B        0x102a2 ; ftoa + 466
        0x000102a2:    980d        ..      LDR      r0,[sp,#0x34]
        0x000102a4:    3801        .8      SUBS     r0,#1
        0x000102a6:    9004        ..      STR      r0,[sp,#0x10]
        0x000102a8:    e7ff        ..      B        0x102aa ; ftoa + 474
        0x000102aa:    9804        ..      LDR      r0,[sp,#0x10]
        0x000102ac:    9905        ..      LDR      r1,[sp,#0x14]
        0x000102ae:    4288        .B      CMP      r0,r1
        0x000102b0:    d319        ..      BCC      0x102e6 ; ftoa + 534
        0x000102b2:    e7ff        ..      B        0x102b4 ; ftoa + 484
        0x000102b4:    9804        ..      LDR      r0,[sp,#0x10]
        0x000102b6:    7800        .x      LDRB     r0,[r0,#0]
        0x000102b8:    282e        .(      CMP      r0,#0x2e
        0x000102ba:    d101        ..      BNE      0x102c0 ; ftoa + 496
        0x000102bc:    e7ff        ..      B        0x102be ; ftoa + 494
        0x000102be:    e00e        ..      B        0x102de ; ftoa + 526
        0x000102c0:    9804        ..      LDR      r0,[sp,#0x10]
        0x000102c2:    7800        .x      LDRB     r0,[r0,#0]
        0x000102c4:    2839        9(      CMP      r0,#0x39
        0x000102c6:    d104        ..      BNE      0x102d2 ; ftoa + 514
        0x000102c8:    e7ff        ..      B        0x102ca ; ftoa + 506
        0x000102ca:    9904        ..      LDR      r1,[sp,#0x10]
        0x000102cc:    2030        0       MOVS     r0,#0x30
        0x000102ce:    7008        .p      STRB     r0,[r1,#0]
        0x000102d0:    e004        ..      B        0x102dc ; ftoa + 524
        0x000102d2:    9904        ..      LDR      r1,[sp,#0x10]
        0x000102d4:    7808        .x      LDRB     r0,[r1,#0]
        0x000102d6:    3001        .0      ADDS     r0,#1
        0x000102d8:    7008        .p      STRB     r0,[r1,#0]
        0x000102da:    e004        ..      B        0x102e6 ; ftoa + 534
        0x000102dc:    e7ff        ..      B        0x102de ; ftoa + 526
        0x000102de:    9804        ..      LDR      r0,[sp,#0x10]
        0x000102e0:    3801        .8      SUBS     r0,#1
        0x000102e2:    9004        ..      STR      r0,[sp,#0x10]
        0x000102e4:    e7e1        ..      B        0x102aa ; ftoa + 474
        0x000102e6:    e7ff        ..      B        0x102e8 ; ftoa + 536
        0x000102e8:    e7ff        ..      B        0x102ea ; ftoa + 538
        0x000102ea:    990d        ..      LDR      r1,[sp,#0x34]
        0x000102ec:    2000        .       MOVS     r0,#0
        0x000102ee:    7008        .p      STRB     r0,[r1,#0]
        0x000102f0:    980d        ..      LDR      r0,[sp,#0x34]
        0x000102f2:    9905        ..      LDR      r1,[sp,#0x14]
        0x000102f4:    1a40        @.      SUBS     r0,r0,r1
        0x000102f6:    900f        ..      STR      r0,[sp,#0x3c]
        0x000102f8:    e7ff        ..      B        0x102fa ; ftoa + 554
        0x000102fa:    980f        ..      LDR      r0,[sp,#0x3c]
        0x000102fc:    b010        ..      ADD      sp,sp,#0x40
        0x000102fe:    bd80        ..      POP      {r7,pc}
    getStackedReg
        0x00010300:    0080        ..      LSLS     r0,r0,#2
        0x00010302:    1840        @.      ADDS     r0,r0,r1
        0x00010304:    6800        .h      LDR      r0,[r0,#0]
        0x00010306:    4770        pG      BX       lr
    init_pattern
        0x00010308:    b081        ..      SUB      sp,sp,#4
        0x0001030a:    2000        .       MOVS     r0,#0
        0x0001030c:    9000        ..      STR      r0,[sp,#0]
        0x0001030e:    e7ff        ..      B        0x10310 ; init_pattern + 8
        0x00010310:    9800        ..      LDR      r0,[sp,#0]
        0x00010312:    287f        .(      CMP      r0,#0x7f
        0x00010314:    d80b        ..      BHI      0x1032e ; init_pattern + 38
        0x00010316:    e7ff        ..      B        0x10318 ; init_pattern + 16
        0x00010318:    9800        ..      LDR      r0,[sp,#0]
        0x0001031a:    f2417108    A..q    MOV      r1,#0x1708
        0x0001031e:    f2c10101    ....    MOVT     r1,#0x1001
        0x00010322:    5408        .T      STRB     r0,[r1,r0]
        0x00010324:    e7ff        ..      B        0x10326 ; init_pattern + 30
        0x00010326:    9800        ..      LDR      r0,[sp,#0]
        0x00010328:    3001        .0      ADDS     r0,#1
        0x0001032a:    9000        ..      STR      r0,[sp,#0]
        0x0001032c:    e7f0        ..      B        0x10310 ; init_pattern + 8
        0x0001032e:    b001        ..      ADD      sp,sp,#4
        0x00010330:    4770        pG      BX       lr
        0x00010332:    0000        ..      MOVS     r0,r0
    initiate_fram_read
        0x00010334:    f644416e    D.nA    MOV      r1,#0x4c6e
        0x00010338:    f2c10101    ....    MOVT     r1,#0x1001
        0x0001033c:    2001        .       MOVS     r0,#1
        0x0001033e:    7008        .p      STRB     r0,[r1,#0]
        0x00010340:    4770        pG      BX       lr
        0x00010342:    0000        ..      MOVS     r0,r0
    internal_iom_reset_on_error
        0x00010344:    b570        p.      PUSH     {r4-r6,lr}
        0x00010346:    6842        Bh      LDR      r2,[r0,#4]
        0x00010348:    f2440600    D...    MOVW     r6,#0x4000
        0x0001034c:    f2c50600    ....    MOVT     r6,#0x5000
        0x00010350:    0313        ..      LSLS     r3,r2,#12
        0x00010352:    eb063402    ...4    ADD      r4,r6,r2,LSL #12
        0x00010356:    f2442200    D.."    MOVW     r2,#0x4200
        0x0001035a:    f2c50200    ....    MOVT     r2,#0x5000
        0x0001035e:    f8d0c864    ..d.    LDR      r12,[r0,#0x864]
        0x00010362:    58d5        .X      LDR      r5,[r2,r3]
        0x00010364:    2600        .&      MOVS     r6,#0
        0x00010366:    0508        ..      LSLS     r0,r1,#20
        0x00010368:    50d6        .P      STR      r6,[r2,r3]
        0x0001036a:    d53f        ?.      BPL      0x103ec ; internal_iom_reset_on_error + 168
        0x0001036c:    f8d40280    ....    LDR      r0,[r4,#0x280]
        0x00010370:    0780        ..      LSLS     r0,r0,#30
        0x00010372:    d421        !.      BMI      0x103b8 ; internal_iom_reset_on_error + 116
        0x00010374:    f8d402b4    ....    LDR      r0,[r4,#0x2b4]
        0x00010378:    0780        ..      LSLS     r0,r0,#30
        0x0001037a:    d507        ..      BPL      0x1038c ; internal_iom_reset_on_error + 72
        0x0001037c:    f8d40100    ....    LDR      r0,[r4,#0x100]
        0x00010380:    f4100f7c    ..|.    TST      r0,#0xfc0000
        0x00010384:    d0f6        ..      BEQ      0x10374 ; internal_iom_reset_on_error + 48
        0x00010386:    f8d40108    ....    LDR      r0,[r4,#0x108]
        0x0001038a:    e7f7        ..      B        0x1037c ; internal_iom_reset_on_error + 56
        0x0001038c:    f8d402b4    ....    LDR      r0,[r4,#0x2b4]
        0x00010390:    f0000006    ....    AND      r0,r0,#6
        0x00010394:    2804        .(      CMP      r0,#4
        0x00010396:    d1f9        ..      BNE      0x1038c ; internal_iom_reset_on_error + 72
        0x00010398:    e008        ..      B        0x103ac ; internal_iom_reset_on_error + 104
        0x0001039a:    bf00        ..      NOP      
        0x0001039c:    f8d40100    ....    LDR      r0,[r4,#0x100]
        0x000103a0:    f4100f7c    ..|.    TST      r0,#0xfc0000
        0x000103a4:    d002        ..      BEQ      0x103ac ; internal_iom_reset_on_error + 104
        0x000103a6:    f8d40108    ....    LDR      r0,[r4,#0x108]
        0x000103aa:    e7f7        ..      B        0x1039c ; internal_iom_reset_on_error + 88
        0x000103ac:    f8d40100    ....    LDR      r0,[r4,#0x100]
        0x000103b0:    f4100f7f    ....    TST      r0,#0xff0000
        0x000103b4:    d1f2        ..      BNE      0x1039c ; internal_iom_reset_on_error + 88
        0x000103b6:    e019        ..      B        0x103ec ; internal_iom_reset_on_error + 168
        0x000103b8:    f8d42288    ..."    LDR      r2,[r4,#0x288]
        0x000103bc:    b182        ..      CBZ      r2,0x103e0 ; internal_iom_reset_on_error + 156
        0x000103be:    f64b63ef    K..c    MOV      r3,#0xbeef
        0x000103c2:    f6cd63ad    ...c    MOVT     r3,#0xdead
        0x000103c6:    bf00        ..      NOP      
        0x000103c8:    f8d40100    ....    LDR      r0,[r4,#0x100]
        0x000103cc:    f4104f7c    ..|O    TST      r0,#0xfc00
        0x000103d0:    d0fa        ..      BEQ      0x103c8 ; internal_iom_reset_on_error + 132
        0x000103d2:    2a05        .*      CMP      r2,#5
        0x000103d4:    f8c4310c    ...1    STR      r3,[r4,#0x10c]
        0x000103d8:    d302        ..      BCC      0x103e0 ; internal_iom_reset_on_error + 156
        0x000103da:    3a04        .:      SUBS     r2,#4
        0x000103dc:    e7f4        ..      B        0x103c8 ; internal_iom_reset_on_error + 132
        0x000103de:    bf00        ..      NOP      
        0x000103e0:    f8d402b4    ....    LDR      r0,[r4,#0x2b4]
        0x000103e4:    f0000006    ....    AND      r0,r0,#6
        0x000103e8:    2804        .(      CMP      r0,#4
        0x000103ea:    d1f9        ..      BNE      0x103e0 ; internal_iom_reset_on_error + 156
        0x000103ec:    f4117f04    ....    TST      r1,#0x210
        0x000103f0:    d02c        ,.      BEQ      0x1044c ; internal_iom_reset_on_error + 264
        0x000103f2:    f8d46410    ...d    LDR      r6,[r4,#0x410]
        0x000103f6:    ea4f004c    O.L.    LSL      r0,r12,#1
        0x000103fa:    bf00        ..      NOP      
        0x000103fc:    f8d412b4    ....    LDR      r1,[r4,#0x2b4]
        0x00010400:    f0010106    ....    AND      r1,r1,#6
        0x00010404:    2904        .)      CMP      r1,#4
        0x00010406:    d1f9        ..      BNE      0x103fc ; internal_iom_reset_on_error + 184
        0x00010408:    f8d41214    ....    LDR      r1,[r4,#0x214]
        0x0001040c:    f0210110    !...    BIC      r1,r1,#0x10
        0x00010410:    f8c41214    ....    STR      r1,[r4,#0x214]
        0x00010414:    f8d41110    ....    LDR      r1,[r4,#0x110]
        0x00010418:    f0210102    !...    BIC      r1,r1,#2
        0x0001041c:    f8c41110    ....    STR      r1,[r4,#0x110]
        0x00010420:    f8d41410    ....    LDR      r1,[r4,#0x410]
        0x00010424:    f0410102    A...    ORR      r1,r1,#2
        0x00010428:    f8c41410    ....    STR      r1,[r4,#0x410]
        0x0001042c:    f7fdfae5    ....    BL       am_hal_flash_delay ; 0xd9fa
        0x00010430:    f8c46410    ...d    STR      r6,[r4,#0x410]
        0x00010434:    f8d40110    ....    LDR      r0,[r4,#0x110]
        0x00010438:    f0400002    @...    ORR      r0,r0,#2
        0x0001043c:    f8c40110    ....    STR      r0,[r4,#0x110]
        0x00010440:    f8d40214    ....    LDR      r0,[r4,#0x214]
        0x00010444:    f0400010    @...    ORR      r0,r0,#0x10
        0x00010448:    f8c40214    ....    STR      r0,[r4,#0x214]
        0x0001044c:    f04f30ff    O..0    MOV      r0,#0xffffffff
        0x00010450:    f8c40208    ....    STR      r0,[r4,#0x208]
        0x00010454:    f8c45200    ...R    STR      r5,[r4,#0x200]
        0x00010458:    bd70        p.      POP      {r4-r6,pc}
    iom_dummy_callback
        0x0001045a:    4770        pG      BX       lr
    main
        0x0001045c:    b580        ..      PUSH     {r7,lr}
        0x0001045e:    b08e        ..      SUB      sp,sp,#0x38
        0x00010460:    2100        .!      MOVS     r1,#0
        0x00010462:    9108        ..      STR      r1,[sp,#0x20]
        0x00010464:    910d        ..      STR      r1,[sp,#0x34]
        0x00010466:    910b        ..      STR      r1,[sp,#0x2c]
        0x00010468:    4608        .F      MOV      r0,r1
        0x0001046a:    f7fcfe61    ..a.    BL       am_hal_clkgen_control ; 0xd130
        0x0001046e:    f6406058    @.X`    MOV      r0,#0xe58
        0x00010472:    f2c00001    ....    MOVT     r0,#1
        0x00010476:    f7fcfd77    ..w.    BL       am_hal_cachectrl_config ; 0xcf68
        0x0001047a:    f7fcfe4f    ..O.    BL       am_hal_cachectrl_enable ; 0xd11c
        0x0001047e:    f7fcf98b    ....    BL       am_bsp_low_power_init ; 0xc798
        0x00010482:    f7fcf966    ..f.    BL       am_bsp_itm_printf_enable ; 0xc752
        0x00010486:    f7fff9ab    ....    BL       am_util_stdio_terminal_clear ; 0xf7e0
        0x0001048a:    f24130ea    A..0    MOV      r0,#0x13ea
        0x0001048e:    f2c00001    ....    MOVT     r0,#1
        0x00010492:    f7fff96d    ..m.    BL       am_util_stdio_printf ; 0xf770
        0x00010496:    f000faa3    ....    BL       timerA0_init ; 0x109e0
        0x0001049a:    2001        .       MOVS     r0,#1
        0x0001049c:    9007        ..      STR      r0,[sp,#0x1c]
        0x0001049e:    f7fdf922    ..".    BL       am_hal_ctimer_int_enable ; 0xd6e6
        0x000104a2:    200e        .       MOVS     r0,#0xe
        0x000104a4:    f7fbff0a    ....    BL       __NVIC_EnableIRQ ; 0xc2bc
        0x000104a8:    f7ffff2e    ....    BL       init_pattern ; 0x10308
        0x000104ac:    9807        ..      LDR      r0,[sp,#0x1c]
        0x000104ae:    f2403135    @.51    MOV      r1,#0x335
        0x000104b2:    f2c00101    ....    MOVT     r1,#1
        0x000104b6:    f7fdf929    ..).    BL       am_hal_ctimer_int_register ; 0xd70c
        0x000104ba:    9808        ..      LDR      r0,[sp,#0x20]
        0x000104bc:    f64f71ff    O..q    MOV      r1,#0xffff
        0x000104c0:    f7fdfa6a    ..j.    BL       am_hal_ctimer_start ; 0xd998
        0x000104c4:    f241406c    A.l@    MOV      r0,#0x146c
        0x000104c8:    f2c00001    ....    MOVT     r0,#1
        0x000104cc:    2105        .!      MOVS     r1,#5
        0x000104ce:    f7fff94f    ..O.    BL       am_util_stdio_printf ; 0xf770
        0x000104d2:    2007        .       MOVS     r0,#7
        0x000104d4:    f88d002b    ..+.    STRB     r0,[sp,#0x2b]
        0x000104d8:    e7ff        ..      B        0x104da ; main + 126
        0x000104da:    f89d002b    ..+.    LDRB     r0,[sp,#0x2b]
        0x000104de:    2809        .(      CMP      r0,#9
        0x000104e0:    f30080cf    ....    BGT.W    0x10682 ; main + 550
        0x000104e4:    e7ff        ..      B        0x104e6 ; main + 138
        0x000104e6:    f89d102b    ..+.    LDRB     r1,[sp,#0x2b]
        0x000104ea:    f241008c    A...    MOV      r0,#0x108c
        0x000104ee:    f2c10001    ....    MOVT     r0,#0x1001
        0x000104f2:    f8501031    P.1.    LDR      r1,[r0,r1,LSL #3]
        0x000104f6:    f245027c    E.|.    MOV      r2,#0x507c
        0x000104fa:    f2c10201    ....    MOVT     r2,#0x1001
        0x000104fe:    6011        .`      STR      r1,[r2,#0]
        0x00010500:    f89d102b    ..+.    LDRB     r1,[sp,#0x2b]
        0x00010504:    eb0000c1    ....    ADD      r0,r0,r1,LSL #3
        0x00010508:    6841        Ah      LDR      r1,[r0,#4]
        0x0001050a:    f24130fe    A..0    MOV      r0,#0x13fe
        0x0001050e:    f2c00001    ....    MOVT     r0,#1
        0x00010512:    f7fff92d    ..-.    BL       am_util_stdio_printf ; 0xf770
        0x00010516:    f7fdfc2d    ..-.    BL       am_hal_interrupt_master_enable ; 0xdd74
        0x0001051a:    f7fffd73    ..s.    BL       fram_init ; 0x10004
        0x0001051e:    900c        ..      STR      r0,[sp,#0x30]
        0x00010520:    980c        ..      LDR      r0,[sp,#0x30]
        0x00010522:    b140        @.      CBZ      r0,0x10536 ; main + 218
        0x00010524:    e7ff        ..      B        0x10526 ; main + 202
        0x00010526:    f2414017    A..@    MOV      r0,#0x1417
        0x0001052a:    f2c00001    ....    MOVT     r0,#1
        0x0001052e:    f7fff91f    ....    BL       am_util_stdio_printf ; 0xf770
        0x00010532:    e7ff        ..      B        0x10534 ; main + 216
        0x00010534:    e7fe        ..      B        0x10534 ; main + 216
        0x00010536:    2009        .       MOVS     r0,#9
        0x00010538:    f7fbfec0    ....    BL       __NVIC_EnableIRQ ; 0xc2bc
        0x0001053c:    f2410158    A.X.    MOV      r1,#0x1058
        0x00010540:    f2c10101    ....    MOVT     r1,#0x1001
        0x00010544:    2001        .       MOVS     r0,#1
        0x00010546:    7008        .p      STRB     r0,[r1,#0]
        0x00010548:    f6444173    D.sA    MOV      r1,#0x4c73
        0x0001054c:    f2c10101    ....    MOVT     r1,#0x1001
        0x00010550:    2000        .       MOVS     r0,#0
        0x00010552:    7008        .p      STRB     r0,[r1,#0]
        0x00010554:    f644416e    D.nA    MOV      r1,#0x4c6e
        0x00010558:    f2c10101    ....    MOVT     r1,#0x1001
        0x0001055c:    7008        .p      STRB     r0,[r1,#0]
        0x0001055e:    f6444172    D.rA    MOV      r1,#0x4c72
        0x00010562:    f2c10101    ....    MOVT     r1,#0x1001
        0x00010566:    7008        .p      STRB     r0,[r1,#0]
        0x00010568:    900b        ..      STR      r0,[sp,#0x2c]
        0x0001056a:    e7ff        ..      B        0x1056c ; main + 272
        0x0001056c:    f7fdfbfe    ....    BL       am_hal_interrupt_master_disable ; 0xdd6c
        0x00010570:    9009        ..      STR      r0,[sp,#0x24]
        0x00010572:    f2410058    A.X.    MOV      r0,#0x1058
        0x00010576:    f2c10001    ....    MOVT     r0,#0x1001
        0x0001057a:    7800        .x      LDRB     r0,[r0,#0]
        0x0001057c:    07c0        ..      LSLS     r0,r0,#31
        0x0001057e:    b1f8        ..      CBZ      r0,0x105c0 ; main + 356
        0x00010580:    e7ff        ..      B        0x10582 ; main + 294
        0x00010582:    9809        ..      LDR      r0,[sp,#0x24]
        0x00010584:    f7fdfbfa    ....    BL       am_hal_interrupt_master_set ; 0xdd7c
        0x00010588:    2000        .       MOVS     r0,#0
        0x0001058a:    9006        ..      STR      r0,[sp,#0x18]
        0x0001058c:    2101        .!      MOVS     r1,#1
        0x0001058e:    9104        ..      STR      r1,[sp,#0x10]
        0x00010590:    f7fdfba0    ....    BL       am_hal_gpio_state_write ; 0xdcd4
        0x00010594:    20a0        .       MOVS     r0,#0xa0
        0x00010596:    9005        ..      STR      r0,[sp,#0x14]
        0x00010598:    f7fdfa2f    ../.    BL       am_hal_flash_delay ; 0xd9fa
        0x0001059c:    9906        ..      LDR      r1,[sp,#0x18]
        0x0001059e:    4608        .F      MOV      r0,r1
        0x000105a0:    f7fdfb98    ....    BL       am_hal_gpio_state_write ; 0xdcd4
        0x000105a4:    f000fb98    ....    BL       write_fram ; 0x10cd8
        0x000105a8:    9904        ..      LDR      r1,[sp,#0x10]
        0x000105aa:    9806        ..      LDR      r0,[sp,#0x18]
        0x000105ac:    f7fdfb92    ....    BL       am_hal_gpio_state_write ; 0xdcd4
        0x000105b0:    9805        ..      LDR      r0,[sp,#0x14]
        0x000105b2:    f7fdfa22    ..".    BL       am_hal_flash_delay ; 0xd9fa
        0x000105b6:    9906        ..      LDR      r1,[sp,#0x18]
        0x000105b8:    4608        .F      MOV      r0,r1
        0x000105ba:    f7fdfb8b    ....    BL       am_hal_gpio_state_write ; 0xdcd4
        0x000105be:    e053        S.      B        0x10668 ; main + 524
        0x000105c0:    f6444073    D.s@    MOV      r0,#0x4c73
        0x000105c4:    f2c10001    ....    MOVT     r0,#0x1001
        0x000105c8:    7800        .x      LDRB     r0,[r0,#0]
        0x000105ca:    07c0        ..      LSLS     r0,r0,#31
        0x000105cc:    b338        8.      CBZ      r0,0x1061e ; main + 450
        0x000105ce:    e7ff        ..      B        0x105d0 ; main + 372
        0x000105d0:    f644406e    D.n@    MOV      r0,#0x4c6e
        0x000105d4:    f2c10001    ....    MOVT     r0,#0x1001
        0x000105d8:    7800        .x      LDRB     r0,[r0,#0]
        0x000105da:    07c0        ..      LSLS     r0,r0,#31
        0x000105dc:    b1f8        ..      CBZ      r0,0x1061e ; main + 450
        0x000105de:    e7ff        ..      B        0x105e0 ; main + 388
        0x000105e0:    9809        ..      LDR      r0,[sp,#0x24]
        0x000105e2:    f7fdfbcb    ....    BL       am_hal_interrupt_master_set ; 0xdd7c
        0x000105e6:    2000        .       MOVS     r0,#0
        0x000105e8:    9003        ..      STR      r0,[sp,#0xc]
        0x000105ea:    2101        .!      MOVS     r1,#1
        0x000105ec:    9101        ..      STR      r1,[sp,#4]
        0x000105ee:    f7fdfb71    ..q.    BL       am_hal_gpio_state_write ; 0xdcd4
        0x000105f2:    20a0        .       MOVS     r0,#0xa0
        0x000105f4:    9002        ..      STR      r0,[sp,#8]
        0x000105f6:    f7fdfa00    ....    BL       am_hal_flash_delay ; 0xd9fa
        0x000105fa:    9903        ..      LDR      r1,[sp,#0xc]
        0x000105fc:    4608        .F      MOV      r0,r1
        0x000105fe:    f7fdfb69    ..i.    BL       am_hal_gpio_state_write ; 0xdcd4
        0x00010602:    f000f925    ..%.    BL       read_fram ; 0x10850
        0x00010606:    9901        ..      LDR      r1,[sp,#4]
        0x00010608:    9803        ..      LDR      r0,[sp,#0xc]
        0x0001060a:    f7fdfb63    ..c.    BL       am_hal_gpio_state_write ; 0xdcd4
        0x0001060e:    9802        ..      LDR      r0,[sp,#8]
        0x00010610:    f7fdf9f3    ....    BL       am_hal_flash_delay ; 0xd9fa
        0x00010614:    9903        ..      LDR      r1,[sp,#0xc]
        0x00010616:    4608        .F      MOV      r0,r1
        0x00010618:    f7fdfb5c    ..\.    BL       am_hal_gpio_state_write ; 0xdcd4
        0x0001061c:    e023        #.      B        0x10666 ; main + 522
        0x0001061e:    f6444072    D.r@    MOV      r0,#0x4c72
        0x00010622:    f2c10001    ....    MOVT     r0,#0x1001
        0x00010626:    7800        .x      LDRB     r0,[r0,#0]
        0x00010628:    07c0        ..      LSLS     r0,r0,#31
        0x0001062a:    b1a0        ..      CBZ      r0,0x10656 ; main + 506
        0x0001062c:    e7ff        ..      B        0x1062e ; main + 466
        0x0001062e:    9809        ..      LDR      r0,[sp,#0x24]
        0x00010630:    f7fdfba4    ....    BL       am_hal_interrupt_master_set ; 0xdd7c
        0x00010634:    f000fafc    ....    BL       verify_fram_data ; 0x10c30
        0x00010638:    980b        ..      LDR      r0,[sp,#0x2c]
        0x0001063a:    3001        .0      ADDS     r0,#1
        0x0001063c:    900b        ..      STR      r0,[sp,#0x2c]
        0x0001063e:    2805        .(      CMP      r0,#5
        0x00010640:    d308        ..      BCC      0x10654 ; main + 504
        0x00010642:    e7ff        ..      B        0x10644 ; main + 488
        0x00010644:    f2414057    A.W@    MOV      r0,#0x1457
        0x00010648:    f2c00001    ....    MOVT     r0,#1
        0x0001064c:    2105        .!      MOVS     r1,#5
        0x0001064e:    f7fff88f    ....    BL       am_util_stdio_printf ; 0xf770
        0x00010652:    e00a        ..      B        0x1066a ; main + 526
        0x00010654:    e006        ..      B        0x10664 ; main + 520
        0x00010656:    2001        .       MOVS     r0,#1
        0x00010658:    f7feff60    ..`.    BL       am_hal_sysctrl_sleep ; 0xf51c
        0x0001065c:    9809        ..      LDR      r0,[sp,#0x24]
        0x0001065e:    f7fdfb8d    ....    BL       am_hal_interrupt_master_set ; 0xdd7c
        0x00010662:    e7ff        ..      B        0x10664 ; main + 520
        0x00010664:    e7ff        ..      B        0x10666 ; main + 522
        0x00010666:    e7ff        ..      B        0x10668 ; main + 524
        0x00010668:    e780        ..      B        0x1056c ; main + 272
        0x0001066a:    2009        .       MOVS     r0,#9
        0x0001066c:    f7fbfe0a    ....    BL       __NVIC_DisableIRQ ; 0xc284
        0x00010670:    f7fffd20    .. .    BL       fram_term ; 0x100b4
        0x00010674:    e7ff        ..      B        0x10676 ; main + 538
        0x00010676:    f89d002b    ..+.    LDRB     r0,[sp,#0x2b]
        0x0001067a:    3001        .0      ADDS     r0,#1
        0x0001067c:    f88d002b    ..+.    STRB     r0,[sp,#0x2b]
        0x00010680:    e72b        +.      B        0x104da ; main + 126
        0x00010682:    2001        .       MOVS     r0,#1
        0x00010684:    f7fdf81c    ....    BL       am_hal_ctimer_int_disable ; 0xd6c0
        0x00010688:    200e        .       MOVS     r0,#0xe
        0x0001068a:    f7fbfdfb    ....    BL       __NVIC_DisableIRQ ; 0xc284
        0x0001068e:    f241403c    A.<@    MOV      r0,#0x143c
        0x00010692:    f2c00001    ....    MOVT     r0,#1
        0x00010696:    f7fff86b    ..k.    BL       am_util_stdio_printf ; 0xf770
        0x0001069a:    e7ff        ..      B        0x1069c ; main + 576
        0x0001069c:    2001        .       MOVS     r0,#1
        0x0001069e:    f7feff3d    ..=.    BL       am_hal_sysctrl_sleep ; 0xf51c
        0x000106a2:    e7fb        ..      B        0x1069c ; main + 576
    ndigits_in_hex
        0x000106a4:    b084        ..      SUB      sp,sp,#0x10
        0x000106a6:    9103        ..      STR      r1,[sp,#0xc]
        0x000106a8:    9002        ..      STR      r0,[sp,#8]
        0x000106aa:    9802        ..      LDR      r0,[sp,#8]
        0x000106ac:    9903        ..      LDR      r1,[sp,#0xc]
        0x000106ae:    4308        .C      ORRS     r0,r0,r1
        0x000106b0:    fab0f080    ....    CLZ      r0,r0
        0x000106b4:    0940        @.      LSRS     r0,r0,#5
        0x000106b6:    9001        ..      STR      r0,[sp,#4]
        0x000106b8:    e7ff        ..      B        0x106ba ; ndigits_in_hex + 22
        0x000106ba:    9802        ..      LDR      r0,[sp,#8]
        0x000106bc:    9903        ..      LDR      r1,[sp,#0xc]
        0x000106be:    4308        .C      ORRS     r0,r0,r1
        0x000106c0:    b160        `.      CBZ      r0,0x106dc ; ndigits_in_hex + 56
        0x000106c2:    e7ff        ..      B        0x106c4 ; ndigits_in_hex + 32
        0x000106c4:    9802        ..      LDR      r0,[sp,#8]
        0x000106c6:    9903        ..      LDR      r1,[sp,#0xc]
        0x000106c8:    0900        ..      LSRS     r0,r0,#4
        0x000106ca:    ea407001    @..p    ORR      r0,r0,r1,LSL #28
        0x000106ce:    0909        ..      LSRS     r1,r1,#4
        0x000106d0:    9103        ..      STR      r1,[sp,#0xc]
        0x000106d2:    9002        ..      STR      r0,[sp,#8]
        0x000106d4:    9801        ..      LDR      r0,[sp,#4]
        0x000106d6:    3001        .0      ADDS     r0,#1
        0x000106d8:    9001        ..      STR      r0,[sp,#4]
        0x000106da:    e7ee        ..      B        0x106ba ; ndigits_in_hex + 22
        0x000106dc:    9801        ..      LDR      r0,[sp,#4]
        0x000106de:    b004        ..      ADD      sp,sp,#0x10
        0x000106e0:    4770        pG      BX       lr
        0x000106e2:    0000        ..      MOVS     r0,r0
    ndigits_in_i64
        0x000106e4:    b580        ..      PUSH     {r7,lr}
        0x000106e6:    b082        ..      SUB      sp,sp,#8
        0x000106e8:    9101        ..      STR      r1,[sp,#4]
        0x000106ea:    9000        ..      STR      r0,[sp,#0]
        0x000106ec:    9801        ..      LDR      r0,[sp,#4]
        0x000106ee:    f1b03fff    ...?    CMP      r0,#0xffffffff
        0x000106f2:    dc09        ..      BGT      0x10708 ; ndigits_in_i64 + 36
        0x000106f4:    e7ff        ..      B        0x106f6 ; ndigits_in_i64 + 18
        0x000106f6:    9800        ..      LDR      r0,[sp,#0]
        0x000106f8:    9a01        ..      LDR      r2,[sp,#4]
        0x000106fa:    4241        AB      RSBS     r1,r0,#0
        0x000106fc:    f04f0000    O...    MOV      r0,#0
        0x00010700:    4190        .A      SBCS     r0,r0,r2
        0x00010702:    9100        ..      STR      r1,[sp,#0]
        0x00010704:    9001        ..      STR      r0,[sp,#4]
        0x00010706:    e7ff        ..      B        0x10708 ; ndigits_in_i64 + 36
        0x00010708:    9800        ..      LDR      r0,[sp,#0]
        0x0001070a:    9901        ..      LDR      r1,[sp,#4]
        0x0001070c:    f000f802    ....    BL       ndigits_in_u64 ; 0x10714
        0x00010710:    b002        ..      ADD      sp,sp,#8
        0x00010712:    bd80        ..      POP      {r7,pc}
    ndigits_in_u64
        0x00010714:    b580        ..      PUSH     {r7,lr}
        0x00010716:    b084        ..      SUB      sp,sp,#0x10
        0x00010718:    9103        ..      STR      r1,[sp,#0xc]
        0x0001071a:    9002        ..      STR      r0,[sp,#8]
        0x0001071c:    9802        ..      LDR      r0,[sp,#8]
        0x0001071e:    9903        ..      LDR      r1,[sp,#0xc]
        0x00010720:    4308        .C      ORRS     r0,r0,r1
        0x00010722:    fab0f080    ....    CLZ      r0,r0
        0x00010726:    0940        @.      LSRS     r0,r0,#5
        0x00010728:    9001        ..      STR      r0,[sp,#4]
        0x0001072a:    e7ff        ..      B        0x1072c ; ndigits_in_u64 + 24
        0x0001072c:    9802        ..      LDR      r0,[sp,#8]
        0x0001072e:    9903        ..      LDR      r1,[sp,#0xc]
        0x00010730:    4308        .C      ORRS     r0,r0,r1
        0x00010732:    b150        P.      CBZ      r0,0x1074a ; ndigits_in_u64 + 54
        0x00010734:    e7ff        ..      B        0x10736 ; ndigits_in_u64 + 34
        0x00010736:    9802        ..      LDR      r0,[sp,#8]
        0x00010738:    9903        ..      LDR      r1,[sp,#0xc]
        0x0001073a:    f7fffbd7    ....    BL       divu64_10 ; 0xfeec
        0x0001073e:    9103        ..      STR      r1,[sp,#0xc]
        0x00010740:    9002        ..      STR      r0,[sp,#8]
        0x00010742:    9801        ..      LDR      r0,[sp,#4]
        0x00010744:    3001        .0      ADDS     r0,#1
        0x00010746:    9001        ..      STR      r0,[sp,#4]
        0x00010748:    e7f0        ..      B        0x1072c ; ndigits_in_u64 + 24
        0x0001074a:    9801        ..      LDR      r0,[sp,#4]
        0x0001074c:    b004        ..      ADD      sp,sp,#0x10
        0x0001074e:    bd80        ..      POP      {r7,pc}
    padbuffer
        0x00010750:    b085        ..      SUB      sp,sp,#0x14
        0x00010752:    9003        ..      STR      r0,[sp,#0xc]
        0x00010754:    f88d100b    ....    STRB     r1,[sp,#0xb]
        0x00010758:    9201        ..      STR      r2,[sp,#4]
        0x0001075a:    2000        .       MOVS     r0,#0
        0x0001075c:    9000        ..      STR      r0,[sp,#0]
        0x0001075e:    9801        ..      LDR      r0,[sp,#4]
        0x00010760:    2800        .(      CMP      r0,#0
        0x00010762:    dc03        ..      BGT      0x1076c ; padbuffer + 28
        0x00010764:    e7ff        ..      B        0x10766 ; padbuffer + 22
        0x00010766:    9800        ..      LDR      r0,[sp,#0]
        0x00010768:    9004        ..      STR      r0,[sp,#0x10]
        0x0001076a:    e016        ..      B        0x1079a ; padbuffer + 74
        0x0001076c:    e7ff        ..      B        0x1076e ; padbuffer + 30
        0x0001076e:    9801        ..      LDR      r0,[sp,#4]
        0x00010770:    1e41        A.      SUBS     r1,r0,#1
        0x00010772:    9101        ..      STR      r1,[sp,#4]
        0x00010774:    b170        p.      CBZ      r0,0x10794 ; padbuffer + 68
        0x00010776:    e7ff        ..      B        0x10778 ; padbuffer + 40
        0x00010778:    9803        ..      LDR      r0,[sp,#0xc]
        0x0001077a:    b138        8.      CBZ      r0,0x1078c ; padbuffer + 60
        0x0001077c:    e7ff        ..      B        0x1077e ; padbuffer + 46
        0x0001077e:    f89d000b    ....    LDRB     r0,[sp,#0xb]
        0x00010782:    9903        ..      LDR      r1,[sp,#0xc]
        0x00010784:    1c4a        J.      ADDS     r2,r1,#1
        0x00010786:    9203        ..      STR      r2,[sp,#0xc]
        0x00010788:    7008        .p      STRB     r0,[r1,#0]
        0x0001078a:    e7ff        ..      B        0x1078c ; padbuffer + 60
        0x0001078c:    9800        ..      LDR      r0,[sp,#0]
        0x0001078e:    3001        .0      ADDS     r0,#1
        0x00010790:    9000        ..      STR      r0,[sp,#0]
        0x00010792:    e7ec        ..      B        0x1076e ; padbuffer + 30
        0x00010794:    9800        ..      LDR      r0,[sp,#0]
        0x00010796:    9004        ..      STR      r0,[sp,#0x10]
        0x00010798:    e7ff        ..      B        0x1079a ; padbuffer + 74
        0x0001079a:    9804        ..      LDR      r0,[sp,#0x10]
        0x0001079c:    b005        ..      ADD      sp,sp,#0x14
        0x0001079e:    4770        pG      BX       lr
    program_dma
        0x000107a0:    f8d01850    ..P.    LDR      r1,[r0,#0x850]
        0x000107a4:    f8d02848    ..H(    LDR      r2,[r0,#0x848]
        0x000107a8:    3101        .1      ADDS     r1,#1
        0x000107aa:    fbb1fcf2    ....    UDIV     r12,r1,r2
        0x000107ae:    f8d03854    ..T8    LDR      r3,[r0,#0x854]
        0x000107b2:    fb0c1112    ....    MLS      r1,r12,r2,r1
        0x000107b6:    6840        @h      LDR      r0,[r0,#4]
        0x000107b8:    eb031241    ..A.    ADD      r2,r3,r1,LSL #5
        0x000107bc:    0149        I.      LSLS     r1,r1,#5
        0x000107be:    5859        YX      LDR      r1,[r3,r1]
        0x000107c0:    f2442320    D. #    MOV      r3,#0x4220
        0x000107c4:    0300        ..      LSLS     r0,r0,#12
        0x000107c6:    f2c50300    ....    MOVT     r3,#0x5000
        0x000107ca:    5019        .P      STR      r1,[r3,r0]
        0x000107cc:    6851        Qh      LDR      r1,[r2,#4]
        0x000107ce:    f2444304    D..C    MOV      r3,#0x4404
        0x000107d2:    f2c50300    ....    MOVT     r3,#0x5000
        0x000107d6:    f2442c80    D..,    MOVW     r12,#0x4280
        0x000107da:    5019        .P      STR      r1,[r3,r0]
        0x000107dc:    f2c50c00    ....    MOVT     r12,#0x5000
        0x000107e0:    2300        .#      MOVS     r3,#0
        0x000107e2:    f84c3000    L..0    STR      r3,[r12,r0]
        0x000107e6:    6893        .h      LDR      r3,[r2,#8]
        0x000107e8:    f2442188    D..!    MOV      r1,#0x4288
        0x000107ec:    f2c50100    ....    MOVT     r1,#0x5000
        0x000107f0:    500b        .P      STR      r3,[r1,r0]
        0x000107f2:    68d1        .h      LDR      r1,[r2,#0xc]
        0x000107f4:    f244238c    D..#    MOV      r3,#0x428c
        0x000107f8:    f2c50300    ....    MOVT     r3,#0x5000
        0x000107fc:    5019        .P      STR      r1,[r3,r0]
        0x000107fe:    6911        .i      LDR      r1,[r2,#0x10]
        0x00010800:    f84c1000    L...    STR      r1,[r12,r0]
        0x00010804:    6951        Qi      LDR      r1,[r2,#0x14]
        0x00010806:    f2442218    D.."    MOV      r2,#0x4218
        0x0001080a:    f2c50200    ....    MOVT     r2,#0x5000
        0x0001080e:    5011        .P      STR      r1,[r2,r0]
        0x00010810:    4770        pG      BX       lr
        0x00010812:    0000        ..      MOVS     r0,r0
    read_complete
        0x00010814:    b580        ..      PUSH     {r7,lr}
        0x00010816:    b082        ..      SUB      sp,sp,#8
        0x00010818:    9001        ..      STR      r0,[sp,#4]
        0x0001081a:    9100        ..      STR      r1,[sp,#0]
        0x0001081c:    9800        ..      LDR      r0,[sp,#0]
        0x0001081e:    b140        @.      CBZ      r0,0x10832 ; read_complete + 30
        0x00010820:    e7ff        ..      B        0x10822 ; read_complete + 14
        0x00010822:    9900        ..      LDR      r1,[sp,#0]
        0x00010824:    f2415001    A..P    MOV      r0,#0x1501
        0x00010828:    f2c00001    ....    MOVT     r0,#1
        0x0001082c:    f7feffa0    ....    BL       am_util_stdio_printf ; 0xf770
        0x00010830:    e00c        ..      B        0x1084c ; read_complete + 56
        0x00010832:    f2415032    A.2P    MOV      r0,#0x1532
        0x00010836:    f2c00001    ....    MOVT     r0,#1
        0x0001083a:    f7feff99    ....    BL       am_util_stdio_printf ; 0xf770
        0x0001083e:    f6444172    D.rA    MOV      r1,#0x4c72
        0x00010842:    f2c10101    ....    MOVT     r1,#0x1001
        0x00010846:    2001        .       MOVS     r0,#1
        0x00010848:    7008        .p      STRB     r0,[r1,#0]
        0x0001084a:    e7ff        ..      B        0x1084c ; read_complete + 56
        0x0001084c:    b002        ..      ADD      sp,sp,#8
        0x0001084e:    bd80        ..      POP      {r7,pc}
    read_fram
        0x00010850:    b580        ..      PUSH     {r7,lr}
        0x00010852:    b084        ..      SUB      sp,sp,#0x10
        0x00010854:    f2410028    A.(.    MOV      r0,#0x1028
        0x00010858:    f2c10001    ....    MOVT     r0,#0x1001
        0x0001085c:    f8d0c02c    ..,.    LDR      r12,[r0,#0x2c]
        0x00010860:    f64430e0    D..0    MOV      r0,#0x4be0
        0x00010864:    f2c10001    ....    MOVT     r0,#0x1001
        0x00010868:    6800        .h      LDR      r0,[r0,#0]
        0x0001086a:    466b        kF      MOV      r3,sp
        0x0001086c:    2200        ."      MOVS     r2,#0
        0x0001086e:    605a        Z`      STR      r2,[r3,#4]
        0x00010870:    f6400115    @...    MOV      r1,#0x815
        0x00010874:    f2c00101    ....    MOVT     r1,#1
        0x00010878:    6019        .`      STR      r1,[r3,#0]
        0x0001087a:    f2417188    A..q    MOV      r1,#0x1788
        0x0001087e:    f2c10101    ....    MOVT     r1,#0x1001
        0x00010882:    2380        .#      MOVS     r3,#0x80
        0x00010884:    47e0        .G      BLX      r12
        0x00010886:    9003        ..      STR      r0,[sp,#0xc]
        0x00010888:    9803        ..      LDR      r0,[sp,#0xc]
        0x0001088a:    b938        8.      CBNZ     r0,0x1089c ; read_fram + 76
        0x0001088c:    e7ff        ..      B        0x1088e ; read_fram + 62
        0x0001088e:    f644416e    D.nA    MOV      r1,#0x4c6e
        0x00010892:    f2c10101    ....    MOVT     r1,#0x1001
        0x00010896:    2000        .       MOVS     r0,#0
        0x00010898:    7008        .p      STRB     r0,[r1,#0]
        0x0001089a:    e7ff        ..      B        0x1089c ; read_fram + 76
        0x0001089c:    b004        ..      ADD      sp,sp,#0x10
        0x0001089e:    bd80        ..      POP      {r7,pc}
    set_LPMMODE
        0x000108a0:    e92d41f0    -..A    PUSH     {r4-r8,lr}
        0x000108a4:    b082        ..      SUB      sp,sp,#8
        0x000108a6:    4680        .F      MOV      r8,r0
        0x000108a8:    2803        .(      CMP      r0,#3
        0x000108aa:    d81e        ..      BHI      0x108ea ; set_LPMMODE + 74
        0x000108ac:    f44f5040    O.@P    MOV      r0,#0x3000
        0x000108b0:    f2481400    H...    MOVW     r4,#0x8100
        0x000108b4:    ea003608    ...6    AND      r6,r0,r8,LSL #12
        0x000108b8:    2700        .'      MOVS     r7,#0
        0x000108ba:    f2c40401    ....    MOVT     r4,#0x4001
        0x000108be:    bf00        ..      NOP      
        0x000108c0:    193d        =.      ADDS     r5,r7,r4
        0x000108c2:    f7fdfa53    ..S.    BL       am_hal_interrupt_master_disable ; 0xdd6c
        0x000108c6:    9001        ..      STR      r0,[sp,#4]
        0x000108c8:    4628        (F      MOV      r0,r5
        0x000108ca:    f7fdf8e3    ....    BL       am_hal_flash_load_ui32 ; 0xda94
        0x000108ce:    f420507c     .|P    BIC      r0,r0,#0x3f00
        0x000108d2:    4330        0C      ORRS     r0,r0,r6
        0x000108d4:    f44061e0    @..a    ORR      r1,r0,#0x700
        0x000108d8:    4628        (F      MOV      r0,r5
        0x000108da:    f7fdf8df    ....    BL       am_hal_flash_store_ui32 ; 0xda9c
        0x000108de:    9801        ..      LDR      r0,[sp,#4]
        0x000108e0:    f7fdfa4c    ..L.    BL       am_hal_interrupt_master_set ; 0xdd7c
        0x000108e4:    3704        .7      ADDS     r7,#4
        0x000108e6:    2f10        ./      CMP      r7,#0x10
        0x000108e8:    d1ea        ..      BNE      0x108c0 ; set_LPMMODE + 32
        0x000108ea:    2000        .       MOVS     r0,#0
        0x000108ec:    f1b80f04    ....    CMP      r8,#4
        0x000108f0:    bf38        8.      IT       CC
        0x000108f2:    2001        .       MOVCC    r0,#1
        0x000108f4:    b002        ..      ADD      sp,sp,#8
        0x000108f6:    e8bd81f0    ....    POP      {r4-r8,pc}
        0x000108fa:    0000        ..      MOVS     r0,r0
    set_RDWAIT
        0x000108fc:    e92d41f0    -..A    PUSH     {r4-r8,lr}
        0x00010900:    b082        ..      SUB      sp,sp,#8
        0x00010902:    4604        .F      MOV      r4,r0
        0x00010904:    280f        .(      CMP      r0,#0xf
        0x00010906:    d81c        ..      BHI      0x10942 ; set_RDWAIT + 70
        0x00010908:    f2481800    H...    MOVW     r8,#0x8100
        0x0001090c:    2600        .&      MOVS     r6,#0
        0x0001090e:    f2c40801    ....    MOVT     r8,#0x4001
        0x00010912:    f640770f    @..w    MOV      r7,#0xf0f
        0x00010916:    bf00        ..      NOP      
        0x00010918:    eb060508    ....    ADD      r5,r6,r8
        0x0001091c:    f7fdfa26    ..&.    BL       am_hal_interrupt_master_disable ; 0xdd6c
        0x00010920:    9001        ..      STR      r0,[sp,#4]
        0x00010922:    4628        (F      MOV      r0,r5
        0x00010924:    f7fdf8b6    ....    BL       am_hal_flash_load_ui32 ; 0xda94
        0x00010928:    43b8        .C      BICS     r0,r0,r7
        0x0001092a:    4320         C      ORRS     r0,r0,r4
        0x0001092c:    f44061e0    @..a    ORR      r1,r0,#0x700
        0x00010930:    4628        (F      MOV      r0,r5
        0x00010932:    f7fdf8b3    ....    BL       am_hal_flash_store_ui32 ; 0xda9c
        0x00010936:    9801        ..      LDR      r0,[sp,#4]
        0x00010938:    f7fdfa20    .. .    BL       am_hal_interrupt_master_set ; 0xdd7c
        0x0001093c:    3604        .6      ADDS     r6,#4
        0x0001093e:    2e10        ..      CMP      r6,#0x10
        0x00010940:    d1ea        ..      BNE      0x10918 ; set_RDWAIT + 28
        0x00010942:    2000        .       MOVS     r0,#0
        0x00010944:    2c10        .,      CMP      r4,#0x10
        0x00010946:    bf38        8.      IT       CC
        0x00010948:    2001        .       MOVCC    r0,#1
        0x0001094a:    b002        ..      ADD      sp,sp,#8
        0x0001094c:    e8bd81f0    ....    POP      {r4-r8,pc}
    set_SEDELAY
        0x00010950:    e92d41f0    -..A    PUSH     {r4-r8,lr}
        0x00010954:    b082        ..      SUB      sp,sp,#8
        0x00010956:    4680        .F      MOV      r8,r0
        0x00010958:    2807        .(      CMP      r0,#7
        0x0001095a:    d81c        ..      BHI      0x10996 ; set_SEDELAY + 70
        0x0001095c:    2070        p       MOVS     r0,#0x70
        0x0001095e:    f2481400    H...    MOVW     r4,#0x8100
        0x00010962:    ea001608    ....    AND      r6,r0,r8,LSL #4
        0x00010966:    2700        .'      MOVS     r7,#0
        0x00010968:    f2c40401    ....    MOVT     r4,#0x4001
        0x0001096c:    193d        =.      ADDS     r5,r7,r4
        0x0001096e:    f7fdf9fd    ....    BL       am_hal_interrupt_master_disable ; 0xdd6c
        0x00010972:    9001        ..      STR      r0,[sp,#4]
        0x00010974:    4628        (F      MOV      r0,r5
        0x00010976:    f7fdf88d    ....    BL       am_hal_flash_load_ui32 ; 0xda94
        0x0001097a:    f4206077     .w`    BIC      r0,r0,#0xf70
        0x0001097e:    4330        0C      ORRS     r0,r0,r6
        0x00010980:    f50061e0    ...a    ADD      r1,r0,#0x700
        0x00010984:    4628        (F      MOV      r0,r5
        0x00010986:    f7fdf889    ....    BL       am_hal_flash_store_ui32 ; 0xda9c
        0x0001098a:    9801        ..      LDR      r0,[sp,#4]
        0x0001098c:    f7fdf9f6    ....    BL       am_hal_interrupt_master_set ; 0xdd7c
        0x00010990:    3704        .7      ADDS     r7,#4
        0x00010992:    2f10        ./      CMP      r7,#0x10
        0x00010994:    d1ea        ..      BNE      0x1096c ; set_SEDELAY + 28
        0x00010996:    2000        .       MOVS     r0,#0
        0x00010998:    f1b80f08    ....    CMP      r8,#8
        0x0001099c:    bf38        8.      IT       CC
        0x0001099e:    2001        .       MOVCC    r0,#1
        0x000109a0:    b002        ..      ADD      sp,sp,#8
        0x000109a2:    e8bd81f0    ....    POP      {r4-r8,pc}
        0x000109a6:    0000        ..      MOVS     r0,r0
    simple_strlen
        0x000109a8:    b083        ..      SUB      sp,sp,#0xc
        0x000109aa:    9001        ..      STR      r0,[sp,#4]
        0x000109ac:    2000        .       MOVS     r0,#0
        0x000109ae:    9000        ..      STR      r0,[sp,#0]
        0x000109b0:    9801        ..      LDR      r0,[sp,#4]
        0x000109b2:    b918        ..      CBNZ     r0,0x109bc ; simple_strlen + 20
        0x000109b4:    e7ff        ..      B        0x109b6 ; simple_strlen + 14
        0x000109b6:    9800        ..      LDR      r0,[sp,#0]
        0x000109b8:    9002        ..      STR      r0,[sp,#8]
        0x000109ba:    e00d        ..      B        0x109d8 ; simple_strlen + 48
        0x000109bc:    e7ff        ..      B        0x109be ; simple_strlen + 22
        0x000109be:    9801        ..      LDR      r0,[sp,#4]
        0x000109c0:    1c41        A.      ADDS     r1,r0,#1
        0x000109c2:    9101        ..      STR      r1,[sp,#4]
        0x000109c4:    7800        .x      LDRB     r0,[r0,#0]
        0x000109c6:    b120         .      CBZ      r0,0x109d2 ; simple_strlen + 42
        0x000109c8:    e7ff        ..      B        0x109ca ; simple_strlen + 34
        0x000109ca:    9800        ..      LDR      r0,[sp,#0]
        0x000109cc:    3001        .0      ADDS     r0,#1
        0x000109ce:    9000        ..      STR      r0,[sp,#0]
        0x000109d0:    e7f5        ..      B        0x109be ; simple_strlen + 22
        0x000109d2:    9800        ..      LDR      r0,[sp,#0]
        0x000109d4:    9002        ..      STR      r0,[sp,#8]
        0x000109d6:    e7ff        ..      B        0x109d8 ; simple_strlen + 48
        0x000109d8:    9802        ..      LDR      r0,[sp,#8]
        0x000109da:    b003        ..      ADD      sp,sp,#0xc
        0x000109dc:    4770        pG      BX       lr
        0x000109de:    0000        ..      MOVS     r0,r0
    timerA0_init
        0x000109e0:    b580        ..      PUSH     {r7,lr}
        0x000109e2:    b084        ..      SUB      sp,sp,#0x10
        0x000109e4:    2002        .       MOVS     r0,#2
        0x000109e6:    2100        .!      MOVS     r1,#0
        0x000109e8:    9101        ..      STR      r1,[sp,#4]
        0x000109ea:    f7fcfba1    ....    BL       am_hal_clkgen_control ; 0xd130
        0x000109ee:    9801        ..      LDR      r0,[sp,#4]
        0x000109f0:    f64f71ff    O..q    MOV      r1,#0xffff
        0x000109f4:    9102        ..      STR      r1,[sp,#8]
        0x000109f6:    f7fcfe01    ....    BL       am_hal_ctimer_clear ; 0xd5fc
        0x000109fa:    9801        ..      LDR      r0,[sp,#4]
        0x000109fc:    f2410170    A.p.    MOV      r1,#0x1070
        0x00010a00:    f2c10101    ....    MOVT     r1,#0x1001
        0x00010a04:    f7fcfe10    ....    BL       am_hal_ctimer_config ; 0xd628
        0x00010a08:    9801        ..      LDR      r0,[sp,#4]
        0x00010a0a:    9902        ..      LDR      r1,[sp,#8]
        0x00010a0c:    2220         "      MOVS     r2,#0x20
        0x00010a0e:    9203        ..      STR      r2,[sp,#0xc]
        0x00010a10:    9a03        ..      LDR      r2,[sp,#0xc]
        0x00010a12:    0853        S.      LSRS     r3,r2,#1
        0x00010a14:    f7fcff87    ....    BL       am_hal_ctimer_period_set ; 0xd926
        0x00010a18:    2001        .       MOVS     r0,#1
        0x00010a1a:    f7fcfe40    ..@.    BL       am_hal_ctimer_int_clear ; 0xd69e
        0x00010a1e:    b004        ..      ADD      sp,sp,#0x10
        0x00010a20:    bd80        ..      POP      {r7,pc}
        0x00010a22:    0000        ..      MOVS     r0,r0
    uint64_to_hexstr
        0x00010a24:    b08c        ..      SUB      sp,sp,#0x30
        0x00010a26:    910b        ..      STR      r1,[sp,#0x2c]
        0x00010a28:    900a        ..      STR      r0,[sp,#0x28]
        0x00010a2a:    9209        ..      STR      r2,[sp,#0x24]
        0x00010a2c:    f88d3023    ..#0    STRB     r3,[sp,#0x23]
        0x00010a30:    2000        .       MOVS     r0,#0
        0x00010a32:    9006        ..      STR      r0,[sp,#0x18]
        0x00010a34:    980a        ..      LDR      r0,[sp,#0x28]
        0x00010a36:    990b        ..      LDR      r1,[sp,#0x2c]
        0x00010a38:    4308        .C      ORRS     r0,r0,r1
        0x00010a3a:    b940        @.      CBNZ     r0,0x10a4e ; uint64_to_hexstr + 42
        0x00010a3c:    e7ff        ..      B        0x10a3e ; uint64_to_hexstr + 26
        0x00010a3e:    9a06        ..      LDR      r2,[sp,#0x18]
        0x00010a40:    1c50        P.      ADDS     r0,r2,#1
        0x00010a42:    9006        ..      STR      r0,[sp,#0x18]
        0x00010a44:    f10d0103    ....    ADD      r1,sp,#3
        0x00010a48:    2030        0       MOVS     r0,#0x30
        0x00010a4a:    5488        .T      STRB     r0,[r1,r2]
        0x00010a4c:    e7ff        ..      B        0x10a4e ; uint64_to_hexstr + 42
        0x00010a4e:    e7ff        ..      B        0x10a50 ; uint64_to_hexstr + 44
        0x00010a50:    980a        ..      LDR      r0,[sp,#0x28]
        0x00010a52:    990b        ..      LDR      r1,[sp,#0x2c]
        0x00010a54:    4308        .C      ORRS     r0,r0,r1
        0x00010a56:    b350        P.      CBZ      r0,0x10aae ; uint64_to_hexstr + 138
        0x00010a58:    e7ff        ..      B        0x10a5a ; uint64_to_hexstr + 54
        0x00010a5a:    f89d0028    ..(.    LDRB     r0,[sp,#0x28]
        0x00010a5e:    f000000f    ....    AND      r0,r0,#0xf
        0x00010a62:    f88d0017    ....    STRB     r0,[sp,#0x17]
        0x00010a66:    f89d0017    ....    LDRB     r0,[sp,#0x17]
        0x00010a6a:    280a        .(      CMP      r0,#0xa
        0x00010a6c:    db0d        ..      BLT      0x10a8a ; uint64_to_hexstr + 102
        0x00010a6e:    e7ff        ..      B        0x10a70 ; uint64_to_hexstr + 76
        0x00010a70:    f89d0023    ..#.    LDRB     r0,[sp,#0x23]
        0x00010a74:    07c0        ..      LSLS     r0,r0,#31
        0x00010a76:    2107        .!      MOVS     r1,#7
        0x00010a78:    2800        .(      CMP      r0,#0
        0x00010a7a:    bf18        ..      IT       NE
        0x00010a7c:    2127        '!      MOVNE    r1,#0x27
        0x00010a7e:    f89d0017    ....    LDRB     r0,[sp,#0x17]
        0x00010a82:    4408        .D      ADD      r0,r0,r1
        0x00010a84:    f88d0017    ....    STRB     r0,[sp,#0x17]
        0x00010a88:    e7ff        ..      B        0x10a8a ; uint64_to_hexstr + 102
        0x00010a8a:    f89d0017    ....    LDRB     r0,[sp,#0x17]
        0x00010a8e:    3030        00      ADDS     r0,r0,#0x30
        0x00010a90:    9a06        ..      LDR      r2,[sp,#0x18]
        0x00010a92:    1c51        Q.      ADDS     r1,r2,#1
        0x00010a94:    9106        ..      STR      r1,[sp,#0x18]
        0x00010a96:    f10d0103    ....    ADD      r1,sp,#3
        0x00010a9a:    5488        .T      STRB     r0,[r1,r2]
        0x00010a9c:    980a        ..      LDR      r0,[sp,#0x28]
        0x00010a9e:    990b        ..      LDR      r1,[sp,#0x2c]
        0x00010aa0:    0900        ..      LSRS     r0,r0,#4
        0x00010aa2:    ea407001    @..p    ORR      r0,r0,r1,LSL #28
        0x00010aa6:    0909        ..      LSRS     r1,r1,#4
        0x00010aa8:    910b        ..      STR      r1,[sp,#0x2c]
        0x00010aaa:    900a        ..      STR      r0,[sp,#0x28]
        0x00010aac:    e7d0        ..      B        0x10a50 ; uint64_to_hexstr + 44
        0x00010aae:    9806        ..      LDR      r0,[sp,#0x18]
        0x00010ab0:    9007        ..      STR      r0,[sp,#0x1c]
        0x00010ab2:    9809        ..      LDR      r0,[sp,#0x24]
        0x00010ab4:    b198        ..      CBZ      r0,0x10ade ; uint64_to_hexstr + 186
        0x00010ab6:    e7ff        ..      B        0x10ab8 ; uint64_to_hexstr + 148
        0x00010ab8:    e7ff        ..      B        0x10aba ; uint64_to_hexstr + 150
        0x00010aba:    9806        ..      LDR      r0,[sp,#0x18]
        0x00010abc:    1e41        A.      SUBS     r1,r0,#1
        0x00010abe:    9106        ..      STR      r1,[sp,#0x18]
        0x00010ac0:    b148        H.      CBZ      r0,0x10ad6 ; uint64_to_hexstr + 178
        0x00010ac2:    e7ff        ..      B        0x10ac4 ; uint64_to_hexstr + 160
        0x00010ac4:    9906        ..      LDR      r1,[sp,#0x18]
        0x00010ac6:    f10d0003    ....    ADD      r0,sp,#3
        0x00010aca:    5c40        @\      LDRB     r0,[r0,r1]
        0x00010acc:    9909        ..      LDR      r1,[sp,#0x24]
        0x00010ace:    1c4a        J.      ADDS     r2,r1,#1
        0x00010ad0:    9209        ..      STR      r2,[sp,#0x24]
        0x00010ad2:    7008        .p      STRB     r0,[r1,#0]
        0x00010ad4:    e7f1        ..      B        0x10aba ; uint64_to_hexstr + 150
        0x00010ad6:    9909        ..      LDR      r1,[sp,#0x24]
        0x00010ad8:    2000        .       MOVS     r0,#0
        0x00010ada:    7008        .p      STRB     r0,[r1,#0]
        0x00010adc:    e7ff        ..      B        0x10ade ; uint64_to_hexstr + 186
        0x00010ade:    9807        ..      LDR      r0,[sp,#0x1c]
        0x00010ae0:    b00c        ..      ADD      sp,sp,#0x30
        0x00010ae2:    4770        pG      BX       lr
    uint64_to_str
        0x00010ae4:    b580        ..      PUSH     {r7,lr}
        0x00010ae6:    b090        ..      SUB      sp,sp,#0x40
        0x00010ae8:    910f        ..      STR      r1,[sp,#0x3c]
        0x00010aea:    900e        ..      STR      r0,[sp,#0x38]
        0x00010aec:    920d        ..      STR      r2,[sp,#0x34]
        0x00010aee:    2000        .       MOVS     r0,#0
        0x00010af0:    9005        ..      STR      r0,[sp,#0x14]
        0x00010af2:    9004        ..      STR      r0,[sp,#0x10]
        0x00010af4:    e7ff        ..      B        0x10af6 ; uint64_to_str + 18
        0x00010af6:    980e        ..      LDR      r0,[sp,#0x38]
        0x00010af8:    990f        ..      LDR      r1,[sp,#0x3c]
        0x00010afa:    f7fff9f7    ....    BL       divu64_10 ; 0xfeec
        0x00010afe:    9101        ..      STR      r1,[sp,#4]
        0x00010b00:    9000        ..      STR      r0,[sp,#0]
        0x00010b02:    980e        ..      LDR      r0,[sp,#0x38]
        0x00010b04:    9900        ..      LDR      r1,[sp,#0]
        0x00010b06:    eb010181    ....    ADD      r1,r1,r1,LSL #2
        0x00010b0a:    eba00041    ..A.    SUB      r0,r0,r1,LSL #1
        0x00010b0e:    9003        ..      STR      r0,[sp,#0xc]
        0x00010b10:    9803        ..      LDR      r0,[sp,#0xc]
        0x00010b12:    3030        00      ADDS     r0,r0,#0x30
        0x00010b14:    9a05        ..      LDR      r2,[sp,#0x14]
        0x00010b16:    1c51        Q.      ADDS     r1,r2,#1
        0x00010b18:    9105        ..      STR      r1,[sp,#0x14]
        0x00010b1a:    f10d011b    ....    ADD      r1,sp,#0x1b
        0x00010b1e:    5488        .T      STRB     r0,[r1,r2]
        0x00010b20:    9800        ..      LDR      r0,[sp,#0]
        0x00010b22:    9901        ..      LDR      r1,[sp,#4]
        0x00010b24:    910f        ..      STR      r1,[sp,#0x3c]
        0x00010b26:    900e        ..      STR      r0,[sp,#0x38]
        0x00010b28:    e7ff        ..      B        0x10b2a ; uint64_to_str + 70
        0x00010b2a:    980e        ..      LDR      r0,[sp,#0x38]
        0x00010b2c:    990f        ..      LDR      r1,[sp,#0x3c]
        0x00010b2e:    4308        .C      ORRS     r0,r0,r1
        0x00010b30:    2800        .(      CMP      r0,#0
        0x00010b32:    d1e0        ..      BNE      0x10af6 ; uint64_to_str + 18
        0x00010b34:    e7ff        ..      B        0x10b36 ; uint64_to_str + 82
        0x00010b36:    9805        ..      LDR      r0,[sp,#0x14]
        0x00010b38:    9004        ..      STR      r0,[sp,#0x10]
        0x00010b3a:    980d        ..      LDR      r0,[sp,#0x34]
        0x00010b3c:    b198        ..      CBZ      r0,0x10b66 ; uint64_to_str + 130
        0x00010b3e:    e7ff        ..      B        0x10b40 ; uint64_to_str + 92
        0x00010b40:    e7ff        ..      B        0x10b42 ; uint64_to_str + 94
        0x00010b42:    9805        ..      LDR      r0,[sp,#0x14]
        0x00010b44:    1e41        A.      SUBS     r1,r0,#1
        0x00010b46:    9105        ..      STR      r1,[sp,#0x14]
        0x00010b48:    b148        H.      CBZ      r0,0x10b5e ; uint64_to_str + 122
        0x00010b4a:    e7ff        ..      B        0x10b4c ; uint64_to_str + 104
        0x00010b4c:    9905        ..      LDR      r1,[sp,#0x14]
        0x00010b4e:    f10d001b    ....    ADD      r0,sp,#0x1b
        0x00010b52:    5c40        @\      LDRB     r0,[r0,r1]
        0x00010b54:    990d        ..      LDR      r1,[sp,#0x34]
        0x00010b56:    1c4a        J.      ADDS     r2,r1,#1
        0x00010b58:    920d        ..      STR      r2,[sp,#0x34]
        0x00010b5a:    7008        .p      STRB     r0,[r1,#0]
        0x00010b5c:    e7f1        ..      B        0x10b42 ; uint64_to_str + 94
        0x00010b5e:    990d        ..      LDR      r1,[sp,#0x34]
        0x00010b60:    2000        .       MOVS     r0,#0
        0x00010b62:    7008        .p      STRB     r0,[r1,#0]
        0x00010b64:    e7ff        ..      B        0x10b66 ; uint64_to_str + 130
        0x00010b66:    9804        ..      LDR      r0,[sp,#0x10]
        0x00010b68:    b010        ..      ADD      sp,sp,#0x40
        0x00010b6a:    bd80        ..      POP      {r7,pc}
    update_indices
        0x00010b6c:    b510        ..      PUSH     {r4,lr}
        0x00010b6e:    b082        ..      SUB      sp,sp,#8
        0x00010b70:    4604        .F      MOV      r4,r0
        0x00010b72:    f7fdf8fb    ....    BL       am_hal_interrupt_master_disable ; 0xdd6c
        0x00010b76:    9001        ..      STR      r0,[sp,#4]
        0x00010b78:    e9d41008    ....    LDRD     r1,r0,[r4,#0x20]
        0x00010b7c:    e9d00201    ....    LDRD     r0,r2,[r0,#4]
        0x00010b80:    460b        .F      MOV      r3,r1
        0x00010b82:    6812        .h      LDR      r2,[r2,#0]
        0x00010b84:    f3620307    b...    BFI      r3,r2,#0,#8
        0x00010b88:    4299        .B      CMP      r1,r3
        0x00010b8a:    bfb8        ..      IT       LT
        0x00010b8c:    f5a37380    ...s    SUBLT    r3,r3,#0x100
        0x00010b90:    61e3        .a      STR      r3,[r4,#0x1c]
        0x00010b92:    6800        .h      LDR      r0,[r0,#0]
        0x00010b94:    60e0        .`      STR      r0,[r4,#0xc]
        0x00010b96:    9801        ..      LDR      r0,[sp,#4]
        0x00010b98:    b002        ..      ADD      sp,sp,#8
        0x00010b9a:    e8bd4010    ...@    POP      {r4,lr}
        0x00010b9e:    f7fdb8ed    ....    B        am_hal_interrupt_master_set ; 0xdd7c
    validate_transaction
        0x00010ba2:    b580        ..      PUSH     {r7,lr}
        0x00010ba4:    684b        Kh      LDR      r3,[r1,#4]
        0x00010ba6:    2b03        .+      CMP      r3,#3
        0x00010ba8:    d805        ..      BHI      0x10bb6 ; validate_transaction + 20
        0x00010baa:    f8d1c008    ....    LDR      r12,[r1,#8]
        0x00010bae:    00db        ..      LSLS     r3,r3,#3
        0x00010bb0:    fa3cf303    <...    LSRS     r3,r12,r3
        0x00010bb4:    d001        ..      BEQ      0x10bba ; validate_transaction + 24
        0x00010bb6:    2006        .       MOVS     r0,#6
        0x00010bb8:    bd80        ..      POP      {r7,pc}
        0x00010bba:    f891e010    ....    LDRB     lr,[r1,#0x10]
        0x00010bbe:    f8d1c00c    ....    LDR      r12,[r1,#0xc]
        0x00010bc2:    f1be0f00    ....    CMP      lr,#0
        0x00010bc6:    bf18        ..      IT       NE
        0x00010bc8:    f1bc0f00    ....    CMPNE    r12,#0
        0x00010bcc:    d10d        ..      BNE      0x10bea ; validate_transaction + 72
        0x00010bce:    f1be0f01    ....    CMP      lr,#1
        0x00010bd2:    bf18        ..      IT       NE
        0x00010bd4:    f1bc0f00    ....    CMPNE    r12,#0
        0x00010bd8:    d10b        ..      BNE      0x10bf2 ; validate_transaction + 80
        0x00010bda:    7a00        .z      LDRB     r0,[r0,#8]
        0x00010bdc:    b168        h.      CBZ      r0,0x10bfa ; validate_transaction + 88
        0x00010bde:    2801        .(      CMP      r0,#1
        0x00010be0:    d115        ..      BNE      0x10c0e ; validate_transaction + 108
        0x00010be2:    f5bc7f00    ....    CMP      r12,#0x200
        0x00010be6:    d8e6        ..      BHI      0x10bb6 ; validate_transaction + 20
        0x00010be8:    e011        ..      B        0x10c0e ; validate_transaction + 108
        0x00010bea:    698b        .i      LDR      r3,[r1,#0x18]
        0x00010bec:    2b00        .+      CMP      r3,#0
        0x00010bee:    d1ee        ..      BNE      0x10bce ; validate_transaction + 44
        0x00010bf0:    e7e1        ..      B        0x10bb6 ; validate_transaction + 20
        0x00010bf2:    694b        Ki      LDR      r3,[r1,#0x14]
        0x00010bf4:    2b00        .+      CMP      r3,#0
        0x00010bf6:    d1f0        ..      BNE      0x10bda ; validate_transaction + 56
        0x00010bf8:    e7dd        ..      B        0x10bb6 ; validate_transaction + 20
        0x00010bfa:    2000        .       MOVS     r0,#0
        0x00010bfc:    ebb03f1c    ...?    CMP      r0,r12,LSR #12
        0x00010c00:    f04f0006    O...    MOV      r0,#6
        0x00010c04:    d105        ..      BNE      0x10c12 ; validate_transaction + 112
        0x00010c06:    680b        .h      LDR      r3,[r1,#0]
        0x00010c08:    2b03        .+      CMP      r3,#3
        0x00010c0a:    bf88        ..      IT       HI
        0x00010c0c:    bd80        ..      POPHI    {r7,pc}
        0x00010c0e:    b10a        ..      CBZ      r2,0x10c14 ; validate_transaction + 114
        0x00010c10:    2000        .       MOVS     r0,#0
        0x00010c12:    bd80        ..      POP      {r7,pc}
        0x00010c14:    f8910020    .. .    LDRB     r0,[r1,#0x20]
        0x00010c18:    f0100fe0    ....    TST      r0,#0xe0
        0x00010c1c:    d1cb        ..      BNE      0x10bb6 ; validate_transaction + 20
        0x00010c1e:    6a48        Hj      LDR      r0,[r1,#0x24]
        0x00010c20:    f24e01e0    N...    MOV      r1,#0xe0e0
        0x00010c24:    f2c001e0    ....    MOVT     r1,#0xe0
        0x00010c28:    4208        .B      TST      r0,r1
        0x00010c2a:    d1c4        ..      BNE      0x10bb6 ; validate_transaction + 20
        0x00010c2c:    e7f0        ..      B        0x10c10 ; validate_transaction + 110
        0x00010c2e:    0000        ..      MOVS     r0,r0
    verify_fram_data
        0x00010c30:    b580        ..      PUSH     {r7,lr}
        0x00010c32:    b082        ..      SUB      sp,sp,#8
        0x00010c34:    f6444172    D.rA    MOV      r1,#0x4c72
        0x00010c38:    f2c10101    ....    MOVT     r1,#0x1001
        0x00010c3c:    2000        .       MOVS     r0,#0
        0x00010c3e:    7008        .p      STRB     r0,[r1,#0]
        0x00010c40:    9000        ..      STR      r0,[sp,#0]
        0x00010c42:    e7ff        ..      B        0x10c44 ; verify_fram_data + 20
        0x00010c44:    9800        ..      LDR      r0,[sp,#0]
        0x00010c46:    287f        .(      CMP      r0,#0x7f
        0x00010c48:    d828        (.      BHI      0x10c9c ; verify_fram_data + 108
        0x00010c4a:    e7ff        ..      B        0x10c4c ; verify_fram_data + 28
        0x00010c4c:    9a00        ..      LDR      r2,[sp,#0]
        0x00010c4e:    f2417008    A..p    MOV      r0,#0x1708
        0x00010c52:    f2c10001    ....    MOVT     r0,#0x1001
        0x00010c56:    5c80        .\      LDRB     r0,[r0,r2]
        0x00010c58:    f2417188    A..q    MOV      r1,#0x1788
        0x00010c5c:    f2c10101    ....    MOVT     r1,#0x1001
        0x00010c60:    5c89        .\      LDRB     r1,[r1,r2]
        0x00010c62:    4288        .B      CMP      r0,r1
        0x00010c64:    d015        ..      BEQ      0x10c92 ; verify_fram_data + 98
        0x00010c66:    e7ff        ..      B        0x10c68 ; verify_fram_data + 56
        0x00010c68:    9900        ..      LDR      r1,[sp,#0]
        0x00010c6a:    f2417008    A..p    MOV      r0,#0x1708
        0x00010c6e:    f2c10001    ....    MOVT     r0,#0x1001
        0x00010c72:    5c42        B\      LDRB     r2,[r0,r1]
        0x00010c74:    f2417088    A..p    MOV      r0,#0x1788
        0x00010c78:    f2c10001    ....    MOVT     r0,#0x1001
        0x00010c7c:    5c43        C\      LDRB     r3,[r0,r1]
        0x00010c7e:    f24140b4    A..@    MOV      r0,#0x14b4
        0x00010c82:    f2c00001    ....    MOVT     r0,#1
        0x00010c86:    f7fefd73    ..s.    BL       am_util_stdio_printf ; 0xf770
        0x00010c8a:    f04f30ff    O..0    MOV      r0,#0xffffffff
        0x00010c8e:    9001        ..      STR      r0,[sp,#4]
        0x00010c90:    e007        ..      B        0x10ca2 ; verify_fram_data + 114
        0x00010c92:    e7ff        ..      B        0x10c94 ; verify_fram_data + 100
        0x00010c94:    9800        ..      LDR      r0,[sp,#0]
        0x00010c96:    3001        .0      ADDS     r0,#1
        0x00010c98:    9000        ..      STR      r0,[sp,#0]
        0x00010c9a:    e7d3        ..      B        0x10c44 ; verify_fram_data + 20
        0x00010c9c:    2000        .       MOVS     r0,#0
        0x00010c9e:    9001        ..      STR      r0,[sp,#4]
        0x00010ca0:    e7ff        ..      B        0x10ca2 ; verify_fram_data + 114
        0x00010ca2:    9801        ..      LDR      r0,[sp,#4]
        0x00010ca4:    b002        ..      ADD      sp,sp,#8
        0x00010ca6:    bd80        ..      POP      {r7,pc}
    write_complete
        0x00010ca8:    b580        ..      PUSH     {r7,lr}
        0x00010caa:    b082        ..      SUB      sp,sp,#8
        0x00010cac:    9001        ..      STR      r0,[sp,#4]
        0x00010cae:    9100        ..      STR      r1,[sp,#0]
        0x00010cb0:    9800        ..      LDR      r0,[sp,#0]
        0x00010cb2:    b140        @.      CBZ      r0,0x10cc6 ; write_complete + 30
        0x00010cb4:    e7ff        ..      B        0x10cb6 ; write_complete + 14
        0x00010cb6:    9900        ..      LDR      r1,[sp,#0]
        0x00010cb8:    f2415019    A..P    MOV      r0,#0x1519
        0x00010cbc:    f2c00001    ....    MOVT     r0,#1
        0x00010cc0:    f7fefd56    ..V.    BL       am_util_stdio_printf ; 0xf770
        0x00010cc4:    e006        ..      B        0x10cd4 ; write_complete + 44
        0x00010cc6:    f6444173    D.sA    MOV      r1,#0x4c73
        0x00010cca:    f2c10101    ....    MOVT     r1,#0x1001
        0x00010cce:    2001        .       MOVS     r0,#1
        0x00010cd0:    7008        .p      STRB     r0,[r1,#0]
        0x00010cd2:    e7ff        ..      B        0x10cd4 ; write_complete + 44
        0x00010cd4:    b002        ..      ADD      sp,sp,#8
        0x00010cd6:    bd80        ..      POP      {r7,pc}
    write_fram
        0x00010cd8:    b580        ..      PUSH     {r7,lr}
        0x00010cda:    b084        ..      SUB      sp,sp,#0x10
        0x00010cdc:    f2410028    A.(.    MOV      r0,#0x1028
        0x00010ce0:    f2c10001    ....    MOVT     r0,#0x1001
        0x00010ce4:    f8d0c024    ..$.    LDR      r12,[r0,#0x24]
        0x00010ce8:    f64430e0    D..0    MOV      r0,#0x4be0
        0x00010cec:    f2c10001    ....    MOVT     r0,#0x1001
        0x00010cf0:    6800        .h      LDR      r0,[r0,#0]
        0x00010cf2:    466b        kF      MOV      r3,sp
        0x00010cf4:    2200        ."      MOVS     r2,#0
        0x00010cf6:    605a        Z`      STR      r2,[r3,#4]
        0x00010cf8:    f64041a9    @..A    MOV      r1,#0xca9
        0x00010cfc:    f2c00101    ....    MOVT     r1,#1
        0x00010d00:    6019        .`      STR      r1,[r3,#0]
        0x00010d02:    f2417108    A..q    MOV      r1,#0x1708
        0x00010d06:    f2c10101    ....    MOVT     r1,#0x1001
        0x00010d0a:    2380        .#      MOVS     r3,#0x80
        0x00010d0c:    47e0        .G      BLX      r12
        0x00010d0e:    9003        ..      STR      r0,[sp,#0xc]
        0x00010d10:    9803        ..      LDR      r0,[sp,#0xc]
        0x00010d12:    b938        8.      CBNZ     r0,0x10d24 ; write_fram + 76
        0x00010d14:    e7ff        ..      B        0x10d16 ; write_fram + 62
        0x00010d16:    f2410158    A.X.    MOV      r1,#0x1058
        0x00010d1a:    f2c10101    ....    MOVT     r1,#0x1001
        0x00010d1e:    2000        .       MOVS     r0,#0
        0x00010d20:    7008        .p      STRB     r0,[r1,#0]
        0x00010d22:    e7ff        ..      B        0x10d24 ; write_fram + 76
        0x00010d24:    b004        ..      ADD      sp,sp,#0x10
        0x00010d26:    bd80        ..      POP      {r7,pc}
    $t
    x$fpl$d2f
    $v0
    __aeabi_d2f
    _d2f
        0x00010d28:    f0214200    !..B    BIC      r2,r1,#0x80000000
        0x00010d2c:    f0014300    ...C    AND      r3,r1,#0x80000000
        0x00010d30:    f1a25260    ..`R    SUB      r2,r2,#0x38000000
        0x00010d34:    f5b21f80    ....    CMP      r2,#0x100000
        0x00010d38:    bf28        (.      IT       CS
        0x00010d3a:    f1d26c7f    ...l    RSBSCS   r12,r2,#0xff00000
        0x00010d3e:    d90b        ..      BLS      0x10d58 ; __aeabi_d2f + 48
        0x00010d40:    ea5f1c00    _...    LSLS     r12,r0,#4
        0x00010d44:    ea4302c2    C...    ORR      r2,r3,r2,LSL #3
        0x00010d48:    eb427050    B.Pp    ADC      r0,r2,r0,LSR #29
        0x00010d4c:    bf18        ..      IT       NE
        0x00010d4e:    4770        pG      BXNE     lr
        0x00010d50:    bf28        (.      IT       CS
        0x00010d52:    f0200001     ...    BICCS    r0,r0,#1
        0x00010d56:    4770        pG      BX       lr
        0x00010d58:    f5b21f80    ....    CMP      r2,#0x100000
        0x00010d5c:    bfbc        ..      ITT      LT
        0x00010d5e:    4618        .F      MOVLT    r0,r3
        0x00010d60:    4770        pG      BXLT     lr
        0x00010d62:    ea4f0c41    O.A.    LSL      r12,r1,#1
        0x00010d66:    f51c1f00    ....    CMN      r12,#0x200000
        0x00010d6a:    d202        ..      BCS      0x10d72 ; __aeabi_d2f + 74
        0x00010d6c:    4608        .F      MOV      r0,r1
        0x00010d6e:    f000b867    ..g.    B.W      __fpl_fretinf ; 0x10e40
        0x00010d72:    b570        p.      PUSH     {r4-r6,lr}
        0x00010d74:    f000f809    ....    BL       __fpl_dnaninf ; 0x10d8a
    $d
        0x00010d78:    89000000    ....    DCD    2298478592
    $t
        0x00010d7c:    f7ffbff6    ....    B.W      0x10d6c ; __aeabi_d2f + 68
        0x00010d80:    f04f4000    O..@    MOV      r0,#0x80000000
        0x00010d84:    f5a00080    ....    SUB      r0,r0,#0x400000
        0x00010d88:    4770        pG      BX       lr
    x$fpl$dnaninf
    $v0
    __fpl_dnaninf
        0x00010d8a:    f10e0e02    ....    ADD      lr,lr,#2
        0x00010d8e:    f02e0e03    ....    BIC      lr,lr,#3
        0x00010d92:    f85e6b04    ^..k    LDR      r6,[lr],#4
        0x00010d96:    4236        6B      TST      r6,r6
        0x00010d98:    d405        ..      BMI      0x10da6 ; __fpl_dnaninf + 28
        0x00010d9a:    2a01        .*      CMP      r2,#1
        0x00010d9c:    eb430503    C...    ADC      r5,r3,r3
        0x00010da0:    f5151f00    ....    CMN      r5,#0x200000
        0x00010da4:    d812        ..      BHI      0x10dcc ; __fpl_dnaninf + 66
        0x00010da6:    2801        .(      CMP      r0,#1
        0x00010da8:    eb410c01    A...    ADC      r12,r1,r1
        0x00010dac:    f51c1f00    ....    CMN      r12,#0x200000
        0x00010db0:    d80c        ..      BHI      0x10dcc ; __fpl_dnaninf + 66
        0x00010db2:    d10e        ..      BNE      0x10dd2 ; __fpl_dnaninf + 72
        0x00010db4:    ea4f7cd1    O..|    LSR      r12,r1,#31
        0x00010db8:    eb0c0c4c    ..L.    ADD      r12,r12,r12,LSL #1
        0x00010dbc:    f10c0c02    ....    ADD      r12,r12,#2
        0x00010dc0:    f5151f00    ....    CMN      r5,#0x200000
        0x00010dc4:    bf08        ..      IT       EQ
        0x00010dc6:    eb4c7cd3    L..|    ADCEQ    r12,r12,r3,LSR #31
        0x00010dca:    e004        ..      B        0x10dd6 ; __fpl_dnaninf + 76
        0x00010dcc:    f04f0c08    O...    MOV      r12,#8
        0x00010dd0:    e001        ..      B        0x10dd6 ; __fpl_dnaninf + 76
        0x00010dd2:    ea4f7cd3    O..|    LSR      r12,r3,#31
        0x00010dd6:    eb0c054c    ..L.    ADD      r5,r12,r12,LSL #1
        0x00010dda:    fa26f605    &...    LSR      r6,r6,r5
        0x00010dde:    f0060607    ....    AND      r6,r6,#7
        0x00010de2:    f1b60c04    ....    SUBS     r12,r6,#4
        0x00010de6:    d206        ..      BCS      0x10df6 ; __fpl_dnaninf + 108
        0x00010de8:    eb0e0c86    ....    ADD      r12,lr,r6,LSL #2
        0x00010dec:    e8bd4070    ..p@    POP      {r4-r6,lr}
        0x00010df0:    f04c0c01    L...    ORR      r12,r12,#1
        0x00010df4:    4760        `G      BX       r12
        0x00010df6:    e8dff00c    ....    TBB      [pc,r12]
    $d
        0x00010dfa:    0b09        ..      DCW    2825
        0x00010dfc:    0202        ..      DCW    514
    $t
        0x00010dfe:    f04f4100    O..A    MOV      r1,#0x80000000
        0x00010e02:    f5a12100    ...!    SUB      r1,r1,#0x80000
        0x00010e06:    f04f0000    O...    MOV      r0,#0
        0x00010e0a:    bd70        p.      POP      {r4-r6,pc}
        0x00010e0c:    4619        .F      MOV      r1,r3
        0x00010e0e:    4610        .F      MOV      r0,r2
        0x00010e10:    2801        .(      CMP      r0,#1
        0x00010e12:    eb510401    Q...    ADCS     r4,r1,r1
        0x00010e16:    bf18        ..      IT       NE
        0x00010e18:    f5d41400    ....    RSBSNE   r4,r4,#0x200000
        0x00010e1c:    bf84        ..      ITT      HI
        0x00010e1e:    2000        .       MOVHI    r0,#0
        0x00010e20:    f0014100    ...A    ANDHI    r1,r1,#0x80000000
        0x00010e24:    bd70        p.      POP      {r4-r6,pc}
    x$fpl$fpinit
    $v0
    _fp_init
        0x00010e26:    eef10a10    ....    VMRS     r0,FPSCR
        0x00010e2a:    f64f71ff    O..q    MOV      r1,#0xffff
        0x00010e2e:    f2c031c0    ...1    MOVT     r1,#0x3c0
        0x00010e32:    ea200001     ...    BIC      r0,r0,r1
        0x00010e36:    f0407040    @.@p    ORR      r0,r0,#0x3000000
        0x00010e3a:    eee10a10    ....    VMSR     FPSCR,r0
    __fplib_config_fpu_vfp
    __fplib_config_pureend_doubles
        0x00010e3e:    4770        pG      BX       lr
    x$fpl$fretinf
    $v0
    __fpl_fretinf
        0x00010e40:    21ff        .!      MOVS     r1,#0xff
        0x00010e42:    ea4150d0    A..P    ORR      r0,r1,r0,LSR #23
        0x00010e46:    05c0        ..      LSLS     r0,r0,#23
        0x00010e48:    4770        pG      BX       lr
    x$fpl$usenofp
    __I$use$fp
        0x00010e4a:    0000        ..      MOVS     r0,r0
    $d.realdata
    .L__const.am_hal_flash_store_ui32.SRAM_write_ui32
        0x00010e4c:    bf006001    .`..    DCD    3204472833
        0x00010e50:    bf006800    .h..    DCD    3204474880
        0x00010e54:    bf004770    pG..    DCD    3204466544
    am_hal_cachectrl_defaults
        0x00010e58:    00000308    ....    DCD    776
    am_hal_pwrctrl_peripheral_control
        0x00010e5c:    00000000    ....    DCD    0
        0x00010e60:    00000000    ....    DCD    0
        0x00010e64:    00000000    ....    DCD    0
        0x00010e68:    00000001    ....    DCD    1
        0x00010e6c:    00000004    ....    DCD    4
        0x00010e70:    00000004    ....    DCD    4
        0x00010e74:    00000002    ....    DCD    2
        0x00010e78:    00000008    ....    DCD    8
        0x00010e7c:    00000008    ....    DCD    8
        0x00010e80:    00000004    ....    DCD    4
        0x00010e84:    00000008    ....    DCD    8
        0x00010e88:    00000008    ....    DCD    8
        0x00010e8c:    00000008    ....    DCD    8
        0x00010e90:    00000008    ....    DCD    8
        0x00010e94:    00000008    ....    DCD    8
        0x00010e98:    00000010    ....    DCD    16
        0x00010e9c:    00000010    ....    DCD    16
        0x00010ea0:    00000010    ....    DCD    16
        0x00010ea4:    00000020     ...    DCD    32
        0x00010ea8:    00000010    ....    DCD    16
        0x00010eac:    00000010    ....    DCD    16
        0x00010eb0:    00000040    @...    DCD    64
        0x00010eb4:    00000010    ....    DCD    16
        0x00010eb8:    00000010    ....    DCD    16
        0x00010ebc:    00000080    ....    DCD    128
        0x00010ec0:    00000004    ....    DCD    4
        0x00010ec4:    00000004    ....    DCD    4
        0x00010ec8:    00000100    ....    DCD    256
        0x00010ecc:    00000004    ....    DCD    4
        0x00010ed0:    00000004    ....    DCD    4
        0x00010ed4:    00000200    ....    DCD    512
        0x00010ed8:    00000020     ...    DCD    32
        0x00010edc:    00000020     ...    DCD    32
        0x00010ee0:    00000400    ....    DCD    1024
        0x00010ee4:    00000004    ....    DCD    4
        0x00010ee8:    00000004    ....    DCD    4
        0x00010eec:    00000800    ....    DCD    2048
        0x00010ef0:    00000040    @...    DCD    64
        0x00010ef4:    00000040    @...    DCD    64
        0x00010ef8:    00001000    ....    DCD    4096
        0x00010efc:    00000040    @...    DCD    64
        0x00010f00:    00000040    @...    DCD    64
        0x00010f04:    00002000    . ..    DCD    8192
        0x00010f08:    00000040    @...    DCD    64
        0x00010f0c:    00000040    @...    DCD    64
        0x00010f10:    00004000    .@..    DCD    16384
        0x00010f14:    00000080    ....    DCD    128
        0x00010f18:    00000080    ....    DCD    128
        0x00010f1c:    00008000    ....    DCD    32768
        0x00010f20:    00000100    ....    DCD    256
        0x00010f24:    00000100    ....    DCD    256
    gAmHalCmdQReg
        0x00010f28:    50004294    .B.P    DCD    1342194324
        0x00010f2c:    50004298    .B.P    DCD    1342194328
        0x00010f30:    500042ac    .B.P    DCD    1342194348
        0x00010f34:    500042b0    .B.P    DCD    1342194352
        0x00010f38:    500042a8    .B.P    DCD    1342194344
        0x00010f3c:    00008000    ....    DCD    32768
        0x00010f40:    5000429c    .B.P    DCD    1342194332
        0x00010f44:    00000001    ....    DCD    1
        0x00010f48:    00000004    ....    DCD    4
        0x00010f4c:    00000002    ....    DCD    2
        0x00010f50:    50005294    .R.P    DCD    1342198420
        0x00010f54:    50005298    .R.P    DCD    1342198424
        0x00010f58:    500052ac    .R.P    DCD    1342198444
        0x00010f5c:    500052b0    .R.P    DCD    1342198448
        0x00010f60:    500052a8    .R.P    DCD    1342198440
        0x00010f64:    00008000    ....    DCD    32768
        0x00010f68:    5000529c    .R.P    DCD    1342198428
        0x00010f6c:    00000001    ....    DCD    1
        0x00010f70:    00000004    ....    DCD    4
        0x00010f74:    00000002    ....    DCD    2
        0x00010f78:    50006294    .b.P    DCD    1342202516
        0x00010f7c:    50006298    .b.P    DCD    1342202520
        0x00010f80:    500062ac    .b.P    DCD    1342202540
        0x00010f84:    500062b0    .b.P    DCD    1342202544
        0x00010f88:    500062a8    .b.P    DCD    1342202536
        0x00010f8c:    00008000    ....    DCD    32768
        0x00010f90:    5000629c    .b.P    DCD    1342202524
        0x00010f94:    00000001    ....    DCD    1
        0x00010f98:    00000004    ....    DCD    4
        0x00010f9c:    00000002    ....    DCD    2
        0x00010fa0:    50007294    .r.P    DCD    1342206612
        0x00010fa4:    50007298    .r.P    DCD    1342206616
        0x00010fa8:    500072ac    .r.P    DCD    1342206636
        0x00010fac:    500072b0    .r.P    DCD    1342206640
        0x00010fb0:    500072a8    .r.P    DCD    1342206632
        0x00010fb4:    00008000    ....    DCD    32768
        0x00010fb8:    5000729c    .r.P    DCD    1342206620
        0x00010fbc:    00000001    ....    DCD    1
        0x00010fc0:    00000004    ....    DCD    4
        0x00010fc4:    00000002    ....    DCD    2
        0x00010fc8:    50008294    ...P    DCD    1342210708
        0x00010fcc:    50008298    ...P    DCD    1342210712
        0x00010fd0:    500082ac    ...P    DCD    1342210732
        0x00010fd4:    500082b0    ...P    DCD    1342210736
        0x00010fd8:    500082a8    ...P    DCD    1342210728
        0x00010fdc:    00008000    ....    DCD    32768
        0x00010fe0:    5000829c    ...P    DCD    1342210716
        0x00010fe4:    00000001    ....    DCD    1
        0x00010fe8:    00000004    ....    DCD    4
        0x00010fec:    00000002    ....    DCD    2
        0x00010ff0:    50009294    ...P    DCD    1342214804
        0x00010ff4:    50009298    ...P    DCD    1342214808
        0x00010ff8:    500092ac    ...P    DCD    1342214828
        0x00010ffc:    500092b0    ...P    DCD    1342214832
        0x00011000:    500092a8    ...P    DCD    1342214824
        0x00011004:    00008000    ....    DCD    32768
        0x00011008:    5000929c    ...P    DCD    1342214812
        0x0001100c:    00000001    ....    DCD    1
        0x00011010:    00000004    ....    DCD    4
        0x00011014:    00000002    ....    DCD    2
        0x00011018:    500142a0    .B.P    DCD    1342259872
        0x0001101c:    500142a8    .B.P    DCD    1342259880
        0x00011020:    500142c0    .B.P    DCD    1342259904
        0x00011024:    500142c4    .B.P    DCD    1342259908
        0x00011028:    500142b8    .B.P    DCD    1342259896
        0x0001102c:    00004000    .@..    DCD    16384
        0x00011030:    500142ac    .B.P    DCD    1342259884
        0x00011034:    00000001    ....    DCD    1
        0x00011038:    00000004    ....    DCD    4
        0x0001103c:    00000008    ....    DCD    8
        0x00011040:    500152a0    .R.P    DCD    1342263968
        0x00011044:    500152a8    .R.P    DCD    1342263976
        0x00011048:    500152c0    .R.P    DCD    1342264000
        0x0001104c:    500152c4    .R.P    DCD    1342264004
        0x00011050:    500152b8    .R.P    DCD    1342263992
        0x00011054:    00004000    .@..    DCD    16384
        0x00011058:    500152ac    .R.P    DCD    1342263980
        0x0001105c:    00000001    ....    DCD    1
        0x00011060:    00000004    ....    DCD    4
        0x00011064:    00000008    ....    DCD    8
        0x00011068:    500162a0    .b.P    DCD    1342268064
        0x0001106c:    500162a8    .b.P    DCD    1342268072
        0x00011070:    500162c0    .b.P    DCD    1342268096
        0x00011074:    500162c4    .b.P    DCD    1342268100
        0x00011078:    500162b8    .b.P    DCD    1342268088
        0x0001107c:    00004000    .@..    DCD    16384
        0x00011080:    500162ac    .b.P    DCD    1342268076
        0x00011084:    00000001    ....    DCD    1
        0x00011088:    00000004    ....    DCD    4
        0x0001108c:    00000008    ....    DCD    8
        0x00011090:    5000c248    H..P    DCD    1342227016
        0x00011094:    5000c24c    L..P    DCD    1342227020
        0x00011098:    5000c260    `..P    DCD    1342227040
        0x0001109c:    5000c264    d..P    DCD    1342227044
        0x000110a0:    5000c25c    \..P    DCD    1342227036
        0x000110a4:    00008000    ....    DCD    32768
        0x000110a8:    5000c250    P..P    DCD    1342227024
        0x000110ac:    00000001    ....    DCD    1
        0x000110b0:    00000004    ....    DCD    4
        0x000110b4:    00000002    ....    DCD    2
    g_AM_BSP_GPIO_DSPL1_CS
        0x000110b8:    00110701    ....    DCD    1115905
    g_AM_BSP_GPIO_DSPL1_SCL
        0x000110bc:    00010b41    A...    DCD    68417
    g_AM_BSP_GPIO_DSPL1_SDI
        0x000110c0:    00010301    ....    DCD    66305
    g_AM_BSP_GPIO_DSPL1_SDO
        0x000110c4:    00010001    ....    DCD    65537
    g_AM_BSP_GPIO_FLASH2_CS
        0x000110c8:    00210701    ..!.    DCD    2164481
    g_AM_BSP_GPIO_FLASH2_MISO
        0x000110cc:    00010001    ....    DCD    65537
    g_AM_BSP_GPIO_FLASH2_MOSI
        0x000110d0:    00010341    A...    DCD    66369
    g_AM_BSP_GPIO_FLASH2_SCK
        0x000110d4:    00010b41    A...    DCD    68417
    g_AM_BSP_GPIO_FT_BRIDGE_MISO
        0x000110d8:    00050005    ....    DCD    327685
    g_AM_BSP_GPIO_FT_BRIDGE_MOSI
        0x000110dc:    00050305    ....    DCD    328453
    g_AM_BSP_GPIO_FT_BRIDGE_SCK
        0x000110e0:    00050b45    E...    DCD    330565
    g_AM_BSP_GPIO_FT_BRIDGE_SS
        0x000110e4:    00350701    ..5.    DCD    3475201
    g_AM_BSP_GPIO_IOM0_SCL
        0x000110e8:    00010b40    @...    DCD    68416
    g_AM_BSP_GPIO_IOM0_SDA
        0x000110ec:    00010b40    @...    DCD    68416
    g_AM_BSP_GPIO_IOM1_CS
        0x000110f0:    00230701    ..#.    DCD    2295553
    g_AM_BSP_GPIO_IOM1_MISO
        0x000110f4:    00030001    ....    DCD    196609
    g_AM_BSP_GPIO_IOM1_MOSI
        0x000110f8:    00030301    ....    DCD    197377
    g_AM_BSP_GPIO_IOM1_SCK
        0x000110fc:    00030301    ....    DCD    197377
    g_AM_BSP_GPIO_IOM1_SCL
        0x00011100:    00030b40    @...    DCD    199488
    g_AM_BSP_GPIO_IOM1_SDA
        0x00011104:    00030b40    @...    DCD    199488
    g_AM_BSP_GPIO_IOM2_SCL
        0x00011108:    00050b44    D...    DCD    330564
    g_AM_BSP_GPIO_IOM2_SDA
        0x0001110c:    00050b44    D...    DCD    330564
    g_AM_BSP_GPIO_IOM3_CS
        0x00011110:    00070701    ....    DCD    460545
    g_AM_BSP_GPIO_IOM3_MISO
        0x00011114:    00070005    ....    DCD    458757
    g_AM_BSP_GPIO_IOM3_MOSI
        0x00011118:    00070305    ....    DCD    459525
    g_AM_BSP_GPIO_IOM3_SCK
        0x0001111c:    00070305    ....    DCD    459525
    g_AM_BSP_GPIO_IOM4_CS
        0x00011120:    00190701    ....    DCD    1640193
    g_AM_BSP_GPIO_IOM4_MISO
        0x00011124:    00090005    ....    DCD    589829
    g_AM_BSP_GPIO_IOM4_MOSI
        0x00011128:    00090305    ....    DCD    590597
    g_AM_BSP_GPIO_IOM4_SCK
        0x0001112c:    00090305    ....    DCD    590597
    g_AM_BSP_GPIO_IOM4_SCL
        0x00011130:    00090b44    D...    DCD    592708
    g_AM_BSP_GPIO_IOM4_SDA
        0x00011134:    00090b44    D...    DCD    592708
    g_AM_BSP_GPIO_IOM5_SCL
        0x00011138:    000b0b44    D...    DCD    723780
    g_AM_BSP_GPIO_IOM5_SDA
        0x0001113c:    000b0b44    D...    DCD    723780
    g_AM_BSP_GPIO_ITM_SWO
        0x00011140:    00000002    ....    DCD    2
    g_AM_BSP_GPIO_PGA0_POT_CS
        0x00011144:    000b0701    ....    DCD    722689
    g_AM_BSP_GPIO_PGA1_POT_CS
        0x00011148:    002b0701    ..+.    DCD    2819841
    g_AM_BSP_GPIO_PGA_POTS_CLK
        0x0001114c:    000b0b45    E...    DCD    723781
    g_AM_BSP_GPIO_PGA_POTS_SDI
        0x00011150:    000b0305    ....    DCD    721669
    g_AM_BSP_GPIO_PS_FRAM_SCL
        0x00011154:    00070b44    D...    DCD    461636
    g_AM_BSP_GPIO_PS_FRAM_SDA
        0x00011158:    00070b44    D...    DCD    461636
    g_AM_HAL_GPIO_DISABLE
        0x0001115c:    00000003    ....    DCD    3
    g_AM_HAL_GPIO_OUTPUT
        0x00011160:    00000403    ....    DCD    1027
    g_am_hal_mcuctrl_flash_size
        0x00011164:    00004000    .@..    DCD    16384
        0x00011168:    00008000    ....    DCD    32768
        0x0001116c:    00010000    ....    DCD    65536
        0x00011170:    00020000    ....    DCD    131072
        0x00011174:    00040000    ....    DCD    262144
        0x00011178:    00080000    ....    DCD    524288
        0x0001117c:    00100000    ....    DCD    1048576
        0x00011180:    00200000    .. .    DCD    2097152
        0x00011184:    00180000    ....    DCD    1572864
        0x00011188:    00000000    ....    DCD    0
        0x0001118c:    00000000    ....    DCD    0
        0x00011190:    00000000    ....    DCD    0
        0x00011194:    00000000    ....    DCD    0
        0x00011198:    00000000    ....    DCD    0
        0x0001119c:    00000000    ....    DCD    0
        0x000111a0:    00000000    ....    DCD    0
    g_am_hal_mcuctrl_sram_size
        0x000111a4:    00004000    .@..    DCD    16384
        0x000111a8:    00008000    ....    DCD    32768
        0x000111ac:    00010000    ....    DCD    65536
        0x000111b0:    00020000    ....    DCD    131072
        0x000111b4:    00040000    ....    DCD    262144
        0x000111b8:    00080000    ....    DCD    524288
        0x000111bc:    00100000    ....    DCD    1048576
        0x000111c0:    00060000    ....    DCD    393216
        0x000111c4:    000c0000    ....    DCD    786432
        0x000111c8:    00000000    ....    DCD    0
        0x000111cc:    00000000    ....    DCD    0
        0x000111d0:    00000000    ....    DCD    0
        0x000111d4:    00000000    ....    DCD    0
        0x000111d8:    00000000    ....    DCD    0
        0x000111dc:    00000000    ....    DCD    0
        0x000111e0:    00000000    ....    DCD    0
    g_ui8Bit76Capabilities
        0x000111e4:    02800101    ....    DCD    41943297
        0x000111e8:    80010180    ....    DCD    2147549568
        0x000111ec:    80800101    ....    DCD    2155872513
        0x000111f0:    80808080    ....    DCD    2155905152
        0x000111f4:    80808080    ....    DCD    2155905152
        0x000111f8:    80808008    ....    DCD    2155905032
        0x000111fc:    01800180    ....    DCD    25166208
        0x00011200:    80808080    ....    DCD    2155905152
        0x00011204:    80808080    ....    DCD    2155905152
        0x00011208:    01800402    ....    DCD    25166850
        0x0001120c:    01010401    ....    DCD    16843777
        0x00011210:    80808080    ....    DCD    2155905152
        0x00011214:    80800101    ....    DCD    2155872513
        0x00011218:    80808080    ....    DCD    2155905152
        0x0001121c:    80808080    ....    DCD    2155905152
        0x00011220:    80808080    ....    DCD    2155905152
        0x00011224:    80808080    ....    DCD    2155905152
        0x00011228:    80808080    ....    DCD    2155905152
        0x0001122c:    8080        ..      DCW    32896
    g_ui8Inpen
        0x0001122e:    2323        ##      DCW    8995
        0x00011230:    03a16227    'b..    DCD    60908071
        0x00011234:    53031087    ...S    DCD    1392709767
        0x00011238:    8151e100    ..Q.    DCD    2169626880
        0x0001123c:    c4055541    AU..    DCD    3288683841
        0x00011240:    b1014080    .@..    DCD    2969649280
        0x00011244:    31144140    @A.1    DCD    823411008
        0x00011248:    f10031a0    .1..    DCD    4043321760
        0x0001124c:    21911180    ...!    DCD    563155328
        0x00011250:    11e511c1    ....    DCD    300224961
        0x00011254:    00373045    E07.    DCD    3616837
        0x00011258:    71003130    01.q    DCD    1895838000
        0x0001125c:    31304000    .@01    DCD    825245696
        0x00011260:    01010100    ....    DCD    16843008
        0x00011264:    01010101    ....    DCD    16843009
        0x00011268:    a0010101    ....    DCD    2684420353
        0x0001126c:    0101a050    P...    DCD    16883792
        0x00011270:    a0010101    ....    DCD    2684420353
        0x00011274:    50a0a0a0    ...P    DCD    1352704160
    g_ui8NCEtable
        0x00011278:    0112a4a3    ....    DCD    17999011
        0x0001127c:    a4a2a1a0    ....    DCD    2762121632
        0x00011280:    92b502b3    ....    DCD    2461336243
        0x00011284:    82858483    ....    DCD    2189788291
        0x00011288:    91019493    ....    DCD    2432799891
        0x0001128c:    ffffffff    ....    DCD    4294967295
        0x00011290:    ffffffff    ....    DCD    4294967295
        0x00011294:    00951201    ....    DCD    9769473
        0x00011298:    80028483    ....    DCD    2147648643
        0x0001129c:    b2b5b401    ....    DCD    2998252545
        0x000112a0:    0011a4a3    ....    DCD    1156259
        0x000112a4:    83828180    ....    DCD    2206368128
        0x000112a8:    10850283    ....    DCD    277152387
        0x000112ac:    90959493    ....    DCD    2425722003
        0x000112b0:    a4a212a0    ....    DCD    2762085024
        0x000112b4:    00b2b101    ....    DCD    11710721
        0x000112b8:    85b20280    ....    DCD    2243035776
        0x000112bc:    94029190    ....    DCD    2483196304
        0x000112c0:    a3a2a102    ....    DCD    2745344258
        0x000112c4:    00b311b0    ....    DCD    11735472
        0x000112c8:    92950012    ....    DCD    2459238418
        0x000112cc:    0102a4a3    ....    DCD    16950435
        0x000112d0:    02b5b4b3    ....    DCD    45462707
        0x000112d4:    84828180    ....    DCD    2223145344
        0x000112d8:    95920190    ....    DCD    2509373840
        0x000112dc:    a0a501a3    ....    DCD    2695168419
        0x000112e0:    b1b5b4b3    ....    DCD    2981475507
        0x000112e4:    81008402    ....    DCD    2164294658
        0x000112e8:    00959493    ....    DCD    9802899
        0x000112ec:    a1a512a3    ....    DCD    2711949987
        0x000112f0:    b002b400    ....    DCD    2952967168
        0x000112f4:    84820201    ....    DCD    2223112705
        0x000112f8:    1001b190    ....    DCD    268546448
        0x000112fc:    a59211a0    ....    DCD    2777813408
        0x00011300:    11b202b0    ....    DCD    296878768
        0x00011304:    02828101    ....    DCD    42107137
        0x00011308:    10959493    ....    DCD    278238355
        0x0001130c:    00a5a493    ....    DCD    10855571
        0x00011310:    b512b1b0    ....    DCD    3037901232
        0x00011314:    ffffffff    ....    DCD    4294967295
        0x00011318:    ffffffff    ....    DCD    4294967295
        0x0001131c:    10119102    ....    DCD    269586690
        0x00011320:    85820180    ....    DCD    2239889792
        0x00011324:    10029190    ....    DCD    268603792
        0x00011328:    a5a200a0    ....    DCD    2778857632
        0x0001132c:    b185b4b3    ....    DCD    2978329779
        0x00011330:    10020183    ....    DCD    268566915
        0x00011334:    93928111    ....    DCD    2475852049
        0x00011338:    12a2a101    ....    DCD    312647937
        0x0001133c:    81b211b0    ....    DCD    2175930800
        0x00011340:    80b20201    ....    DCD    2159149569
        0x00011344:    809291a4    ....    DCD    2157089188
        0x00011348:    9200a190    ....    DCD    2449514896
        0x0001134c:    8202b1a0    ....    DCD    2181214624
        0x00011350:    83858402    ....    DCD    2206565378
        0x00011354:    84950083    ....    DCD    2224357507
        0x00011358:    10a5b4a3    ....    DCD    279295139
        0x0001135c:    90b5b400    ....    DCD    2427827200
        0x00011360:    b50081b3    ....    DCD    3036709299
        0x00011364:    00929111    ....    DCD    9605393
        0x00011368:    b0a2a110    ....    DCD    2963448080
        0x0001136c:    0102b100    ....    DCD    16953600
        0x00011370:    11858410    ....    DCD    293962768
        0x00011374:    00029401    ....    DCD    168961
        0x00011378:    10a5a480    ....    DCD    279291008
        0x0001137c:    93a50090    ....    DCD    2477064336
        0x00011380:    94828101    ....    DCD    2491580673
        0x00011384:    95b291b0    ....    DCD    2511507888
        0x00011388:    a0a20083    ....    DCD    2694971523
        0x0001138c:    0100b193    ....    DCD    16822675
        0x00011390:    118502a3    ....    DCD    293929635
        0x00011394:    a1b094b3    ....    DCD    2712704179
        0x00011398:    a2010200    ....    DCD    2717975040
        0x0001139c:    02b5b401    ....    DCD    45462529
    g_ui8nCEpins
        0x000113a0:    02070707    ....    DCD    34014983
        0x000113a4:    00080802    ....    DCD    526338
        0x000113a8:    01020202    ....    DCD    16908802
        0x000113ac:    01010101    ....    DCD    16843009
        0x000113b0:    01010101    ....    DCD    16843009
        0x000113b4:    01010101    ....    DCD    16843009
        0x000113b8:    01010101    ....    DCD    16843009
        0x000113bc:    01010101    ....    DCD    16843009
        0x000113c0:    01010101    ....    DCD    16843009
        0x000113c4:    08010101    ....    DCD    134283521
        0x000113c8:    01010008    ....    DCD    16842760
        0x000113cc:    01010101    ....    DCD    16843009
        0x000113d0:    01010101    ....    DCD    16843009
        0x000113d4:    01010101    ....    DCD    16843009
        0x000113d8:    01010101    ....    DCD    16843009
        0x000113dc:    01010101    ....    DCD    16843009
        0x000113e0:    01010101    ....    DCD    16843009
        0x000113e4:    01010101    ....    DCD    16843009
        0x000113e8:    0101        ..      DCW    257
    .L.str.15
        0x000113ea:    4f49        IO      DCW    20297
        0x000113ec:    6f50204d    M Po    DCD    1867522125
        0x000113f0:    20726577    wer     DCD    544367991
        0x000113f4:    6d617845    Exam    DCD    1835104325
        0x000113f8:    0a656c70    ple.    DCD    174419056
        0x000113fc:    000a        ..      DCW    10
    .L.str.17
        0x000113fe:    2a0a        .*      DCW    10762
        0x00011400:    2a2a2a2a    ****    DCD    707406378
        0x00011404:    206d6f69    iom     DCD    544042857
        0x00011408:    65657073    spee    DCD    1701146739
        0x0001140c:    73252064    d %s    DCD    1931812964
        0x00011410:    2a2a2a2a    ****    DCD    707406378
        0x00011414:    0a2a        *.      DCW    2602
        0x00011416:    00          .       DCB    0
    .L.str.18
        0x00011417:    55          U       DCB    85
        0x00011418:    6c62616e    nabl    DCD    1818386798
        0x0001141c:    6f742065    e to    DCD    1869881445
        0x00011420:    696e6920     ini    DCD    1768843552
        0x00011424:    6c616974    tial    DCD    1818323316
        0x00011428:    20657a69    ize     DCD    543521385
        0x0001142c:    4d415246    FRAM    DCD    1296126534
        0x00011430:    000a        ..      DCW    10
    .L.str.10
        0x00011432:    7325        %s      DCW    29477
        0x00011434:    756f4620     Fou    DCD    1970226720
        0x00011438:    000a646e    nd..    DCD    681070
    .L.str.20
        0x0001143c:    646e450a    .End    DCD    1684948234
        0x00011440:    20666f20     of     DCD    543584032
        0x00011444:    204d4f49    IOM     DCD    541937481
        0x00011448:    65776f50    Powe    DCD    1702326096
        0x0001144c:    78452072    r Ex    DCD    2017796210
        0x00011450:    6c706d61    ampl    DCD    1819307361
        0x00011454:    0a65        e.      DCW    2661
        0x00011456:    00          .       DCB    0
    .L.str.19
        0x00011457:    0a          .       DCB    10
        0x00011458:    69206425    %d i    DCD    1763730469
        0x0001145c:    61726574    tera    DCD    1634887028
        0x00011460:    6e6f6974    tion    DCD    1852795252
        0x00011464:    6f642073    s do    DCD    1868832883
        0x00011468:    000a656e    ne..    DCD    681326
    .L.str.16
        0x0001146c:    69726550    Peri    DCD    1769104720
        0x00011470:    6369646f    odic    DCD    1667851375
        0x00011474:    796c6c61    ally    DCD    2037148769
        0x00011478:    61655220     Rea    DCD    1634030112
        0x0001147c:    676e6964    ding    DCD    1735289188
        0x00011480:    74616420     dat    DCD    1952539680
        0x00011484:    72662061    a fr    DCD    1919295585
        0x00011488:    46206d6f    om F    DCD    1176530287
        0x0001148c:    204d4152    RAM     DCD    541933906
        0x00011490:    6e697375    usin    DCD    1852404597
        0x00011494:    6f6e2067    g no    DCD    1869488231
        0x00011498:    6c622d6e    n-bl    DCD    1818373486
        0x0001149c:    696b636f    ocki    DCD    1768645487
        0x000114a0:    7220676e    ng r    DCD    1914726254
        0x000114a4:    20646165    ead     DCD    543449445
        0x000114a8:    6425202d    - %d    DCD    1680154669
        0x000114ac:    6d697420     tim    DCD    1835627552
        0x000114b0:    000a7365    es..    DCD    684901
    .L.str.14
        0x000114b4:    65636552    Rece    DCD    1701012818
        0x000114b8:    20657669    ive     DCD    543520361
        0x000114bc:    61746144    Data    DCD    1635017028
        0x000114c0:    6d6f4320     Com    DCD    1836008224
        0x000114c4:    65726170    pare    DCD    1701994864
        0x000114c8:    69616620     fai    DCD    1767990816
        0x000114cc:    2064656c    led     DCD    543450476
        0x000114d0:    6f207461    at o    DCD    1864397921
        0x000114d4:    65736666    ffse    DCD    1702061670
        0x000114d8:    64252074    t %d    DCD    1680154740
        0x000114dc:    45202d20     - E    DCD    1159736608
        0x000114e0:    63657078    xpec    DCD    1667592312
        0x000114e4:    20646574    ted     DCD    543450484
        0x000114e8:    7830203d    = 0x    DCD    2016419901
        0x000114ec:    202c7825    %x,     DCD    539785253
        0x000114f0:    65636552    Rece    DCD    1701012818
        0x000114f4:    64657669    ived    DCD    1684371049
        0x000114f8:    30203d20     = 0    DCD    807419168
        0x000114fc:    0a782578    x%x.    DCD    175646072
        0x00011500:    00          .       DCB    0
    .L.str.12
        0x00011501:    0a4652      .FR     DCB    10,70,82
        0x00011504:    52204d41    AM R    DCD    1377848641
        0x00011508:    20646165    ead     DCD    543449445
        0x0001150c:    6c696146    Fail    DCD    1818845510
        0x00011510:    30206465    ed 0    DCD    807429221
        0x00011514:    0a782578    x%x.    DCD    175646072
        0x00011518:    00          .       DCB    0
    .L.str.11
        0x00011519:    0a4652      .FR     DCB    10,70,82
        0x0001151c:    57204d41    AM W    DCD    1461734721
        0x00011520:    65746972    rite    DCD    1702127986
        0x00011524:    69614620     Fai    DCD    1767982624
        0x00011528:    2064656c    led     DCD    543450476
        0x0001152c:    78257830    0x%x    DCD    2015721520
        0x00011530:    000a        ..      DCW    10
    .L.str.13
        0x00011532:    002e        ..      DCW    46
        0x00011534:    30303120     100    DCD    808464672
        0x00011538:    007a484b    KHz.    DCD    8013899
        0x0001153c:    30303420     400    DCD    808465440
        0x00011540:    007a484b    KHz.    DCD    8013899
        0x00011544:    484d3120     1MH    DCD    1213018400
        0x00011548:    3120007a    z. 1    DCD    824180858
        0x0001154c:    7a484d32    2MHz    DCD    2051558706
        0x00011550:    4d342000    . 4M    DCD    1295261696
        0x00011554:    20007a48    Hz.     DCD    536902216
        0x00011558:    484d3432    24MH    DCD    1213019186
        0x0001155c:    3620007a    z. 6    DCD    908066938
        0x00011560:    007a484d    MHz.    DCD    8013901
        0x00011564:    4d363120     16M    DCD    1295397152
        0x00011568:    20007a48    Hz.     DCD    536902216
        0x0001156c:    7a484d38    8MHz    DCD    2051558712
        0x00011570:    38342000    . 48    DCD    942940160
        0x00011574:    007a484d    MHz.    DCD    8013901
    .L.str
        0x00011578:    0a0a0a0a    ....    DCD    168430090
        0x0001157c:    0a0a0a0a    ....    DCD    168430090
        0x00011580:    0a0a0a0a    ....    DCD    168430090
        0x00011584:    0a0a0a0a    ....    DCD    168430090
        0x00011588:    00000a0a    ....    DCD    2570
    Region$$Table$$Base
        0x0001158c:    000115c0    ....    DCD    71104
        0x00011590:    10011000    ....    DCD    268505088
        0x00011594:    000000e0    ....    DCD    224
        0x00011598:    0000c170    p...    DCD    49520
        0x0001159c:    000116a0    ....    DCD    71328
        0x000115a0:    100110e0    ....    DCD    268505312
        0x000115a4:    00003fa8    .?..    DCD    16296
        0x000115a8:    0000c18c    ....    DCD    49548
        0x000115ac:    000116a0    ....    DCD    71328
        0x000115b0:    10010000    ....    DCD    268500992
        0x000115b4:    00001000    ....    DCD    4096
        0x000115b8:    0000c18c    ....    DCD    49548
    Region$$Table$$Limit

** Section #2 'RWMEM' (SHT_PROGBITS) [SHF_ALLOC + SHF_WRITE]
    Size   : 224 bytes (alignment 8)
    Address: 0x10011000

    0x10011000:   0a 00 00 00 03 00 00 00 1e 00 00 00 03 00 00 00    ................
    0x10011010:   0f 00 00 00 03 00 00 00 0e 00 00 00 03 00 00 00    ................
    0x10011020:   11 00 00 00 03 00 00 00 49 32 43 20 46 52 41 4d    ........I2C FRAM
    0x10011030:   20 4d 42 38 35 52 43 36 34 54 41 00 89 c9 00 00     MB85RC64TA.....
    0x10011040:   d5 cb 00 00 91 cb 00 00 3d c9 00 00 25 cb 00 00    ........=...%...
    0x10011050:   f1 c8 00 00 b9 ca 00 00 01 00 00 00 01 00 00 00    ................
    0x10011060:   40 42 0f 00 00 00 00 00 00 00 00 00 00 00 00 00    @B..............
    0x10011070:   00 00 00 00 56 02 00 00 00 00 00 00 ff ff ff ff    ....V...........
    0x10011080:   ff ff ff ff ff ff ff ff ff ff ff ff 00 6c dc 02    .............l..
    0x10011090:   71 15 01 00 00 36 6e 01 57 15 01 00 00 24 f4 00    q....6n.W....$..
    0x100110a0:   64 15 01 00 00 1b b7 00 4a 15 01 00 00 12 7a 00    d.......J.....z.
    0x100110b0:   6b 15 01 00 80 8d 5b 00 5e 15 01 00 00 09 3d 00    k.....[.^.....=.
    0x100110c0:   51 15 01 00 40 42 0f 00 44 15 01 00 80 1a 06 00    Q...@B..D.......
    0x100110d0:   3c 15 01 00 a0 86 01 00 34 15 01 00 00 00 00 00    <.......4.......


** Section #3 'RWMEM' (SHT_NOBITS) [SHF_ALLOC + SHF_WRITE]
    Size   : 16296 bytes (alignment 8)
    Address: 0x100110e0


** Section #4 'STACKMEM' (SHT_NOBITS) [SHF_ALLOC + SHF_WRITE]
    Size   : 4096 bytes (alignment 8)
    Address: 0x10010000


** Section #5 '.debug_abbrev' (SHT_PROGBITS)
    Size   : 1436 bytes


** Section #6 '.debug_frame' (SHT_PROGBITS)
    Size   : 7428 bytes


** Section #7 '.debug_info' (SHT_PROGBITS)
    Size   : 7730 bytes


** Section #8 '.debug_line' (SHT_PROGBITS)
    Size   : 7296 bytes


** Section #9 '.debug_str' (SHT_PROGBITS)
    Size   : 6502 bytes


** Section #10 '.debug_ranges' (SHT_PROGBITS)
    Size   : 408 bytes


** Section #11 '.symtab' (SHT_SYMTAB)
    Size   : 8592 bytes (alignment 4)
    String table #12 '.strtab'
    Last local symbol no. 246

    Symbol table .symtab (536 symbols, 246 local)

      #  Symbol Name                Value      Bind  Sec  Type  Vis  Size
    ========================================================================

      1  $d                         0x0000c000   Lc    1   --   De 
      2  $t                         0x0000c100   Lc    1   --   De 
      3  $d                         0x0000c130   Lc    1   --   De 
      4  $t                         0x0000c134   Lc    1   --   De 
      5  $d                         0x0000c168   Lc    1   --   De 
      6  $t                         0x0000c170   Lc    1   --   De 
      7  $d                         0x0000c1de   Lc    1   --   De 
      8  $t                         0x0000c1ec   Lc    1   --   De 
      9  $d                         0x0000c254   Lc    1   --   De 
     10  $t                         0x0000c258   Lc    1   --   De 
     11  $d                         0x0000c260   Lc    1   --   De 
     12  $t                         0x0000c264   Lc    1   --   De 
     13  $t.0                       0x0000c268   Lc    1   --   De 
     14  $d.12                      0x0000c302   Lc    1   --   De 
     15  $t.13                      0x0000c318   Lc    1   --   De 
     16  $d.9                       0x0000c4ba   Lc    1   --   De 
     17  $t.10                      0x0000c4e6   Lc    1   --   De 
     18  $d.4                       0x0000cfc2   Lc    1   --   De 
     19  $t.5                       0x0000cfd4   Lc    1   --   De 
     20  $d.1                       0x0000d154   Lc    1   --   De 
     21  $t.2                       0x0000d15e   Lc    1   --   De 
     22  $d.2                       0x0000d72c   Lc    1   --   De 
     23  $t.3                       0x0000d734   Lc    1   --   De 
     24  $d.4                       0x0000d894   Lc    1   --   De 
     25  $t.0                       0x0000d8cc   Lc    1   --   De 
     26  $d.1                       0x0000dc14   Lc    1   --   De 
     27  $t.2                       0x0000dc18   Lc    1   --   De 
     28  $d.6                       0x0000dd0a   Lc    1   --   De 
     29  $t.7                       0x0000dd10   Lc    1   --   De 
     30  $d.1                       0x0000edb2   Lc    1   --   De 
     31  $t.2                       0x0000edb8   Lc    1   --   De 
     32  $d.3                       0x0000ee66   Lc    1   --   De 
     33  $t.4                       0x0000ee76   Lc    1   --   De 
     34  $d.5                       0x0000eec0   Lc    1   --   De 
     35  $t.6                       0x0000eed0   Lc    1   --   De 
     36  $d.4                       0x0000f92a   Lc    1   --   De 
     37  $t.5                       0x0000f990   Lc    1   --   De 
     38  $t                         0x00010d28   Lc    1   --   De 
     39  $d                         0x00010d78   Lc    1   --   De 
     40  $t                         0x00010d7c   Lc    1   --   De 
     41  $d                         0x00010dfa   Lc    1   --   De 
     42  $t                         0x00010dfe   Lc    1   --   De 
     43  $d.realdata                0x00010e4c   Lc    1   --   De 
     44  $d.realdata                0x10011000   Lc    2   --   De 
     45  $d.realdata                0x10010000   Lc    4   --   De 
     46  iom_power_example.c        0x00000000   Lc  Abs  File  De 
     47  __NVIC_EnableIRQ           0x0000c2bd   Lc    1  Code  De   0x30
     48  __NVIC_DisableIRQ          0x0000c285   Lc    1  Code  De   0x38
     49  .L.str.15                  0x000113ea   Lc    1  Data  De   0x14
     50  .L.str.17                  0x000113fe   Lc    1  Data  De   0x19
     51  .L.str.18                  0x00011417   Lc    1  Data  De   0x1b
     52  .L.str.10                  0x00011432   Lc    1  Data  De   0xa
     53  .L.str.20                  0x0001143c   Lc    1  Data  De   0x1b
     54  .L.str.19                  0x00011457   Lc    1  Data  De   0x15
     55  .L.str.16                  0x0001146c   Lc    1  Data  De   0x48
     56  .L.str.14                  0x000114b4   Lc    1  Data  De   0x4d
     57  .L.str.12                  0x00011501   Lc    1  Data  De   0x18
     58  .L.str.11                  0x00011519   Lc    1  Data  De   0x19
     59  .L.str.13                  0x00011532   Lc    1  Data  De   0x2
     60  am_util_delay.c            0x00000000   Lc  Abs  File  De 
     61  am_util_faultisr.c         0x00000000   Lc  Abs  File  De 
     62  am_util_stdio.c            0x00000000   Lc  Abs  File  De 
     63  decstr_to_int              0x0000fe45   Lc    1  Code  De   0xa6
     64  simple_strlen              0x000109a9   Lc    1  Code  De   0x36
     65  padbuffer                  0x00010751   Lc    1  Code  De   0x50
     66  ndigits_in_hex             0x000106a5   Lc    1  Code  De   0x3e
     67  uint64_to_hexstr           0x00010a25   Lc    1  Code  De   0xc0
     68  ndigits_in_u64             0x00010715   Lc    1  Code  De   0x3c
     69  uint64_to_str              0x00010ae5   Lc    1  Code  De   0x88
     70  ndigits_in_i64             0x000106e5   Lc    1  Code  De   0x30
     71  ftoa                       0x000100d1   Lc    1  Code  De   0x230
     72  divu64_10                  0x0000feed   Lc    1  Code  De   0x118
     73  g_bTxtXlate                0x10014c70   Lc    3  Data  De   0x1
     74  g_prfbuf                   0x10014c7c   Lc    3  Data  De   0x400
     75  .L.str                     0x00011578   Lc    1  Data  De   0x13
     76  am_devices_mb85rc256v.c    0x00000000   Lc  Abs  File  De 
     77  am_device_command_read     0x0000c805   Lc    1  Code  De   0x76
     78  am_device_command_write    0x0000c87d   Lc    1  Code  De   0x74
     79  ../keil6/startup_keil6.s   0x00000000   Lc  Abs  File  De 
     80  STACK                      0x10010000   Lc    4  Sect  De   0x1000
     81  StackMem                   0x10010000   Lc    4  Data  De 
     82  HEAP                       0x10015088   Lc    3  Sect  De 
     83  HeapMem                    0x10015088   Lc    3  Data  De 
     84  RESET                      0x0000c000   Lc    1  Sect  De   0x134
     85  $v0                        0x0000c100   Lc    1   --   De 
     86  .text                      0x0000c1d4   Lc    1  Sect  De   0x18
     87  $v0                        0x0000c1d4   Lc    1   --   De 
     88  am_hal_global.c            0x00000000   Lc  Abs  File  De 
     89  am_bsp.c                   0x00000000   Lc  Abs  File  De 
     90  g_ui32PrintInterface       0x10015080   Lc    3  Data  De   0x4
     91  am_hal_cachectrl.c         0x00000000   Lc  Abs  File  De 
     92  set_LPMMODE                0x000108a1   Lc    1  Code  De   0x5a
     93  set_SEDELAY                0x00010951   Lc    1  Code  De   0x56
     94  set_RDWAIT                 0x000108fd   Lc    1  Code  De   0x54
     95  am_hal_clkgen.c            0x00000000   Lc  Abs  File  De 
     96  am_hal_ctimer.c            0x00000000   Lc  Abs  File  De 
     97  g_am_hal_ctimer_ppfnHandlers
                                    0x10014be8   Lc    3  Data  De   0x80
     98  g_ui8ClkSrc                0x1001107c   Lc    2  Data  De   0x10
     99  am_hal_flash.c             0x00000000   Lc  Abs  File  De 
    100  .L__const.am_hal_flash_store_ui32.SRAM_write_ui32
                                    0x00010e4c   Lc    1  Data  De   0xc
    101  am_hal_gpio.c              0x00000000   Lc  Abs  File  De 
    102  g_ui8Bit76Capabilities     0x000111e4   Lc    1  Data  De   0x4a
    103  g_ui8Inpen                 0x0001122e   Lc    1  Data  De   0x4a
    104  g_ui8nCEpins               0x000113a0   Lc    1  Data  De   0x4a
    105  g_ui8NCEtable              0x00011278   Lc    1  Data  De   0x128
    106  am_hal_interrupt.c         0x00000000   Lc  Abs  File  De 
    107  am_hal_iom.c               0x00000000   Lc  Abs  File  De 
    108  internal_iom_reset_on_error
                                    0x00010345   Lc    1  Code  De   0x116
    109  program_dma                0x000107a1   Lc    1  Code  De   0x72
    110  iom_dummy_callback         0x0001045b   Lc    1  Code  De   0x2
    111  am_hal_mcuctrl.c           0x00000000   Lc  Abs  File  De 
    112  am_hal_sysctrl.c           0x00000000   Lc  Abs  File  De 
    113  am_bsp_pins.c              0x00000000   Lc  Abs  File  De 
    114  am_hal_burst.c             0x00000000   Lc  Abs  File  De 
    115  g_bEnFromManual            0x10014c6d   Lc    3  Data  De   0x1
    116  g_bDisFromManual           0x10014c6c   Lc    3  Data  De   0x1
    117  am_hal_cmdq.c              0x00000000   Lc  Abs  File  De 
    118  update_indices             0x00010b6d   Lc    1  Code  De   0x36
    119  gAmHalCmdq                 0x10011540   Lc    3  Data  De   0x1b8
    120  gAmHalCmdQReg              0x00010f28   Lc    1  Data  De   0x190
    121  am_hal_debug.c             0x00000000   Lc  Abs  File  De 
    122  am_hal_itm.c               0x00000000   Lc  Abs  File  De 
    123  am_hal_pwrctrl.c           0x00000000   Lc  Abs  File  De 
    124  am_hal_reset.c             0x00000000   Lc  Abs  File  De 
    125  am_hal_rtc.c               0x00000000   Lc  Abs  File  De 
    126  am_hal_tpiu.c              0x00000000   Lc  Abs  File  De 
    127  am_hal_uart.c              0x00000000   Lc  Abs  File  De 
    128  am_hal_queue.c             0x00000000   Lc  Abs  File  De 
    129  dc.s                       0x00000000   Lc  Abs  File  De 
    130  ../clib/heapaux.c          0x00000000   Lc  Abs  File  De 
    131  .text                      0x0000c1ec   Lc    1  Sect  De 
    132  ../clib/angel/startup.s    0x00000000   Lc  Abs  File  De 
    133  !!!main                    0x0000c134   Lc    1  Sect  De   0x8
    134  ../clib/angel/handlers.s   0x00000000   Lc  Abs  File  De 
    135  !!handler_copy             0x0000c170   Lc    1  Sect  De   0x1a
    136  ../fplib/d2f.s             0x00000000   Lc  Abs  File  De 
    137  x$fpl$d2f                  0x00010d28   Lc    1  Sect  De   0x62
    138  $v0                        0x00010d28   Lc    1   --   De 
    139  ../clib/angel/kernel.s     0x00000000   Lc  Abs  File  De 
    140  .ARM.Collect$$rtentry$$00000000
                                    0x0000c1b4   Lc    1  Sect  De 
    141  ../fplib/dnaninf.s         0x00000000   Lc  Abs  File  De 
    142  x$fpl$dnaninf              0x00010d8a   Lc    1  Sect  De   0x9c
    143  $v0                        0x00010d8a   Lc    1   --   De 
    144  ../fplib/fretinf.s         0x00000000   Lc  Abs  File  De 
    145  x$fpl$fretinf              0x00010e40   Lc    1  Sect  De   0xa
    146  $v0                        0x00010e40   Lc    1   --   De 
    147  ../fplib/usenofp.s         0x00000000   Lc  Abs  File  De 
    148  x$fpl$usenofp              0x00010e4a   Lc    1  Sect  De 
    149  ../clib/angel/kernel.s     0x00000000   Lc  Abs  File  De 
    150  .ARM.Collect$$rtentry$$00000002
                                    0x0000c1b4   Lc    1  Sect  De 
    151  .ARM.Collect$$rtentry$$00000009
                                    0x0000c1ba   Lc    1  Sect  De 
    152  .ARM.Collect$$rtentry$$0000000A
                                    0x0000c1ba   Lc    1  Sect  De   0x4
    153  .ARM.Collect$$rtentry$$0000000C
                                    0x0000c1be   Lc    1  Sect  De 
    154  .ARM.Collect$$rtentry$$0000000D
                                    0x0000c1be   Lc    1  Sect  De   0x8
    155  ../clib/angel/kernel.s     0x00000000   Lc  Abs  File  De 
    156  .ARM.Collect$$rtentry$$00000004
                                    0x0000c1b4   Lc    1  Sect  De   0x6
    157  ../clib/angel/sys.s        0x00000000   Lc  Abs  File  De 
    158  .text                      0x0000c1f2   Lc    1  Sect  De   0x4a
    159  ../clib/stdlib.c           0x00000000   Lc  Abs  File  De 
    160  .text                      0x0000c23c   Lc    1  Sect  De 
    161  ../clib/angel/boardlib.s   0x00000000   Lc  Abs  File  De 
    162  ../clib/angel/boardlib.s   0x00000000   Lc  Abs  File  De 
    163  ../clib/angel/boardlib.s   0x00000000   Lc  Abs  File  De 
    164  ../clib/libinit.s          0x00000000   Lc  Abs  File  De 
    165  .ARM.Collect$$libinit$$00000000
                                    0x0000c1a8   Lc    1  Sect  De   0x2
    166  ../clib/angel/sys.s        0x00000000   Lc  Abs  File  De 
    167  .text                      0x0000c250   Lc    1  Sect  De   0x8
    168  .bss                       0x100110e0   Lc    3  Sect  De   0x60
    169  ../clib/angel/kernel.s     0x00000000   Lc  Abs  File  De 
    170  .ARM.Collect$$rtexit$$00000000
                                    0x0000c1c6   Lc    1  Sect  De   0x2
    171  ../clib/libinit.s          0x00000000   Lc  Abs  File  De 
    172  .ARM.Collect$$libinit$$00000001
                                    0x0000c1aa   Lc    1  Sect  De   0x4
    173  .ARM.Collect$$libinit$$00000004
                                    0x0000c1ae   Lc    1  Sect  De 
    174  .ARM.Collect$$libinit$$0000000A
                                    0x0000c1ae   Lc    1  Sect  De 
    175  .ARM.Collect$$libinit$$0000000C
                                    0x0000c1ae   Lc    1  Sect  De 
    176  .ARM.Collect$$libinit$$0000000E
                                    0x0000c1ae   Lc    1  Sect  De 
    177  .ARM.Collect$$libinit$$00000011
                                    0x0000c1ae   Lc    1  Sect  De 
    178  .ARM.Collect$$libinit$$00000013
                                    0x0000c1ae   Lc    1  Sect  De 
    179  .ARM.Collect$$libinit$$00000015
                                    0x0000c1ae   Lc    1  Sect  De 
    180  .ARM.Collect$$libinit$$00000017
                                    0x0000c1ae   Lc    1  Sect  De 
    181  .ARM.Collect$$libinit$$00000019
                                    0x0000c1ae   Lc    1  Sect  De 
    182  .ARM.Collect$$libinit$$0000001B
                                    0x0000c1ae   Lc    1  Sect  De 
    183  .ARM.Collect$$libinit$$0000001D
                                    0x0000c1ae   Lc    1  Sect  De 
    184  .ARM.Collect$$libinit$$0000001F
                                    0x0000c1ae   Lc    1  Sect  De 
    185  .ARM.Collect$$libinit$$00000021
                                    0x0000c1ae   Lc    1  Sect  De 
    186  .ARM.Collect$$libinit$$00000023
                                    0x0000c1ae   Lc    1  Sect  De 
    187  .ARM.Collect$$libinit$$00000025
                                    0x0000c1ae   Lc    1  Sect  De 
    188  .ARM.Collect$$libinit$$0000002C
                                    0x0000c1ae   Lc    1  Sect  De 
    189  .ARM.Collect$$libinit$$0000002E
                                    0x0000c1ae   Lc    1  Sect  De 
    190  .ARM.Collect$$libinit$$00000030
                                    0x0000c1ae   Lc    1  Sect  De 
    191  .ARM.Collect$$libinit$$00000032
                                    0x0000c1ae   Lc    1  Sect  De 
    192  .ARM.Collect$$libinit$$00000033
                                    0x0000c1ae   Lc    1  Sect  De   0x2
    193  ../clib/angel/kernel.s     0x00000000   Lc  Abs  File  De 
    194  .ARM.Collect$$rtexit$$00000002
                                    0x0000c1c8   Lc    1  Sect  De 
    195  .ARM.Collect$$rtexit$$00000003
                                    0x0000c1c8   Lc    1  Sect  De   0x4
    196  .ARM.Collect$$rtexit$$00000004
                                    0x0000c1cc   Lc    1  Sect  De   0x6
    197  ../clib/armsys.c           0x00000000   Lc  Abs  File  De 
    198  ../clib/armsys.c           0x00000000   Lc  Abs  File  De 
    199  ../fplib/fpinit.s          0x00000000   Lc  Abs  File  De 
    200  x$fpl$fpinit               0x00010e26   Lc    1  Sect  De   0x1a
    201  $v0                        0x00010e26   Lc    1   --   De 
    202  ../clib/angel/sysapp.c     0x00000000   Lc  Abs  File  De 
    203  .text                      0x0000c258   Lc    1  Sect  De 
    204  ../clib/angel/sysapp.c     0x00000000   Lc  Abs  File  De 
    205  ../clib/angel/boardlib.s   0x00000000   Lc  Abs  File  De 
    206  ../clib/armsys.c           0x00000000   Lc  Abs  File  De 
    207  ../clib/armsys.c           0x00000000   Lc  Abs  File  De 
    208  ../clib/libinit.s          0x00000000   Lc  Abs  File  De 
    209  .ARM.Collect$$libshutdown$$00000000
                                    0x0000c1b0   Lc    1  Sect  De   0x2
    210  ../clib/angel/sysapp.c     0x00000000   Lc  Abs  File  De 
    211  ../clib/angel/sysapp.c     0x00000000   Lc  Abs  File  De 
    212  ../clib/angel/sys.s        0x00000000   Lc  Abs  File  De 
    213  .text                      0x0000c264   Lc    1  Sect  De   0x2
    214  ../clib/angel/sys.s        0x00000000   Lc  Abs  File  De 
    215  .text                      0x0000c266   Lc    1  Sect  De 
    216  ../clib/heapalloc.c        0x00000000   Lc  Abs  File  De 
    217  ../clib/signal.c           0x00000000   Lc  Abs  File  De 
    218  ../clib/signal.c           0x00000000   Lc  Abs  File  De 
    219  ../clib/libinit.s          0x00000000   Lc  Abs  File  De 
    220  .ARM.Collect$$libshutdown$$00000002
                                    0x0000c1b2   Lc    1  Sect  De 
    221  .ARM.Collect$$libshutdown$$00000004
                                    0x0000c1b2   Lc    1  Sect  De 
    222  .ARM.Collect$$libshutdown$$00000007
                                    0x0000c1b2   Lc    1  Sect  De 
    223  .ARM.Collect$$libshutdown$$0000000A
                                    0x0000c1b2   Lc    1  Sect  De 
    224  .ARM.Collect$$libshutdown$$0000000C
                                    0x0000c1b2   Lc    1  Sect  De 
    225  .ARM.Collect$$libshutdown$$0000000F
                                    0x0000c1b2   Lc    1  Sect  De 
    226  .ARM.Collect$$libshutdown$$00000010
                                    0x0000c1b2   Lc    1  Sect  De   0x2
    227  ../clib/angel/rt.s         0x00000000   Lc  Abs  File  De 
    228  ../clib/signal.c           0x00000000   Lc  Abs  File  De 
    229  ../clib/signal.c           0x00000000   Lc  Abs  File  De 
    230  ../clib/signal.c           0x00000000   Lc  Abs  File  De 
    231  ../clib/signal.c           0x00000000   Lc  Abs  File  De 
    232  ../clib/angel/sysapp.c     0x00000000   Lc  Abs  File  De 
    233  ../clib/angel/sysapp.c     0x00000000   Lc  Abs  File  De 
    234  ../clib/signal.s           0x00000000   Lc  Abs  File  De 
    235  ../clib/signal.c           0x00000000   Lc  Abs  File  De 
    236  ../clib/signal.c           0x00000000   Lc  Abs  File  De 
    237  ../clib/signal.c           0x00000000   Lc  Abs  File  De 
    238  ../clib/signal.c           0x00000000   Lc  Abs  File  De 
    239  ../clib/signal.c           0x00000000   Lc  Abs  File  De 
    240  ../clib/signal.c           0x00000000   Lc  Abs  File  De 
    241  ../clib/signal.c           0x00000000   Lc  Abs  File  De 
    242  ../clib/signal.c           0x00000000   Lc  Abs  File  De 
    243  ../clib/angel/scatter.s    0x00000000   Lc  Abs  File  De 
    244  !!!scatter                 0x0000c13c   Lc    1  Sect  De   0x34
    245  ../clib/angel/handlers.s   0x00000000   Lc  Abs  File  De 
    246  !!handler_zi               0x0000c18c   Lc    1  Sect  De   0x1c
    247  BuildAttributes$$THM_ISAv4$E$P$D$K$B$S$7EM$VFPi3$EXTD16$VFPS$VFMA$PE$A:L22UL41UL21$X:L11$S22US41US21$IEEE1$IW$~IW$USESV6$~STKCKD$USESV7$~SHL$OSPACE$ROPI$EBA8$UX$STANDARDLIB$REQ8$PRES8$EABIv2
                                    0x00000000   Gb  Abs   --   Hi 
    248  __Vectors                  0x0000c000   Gb    1  Data  Hi 
    249  __Patchable                0x0000c0c8   Gb    1  Data  Hi 
    250  Reset_Handler              0x0000c101   Wk    1  Code  Hi   0x1c
    251  NMI_Handler                0x0000c11f   Wk    1  Code  Hi   0x2
    252  MemManage_Handler          0x0000c121   Wk    1  Code  Hi   0x2
    253  BusFault_Handler           0x0000c123   Wk    1  Code  Hi   0x2
    254  UsageFault_Handler         0x0000c125   Wk    1  Code  Hi   0x2
    255  SVC_Handler                0x0000c127   Wk    1  Code  Hi   0x2
    256  DebugMon_Handler           0x0000c129   Wk    1  Code  Hi   0x2
    257  PendSV_Handler             0x0000c12b   Wk    1  Code  Hi   0x2
    258  SysTick_Handler            0x0000c12d   Wk    1  Code  Hi   0x2
    259  am_adc_isr                 0x0000c12f   Wk    1  Code  Hi 
    260  am_ble_isr                 0x0000c12f   Wk    1  Code  Hi 
    261  am_brownout_isr            0x0000c12f   Wk    1  Code  Hi 
    262  am_clkgen_isr              0x0000c12f   Wk    1  Code  Hi 
    263  am_gpio_isr                0x0000c12f   Wk    1  Code  Hi 
    264  am_iomaster0_isr           0x0000c12f   Wk    1  Code  Hi 
    265  am_iomaster1_isr           0x0000c12f   Wk    1  Code  Hi 
    266  am_iomaster2_isr           0x0000c12f   Wk    1  Code  Hi 
    267  am_iomaster4_isr           0x0000c12f   Wk    1  Code  Hi 
    268  am_iomaster5_isr           0x0000c12f   Wk    1  Code  Hi 
    269  am_ioslave_acc_isr         0x0000c12f   Wk    1  Code  Hi 
    270  am_ioslave_ios_isr         0x0000c12f   Wk    1  Code  Hi 
    271  am_mspi0_isr               0x0000c12f   Wk    1  Code  Hi 
    272  am_mspi1_isr               0x0000c12f   Wk    1  Code  Hi 
    273  am_mspi2_isr               0x0000c12f   Wk    1  Code  Hi 
    274  am_pdm0_isr                0x0000c12f   Wk    1  Code  Hi 
    275  am_rtc_isr                 0x0000c12f   Wk    1  Code  Hi 
    276  am_scard_isr               0x0000c12f   Wk    1  Code  Hi 
    277  am_software0_isr           0x0000c12f   Wk    1  Code  Hi 
    278  am_stimer_cmpr0_isr        0x0000c12f   Wk    1  Code  Hi 
    279  am_stimer_cmpr1_isr        0x0000c12f   Wk    1  Code  Hi 
    280  am_stimer_cmpr2_isr        0x0000c12f   Wk    1  Code  Hi 
    281  am_stimer_cmpr3_isr        0x0000c12f   Wk    1  Code  Hi 
    282  am_stimer_cmpr4_isr        0x0000c12f   Wk    1  Code  Hi 
    283  am_stimer_cmpr5_isr        0x0000c12f   Wk    1  Code  Hi 
    284  am_stimer_cmpr6_isr        0x0000c12f   Wk    1  Code  Hi 
    285  am_stimer_cmpr7_isr        0x0000c12f   Wk    1  Code  Hi 
    286  am_stimer_isr              0x0000c12f   Wk    1  Code  Hi 
    287  am_uart0_isr               0x0000c12f   Wk    1  Code  Hi 
    288  am_uart1_isr               0x0000c12f   Wk    1  Code  Hi 
    289  am_uart_isr                0x0000c12f   Wk    1  Code  Hi 
    290  am_vcomp_isr               0x0000c12f   Wk    1  Code  Hi 
    291  am_watchdog_isr            0x0000c12f   Wk    1  Code  Hi 
    292  __main                     0x0000c135   Gb    1  Code  Hi   0x8
    293  __scatterload              0x0000c13d   Gb    1  Code  Hi 
    294  __scatterload_rt2          0x0000c13d   Gb    1  Code  Hi   0x2c
    295  __scatterload_rt2_thumb_only
                                    0x0000c13d   Gb    1  Code  Hi 
    296  __scatterload_null         0x0000c14b   Gb    1  Code  Hi 
    297  __scatterload_copy         0x0000c171   Gb    1  Code  Hi   0x1a
    298  __scatterload_zeroinit     0x0000c18d   Gb    1  Code  Hi   0x1c
    299  __rt_lib_init              0x0000c1a9   Gb    1  Code  De 
    300  __rt_lib_init_fp_1         0x0000c1ab   Gb    1  Code  Hi 
    301  __rt_lib_init_alloca_1     0x0000c1af   Gb    1  Code  Hi 
    302  __rt_lib_init_argv_1       0x0000c1af   Gb    1  Code  Hi 
    303  __rt_lib_init_atexit_1     0x0000c1af   Gb    1  Code  Hi 
    304  __rt_lib_init_clock_1      0x0000c1af   Gb    1  Code  Hi 
    305  __rt_lib_init_cpp_1        0x0000c1af   Gb    1  Code  Hi 
    306  __rt_lib_init_exceptions_1 0x0000c1af   Gb    1  Code  Hi 
    307  __rt_lib_init_fp_trap_1    0x0000c1af   Gb    1  Code  Hi 
    308  __rt_lib_init_getenv_1     0x0000c1af   Gb    1  Code  Hi 
    309  __rt_lib_init_heap_1       0x0000c1af   Gb    1  Code  Hi 
    310  __rt_lib_init_lc_collate_1 0x0000c1af   Gb    1  Code  Hi 
    311  __rt_lib_init_lc_ctype_1   0x0000c1af   Gb    1  Code  Hi 
    312  __rt_lib_init_lc_monetary_1
                                    0x0000c1af   Gb    1  Code  Hi 
    313  __rt_lib_init_lc_numeric_1 0x0000c1af   Gb    1  Code  Hi 
    314  __rt_lib_init_lc_time_1    0x0000c1af   Gb    1  Code  Hi 
    315  __rt_lib_init_preinit_1    0x0000c1af   Gb    1  Code  Hi 
    316  __rt_lib_init_rand_1       0x0000c1af   Gb    1  Code  Hi 
    317  __rt_lib_init_return       0x0000c1af   Gb    1  Code  Hi 
    318  __rt_lib_init_signal_1     0x0000c1af   Gb    1  Code  Hi 
    319  __rt_lib_init_stdio_1      0x0000c1af   Gb    1  Code  Hi 
    320  __rt_lib_init_user_alloc_1 0x0000c1af   Gb    1  Code  Hi 
    321  __rt_lib_shutdown          0x0000c1b1   Gb    1  Code  De 
    322  __rt_lib_shutdown_cpp_1    0x0000c1b3   Gb    1  Code  Hi 
    323  __rt_lib_shutdown_fp_trap_1
                                    0x0000c1b3   Gb    1  Code  Hi 
    324  __rt_lib_shutdown_heap_1   0x0000c1b3   Gb    1  Code  Hi 
    325  __rt_lib_shutdown_return   0x0000c1b3   Gb    1  Code  Hi 
    326  __rt_lib_shutdown_signal_1 0x0000c1b3   Gb    1  Code  Hi 
    327  __rt_lib_shutdown_stdio_1  0x0000c1b3   Gb    1  Code  Hi 
    328  __rt_lib_shutdown_user_alloc_1
                                    0x0000c1b3   Gb    1  Code  Hi 
    329  __rt_entry                 0x0000c1b5   Gb    1  Code  Hi 
    330  __rt_entry_presh_1         0x0000c1b5   Gb    1  Code  Hi 
    331  __rt_entry_sh              0x0000c1b5   Gb    1  Code  Hi 
    332  __rt_entry_li              0x0000c1bb   Gb    1  Code  Hi 
    333  __rt_entry_postsh_1        0x0000c1bb   Gb    1  Code  Hi 
    334  __rt_entry_main            0x0000c1bf   Gb    1  Code  Hi 
    335  __rt_entry_postli_1        0x0000c1bf   Gb    1  Code  Hi 
    336  __rt_exit                  0x0000c1c7   Gb    1  Code  De 
    337  __rt_exit_ls               0x0000c1c9   Gb    1  Code  Hi 
    338  __rt_exit_prels_1          0x0000c1c9   Gb    1  Code  Hi 
    339  __rt_exit_exit             0x0000c1cd   Gb    1  Code  Hi 
    340  __user_initial_stackheap   0x0000c1d5   Gb    1  Code  Hi   0xa
    341  __use_two_region_memory    0x0000c1ed   Gb    1  Code  Hi   0x2
    342  __rt_heap_escrow$2region   0x0000c1ef   Gb    1  Code  De   0x2
    343  __rt_heap_expand$2region   0x0000c1f1   Gb    1  Code  De   0x2
    344  __user_setup_stackheap     0x0000c1f3   Gb    1  Code  De   0x4a
    345  exit                       0x0000c23d   Gb    1  Code  De   0x12
    346  __user_libspace            0x0000c251   Wk    1  Code  De   0x8
    347  __user_perproc_libspace    0x0000c251   Wk    1  Code  De 
    348  __user_perthread_libspace  0x0000c251   Wk    1  Code  De 
    349  _sys_exit                  0x0000c259   Gb    1  Code  De   0x8
    350  __I$use$semihosting        0x0000c265   Gb    1  Code  Hi 
    351  __use_no_semihosting_swi   0x0000c265   Gb    1  Code  Hi   0x2
    352  __semihosting_library_function
                                    0x0000c267   Gb    1  Code  Hi 
    353  HardFault_Handler          0x0000c269   Gb    1  Code  Hi   0x1a
    354  am_bsp_iom_pins_disable    0x0000c2ed   Gb    1  Code  Hi   0x1b6
    355  am_bsp_iom_pins_enable     0x0000c4a5   Gb    1  Code  Hi   0x2ae
    356  am_bsp_itm_printf_enable   0x0000c753   Gb    1  Code  Hi   0x44
    357  am_bsp_low_power_init      0x0000c799   Gb    1  Code  Hi   0x46
    358  am_ctimer_isr              0x0000c7e1   Gb    1  Code  Hi   0x24
    359  am_devices_mb85rc256v_blocking_read
                                    0x0000c8f1   Gb    1  Code  Hi   0x4c
    360  am_devices_mb85rc256v_blocking_write
                                    0x0000c93d   Gb    1  Code  Hi   0x4c
    361  am_devices_mb85rc256v_init 0x0000c989   Gb    1  Code  Hi   0x130
    362  am_devices_mb85rc256v_nonblocking_read
                                    0x0000cab9   Gb    1  Code  Hi   0x6a
    363  am_devices_mb85rc256v_nonblocking_write
                                    0x0000cb25   Gb    1  Code  Hi   0x6a
    364  am_devices_mb85rc256v_read_id
                                    0x0000cb91   Gb    1  Code  Hi   0x42
    365  am_devices_mb85rc256v_term 0x0000cbd5   Gb    1  Code  Hi   0x54
    366  am_hal_burst_ldo_charge    0x0000cc29   Gb    1  Code  Hi   0xac
    367  am_hal_burst_ldo_patch_check
                                    0x0000ccd5   Gb    1  Code  Hi   0x16
    368  am_hal_burst_mode_disable  0x0000cceb   Gb    1  Code  Hi   0x70
    369  am_hal_burst_mode_disable_w_manual_sequence
                                    0x0000cd5b   Gb    1  Code  Hi   0x50
    370  am_hal_burst_mode_enable   0x0000cdab   Gb    1  Code  Hi   0x76
    371  am_hal_burst_mode_enable_w_manual_sequence
                                    0x0000ce21   Gb    1  Code  Hi   0x148
    372  am_hal_cachectrl_config    0x0000cf69   Gb    1  Code  Hi   0x48
    373  am_hal_cachectrl_control   0x0000cfb1   Gb    1  Code  Hi   0x16c
    374  am_hal_cachectrl_enable    0x0000d11d   Gb    1  Code  Hi   0x14
    375  am_hal_clkgen_control      0x0000d131   Gb    1  Code  Hi   0x138
    376  am_hal_clkgen_status_get   0x0000d269   Gb    1  Code  Hi   0x38
    377  am_hal_cmdq_alloc_block    0x0000d2a1   Gb    1  Code  Hi   0x9a
    378  am_hal_cmdq_disable        0x0000d33b   Gb    1  Code  Hi   0x34
    379  am_hal_cmdq_enable         0x0000d36f   Gb    1  Code  Hi   0x34
    380  am_hal_cmdq_error_resume   0x0000d3a5   Gb    1  Code  Hi   0x64
    381  am_hal_cmdq_get_status     0x0000d409   Gb    1  Code  Hi   0x68
    382  am_hal_cmdq_init           0x0000d471   Gb    1  Code  Hi   0xbe
    383  am_hal_cmdq_post_block     0x0000d52f   Gb    1  Code  Hi   0x48
    384  am_hal_cmdq_release_block  0x0000d577   Gb    1  Code  Hi   0x30
    385  am_hal_cmdq_term           0x0000d5a7   Gb    1  Code  Hi   0x56
    386  am_hal_ctimer_clear        0x0000d5fd   Gb    1  Code  Hi   0x2c
    387  am_hal_ctimer_config       0x0000d629   Gb    1  Code  Hi   0x76
    388  am_hal_ctimer_int_clear    0x0000d69f   Gb    1  Code  Hi   0x22
    389  am_hal_ctimer_int_disable  0x0000d6c1   Gb    1  Code  Hi   0x26
    390  am_hal_ctimer_int_enable   0x0000d6e7   Gb    1  Code  Hi   0x26
    391  am_hal_ctimer_int_register 0x0000d70d   Gb    1  Code  Hi   0x188
    392  am_hal_ctimer_int_service  0x0000d8cd   Gb    1  Code  Hi   0x32
    393  am_hal_ctimer_int_status_get
                                    0x0000d8ff   Gb    1  Code  Hi   0x28
    394  am_hal_ctimer_period_set   0x0000d927   Gb    1  Code  Hi   0x72
    395  am_hal_ctimer_start        0x0000d999   Gb    1  Code  Hi   0x60
    396  am_hal_debug_error         0x0000d9f9   Wk    1  Code  Hi   0x2
    397  am_hal_flash_delay         0x0000d9fb   Gb    1  Code  Hi   0x2a
    398  am_hal_flash_delay_status_check
                                    0x0000da25   Gb    1  Code  Hi   0x70
    399  am_hal_flash_load_ui32     0x0000da95   Gb    1  Code  Hi   0x8
    400  am_hal_flash_store_ui32    0x0000da9d   Gb    1  Code  Hi   0x22
    401  am_hal_gpio_pinconfig      0x0000dac1   Gb    1  Code  Hi   0x212
    402  am_hal_gpio_state_write    0x0000dcd5   Gb    1  Code  Hi   0x98
    403  am_hal_interrupt_master_disable
                                    0x0000dd6d   Gb    1  Code  Hi   0x8
    404  am_hal_interrupt_master_enable
                                    0x0000dd75   Gb    1  Code  Hi   0x8
    405  am_hal_interrupt_master_set
                                    0x0000dd7d   Gb    1  Code  Hi   0x6
    406  am_hal_iom_CQAddTransaction
                                    0x0000dd83   Gb    1  Code  Hi   0x182
    407  am_hal_iom_CQEnable        0x0000df05   Gb    1  Code  Hi   0x22
    408  am_hal_iom_CQInit          0x0000df27   Gb    1  Code  Hi   0x38
    409  am_hal_iom_blocking_transfer
                                    0x0000df5f   Gb    1  Code  Hi   0x324
    410  am_hal_iom_configure       0x0000e283   Gb    1  Code  Hi   0x2a4
    411  am_hal_iom_disable         0x0000e527   Gb    1  Code  Hi   0x72
    412  am_hal_iom_enable          0x0000e599   Gb    1  Code  Hi   0xae
    413  am_hal_iom_initialize      0x0000e647   Gb    1  Code  Hi   0x48
    414  am_hal_iom_interrupt_clear 0x0000e68f   Gb    1  Code  Hi   0x2a
    415  am_hal_iom_interrupt_service
                                    0x0000e6b9   Gb    1  Code  Hi   0x28e
    416  am_hal_iom_interrupt_status_get
                                    0x0000e947   Gb    1  Code  Hi   0x4a
    417  am_hal_iom_nonblocking_transfer
                                    0x0000e991   Gb    1  Code  Hi   0x17e
    418  am_hal_iom_power_ctrl      0x0000eb0f   Gb    1  Code  Hi   0x1f0
    419  am_hal_iom_uninitialize    0x0000ecff   Gb    1  Code  Hi   0x32
    420  am_hal_itm_enable          0x0000ed31   Gb    1  Code  Hi   0x42
    421  am_hal_itm_print           0x0000ed75   Gb    1  Code  Hi   0x2e
    422  am_hal_mcuctrl_control     0x0000eda5   Gb    1  Code  Hi   0x15e
    423  am_hal_mcuctrl_info_get    0x0000ef03   Gb    1  Code  Hi   0x11a
    424  am_hal_pwrctrl_blebuck_trim
                                    0x0000f01d   Gb    1  Code  Hi   0x52
    425  am_hal_pwrctrl_bleif_workaround
                                    0x0000f06f   Gb    1  Code  Hi   0x74
    426  am_hal_pwrctrl_ldo_vddx_active_trim_adj_default
                                    0x0000f0e3   Gb    1  Code  Hi   0xac
    427  am_hal_pwrctrl_low_power_init
                                    0x0000f18f   Gb    1  Code  Hi   0x144
    428  am_hal_pwrctrl_periph_disable
                                    0x0000f2d5   Gb    1  Code  Hi   0x9e
    429  am_hal_pwrctrl_periph_enable
                                    0x0000f375   Gb    1  Code  Hi   0x6e
    430  am_hal_pwrctrl_simobuck_vddx_active_trim_adj_default
                                    0x0000f3e3   Gb    1  Code  Hi   0xac
    431  am_hal_pwrctrl_wa_vddf_boost
                                    0x0000f48f   Gb    1  Code  Hi   0x3e
    432  am_hal_pwrctrl_wa_vddf_restore
                                    0x0000f4cd   Gb    1  Code  Hi   0x3e
    433  am_hal_rtc_osc_disable     0x0000f50b   Gb    1  Code  Hi   0x12
    434  am_hal_sysctrl_sleep       0x0000f51d   Gb    1  Code  Hi   0xa8
    435  am_hal_tpiu_enable         0x0000f5c5   Gb    1  Code  Hi   0x94
    436  am_iomaster3_isr           0x0000f659   Gb    1  Code  Hi   0x44
    437  am_util_faultisr_collect_data
                                    0x0000f69d   Gb    1  Code  Hi   0xd2
    438  am_util_stdio_printf       0x0000f771   Gb    1  Code  Hi   0x5c
    439  am_util_stdio_printf_init  0x0000f7cd   Gb    1  Code  Hi   0x14
    440  am_util_stdio_terminal_clear
                                    0x0000f7e1   Gb    1  Code  Hi   0x10
    441  am_util_stdio_vsprintf     0x0000f7f1   Gb    1  Code  Hi   0x654
    442  fram_init                  0x00010005   Gb    1  Code  Hi   0xae
    443  fram_term                  0x000100b5   Gb    1  Code  Hi   0x1a
    444  getStackedReg              0x00010301   Gb    1  Code  Hi   0x8
    445  init_pattern               0x00010309   Gb    1  Code  Hi   0x2a
    446  initiate_fram_read         0x00010335   Gb    1  Code  Hi   0xe
    447  main                       0x0001045d   Gb    1  Code  Hi   0x248
    448  read_complete              0x00010815   Gb    1  Code  Hi   0x3c
    449  read_fram                  0x00010851   Gb    1  Code  Hi   0x50
    450  timerA0_init               0x000109e1   Gb    1  Code  Hi   0x42
    451  validate_transaction       0x00010ba3   Gb    1  Code  Hi   0x8c
    452  verify_fram_data           0x00010c31   Gb    1  Code  Hi   0x78
    453  write_complete             0x00010ca9   Gb    1  Code  Hi   0x30
    454  write_fram                 0x00010cd9   Gb    1  Code  Hi   0x50
    455  __aeabi_d2f                0x00010d29   Gb    1  Code  De 
    456  _d2f                       0x00010d29   Gb    1  Code  De   0x62
    457  __fpl_dnaninf              0x00010d8b   Gb    1  Code  De   0x9c
    458  _fp_init                   0x00010e27   Gb    1  Code  De   0x1a
    459  __fplib_config_fpu_vfp     0x00010e3f   Gb    1  Code  De 
    460  __fplib_config_pureend_doubles
                                    0x00010e3f   Gb    1  Code  De 
    461  __fpl_fretinf              0x00010e41   Gb    1  Code  De   0xa
    462  __I$use$fp                 0x00010e4a   Gb    1   --   De 
    463  am_hal_cachectrl_defaults  0x00010e58   Gb    1  Data  Hi   0x3
    464  am_hal_pwrctrl_peripheral_control
                                    0x00010e5c   Gb    1  Data  Hi   0xcc
    465  g_AM_BSP_GPIO_DSPL1_CS     0x000110b8   Gb    1  Data  Hi   0x4
    466  g_AM_BSP_GPIO_DSPL1_SCL    0x000110bc   Gb    1  Data  Hi   0x4
    467  g_AM_BSP_GPIO_DSPL1_SDI    0x000110c0   Gb    1  Data  Hi   0x4
    468  g_AM_BSP_GPIO_DSPL1_SDO    0x000110c4   Gb    1  Data  Hi   0x4
    469  g_AM_BSP_GPIO_FLASH2_CS    0x000110c8   Gb    1  Data  Hi   0x4
    470  g_AM_BSP_GPIO_FLASH2_MISO  0x000110cc   Gb    1  Data  Hi   0x4
    471  g_AM_BSP_GPIO_FLASH2_MOSI  0x000110d0   Gb    1  Data  Hi   0x4
    472  g_AM_BSP_GPIO_FLASH2_SCK   0x000110d4   Gb    1  Data  Hi   0x4
    473  g_AM_BSP_GPIO_FT_BRIDGE_MISO
                                    0x000110d8   Gb    1  Data  Hi   0x4
    474  g_AM_BSP_GPIO_FT_BRIDGE_MOSI
                                    0x000110dc   Gb    1  Data  Hi   0x4
    475  g_AM_BSP_GPIO_FT_BRIDGE_SCK
                                    0x000110e0   Gb    1  Data  Hi   0x4
    476  g_AM_BSP_GPIO_FT_BRIDGE_SS 0x000110e4   Gb    1  Data  Hi   0x4
    477  g_AM_BSP_GPIO_IOM0_SCL     0x000110e8   Gb    1  Data  Hi   0x4
    478  g_AM_BSP_GPIO_IOM0_SDA     0x000110ec   Gb    1  Data  Hi   0x4
    479  g_AM_BSP_GPIO_IOM1_CS      0x000110f0   Gb    1  Data  Hi   0x4
    480  g_AM_BSP_GPIO_IOM1_MISO    0x000110f4   Gb    1  Data  Hi   0x4
    481  g_AM_BSP_GPIO_IOM1_MOSI    0x000110f8   Gb    1  Data  Hi   0x4
    482  g_AM_BSP_GPIO_IOM1_SCK     0x000110fc   Gb    1  Data  Hi   0x4
    483  g_AM_BSP_GPIO_IOM1_SCL     0x00011100   Gb    1  Data  Hi   0x4
    484  g_AM_BSP_GPIO_IOM1_SDA     0x00011104   Gb    1  Data  Hi   0x4
    485  g_AM_BSP_GPIO_IOM2_SCL     0x00011108   Gb    1  Data  Hi   0x4
    486  g_AM_BSP_GPIO_IOM2_SDA     0x0001110c   Gb    1  Data  Hi   0x4
    487  g_AM_BSP_GPIO_IOM3_CS      0x00011110   Gb    1  Data  Hi   0x4
    488  g_AM_BSP_GPIO_IOM3_MISO    0x00011114   Gb    1  Data  Hi   0x4
    489  g_AM_BSP_GPIO_IOM3_MOSI    0x00011118   Gb    1  Data  Hi   0x4
    490  g_AM_BSP_GPIO_IOM3_SCK     0x0001111c   Gb    1  Data  Hi   0x4
    491  g_AM_BSP_GPIO_IOM4_CS      0x00011120   Gb    1  Data  Hi   0x4
    492  g_AM_BSP_GPIO_IOM4_MISO    0x00011124   Gb    1  Data  Hi   0x4
    493  g_AM_BSP_GPIO_IOM4_MOSI    0x00011128   Gb    1  Data  Hi   0x4
    494  g_AM_BSP_GPIO_IOM4_SCK     0x0001112c   Gb    1  Data  Hi   0x4
    495  g_AM_BSP_GPIO_IOM4_SCL     0x00011130   Gb    1  Data  Hi   0x4
    496  g_AM_BSP_GPIO_IOM4_SDA     0x00011134   Gb    1  Data  Hi   0x4
    497  g_AM_BSP_GPIO_IOM5_SCL     0x00011138   Gb    1  Data  Hi   0x4
    498  g_AM_BSP_GPIO_IOM5_SDA     0x0001113c   Gb    1  Data  Hi   0x4
    499  g_AM_BSP_GPIO_ITM_SWO      0x00011140   Gb    1  Data  Hi   0x4
    500  g_AM_BSP_GPIO_PGA0_POT_CS  0x00011144   Gb    1  Data  Hi   0x4
    501  g_AM_BSP_GPIO_PGA1_POT_CS  0x00011148   Gb    1  Data  Hi   0x4
    502  g_AM_BSP_GPIO_PGA_POTS_CLK 0x0001114c   Gb    1  Data  Hi   0x4
    503  g_AM_BSP_GPIO_PGA_POTS_SDI 0x00011150   Gb    1  Data  Hi   0x4
    504  g_AM_BSP_GPIO_PS_FRAM_SCL  0x00011154   Gb    1  Data  Hi   0x4
    505  g_AM_BSP_GPIO_PS_FRAM_SDA  0x00011158   Gb    1  Data  Hi   0x4
    506  g_AM_HAL_GPIO_DISABLE      0x0001115c   Gb    1  Data  Hi   0x4
    507  g_AM_HAL_GPIO_OUTPUT       0x00011160   Gb    1  Data  Hi   0x4
    508  g_am_hal_mcuctrl_flash_size
                                    0x00011164   Gb    1  Data  Hi   0x40
    509  g_am_hal_mcuctrl_sram_size 0x000111a4   Gb    1  Data  Hi   0x40
    510  Region$$Table$$Base        0x0001158c   Gb    1   --   Hi 
    511  Region$$Table$$Limit       0x000115bc   Gb    1   --   Hi 
    512  am_bsp_psLEDs              0x10011000   Gb    2  Data  Hi   0x28
    513  device_func                0x10011028   Gb    2  Data  Hi   0x30
    514  g_bWriteFram               0x10011058   Gb    2  Data  Hi   0x1
    515  g_sIomMb85rc256vCfg        0x1001105c   Gb    2  Data  Hi   0x14
    516  g_sTimer0                  0x10011070   Gb    2  Data  Hi   0xc
    517  iom_test_speeds            0x1001108c   Gb    2  Data  Hi   0x50
    518  __libspace_start           0x100110e0   Gb    3  Data  De   0x60
    519  DMATCBBuffer               0x10011140   Gb    3  Data  Hi   0x400
    520  __temporary_stack_top$libspace
                                    0x10011140   Gb    3  Data  De 
    521  gAmHalResetStatus          0x100116f8   Gb    3  Data  Hi   0x4
    522  gAmMb85rc256v              0x100116fc   Gb    3  Data  Hi   0xc
    523  gPatternBuf                0x10011708   Gb    3  Data  Hi   0x80
    524  gRxBuf                     0x10011788   Gb    3  Data  Hi   0x80
    525  g_IOMhandles               0x10011808   Gb    3  Data  Hi   0x33d8
    526  g_IomDevHdl                0x10014be0   Gb    3  Data  Hi   0x4
    527  g_am_hal_burst_mode_available
                                    0x10014be4   Gb    3  Data  Hi   0x1
    528  g_am_hal_sysctrl_sleep_count
                                    0x10014c68   Gb    3  Data  Hi   0x4
    529  g_bReadFram                0x10014c6e   Gb    3  Data  Hi   0x1
    530  g_bSimobuckTrimsDone       0x10014c6f   Gb    3  Data  Hi   0x1
    531  g_bVddfTrimsDone           0x10014c71   Gb    3  Data  Hi   0x1
    532  g_bVerifyReadData          0x10014c72   Gb    3  Data  Hi   0x1
    533  g_bWriteComplete           0x10014c73   Gb    3  Data  Hi   0x1
    534  g_pIOMHandle               0x10014c74   Gb    3  Data  Hi   0x4
    535  g_pfnCharPrint             0x10014c78   Gb    3  Data  Hi   0x4
    536  g_ui32ClockFreq            0x1001507c   Gb    3  Data  Hi   0x4


** Section #12 '.strtab' (SHT_STRTAB)
    Size   : 9516 bytes

            #  Offset String
        ====================================

            1      1: $d
            2      4: $t
            3      7: $t.0
            4     12: $d.12
            5     18: $t.13
            6     24: $d.9
            7     29: $t.10
            8     35: $d.4
            9     40: $t.5
           10     45: $d.1
           11     50: $t.2
           12     55: $d.2
           13     60: $t.3
           14     65: $d.6
           15     70: $t.7
           16     75: $d.3
           17     80: $t.4
           18     85: $d.5
           19     90: $t.6
           20     95: $d.realdata
           21    107: iom_power_example.c
           22    127: __NVIC_EnableIRQ
           23    144: __NVIC_DisableIRQ
           24    162: .L.str.15
           25    172: .L.str.17
           26    182: .L.str.18
           27    192: .L.str.10
           28    202: .L.str.20
           29    212: .L.str.19
           30    222: .L.str.16
           31    232: .L.str.14
           32    242: .L.str.12
           33    252: .L.str.11
           34    262: .L.str.13
           35    272: am_util_delay.c
           36    288: am_util_faultisr.c
           37    307: am_util_stdio.c
           38    323: decstr_to_int
           39    337: simple_strlen
           40    351: padbuffer
           41    361: ndigits_in_hex
           42    376: uint64_to_hexstr
           43    393: ndigits_in_u64
           44    408: uint64_to_str
           45    422: ndigits_in_i64
           46    437: ftoa
           47    442: divu64_10
           48    452: g_bTxtXlate
           49    464: g_prfbuf
           50    473: .L.str
           51    480: am_devices_mb85rc256v.c
           52    504: am_device_command_read
           53    527: am_device_command_write
           54    551: ../keil6/startup_keil6.s
           55    576: STACK
           56    582: StackMem
           57    591: HEAP
           58    596: HeapMem
           59    604: RESET
           60    610: $v0
           61    614: .text
           62    620: am_hal_global.c
           63    636: am_bsp.c
           64    645: g_ui32PrintInterface
           65    666: am_hal_cachectrl.c
           66    685: set_LPMMODE
           67    697: set_SEDELAY
           68    709: set_RDWAIT
           69    720: am_hal_clkgen.c
           70    736: am_hal_ctimer.c
           71    752: g_am_hal_ctimer_ppfnHandlers
           72    781: g_ui8ClkSrc
           73    793: am_hal_flash.c
           74    808: .L__const.am_hal_flash_store_ui32.SRAM_write_ui32
           75    858: am_hal_gpio.c
           76    872: g_ui8Bit76Capabilities
           77    895: g_ui8Inpen
           78    906: g_ui8nCEpins
           79    919: g_ui8NCEtable
           80    933: am_hal_interrupt.c
           81    952: am_hal_iom.c
           82    965: internal_iom_reset_on_error
           83    993: program_dma
           84   1005: iom_dummy_callback
           85   1024: am_hal_mcuctrl.c
           86   1041: am_hal_sysctrl.c
           87   1058: am_bsp_pins.c
           88   1072: am_hal_burst.c
           89   1087: g_bEnFromManual
           90   1103: g_bDisFromManual
           91   1120: am_hal_cmdq.c
           92   1134: update_indices
           93   1149: gAmHalCmdq
           94   1160: gAmHalCmdQReg
           95   1174: am_hal_debug.c
           96   1189: am_hal_itm.c
           97   1202: am_hal_pwrctrl.c
           98   1219: am_hal_reset.c
           99   1234: am_hal_rtc.c
          100   1247: am_hal_tpiu.c
          101   1261: am_hal_uart.c
          102   1275: am_hal_queue.c
          103   1290: dc.s
          104   1295: ../clib/heapaux.c
          105   1313: ../clib/angel/startup.s
          106   1337: !!!main
          107   1345: ../clib/angel/handlers.s
          108   1370: !!handler_copy
          109   1385: ../fplib/d2f.s
          110   1400: x$fpl$d2f
          111   1410: ../clib/angel/kernel.s
          112   1433: .ARM.Collect$$rtentry$$00000000
          113   1465: ../fplib/dnaninf.s
          114   1484: x$fpl$dnaninf
          115   1498: ../fplib/fretinf.s
          116   1517: x$fpl$fretinf
          117   1531: ../fplib/usenofp.s
          118   1550: x$fpl$usenofp
          119   1564: .ARM.Collect$$rtentry$$00000002
          120   1596: .ARM.Collect$$rtentry$$00000009
          121   1628: .ARM.Collect$$rtentry$$0000000A
          122   1660: .ARM.Collect$$rtentry$$0000000C
          123   1692: .ARM.Collect$$rtentry$$0000000D
          124   1724: .ARM.Collect$$rtentry$$00000004
          125   1756: ../clib/angel/sys.s
          126   1776: ../clib/stdlib.c
          127   1793: ../clib/angel/boardlib.s
          128   1818: ../clib/libinit.s
          129   1836: .ARM.Collect$$libinit$$00000000
          130   1868: .bss
          131   1873: .ARM.Collect$$rtexit$$00000000
          132   1904: .ARM.Collect$$libinit$$00000001
          133   1936: .ARM.Collect$$libinit$$00000004
          134   1968: .ARM.Collect$$libinit$$0000000A
          135   2000: .ARM.Collect$$libinit$$0000000C
          136   2032: .ARM.Collect$$libinit$$0000000E
          137   2064: .ARM.Collect$$libinit$$00000011
          138   2096: .ARM.Collect$$libinit$$00000013
          139   2128: .ARM.Collect$$libinit$$00000015
          140   2160: .ARM.Collect$$libinit$$00000017
          141   2192: .ARM.Collect$$libinit$$00000019
          142   2224: .ARM.Collect$$libinit$$0000001B
          143   2256: .ARM.Collect$$libinit$$0000001D
          144   2288: .ARM.Collect$$libinit$$0000001F
          145   2320: .ARM.Collect$$libinit$$00000021
          146   2352: .ARM.Collect$$libinit$$00000023
          147   2384: .ARM.Collect$$libinit$$00000025
          148   2416: .ARM.Collect$$libinit$$0000002C
          149   2448: .ARM.Collect$$libinit$$0000002E
          150   2480: .ARM.Collect$$libinit$$00000030
          151   2512: .ARM.Collect$$libinit$$00000032
          152   2544: .ARM.Collect$$libinit$$00000033
          153   2576: .ARM.Collect$$rtexit$$00000002
          154   2607: .ARM.Collect$$rtexit$$00000003
          155   2638: .ARM.Collect$$rtexit$$00000004
          156   2669: ../clib/armsys.c
          157   2686: ../fplib/fpinit.s
          158   2704: x$fpl$fpinit
          159   2717: ../clib/angel/sysapp.c
          160   2740: .ARM.Collect$$libshutdown$$00000000
          161   2776: ../clib/heapalloc.c
          162   2796: ../clib/signal.c
          163   2813: .ARM.Collect$$libshutdown$$00000002
          164   2849: .ARM.Collect$$libshutdown$$00000004
          165   2885: .ARM.Collect$$libshutdown$$00000007
          166   2921: .ARM.Collect$$libshutdown$$0000000A
          167   2957: .ARM.Collect$$libshutdown$$0000000C
          168   2993: .ARM.Collect$$libshutdown$$0000000F
          169   3029: .ARM.Collect$$libshutdown$$00000010
          170   3065: ../clib/angel/rt.s
          171   3084: ../clib/signal.s
          172   3101: ../clib/angel/scatter.s
          173   3125: !!!scatter
          174   3136: !!handler_zi
          175   3149: BuildAttributes$$THM_ISAv4$E$P$D$K$B$S$7EM$VFPi3$EXTD16$VFPS$VFMA$PE$A:L22UL41UL21$X:L11$S22US41US21$IEEE1$IW$~IW$USESV6$~STKCKD$USESV7$~SHL$OSPACE$ROPI$EBA8$UX$STANDARDLIB$REQ8$PRES8$EABIv2
          176   3340: __Vectors
          177   3350: __Patchable
          178   3362: Reset_Handler
          179   3376: NMI_Handler
          180   3388: MemManage_Handler
          181   3406: BusFault_Handler
          182   3423: UsageFault_Handler
          183   3442: SVC_Handler
          184   3454: DebugMon_Handler
          185   3471: PendSV_Handler
          186   3486: SysTick_Handler
          187   3502: am_adc_isr
          188   3513: am_ble_isr
          189   3524: am_brownout_isr
          190   3540: am_clkgen_isr
          191   3554: am_gpio_isr
          192   3566: am_iomaster0_isr
          193   3583: am_iomaster1_isr
          194   3600: am_iomaster2_isr
          195   3617: am_iomaster4_isr
          196   3634: am_iomaster5_isr
          197   3651: am_ioslave_acc_isr
          198   3670: am_ioslave_ios_isr
          199   3689: am_mspi0_isr
          200   3702: am_mspi1_isr
          201   3715: am_mspi2_isr
          202   3728: am_pdm0_isr
          203   3740: am_rtc_isr
          204   3751: am_scard_isr
          205   3764: am_software0_isr
          206   3781: am_stimer_cmpr0_isr
          207   3801: am_stimer_cmpr1_isr
          208   3821: am_stimer_cmpr2_isr
          209   3841: am_stimer_cmpr3_isr
          210   3861: am_stimer_cmpr4_isr
          211   3881: am_stimer_cmpr5_isr
          212   3901: am_stimer_cmpr6_isr
          213   3921: am_stimer_cmpr7_isr
          214   3941: am_stimer_isr
          215   3955: am_uart0_isr
          216   3968: am_uart1_isr
          217   3981: am_uart_isr
          218   3993: am_vcomp_isr
          219   4006: am_watchdog_isr
          220   4022: __main
          221   4029: __scatterload
          222   4043: __scatterload_rt2
          223   4061: __scatterload_rt2_thumb_only
          224   4090: __scatterload_null
          225   4109: __scatterload_copy
          226   4128: __scatterload_zeroinit
          227   4151: __rt_lib_init
          228   4165: __rt_lib_init_fp_1
          229   4184: __rt_lib_init_alloca_1
          230   4207: __rt_lib_init_argv_1
          231   4228: __rt_lib_init_atexit_1
          232   4251: __rt_lib_init_clock_1
          233   4273: __rt_lib_init_cpp_1
          234   4293: __rt_lib_init_exceptions_1
          235   4320: __rt_lib_init_fp_trap_1
          236   4344: __rt_lib_init_getenv_1
          237   4367: __rt_lib_init_heap_1
          238   4388: __rt_lib_init_lc_collate_1
          239   4415: __rt_lib_init_lc_ctype_1
          240   4440: __rt_lib_init_lc_monetary_1
          241   4468: __rt_lib_init_lc_numeric_1
          242   4495: __rt_lib_init_lc_time_1
          243   4519: __rt_lib_init_preinit_1
          244   4543: __rt_lib_init_rand_1
          245   4564: __rt_lib_init_return
          246   4585: __rt_lib_init_signal_1
          247   4608: __rt_lib_init_stdio_1
          248   4630: __rt_lib_init_user_alloc_1
          249   4657: __rt_lib_shutdown
          250   4675: __rt_lib_shutdown_cpp_1
          251   4699: __rt_lib_shutdown_fp_trap_1
          252   4727: __rt_lib_shutdown_heap_1
          253   4752: __rt_lib_shutdown_return
          254   4777: __rt_lib_shutdown_signal_1
          255   4804: __rt_lib_shutdown_stdio_1
          256   4830: __rt_lib_shutdown_user_alloc_1
          257   4861: __rt_entry
          258   4872: __rt_entry_presh_1
          259   4891: __rt_entry_sh
          260   4905: __rt_entry_li
          261   4919: __rt_entry_postsh_1
          262   4939: __rt_entry_main
          263   4955: __rt_entry_postli_1
          264   4975: __rt_exit
          265   4985: __rt_exit_ls
          266   4998: __rt_exit_prels_1
          267   5016: __rt_exit_exit
          268   5031: __user_initial_stackheap
          269   5056: __use_two_region_memory
          270   5080: __rt_heap_escrow$2region
          271   5105: __rt_heap_expand$2region
          272   5130: __user_setup_stackheap
          273   5153: exit
          274   5158: __user_libspace
          275   5174: __user_perproc_libspace
          276   5198: __user_perthread_libspace
          277   5224: _sys_exit
          278   5234: __I$use$semihosting
          279   5254: __use_no_semihosting_swi
          280   5279: __semihosting_library_function
          281   5310: HardFault_Handler
          282   5328: am_bsp_iom_pins_disable
          283   5352: am_bsp_iom_pins_enable
          284   5375: am_bsp_itm_printf_enable
          285   5400: am_bsp_low_power_init
          286   5422: am_ctimer_isr
          287   5436: am_devices_mb85rc256v_blocking_read
          288   5472: am_devices_mb85rc256v_blocking_write
          289   5509: am_devices_mb85rc256v_init
          290   5536: am_devices_mb85rc256v_nonblocking_read
          291   5575: am_devices_mb85rc256v_nonblocking_write
          292   5615: am_devices_mb85rc256v_read_id
          293   5645: am_devices_mb85rc256v_term
          294   5672: am_hal_burst_ldo_charge
          295   5696: am_hal_burst_ldo_patch_check
          296   5725: am_hal_burst_mode_disable
          297   5751: am_hal_burst_mode_disable_w_manual_sequence
          298   5795: am_hal_burst_mode_enable
          299   5820: am_hal_burst_mode_enable_w_manual_sequence
          300   5863: am_hal_cachectrl_config
          301   5887: am_hal_cachectrl_control
          302   5912: am_hal_cachectrl_enable
          303   5936: am_hal_clkgen_control
          304   5958: am_hal_clkgen_status_get
          305   5983: am_hal_cmdq_alloc_block
          306   6007: am_hal_cmdq_disable
          307   6027: am_hal_cmdq_enable
          308   6046: am_hal_cmdq_error_resume
          309   6071: am_hal_cmdq_get_status
          310   6094: am_hal_cmdq_init
          311   6111: am_hal_cmdq_post_block
          312   6134: am_hal_cmdq_release_block
          313   6160: am_hal_cmdq_term
          314   6177: am_hal_ctimer_clear
          315   6197: am_hal_ctimer_config
          316   6218: am_hal_ctimer_int_clear
          317   6242: am_hal_ctimer_int_disable
          318   6268: am_hal_ctimer_int_enable
          319   6293: am_hal_ctimer_int_register
          320   6320: am_hal_ctimer_int_service
          321   6346: am_hal_ctimer_int_status_get
          322   6375: am_hal_ctimer_period_set
          323   6400: am_hal_ctimer_start
          324   6420: am_hal_debug_error
          325   6439: am_hal_flash_delay
          326   6458: am_hal_flash_delay_status_check
          327   6490: am_hal_flash_load_ui32
          328   6513: am_hal_flash_store_ui32
          329   6537: am_hal_gpio_pinconfig
          330   6559: am_hal_gpio_state_write
          331   6583: am_hal_interrupt_master_disable
          332   6615: am_hal_interrupt_master_enable
          333   6646: am_hal_interrupt_master_set
          334   6674: am_hal_iom_CQAddTransaction
          335   6702: am_hal_iom_CQEnable
          336   6722: am_hal_iom_CQInit
          337   6740: am_hal_iom_blocking_transfer
          338   6769: am_hal_iom_configure
          339   6790: am_hal_iom_disable
          340   6809: am_hal_iom_enable
          341   6827: am_hal_iom_initialize
          342   6849: am_hal_iom_interrupt_clear
          343   6876: am_hal_iom_interrupt_service
          344   6905: am_hal_iom_interrupt_status_get
          345   6937: am_hal_iom_nonblocking_transfer
          346   6969: am_hal_iom_power_ctrl
          347   6991: am_hal_iom_uninitialize
          348   7015: am_hal_itm_enable
          349   7033: am_hal_itm_print
          350   7050: am_hal_mcuctrl_control
          351   7073: am_hal_mcuctrl_info_get
          352   7097: am_hal_pwrctrl_blebuck_trim
          353   7125: am_hal_pwrctrl_bleif_workaround
          354   7157: am_hal_pwrctrl_ldo_vddx_active_trim_adj_default
          355   7205: am_hal_pwrctrl_low_power_init
          356   7235: am_hal_pwrctrl_periph_disable
          357   7265: am_hal_pwrctrl_periph_enable
          358   7294: am_hal_pwrctrl_simobuck_vddx_active_trim_adj_default
          359   7347: am_hal_pwrctrl_wa_vddf_boost
          360   7376: am_hal_pwrctrl_wa_vddf_restore
          361   7407: am_hal_rtc_osc_disable
          362   7430: am_hal_sysctrl_sleep
          363   7451: am_hal_tpiu_enable
          364   7470: am_iomaster3_isr
          365   7487: am_util_faultisr_collect_data
          366   7517: am_util_stdio_printf
          367   7538: am_util_stdio_printf_init
          368   7564: am_util_stdio_terminal_clear
          369   7593: am_util_stdio_vsprintf
          370   7616: fram_init
          371   7626: fram_term
          372   7636: getStackedReg
          373   7650: init_pattern
          374   7663: initiate_fram_read
          375   7682: main
          376   7687: read_complete
          377   7701: read_fram
          378   7711: timerA0_init
          379   7724: validate_transaction
          380   7745: verify_fram_data
          381   7762: write_complete
          382   7777: write_fram
          383   7788: __aeabi_d2f
          384   7800: _d2f
          385   7805: __fpl_dnaninf
          386   7819: _fp_init
          387   7828: __fplib_config_fpu_vfp
          388   7851: __fplib_config_pureend_doubles
          389   7882: __fpl_fretinf
          390   7896: __I$use$fp
          391   7907: am_hal_cachectrl_defaults
          392   7933: am_hal_pwrctrl_peripheral_control
          393   7967: g_AM_BSP_GPIO_DSPL1_CS
          394   7990: g_AM_BSP_GPIO_DSPL1_SCL
          395   8014: g_AM_BSP_GPIO_DSPL1_SDI
          396   8038: g_AM_BSP_GPIO_DSPL1_SDO
          397   8062: g_AM_BSP_GPIO_FLASH2_CS
          398   8086: g_AM_BSP_GPIO_FLASH2_MISO
          399   8112: g_AM_BSP_GPIO_FLASH2_MOSI
          400   8138: g_AM_BSP_GPIO_FLASH2_SCK
          401   8163: g_AM_BSP_GPIO_FT_BRIDGE_MISO
          402   8192: g_AM_BSP_GPIO_FT_BRIDGE_MOSI
          403   8221: g_AM_BSP_GPIO_FT_BRIDGE_SCK
          404   8249: g_AM_BSP_GPIO_FT_BRIDGE_SS
          405   8276: g_AM_BSP_GPIO_IOM0_SCL
          406   8299: g_AM_BSP_GPIO_IOM0_SDA
          407   8322: g_AM_BSP_GPIO_IOM1_CS
          408   8344: g_AM_BSP_GPIO_IOM1_MISO
          409   8368: g_AM_BSP_GPIO_IOM1_MOSI
          410   8392: g_AM_BSP_GPIO_IOM1_SCK
          411   8415: g_AM_BSP_GPIO_IOM1_SCL
          412   8438: g_AM_BSP_GPIO_IOM1_SDA
          413   8461: g_AM_BSP_GPIO_IOM2_SCL
          414   8484: g_AM_BSP_GPIO_IOM2_SDA
          415   8507: g_AM_BSP_GPIO_IOM3_CS
          416   8529: g_AM_BSP_GPIO_IOM3_MISO
          417   8553: g_AM_BSP_GPIO_IOM3_MOSI
          418   8577: g_AM_BSP_GPIO_IOM3_SCK
          419   8600: g_AM_BSP_GPIO_IOM4_CS
          420   8622: g_AM_BSP_GPIO_IOM4_MISO
          421   8646: g_AM_BSP_GPIO_IOM4_MOSI
          422   8670: g_AM_BSP_GPIO_IOM4_SCK
          423   8693: g_AM_BSP_GPIO_IOM4_SCL
          424   8716: g_AM_BSP_GPIO_IOM4_SDA
          425   8739: g_AM_BSP_GPIO_IOM5_SCL
          426   8762: g_AM_BSP_GPIO_IOM5_SDA
          427   8785: g_AM_BSP_GPIO_ITM_SWO
          428   8807: g_AM_BSP_GPIO_PGA0_POT_CS
          429   8833: g_AM_BSP_GPIO_PGA1_POT_CS
          430   8859: g_AM_BSP_GPIO_PGA_POTS_CLK
          431   8886: g_AM_BSP_GPIO_PGA_POTS_SDI
          432   8913: g_AM_BSP_GPIO_PS_FRAM_SCL
          433   8939: g_AM_BSP_GPIO_PS_FRAM_SDA
          434   8965: g_AM_HAL_GPIO_DISABLE
          435   8987: g_AM_HAL_GPIO_OUTPUT
          436   9008: g_am_hal_mcuctrl_flash_size
          437   9036: g_am_hal_mcuctrl_sram_size
          438   9063: Region$$Table$$Base
          439   9083: Region$$Table$$Limit
          440   9104: am_bsp_psLEDs
          441   9118: device_func
          442   9130: g_bWriteFram
          443   9143: g_sIomMb85rc256vCfg
          444   9163: g_sTimer0
          445   9173: iom_test_speeds
          446   9189: __libspace_start
          447   9206: DMATCBBuffer
          448   9219: __temporary_stack_top$libspace
          449   9250: gAmHalResetStatus
          450   9268: gAmMb85rc256v
          451   9282: gPatternBuf
          452   9294: gRxBuf
          453   9301: g_IOMhandles
          454   9314: g_IomDevHdl
          455   9326: g_am_hal_burst_mode_available
          456   9356: g_am_hal_sysctrl_sleep_count
          457   9385: g_bReadFram
          458   9397: g_bSimobuckTrimsDone
          459   9418: g_bVddfTrimsDone
          460   9435: g_bVerifyReadData
          461   9453: g_bWriteComplete
          462   9470: g_pIOMHandle
          463   9483: g_pfnCharPrint
          464   9498: g_ui32ClockFreq
          465   9514: 
          466   9515: 


** Section #13 '.note' (SHT_NOTE)
    Size   : 32 bytes (alignment 4)


** Section #14 '.comment' (SHT_PROGBITS)
    Size   : 1624 bytes


** Section #15 '.shstrtab' (SHT_STRTAB)
    Size   : 144 bytes

            #  Offset String
        ====================================

            1      1: ROMEM
            2      7: RWMEM
            3     13: TCM
            4     17: STACKMEM
            5     26: .debug_abbrev
            6     40: .debug_frame
            7     53: .debug_info
            8     65: .debug_line
            9     77: .debug_str
           10     88: .debug_ranges
           11    102: .symtab
           12    110: .strtab
           13    118: .note
           14    124: .comment
           15    133: .shstrtab
           16    143: 


