
========================================================================

** ELF Header Information

    File Name: bin\freertos_lowpower.axf

    Machine class: ELFCLASS32 (32-bit)
    Data encoding: ELFDATA2LSB (Little endian)
    Header version: EV_CURRENT (Current version)
    Operating System ABI: none
    ABI Version: 0
    File Type: ET_EXEC (Executable) (2)
    Machine: EM_ARM (ARM)

    Image Entry point: 0x0000c135
    Flags: EF_ARM_HASENTRY + EF_ARM_ABI_FLOAT_HARD (0x05000402)

    ARM ELF revision: 5 (ABI version 2)

    Conforms to Hard float procedure-call standard

    Built with
    Component: ARM Compiler 6.16 Tool: armasm [5dfea300]
    Component: ARM Compiler 6.16 Tool: armlink [5dfeaa00]

    Header size: 52 bytes (0x34)
    Program header entry size: 32 bytes (0x20)
    Section header entry size: 40 bytes (0x28)

    Program header entries: 1
    Section header entries: 17

    Program header offset: 148088 (0x00024278)
    Section header offset: 148120 (0x00024298)

    Section header string table index: 16

========================================================================

** Program header #0 (PT_LOAD) [PF_X + PF_W + PF_R + PF_ARM_ENTRY]
    Size : 43080 bytes (20400 bytes in file)
    Virtual address: 0x0000c000 (Alignment 16)


========================================================================

** Section #1 'ROMEM' (SHT_PROGBITS) [SHF_ALLOC + SHF_EXECINSTR]
    Size   : 20352 bytes (alignment 16)
    Address: 0x0000c000

    $d
    RESET
    __Vectors
        0x0000c000:    10001000    ....    DCD    268439552
        0x0000c004:    0000c101    ....    DCD    49409
        0x0000c008:    0000c11f    ....    DCD    49439
        0x0000c00c:    0000c3b3    ....    DCD    50099
        0x0000c010:    0000c121    !...    DCD    49441
        0x0000c014:    0000c123    #...    DCD    49443
        0x0000c018:    0000c125    %...    DCD    49445
        0x0000c01c:    00000000    ....    DCD    0
        0x0000c020:    00000000    ....    DCD    0
        0x0000c024:    00000000    ....    DCD    0
        0x0000c028:    00000000    ....    DCD    0
        0x0000c02c:    0000c5e1    ....    DCD    50657
        0x0000c030:    0000c129    )...    DCD    49449
        0x0000c034:    00000000    ....    DCD    0
        0x0000c038:    0000c571    q...    DCD    50545
        0x0000c03c:    0000c605    ....    DCD    50693
        0x0000c040:    0000c12f    /...    DCD    49455
        0x0000c044:    0000c12f    /...    DCD    49455
        0x0000c048:    0000c12f    /...    DCD    49455
        0x0000c04c:    0000c12f    /...    DCD    49455
        0x0000c050:    0000c12f    /...    DCD    49455
        0x0000c054:    0000c12f    /...    DCD    49455
        0x0000c058:    0000c12f    /...    DCD    49455
        0x0000c05c:    0000c12f    /...    DCD    49455
        0x0000c060:    0000c12f    /...    DCD    49455
        0x0000c064:    0000c12f    /...    DCD    49455
        0x0000c068:    0000c12f    /...    DCD    49455
        0x0000c06c:    0000c12f    /...    DCD    49455
        0x0000c070:    0000c12f    /...    DCD    49455
        0x0000c074:    0000c7e3    ....    DCD    51171
        0x0000c078:    0000c6df    ....    DCD    50911
        0x0000c07c:    0000c12f    /...    DCD    49455
        0x0000c080:    0000c12f    /...    DCD    49455
        0x0000c084:    0000c12f    /...    DCD    49455
        0x0000c088:    0000c12f    /...    DCD    49455
        0x0000c08c:    0000c12f    /...    DCD    49455
        0x0000c090:    0000c12f    /...    DCD    49455
        0x0000c094:    0000c12f    /...    DCD    49455
        0x0000c098:    0000c12f    /...    DCD    49455
        0x0000c09c:    0000dde1    ....    DCD    56801
        0x0000c0a0:    0000ddff    ....    DCD    56831
        0x0000c0a4:    0000c12f    /...    DCD    49455
        0x0000c0a8:    0000c12f    /...    DCD    49455
        0x0000c0ac:    0000c12f    /...    DCD    49455
        0x0000c0b0:    0000c12f    /...    DCD    49455
        0x0000c0b4:    0000c12f    /...    DCD    49455
        0x0000c0b8:    0000c12f    /...    DCD    49455
        0x0000c0bc:    0000c12f    /...    DCD    49455
        0x0000c0c0:    0000c12f    /...    DCD    49455
        0x0000c0c4:    0000c12f    /...    DCD    49455
    __Patchable
        0x0000c0c8:    00000000    ....    DCD    0
        0x0000c0cc:    00000000    ....    DCD    0
        0x0000c0d0:    00000000    ....    DCD    0
        0x0000c0d4:    00000000    ....    DCD    0
        0x0000c0d8:    00000000    ....    DCD    0
        0x0000c0dc:    00000000    ....    DCD    0
        0x0000c0e0:    00000000    ....    DCD    0
        0x0000c0e4:    00000000    ....    DCD    0
        0x0000c0e8:    00000000    ....    DCD    0
        0x0000c0ec:    00000000    ....    DCD    0
        0x0000c0f0:    00000000    ....    DCD    0
        0x0000c0f4:    00000000    ....    DCD    0
        0x0000c0f8:    00000000    ....    DCD    0
        0x0000c0fc:    00000000    ....    DCD    0
    $t
    $v0
    Reset_Handler
        0x0000c100:    f64e5088    N..P    MOV      r0,#0xed88
        0x0000c104:    f2ce0000    ....    MOVT     r0,#0xe000
        0x0000c108:    6801        .h      LDR      r1,[r0,#0]
        0x0000c10a:    f4410170    A.p.    ORR      r1,r1,#0xf00000
        0x0000c10e:    6001        .`      STR      r1,[r0,#0]
        0x0000c110:    f3bf8f4f    ..O.    DSB      
        0x0000c114:    f3bf8f6f    ..o.    ISB      
        0x0000c118:    4805        .H      LDR      r0,[pc,#20] ; [0xc130] = 0xc135
        0x0000c11a:    4700        .G      BX       r0
        0x0000c11c:    e7fe        ..      B        0xc11c ; Reset_Handler + 28
    NMI_Handler
        0x0000c11e:    e7fe        ..      B        NMI_Handler ; 0xc11e
    MemManage_Handler
        0x0000c120:    e7fe        ..      B        MemManage_Handler ; 0xc120
    BusFault_Handler
        0x0000c122:    e7fe        ..      B        BusFault_Handler ; 0xc122
    UsageFault_Handler
        0x0000c124:    e7fe        ..      B        UsageFault_Handler ; 0xc124
        0x0000c126:    e7fe        ..      B        0xc126 ; UsageFault_Handler + 2
    DebugMon_Handler
        0x0000c128:    e7fe        ..      B        DebugMon_Handler ; 0xc128
        0x0000c12a:    e7fe        ..      B        0xc12a ; DebugMon_Handler + 2
        0x0000c12c:    e7fe        ..      B        0xc12c ; DebugMon_Handler + 4
    am_adc_isr
    am_ble_isr
    am_brownout_isr
    am_clkgen_isr
    am_iomaster0_isr
    am_iomaster1_isr
    am_iomaster2_isr
    am_iomaster3_isr
    am_iomaster4_isr
    am_iomaster5_isr
    am_ioslave_acc_isr
    am_ioslave_ios_isr
    am_mspi0_isr
    am_mspi1_isr
    am_mspi2_isr
    am_pdm0_isr
    am_rtc_isr
    am_scard_isr
    am_software0_isr
    am_stimer_cmpr2_isr
    am_stimer_cmpr3_isr
    am_stimer_cmpr4_isr
    am_stimer_cmpr5_isr
    am_stimer_cmpr6_isr
    am_stimer_cmpr7_isr
    am_stimer_isr
    am_uart0_isr
    am_uart1_isr
    am_uart_isr
    am_vcomp_isr
    am_watchdog_isr
        0x0000c12e:    e7fe        ..      B        am_adc_isr ; 0xc12e
    $d
        0x0000c130:    0000c135    5...    DCD    49461
    $t
    !!!main
    __main
        0x0000c134:    f000f802    ....    BL       __scatterload ; 0xc13c
        0x0000c138:    f000f83c    ..<.    BL       __rt_entry ; 0xc1b4
    !!!scatter
    __scatterload
    __scatterload_rt2
    __scatterload_rt2_thumb_only
        0x0000c13c:    a00a        ..      ADR      r0,{pc}+0x2c ; 0xc168
        0x0000c13e:    e8900c00    ....    LDM      r0,{r10,r11}
        0x0000c142:    4482        .D      ADD      r10,r10,r0
        0x0000c144:    4483        .D      ADD      r11,r11,r0
        0x0000c146:    f1aa0701    ....    SUB      r7,r10,#1
    __scatterload_null
        0x0000c14a:    45da        .E      CMP      r10,r11
        0x0000c14c:    d101        ..      BNE      0xc152 ; __scatterload_null + 8
        0x0000c14e:    f000f831    ..1.    BL       __rt_entry ; 0xc1b4
        0x0000c152:    f2af0e09    ....    ADR      lr,{pc}-7 ; 0xc14b
        0x0000c156:    e8ba000f    ....    LDM      r10!,{r0-r3}
        0x0000c15a:    f0130f01    ....    TST      r3,#1
        0x0000c15e:    bf18        ..      IT       NE
        0x0000c160:    1afb        ..      SUBNE    r3,r7,r3
        0x0000c162:    f0430301    C...    ORR      r3,r3,#1
        0x0000c166:    4718        .G      BX       r3
    $d
        0x0000c168:    00004de8    .M..    DCD    19944
        0x0000c16c:    00004e18    .N..    DCD    19992
    $t
    !!handler_copy
    __scatterload_copy
        0x0000c170:    3a10        .:      SUBS     r2,r2,#0x10
        0x0000c172:    bf24        $.      ITT      CS
        0x0000c174:    c878        x.      LDMCS    r0!,{r3-r6}
        0x0000c176:    c178        x.      STMCS    r1!,{r3-r6}
        0x0000c178:    d8fa        ..      BHI      __scatterload_copy ; 0xc170
        0x0000c17a:    0752        R.      LSLS     r2,r2,#29
        0x0000c17c:    bf24        $.      ITT      CS
        0x0000c17e:    c830        0.      LDMCS    r0!,{r4,r5}
        0x0000c180:    c130        0.      STMCS    r1!,{r4,r5}
        0x0000c182:    bf44        D.      ITT      MI
        0x0000c184:    6804        .h      LDRMI    r4,[r0,#0]
        0x0000c186:    600c        .`      STRMI    r4,[r1,#0]
        0x0000c188:    4770        pG      BX       lr
        0x0000c18a:    0000        ..      MOVS     r0,r0
    !!handler_zi
    __scatterload_zeroinit
        0x0000c18c:    2300        .#      MOVS     r3,#0
        0x0000c18e:    2400        .$      MOVS     r4,#0
        0x0000c190:    2500        .%      MOVS     r5,#0
        0x0000c192:    2600        .&      MOVS     r6,#0
        0x0000c194:    3a10        .:      SUBS     r2,r2,#0x10
        0x0000c196:    bf28        (.      IT       CS
        0x0000c198:    c178        x.      STMCS    r1!,{r3-r6}
        0x0000c19a:    d8fb        ..      BHI      0xc194 ; __scatterload_zeroinit + 8
        0x0000c19c:    0752        R.      LSLS     r2,r2,#29
        0x0000c19e:    bf28        (.      IT       CS
        0x0000c1a0:    c130        0.      STMCS    r1!,{r4,r5}
        0x0000c1a2:    bf48        H.      IT       MI
        0x0000c1a4:    600b        .`      STRMI    r3,[r1,#0]
        0x0000c1a6:    4770        pG      BX       lr
    .ARM.Collect$$libinit$$00000000
    __rt_lib_init
        0x0000c1a8:    b51f        ..      PUSH     {r0-r4,lr}
    .ARM.Collect$$libinit$$00000001
    __rt_lib_init_fp_1
        0x0000c1aa:    f004fb5e    ..^.    BL       _fp_init ; 0x1086a
    .ARM.Collect$$libinit$$00000004
    .ARM.Collect$$libinit$$0000000A
    .ARM.Collect$$libinit$$0000000C
    .ARM.Collect$$libinit$$0000000E
    .ARM.Collect$$libinit$$00000011
    .ARM.Collect$$libinit$$00000013
    .ARM.Collect$$libinit$$00000015
    .ARM.Collect$$libinit$$00000017
    .ARM.Collect$$libinit$$00000019
    .ARM.Collect$$libinit$$0000001B
    .ARM.Collect$$libinit$$0000001D
    .ARM.Collect$$libinit$$0000001F
    .ARM.Collect$$libinit$$00000021
    .ARM.Collect$$libinit$$00000023
    .ARM.Collect$$libinit$$00000025
    .ARM.Collect$$libinit$$0000002C
    .ARM.Collect$$libinit$$0000002E
    .ARM.Collect$$libinit$$00000030
    .ARM.Collect$$libinit$$00000032
    .ARM.Collect$$libinit$$00000033
    __rt_lib_init_alloca_1
    __rt_lib_init_argv_1
    __rt_lib_init_atexit_1
    __rt_lib_init_clock_1
    __rt_lib_init_cpp_1
    __rt_lib_init_exceptions_1
    __rt_lib_init_fp_trap_1
    __rt_lib_init_getenv_1
    __rt_lib_init_heap_1
    __rt_lib_init_lc_collate_1
    __rt_lib_init_lc_ctype_1
    __rt_lib_init_lc_monetary_1
    __rt_lib_init_lc_numeric_1
    __rt_lib_init_lc_time_1
    __rt_lib_init_preinit_1
    __rt_lib_init_rand_1
    __rt_lib_init_return
    __rt_lib_init_signal_1
    __rt_lib_init_stdio_1
    __rt_lib_init_user_alloc_1
        0x0000c1ae:    bd1f        ..      POP      {r0-r4,pc}
    .ARM.Collect$$libshutdown$$00000000
    __rt_lib_shutdown
        0x0000c1b0:    b510        ..      PUSH     {r4,lr}
    .ARM.Collect$$libshutdown$$00000002
    .ARM.Collect$$libshutdown$$00000004
    .ARM.Collect$$libshutdown$$00000007
    .ARM.Collect$$libshutdown$$0000000A
    .ARM.Collect$$libshutdown$$0000000C
    .ARM.Collect$$libshutdown$$0000000F
    .ARM.Collect$$libshutdown$$00000010
    __rt_lib_shutdown_cpp_1
    __rt_lib_shutdown_fp_trap_1
    __rt_lib_shutdown_heap_1
    __rt_lib_shutdown_return
    __rt_lib_shutdown_signal_1
    __rt_lib_shutdown_stdio_1
    __rt_lib_shutdown_user_alloc_1
        0x0000c1b2:    bd10        ..      POP      {r4,pc}
    .ARM.Collect$$rtentry$$00000000
    .ARM.Collect$$rtentry$$00000002
    .ARM.Collect$$rtentry$$00000004
    __rt_entry
    __rt_entry_presh_1
    __rt_entry_sh
        0x0000c1b4:    f000f8c3    ....    BL       __user_setup_stackheap ; 0xc33e
        0x0000c1b8:    4611        .F      MOV      r1,r2
    .ARM.Collect$$rtentry$$00000009
    .ARM.Collect$$rtentry$$0000000A
    __rt_entry_li
    __rt_entry_postsh_1
        0x0000c1ba:    f7fffff5    ....    BL       __rt_lib_init ; 0xc1a8
    .ARM.Collect$$rtentry$$0000000C
    .ARM.Collect$$rtentry$$0000000D
    __rt_entry_main
    __rt_entry_postli_1
        0x0000c1be:    f002fc7d    ..}.    BL       main ; 0xeabc
        0x0000c1c2:    f000f8e1    ....    BL       exit ; 0xc388
    .ARM.Collect$$rtexit$$00000000
    __rt_exit
        0x0000c1c6:    b403        ..      PUSH     {r0,r1}
    .ARM.Collect$$rtexit$$00000002
    .ARM.Collect$$rtexit$$00000003
    __rt_exit_ls
    __rt_exit_prels_1
        0x0000c1c8:    f7fffff2    ....    BL       __rt_lib_shutdown ; 0xc1b0
    .ARM.Collect$$rtexit$$00000004
    __rt_exit_exit
        0x0000c1cc:    bc03        ..      POP      {r0,r1}
        0x0000c1ce:    f000f8e9    ....    BL       _sys_exit ; 0xc3a4
        0x0000c1d2:    0000        ..      MOVS     r0,r0
    .text
    $v0
    __user_initial_stackheap
        0x0000c1d4:    4802        .H      LDR      r0,[pc,#8] ; [0xc1e0] = 0x100058c8
        0x0000c1d6:    4903        .I      LDR      r1,[pc,#12] ; [0xc1e4] = 0x10001000
        0x0000c1d8:    4a01        .J      LDR      r2,[pc,#4] ; [0xc1e0] = 0x100058c8
        0x0000c1da:    4b03        .K      LDR      r3,[pc,#12] ; [0xc1e8] = 0x10000000
        0x0000c1dc:    4770        pG      BX       lr
    $d
        0x0000c1de:    0000        ..      DCW    0
        0x0000c1e0:    100058c8    .X..    DCD    268458184
        0x0000c1e4:    10001000    ....    DCD    268439552
        0x0000c1e8:    10000000    ....    DCD    268435456
    $t
    .text
    __aeabi_memcpy
    __rt_memcpy
        0x0000c1ec:    2a03        .*      CMP      r2,#3
        0x0000c1ee:    f2408030    @.0.    BLS.W    _memcpy_lastbytes ; 0xc252
        0x0000c1f2:    f0100c03    ....    ANDS     r12,r0,#3
        0x0000c1f6:    f0008015    ....    BEQ.W    0xc224 ; __aeabi_memcpy + 56
        0x0000c1fa:    f8113b01    ...;    LDRB     r3,[r1],#1
        0x0000c1fe:    f1bc0f02    ....    CMP      r12,#2
        0x0000c202:    4462        bD      ADD      r2,r2,r12
        0x0000c204:    bf98        ..      IT       LS
        0x0000c206:    f811cb01    ....    LDRBLS   r12,[r1],#1
        0x0000c20a:    f8003b01    ...;    STRB     r3,[r0],#1
        0x0000c20e:    bf38        8.      IT       CC
        0x0000c210:    f8113b01    ...;    LDRBCC   r3,[r1],#1
        0x0000c214:    f1a20204    ....    SUB      r2,r2,#4
        0x0000c218:    bf98        ..      IT       LS
        0x0000c21a:    f800cb01    ....    STRBLS   r12,[r0],#1
        0x0000c21e:    bf38        8.      IT       CC
        0x0000c220:    f8003b01    ...;    STRBCC   r3,[r0],#1
        0x0000c224:    f0110303    ....    ANDS     r3,r1,#3
        0x0000c228:    f0008057    ..W.    BEQ.W    __aeabi_memcpy4 ; 0xc2da
        0x0000c22c:    3a08        .:      SUBS     r2,r2,#8
        0x0000c22e:    f0c08008    ....    BCC.W    0xc242 ; __aeabi_memcpy + 86
        0x0000c232:    f8513b04    Q..;    LDR      r3,[r1],#4
        0x0000c236:    3a08        .:      SUBS     r2,r2,#8
        0x0000c238:    f851cb04    Q...    LDR      r12,[r1],#4
        0x0000c23c:    e8a01008    ....    STM      r0!,{r3,r12}
        0x0000c240:    e7f5        ..      B        0xc22e ; __aeabi_memcpy + 66
        0x0000c242:    1d12        ..      ADDS     r2,r2,#4
        0x0000c244:    bf5c        \.      ITT      PL
        0x0000c246:    f8513b04    Q..;    LDRPL    r3,[r1],#4
        0x0000c24a:    f8403b04    @..;    STRPL    r3,[r0],#4
        0x0000c24e:    f3af8000    ....    NOP.W    
    _memcpy_lastbytes
        0x0000c252:    07d2        ..      LSLS     r2,r2,#31
        0x0000c254:    bf24        $.      ITT      CS
        0x0000c256:    f8113b01    ...;    LDRBCS   r3,[r1],#1
        0x0000c25a:    f811cb01    ....    LDRBCS   r12,[r1],#1
        0x0000c25e:    bf48        H.      IT       MI
        0x0000c260:    f8112b01    ...+    LDRBMI   r2,[r1],#1
        0x0000c264:    bf24        $.      ITT      CS
        0x0000c266:    f8003b01    ...;    STRBCS   r3,[r0],#1
        0x0000c26a:    f800cb01    ....    STRBCS   r12,[r0],#1
        0x0000c26e:    bf48        H.      IT       MI
        0x0000c270:    f8002b01    ...+    STRBMI   r2,[r0],#1
        0x0000c274:    4770        pG      BX       lr
    .text
    __aeabi_memset4
    __aeabi_memset8
        0x0000c276:    f00203ff    ....    AND      r3,r2,#0xff
        0x0000c27a:    ea432203    C.."    ORR      r2,r3,r3,LSL #8
        0x0000c27e:    ea424202    B..B    ORR      r2,r2,r2,LSL #16
        0x0000c282:    f000b802    ....    B.W      _memset_w ; 0xc28a
    .text
    __aeabi_memclr4
    __aeabi_memclr8
    __rt_memclr_w
        0x0000c286:    f04f0200    O...    MOV      r2,#0
    _memset_w
        0x0000c28a:    b500        ..      PUSH     {lr}
        0x0000c28c:    4613        .F      MOV      r3,r2
        0x0000c28e:    4694        .F      MOV      r12,r2
        0x0000c290:    4696        .F      MOV      lr,r2
        0x0000c292:    3920         9      SUBS     r1,r1,#0x20
        0x0000c294:    bf22        ".      ITTT     CS
        0x0000c296:    e8a0500c    ...P    STMCS    r0!,{r2,r3,r12,lr}
        0x0000c29a:    e8a0500c    ...P    STMCS    r0!,{r2,r3,r12,lr}
        0x0000c29e:    f1b10120    .. .    SUBSCS   r1,r1,#0x20
        0x0000c2a2:    f4bfaff7    ....    BCS.W    0xc294 ; _memset_w + 10
        0x0000c2a6:    0709        ..      LSLS     r1,r1,#28
        0x0000c2a8:    bf28        (.      IT       CS
        0x0000c2aa:    e8a0500c    ...P    STMCS    r0!,{r2,r3,r12,lr}
        0x0000c2ae:    bf48        H.      IT       MI
        0x0000c2b0:    c00c        ..      STMMI    r0!,{r2,r3}
        0x0000c2b2:    f85deb04    ]...    POP      {lr}
        0x0000c2b6:    0089        ..      LSLS     r1,r1,#2
        0x0000c2b8:    bf28        (.      IT       CS
        0x0000c2ba:    f8402b04    @..+    STRCS    r2,[r0],#4
        0x0000c2be:    bf08        ..      IT       EQ
        0x0000c2c0:    4770        pG      BXEQ     lr
        0x0000c2c2:    bf48        H.      IT       MI
        0x0000c2c4:    f8202b02     ..+    STRHMI   r2,[r0],#2
        0x0000c2c8:    f0114f80    ...O    TST      r1,#0x40000000
        0x0000c2cc:    bf18        ..      IT       NE
        0x0000c2ce:    f8002b01    ...+    STRBNE   r2,[r0],#1
        0x0000c2d2:    4770        pG      BX       lr
    .text
    __use_two_region_memory
        0x0000c2d4:    4770        pG      BX       lr
    __rt_heap_escrow$2region
        0x0000c2d6:    4770        pG      BX       lr
    __rt_heap_expand$2region
        0x0000c2d8:    4770        pG      BX       lr
    .text
    __aeabi_memcpy4
    __aeabi_memcpy8
    __rt_memcpy_w
        0x0000c2da:    b510        ..      PUSH     {r4,lr}
        0x0000c2dc:    3a20         :      SUBS     r2,r2,#0x20
        0x0000c2de:    f0c0800b    ....    BCC.W    0xc2f8 ; __aeabi_memcpy4 + 30
        0x0000c2e2:    e8b15018    ...P    LDM      r1!,{r3,r4,r12,lr}
        0x0000c2e6:    e8a05018    ...P    STM      r0!,{r3,r4,r12,lr}
        0x0000c2ea:    e8b15018    ...P    LDM      r1!,{r3,r4,r12,lr}
        0x0000c2ee:    e8a05018    ...P    STM      r0!,{r3,r4,r12,lr}
        0x0000c2f2:    3a20         :      SUBS     r2,r2,#0x20
        0x0000c2f4:    f4bfaff5    ....    BCS.W    0xc2e2 ; __aeabi_memcpy4 + 8
        0x0000c2f8:    ea5f7c02    _..|    LSLS     r12,r2,#28
        0x0000c2fc:    bf24        $.      ITT      CS
        0x0000c2fe:    e8b15018    ...P    LDMCS    r1!,{r3,r4,r12,lr}
        0x0000c302:    e8a05018    ...P    STMCS    r0!,{r3,r4,r12,lr}
        0x0000c306:    bf44        D.      ITT      MI
        0x0000c308:    c918        ..      LDMMI    r1!,{r3,r4}
        0x0000c30a:    c018        ..      STMMI    r0!,{r3,r4}
        0x0000c30c:    e8bd4010    ...@    POP      {r4,lr}
        0x0000c310:    ea5f7c82    _..|    LSLS     r12,r2,#30
        0x0000c314:    bf24        $.      ITT      CS
        0x0000c316:    f8513b04    Q..;    LDRCS    r3,[r1],#4
        0x0000c31a:    f8403b04    @..;    STRCS    r3,[r0],#4
        0x0000c31e:    bf08        ..      IT       EQ
        0x0000c320:    4770        pG      BXEQ     lr
    _memcpy_lastbytes_aligned
        0x0000c322:    07d2        ..      LSLS     r2,r2,#31
        0x0000c324:    bf28        (.      IT       CS
        0x0000c326:    f8313b02    1..;    LDRHCS   r3,[r1],#2
        0x0000c32a:    bf48        H.      IT       MI
        0x0000c32c:    f8112b01    ...+    LDRBMI   r2,[r1],#1
        0x0000c330:    bf28        (.      IT       CS
        0x0000c332:    f8203b02     ..;    STRHCS   r3,[r0],#2
        0x0000c336:    bf48        H.      IT       MI
        0x0000c338:    f8002b01    ...+    STRBMI   r2,[r0],#1
        0x0000c33c:    4770        pG      BX       lr
    .text
    __user_setup_stackheap
        0x0000c33e:    4675        uF      MOV      r5,lr
        0x0000c340:    f000f82c    ..,.    BL       __user_libspace ; 0xc39c
        0x0000c344:    46ae        .F      MOV      lr,r5
        0x0000c346:    0005        ..      MOVS     r5,r0
        0x0000c348:    4669        iF      MOV      r1,sp
        0x0000c34a:    4653        SF      MOV      r3,r10
        0x0000c34c:    f0200007     ...    BIC      r0,r0,#7
        0x0000c350:    4685        .F      MOV      sp,r0
        0x0000c352:    b018        ..      ADD      sp,sp,#0x60
        0x0000c354:    b520         .      PUSH     {r5,lr}
        0x0000c356:    f7ffff3d    ..=.    BL       __user_initial_stackheap ; 0xc1d4
        0x0000c35a:    e8bd4020    .. @    POP      {r5,lr}
        0x0000c35e:    f04f0600    O...    MOV      r6,#0
        0x0000c362:    f04f0700    O...    MOV      r7,#0
        0x0000c366:    f04f0800    O...    MOV      r8,#0
        0x0000c36a:    f04f0b00    O...    MOV      r11,#0
        0x0000c36e:    46ac        .F      MOV      r12,r5
        0x0000c370:    e8ac09c0    ....    STM      r12!,{r6-r8,r11}
        0x0000c374:    e8ac09c0    ....    STM      r12!,{r6-r8,r11}
        0x0000c378:    e8ac09c0    ....    STM      r12!,{r6-r8,r11}
        0x0000c37c:    e8ac09c0    ....    STM      r12!,{r6-r8,r11}
        0x0000c380:    f0210107    !...    BIC      r1,r1,#7
        0x0000c384:    468d        .F      MOV      sp,r1
        0x0000c386:    4770        pG      BX       lr
    .text
    exit
        0x0000c388:    b510        ..      PUSH     {r4,lr}
        0x0000c38a:    4604        .F      MOV      r4,r0
        0x0000c38c:    f3af8000    ....    NOP.W    
        0x0000c390:    4620         F      MOV      r0,r4
        0x0000c392:    e8bd4010    ...@    POP      {r4,lr}
        0x0000c396:    f7ffbf16    ....    B.W      __rt_exit ; 0xc1c6
        0x0000c39a:    0000        ..      MOVS     r0,r0
    .text
    __user_libspace
    __user_perproc_libspace
    __user_perthread_libspace
        0x0000c39c:    4800        .H      LDR      r0,[pc,#0] ; [0xc3a0] = 0x10001030
        0x0000c39e:    4770        pG      BX       lr
    $d
        0x0000c3a0:    10001030    0...    DCD    268439600
    $t
    .text
    _sys_exit
        0x0000c3a4:    4901        .I      LDR      r1,[pc,#4] ; [0xc3ac] = 0x20026
        0x0000c3a6:    2018        .       MOVS     r0,#0x18
        0x0000c3a8:    beab        ..      BKPT     #0xab
        0x0000c3aa:    e7fe        ..      B        0xc3aa ; _sys_exit + 6
    $d
        0x0000c3ac:    00020026    &...    DCD    131110
    $t
    .text
    __I$use$semihosting
    __use_no_semihosting_swi
        0x0000c3b0:    4770        pG      BX       lr
    $t.0
    .text
    HardFault_Handler
    __semihosting_library_function
        0x0000c3b2:    b501        ..      PUSH     {r0,lr}
        0x0000c3b4:    f01e0f04    ....    TST      lr,#4
        0x0000c3b8:    bf0a        ..      ITET     EQ
        0x0000c3ba:    f3ef8008    ....    MRSEQ    r0,MSP
        0x0000c3be:    f3ef8009    ....    MRSNE    r0,PSP
        0x0000c3c2:    f1100008    ....    ADDSEQ   r0,r0,#8
        0x0000c3c6:    f001fd43    ..C.    BL       am_util_faultisr_collect_data ; 0xde50
        0x0000c3ca:    bd01        ..      POP      {r0,pc}
    LedTask
        0x0000c3cc:    b082        ..      SUB      sp,sp,#8
        0x0000c3ce:    f6450670    E.p.    MOV      r6,#0x5870
        0x0000c3d2:    f2410400    A...    MOVW     r4,#0x1000
        0x0000c3d6:    f2c10600    ....    MOVT     r6,#0x1000
        0x0000c3da:    f04f37ff    O..7    MOV      r7,#0xffffffff
        0x0000c3de:    f2c10400    ....    MOVT     r4,#0x1000
        0x0000c3e2:    bf00        ..      NOP      
        0x0000c3e4:    6830        0h      LDR      r0,[r6,#0]
        0x0000c3e6:    2107        .!      MOVS     r1,#7
        0x0000c3e8:    2201        ."      MOVS     r2,#1
        0x0000c3ea:    2300        .#      MOVS     r3,#0
        0x0000c3ec:    9700        ..      STR      r7,[sp,#0]
        0x0000c3ee:    f003fb81    ....    BL       xEventGroupWaitBits ; 0xfaf4
        0x0000c3f2:    2800        .(      CMP      r0,#0
        0x0000c3f4:    d0f6        ..      BEQ      0xc3e4 ; LedTask + 24
        0x0000c3f6:    4605        .F      MOV      r5,r0
        0x0000c3f8:    07c0        ..      LSLS     r0,r0,#31
        0x0000c3fa:    d003        ..      BEQ      0xc404 ; LedTask + 56
        0x0000c3fc:    4620         F      MOV      r0,r4
        0x0000c3fe:    2100        .!      MOVS     r1,#0
        0x0000c400:    f000f9c2    ....    BL       am_devices_led_toggle ; 0xc788
        0x0000c404:    07a8        ..      LSLS     r0,r5,#30
        0x0000c406:    d503        ..      BPL      0xc410 ; LedTask + 68
        0x0000c408:    4620         F      MOV      r0,r4
        0x0000c40a:    2101        .!      MOVS     r1,#1
        0x0000c40c:    f000f9bc    ....    BL       am_devices_led_toggle ; 0xc788
        0x0000c410:    0768        h.      LSLS     r0,r5,#29
        0x0000c412:    d5e7        ..      BPL      0xc3e4 ; LedTask + 24
        0x0000c414:    4620         F      MOV      r0,r4
        0x0000c416:    2102        .!      MOVS     r1,#2
        0x0000c418:    f000f9b6    ....    BL       am_devices_led_toggle ; 0xc788
        0x0000c41c:    e7e2        ..      B        0xc3e4 ; LedTask + 24
        0x0000c41e:    0000        ..      MOVS     r0,r0
    LedTaskSetup
        0x0000c420:    e92d43f0    -..C    PUSH     {r4-r9,lr}
        0x0000c424:    b089        ..      SUB      sp,sp,#0x24
        0x0000c426:    a04c        L.      ADR      r0,{pc}+0x132 ; 0xc558
        0x0000c428:    f001fe80    ....    BL       am_util_stdio_printf ; 0xe12c
        0x0000c42c:    f003fb19    ....    BL       xEventGroupCreate ; 0xfa62
        0x0000c430:    f6450170    E.p.    MOV      r1,#0x5870
        0x0000c434:    f2c10100    ....    MOVT     r1,#0x1000
        0x0000c438:    2800        .(      CMP      r0,#0
        0x0000c43a:    6008        .`      STR      r0,[r1,#0]
        0x0000c43c:    f000808a    ....    BEQ.W    0xc554 ; LedTaskSetup + 308
        0x0000c440:    f2410400    A...    MOVW     r4,#0x1000
        0x0000c444:    f2c10400    ....    MOVT     r4,#0x1000
        0x0000c448:    4620         F      MOV      r0,r4
        0x0000c44a:    2105        .!      MOVS     r1,#5
        0x0000c44c:    f000f954    ..T.    BL       am_devices_led_array_init ; 0xc6f8
        0x0000c450:    4620         F      MOV      r0,r4
        0x0000c452:    2100        .!      MOVS     r1,#0
        0x0000c454:    2500        .%      MOVS     r5,#0
        0x0000c456:    f000f983    ....    BL       am_devices_led_off ; 0xc760
        0x0000c45a:    4620         F      MOV      r0,r4
        0x0000c45c:    2101        .!      MOVS     r1,#1
        0x0000c45e:    f000f97f    ....    BL       am_devices_led_off ; 0xc760
        0x0000c462:    4620         F      MOV      r0,r4
        0x0000c464:    2102        .!      MOVS     r1,#2
        0x0000c466:    f000f97b    ..{.    BL       am_devices_led_off ; 0xc760
        0x0000c46a:    4620         F      MOV      r0,r4
        0x0000c46c:    2103        .!      MOVS     r1,#3
        0x0000c46e:    f000f977    ..w.    BL       am_devices_led_off ; 0xc760
        0x0000c472:    4620         F      MOV      r0,r4
        0x0000c474:    2104        .!      MOVS     r1,#4
        0x0000c476:    f000f973    ..s.    BL       am_devices_led_off ; 0xc760
        0x0000c47a:    f24e400d    N..@    MOV      r0,#0xe40d
        0x0000c47e:    f2ce0000    ....    MOVT     r0,#0xe000
        0x0000c482:    2180        .!      MOVS     r1,#0x80
        0x0000c484:    7001        .p      STRB     r1,[r0,#0]
        0x0000c486:    f64e0195    N...    MOV      r1,#0xe895
        0x0000c48a:    f2c00100    ....    MOVT     r1,#0
        0x0000c48e:    2010        .       MOVS     r0,#0x10
        0x0000c490:    f000fde0    ....    BL       am_hal_gpio_interrupt_register ; 0xd054
        0x0000c494:    f64e01c1    N...    MOV      r1,#0xe8c1
        0x0000c498:    f2c00100    ....    MOVT     r1,#0
        0x0000c49c:    2012        .       MOVS     r0,#0x12
        0x0000c49e:    f000fdd9    ....    BL       am_hal_gpio_interrupt_register ; 0xd054
        0x0000c4a2:    f64e01ed    N...    MOV      r1,#0xe8ed
        0x0000c4a6:    f2c00100    ....    MOVT     r1,#0
        0x0000c4aa:    2013        .       MOVS     r0,#0x13
        0x0000c4ac:    f000fdd2    ....    BL       am_hal_gpio_interrupt_register ; 0xd054
        0x0000c4b0:    f6402050    @.P     MOVW     r0,#0xa50
        0x0000c4b4:    f2c00001    ....    MOVT     r0,#1
        0x0000c4b8:    6801        .h      LDR      r1,[r0,#0]
        0x0000c4ba:    2010        .       MOVS     r0,#0x10
        0x0000c4bc:    f000fe56    ..V.    BL       am_hal_gpio_pinconfig ; 0xd16c
        0x0000c4c0:    f6402054    @.T     MOV      r0,#0xa54
        0x0000c4c4:    f2c00001    ....    MOVT     r0,#1
        0x0000c4c8:    6801        .h      LDR      r1,[r0,#0]
        0x0000c4ca:    2012        .       MOVS     r0,#0x12
        0x0000c4cc:    f000fe4e    ..N.    BL       am_hal_gpio_pinconfig ; 0xd16c
        0x0000c4d0:    f6402058    @.X     MOV      r0,#0xa58
        0x0000c4d4:    f2c00001    ....    MOVT     r0,#1
        0x0000c4d8:    6801        .h      LDR      r1,[r0,#0]
        0x0000c4da:    2013        .       MOVS     r0,#0x13
        0x0000c4dc:    f000fe46    ..F.    BL       am_hal_gpio_pinconfig ; 0xd16c
        0x0000c4e0:    f10d0918    ....    ADD      r9,sp,#0x18
        0x0000c4e4:    f44f3880    O..8    MOV      r8,#0x10000
        0x0000c4e8:    4648        HF      MOV      r0,r9
        0x0000c4ea:    9508        ..      STR      r5,[sp,#0x20]
        0x0000c4ec:    9507        ..      STR      r5,[sp,#0x1c]
        0x0000c4ee:    9506        ..      STR      r5,[sp,#0x18]
        0x0000c4f0:    9505        ..      STR      r5,[sp,#0x14]
        0x0000c4f2:    9504        ..      STR      r5,[sp,#0x10]
        0x0000c4f4:    9503        ..      STR      r5,[sp,#0xc]
        0x0000c4f6:    9502        ..      STR      r5,[sp,#8]
        0x0000c4f8:    9501        ..      STR      r5,[sp,#4]
        0x0000c4fa:    9500        ..      STR      r5,[sp,#0]
        0x0000c4fc:    f8cd8018    ....    STR      r8,[sp,#0x18]
        0x0000c500:    f000fd5f    .._.    BL       am_hal_gpio_interrupt_clear ; 0xcfc2
        0x0000c504:    ad03        ..      ADD      r5,sp,#0xc
        0x0000c506:    f44f2780    O..'    MOV      r7,#0x40000
        0x0000c50a:    4628        (F      MOV      r0,r5
        0x0000c50c:    9703        ..      STR      r7,[sp,#0xc]
        0x0000c50e:    f000fd58    ..X.    BL       am_hal_gpio_interrupt_clear ; 0xcfc2
        0x0000c512:    466e        nF      MOV      r6,sp
        0x0000c514:    f44f2400    O..$    MOV      r4,#0x80000
        0x0000c518:    4630        0F      MOV      r0,r6
        0x0000c51a:    9400        ..      STR      r4,[sp,#0]
        0x0000c51c:    f000fd51    ..Q.    BL       am_hal_gpio_interrupt_clear ; 0xcfc2
        0x0000c520:    4648        HF      MOV      r0,r9
        0x0000c522:    f8cd8018    ....    STR      r8,[sp,#0x18]
        0x0000c526:    f000fd72    ..r.    BL       am_hal_gpio_interrupt_enable ; 0xd00e
        0x0000c52a:    4628        (F      MOV      r0,r5
        0x0000c52c:    9703        ..      STR      r7,[sp,#0xc]
        0x0000c52e:    f000fd6e    ..n.    BL       am_hal_gpio_interrupt_enable ; 0xd00e
        0x0000c532:    4630        0F      MOV      r0,r6
        0x0000c534:    9400        ..      STR      r4,[sp,#0]
        0x0000c536:    f000fd6a    ..j.    BL       am_hal_gpio_interrupt_enable ; 0xd00e
        0x0000c53a:    f24e1000    N...    MOVW     r0,#0xe100
        0x0000c53e:    f2ce0000    ....    MOVT     r0,#0xe000
        0x0000c542:    f44f5100    O..Q    MOV      r1,#0x2000
        0x0000c546:    6001        .`      STR      r1,[r0,#0]
        0x0000c548:    f000ff96    ....    BL       am_hal_interrupt_master_enable ; 0xd478
        0x0000c54c:    b009        ..      ADD      sp,sp,#0x24
        0x0000c54e:    e8bd83f0    ....    POP      {r4-r9,pc}
        0x0000c552:    bf00        ..      NOP      
        0x0000c554:    e7fe        ..      B        0xc554 ; LedTaskSetup + 308
        0x0000c556:    bf00        ..      NOP      
    $d.6
        0x0000c558:    5444454c    LEDT    DCD    1413760332
        0x0000c55c:    3a6b7361    ask:    DCD    980120417
        0x0000c560:    74657320     set    DCD    1952805664
        0x0000c564:    0a0d7075    up..    DCD    168652917
        0x0000c568:    00000000    ....    DCD    0
        0x0000c56c:    00000000    ....    DCD    0
    $t.11
    PendSV_Handler
        0x0000c570:    f3ef8009    ....    MRS      r0,PSP
        0x0000c574:    f3bf8f6f    ..o.    ISB      
        0x0000c578:    4b15        .K      LDR      r3,[pc,#84] ; [0xc5d0] = 0x10001790
        0x0000c57a:    681a        .h      LDR      r2,[r3,#0]
        0x0000c57c:    f01e0f10    ....    TST      lr,#0x10
        0x0000c580:    bf08        ..      IT       EQ
        0x0000c582:    ed208a10     ...    VSTMDBEQ r0!,{s16-s31}
        0x0000c586:    e9204ff0     ..O    STMDB    r0!,{r4-r11,lr}
        0x0000c58a:    6010        .`      STR      r0,[r2,#0]
        0x0000c58c:    e92d0009    -...    PUSH.W   {r0,r3}
        0x0000c590:    f04f0080    O...    MOV      r0,#0x80
        0x0000c594:    f3808811    ....    MSR      BASEPRI,r0
        0x0000c598:    f3bf8f4f    ..O.    DSB      
        0x0000c59c:    f3bf8f6f    ..o.    ISB      
        0x0000c5a0:    f003fa04    ....    BL       vTaskSwitchContext ; 0xf9ac
        0x0000c5a4:    f04f0000    O...    MOV      r0,#0
        0x0000c5a8:    f3808811    ....    MSR      BASEPRI,r0
        0x0000c5ac:    e8bd0009    ....    POP.W    {r0,r3}
        0x0000c5b0:    6819        .h      LDR      r1,[r3,#0]
        0x0000c5b2:    6808        .h      LDR      r0,[r1,#0]
        0x0000c5b4:    e8b04ff0    ...O    LDM      r0!,{r4-r11,lr}
        0x0000c5b8:    f01e0f10    ....    TST      lr,#0x10
        0x0000c5bc:    bf08        ..      IT       EQ
        0x0000c5be:    ecb08a10    ....    VLDMEQ   r0!,{s16-s31}
        0x0000c5c2:    f3808809    ....    MSR      PSP,r0
        0x0000c5c6:    f3bf8f6f    ..o.    ISB      
        0x0000c5ca:    4770        pG      BX       lr
        0x0000c5cc:    bf00        ..      NOP      
        0x0000c5ce:    bf00        ..      NOP      
    $d.12
    pxCurrentTCBConst
        0x0000c5d0:    10001790    ....    DCD    268441488
        0x0000c5d4:    00000000    ....    DCD    0
        0x0000c5d8:    00000000    ....    DCD    0
        0x0000c5dc:    00000000    ....    DCD    0
    $t.2
    SVC_Handler
        0x0000c5e0:    4b07        .K      LDR      r3,[pc,#28] ; [0xc600] = 0x10001790
        0x0000c5e2:    6819        .h      LDR      r1,[r3,#0]
        0x0000c5e4:    6808        .h      LDR      r0,[r1,#0]
        0x0000c5e6:    e8b04ff0    ...O    LDM      r0!,{r4-r11,lr}
        0x0000c5ea:    f3808809    ....    MSR      PSP,r0
        0x0000c5ee:    f3bf8f6f    ..o.    ISB      
        0x0000c5f2:    f04f0000    O...    MOV      r0,#0
        0x0000c5f6:    f3808811    ....    MSR      BASEPRI,r0
        0x0000c5fa:    4770        pG      BX       lr
        0x0000c5fc:    bf00        ..      NOP      
        0x0000c5fe:    bf00        ..      NOP      
    $d.3
    pxCurrentTCBConst2
        0x0000c600:    10001790    ....    DCD    268441488
    $t.13
    SysTick_Handler
        0x0000c604:    b580        ..      PUSH     {r7,lr}
        0x0000c606:    f04f0080    O...    MOV      r0,#0x80
        0x0000c60a:    f3808811    ....    MSR      BASEPRI,r0
        0x0000c60e:    f3bf8f6f    ..o.    ISB      
        0x0000c612:    f3bf8f4f    ..O.    DSB      
        0x0000c616:    f003fec3    ....    BL       xTaskIncrementTick ; 0x103a0
        0x0000c61a:    b130        0.      CBZ      r0,0xc62a ; SysTick_Handler + 38
        0x0000c61c:    f64e5004    N..P    MOV      r0,#0xed04
        0x0000c620:    f2ce0000    ....    MOVT     r0,#0xe000
        0x0000c624:    f04f5180    O..Q    MOV      r1,#0x10000000
        0x0000c628:    6001        .`      STR      r1,[r0,#0]
        0x0000c62a:    2000        .       MOVS     r0,#0
        0x0000c62c:    f3808811    ....    MSR      BASEPRI,r0
        0x0000c630:    bd80        ..      POP      {r7,pc}
    am_bsp_itm_printf_disable
        0x0000c632:    b580        ..      PUSH     {r7,lr}
        0x0000c634:    f000ff28    ..(.    BL       am_hal_itm_disable ; 0xd488
        0x0000c638:    2000        .       MOVS     r0,#0
        0x0000c63a:    f001fd9a    ....    BL       am_util_stdio_printf_init ; 0xe172
        0x0000c63e:    f6402060    @.`     MOVW     r0,#0xa60
        0x0000c642:    f2c00001    ....    MOVT     r0,#1
        0x0000c646:    6801        .h      LDR      r1,[r0,#0]
        0x0000c648:    2029        )       MOVS     r0,#0x29
        0x0000c64a:    e8bd4080    ...@    POP      {r7,lr}
        0x0000c64e:    f000bd8d    ....    B.W      am_hal_gpio_pinconfig ; 0xd16c
    am_bsp_itm_printf_enable
        0x0000c652:    b580        ..      PUSH     {r7,lr}
        0x0000c654:    b086        ..      SUB      sp,sp,#0x18
        0x0000c656:    f2415030    A.0P    MOV      r0,#0x1530
        0x0000c65a:    f2c10000    ....    MOVT     r0,#0x1000
        0x0000c65e:    2101        .!      MOVS     r1,#1
        0x0000c660:    6001        .`      STR      r1,[r0,#0]
        0x0000c662:    f000ff65    ..e.    BL       am_hal_itm_enable ; 0xd530
        0x0000c666:    f2442040    D.@     MOV      r0,#0x4240
        0x0000c66a:    f2c0000f    ....    MOVT     r0,#0xf
        0x0000c66e:    9001        ..      STR      r0,[sp,#4]
        0x0000c670:    a801        ..      ADD      r0,sp,#4
        0x0000c672:    f001fb59    ..Y.    BL       am_hal_tpiu_enable ; 0xdd28
        0x0000c676:    f640205c    @.\     MOV      r0,#0xa5c
        0x0000c67a:    f2c00001    ....    MOVT     r0,#1
        0x0000c67e:    6801        .h      LDR      r1,[r0,#0]
        0x0000c680:    2029        )       MOVS     r0,#0x29
        0x0000c682:    f000fd73    ..s.    BL       am_hal_gpio_pinconfig ; 0xd16c
        0x0000c686:    f24d5075    M.uP    MOV      r0,#0xd575
        0x0000c68a:    f2c00000    ....    MOVT     r0,#0
        0x0000c68e:    f001fd70    ..p.    BL       am_util_stdio_printf_init ; 0xe172
        0x0000c692:    b006        ..      ADD      sp,sp,#0x18
        0x0000c694:    bd80        ..      POP      {r7,pc}
        0x0000c696:    0000        ..      MOVS     r0,r0
    am_bsp_low_power_init
        0x0000c698:    b5f0        ..      PUSH     {r4-r7,lr}
        0x0000c69a:    b081        ..      SUB      sp,sp,#4
        0x0000c69c:    f001f8c7    ....    BL       am_hal_pwrctrl_low_power_init ; 0xd82e
        0x0000c6a0:    f001fa36    ..6.    BL       am_hal_rtc_osc_disable ; 0xdb10
        0x0000c6a4:    f6402064    @.d     MOV      r0,#0xa64
        0x0000c6a8:    f2c00001    ....    MOVT     r0,#1
        0x0000c6ac:    6804        .h      LDR      r4,[r0,#0]
        0x0000c6ae:    f2410700    A...    MOVW     r7,#0x1000
        0x0000c6b2:    2600        .&      MOVS     r6,#0
        0x0000c6b4:    f2c10700    ....    MOVT     r7,#0x1000
        0x0000c6b8:    f8575036    W.6P    LDR      r5,[r7,r6,LSL #3]
        0x0000c6bc:    4621        !F      MOV      r1,r4
        0x0000c6be:    4628        (F      MOV      r0,r5
        0x0000c6c0:    f000fd54    ..T.    BL       am_hal_gpio_pinconfig ; 0xd16c
        0x0000c6c4:    4628        (F      MOV      r0,r5
        0x0000c6c6:    2103        .!      MOVS     r1,#3
        0x0000c6c8:    f000fe86    ....    BL       am_hal_gpio_state_write ; 0xd3d8
        0x0000c6cc:    4628        (F      MOV      r0,r5
        0x0000c6ce:    2100        .!      MOVS     r1,#0
        0x0000c6d0:    f000fe82    ....    BL       am_hal_gpio_state_write ; 0xd3d8
        0x0000c6d4:    3601        .6      ADDS     r6,#1
        0x0000c6d6:    2e05        ..      CMP      r6,#5
        0x0000c6d8:    d1ee        ..      BNE      0xc6b8 ; am_bsp_low_power_init + 32
        0x0000c6da:    b001        ..      ADD      sp,sp,#4
        0x0000c6dc:    bdf0        ..      POP      {r4-r7,pc}
    am_ctimer_isr
        0x0000c6de:    b510        ..      PUSH     {r4,lr}
        0x0000c6e0:    2000        .       MOVS     r0,#0
        0x0000c6e2:    f000fbf8    ....    BL       am_hal_ctimer_int_status_get ; 0xced6
        0x0000c6e6:    4604        .F      MOV      r4,r0
        0x0000c6e8:    f000fbca    ....    BL       am_hal_ctimer_int_clear ; 0xce80
        0x0000c6ec:    4620         F      MOV      r0,r4
        0x0000c6ee:    e8bd4010    ...@    POP      {r4,lr}
        0x0000c6f2:    f000bbd7    ....    B.W      am_hal_ctimer_int_service ; 0xcea4
        0x0000c6f6:    0000        ..      MOVS     r0,r0
    am_devices_led_array_init
        0x0000c6f8:    b570        p.      PUSH     {r4-r6,lr}
        0x0000c6fa:    460c        .F      MOV      r4,r1
        0x0000c6fc:    3901        .9      SUBS     r1,#1
        0x0000c6fe:    291e        .)      CMP      r1,#0x1e
        0x0000c700:    d80c        ..      BHI      0xc71c ; am_devices_led_array_init + 36
        0x0000c702:    4605        .F      MOV      r5,r0
        0x0000c704:    2800        .(      CMP      r0,#0
        0x0000c706:    bf08        ..      IT       EQ
        0x0000c708:    bd70        p.      POPEQ    {r4-r6,pc}
        0x0000c70a:    2600        .&      MOVS     r6,#0
        0x0000c70c:    4628        (F      MOV      r0,r5
        0x0000c70e:    f000f806    ....    BL       am_devices_led_init ; 0xc71e
        0x0000c712:    3601        .6      ADDS     r6,#1
        0x0000c714:    42a6        .B      CMP      r6,r4
        0x0000c716:    f1050508    ....    ADD      r5,r5,#8
        0x0000c71a:    d3f7        ..      BCC      0xc70c ; am_devices_led_array_init + 20
        0x0000c71c:    bd70        p.      POP      {r4-r6,pc}
    am_devices_led_init
        0x0000c71e:    b510        ..      PUSH     {r4,lr}
        0x0000c720:    b118        ..      CBZ      r0,0xc72a ; am_devices_led_init + 12
        0x0000c722:    4604        .F      MOV      r4,r0
        0x0000c724:    6800        .h      LDR      r0,[r0,#0]
        0x0000c726:    2849        I(      CMP      r0,#0x49
        0x0000c728:    d900        ..      BLS      0xc72c ; am_devices_led_init + 14
        0x0000c72a:    bd10        ..      POP      {r4,pc}
        0x0000c72c:    7921        !y      LDRB     r1,[r4,#4]
        0x0000c72e:    0789        ..      LSLS     r1,r1,#30
        0x0000c730:    bf47        G.      ITTEE    MI
        0x0000c732:    f6402164    @.d!    MOVMI    r1,#0xa64
        0x0000c736:    f2c00101    ....    MOVTMI   r1,#1
        0x0000c73a:    f6402168    @.h!    MOVPL    r1,#0xa68
        0x0000c73e:    f2c00101    ....    MOVTPL   r1,#1
        0x0000c742:    6809        .h      LDR      r1,[r1,#0]
        0x0000c744:    f000fd12    ....    BL       am_hal_gpio_pinconfig ; 0xd16c
        0x0000c748:    6820         h      LDR      r0,[r4,#0]
        0x0000c74a:    2103        .!      MOVS     r1,#3
        0x0000c74c:    f000fe44    ..D.    BL       am_hal_gpio_state_write ; 0xd3d8
        0x0000c750:    6861        ah      LDR      r1,[r4,#4]
        0x0000c752:    6820         h      LDR      r0,[r4,#0]
        0x0000c754:    f0010101    ....    AND      r1,r1,#1
        0x0000c758:    e8bd4010    ...@    POP      {r4,lr}
        0x0000c75c:    f000be3c    ..<.    B.W      am_hal_gpio_state_write ; 0xd3d8
    am_devices_led_off
        0x0000c760:    b130        0.      CBZ      r0,0xc770 ; am_devices_led_off + 16
        0x0000c762:    291e        .)      CMP      r1,#0x1e
        0x0000c764:    d804        ..      BHI      0xc770 ; am_devices_led_off + 16
        0x0000c766:    4602        .F      MOV      r2,r0
        0x0000c768:    f8500031    P.1.    LDR      r0,[r0,r1,LSL #3]
        0x0000c76c:    2849        I(      CMP      r0,#0x49
        0x0000c76e:    d900        ..      BLS      0xc772 ; am_devices_led_off + 18
        0x0000c770:    4770        pG      BX       lr
        0x0000c772:    eb0201c1    ....    ADD      r1,r2,r1,LSL #3
        0x0000c776:    6849        Ih      LDR      r1,[r1,#4]
        0x0000c778:    078a        ..      LSLS     r2,r1,#30
        0x0000c77a:    bf52        R.      ITEE     PL
        0x0000c77c:    2103        .!      MOVPL    r1,#3
        0x0000c77e:    2201        ."      MOVMI    r2,#1
        0x0000c780:    ea220101    "...    BICMI    r1,r2,r1
        0x0000c784:    f000be28    ..(.    B.W      am_hal_gpio_state_write ; 0xd3d8
    am_devices_led_toggle
        0x0000c788:    b5b0        ..      PUSH     {r4,r5,r7,lr}
        0x0000c78a:    b082        ..      SUB      sp,sp,#8
        0x0000c78c:    b1d0        ..      CBZ      r0,0xc7c4 ; am_devices_led_toggle + 60
        0x0000c78e:    460d        .F      MOV      r5,r1
        0x0000c790:    291e        .)      CMP      r1,#0x1e
        0x0000c792:    d817        ..      BHI      0xc7c4 ; am_devices_led_toggle + 60
        0x0000c794:    4604        .F      MOV      r4,r0
        0x0000c796:    f8500035    P.5.    LDR      r0,[r0,r5,LSL #3]
        0x0000c79a:    2849        I(      CMP      r0,#0x49
        0x0000c79c:    d812        ..      BHI      0xc7c4 ; am_devices_led_toggle + 60
        0x0000c79e:    eb0401c5    ....    ADD      r1,r4,r5,LSL #3
        0x0000c7a2:    7909        .y      LDRB     r1,[r1,#4]
        0x0000c7a4:    0789        ..      LSLS     r1,r1,#30
        0x0000c7a6:    d40f        ..      BMI      0xc7c8 ; am_devices_led_toggle + 64
        0x0000c7a8:    aa01        ..      ADD      r2,sp,#4
        0x0000c7aa:    2102        .!      MOVS     r1,#2
        0x0000c7ac:    f000fde7    ....    BL       am_hal_gpio_state_read ; 0xd37e
        0x0000c7b0:    b940        @.      CBNZ     r0,0xc7c4 ; am_devices_led_toggle + 60
        0x0000c7b2:    9a01        ..      LDR      r2,[sp,#4]
        0x0000c7b4:    f8540035    T.5.    LDR      r0,[r4,r5,LSL #3]
        0x0000c7b8:    2103        .!      MOVS     r1,#3
        0x0000c7ba:    2a00        .*      CMP      r2,#0
        0x0000c7bc:    bf08        ..      IT       EQ
        0x0000c7be:    2104        .!      MOVEQ    r1,#4
        0x0000c7c0:    f000fe0a    ....    BL       am_hal_gpio_state_write ; 0xd3d8
        0x0000c7c4:    b002        ..      ADD      sp,sp,#8
        0x0000c7c6:    bdb0        ..      POP      {r4,r5,r7,pc}
        0x0000c7c8:    2102        .!      MOVS     r1,#2
        0x0000c7ca:    b002        ..      ADD      sp,sp,#8
        0x0000c7cc:    e8bd40b0    ...@    POP      {r4,r5,r7,lr}
        0x0000c7d0:    f000be02    ....    B.W      am_hal_gpio_state_write ; 0xd3d8
    am_freertos_sleep
        0x0000c7d4:    b580        ..      PUSH     {r7,lr}
        0x0000c7d6:    2001        .       MOVS     r0,#1
        0x0000c7d8:    f001fa52    ..R.    BL       am_hal_sysctrl_sleep ; 0xdc80
        0x0000c7dc:    2000        .       MOVS     r0,#0
        0x0000c7de:    bd80        ..      POP      {r7,pc}
    am_freertos_wakeup
        0x0000c7e0:    4770        pG      BX       lr
    am_gpio_isr
        0x0000c7e2:    b510        ..      PUSH     {r4,lr}
        0x0000c7e4:    b084        ..      SUB      sp,sp,#0x10
        0x0000c7e6:    2000        .       MOVS     r0,#0
        0x0000c7e8:    ac01        ..      ADD      r4,sp,#4
        0x0000c7ea:    9003        ..      STR      r0,[sp,#0xc]
        0x0000c7ec:    9002        ..      STR      r0,[sp,#8]
        0x0000c7ee:    9001        ..      STR      r0,[sp,#4]
        0x0000c7f0:    2000        .       MOVS     r0,#0
        0x0000c7f2:    4621        !F      MOV      r1,r4
        0x0000c7f4:    f000fc86    ....    BL       am_hal_gpio_interrupt_status_get ; 0xd104
        0x0000c7f8:    4620         F      MOV      r0,r4
        0x0000c7fa:    f000fbe2    ....    BL       am_hal_gpio_interrupt_clear ; 0xcfc2
        0x0000c7fe:    4620         F      MOV      r0,r4
        0x0000c800:    f000fc38    ..8.    BL       am_hal_gpio_interrupt_service ; 0xd074
        0x0000c804:    b004        ..      ADD      sp,sp,#0x10
        0x0000c806:    bd10        ..      POP      {r4,pc}
    am_hal_burst_ldo_charge
        0x0000c808:    b510        ..      PUSH     {r4,lr}
        0x0000c80a:    f6430038    C.8.    MOV      r0,#0x3838
        0x0000c80e:    f2c50002    ....    MOVT     r0,#0x5002
        0x0000c812:    6800        .h      LDR      r0,[r0,#0]
        0x0000c814:    0700        ..      LSLS     r0,r0,#28
        0x0000c816:    bf48        H.      IT       MI
        0x0000c818:    bd10        ..      POPMI    {r4,pc}
        0x0000c81a:    2460        `$      MOVS     r4,#0x60
        0x0000c81c:    f2c40402    ....    MOVT     r4,#0x4002
        0x0000c820:    6820         h      LDR      r0,[r4,#0]
        0x0000c822:    f0200080     ...    BIC      r0,r0,#0x80
        0x0000c826:    6020         `      STR      r0,[r4,#0]
        0x0000c828:    6820         h      LDR      r0,[r4,#0]
        0x0000c82a:    f0200020     . .    BIC      r0,r0,#0x20
        0x0000c82e:    6020         `      STR      r0,[r4,#0]
        0x0000c830:    6820         h      LDR      r0,[r4,#0]
        0x0000c832:    f0400040    @.@.    ORR      r0,r0,#0x40
        0x0000c836:    6020         `      STR      r0,[r4,#0]
        0x0000c838:    6820         h      LDR      r0,[r4,#0]
        0x0000c83a:    f4407080    @..p    ORR      r0,r0,#0x100
        0x0000c83e:    6020         `      STR      r0,[r4,#0]
        0x0000c840:    f2471000    G...    MOVW     r0,#0x7100
        0x0000c844:    f2c00002    ....    MOVT     r0,#2
        0x0000c848:    f000fb59    ..Y.    BL       am_hal_flash_delay ; 0xcefe
        0x0000c84c:    6860        `h      LDR      r0,[r4,#4]
        0x0000c84e:    f0400008    @...    ORR      r0,r0,#8
        0x0000c852:    6060        ``      STR      r0,[r4,#4]
        0x0000c854:    6860        `h      LDR      r0,[r4,#4]
        0x0000c856:    f0400001    @...    ORR      r0,r0,#1
        0x0000c85a:    6060        ``      STR      r0,[r4,#4]
        0x0000c85c:    6860        `h      LDR      r0,[r4,#4]
        0x0000c85e:    f0400004    @...    ORR      r0,r0,#4
        0x0000c862:    6060        ``      STR      r0,[r4,#4]
        0x0000c864:    6860        `h      LDR      r0,[r4,#4]
        0x0000c866:    f0200002     ...    BIC      r0,r0,#2
        0x0000c86a:    6060        ``      STR      r0,[r4,#4]
        0x0000c86c:    6860        `h      LDR      r0,[r4,#4]
        0x0000c86e:    f0400010    @...    ORR      r0,r0,#0x10
        0x0000c872:    6060        ``      STR      r0,[r4,#4]
        0x0000c874:    2020                MOVS     r0,#0x20
        0x0000c876:    f000fb42    ..B.    BL       am_hal_flash_delay ; 0xcefe
        0x0000c87a:    6860        `h      LDR      r0,[r4,#4]
        0x0000c87c:    f0400002    @...    ORR      r0,r0,#2
        0x0000c880:    6060        ``      STR      r0,[r4,#4]
        0x0000c882:    f44f40fa    O..@    MOV      r0,#0x7d00
        0x0000c886:    f000fb3a    ..:.    BL       am_hal_flash_delay ; 0xcefe
        0x0000c88a:    6860        `h      LDR      r0,[r4,#4]
        0x0000c88c:    f0200001     ...    BIC      r0,r0,#1
        0x0000c890:    6060        ``      STR      r0,[r4,#4]
        0x0000c892:    6860        `h      LDR      r0,[r4,#4]
        0x0000c894:    f0200004     ...    BIC      r0,r0,#4
        0x0000c898:    6060        ``      STR      r0,[r4,#4]
        0x0000c89a:    6860        `h      LDR      r0,[r4,#4]
        0x0000c89c:    f0200002     ...    BIC      r0,r0,#2
        0x0000c8a0:    6060        ``      STR      r0,[r4,#4]
        0x0000c8a2:    6820         h      LDR      r0,[r4,#0]
        0x0000c8a4:    f0200040     .@.    BIC      r0,r0,#0x40
        0x0000c8a8:    6020         `      STR      r0,[r4,#0]
        0x0000c8aa:    6820         h      LDR      r0,[r4,#0]
        0x0000c8ac:    f4207080     ..p    BIC      r0,r0,#0x100
        0x0000c8b0:    6020         `      STR      r0,[r4,#0]
        0x0000c8b2:    bd10        ..      POP      {r4,pc}
    am_hal_burst_ldo_patch_check
        0x0000c8b4:    f6430038    C.8.    MOV      r0,#0x3838
        0x0000c8b8:    f2c50002    ....    MOVT     r0,#0x5002
        0x0000c8bc:    6800        .h      LDR      r0,[r0,#0]
        0x0000c8be:    2101        .!      MOVS     r1,#1
        0x0000c8c0:    f0000008    ....    AND      r0,r0,#8
        0x0000c8c4:    ea8100d0    ....    EOR      r0,r1,r0,LSR #3
        0x0000c8c8:    4770        pG      BX       lr
    am_hal_burst_mode_disable
        0x0000c8ca:    b570        p.      PUSH     {r4-r6,lr}
        0x0000c8cc:    b082        ..      SUB      sp,sp,#8
        0x0000c8ce:    f2411120    A. .    MOVW     r1,#0x1120
        0x0000c8d2:    f2c10100    ....    MOVT     r1,#0x1000
        0x0000c8d6:    7809        .x      LDRB     r1,[r1,#0]
        0x0000c8d8:    4604        .F      MOV      r4,r0
        0x0000c8da:    b309        ..      CBZ      r1,0xc920 ; am_hal_burst_mode_disable + 86
        0x0000c8dc:    f2440534    D.4.    MOV      r5,#0x4034
        0x0000c8e0:    f2c40500    ....    MOVT     r5,#0x4000
        0x0000c8e4:    f000fdc4    ....    BL       am_hal_interrupt_master_disable ; 0xd470
        0x0000c8e8:    9001        ..      STR      r0,[sp,#4]
        0x0000c8ea:    4628        (F      MOV      r0,r5
        0x0000c8ec:    2100        .!      MOVS     r1,#0
        0x0000c8ee:    f000fb57    ..W.    BL       am_hal_flash_store_ui32 ; 0xcfa0
        0x0000c8f2:    9801        ..      LDR      r0,[sp,#4]
        0x0000c8f4:    f000fdc4    ....    BL       am_hal_interrupt_master_set ; 0xd480
        0x0000c8f8:    f2410028    A.(.    MOV      r0,#0x1028
        0x0000c8fc:    f2c40002    ....    MOVT     r0,#0x4002
        0x0000c900:    6801        .h      LDR      r1,[r0,#0]
        0x0000c902:    2601        .&      MOVS     r6,#1
        0x0000c904:    f0214100    !..A    BIC      r1,r1,#0x80000000
        0x0000c908:    6001        .`      STR      r1,[r0,#0]
        0x0000c90a:    f2427010    B..p    MOV      r0,#0x2710
        0x0000c90e:    4629        )F      MOV      r1,r5
        0x0000c910:    2204        ."      MOVS     r2,#4
        0x0000c912:    2300        .#      MOVS     r3,#0
        0x0000c914:    9600        ..      STR      r6,[sp,#0]
        0x0000c916:    f000fb07    ....    BL       am_hal_flash_delay_status_check ; 0xcf28
        0x0000c91a:    b138        8.      CBZ      r0,0xc92c ; am_hal_burst_mode_disable + 98
        0x0000c91c:    7026        &p      STRB     r6,[r4,#0]
        0x0000c91e:    e00a        ..      B        0xc936 ; am_hal_burst_mode_disable + 108
        0x0000c920:    4620         F      MOV      r0,r4
        0x0000c922:    b002        ..      ADD      sp,sp,#8
        0x0000c924:    e8bd4070    ..p@    POP      {r4-r6,lr}
        0x0000c928:    f000b807    ....    B.W      am_hal_burst_mode_disable_w_manual_sequence ; 0xc93a
        0x0000c92c:    6828        (h      LDR      r0,[r5,#0]
        0x0000c92e:    ea260090    &...    BIC      r0,r6,r0,LSR #2
        0x0000c932:    7020         p      STRB     r0,[r4,#0]
        0x0000c934:    2000        .       MOVS     r0,#0
        0x0000c936:    b002        ..      ADD      sp,sp,#8
        0x0000c938:    bd70        p.      POP      {r4-r6,pc}
    am_hal_burst_mode_disable_w_manual_sequence
        0x0000c93a:    b510        ..      PUSH     {r4,lr}
        0x0000c93c:    b150        P.      CBZ      r0,0xc954 ; am_hal_burst_mode_disable_w_manual_sequence + 26
        0x0000c93e:    f2411420    A. .    MOVW     r4,#0x1120
        0x0000c942:    f2c10400    ....    MOVT     r4,#0x1000
        0x0000c946:    2101        .!      MOVS     r1,#1
        0x0000c948:    7021        !p      STRB     r1,[r4,#0]
        0x0000c94a:    f7ffffbe    ....    BL       am_hal_burst_mode_disable ; 0xc8ca
        0x0000c94e:    2100        .!      MOVS     r1,#0
        0x0000c950:    7021        !p      STRB     r1,[r4,#0]
        0x0000c952:    e000        ..      B        0xc956 ; am_hal_burst_mode_disable_w_manual_sequence + 28
        0x0000c954:    2002        .       MOVS     r0,#2
        0x0000c956:    f6430138    C.8.    MOV      r1,#0x3838
        0x0000c95a:    f2c50102    ....    MOVT     r1,#0x5002
        0x0000c95e:    6809        .h      LDR      r1,[r1,#0]
        0x0000c960:    0709        ..      LSLS     r1,r1,#28
        0x0000c962:    bf48        H.      IT       MI
        0x0000c964:    bd10        ..      POPMI    {r4,pc}
        0x0000c966:    2164        d!      MOVS     r1,#0x64
        0x0000c968:    f2c40102    ....    MOVT     r1,#0x4002
        0x0000c96c:    680a        .h      LDR      r2,[r1,#0]
        0x0000c96e:    f0220204    "...    BIC      r2,r2,#4
        0x0000c972:    600a        .`      STR      r2,[r1,#0]
        0x0000c974:    680a        .h      LDR      r2,[r1,#0]
        0x0000c976:    f0220202    "...    BIC      r2,r2,#2
        0x0000c97a:    600a        .`      STR      r2,[r1,#0]
        0x0000c97c:    f8d12fc0    .../    LDR      r2,[r1,#0xfc0]
        0x0000c980:    f0220280    "...    BIC      r2,r2,#0x80
        0x0000c984:    f8c12fc0    .../    STR      r2,[r1,#0xfc0]
        0x0000c988:    bd10        ..      POP      {r4,pc}
    am_hal_burst_mode_enable
        0x0000c98a:    b570        p.      PUSH     {r4-r6,lr}
        0x0000c98c:    b082        ..      SUB      sp,sp,#8
        0x0000c98e:    f2411121    A.!.    MOV      r1,#0x1121
        0x0000c992:    f2c10100    ....    MOVT     r1,#0x1000
        0x0000c996:    7809        .x      LDRB     r1,[r1,#0]
        0x0000c998:    4604        .F      MOV      r4,r0
        0x0000c99a:    b1c9        ..      CBZ      r1,0xc9d0 ; am_hal_burst_mode_enable + 70
        0x0000c99c:    f2410098    A...    MOV      r0,#0x1098
        0x0000c9a0:    f2c10000    ....    MOVT     r0,#0x1000
        0x0000c9a4:    7800        .x      LDRB     r0,[r0,#0]
        0x0000c9a6:    b1c8        ..      CBZ      r0,0xc9dc ; am_hal_burst_mode_enable + 82
        0x0000c9a8:    f2440534    D.4.    MOV      r5,#0x4034
        0x0000c9ac:    f2c40500    ....    MOVT     r5,#0x4000
        0x0000c9b0:    6828        (h      LDR      r0,[r5,#0]
        0x0000c9b2:    2601        .&      MOVS     r6,#1
        0x0000c9b4:    f0400001    @...    ORR      r0,r0,#1
        0x0000c9b8:    6028        (`      STR      r0,[r5,#0]
        0x0000c9ba:    f2427010    B..p    MOV      r0,#0x2710
        0x0000c9be:    4629        )F      MOV      r1,r5
        0x0000c9c0:    2204        ."      MOVS     r2,#4
        0x0000c9c2:    2304        .#      MOVS     r3,#4
        0x0000c9c4:    9600        ..      STR      r6,[sp,#0]
        0x0000c9c6:    f000faaf    ....    BL       am_hal_flash_delay_status_check ; 0xcf28
        0x0000c9ca:    b158        X.      CBZ      r0,0xc9e4 ; am_hal_burst_mode_enable + 90
        0x0000c9cc:    7026        &p      STRB     r6,[r4,#0]
        0x0000c9ce:    e015        ..      B        0xc9fc ; am_hal_burst_mode_enable + 114
        0x0000c9d0:    4620         F      MOV      r0,r4
        0x0000c9d2:    b002        ..      ADD      sp,sp,#8
        0x0000c9d4:    e8bd4070    ..p@    POP      {r4-r6,lr}
        0x0000c9d8:    f000b812    ....    B.W      am_hal_burst_mode_enable_w_manual_sequence ; 0xca00
        0x0000c9dc:    2001        .       MOVS     r0,#1
        0x0000c9de:    7020         p      STRB     r0,[r4,#0]
        0x0000c9e0:    2007        .       MOVS     r0,#7
        0x0000c9e2:    e00b        ..      B        0xc9fc ; am_hal_burst_mode_enable + 114
        0x0000c9e4:    6828        (h      LDR      r0,[r5,#0]
        0x0000c9e6:    0780        ..      LSLS     r0,r0,#30
        0x0000c9e8:    d402        ..      BMI      0xc9f0 ; am_hal_burst_mode_enable + 102
        0x0000c9ea:    2001        .       MOVS     r0,#1
        0x0000c9ec:    7020         p      STRB     r0,[r4,#0]
        0x0000c9ee:    e005        ..      B        0xc9fc ; am_hal_burst_mode_enable + 114
        0x0000c9f0:    6828        (h      LDR      r0,[r5,#0]
        0x0000c9f2:    2101        .!      MOVS     r1,#1
        0x0000c9f4:    ea210090    !...    BIC      r0,r1,r0,LSR #2
        0x0000c9f8:    7020         p      STRB     r0,[r4,#0]
        0x0000c9fa:    2000        .       MOVS     r0,#0
        0x0000c9fc:    b002        ..      ADD      sp,sp,#8
        0x0000c9fe:    bd70        p.      POP      {r4-r6,pc}
    am_hal_burst_mode_enable_w_manual_sequence
        0x0000ca00:    b570        p.      PUSH     {r4-r6,lr}
        0x0000ca02:    b082        ..      SUB      sp,sp,#8
        0x0000ca04:    f2410198    A...    MOV      r1,#0x1098
        0x0000ca08:    f2c10100    ....    MOVT     r1,#0x1000
        0x0000ca0c:    7809        .x      LDRB     r1,[r1,#0]
        0x0000ca0e:    4604        .F      MOV      r4,r0
        0x0000ca10:    2900        .)      CMP      r1,#0
        0x0000ca12:    d04d        M.      BEQ      0xcab0 ; am_hal_burst_mode_enable_w_manual_sequence + 176
        0x0000ca14:    f6430038    C.8.    MOV      r0,#0x3838
        0x0000ca18:    f2c50002    ....    MOVT     r0,#0x5002
        0x0000ca1c:    6800        .h      LDR      r0,[r0,#0]
        0x0000ca1e:    0700        ..      LSLS     r0,r0,#28
        0x0000ca20:    d44a        J.      BMI      0xcab8 ; am_hal_burst_mode_enable_w_manual_sequence + 184
        0x0000ca22:    2560        `%      MOVS     r5,#0x60
        0x0000ca24:    f2c40502    ....    MOVT     r5,#0x4002
        0x0000ca28:    f000fd22    ..".    BL       am_hal_interrupt_master_disable ; 0xd470
        0x0000ca2c:    9001        ..      STR      r0,[sp,#4]
        0x0000ca2e:    f001f850    ..P.    BL       am_hal_pwrctrl_wa_vddf_restore ; 0xdad2
        0x0000ca32:    6828        (h      LDR      r0,[r5,#0]
        0x0000ca34:    f2410604    A...    MOV      r6,#0x1004
        0x0000ca38:    f0400080    @...    ORR      r0,r0,#0x80
        0x0000ca3c:    6028        (`      STR      r0,[r5,#0]
        0x0000ca3e:    6828        (h      LDR      r0,[r5,#0]
        0x0000ca40:    f2c40602    ....    MOVT     r6,#0x4002
        0x0000ca44:    f0400040    @.@.    ORR      r0,r0,#0x40
        0x0000ca48:    6028        (`      STR      r0,[r5,#0]
        0x0000ca4a:    6830        0h      LDR      r0,[r6,#0]
        0x0000ca4c:    6829        )h      LDR      r1,[r5,#0]
        0x0000ca4e:    f3c0005a    ..Z.    UBFX     r0,r0,#1,#27
        0x0000ca52:    f3601145    `.E.    BFI      r1,r0,#5,#1
        0x0000ca56:    6029        )`      STR      r1,[r5,#0]
        0x0000ca58:    6828        (h      LDR      r0,[r5,#0]
        0x0000ca5a:    f4407080    @..p    ORR      r0,r0,#0x100
        0x0000ca5e:    6028        (`      STR      r0,[r5,#0]
        0x0000ca60:    20a0        .       MOVS     r0,#0xa0
        0x0000ca62:    f000fa4c    ..L.    BL       am_hal_flash_delay ; 0xcefe
        0x0000ca66:    6828        (h      LDR      r0,[r5,#0]
        0x0000ca68:    f0400020    @. .    ORR      r0,r0,#0x20
        0x0000ca6c:    6028        (`      STR      r0,[r5,#0]
        0x0000ca6e:    6a30        0j      LDR      r0,[r6,#0x20]
        0x0000ca70:    f0400080    @...    ORR      r0,r0,#0x80
        0x0000ca74:    6230        0b      STR      r0,[r6,#0x20]
        0x0000ca76:    f8d50fa0    ....    LDR      r0,[r5,#0xfa0]
        0x0000ca7a:    f0400001    @...    ORR      r0,r0,#1
        0x0000ca7e:    f8c50fa0    ....    STR      r0,[r5,#0xfa0]
        0x0000ca82:    6869        ih      LDR      r1,[r5,#4]
        0x0000ca84:    6868        hh      LDR      r0,[r5,#4]
        0x0000ca86:    06c9        ..      LSLS     r1,r1,#27
        0x0000ca88:    d422        ".      BMI      0xcad0 ; am_hal_burst_mode_enable_w_manual_sequence + 208
        0x0000ca8a:    f0400008    @...    ORR      r0,r0,#8
        0x0000ca8e:    6068        h`      STR      r0,[r5,#4]
        0x0000ca90:    6868        hh      LDR      r0,[r5,#4]
        0x0000ca92:    f0400001    @...    ORR      r0,r0,#1
        0x0000ca96:    6068        h`      STR      r0,[r5,#4]
        0x0000ca98:    6868        hh      LDR      r0,[r5,#4]
        0x0000ca9a:    f0400004    @...    ORR      r0,r0,#4
        0x0000ca9e:    6068        h`      STR      r0,[r5,#4]
        0x0000caa0:    6868        hh      LDR      r0,[r5,#4]
        0x0000caa2:    f0200002     ...    BIC      r0,r0,#2
        0x0000caa6:    6068        h`      STR      r0,[r5,#4]
        0x0000caa8:    6868        hh      LDR      r0,[r5,#4]
        0x0000caaa:    f0400010    @...    ORR      r0,r0,#0x10
        0x0000caae:    e011        ..      B        0xcad4 ; am_hal_burst_mode_enable_w_manual_sequence + 212
        0x0000cab0:    2001        .       MOVS     r0,#1
        0x0000cab2:    7020         p      STRB     r0,[r4,#0]
        0x0000cab4:    2407        .$      MOVS     r4,#7
        0x0000cab6:    e044        D.      B        0xcb42 ; am_hal_burst_mode_enable_w_manual_sequence + 322
        0x0000cab8:    f2411521    A.!.    MOV      r5,#0x1121
        0x0000cabc:    f2c10500    ....    MOVT     r5,#0x1000
        0x0000cac0:    2001        .       MOVS     r0,#1
        0x0000cac2:    7028        (p      STRB     r0,[r5,#0]
        0x0000cac4:    4620         F      MOV      r0,r4
        0x0000cac6:    f7ffff60    ..`.    BL       am_hal_burst_mode_enable ; 0xc98a
        0x0000caca:    2100        .!      MOVS     r1,#0
        0x0000cacc:    7029        )p      STRB     r1,[r5,#0]
        0x0000cace:    e039        9.      B        0xcb44 ; am_hal_burst_mode_enable_w_manual_sequence + 324
        0x0000cad0:    f0400004    @...    ORR      r0,r0,#4
        0x0000cad4:    6068        h`      STR      r0,[r5,#4]
        0x0000cad6:    2020                MOVS     r0,#0x20
        0x0000cad8:    f000fa11    ....    BL       am_hal_flash_delay ; 0xcefe
        0x0000cadc:    6868        hh      LDR      r0,[r5,#4]
        0x0000cade:    f0400002    @...    ORR      r0,r0,#2
        0x0000cae2:    6068        h`      STR      r0,[r5,#4]
        0x0000cae4:    2010        .       MOVS     r0,#0x10
        0x0000cae6:    f000fa0a    ....    BL       am_hal_flash_delay ; 0xcefe
        0x0000caea:    f2411621    A.!.    MOV      r6,#0x1121
        0x0000caee:    f2c10600    ....    MOVT     r6,#0x1000
        0x0000caf2:    2001        .       MOVS     r0,#1
        0x0000caf4:    7030        0p      STRB     r0,[r6,#0]
        0x0000caf6:    4620         F      MOV      r0,r4
        0x0000caf8:    f7ffff47    ..G.    BL       am_hal_burst_mode_enable ; 0xc98a
        0x0000cafc:    4604        .F      MOV      r4,r0
        0x0000cafe:    2000        .       MOVS     r0,#0
        0x0000cb00:    7030        0p      STRB     r0,[r6,#0]
        0x0000cb02:    f44f70c8    O..p    MOV      r0,#0x190
        0x0000cb06:    f000f9fa    ....    BL       am_hal_flash_delay ; 0xcefe
        0x0000cb0a:    6828        (h      LDR      r0,[r5,#0]
        0x0000cb0c:    f4207080     ..p    BIC      r0,r0,#0x100
        0x0000cb10:    6028        (`      STR      r0,[r5,#0]
        0x0000cb12:    6828        (h      LDR      r0,[r5,#0]
        0x0000cb14:    f0200080     ...    BIC      r0,r0,#0x80
        0x0000cb18:    6028        (`      STR      r0,[r5,#0]
        0x0000cb1a:    6828        (h      LDR      r0,[r5,#0]
        0x0000cb1c:    f0200040     .@.    BIC      r0,r0,#0x40
        0x0000cb20:    6028        (`      STR      r0,[r5,#0]
        0x0000cb22:    6828        (h      LDR      r0,[r5,#0]
        0x0000cb24:    f0200020     . .    BIC      r0,r0,#0x20
        0x0000cb28:    6028        (`      STR      r0,[r5,#0]
        0x0000cb2a:    6868        hh      LDR      r0,[r5,#4]
        0x0000cb2c:    07c0        ..      LSLS     r0,r0,#31
        0x0000cb2e:    d003        ..      BEQ      0xcb38 ; am_hal_burst_mode_enable_w_manual_sequence + 312
        0x0000cb30:    6868        hh      LDR      r0,[r5,#4]
        0x0000cb32:    f0200001     ...    BIC      r0,r0,#1
        0x0000cb36:    6068        h`      STR      r0,[r5,#4]
        0x0000cb38:    f000ffac    ....    BL       am_hal_pwrctrl_wa_vddf_boost ; 0xda94
        0x0000cb3c:    9801        ..      LDR      r0,[sp,#4]
        0x0000cb3e:    f000fc9f    ....    BL       am_hal_interrupt_master_set ; 0xd480
        0x0000cb42:    4620         F      MOV      r0,r4
        0x0000cb44:    b002        ..      ADD      sp,sp,#8
        0x0000cb46:    bd70        p.      POP      {r4-r6,pc}
    am_hal_cachectrl_config
        0x0000cb48:    b5b0        ..      PUSH     {r4,r5,r7,lr}
        0x0000cb4a:    b082        ..      SUB      sp,sp,#8
        0x0000cb4c:    4604        .F      MOV      r4,r0
        0x0000cb4e:    f000fc8f    ....    BL       am_hal_interrupt_master_disable ; 0xd470
        0x0000cb52:    f2480500    H...    MOVW     r5,#0x8000
        0x0000cb56:    9001        ..      STR      r0,[sp,#4]
        0x0000cb58:    f2c40501    ....    MOVT     r5,#0x4001
        0x0000cb5c:    6828        (h      LDR      r0,[r5,#0]
        0x0000cb5e:    f4207040     .@p    BIC      r0,r0,#0x300
        0x0000cb62:    6028        (`      STR      r0,[r5,#0]
        0x0000cb64:    9801        ..      LDR      r0,[sp,#4]
        0x0000cb66:    f000fc8b    ....    BL       am_hal_interrupt_master_set ; 0xd480
        0x0000cb6a:    78a1        .x      LDRB     r1,[r4,#2]
        0x0000cb6c:    7820         x      LDRB     r0,[r4,#0]
        0x0000cb6e:    7862        bx      LDRB     r2,[r4,#1]
        0x0000cb70:    0049        I.      LSLS     r1,r1,#1
        0x0000cb72:    b2c9        ..      UXTB     r1,r1
        0x0000cb74:    f0020203    ....    AND      r2,r2,#3
        0x0000cb78:    f3601107    `...    BFI      r1,r0,#4,#4
        0x0000cb7c:    ea412002    A..     ORR      r0,r1,r2,LSL #8
        0x0000cb80:    f4401080    @...    ORR      r0,r0,#0x100000
        0x0000cb84:    f4406180    @..a    ORR      r1,r0,#0x400
        0x0000cb88:    2000        .       MOVS     r0,#0
        0x0000cb8a:    6029        )`      STR      r1,[r5,#0]
        0x0000cb8c:    b002        ..      ADD      sp,sp,#8
        0x0000cb8e:    bdb0        ..      POP      {r4,r5,r7,pc}
    am_hal_cachectrl_control
        0x0000cb90:    b510        ..      PUSH     {r4,lr}
        0x0000cb92:    b082        ..      SUB      sp,sp,#8
        0x0000cb94:    1e42        B.      SUBS     r2,r0,#1
        0x0000cb96:    2a10        .*      CMP      r2,#0x10
        0x0000cb98:    f200807e    ..~.    BHI.W    0xcc98 ; am_hal_cachectrl_control + 264
        0x0000cb9c:    2001        .       MOVS     r0,#1
        0x0000cb9e:    e8dff002    ....    TBB      [pc,r2]
    $d.4
        0x0000cba2:    097e        ~.      DCW    2430
        0x0000cba4:    1a181512    ....    DCD    437785874
        0x0000cba8:    2f221f1c    .."/    DCD    790765340
        0x0000cbac:    604f483e    >HO`    DCD    1615808574
        0x0000cbb0:    00716a65    ejq.    DCD    7432805
    $t.5
        0x0000cbb4:    f2480000    H...    MOVW     r0,#0x8000
        0x0000cbb8:    f2c40001    ....    MOVT     r0,#0x4001
        0x0000cbbc:    6800        .h      LDR      r0,[r0,#0]
        0x0000cbbe:    01c0        ..      LSLS     r0,r0,#7
        0x0000cbc0:    d46c        l.      BMI      0xcc9c ; am_hal_cachectrl_control + 268
        0x0000cbc2:    2407        .$      MOVS     r4,#7
        0x0000cbc4:    e071        q.      B        0xccaa ; am_hal_cachectrl_control + 282
        0x0000cbc6:    f44f6088    O..`    MOV      r0,#0x440
        0x0000cbca:    e068        h.      B        0xcc9e ; am_hal_cachectrl_control + 270
        0x0000cbcc:    f44f7008    O..p    MOV      r0,#0x220
        0x0000cbd0:    e065        e.      B        0xcc9e ; am_hal_cachectrl_control + 270
        0x0000cbd2:    2040        @       MOVS     r0,#0x40
        0x0000cbd4:    e063        c.      B        0xcc9e ; am_hal_cachectrl_control + 270
        0x0000cbd6:    2020                MOVS     r0,#0x20
        0x0000cbd8:    e061        a.      B        0xcc9e ; am_hal_cachectrl_control + 270
        0x0000cbda:    f44f6080    O..`    MOV      r0,#0x400
        0x0000cbde:    e05e        ^.      B        0xcc9e ; am_hal_cachectrl_control + 270
        0x0000cbe0:    f44f7000    O..p    MOV      r0,#0x200
        0x0000cbe4:    e05b        [.      B        0xcc9e ; am_hal_cachectrl_control + 270
        0x0000cbe6:    f000fc43    ..C.    BL       am_hal_interrupt_master_disable ; 0xd470
        0x0000cbea:    9001        ..      STR      r0,[sp,#4]
        0x0000cbec:    f2480000    H...    MOVW     r0,#0x8000
        0x0000cbf0:    f2c40001    ....    MOVT     r0,#0x4001
        0x0000cbf4:    6801        .h      LDR      r1,[r0,#0]
        0x0000cbf6:    f0417180    A..q    ORR      r1,r1,#0x1000000
        0x0000cbfa:    6001        .`      STR      r1,[r0,#0]
        0x0000cbfc:    9801        ..      LDR      r0,[sp,#4]
        0x0000cbfe:    e00b        ..      B        0xcc18 ; am_hal_cachectrl_control + 136
        0x0000cc00:    f000fc36    ..6.    BL       am_hal_interrupt_master_disable ; 0xd470
        0x0000cc04:    9000        ..      STR      r0,[sp,#0]
        0x0000cc06:    f2480000    H...    MOVW     r0,#0x8000
        0x0000cc0a:    f2c40001    ....    MOVT     r0,#0x4001
        0x0000cc0e:    6801        .h      LDR      r1,[r0,#0]
        0x0000cc10:    f0217180    !..q    BIC      r1,r1,#0x1000000
        0x0000cc14:    6001        .`      STR      r1,[r0,#0]
        0x0000cc16:    9800        ..      LDR      r0,[sp,#0]
        0x0000cc18:    f000fc32    ..2.    BL       am_hal_interrupt_master_set ; 0xd480
        0x0000cc1c:    e044        D.      B        0xcca8 ; am_hal_cachectrl_control + 280
        0x0000cc1e:    2000        .       MOVS     r0,#0
        0x0000cc20:    f002fad6    ....    BL       set_LPMMODE ; 0xf1d0
        0x0000cc24:    b360        `.      CBZ      r0,0xcc80 ; am_hal_cachectrl_control + 240
        0x0000cc26:    2007        .       MOVS     r0,#7
        0x0000cc28:    f002fb2a    ..*.    BL       set_SEDELAY ; 0xf280
        0x0000cc2c:    b340        @.      CBZ      r0,0xcc80 ; am_hal_cachectrl_control + 240
        0x0000cc2e:    2003        .       MOVS     r0,#3
        0x0000cc30:    e023        #.      B        0xcc7a ; am_hal_cachectrl_control + 234
        0x0000cc32:    2001        .       MOVS     r0,#1
        0x0000cc34:    2401        .$      MOVS     r4,#1
        0x0000cc36:    f002facb    ....    BL       set_LPMMODE ; 0xf1d0
        0x0000cc3a:    b3b0        ..      CBZ      r0,0xccaa ; am_hal_cachectrl_control + 282
        0x0000cc3c:    2005        .       MOVS     r0,#5
        0x0000cc3e:    e005        ..      B        0xcc4c ; am_hal_cachectrl_control + 188
        0x0000cc40:    2001        .       MOVS     r0,#1
        0x0000cc42:    2401        .$      MOVS     r4,#1
        0x0000cc44:    f002fac4    ....    BL       set_LPMMODE ; 0xf1d0
        0x0000cc48:    b378        x.      CBZ      r0,0xccaa ; am_hal_cachectrl_control + 282
        0x0000cc4a:    2006        .       MOVS     r0,#6
        0x0000cc4c:    f002fb18    ....    BL       set_SEDELAY ; 0xf280
        0x0000cc50:    b1b0        ..      CBZ      r0,0xcc80 ; am_hal_cachectrl_control + 240
        0x0000cc52:    2001        .       MOVS     r0,#1
        0x0000cc54:    2401        .$      MOVS     r4,#1
        0x0000cc56:    f002fae9    ....    BL       set_RDWAIT ; 0xf22c
        0x0000cc5a:    2800        .(      CMP      r0,#0
        0x0000cc5c:    bf18        ..      IT       NE
        0x0000cc5e:    2400        .$      MOVNE    r4,#0
        0x0000cc60:    e023        #.      B        0xccaa ; am_hal_cachectrl_control + 282
        0x0000cc62:    b1c9        ..      CBZ      r1,0xcc98 ; am_hal_cachectrl_control + 264
        0x0000cc64:    6808        .h      LDR      r0,[r1,#0]
        0x0000cc66:    f002fab3    ....    BL       set_LPMMODE ; 0xf1d0
        0x0000cc6a:    e008        ..      B        0xcc7e ; am_hal_cachectrl_control + 238
        0x0000cc6c:    b1a1        ..      CBZ      r1,0xcc98 ; am_hal_cachectrl_control + 264
        0x0000cc6e:    6808        .h      LDR      r0,[r1,#0]
        0x0000cc70:    f002fb06    ....    BL       set_SEDELAY ; 0xf280
        0x0000cc74:    e003        ..      B        0xcc7e ; am_hal_cachectrl_control + 238
        0x0000cc76:    b179        y.      CBZ      r1,0xcc98 ; am_hal_cachectrl_control + 264
        0x0000cc78:    6808        .h      LDR      r0,[r1,#0]
        0x0000cc7a:    f002fad7    ....    BL       set_RDWAIT ; 0xf22c
        0x0000cc7e:    b998        ..      CBNZ     r0,0xcca8 ; am_hal_cachectrl_control + 280
        0x0000cc80:    2401        .$      MOVS     r4,#1
        0x0000cc82:    e012        ..      B        0xccaa ; am_hal_cachectrl_control + 282
        0x0000cc84:    b141        A.      CBZ      r1,0xcc98 ; am_hal_cachectrl_control + 264
        0x0000cc86:    6848        Hh      LDR      r0,[r1,#4]
        0x0000cc88:    220f        ."      MOVS     r2,#0xf
        0x0000cc8a:    f6cf0200    ....    MOVT     r2,#0xf800
        0x0000cc8e:    4210        .B      TST      r0,r2
        0x0000cc90:    d102        ..      BNE      0xcc98 ; am_hal_cachectrl_control + 264
        0x0000cc92:    688b        .h      LDR      r3,[r1,#8]
        0x0000cc94:    4213        .B      TST      r3,r2
        0x0000cc96:    d00b        ..      BEQ      0xccb0 ; am_hal_cachectrl_control + 288
        0x0000cc98:    2406        .$      MOVS     r4,#6
        0x0000cc9a:    e006        ..      B        0xccaa ; am_hal_cachectrl_control + 282
        0x0000cc9c:    2002        .       MOVS     r0,#2
        0x0000cc9e:    f2480100    H...    MOVW     r1,#0x8000
        0x0000cca2:    f2c40101    ....    MOVT     r1,#0x4001
        0x0000cca6:    6088        .`      STR      r0,[r1,#8]
        0x0000cca8:    2400        .$      MOVS     r4,#0
        0x0000ccaa:    4620         F      MOV      r0,r4
        0x0000ccac:    b002        ..      ADD      sp,sp,#8
        0x0000ccae:    bd10        ..      POP      {r4,pc}
        0x0000ccb0:    780a        .x      LDRB     r2,[r1,#0]
        0x0000ccb2:    2a01        .*      CMP      r2,#1
        0x0000ccb4:    d011        ..      BEQ      0xccda ; am_hal_cachectrl_control + 330
        0x0000ccb6:    2a00        .*      CMP      r2,#0
        0x0000ccb8:    d1ee        ..      BNE      0xcc98 ; am_hal_cachectrl_control + 264
        0x0000ccba:    f2480200    H...    MOVW     r2,#0x8000
        0x0000ccbe:    f2c40201    ....    MOVT     r2,#0x4001
        0x0000ccc2:    6110        .a      STR      r0,[r2,#0x10]
        0x0000ccc4:    6888        .h      LDR      r0,[r1,#8]
        0x0000ccc6:    6150        Pa      STR      r0,[r2,#0x14]
        0x0000ccc8:    7848        Hx      LDRB     r0,[r1,#1]
        0x0000ccca:    6811        .h      LDR      r1,[r2,#0]
        0x0000cccc:    f000003f    ..?.    AND      r0,r0,#0x3f
        0x0000ccd0:    f0210104    !...    BIC      r1,r1,#4
        0x0000ccd4:    ea410080    A...    ORR      r0,r1,r0,LSL #2
        0x0000ccd8:    e00e        ..      B        0xccf8 ; am_hal_cachectrl_control + 360
        0x0000ccda:    f2480200    H...    MOVW     r2,#0x8000
        0x0000ccde:    f2c40201    ....    MOVT     r2,#0x4001
        0x0000cce2:    6190        .a      STR      r0,[r2,#0x18]
        0x0000cce4:    6888        .h      LDR      r0,[r1,#8]
        0x0000cce6:    61d0        .a      STR      r0,[r2,#0x1c]
        0x0000cce8:    7848        Hx      LDRB     r0,[r1,#1]
        0x0000ccea:    6811        .h      LDR      r1,[r2,#0]
        0x0000ccec:    f000001f    ....    AND      r0,r0,#0x1f
        0x0000ccf0:    f0210108    !...    BIC      r1,r1,#8
        0x0000ccf4:    ea4100c0    A...    ORR      r0,r1,r0,LSL #3
        0x0000ccf8:    6010        .`      STR      r0,[r2,#0]
        0x0000ccfa:    e7d5        ..      B        0xcca8 ; am_hal_cachectrl_control + 280
    am_hal_cachectrl_enable
        0x0000ccfc:    f2480100    H...    MOVW     r1,#0x8000
        0x0000cd00:    f2c40101    ....    MOVT     r1,#0x4001
        0x0000cd04:    6808        .h      LDR      r0,[r1,#0]
        0x0000cd06:    f0400201    @...    ORR      r2,r0,#1
        0x0000cd0a:    2000        .       MOVS     r0,#0
        0x0000cd0c:    600a        .`      STR      r2,[r1,#0]
        0x0000cd0e:    4770        pG      BX       lr
    am_hal_clkgen_control
        0x0000cd10:    b510        ..      PUSH     {r4,lr}
        0x0000cd12:    f2410290    A...    MOV      r2,#0x1090
        0x0000cd16:    f2c10200    ....    MOVT     r2,#0x1000
        0x0000cd1a:    6813        .h      LDR      r3,[r2,#0]
        0x0000cd1c:    460c        .F      MOV      r4,r1
        0x0000cd1e:    b92b        +.      CBNZ     r3,0xcd2c ; am_hal_clkgen_control + 28
        0x0000cd20:    f24f0100    O...    MOVW     r1,#0xf000
        0x0000cd24:    f6c471ff    ...q    MOVT     r1,#0x4fff
        0x0000cd28:    6809        .h      LDR      r1,[r1,#0]
        0x0000cd2a:    6011        .`      STR      r1,[r2,#0]
        0x0000cd2c:    2809        .(      CMP      r0,#9
        0x0000cd2e:    d80f        ..      BHI      0xcd50 ; am_hal_clkgen_control + 64
        0x0000cd30:    e8dff000    ....    TBB      [pc,r0]
    $d.1
        0x0000cd34:    20181005    ...     DCD    538447877
        0x0000cd38:    544c4139    9ALT    DCD    1414283577
        0x0000cd3c:    775e        ^w      DCW    30558
    $t.2
        0x0000cd3e:    f244010c    D...    MOV      r1,#0x400c
        0x0000cd42:    f2c40100    ....    MOVT     r1,#0x4000
        0x0000cd46:    2047        G       MOVS     r0,#0x47
        0x0000cd48:    6088        .`      STR      r0,[r1,#8]
        0x0000cd4a:    2000        .       MOVS     r0,#0
        0x0000cd4c:    60c8        .`      STR      r0,[r1,#0xc]
        0x0000cd4e:    e03b        ;.      B        0xcdc8 ; am_hal_clkgen_control + 184
        0x0000cd50:    2006        .       MOVS     r0,#6
        0x0000cd52:    bd10        ..      POP      {r4,pc}
        0x0000cd54:    f244000c    D...    MOV      r0,#0x400c
        0x0000cd58:    f2c40000    ....    MOVT     r0,#0x4000
        0x0000cd5c:    6801        .h      LDR      r1,[r0,#0]
        0x0000cd5e:    f0210101    !...    BIC      r1,r1,#1
        0x0000cd62:    e042        B.      B        0xcdea ; am_hal_clkgen_control + 218
        0x0000cd64:    f244000c    D...    MOV      r0,#0x400c
        0x0000cd68:    f2c40000    ....    MOVT     r0,#0x4000
        0x0000cd6c:    6801        .h      LDR      r1,[r0,#0]
        0x0000cd6e:    f0210102    !...    BIC      r1,r1,#2
        0x0000cd72:    e03a        :.      B        0xcdea ; am_hal_clkgen_control + 218
        0x0000cd74:    f2401020    @. .    MOVW     r0,#0x120
        0x0000cd78:    f64f61ec    O..a    MOV      r1,#0xfeec
        0x0000cd7c:    f2c40002    ....    MOVT     r0,#0x4002
        0x0000cd80:    f6cf71ff    ...q    MOVT     r1,#0xffff
        0x0000cd84:    5841        AX      LDR      r1,[r0,r1]
        0x0000cd86:    b2c9        ..      UXTB     r1,r1
        0x0000cd88:    2921        !)      CMP      r1,#0x21
        0x0000cd8a:    d304        ..      BCC      0xcd96 ; am_hal_clkgen_control + 134
        0x0000cd8c:    6801        .h      LDR      r1,[r0,#0]
        0x0000cd8e:    2201        ."      MOVS     r2,#1
        0x0000cd90:    f3622109    b..!    BFI      r1,r2,#8,#2
        0x0000cd94:    6001        .`      STR      r1,[r0,#0]
        0x0000cd96:    f244000c    D...    MOV      r0,#0x400c
        0x0000cd9a:    f2c40000    ....    MOVT     r0,#0x4000
        0x0000cd9e:    6801        .h      LDR      r1,[r0,#0]
        0x0000cda0:    f0410101    A...    ORR      r1,r1,#1
        0x0000cda4:    e021        !.      B        0xcdea ; am_hal_clkgen_control + 218
        0x0000cda6:    f244000c    D...    MOV      r0,#0x400c
        0x0000cdaa:    f2c40000    ....    MOVT     r0,#0x4000
        0x0000cdae:    6801        .h      LDR      r1,[r0,#0]
        0x0000cdb0:    f0410102    A...    ORR      r1,r1,#2
        0x0000cdb4:    e019        ..      B        0xcdea ; am_hal_clkgen_control + 218
        0x0000cdb6:    f244010c    D...    MOV      r1,#0x400c
        0x0000cdba:    f2c40100    ....    MOVT     r1,#0x4000
        0x0000cdbe:    2047        G       MOVS     r0,#0x47
        0x0000cdc0:    6088        .`      STR      r0,[r1,#8]
        0x0000cdc2:    2001        .       MOVS     r0,#1
        0x0000cdc4:    60c8        .`      STR      r0,[r1,#0xc]
        0x0000cdc6:    2000        .       MOVS     r0,#0
        0x0000cdc8:    6088        .`      STR      r0,[r1,#8]
        0x0000cdca:    bd10        ..      POP      {r4,pc}
        0x0000cdcc:    f244000c    D...    MOV      r0,#0x400c
        0x0000cdd0:    f2c40000    ....    MOVT     r0,#0x4000
        0x0000cdd4:    6801        .h      LDR      r1,[r0,#0]
        0x0000cdd6:    f0210180    !...    BIC      r1,r1,#0x80
        0x0000cdda:    e006        ..      B        0xcdea ; am_hal_clkgen_control + 218
        0x0000cddc:    f244000c    D...    MOV      r0,#0x400c
        0x0000cde0:    f2c40000    ....    MOVT     r0,#0x4000
        0x0000cde4:    6801        .h      LDR      r1,[r0,#0]
        0x0000cde6:    f0410180    A...    ORR      r1,r1,#0x80
        0x0000cdea:    6001        .`      STR      r1,[r0,#0]
        0x0000cdec:    2000        .       MOVS     r0,#0
        0x0000cdee:    bd10        ..      POP      {r4,pc}
        0x0000cdf0:    f2401020    @. .    MOVW     r0,#0x120
        0x0000cdf4:    f64f61ec    O..a    MOV      r1,#0xfeec
        0x0000cdf8:    f2c40002    ....    MOVT     r0,#0x4002
        0x0000cdfc:    f6cf71ff    ...q    MOVT     r1,#0xffff
        0x0000ce00:    5841        AX      LDR      r1,[r0,r1]
        0x0000ce02:    b2c9        ..      UXTB     r1,r1
        0x0000ce04:    2921        !)      CMP      r1,#0x21
        0x0000ce06:    d307        ..      BCC      0xce18 ; am_hal_clkgen_control + 264
        0x0000ce08:    6801        .h      LDR      r1,[r0,#0]
        0x0000ce0a:    f4417140    A.@q    ORR      r1,r1,#0x300
        0x0000ce0e:    6001        .`      STR      r1,[r0,#0]
        0x0000ce10:    f44f507a    O.zP    MOV      r0,#0x3e80
        0x0000ce14:    f000f873    ..s.    BL       am_hal_flash_delay ; 0xcefe
        0x0000ce18:    b164        d.      CBZ      r4,0xce34 ; am_hal_clkgen_control + 292
        0x0000ce1a:    6820         h      LDR      r0,[r4,#0]
        0x0000ce1c:    f0400001    @...    ORR      r0,r0,#1
        0x0000ce20:    e00c        ..      B        0xce3c ; am_hal_clkgen_control + 300
        0x0000ce22:    f244000c    D...    MOV      r0,#0x400c
        0x0000ce26:    f2c40000    ....    MOVT     r0,#0x4000
        0x0000ce2a:    6941        Ai      LDR      r1,[r0,#0x14]
        0x0000ce2c:    f0210101    !...    BIC      r1,r1,#1
        0x0000ce30:    6141        Aa      STR      r1,[r0,#0x14]
        0x0000ce32:    e7db        ..      B        0xcdec ; am_hal_clkgen_control + 220
        0x0000ce34:    f64b0001    K...    MOV      r0,#0xb801
        0x0000ce38:    f2c00025    ..%.    MOVT     r0,#0x25
        0x0000ce3c:    f244010c    D...    MOV      r1,#0x400c
        0x0000ce40:    f2c40100    ....    MOVT     r1,#0x4000
        0x0000ce44:    6148        Ha      STR      r0,[r1,#0x14]
        0x0000ce46:    e7d1        ..      B        0xcdec ; am_hal_clkgen_control + 220
    am_hal_clkgen_status_get
        0x0000ce48:    b1c0        ..      CBZ      r0,0xce7c ; am_hal_clkgen_status_get + 52
        0x0000ce4a:    f2440118    D...    MOV      r1,#0x4018
        0x0000ce4e:    f2c40100    ....    MOVT     r1,#0x4000
        0x0000ce52:    680a        .h      LDR      r2,[r1,#0]
        0x0000ce54:    07d2        ..      LSLS     r2,r2,#31
        0x0000ce56:    f2436200    C..b    MOVW     r2,#0x3600
        0x0000ce5a:    f2c0126e    ..n.    MOVT     r2,#0x16e
        0x0000ce5e:    bf04        ..      ITT      EQ
        0x0000ce60:    f6464200    F..B    MOVWEQ   r2,#0x6c00
        0x0000ce64:    f2c022dc    ..."    MOVTEQ   r2,#0x2dc
        0x0000ce68:    6002        .`      STR      r2,[r0,#0]
        0x0000ce6a:    6849        Ih      LDR      r1,[r1,#4]
        0x0000ce6c:    f0010201    ....    AND      r2,r1,#1
        0x0000ce70:    f3c10140    ..@.    UBFX     r1,r1,#1,#1
        0x0000ce74:    6042        B`      STR      r2,[r0,#4]
        0x0000ce76:    7201        .r      STRB     r1,[r0,#8]
        0x0000ce78:    2000        .       MOVS     r0,#0
        0x0000ce7a:    4770        pG      BX       lr
        0x0000ce7c:    2006        .       MOVS     r0,#6
        0x0000ce7e:    4770        pG      BX       lr
    am_hal_ctimer_int_clear
        0x0000ce80:    b510        ..      PUSH     {r4,lr}
        0x0000ce82:    b082        ..      SUB      sp,sp,#8
        0x0000ce84:    4604        .F      MOV      r4,r0
        0x0000ce86:    f000faf3    ....    BL       am_hal_interrupt_master_disable ; 0xd470
        0x0000ce8a:    9001        ..      STR      r0,[sp,#4]
        0x0000ce8c:    f2482008    H..     MOV      r0,#0x8208
        0x0000ce90:    f2c40000    ....    MOVT     r0,#0x4000
        0x0000ce94:    6004        .`      STR      r4,[r0,#0]
        0x0000ce96:    9801        ..      LDR      r0,[sp,#4]
        0x0000ce98:    b002        ..      ADD      sp,sp,#8
        0x0000ce9a:    e8bd4010    ...@    POP      {r4,lr}
        0x0000ce9e:    f000baef    ....    B.W      am_hal_interrupt_master_set ; 0xd480
        0x0000cea2:    0000        ..      MOVS     r0,r0
    am_hal_ctimer_int_service
        0x0000cea4:    b5f0        ..      PUSH     {r4-r7,lr}
        0x0000cea6:    b081        ..      SUB      sp,sp,#4
        0x0000cea8:    b198        ..      CBZ      r0,0xced2 ; am_hal_ctimer_int_service + 46
        0x0000ceaa:    f241069c    A...    MOV      r6,#0x109c
        0x0000ceae:    4604        .F      MOV      r4,r0
        0x0000ceb0:    f04f4500    O..E    MOV      r5,#0x80000000
        0x0000ceb4:    f2c10600    ....    MOVT     r6,#0x1000
        0x0000ceb8:    fab4f784    ....    CLZ      r7,r4
        0x0000cebc:    f087001f    ....    EOR      r0,r7,#0x1f
        0x0000cec0:    f8560020    V. .    LDR      r0,[r6,r0,LSL #2]
        0x0000cec4:    b100        ..      CBZ      r0,0xcec8 ; am_hal_ctimer_int_service + 36
        0x0000cec6:    4780        .G      BLX      r0
        0x0000cec8:    fa25f007    %...    LSR      r0,r5,r7
        0x0000cecc:    4384        .C      BICS     r4,r4,r0
        0x0000cece:    2c00        .,      CMP      r4,#0
        0x0000ced0:    d1f2        ..      BNE      0xceb8 ; am_hal_ctimer_int_service + 20
        0x0000ced2:    b001        ..      ADD      sp,sp,#4
        0x0000ced4:    bdf0        ..      POP      {r4-r7,pc}
    am_hal_ctimer_int_status_get
        0x0000ced6:    b570        p.      PUSH     {r4-r6,lr}
        0x0000ced8:    b082        ..      SUB      sp,sp,#8
        0x0000ceda:    f2482600    H..&    MOVW     r6,#0x8200
        0x0000cede:    4605        .F      MOV      r5,r0
        0x0000cee0:    f2c40600    ....    MOVT     r6,#0x4000
        0x0000cee4:    f000fac4    ....    BL       am_hal_interrupt_master_disable ; 0xd470
        0x0000cee8:    9001        ..      STR      r0,[sp,#4]
        0x0000ceea:    6874        th      LDR      r4,[r6,#4]
        0x0000ceec:    b10d        ..      CBZ      r5,0xcef2 ; am_hal_ctimer_int_status_get + 28
        0x0000ceee:    6830        0h      LDR      r0,[r6,#0]
        0x0000cef0:    4004        .@      ANDS     r4,r4,r0
        0x0000cef2:    9801        ..      LDR      r0,[sp,#4]
        0x0000cef4:    f000fac4    ....    BL       am_hal_interrupt_master_set ; 0xd480
        0x0000cef8:    4620         F      MOV      r0,r4
        0x0000cefa:    b002        ..      ADD      sp,sp,#8
        0x0000cefc:    bd70        p.      POP      {r4-r6,pc}
    am_hal_flash_delay
        0x0000cefe:    f2440134    D.4.    MOV      r1,#0x4034
        0x0000cf02:    f2c40100    ....    MOVT     r1,#0x4000
        0x0000cf06:    680a        .h      LDR      r2,[r1,#0]
        0x0000cf08:    f3c20180    ....    UBFX     r1,r2,#2,#1
        0x0000cf0c:    4088        .@      LSLS     r0,r0,r1
        0x0000cf0e:    210e        .!      MOVS     r1,#0xe
        0x0000cf10:    f0120f04    ....    TST      r2,#4
        0x0000cf14:    bf08        ..      IT       EQ
        0x0000cf16:    210b        .!      MOVEQ    r1,#0xb
        0x0000cf18:    4281        .B      CMP      r1,r0
        0x0000cf1a:    bf28        (.      IT       CS
        0x0000cf1c:    4770        pG      BXCS     lr
        0x0000cf1e:    1a40        @.      SUBS     r0,r0,r1
        0x0000cf20:    219d        .!      MOVS     r1,#0x9d
        0x0000cf22:    f6c00100    ....    MOVT     r1,#0x800
        0x0000cf26:    4708        .G      BX       r1
    am_hal_flash_delay_status_check
        0x0000cf28:    e92d4ff0    -..O    PUSH     {r4-r11,lr}
        0x0000cf2c:    b081        ..      SUB      sp,sp,#4
        0x0000cf2e:    f8dd8028    ..(.    LDR      r8,[sp,#0x28]
        0x0000cf32:    f2440934    D.4.    MOV      r9,#0x4034
        0x0000cf36:    f2400b9d    @...    MOVW     r11,#0x9d
        0x0000cf3a:    461c        .F      MOV      r4,r3
        0x0000cf3c:    4615        .F      MOV      r5,r2
        0x0000cf3e:    460e        .F      MOV      r6,r1
        0x0000cf40:    4607        .F      MOV      r7,r0
        0x0000cf42:    f2c40900    ....    MOVT     r9,#0x4000
        0x0000cf46:    f04f0a10    O...    MOV      r10,#0x10
        0x0000cf4a:    f6c00b00    ....    MOVT     r11,#0x800
        0x0000cf4e:    bf00        ..      NOP      
        0x0000cf50:    6830        0h      LDR      r0,[r6,#0]
        0x0000cf52:    f1b80f00    ....    CMP      r8,#0
        0x0000cf56:    ea000005    ....    AND      r0,r0,r5
        0x0000cf5a:    d003        ..      BEQ      0xcf64 ; am_hal_flash_delay_status_check + 60
        0x0000cf5c:    42a0        .B      CMP      r0,r4
        0x0000cf5e:    d103        ..      BNE      0xcf68 ; am_hal_flash_delay_status_check + 64
        0x0000cf60:    e014        ..      B        0xcf8c ; am_hal_flash_delay_status_check + 100
        0x0000cf62:    bf00        ..      NOP      
        0x0000cf64:    42a0        .B      CMP      r0,r4
        0x0000cf66:    d111        ..      BNE      0xcf8c ; am_hal_flash_delay_status_check + 100
        0x0000cf68:    b197        ..      CBZ      r7,0xcf90 ; am_hal_flash_delay_status_check + 104
        0x0000cf6a:    f8d90000    ....    LDR      r0,[r9,#0]
        0x0000cf6e:    3f01        .?      SUBS     r7,#1
        0x0000cf70:    f3c00180    ....    UBFX     r1,r0,#2,#1
        0x0000cf74:    f0100f04    ....    TST      r0,#4
        0x0000cf78:    f06f000d    o...    MVN      r0,#0xd
        0x0000cf7c:    bf08        ..      IT       EQ
        0x0000cf7e:    f06f000a    o...    MVNEQ    r0,#0xa
        0x0000cf82:    fa0af101    ....    LSL      r1,r10,r1
        0x0000cf86:    4408        .D      ADD      r0,r0,r1
        0x0000cf88:    47d8        .G      BLX      r11
        0x0000cf8a:    e7e1        ..      B        0xcf50 ; am_hal_flash_delay_status_check + 40
        0x0000cf8c:    2000        .       MOVS     r0,#0
        0x0000cf8e:    e000        ..      B        0xcf92 ; am_hal_flash_delay_status_check + 106
        0x0000cf90:    2004        .       MOVS     r0,#4
        0x0000cf92:    b001        ..      ADD      sp,sp,#4
        0x0000cf94:    e8bd8ff0    ....    POP      {r4-r11,pc}
    am_hal_flash_load_ui32
        0x0000cf98:    2175        u!      MOVS     r1,#0x75
        0x0000cf9a:    f6c00100    ....    MOVT     r1,#0x800
        0x0000cf9e:    4708        .G      BX       r1
    am_hal_flash_store_ui32
        0x0000cfa0:    b580        ..      PUSH     {r7,lr}
        0x0000cfa2:    b084        ..      SUB      sp,sp,#0x10
        0x0000cfa4:    f6400290    @...    MOVW     r2,#0x890
        0x0000cfa8:    f2c00201    ....    MOVT     r2,#1
        0x0000cfac:    e9d23c00    ...<    LDRD     r3,r12,[r2,#0]
        0x0000cfb0:    6892        .h      LDR      r2,[r2,#8]
        0x0000cfb2:    e9cd3c01    ...<    STRD     r3,r12,[sp,#4]
        0x0000cfb6:    9203        ..      STR      r2,[sp,#0xc]
        0x0000cfb8:    aa01        ..      ADD      r2,sp,#4
        0x0000cfba:    3201        .2      ADDS     r2,#1
        0x0000cfbc:    4790        .G      BLX      r2
        0x0000cfbe:    b004        ..      ADD      sp,sp,#0x10
        0x0000cfc0:    bd80        ..      POP      {r7,pc}
    am_hal_gpio_interrupt_clear
        0x0000cfc2:    b510        ..      PUSH     {r4,lr}
        0x0000cfc4:    b082        ..      SUB      sp,sp,#8
        0x0000cfc6:    b1e8        ..      CBZ      r0,0xd004 ; am_hal_gpio_interrupt_clear + 66
        0x0000cfc8:    4604        .F      MOV      r4,r0
        0x0000cfca:    6880        .h      LDR      r0,[r0,#8]
        0x0000cfcc:    2100        .!      MOVS     r1,#0
        0x0000cfce:    ebb12f90    .../    CMP      r1,r0,LSR #10
        0x0000cfd2:    d119        ..      BNE      0xd008 ; am_hal_gpio_interrupt_clear + 70
        0x0000cfd4:    f000fa4c    ..L.    BL       am_hal_interrupt_master_disable ; 0xd470
        0x0000cfd8:    f2402108    @..!    MOVW     r1,#0x208
        0x0000cfdc:    9001        ..      STR      r0,[sp,#4]
        0x0000cfde:    f2c40101    ....    MOVT     r1,#0x4001
        0x0000cfe2:    6820         h      LDR      r0,[r4,#0]
        0x0000cfe4:    680a        .h      LDR      r2,[r1,#0]
        0x0000cfe6:    4310        .C      ORRS     r0,r0,r2
        0x0000cfe8:    6008        .`      STR      r0,[r1,#0]
        0x0000cfea:    6860        `h      LDR      r0,[r4,#4]
        0x0000cfec:    6a0a        .j      LDR      r2,[r1,#0x20]
        0x0000cfee:    4310        .C      ORRS     r0,r0,r2
        0x0000cff0:    6208        .b      STR      r0,[r1,#0x20]
        0x0000cff2:    68a0        .h      LDR      r0,[r4,#8]
        0x0000cff4:    6c0a        .l      LDR      r2,[r1,#0x40]
        0x0000cff6:    4310        .C      ORRS     r0,r0,r2
        0x0000cff8:    6408        .d      STR      r0,[r1,#0x40]
        0x0000cffa:    9801        ..      LDR      r0,[sp,#4]
        0x0000cffc:    f000fa40    ..@.    BL       am_hal_interrupt_master_set ; 0xd480
        0x0000d000:    2000        .       MOVS     r0,#0
        0x0000d002:    e002        ..      B        0xd00a ; am_hal_gpio_interrupt_clear + 72
        0x0000d004:    2006        .       MOVS     r0,#6
        0x0000d006:    e000        ..      B        0xd00a ; am_hal_gpio_interrupt_clear + 72
        0x0000d008:    2005        .       MOVS     r0,#5
        0x0000d00a:    b002        ..      ADD      sp,sp,#8
        0x0000d00c:    bd10        ..      POP      {r4,pc}
    am_hal_gpio_interrupt_enable
        0x0000d00e:    b510        ..      PUSH     {r4,lr}
        0x0000d010:    b082        ..      SUB      sp,sp,#8
        0x0000d012:    4604        .F      MOV      r4,r0
        0x0000d014:    6880        .h      LDR      r0,[r0,#8]
        0x0000d016:    2100        .!      MOVS     r1,#0
        0x0000d018:    ebb12f90    .../    CMP      r1,r0,LSR #10
        0x0000d01c:    d117        ..      BNE      0xd04e ; am_hal_gpio_interrupt_enable + 64
        0x0000d01e:    f000fa27    ..'.    BL       am_hal_interrupt_master_disable ; 0xd470
        0x0000d022:    f2402100    @..!    MOVW     r1,#0x200
        0x0000d026:    9001        ..      STR      r0,[sp,#4]
        0x0000d028:    f2c40101    ....    MOVT     r1,#0x4001
        0x0000d02c:    6820         h      LDR      r0,[r4,#0]
        0x0000d02e:    680a        .h      LDR      r2,[r1,#0]
        0x0000d030:    4310        .C      ORRS     r0,r0,r2
        0x0000d032:    6008        .`      STR      r0,[r1,#0]
        0x0000d034:    6860        `h      LDR      r0,[r4,#4]
        0x0000d036:    6a0a        .j      LDR      r2,[r1,#0x20]
        0x0000d038:    4310        .C      ORRS     r0,r0,r2
        0x0000d03a:    6208        .b      STR      r0,[r1,#0x20]
        0x0000d03c:    68a0        .h      LDR      r0,[r4,#8]
        0x0000d03e:    6c0a        .l      LDR      r2,[r1,#0x40]
        0x0000d040:    4310        .C      ORRS     r0,r0,r2
        0x0000d042:    6408        .d      STR      r0,[r1,#0x40]
        0x0000d044:    9801        ..      LDR      r0,[sp,#4]
        0x0000d046:    f000fa1b    ....    BL       am_hal_interrupt_master_set ; 0xd480
        0x0000d04a:    2000        .       MOVS     r0,#0
        0x0000d04c:    e000        ..      B        0xd050 ; am_hal_gpio_interrupt_enable + 66
        0x0000d04e:    2005        .       MOVS     r0,#5
        0x0000d050:    b002        ..      ADD      sp,sp,#8
        0x0000d052:    bd10        ..      POP      {r4,pc}
    am_hal_gpio_interrupt_register
        0x0000d054:    2849        I(      CMP      r0,#0x49
        0x0000d056:    bf84        ..      ITT      HI
        0x0000d058:    2005        .       MOVHI    r0,#5
        0x0000d05a:    4770        pG      BXHI     lr
        0x0000d05c:    2900        .)      CMP      r1,#0
        0x0000d05e:    bf0f        ..      ITEEE    EQ
        0x0000d060:    2006        .       MOVEQ    r0,#6
        0x0000d062:    f241625c    A.\b    MOVNE    r2,#0x165c
        0x0000d066:    f2c10200    ....    MOVTNE   r2,#0x1000
        0x0000d06a:    f8421020    B. .    STRNE    r1,[r2,r0,LSL #2]
        0x0000d06e:    bf18        ..      IT       NE
        0x0000d070:    2000        .       MOVNE    r0,#0
        0x0000d072:    4770        pG      BX       lr
    am_hal_gpio_interrupt_service
        0x0000d074:    e92d4ff0    -..O    PUSH     {r4-r11,lr}
        0x0000d078:    b081        ..      SUB      sp,sp,#4
        0x0000d07a:    b3d0        ..      CBZ      r0,0xd0f2 ; am_hal_gpio_interrupt_service + 126
        0x0000d07c:    6882        .h      LDR      r2,[r0,#8]
        0x0000d07e:    2100        .!      MOVS     r1,#0
        0x0000d080:    ebb12f92    .../    CMP      r1,r2,LSR #10
        0x0000d084:    d138        8.      BNE      0xd0f8 ; am_hal_gpio_interrupt_service + 132
        0x0000d086:    f241645c    A.\d    MOV      r4,#0x165c
        0x0000d08a:    f2415934    A.4Y    MOV      r9,#0x1534
        0x0000d08e:    f04f0b00    O...    MOV      r11,#0
        0x0000d092:    f04f0a03    O...    MOV      r10,#3
        0x0000d096:    f04f4700    O..G    MOV      r7,#0x80000000
        0x0000d09a:    f2c10400    ....    MOVT     r4,#0x1000
        0x0000d09e:    f2c10900    ....    MOVT     r9,#0x1000
        0x0000d0a2:    2600        .&      MOVS     r6,#0
        0x0000d0a4:    f8505b04    P..[    LDR      r5,[r0],#4
        0x0000d0a8:    9000        ..      STR      r0,[sp,#0]
        0x0000d0aa:    b1dd        ..      CBZ      r5,0xd0e4 ; am_hal_gpio_interrupt_service + 112
        0x0000d0ac:    4268        hB      RSBS     r0,r5,#0
        0x0000d0ae:    4028        (@      ANDS     r0,r0,r5
        0x0000d0b0:    fab0f880    ....    CLZ      r8,r0
        0x0000d0b4:    eba60008    ....    SUB      r0,r6,r8
        0x0000d0b8:    301f        .0      ADDS     r0,r0,#0x1f
        0x0000d0ba:    f8541020    T. .    LDR      r1,[r4,r0,LSL #2]
        0x0000d0be:    b139        9.      CBZ      r1,0xd0d0 ; am_hal_gpio_interrupt_service + 92
        0x0000d0c0:    07ca        ..      LSLS     r2,r1,#31
        0x0000d0c2:    d109        ..      BNE      0xd0d8 ; am_hal_gpio_interrupt_service + 100
        0x0000d0c4:    f8590020    Y. .    LDR      r0,[r9,r0,LSL #2]
        0x0000d0c8:    f0410101    A...    ORR      r1,r1,#1
        0x0000d0cc:    4788        .G      BLX      r1
        0x0000d0ce:    e004        ..      B        0xd0da ; am_hal_gpio_interrupt_service + 102
        0x0000d0d0:    f04f0b07    O...    MOV      r11,#7
        0x0000d0d4:    e001        ..      B        0xd0da ; am_hal_gpio_interrupt_service + 102
        0x0000d0d6:    bf00        ..      NOP      
        0x0000d0d8:    4788        .G      BLX      r1
        0x0000d0da:    fa27f008    '...    LSR      r0,r7,r8
        0x0000d0de:    4385        .C      BICS     r5,r5,r0
        0x0000d0e0:    2d00        .-      CMP      r5,#0
        0x0000d0e2:    d1e3        ..      BNE      0xd0ac ; am_hal_gpio_interrupt_service + 56
        0x0000d0e4:    9800        ..      LDR      r0,[sp,#0]
        0x0000d0e6:    f1ba0a01    ....    SUBS     r10,r10,#1
        0x0000d0ea:    f1060620    .. .    ADD      r6,r6,#0x20
        0x0000d0ee:    d1d9        ..      BNE      0xd0a4 ; am_hal_gpio_interrupt_service + 48
        0x0000d0f0:    e004        ..      B        0xd0fc ; am_hal_gpio_interrupt_service + 136
        0x0000d0f2:    f04f0b06    O...    MOV      r11,#6
        0x0000d0f6:    e001        ..      B        0xd0fc ; am_hal_gpio_interrupt_service + 136
        0x0000d0f8:    f04f0b05    O...    MOV      r11,#5
        0x0000d0fc:    4658        XF      MOV      r0,r11
        0x0000d0fe:    b001        ..      ADD      sp,sp,#4
        0x0000d100:    e8bd8ff0    ....    POP      {r4-r11,pc}
    am_hal_gpio_interrupt_status_get
        0x0000d104:    b570        p.      PUSH     {r4-r6,lr}
        0x0000d106:    b084        ..      SUB      sp,sp,#0x10
        0x0000d108:    b351        Q.      CBZ      r1,0xd160 ; am_hal_gpio_interrupt_status_get + 92
        0x0000d10a:    4605        .F      MOV      r5,r0
        0x0000d10c:    6888        .h      LDR      r0,[r1,#8]
        0x0000d10e:    460c        .F      MOV      r4,r1
        0x0000d110:    2100        .!      MOVS     r1,#0
        0x0000d112:    ebb12f90    .../    CMP      r1,r0,LSR #10
        0x0000d116:    d125        %.      BNE      0xd164 ; am_hal_gpio_interrupt_status_get + 96
        0x0000d118:    f2402600    @..&    MOVW     r6,#0x200
        0x0000d11c:    f04f30ff    O..0    MOV      r0,#0xffffffff
        0x0000d120:    f2c40601    ....    MOVT     r6,#0x4001
        0x0000d124:    9003        ..      STR      r0,[sp,#0xc]
        0x0000d126:    9002        ..      STR      r0,[sp,#8]
        0x0000d128:    9001        ..      STR      r0,[sp,#4]
        0x0000d12a:    f000f9a1    ....    BL       am_hal_interrupt_master_disable ; 0xd470
        0x0000d12e:    9000        ..      STR      r0,[sp,#0]
        0x0000d130:    b12d        -.      CBZ      r5,0xd13e ; am_hal_gpio_interrupt_status_get + 58
        0x0000d132:    6830        0h      LDR      r0,[r6,#0]
        0x0000d134:    9003        ..      STR      r0,[sp,#0xc]
        0x0000d136:    6a30        0j      LDR      r0,[r6,#0x20]
        0x0000d138:    9002        ..      STR      r0,[sp,#8]
        0x0000d13a:    6c30        0l      LDR      r0,[r6,#0x40]
        0x0000d13c:    9001        ..      STR      r0,[sp,#4]
        0x0000d13e:    6870        ph      LDR      r0,[r6,#4]
        0x0000d140:    9903        ..      LDR      r1,[sp,#0xc]
        0x0000d142:    4008        .@      ANDS     r0,r0,r1
        0x0000d144:    6020         `      STR      r0,[r4,#0]
        0x0000d146:    6a70        pj      LDR      r0,[r6,#0x24]
        0x0000d148:    9902        ..      LDR      r1,[sp,#8]
        0x0000d14a:    4008        .@      ANDS     r0,r0,r1
        0x0000d14c:    6060        ``      STR      r0,[r4,#4]
        0x0000d14e:    6c70        pl      LDR      r0,[r6,#0x44]
        0x0000d150:    9901        ..      LDR      r1,[sp,#4]
        0x0000d152:    4008        .@      ANDS     r0,r0,r1
        0x0000d154:    60a0        .`      STR      r0,[r4,#8]
        0x0000d156:    9800        ..      LDR      r0,[sp,#0]
        0x0000d158:    f000f992    ....    BL       am_hal_interrupt_master_set ; 0xd480
        0x0000d15c:    2000        .       MOVS     r0,#0
        0x0000d15e:    e002        ..      B        0xd166 ; am_hal_gpio_interrupt_status_get + 98
        0x0000d160:    2006        .       MOVS     r0,#6
        0x0000d162:    e000        ..      B        0xd166 ; am_hal_gpio_interrupt_status_get + 98
        0x0000d164:    2005        .       MOVS     r0,#5
        0x0000d166:    b004        ..      ADD      sp,sp,#0x10
        0x0000d168:    bd70        p.      POP      {r4-r6,pc}
        0x0000d16a:    0000        ..      MOVS     r0,r0
    am_hal_gpio_pinconfig
        0x0000d16c:    e92d4ff0    -..O    PUSH     {r4-r11,lr}
        0x0000d170:    b085        ..      SUB      sp,sp,#0x14
        0x0000d172:    2849        I(      CMP      r0,#0x49
        0x0000d174:    d904        ..      BLS      0xd180 ; am_hal_gpio_pinconfig + 20
        0x0000d176:    2506        .%      MOVS     r5,#6
        0x0000d178:    4628        (F      MOV      r0,r5
        0x0000d17a:    b005        ..      ADD      sp,sp,#0x14
        0x0000d17c:    e8bd8ff0    ....    POP      {r4-r11,pc}
        0x0000d180:    b2ce        ..      UXTB     r6,r1
        0x0000d182:    4604        .F      MOV      r4,r0
        0x0000d184:    f2401200    @...    MOVW     r2,#0x100
        0x0000d188:    f0060307    ....    AND      r3,r6,#7
        0x0000d18c:    2000        .       MOVS     r0,#0
        0x0000d18e:    f6c00200    ....    MOVT     r2,#0x800
        0x0000d192:    ebb01f56    ..V.    CMP      r0,r6,LSR #5
        0x0000d196:    ea4f00c3    O...    LSL      r0,r3,#3
        0x0000d19a:    d01d        ..      BEQ      0xd1d8 ; am_hal_gpio_pinconfig + 108
        0x0000d19c:    0977        w.      LSRS     r7,r6,#5
        0x0000d19e:    2ebf        ..      CMP      r6,#0xbf
        0x0000d1a0:    f0400001    @...    ORR      r0,r0,#1
        0x0000d1a4:    d80d        ..      BHI      0xd1c2 ; am_hal_gpio_pinconfig + 86
        0x0000d1a6:    2f01        ./      CMP      r7,#1
        0x0000d1a8:    d00b        ..      BEQ      0xd1c2 ; am_hal_gpio_pinconfig + 86
        0x0000d1aa:    f64026ec    @..&    MOV      r6,#0xaec
        0x0000d1ae:    f2c00601    ....    MOVT     r6,#1
        0x0000d1b2:    5d36        6]      LDRB     r6,[r6,r4]
        0x0000d1b4:    4615        .F      MOV      r5,r2
        0x0000d1b6:    07f6        ..      LSLS     r6,r6,#31
        0x0000d1b8:    d0de        ..      BEQ      0xd178 ; am_hal_gpio_pinconfig + 12
        0x0000d1ba:    ea401087    @...    ORR      r0,r0,r7,LSL #6
        0x0000d1be:    3880        .8      SUBS     r0,r0,#0x80
        0x0000d1c0:    e00a        ..      B        0xd1d8 ; am_hal_gpio_pinconfig + 108
        0x0000d1c2:    2f06        ./      CMP      r7,#6
        0x0000d1c4:    d103        ..      BNE      0xd1ce ; am_hal_gpio_pinconfig + 98
        0x0000d1c6:    2c14        .,      CMP      r4,#0x14
        0x0000d1c8:    d006        ..      BEQ      0xd1d8 ; am_hal_gpio_pinconfig + 108
        0x0000d1ca:    1c55        U.      ADDS     r5,r2,#1
        0x0000d1cc:    e7d4        ..      B        0xd178 ; am_hal_gpio_pinconfig + 12
        0x0000d1ce:    2c14        .,      CMP      r4,#0x14
        0x0000d1d0:    d102        ..      BNE      0xd1d8 ; am_hal_gpio_pinconfig + 108
        0x0000d1d2:    2f01        ./      CMP      r7,#1
        0x0000d1d4:    4615        .F      MOV      r5,r2
        0x0000d1d6:    d0cf        ..      BEQ      0xd178 ; am_hal_gpio_pinconfig + 12
        0x0000d1d8:    f3c107c1    ....    UBFX     r7,r1,#3,#2
        0x0000d1dc:    b197        ..      CBZ      r7,0xd204 ; am_hal_gpio_pinconfig + 152
        0x0000d1de:    2f02        ./      CMP      r7,#2
        0x0000d1e0:    f1020502    ....    ADD      r5,r2,#2
        0x0000d1e4:    d008        ..      BEQ      0xd1f8 ; am_hal_gpio_pinconfig + 140
        0x0000d1e6:    2f01        ./      CMP      r7,#1
        0x0000d1e8:    d1c6        ..      BNE      0xd178 ; am_hal_gpio_pinconfig + 12
        0x0000d1ea:    2c24        $,      CMP      r4,#0x24
        0x0000d1ec:    d001        ..      BEQ      0xd1f2 ; am_hal_gpio_pinconfig + 134
        0x0000d1ee:    2c03        .,      CMP      r4,#3
        0x0000d1f0:    d1c2        ..      BNE      0xd178 ; am_hal_gpio_pinconfig + 12
        0x0000d1f2:    f0400040    @.@.    ORR      r0,r0,#0x40
        0x0000d1f6:    e005        ..      B        0xd204 ; am_hal_gpio_pinconfig + 152
        0x0000d1f8:    2c29        ),      CMP      r4,#0x29
        0x0000d1fa:    d001        ..      BEQ      0xd200 ; am_hal_gpio_pinconfig + 148
        0x0000d1fc:    2c25        %,      CMP      r4,#0x25
        0x0000d1fe:    d1bb        ..      BNE      0xd178 ; am_hal_gpio_pinconfig + 12
        0x0000d200:    f0400080    @...    ORR      r0,r0,#0x80
        0x0000d204:    f6403736    @.67    MOV      r7,#0xb36
        0x0000d208:    f2c00701    ....    MOVT     r7,#1
        0x0000d20c:    5d3f        ?]      LDRB     r7,[r7,r4]
        0x0000d20e:    40df        .@      LSRS     r7,r7,r3
        0x0000d210:    07ff        ..      LSLS     r7,r7,#31
        0x0000d212:    f64047a8    @..G    MOV      r7,#0xca8
        0x0000d216:    f2c00701    ....    MOVT     r7,#1
        0x0000d21a:    5d3f        ?]      LDRB     r7,[r7,r4]
        0x0000d21c:    bf18        ..      IT       NE
        0x0000d21e:    f0400002    @...    ORRNE    r0,r0,#2
        0x0000d222:    429f        .B      CMP      r7,r3
        0x0000d224:    d127        '.      BNE      0xd276 ; am_hal_gpio_pinconfig + 266
        0x0000d226:    0c0b        ..      LSRS     r3,r1,#16
        0x0000d228:    f003070d    ....    AND      r7,r3,#0xd
        0x0000d22c:    2f0d        ./      CMP      r7,#0xd
        0x0000d22e:    f1020503    ....    ADD      r5,r2,#3
        0x0000d232:    d0a1        ..      BEQ      0xd178 ; am_hal_gpio_pinconfig + 12
        0x0000d234:    07df        ..      LSLS     r7,r3,#31
        0x0000d236:    d103        ..      BNE      0xd240 ; am_hal_gpio_pinconfig + 212
        0x0000d238:    f003070e    ....    AND      r7,r3,#0xe
        0x0000d23c:    2f04        ./      CMP      r7,#4
        0x0000d23e:    d89b        ..      BHI      0xd178 ; am_hal_gpio_pinconfig + 12
        0x0000d240:    01df        ..      LSLS     r7,r3,#7
        0x0000d242:    f0030330    ..0.    AND      r3,r3,#0x30
        0x0000d246:    f3c14642    ..BF    UBFX     r6,r1,#17,#3
        0x0000d24a:    b2ff        ..      UXTB     r7,r7
        0x0000d24c:    4433        3D      ADD      r3,r3,r6
        0x0000d24e:    441f        .D      ADD      r7,r7,r3
        0x0000d250:    f6403380    @..3    MOVW     r3,#0xb80
        0x0000d254:    f2c00301    ....    MOVT     r3,#1
        0x0000d258:    eb030684    ....    ADD      r6,r3,r4,LSL #2
        0x0000d25c:    2300        .#      MOVS     r3,#0
        0x0000d25e:    bf00        ..      NOP      
        0x0000d260:    7835        5x      LDRB     r5,[r6,#0]
        0x0000d262:    42af        .B      CMP      r7,r5
        0x0000d264:    f0008083    ....    BEQ.W    0xd36e ; am_hal_gpio_pinconfig + 514
        0x0000d268:    3302        .3      ADDS     r3,#2
        0x0000d26a:    2b08        .+      CMP      r3,#8
        0x0000d26c:    f1060601    ....    ADD      r6,r6,#1
        0x0000d270:    d1f6        ..      BNE      0xd260 ; am_hal_gpio_pinconfig + 244
        0x0000d272:    1d15        ..      ADDS     r5,r2,#4
        0x0000d274:    e780        ..      B        0xd178 ; am_hal_gpio_pinconfig + 12
        0x0000d276:    2202        ."      MOVS     r2,#2
        0x0000d278:    ea0222d1    ..."    AND      r2,r2,r1,LSR #11
        0x0000d27c:    4310        .C      ORRS     r0,r0,r2
        0x0000d27e:    2208        ."      MOVS     r2,#8
        0x0000d280:    f3c12381    ...#    UBFX     r3,r1,#10,#2
        0x0000d284:    ea022291    ..."    AND      r2,r2,r1,LSR #10
        0x0000d288:    ea420243    B.C.    ORR      r2,r2,r3,LSL #1
        0x0000d28c:    3b01        .;      SUBS     r3,#1
        0x0000d28e:    1ecf        ..      SUBS     r7,r1,#3
        0x0000d290:    fab3f383    ....    CLZ      r3,r3
        0x0000d294:    fab7f787    ....    CLZ      r7,r7
        0x0000d298:    095b        [.      LSRS     r3,r3,#5
        0x0000d29a:    097f        ..      LSRS     r7,r7,#5
        0x0000d29c:    433b        ;C      ORRS     r3,r3,r7
        0x0000d29e:    f4114fc0    ...O    TST      r1,#0x6000
        0x0000d2a2:    9303        ..      STR      r3,[sp,#0xc]
        0x0000d2a4:    bf07        ..      ITTEE    EQ
        0x0000d2a6:    f3c133c0    ...3    UBFXEQ   r3,r1,#15,#1
        0x0000d2aa:    ea420c03    B...    ORREQ    r12,r2,r3
        0x0000d2ae:    f3c13380    ...3    UBFXNE   r3,r1,#14,#1
        0x0000d2b2:    eb020c03    ....    ADDNE    r12,r2,r3
        0x0000d2b6:    0a09        ..      LSRS     r1,r1,#8
        0x0000d2b8:    f0010103    ....    AND      r1,r1,#3
        0x0000d2bc:    e8dff001    ....    TBB      [pc,r1]
    $d.1
        0x0000d2c0:    06080209    ....    DCD    101188105
    $t.2
        0x0000d2c4:    f0400004    @...    ORR      r0,r0,#4
        0x0000d2c8:    2100        .!      MOVS     r1,#0
        0x0000d2ca:    e002        ..      B        0xd2d2 ; am_hal_gpio_pinconfig + 358
        0x0000d2cc:    f0400004    @...    ORR      r0,r0,#4
        0x0000d2d0:    2101        .!      MOVS     r1,#1
        0x0000d2d2:    f06f0303    o...    MVN      r3,#3
        0x0000d2d6:    ea030a54    ..T.    AND      r10,r3,r4,LSR #1
        0x0000d2da:    231c        .#      MOVS     r3,#0x1c
        0x0000d2dc:    2518        .%      MOVS     r5,#0x18
        0x0000d2de:    ea030384    ....    AND      r3,r3,r4,LSL #2
        0x0000d2e2:    ea0502c4    ....    AND      r2,r5,r4,LSL #3
        0x0000d2e6:    250f        .%      MOVS     r5,#0xf
        0x0000d2e8:    409d        .@      LSLS     r5,r5,r3
        0x0000d2ea:    43ed        .C      MVNS     r5,r5
        0x0000d2ec:    2600        .&      MOVS     r6,#0
        0x0000d2ee:    9502        ..      STR      r5,[sp,#8]
        0x0000d2f0:    25ff        .%      MOVS     r5,#0xff
        0x0000d2f2:    fa00f802    ....    LSL      r8,r0,r2
        0x0000d2f6:    fa01f002    ....    LSL      r0,r1,r2
        0x0000d2fa:    f2c40601    ....    MOVT     r6,#0x4001
        0x0000d2fe:    4095        .@      LSLS     r5,r5,r2
        0x0000d300:    9001        ..      STR      r0,[sp,#4]
        0x0000d302:    fa0cf003    ....    LSL      r0,r12,r3
        0x0000d306:    f1060b4c    ..L.    ADD      r11,r6,#0x4c
        0x0000d30a:    f0240703    $...    BIC      r7,r4,#3
        0x0000d30e:    f10609f8    ....    ADD      r9,r6,#0xf8
        0x0000d312:    43ed        .C      MVNS     r5,r5
        0x0000d314:    9000        ..      STR      r0,[sp,#0]
        0x0000d316:    f000f8ab    ....    BL       am_hal_interrupt_master_disable ; 0xd470
        0x0000d31a:    9903        ..      LDR      r1,[sp,#0xc]
        0x0000d31c:    9004        ..      STR      r0,[sp,#0x10]
        0x0000d31e:    b151        Q.      CBZ      r1,0xd336 ; am_hal_gpio_pinconfig + 458
        0x0000d320:    f004001f    ....    AND      r0,r4,#0x1f
        0x0000d324:    2101        .!      MOVS     r1,#1
        0x0000d326:    fa01f000    ....    LSL      r0,r1,r0
        0x0000d32a:    f3c41141    ..A.    UBFX     r1,r4,#5,#2
        0x0000d32e:    eb060181    ....    ADD      r1,r6,r1,LSL #2
        0x0000d332:    f8c100c8    ....    STR      r0,[r1,#0xc8]
        0x0000d336:    2073        s       MOVS     r0,#0x73
        0x0000d338:    6770        pg      STR      r0,[r6,#0x74]
        0x0000d33a:    59f0        .Y      LDR      r0,[r6,r7]
        0x0000d33c:    4028        (@      ANDS     r0,r0,r5
        0x0000d33e:    ea400008    @...    ORR      r0,r0,r8
        0x0000d342:    51f0        .Q      STR      r0,[r6,r7]
        0x0000d344:    f85a000b    Z...    LDR      r0,[r10,r11]
        0x0000d348:    9902        ..      LDR      r1,[sp,#8]
        0x0000d34a:    4008        .@      ANDS     r0,r0,r1
        0x0000d34c:    9900        ..      LDR      r1,[sp,#0]
        0x0000d34e:    4308        .C      ORRS     r0,r0,r1
        0x0000d350:    f84a000b    J...    STR      r0,[r10,r11]
        0x0000d354:    f8570009    W...    LDR      r0,[r7,r9]
        0x0000d358:    9901        ..      LDR      r1,[sp,#4]
        0x0000d35a:    4028        (@      ANDS     r0,r0,r5
        0x0000d35c:    4308        .C      ORRS     r0,r0,r1
        0x0000d35e:    2500        .%      MOVS     r5,#0
        0x0000d360:    f8470009    G...    STR      r0,[r7,r9]
        0x0000d364:    6775        ug      STR      r5,[r6,#0x74]
        0x0000d366:    9804        ..      LDR      r0,[sp,#0x10]
        0x0000d368:    f000f88a    ....    BL       am_hal_interrupt_master_set ; 0xd480
        0x0000d36c:    e704        ..      B        0xd178 ; am_hal_gpio_pinconfig + 12
        0x0000d36e:    2208        ."      MOVS     r2,#8
        0x0000d370:    ea0242d1    ...B    AND      r2,r2,r1,LSR #19
        0x0000d374:    ea430c02    C...    ORR      r12,r3,r2
        0x0000d378:    2200        ."      MOVS     r2,#0
        0x0000d37a:    9203        ..      STR      r2,[sp,#0xc]
        0x0000d37c:    e79b        ..      B        0xd2b6 ; am_hal_gpio_pinconfig + 330
    am_hal_gpio_state_read
        0x0000d37e:    b19a        ..      CBZ      r2,0xd3a8 ; am_hal_gpio_state_read + 42
        0x0000d380:    284a        J(      CMP      r0,#0x4a
        0x0000d382:    d304        ..      BCC      0xd38e ; am_hal_gpio_state_read + 16
        0x0000d384:    f04f30ff    O..0    MOV      r0,#0xffffffff
        0x0000d388:    6010        .`      STR      r0,[r2,#0]
        0x0000d38a:    2005        .       MOVS     r0,#5
        0x0000d38c:    4770        pG      BX       lr
        0x0000d38e:    230c        .#      MOVS     r3,#0xc
        0x0000d390:    2902        .)      CMP      r1,#2
        0x0000d392:    ea0303d0    ....    AND      r3,r3,r0,LSR #3
        0x0000d396:    d009        ..      BEQ      0xd3ac ; am_hal_gpio_state_read + 46
        0x0000d398:    2901        .)      CMP      r1,#1
        0x0000d39a:    d00d        ..      BEQ      0xd3b8 ; am_hal_gpio_state_read + 58
        0x0000d39c:    b921        !.      CBNZ     r1,0xd3a8 ; am_hal_gpio_state_read + 42
        0x0000d39e:    2180        .!      MOVS     r1,#0x80
        0x0000d3a0:    f2c40101    ....    MOVT     r1,#0x4001
        0x0000d3a4:    4319        .C      ORRS     r1,r1,r3
        0x0000d3a6:    e00c        ..      B        0xd3c2 ; am_hal_gpio_state_read + 68
        0x0000d3a8:    2006        .       MOVS     r0,#6
        0x0000d3aa:    4770        pG      BX       lr
        0x0000d3ac:    2180        .!      MOVS     r1,#0x80
        0x0000d3ae:    f2c40101    ....    MOVT     r1,#0x4001
        0x0000d3b2:    4319        .C      ORRS     r1,r1,r3
        0x0000d3b4:    3130        01      ADDS     r1,r1,#0x30
        0x0000d3b6:    e004        ..      B        0xd3c2 ; am_hal_gpio_state_read + 68
        0x0000d3b8:    2180        .!      MOVS     r1,#0x80
        0x0000d3ba:    f2c40101    ....    MOVT     r1,#0x4001
        0x0000d3be:    4319        .C      ORRS     r1,r1,r3
        0x0000d3c0:    310c        .1      ADDS     r1,r1,#0xc
        0x0000d3c2:    6809        .h      LDR      r1,[r1,#0]
        0x0000d3c4:    f000001f    ....    AND      r0,r0,#0x1f
        0x0000d3c8:    fa21f000    !...    LSR      r0,r1,r0
        0x0000d3cc:    f0000001    ....    AND      r0,r0,#1
        0x0000d3d0:    6010        .`      STR      r0,[r2,#0]
        0x0000d3d2:    2000        .       MOVS     r0,#0
        0x0000d3d4:    4770        pG      BX       lr
        0x0000d3d6:    0000        ..      MOVS     r0,r0
    am_hal_gpio_state_write
        0x0000d3d8:    b5b0        ..      PUSH     {r4,r5,r7,lr}
        0x0000d3da:    b082        ..      SUB      sp,sp,#8
        0x0000d3dc:    2849        I(      CMP      r0,#0x49
        0x0000d3de:    d901        ..      BLS      0xd3e4 ; am_hal_gpio_state_write + 12
        0x0000d3e0:    2405        .$      MOVS     r4,#5
        0x0000d3e2:    e040        @.      B        0xd466 ; am_hal_gpio_state_write + 142
        0x0000d3e4:    460d        .F      MOV      r5,r1
        0x0000d3e6:    2905        .)      CMP      r1,#5
        0x0000d3e8:    d901        ..      BLS      0xd3ee ; am_hal_gpio_state_write + 22
        0x0000d3ea:    2406        .$      MOVS     r4,#6
        0x0000d3ec:    e03b        ;.      B        0xd466 ; am_hal_gpio_state_write + 142
        0x0000d3ee:    4604        .F      MOV      r4,r0
        0x0000d3f0:    f000f83e    ..>.    BL       am_hal_interrupt_master_disable ; 0xd470
        0x0000d3f4:    2d05        .-      CMP      r5,#5
        0x0000d3f6:    9001        ..      STR      r0,[sp,#4]
        0x0000d3f8:    d838        8.      BHI      0xd46c ; am_hal_gpio_state_write + 148
        0x0000d3fa:    f004001f    ....    AND      r0,r4,#0x1f
        0x0000d3fe:    2101        .!      MOVS     r1,#1
        0x0000d400:    fa01f000    ....    LSL      r0,r1,r0
        0x0000d404:    210c        .!      MOVS     r1,#0xc
        0x0000d406:    ea0101d4    ....    AND      r1,r1,r4,LSR #3
        0x0000d40a:    e8dff005    ....    TBB      [pc,r5]
    $d.6
        0x0000d40e:    0903        ..      DCW    2307
        0x0000d410:    211b160f    ...!    DCD    555423247
    $t.7
        0x0000d414:    228c        ."      MOVS     r2,#0x8c
        0x0000d416:    f2c40201    ....    MOVT     r2,#0x4001
        0x0000d41a:    4411        .D      ADD      r1,r1,r2
        0x0000d41c:    6188        .a      STR      r0,[r1,#0x18]
        0x0000d41e:    e01e        ..      B        0xd45e ; am_hal_gpio_state_write + 134
        0x0000d420:    228c        ."      MOVS     r2,#0x8c
        0x0000d422:    f2c40201    ....    MOVT     r2,#0x4001
        0x0000d426:    4411        .D      ADD      r1,r1,r2
        0x0000d428:    60c8        .`      STR      r0,[r1,#0xc]
        0x0000d42a:    e018        ..      B        0xd45e ; am_hal_gpio_state_write + 134
        0x0000d42c:    228c        ."      MOVS     r2,#0x8c
        0x0000d42e:    f2c40201    ....    MOVT     r2,#0x4001
        0x0000d432:    588b        .X      LDR      r3,[r1,r2]
        0x0000d434:    4058        X@      EORS     r0,r0,r3
        0x0000d436:    5088        .P      STR      r0,[r1,r2]
        0x0000d438:    e011        ..      B        0xd45e ; am_hal_gpio_state_write + 134
        0x0000d43a:    228c        ."      MOVS     r2,#0x8c
        0x0000d43c:    f2c40201    ....    MOVT     r2,#0x4001
        0x0000d440:    4411        .D      ADD      r1,r1,r2
        0x0000d442:    e00b        ..      B        0xd45c ; am_hal_gpio_state_write + 132
        0x0000d444:    228c        ."      MOVS     r2,#0x8c
        0x0000d446:    f2c40201    ....    MOVT     r2,#0x4001
        0x0000d44a:    4411        .D      ADD      r1,r1,r2
        0x0000d44c:    6308        .c      STR      r0,[r1,#0x30]
        0x0000d44e:    e006        ..      B        0xd45e ; am_hal_gpio_state_write + 134
        0x0000d450:    228c        ."      MOVS     r2,#0x8c
        0x0000d452:    f2c40201    ....    MOVT     r2,#0x4001
        0x0000d456:    4411        .D      ADD      r1,r1,r2
        0x0000d458:    6bca        .k      LDR      r2,[r1,#0x3c]
        0x0000d45a:    4050        P@      EORS     r0,r0,r2
        0x0000d45c:    63c8        .c      STR      r0,[r1,#0x3c]
        0x0000d45e:    2400        .$      MOVS     r4,#0
        0x0000d460:    9801        ..      LDR      r0,[sp,#4]
        0x0000d462:    f000f80d    ....    BL       am_hal_interrupt_master_set ; 0xd480
        0x0000d466:    4620         F      MOV      r0,r4
        0x0000d468:    b002        ..      ADD      sp,sp,#8
        0x0000d46a:    bdb0        ..      POP      {r4,r5,r7,pc}
        0x0000d46c:    2406        .$      MOVS     r4,#6
        0x0000d46e:    e7f7        ..      B        0xd460 ; am_hal_gpio_state_write + 136
    am_hal_interrupt_master_disable
        0x0000d470:    f3ef8010    ....    MRS      r0,PRIMASK
        0x0000d474:    b672        r.      CPSID    i
        0x0000d476:    4770        pG      BX       lr
    am_hal_interrupt_master_enable
        0x0000d478:    f3ef8010    ....    MRS      r0,PRIMASK
        0x0000d47c:    b662        b.      CPSIE    i
        0x0000d47e:    4770        pG      BX       lr
    am_hal_interrupt_master_set
        0x0000d480:    f3808810    ....    MSR      PRIMASK,r0
        0x0000d484:    4770        pG      BX       lr
        0x0000d486:    0000        ..      MOVS     r0,r0
    am_hal_itm_disable
        0x0000d488:    b5f0        ..      PUSH     {r4-r7,lr}
        0x0000d48a:    b081        ..      SUB      sp,sp,#4
        0x0000d48c:    f2402450    @.P$    MOVW     r4,#0x250
        0x0000d490:    f2c40402    ....    MOVT     r4,#0x4002
        0x0000d494:    6820         h      LDR      r0,[r4,#0]
        0x0000d496:    f64e55fc    N..U    MOV      r5,#0xedfc
        0x0000d49a:    f6406600    @..f    MOVW     r6,#0xe00
        0x0000d49e:    f64c6755    L.Ug    MOV      r7,#0xce55
        0x0000d4a2:    f2ce0500    ....    MOVT     r5,#0xe000
        0x0000d4a6:    f2ce0600    ....    MOVT     r6,#0xe000
        0x0000d4aa:    f2cc57ac    ...W    MOVT     r7,#0xc5ac
        0x0000d4ae:    b998        ..      CBNZ     r0,0xd4d8 ; am_hal_itm_disable + 80
        0x0000d4b0:    6828        (h      LDR      r0,[r5,#0]
        0x0000d4b2:    f0407080    @..p    ORR      r0,r0,#0x1000000
        0x0000d4b6:    6028        (`      STR      r0,[r5,#0]
        0x0000d4b8:    6828        (h      LDR      r0,[r5,#0]
        0x0000d4ba:    01c0        ..      LSLS     r0,r0,#7
        0x0000d4bc:    d5fc        ..      BPL      0xd4b8 ; am_hal_itm_disable + 48
        0x0000d4be:    200f        .       MOVS     r0,#0xf
        0x0000d4c0:    f8c671b0    ...q    STR      r7,[r6,#0x1b0]
        0x0000d4c4:    6430        0d      STR      r0,[r6,#0x40]
        0x0000d4c6:    f04f30ff    O..0    MOV      r0,#0xffffffff
        0x0000d4ca:    6030        0`      STR      r0,[r6,#0]
        0x0000d4cc:    f2405011    @..P    MOV      r0,#0x511
        0x0000d4d0:    f2c00015    ....    MOVT     r0,#0x15
        0x0000d4d4:    f8c60080    ....    STR      r0,[r6,#0x80]
        0x0000d4d8:    f8d60080    ....    LDR      r0,[r6,#0x80]
        0x0000d4dc:    0200        ..      LSLS     r0,r0,#8
        0x0000d4de:    d4fb        ..      BMI      0xd4d8 ; am_hal_itm_disable + 80
        0x0000d4e0:    f44f7048    O.Hp    MOV      r0,#0x320
        0x0000d4e4:    f7fffd0b    ....    BL       am_hal_flash_delay ; 0xcefe
        0x0000d4e8:    2101        .!      MOVS     r1,#1
        0x0000d4ea:    2000        .       MOVS     r0,#0
        0x0000d4ec:    f2c00180    ....    MOVT     r1,#0x80
        0x0000d4f0:    f8c671b0    ...q    STR      r7,[r6,#0x1b0]
        0x0000d4f4:    f8d62080    ...     LDR      r2,[r6,#0x80]
        0x0000d4f8:    f0220201    "...    BIC      r2,r2,#1
        0x0000d4fc:    f8c62080    ...     STR      r2,[r6,#0x80]
        0x0000d500:    f8d62080    ...     LDR      r2,[r6,#0x80]
        0x0000d504:    420a        .B      TST      r2,r1
        0x0000d506:    d1fb        ..      BNE      0xd500 ; am_hal_itm_disable + 120
        0x0000d508:    3001        .0      ADDS     r0,#1
        0x0000d50a:    2864        d(      CMP      r0,#0x64
        0x0000d50c:    d1f2        ..      BNE      0xd4f4 ; am_hal_itm_disable + 108
        0x0000d50e:    6828        (h      LDR      r0,[r5,#0]
        0x0000d510:    f0207080     ..p    BIC      r0,r0,#0x1000000
        0x0000d514:    6028        (`      STR      r0,[r5,#0]
        0x0000d516:    bf00        ..      NOP      
        0x0000d518:    6828        (h      LDR      r0,[r5,#0]
        0x0000d51a:    01c0        ..      LSLS     r0,r0,#7
        0x0000d51c:    d4fc        ..      BMI      0xd518 ; am_hal_itm_disable + 144
        0x0000d51e:    2000        .       MOVS     r0,#0
        0x0000d520:    6020         `      STR      r0,[r4,#0]
        0x0000d522:    bf00        ..      NOP      
        0x0000d524:    6820         h      LDR      r0,[r4,#0]
        0x0000d526:    2800        .(      CMP      r0,#0
        0x0000d528:    d1fc        ..      BNE      0xd524 ; am_hal_itm_disable + 156
        0x0000d52a:    b001        ..      ADD      sp,sp,#4
        0x0000d52c:    bdf0        ..      POP      {r4-r7,pc}
        0x0000d52e:    0000        ..      MOVS     r0,r0
    am_hal_itm_enable
        0x0000d530:    f64e50fc    N..P    MOV      r0,#0xedfc
        0x0000d534:    f2ce0000    ....    MOVT     r0,#0xe000
        0x0000d538:    6801        .h      LDR      r1,[r0,#0]
        0x0000d53a:    f0417180    A..q    ORR      r1,r1,#0x1000000
        0x0000d53e:    6001        .`      STR      r1,[r0,#0]
        0x0000d540:    6801        .h      LDR      r1,[r0,#0]
        0x0000d542:    01c9        ..      LSLS     r1,r1,#7
        0x0000d544:    d5fc        ..      BPL      0xd540 ; am_hal_itm_enable + 16
        0x0000d546:    f6406000    @..`    MOVW     r0,#0xe00
        0x0000d54a:    f64c6155    L.Ua    MOV      r1,#0xce55
        0x0000d54e:    f2ce0000    ....    MOVT     r0,#0xe000
        0x0000d552:    f2cc51ac    ...Q    MOVT     r1,#0xc5ac
        0x0000d556:    f8c011b0    ....    STR      r1,[r0,#0x1b0]
        0x0000d55a:    210f        .!      MOVS     r1,#0xf
        0x0000d55c:    6401        .d      STR      r1,[r0,#0x40]
        0x0000d55e:    f04f31ff    O..1    MOV      r1,#0xffffffff
        0x0000d562:    6001        .`      STR      r1,[r0,#0]
        0x0000d564:    f2405111    @..Q    MOV      r1,#0x511
        0x0000d568:    f2c00115    ....    MOVT     r1,#0x15
        0x0000d56c:    f8c01080    ....    STR      r1,[r0,#0x80]
        0x0000d570:    4770        pG      BX       lr
        0x0000d572:    0000        ..      MOVS     r0,r0
    am_hal_itm_print
        0x0000d574:    2100        .!      MOVS     r1,#0
        0x0000d576:    bf00        ..      NOP      
        0x0000d578:    5c42        B\      LDRB     r2,[r0,r1]
        0x0000d57a:    3101        .1      ADDS     r1,#1
        0x0000d57c:    2a00        .*      CMP      r2,#0
        0x0000d57e:    d1fb        ..      BNE      0xd578 ; am_hal_itm_print + 4
        0x0000d580:    3901        .9      SUBS     r1,#1
        0x0000d582:    bf08        ..      IT       EQ
        0x0000d584:    4770        pG      BXEQ     lr
        0x0000d586:    f04f4260    O.`B    MOV      r2,#0xe0000000
        0x0000d58a:    bf00        ..      NOP      
        0x0000d58c:    f890c000    ....    LDRB     r12,[r0,#0]
        0x0000d590:    6813        .h      LDR      r3,[r2,#0]
        0x0000d592:    2b00        .+      CMP      r3,#0
        0x0000d594:    d0fc        ..      BEQ      0xd590 ; am_hal_itm_print + 28
        0x0000d596:    3001        .0      ADDS     r0,#1
        0x0000d598:    3901        .9      SUBS     r1,#1
        0x0000d59a:    f882c000    ....    STRB     r12,[r2,#0]
        0x0000d59e:    d1f5        ..      BNE      0xd58c ; am_hal_itm_print + 24
        0x0000d5a0:    4770        pG      BX       lr
    am_hal_mcuctrl_info_get
        0x0000d5a2:    b1e1        ..      CBZ      r1,0xd5de ; am_hal_mcuctrl_info_get + 60
        0x0000d5a4:    2802        .(      CMP      r0,#2
        0x0000d5a6:    d01c        ..      BEQ      0xd5e2 ; am_hal_mcuctrl_info_get + 64
        0x0000d5a8:    2801        .(      CMP      r0,#1
        0x0000d5aa:    d037        7.      BEQ      0xd61c ; am_hal_mcuctrl_info_get + 122
        0x0000d5ac:    b9b8        ..      CBNZ     r0,0xd5de ; am_hal_mcuctrl_info_get + 60
        0x0000d5ae:    2000        .       MOVS     r0,#0
        0x0000d5b0:    f2c40002    ....    MOVT     r0,#0x4002
        0x0000d5b4:    6982        .i      LDR      r2,[r0,#0x18]
        0x0000d5b6:    b2d2        ..      UXTB     r2,r2
        0x0000d5b8:    f3c21380    ....    UBFX     r3,r2,#6,#1
        0x0000d5bc:    f3c20280    ....    UBFX     r2,r2,#2,#1
        0x0000d5c0:    700b        .p      STRB     r3,[r1,#0]
        0x0000d5c2:    704a        Jp      STRB     r2,[r1,#1]
        0x0000d5c4:    f8d021a0    ...!    LDR      r2,[r0,#0x1a0]
        0x0000d5c8:    f3c26281    ...b    UBFX     r2,r2,#26,#2
        0x0000d5cc:    710a        .q      STRB     r2,[r1,#4]
        0x0000d5ce:    6940        @i      LDR      r0,[r0,#0x14]
        0x0000d5d0:    f3c00240    ..@.    UBFX     r2,r0,#1,#1
        0x0000d5d4:    f0000001    ....    AND      r0,r0,#1
        0x0000d5d8:    708a        .p      STRB     r2,[r1,#2]
        0x0000d5da:    70c8        .p      STRB     r0,[r1,#3]
        0x0000d5dc:    e06c        l.      B        0xd6b8 ; am_hal_mcuctrl_info_get + 278
        0x0000d5de:    2006        .       MOVS     r0,#6
        0x0000d5e0:    4770        pG      BX       lr
        0x0000d5e2:    2000        .       MOVS     r0,#0
        0x0000d5e4:    f2c40002    ....    MOVT     r0,#0x4002
        0x0000d5e8:    f8d021cc    ...!    LDR      r2,[r0,#0x1cc]
        0x0000d5ec:    b2d3        ..      UXTB     r3,r2
        0x0000d5ee:    f0020201    ....    AND      r2,r2,#1
        0x0000d5f2:    700a        .p      STRB     r2,[r1,#0]
        0x0000d5f4:    f3c30240    ..@.    UBFX     r2,r3,#1,#1
        0x0000d5f8:    720a        .r      STRB     r2,[r1,#8]
        0x0000d5fa:    f3c30280    ....    UBFX     r2,r3,#2,#1
        0x0000d5fe:    740a        .t      STRB     r2,[r1,#0x10]
        0x0000d600:    f8d021c4    ...!    LDR      r2,[r0,#0x1c4]
        0x0000d604:    60ca        .`      STR      r2,[r1,#0xc]
        0x0000d606:    f8d021c0    ...!    LDR      r2,[r0,#0x1c0]
        0x0000d60a:    684b        Kh      LDR      r3,[r1,#4]
        0x0000d60c:    431a        .C      ORRS     r2,r2,r3
        0x0000d60e:    604a        J`      STR      r2,[r1,#4]
        0x0000d610:    f8d001c8    ....    LDR      r0,[r0,#0x1c8]
        0x0000d614:    694a        Ji      LDR      r2,[r1,#0x14]
        0x0000d616:    4310        .C      ORRS     r0,r0,r2
        0x0000d618:    6148        Ha      STR      r0,[r1,#0x14]
        0x0000d61a:    e04d        M.      B        0xd6b8 ; am_hal_mcuctrl_info_get + 278
        0x0000d61c:    2000        .       MOVS     r0,#0
        0x0000d61e:    f2c40002    ....    MOVT     r0,#0x4002
        0x0000d622:    6802        .h      LDR      r2,[r0,#0]
        0x0000d624:    600a        .`      STR      r2,[r1,#0]
        0x0000d626:    6843        Ch      LDR      r3,[r0,#4]
        0x0000d628:    604b        K`      STR      r3,[r1,#4]
        0x0000d62a:    6883        .h      LDR      r3,[r0,#8]
        0x0000d62c:    608b        .`      STR      r3,[r1,#8]
        0x0000d62e:    68c3        .h      LDR      r3,[r0,#0xc]
        0x0000d630:    60cb        .`      STR      r3,[r1,#0xc]
        0x0000d632:    6903        .i      LDR      r3,[r0,#0x10]
        0x0000d634:    610b        .a      STR      r3,[r1,#0x10]
        0x0000d636:    6940        @i      LDR      r0,[r0,#0x14]
        0x0000d638:    f640236c    @.l#    MOV      r3,#0xa6c
        0x0000d63c:    6148        Ha      STR      r0,[r1,#0x14]
        0x0000d63e:    2001        .       MOVS     r0,#1
        0x0000d640:    6188        .a      STR      r0,[r1,#0x18]
        0x0000d642:    f3c25003    ...P    UBFX     r0,r2,#20,#4
        0x0000d646:    f2c00301    ....    MOVT     r3,#1
        0x0000d64a:    f8530020    S. .    LDR      r0,[r3,r0,LSL #2]
        0x0000d64e:    f64023ac    @..#    MOV      r3,#0xaac
        0x0000d652:    f3c24203    ...B    UBFX     r2,r2,#16,#4
        0x0000d656:    f2c00301    ....    MOVT     r3,#1
        0x0000d65a:    f8532022    S."     LDR      r2,[r3,r2,LSL #2]
        0x0000d65e:    e9c10207    ....    STRD     r0,r2,[r1,#0x1c]
        0x0000d662:    f64070e0    @..p    MOVW     r0,#0xfe0
        0x0000d666:    f2cf0000    ....    MOVT     r0,#0xf000
        0x0000d66a:    6802        .h      LDR      r2,[r0,#0]
        0x0000d66c:    b2d2        ..      UXTB     r2,r2
        0x0000d66e:    624a        Jb      STR      r2,[r1,#0x24]
        0x0000d670:    6843        Ch      LDR      r3,[r0,#4]
        0x0000d672:    f363220b    c.."    BFI      r2,r3,#8,#4
        0x0000d676:    624a        Jb      STR      r2,[r1,#0x24]
        0x0000d678:    6842        Bh      LDR      r2,[r0,#4]
        0x0000d67a:    f3c21203    ....    UBFX     r2,r2,#4,#4
        0x0000d67e:    628a        .b      STR      r2,[r1,#0x28]
        0x0000d680:    6883        .h      LDR      r3,[r0,#8]
        0x0000d682:    f3631207    c...    BFI      r2,r3,#4,#4
        0x0000d686:    628a        .b      STR      r2,[r1,#0x28]
        0x0000d688:    6882        .h      LDR      r2,[r0,#8]
        0x0000d68a:    f00202f0    ....    AND      r2,r2,#0xf0
        0x0000d68e:    62ca        .b      STR      r2,[r1,#0x2c]
        0x0000d690:    68c3        .h      LDR      r3,[r0,#0xc]
        0x0000d692:    f3c31303    ....    UBFX     r3,r3,#4,#4
        0x0000d696:    441a        .D      ADD      r2,r2,r3
        0x0000d698:    62ca        .b      STR      r2,[r1,#0x2c]
        0x0000d69a:    69c2        .i      LDR      r2,[r0,#0x1c]
        0x0000d69c:    0612        ..      LSLS     r2,r2,#24
        0x0000d69e:    630a        .c      STR      r2,[r1,#0x30]
        0x0000d6a0:    6983        .i      LDR      r3,[r0,#0x18]
        0x0000d6a2:    f3634217    c..B    BFI      r2,r3,#16,#8
        0x0000d6a6:    630a        .c      STR      r2,[r1,#0x30]
        0x0000d6a8:    6943        Ci      LDR      r3,[r0,#0x14]
        0x0000d6aa:    f363220f    c.."    BFI      r2,r3,#8,#8
        0x0000d6ae:    630a        .c      STR      r2,[r1,#0x30]
        0x0000d6b0:    6900        .i      LDR      r0,[r0,#0x10]
        0x0000d6b2:    b2c0        ..      UXTB     r0,r0
        0x0000d6b4:    4410        .D      ADD      r0,r0,r2
        0x0000d6b6:    6308        .c      STR      r0,[r1,#0x30]
        0x0000d6b8:    2000        .       MOVS     r0,#0
        0x0000d6ba:    4770        pG      BX       lr
    am_hal_pwrctrl_blebuck_trim
        0x0000d6bc:    b510        ..      PUSH     {r4,lr}
        0x0000d6be:    b082        ..      SUB      sp,sp,#8
        0x0000d6c0:    f2403468    @.h4    MOVW     r4,#0x368
        0x0000d6c4:    f64f40a4    O..@    MOV      r0,#0xfca4
        0x0000d6c8:    f2c40402    ....    MOVT     r4,#0x4002
        0x0000d6cc:    f6cf70ff    ...p    MOVT     r0,#0xffff
        0x0000d6d0:    5820         X      LDR      r0,[r4,r0]
        0x0000d6d2:    f00000fe    ....    AND      r0,r0,#0xfe
        0x0000d6d6:    2812        .(      CMP      r0,#0x12
        0x0000d6d8:    d317        ..      BCC      0xd70a ; am_hal_pwrctrl_blebuck_trim + 78
        0x0000d6da:    f7fffec9    ....    BL       am_hal_interrupt_master_disable ; 0xd470
        0x0000d6de:    9001        ..      STR      r0,[sp,#4]
        0x0000d6e0:    6820         h      LDR      r0,[r4,#0]
        0x0000d6e2:    2119        .!      MOVS     r1,#0x19
        0x0000d6e4:    f361108b    a...    BFI      r0,r1,#6,#6
        0x0000d6e8:    6020         `      STR      r0,[r4,#0]
        0x0000d6ea:    6820         h      LDR      r0,[r4,#0]
        0x0000d6ec:    210c        .!      MOVS     r1,#0xc
        0x0000d6ee:    f3610005    a...    BFI      r0,r1,#0,#6
        0x0000d6f2:    6020         `      STR      r0,[r4,#0]
        0x0000d6f4:    f244003c    D.<.    MOV      r0,#0x403c
        0x0000d6f8:    f2c40000    ....    MOVT     r0,#0x4000
        0x0000d6fc:    6801        .h      LDR      r1,[r0,#0]
        0x0000d6fe:    f4210180    !...    BIC      r1,r1,#0x400000
        0x0000d702:    6001        .`      STR      r1,[r0,#0]
        0x0000d704:    9801        ..      LDR      r0,[sp,#4]
        0x0000d706:    f7fffebb    ....    BL       am_hal_interrupt_master_set ; 0xd480
        0x0000d70a:    b002        ..      ADD      sp,sp,#8
        0x0000d70c:    bd10        ..      POP      {r4,pc}
    am_hal_pwrctrl_bleif_workaround
        0x0000d70e:    f6430138    C.8.    MOV      r1,#0x3838
        0x0000d712:    f2c50102    ....    MOVT     r1,#0x5002
        0x0000d716:    460a        .F      MOV      r2,r1
        0x0000d718:    f8520b38    R.8.    LDR      r0,[r2],#0x38
        0x0000d71c:    f0100008    ....    ANDS     r0,r0,#8
        0x0000d720:    f2400088    @...    MOVW     r0,#0x88
        0x0000d724:    f2c40002    ....    MOVT     r0,#0x4002
        0x0000d728:    4603        .F      MOV      r3,r0
        0x0000d72a:    bf08        ..      IT       EQ
        0x0000d72c:    f1010334    ..4.    ADDEQ    r3,r1,#0x34
        0x0000d730:    6819        .h      LDR      r1,[r3,#0]
        0x0000d732:    bf18        ..      IT       NE
        0x0000d734:    f5007232    ..2r    ADDNE    r2,r0,#0x2c8
        0x0000d738:    6803        .h      LDR      r3,[r0,#0]
        0x0000d73a:    f001013f    ..?.    AND      r1,r1,#0x3f
        0x0000d73e:    f023033f    #.?.    BIC      r3,r3,#0x3f
        0x0000d742:    293c        <)      CMP      r1,#0x3c
        0x0000d744:    bf28        (.      IT       CS
        0x0000d746:    213c        <!      MOVCS    r1,#0x3c
        0x0000d748:    6003        .`      STR      r3,[r0,#0]
        0x0000d74a:    6803        .h      LDR      r3,[r0,#0]
        0x0000d74c:    3103        .1      ADDS     r1,#3
        0x0000d74e:    4319        .C      ORRS     r1,r1,r3
        0x0000d750:    6001        .`      STR      r1,[r0,#0]
        0x0000d752:    6811        .h      LDR      r1,[r2,#0]
        0x0000d754:    f8d022c8    ..."    LDR      r2,[r0,#0x2c8]
        0x0000d758:    f3c14105    ...A    UBFX     r1,r1,#16,#6
        0x0000d75c:    f422127c    ".|.    BIC      r2,r2,#0x3f0000
        0x0000d760:    293a        :)      CMP      r1,#0x3a
        0x0000d762:    bf28        (.      IT       CS
        0x0000d764:    213a        :!      MOVCS    r1,#0x3a
        0x0000d766:    f8c022c8    ..."    STR      r2,[r0,#0x2c8]
        0x0000d76a:    f44f22a0    O.."    MOV      r2,#0x50000
        0x0000d76e:    eb024101    ...A    ADD      r1,r2,r1,LSL #16
        0x0000d772:    f8d022c8    ..."    LDR      r2,[r0,#0x2c8]
        0x0000d776:    f401117c    ..|.    AND      r1,r1,#0x3f0000
        0x0000d77a:    4311        .C      ORRS     r1,r1,r2
        0x0000d77c:    f8c012c8    ....    STR      r1,[r0,#0x2c8]
        0x0000d780:    4770        pG      BX       lr
    am_hal_pwrctrl_ldo_vddx_active_trim_adj_default
        0x0000d782:    b5b0        ..      PUSH     {r4,r5,r7,lr}
        0x0000d784:    b082        ..      SUB      sp,sp,#8
        0x0000d786:    460c        .F      MOV      r4,r1
        0x0000d788:    4605        .F      MOV      r5,r0
        0x0000d78a:    f7fffe71    ..q.    BL       am_hal_interrupt_master_disable ; 0xd470
        0x0000d78e:    2d01        .-      CMP      r5,#1
        0x0000d790:    9001        ..      STR      r0,[sp,#4]
        0x0000d792:    d00b        ..      BEQ      0xd7ac ; am_hal_pwrctrl_ldo_vddx_active_trim_adj_default + 42
        0x0000d794:    b9ad        ..      CBNZ     r5,0xd7c2 ; am_hal_pwrctrl_ldo_vddx_active_trim_adj_default + 64
        0x0000d796:    f7fff88d    ....    BL       am_hal_burst_ldo_patch_check ; 0xc8b4
        0x0000d79a:    b1a0        ..      CBZ      r0,0xd7c6 ; am_hal_pwrctrl_ldo_vddx_active_trim_adj_default + 68
        0x0000d79c:    f6430068    C.h.    MOV      r0,#0x3868
        0x0000d7a0:    f2c50002    ....    MOVT     r0,#0x5002
        0x0000d7a4:    6800        .h      LDR      r0,[r0,#0]
        0x0000d7a6:    f36f209f    o..     BFC      r0,#10,#22
        0x0000d7aa:    e00d        ..      B        0xd7c8 ; am_hal_pwrctrl_ldo_vddx_active_trim_adj_default + 70
        0x0000d7ac:    f7fff882    ....    BL       am_hal_burst_ldo_patch_check ; 0xc8b4
        0x0000d7b0:    b300        ..      CBZ      r0,0xd7f4 ; am_hal_pwrctrl_ldo_vddx_active_trim_adj_default + 114
        0x0000d7b2:    f6430068    C.h.    MOV      r0,#0x3868
        0x0000d7b6:    f2c50002    ....    MOVT     r0,#0x5002
        0x0000d7ba:    6840        @h      LDR      r0,[r0,#4]
        0x0000d7bc:    f000003f    ..?.    AND      r0,r0,#0x3f
        0x0000d7c0:    e019        ..      B        0xd7f6 ; am_hal_pwrctrl_ldo_vddx_active_trim_adj_default + 116
        0x0000d7c2:    2400        .$      MOVS     r4,#0
        0x0000d7c4:    e029        ).      B        0xd81a ; am_hal_pwrctrl_ldo_vddx_active_trim_adj_default + 152
        0x0000d7c6:    2000        .       MOVS     r0,#0
        0x0000d7c8:    1901        ..      ADDS     r1,r0,r4
        0x0000d7ca:    f24032ff    @..2    MOV      r2,#0x3ff
        0x0000d7ce:    4291        .B      CMP      r1,r2
        0x0000d7d0:    f24033ff    @..3    MOV      r3,#0x3ff
        0x0000d7d4:    bf38        8.      IT       CC
        0x0000d7d6:    460b        .F      MOVCC    r3,r1
        0x0000d7d8:    2900        .)      CMP      r1,#0
        0x0000d7da:    f2400180    @...    MOVW     r1,#0x80
        0x0000d7de:    f2c40102    ....    MOVT     r1,#0x4002
        0x0000d7e2:    bf48        H.      IT       MI
        0x0000d7e4:    2300        .#      MOVMI    r3,#0
        0x0000d7e6:    680d        .h      LDR      r5,[r1,#0]
        0x0000d7e8:    1a1c        ..      SUBS     r4,r3,r0
        0x0000d7ea:    ea250002    %...    BIC      r0,r5,r2
        0x0000d7ee:    4318        .C      ORRS     r0,r0,r3
        0x0000d7f0:    6008        .`      STR      r0,[r1,#0]
        0x0000d7f2:    e012        ..      B        0xd81a ; am_hal_pwrctrl_ldo_vddx_active_trim_adj_default + 152
        0x0000d7f4:    2000        .       MOVS     r0,#0
        0x0000d7f6:    1901        ..      ADDS     r1,r0,r4
        0x0000d7f8:    293f        ?)      CMP      r1,#0x3f
        0x0000d7fa:    460a        .F      MOV      r2,r1
        0x0000d7fc:    bf28        (.      IT       CS
        0x0000d7fe:    223f        ?"      MOVCS    r2,#0x3f
        0x0000d800:    2900        .)      CMP      r1,#0
        0x0000d802:    f2400180    @...    MOVW     r1,#0x80
        0x0000d806:    f2c40102    ....    MOVT     r1,#0x4002
        0x0000d80a:    bf48        H.      IT       MI
        0x0000d80c:    2200        ."      MOVMI    r2,#0
        0x0000d80e:    688b        .h      LDR      r3,[r1,#8]
        0x0000d810:    1a14        ..      SUBS     r4,r2,r0
        0x0000d812:    f023003f    #.?.    BIC      r0,r3,#0x3f
        0x0000d816:    4310        .C      ORRS     r0,r0,r2
        0x0000d818:    6088        .`      STR      r0,[r1,#8]
        0x0000d81a:    f44f70a0    O..p    MOV      r0,#0x140
        0x0000d81e:    f7fffb6e    ..n.    BL       am_hal_flash_delay ; 0xcefe
        0x0000d822:    9801        ..      LDR      r0,[sp,#4]
        0x0000d824:    f7fffe2c    ..,.    BL       am_hal_interrupt_master_set ; 0xd480
        0x0000d828:    4620         F      MOV      r0,r4
        0x0000d82a:    b002        ..      ADD      sp,sp,#8
        0x0000d82c:    bdb0        ..      POP      {r4,r5,r7,pc}
    am_hal_pwrctrl_low_power_init
        0x0000d82e:    b5b0        ..      PUSH     {r4,r5,r7,lr}
        0x0000d830:    b082        ..      SUB      sp,sp,#8
        0x0000d832:    f2410090    A...    MOV      r0,#0x1090
        0x0000d836:    f2c10000    ....    MOVT     r0,#0x1000
        0x0000d83a:    6801        .h      LDR      r1,[r0,#0]
        0x0000d83c:    b929        ).      CBNZ     r1,0xd84a ; am_hal_pwrctrl_low_power_init + 28
        0x0000d83e:    f24f0100    O...    MOVW     r1,#0xf000
        0x0000d842:    f6c471ff    ...q    MOVT     r1,#0x4fff
        0x0000d846:    6809        .h      LDR      r1,[r1,#0]
        0x0000d848:    6001        .`      STR      r1,[r0,#0]
        0x0000d84a:    f2403450    @.P4    MOVW     r4,#0x350
        0x0000d84e:    f64f45bc    O..E    MOV      r5,#0xfcbc
        0x0000d852:    f2c40402    ....    MOVT     r4,#0x4002
        0x0000d856:    f6cf75ff    ...u    MOVT     r5,#0xffff
        0x0000d85a:    5960        `Y      LDR      r0,[r4,r5]
        0x0000d85c:    b2c0        ..      UXTB     r0,r0
        0x0000d85e:    2821        !(      CMP      r0,#0x21
        0x0000d860:    d34f        O.      BCC      0xd902 ; am_hal_pwrctrl_low_power_init + 212
        0x0000d862:    f2411022    A.".    MOV      r0,#0x1122
        0x0000d866:    f2c10000    ....    MOVT     r0,#0x1000
        0x0000d86a:    7801        .x      LDRB     r1,[r0,#0]
        0x0000d86c:    2900        .)      CMP      r1,#0
        0x0000d86e:    d13e        >.      BNE      0xd8ee ; am_hal_pwrctrl_low_power_init + 192
        0x0000d870:    2101        .!      MOVS     r1,#1
        0x0000d872:    7001        .p      STRB     r1,[r0,#0]
        0x0000d874:    6820         h      LDR      r0,[r4,#0]
        0x0000d876:    6822        "h      LDR      r2,[r4,#0]
        0x0000d878:    f3c05085    ...P    UBFX     r0,r0,#22,#6
        0x0000d87c:    380c        .8      SUBS     r0,r0,#0xc
        0x0000d87e:    f04f0100    O...    MOV      r1,#0
        0x0000d882:    bf38        8.      IT       CC
        0x0000d884:    4608        .F      MOVCC    r0,r1
        0x0000d886:    f022627c    ".|b    BIC      r2,r2,#0xfc00000
        0x0000d88a:    ea425080    B..P    ORR      r0,r2,r0,LSL #22
        0x0000d88e:    6020         `      STR      r0,[r4,#0]
        0x0000d890:    6820         h      LDR      r0,[r4,#0]
        0x0000d892:    6822        "h      LDR      r2,[r4,#0]
        0x0000d894:    f3c02085    ...     UBFX     r0,r0,#10,#6
        0x0000d898:    380d        .8      SUBS     r0,r0,#0xd
        0x0000d89a:    bf38        8.      IT       CC
        0x0000d89c:    4608        .F      MOVCC    r0,r1
        0x0000d89e:    f422417c    ".|A    BIC      r1,r2,#0xfc00
        0x0000d8a2:    ea412080    A..     ORR      r0,r1,r0,LSL #10
        0x0000d8a6:    6020         `      STR      r0,[r4,#0]
        0x0000d8a8:    6860        `h      LDR      r0,[r4,#4]
        0x0000d8aa:    2108        .!      MOVS     r1,#8
        0x0000d8ac:    f3615017    a..P    BFI      r0,r1,#20,#4
        0x0000d8b0:    6060        ``      STR      r0,[r4,#4]
        0x0000d8b2:    6860        `h      LDR      r0,[r4,#4]
        0x0000d8b4:    2205        ."      MOVS     r2,#5
        0x0000d8b6:    f3624013    b..@    BFI      r0,r2,#16,#4
        0x0000d8ba:    6060        ``      STR      r0,[r4,#4]
        0x0000d8bc:    68e0        .h      LDR      r0,[r4,#0xc]
        0x0000d8be:    f3610003    a...    BFI      r0,r1,#0,#4
        0x0000d8c2:    60e0        .`      STR      r0,[r4,#0xc]
        0x0000d8c4:    68a0        .h      LDR      r0,[r4,#8]
        0x0000d8c6:    2106        .!      MOVS     r1,#6
        0x0000d8c8:    f36160de    a..`    BFI      r0,r1,#27,#4
        0x0000d8cc:    60a0        .`      STR      r0,[r4,#8]
        0x0000d8ce:    68e0        .h      LDR      r0,[r4,#0xc]
        0x0000d8d0:    f4400000    @...    ORR      r0,r0,#0x800000
        0x0000d8d4:    60e0        .`      STR      r0,[r4,#0xc]
        0x0000d8d6:    68e0        .h      LDR      r0,[r4,#0xc]
        0x0000d8d8:    f0207080     ..p    BIC      r0,r0,#0x1000000
        0x0000d8dc:    60e0        .`      STR      r0,[r4,#0xc]
        0x0000d8de:    6860        `h      LDR      r0,[r4,#4]
        0x0000d8e0:    f0405040    @.@P    ORR      r0,r0,#0x30000000
        0x0000d8e4:    6060        ``      STR      r0,[r4,#4]
        0x0000d8e6:    6860        `h      LDR      r0,[r4,#4]
        0x0000d8e8:    f040001f    @...    ORR      r0,r0,#0x1f
        0x0000d8ec:    6060        ``      STR      r0,[r4,#4]
        0x0000d8ee:    f2411024    A.$.    MOV      r0,#0x1124
        0x0000d8f2:    f2c10000    ....    MOVT     r0,#0x1000
        0x0000d8f6:    7801        .x      LDRB     r1,[r0,#0]
        0x0000d8f8:    b919        ..      CBNZ     r1,0xd902 ; am_hal_pwrctrl_low_power_init + 212
        0x0000d8fa:    2101        .!      MOVS     r1,#1
        0x0000d8fc:    7001        .p      STRB     r1,[r0,#0]
        0x0000d8fe:    f7ffff06    ....    BL       am_hal_pwrctrl_bleif_workaround ; 0xd70e
        0x0000d902:    5960        `Y      LDR      r0,[r4,r5]
        0x0000d904:    f00000fe    ....    AND      r0,r0,#0xfe
        0x0000d908:    2812        .(      CMP      r0,#0x12
        0x0000d90a:    d303        ..      BCC      0xd914 ; am_hal_pwrctrl_low_power_init + 230
        0x0000d90c:    68e0        .h      LDR      r0,[r4,#0xc]
        0x0000d90e:    f0207080     ..p    BIC      r0,r0,#0x1000000
        0x0000d912:    60e0        .`      STR      r0,[r4,#0xc]
        0x0000d914:    f2410500    A...    MOVW     r5,#0x1000
        0x0000d918:    200c        .       MOVS     r0,#0xc
        0x0000d91a:    2100        .!      MOVS     r1,#0
        0x0000d91c:    f2c40502    ....    MOVT     r5,#0x4002
        0x0000d920:    f7fff936    ..6.    BL       am_hal_cachectrl_control ; 0xcb90
        0x0000d924:    69a8        .i      LDR      r0,[r5,#0x18]
        0x0000d926:    05c0        ..      LSLS     r0,r0,#23
        0x0000d928:    d41e        ..      BMI      0xd968 ; am_hal_pwrctrl_low_power_init + 314
        0x0000d92a:    f7fffec7    ....    BL       am_hal_pwrctrl_blebuck_trim ; 0xd6bc
        0x0000d92e:    f64f40c8    O..@    MOV      r0,#0xfcc8
        0x0000d932:    f6cf70ff    ...p    MOVT     r0,#0xffff
        0x0000d936:    5822        "X      LDR      r2,[r4,r0]
        0x0000d938:    f5a4714e    ..Nq    SUB      r1,r4,#0x338
        0x0000d93c:    f0420201    B...    ORR      r2,r2,#1
        0x0000d940:    5022        "P      STR      r2,[r4,r0]
        0x0000d942:    2401        .$      MOVS     r4,#1
        0x0000d944:    f2427010    B..p    MOV      r0,#0x2710
        0x0000d948:    2207        ."      MOVS     r2,#7
        0x0000d94a:    2307        .#      MOVS     r3,#7
        0x0000d94c:    9400        ..      STR      r4,[sp,#0]
        0x0000d94e:    f7fffaeb    ....    BL       am_hal_flash_delay_status_check ; 0xcf28
        0x0000d952:    b108        ..      CBZ      r0,0xd958 ; am_hal_pwrctrl_low_power_init + 298
        0x0000d954:    2004        .       MOVS     r0,#4
        0x0000d956:    e00a        ..      B        0xd96e ; am_hal_pwrctrl_low_power_init + 320
        0x0000d958:    6828        (h      LDR      r0,[r5,#0]
        0x0000d95a:    f0400001    @...    ORR      r0,r0,#1
        0x0000d95e:    6028        (`      STR      r0,[r5,#0]
        0x0000d960:    6a68        hj      LDR      r0,[r5,#0x24]
        0x0000d962:    f0400040    @.@.    ORR      r0,r0,#0x40
        0x0000d966:    6268        hb      STR      r0,[r5,#0x24]
        0x0000d968:    f7feff4e    ..N.    BL       am_hal_burst_ldo_charge ; 0xc808
        0x0000d96c:    2000        .       MOVS     r0,#0
        0x0000d96e:    b002        ..      ADD      sp,sp,#8
        0x0000d970:    bdb0        ..      POP      {r4,r5,r7,pc}
        0x0000d972:    0000        ..      MOVS     r0,r0
    am_hal_pwrctrl_memory_enable
        0x0000d974:    e92d41f0    -..A    PUSH     {r4-r8,lr}
        0x0000d978:    f64001a0    @...    MOVW     r1,#0x8a0
        0x0000d97c:    4604        .F      MOV      r4,r0
        0x0000d97e:    eb000040    ..@.    ADD      r0,r0,r0,LSL #1
        0x0000d982:    f2c00101    ....    MOVT     r1,#1
        0x0000d986:    eb0107c0    ....    ADD      r7,r1,r0,LSL #3
        0x0000d98a:    f8518030    Q.0.    LDR      r8,[r1,r0,LSL #3]
        0x0000d98e:    68f8        .h      LDR      r0,[r7,#0xc]
        0x0000d990:    f2410510    A...    MOV      r5,#0x1010
        0x0000d994:    f2c40502    ....    MOVT     r5,#0x4002
        0x0000d998:    ea680000    h...    ORN      r0,r8,r0
        0x0000d99c:    f2420101    B...    MOV      r1,#0x2001
        0x0000d9a0:    4308        .C      ORRS     r0,r0,r1
        0x0000d9a2:    6829        )h      LDR      r1,[r5,#0]
        0x0000d9a4:    693e        >i      LDR      r6,[r7,#0x10]
        0x0000d9a6:    4008        .@      ANDS     r0,r0,r1
        0x0000d9a8:    6028        (`      STR      r0,[r5,#0]
        0x0000d9aa:    2010        .       MOVS     r0,#0x10
        0x0000d9ac:    f7fffaa7    ....    BL       am_hal_flash_delay ; 0xcefe
        0x0000d9b0:    b194        ..      CBZ      r4,0xd9d8 ; am_hal_pwrctrl_memory_enable + 100
        0x0000d9b2:    6828        (h      LDR      r0,[r5,#0]
        0x0000d9b4:    ea400008    @...    ORR      r0,r0,r8
        0x0000d9b8:    6028        (`      STR      r0,[r5,#0]
        0x0000d9ba:    1d38        8.      ADDS     r0,r7,#4
        0x0000d9bc:    6804        .h      LDR      r4,[r0,#0]
        0x0000d9be:    2700        .'      MOVS     r7,#0
        0x0000d9c0:    20a0        .       MOVS     r0,#0xa0
        0x0000d9c2:    f7fffa9c    ....    BL       am_hal_flash_delay ; 0xcefe
        0x0000d9c6:    6868        hh      LDR      r0,[r5,#4]
        0x0000d9c8:    4030        0@      ANDS     r0,r0,r6
        0x0000d9ca:    42a0        .B      CMP      r0,r4
        0x0000d9cc:    d005        ..      BEQ      0xd9da ; am_hal_pwrctrl_memory_enable + 102
        0x0000d9ce:    2f0a        ./      CMP      r7,#0xa
        0x0000d9d0:    f107070a    ....    ADD      r7,r7,#0xa
        0x0000d9d4:    d3f4        ..      BCC      0xd9c0 ; am_hal_pwrctrl_memory_enable + 76
        0x0000d9d6:    e000        ..      B        0xd9da ; am_hal_pwrctrl_memory_enable + 102
        0x0000d9d8:    687c        |h      LDR      r4,[r7,#4]
        0x0000d9da:    6868        hh      LDR      r0,[r5,#4]
        0x0000d9dc:    4030        0@      ANDS     r0,r0,r6
        0x0000d9de:    1b00        ..      SUBS     r0,r0,r4
        0x0000d9e0:    bf18        ..      IT       NE
        0x0000d9e2:    2001        .       MOVNE    r0,#1
        0x0000d9e4:    e8bd81f0    ....    POP      {r4-r8,pc}
    am_hal_pwrctrl_simobuck_vddx_active_trim_adj_default
        0x0000d9e8:    b570        p.      PUSH     {r4-r6,lr}
        0x0000d9ea:    b082        ..      SUB      sp,sp,#8
        0x0000d9ec:    460c        .F      MOV      r4,r1
        0x0000d9ee:    4605        .F      MOV      r5,r0
        0x0000d9f0:    f7feff60    ..`.    BL       am_hal_burst_ldo_patch_check ; 0xc8b4
        0x0000d9f4:    b1a0        ..      CBZ      r0,0xda20 ; am_hal_pwrctrl_simobuck_vddx_active_trim_adj_default + 56
        0x0000d9f6:    f2403650    @.P6    MOVW     r6,#0x350
        0x0000d9fa:    f2c40602    ....    MOVT     r6,#0x4002
        0x0000d9fe:    f7fffd37    ..7.    BL       am_hal_interrupt_master_disable ; 0xd470
        0x0000da02:    2d01        .-      CMP      r5,#1
        0x0000da04:    9001        ..      STR      r0,[sp,#4]
        0x0000da06:    d00d        ..      BEQ      0xda24 ; am_hal_pwrctrl_simobuck_vddx_active_trim_adj_default + 60
        0x0000da08:    b9bd        ..      CBNZ     r5,0xda3a ; am_hal_pwrctrl_simobuck_vddx_active_trim_adj_default + 82
        0x0000da0a:    f7feff53    ..S.    BL       am_hal_burst_ldo_patch_check ; 0xc8b4
        0x0000da0e:    b1b0        ..      CBZ      r0,0xda3e ; am_hal_pwrctrl_simobuck_vddx_active_trim_adj_default + 86
        0x0000da10:    f6430070    C.p.    MOV      r0,#0x3870
        0x0000da14:    f2c50002    ....    MOVT     r0,#0x5002
        0x0000da18:    6801        .h      LDR      r1,[r0,#0]
        0x0000da1a:    f36f219f    o..!    BFC      r1,#10,#22
        0x0000da1e:    e00f        ..      B        0xda40 ; am_hal_pwrctrl_simobuck_vddx_active_trim_adj_default + 88
        0x0000da20:    2400        .$      MOVS     r4,#0
        0x0000da22:    e034        4.      B        0xda8e ; am_hal_pwrctrl_simobuck_vddx_active_trim_adj_default + 166
        0x0000da24:    f7feff46    ..F.    BL       am_hal_burst_ldo_patch_check ; 0xc8b4
        0x0000da28:    b1d0        ..      CBZ      r0,0xda60 ; am_hal_pwrctrl_simobuck_vddx_active_trim_adj_default + 120
        0x0000da2a:    f6430070    C.p.    MOV      r0,#0x3870
        0x0000da2e:    f2c50002    ....    MOVT     r0,#0x5002
        0x0000da32:    6800        .h      LDR      r0,[r0,#0]
        0x0000da34:    f3c04005    ...@    UBFX     r0,r0,#16,#6
        0x0000da38:    e013        ..      B        0xda62 ; am_hal_pwrctrl_simobuck_vddx_active_trim_adj_default + 122
        0x0000da3a:    2400        .$      MOVS     r4,#0
        0x0000da3c:    e020         .      B        0xda80 ; am_hal_pwrctrl_simobuck_vddx_active_trim_adj_default + 152
        0x0000da3e:    2100        .!      MOVS     r1,#0
        0x0000da40:    190a        ..      ADDS     r2,r1,r4
        0x0000da42:    f24033ff    @..3    MOV      r3,#0x3ff
        0x0000da46:    f24030ff    @..0    MOV      r0,#0x3ff
        0x0000da4a:    429a        .B      CMP      r2,r3
        0x0000da4c:    bf38        8.      IT       CC
        0x0000da4e:    4610        .F      MOVCC    r0,r2
        0x0000da50:    2a00        .*      CMP      r2,#0
        0x0000da52:    bf48        H.      IT       MI
        0x0000da54:    2000        .       MOVMI    r0,#0
        0x0000da56:    6832        2h      LDR      r2,[r6,#0]
        0x0000da58:    1a44        D.      SUBS     r4,r0,r1
        0x0000da5a:    ea220103    "...    BIC      r1,r2,r3
        0x0000da5e:    e00d        ..      B        0xda7c ; am_hal_pwrctrl_simobuck_vddx_active_trim_adj_default + 148
        0x0000da60:    2000        .       MOVS     r0,#0
        0x0000da62:    1901        ..      ADDS     r1,r0,r4
        0x0000da64:    460a        .F      MOV      r2,r1
        0x0000da66:    293f        ?)      CMP      r1,#0x3f
        0x0000da68:    bf28        (.      IT       CS
        0x0000da6a:    223f        ?"      MOVCS    r2,#0x3f
        0x0000da6c:    2900        .)      CMP      r1,#0
        0x0000da6e:    bf48        H.      IT       MI
        0x0000da70:    2200        ."      MOVMI    r2,#0
        0x0000da72:    6831        1h      LDR      r1,[r6,#0]
        0x0000da74:    1a14        ..      SUBS     r4,r2,r0
        0x0000da76:    0410        ..      LSLS     r0,r2,#16
        0x0000da78:    f421117c    !.|.    BIC      r1,r1,#0x3f0000
        0x0000da7c:    4308        .C      ORRS     r0,r0,r1
        0x0000da7e:    6030        0`      STR      r0,[r6,#0]
        0x0000da80:    f44f70a0    O..p    MOV      r0,#0x140
        0x0000da84:    f7fffa3b    ..;.    BL       am_hal_flash_delay ; 0xcefe
        0x0000da88:    9801        ..      LDR      r0,[sp,#4]
        0x0000da8a:    f7fffcf9    ....    BL       am_hal_interrupt_master_set ; 0xd480
        0x0000da8e:    4620         F      MOV      r0,r4
        0x0000da90:    b002        ..      ADD      sp,sp,#8
        0x0000da92:    bd70        p.      POP      {r4-r6,pc}
    am_hal_pwrctrl_wa_vddf_boost
        0x0000da94:    b580        ..      PUSH     {r7,lr}
        0x0000da96:    b082        ..      SUB      sp,sp,#8
        0x0000da98:    f7fffcea    ....    BL       am_hal_interrupt_master_disable ; 0xd470
        0x0000da9c:    9001        ..      STR      r0,[sp,#4]
        0x0000da9e:    f2410024    A.$.    MOV      r0,#0x1024
        0x0000daa2:    f2c40002    ....    MOVT     r0,#0x4002
        0x0000daa6:    6800        .h      LDR      r0,[r0,#0]
        0x0000daa8:    07c0        ..      LSLS     r0,r0,#31
        0x0000daaa:    d104        ..      BNE      0xdab6 ; am_hal_pwrctrl_wa_vddf_boost + 34
        0x0000daac:    2001        .       MOVS     r0,#1
        0x0000daae:    2103        .!      MOVS     r1,#3
        0x0000dab0:    f7fffe67    ..g.    BL       am_hal_pwrctrl_ldo_vddx_active_trim_adj_default ; 0xd782
        0x0000dab4:    e003        ..      B        0xdabe ; am_hal_pwrctrl_wa_vddf_boost + 42
        0x0000dab6:    2001        .       MOVS     r0,#1
        0x0000dab8:    2105        .!      MOVS     r1,#5
        0x0000daba:    f7ffff95    ....    BL       am_hal_pwrctrl_simobuck_vddx_active_trim_adj_default ; 0xd9e8
        0x0000dabe:    f44f70a0    O..p    MOV      r0,#0x140
        0x0000dac2:    f7fffa1c    ....    BL       am_hal_flash_delay ; 0xcefe
        0x0000dac6:    9801        ..      LDR      r0,[sp,#4]
        0x0000dac8:    b002        ..      ADD      sp,sp,#8
        0x0000daca:    e8bd4080    ...@    POP      {r7,lr}
        0x0000dace:    f7ffbcd7    ....    B.W      am_hal_interrupt_master_set ; 0xd480
    am_hal_pwrctrl_wa_vddf_restore
        0x0000dad2:    b580        ..      PUSH     {r7,lr}
        0x0000dad4:    b082        ..      SUB      sp,sp,#8
        0x0000dad6:    f7fffccb    ....    BL       am_hal_interrupt_master_disable ; 0xd470
        0x0000dada:    9001        ..      STR      r0,[sp,#4]
        0x0000dadc:    f2410024    A.$.    MOV      r0,#0x1024
        0x0000dae0:    f2c40002    ....    MOVT     r0,#0x4002
        0x0000dae4:    6800        .h      LDR      r0,[r0,#0]
        0x0000dae6:    07c0        ..      LSLS     r0,r0,#31
        0x0000dae8:    d104        ..      BNE      0xdaf4 ; am_hal_pwrctrl_wa_vddf_restore + 34
        0x0000daea:    2001        .       MOVS     r0,#1
        0x0000daec:    2100        .!      MOVS     r1,#0
        0x0000daee:    f7fffe48    ..H.    BL       am_hal_pwrctrl_ldo_vddx_active_trim_adj_default ; 0xd782
        0x0000daf2:    e003        ..      B        0xdafc ; am_hal_pwrctrl_wa_vddf_restore + 42
        0x0000daf4:    2001        .       MOVS     r0,#1
        0x0000daf6:    2100        .!      MOVS     r1,#0
        0x0000daf8:    f7ffff76    ..v.    BL       am_hal_pwrctrl_simobuck_vddx_active_trim_adj_default ; 0xd9e8
        0x0000dafc:    f44f70a0    O..p    MOV      r0,#0x140
        0x0000db00:    f7fff9fd    ....    BL       am_hal_flash_delay ; 0xcefe
        0x0000db04:    9801        ..      LDR      r0,[sp,#4]
        0x0000db06:    b002        ..      ADD      sp,sp,#8
        0x0000db08:    e8bd4080    ...@    POP      {r7,lr}
        0x0000db0c:    f7ffbcb8    ....    B.W      am_hal_interrupt_master_set ; 0xd480
    am_hal_rtc_osc_disable
        0x0000db10:    f2442050    D.P     MOV      r0,#0x4250
        0x0000db14:    f2c40000    ....    MOVT     r0,#0x4000
        0x0000db18:    6801        .h      LDR      r1,[r0,#0]
        0x0000db1a:    f0410110    A...    ORR      r1,r1,#0x10
        0x0000db1e:    6001        .`      STR      r1,[r0,#0]
        0x0000db20:    4770        pG      BX       lr
        0x0000db22:    0000        ..      MOVS     r0,r0
    am_hal_stimer_compare_delta_set
        0x0000db24:    e92d4ff0    -..O    PUSH     {r4-r11,lr}
        0x0000db28:    b085        ..      SUB      sp,sp,#0x14
        0x0000db2a:    2807        .(      CMP      r0,#7
        0x0000db2c:    d901        ..      BLS      0xdb32 ; am_hal_stimer_compare_delta_set + 14
        0x0000db2e:    2005        .       MOVS     r0,#5
        0x0000db30:    e046        F.      B        0xdbc0 ; am_hal_stimer_compare_delta_set + 156
        0x0000db32:    f2481840    H.@.    MOV      r8,#0x8140
        0x0000db36:    4604        .F      MOV      r4,r0
        0x0000db38:    460d        .F      MOV      r5,r1
        0x0000db3a:    f2c40800    ....    MOVT     r8,#0x4000
        0x0000db3e:    f7fffc97    ....    BL       am_hal_interrupt_master_disable ; 0xd470
        0x0000db42:    9001        ..      STR      r0,[sp,#4]
        0x0000db44:    f8d80000    ....    LDR      r0,[r8,#0]
        0x0000db48:    f1080910    ....    ADD      r9,r8,#0x10
        0x0000db4c:    9000        ..      STR      r0,[sp,#0]
        0x0000db4e:    f44f7080    O..p    MOV      r0,#0x100
        0x0000db52:    f8d81000    ....    LDR      r1,[r8,#0]
        0x0000db56:    fa00fa04    ....    LSL      r10,r0,r4
        0x0000db5a:    ea21000a    !...    BIC      r0,r1,r10
        0x0000db5e:    f8c80000    ....    STR      r0,[r8,#0]
        0x0000db62:    f04f30ff    O..0    MOV      r0,#0xffffffff
        0x0000db66:    f1080604    ....    ADD      r6,r8,#4
        0x0000db6a:    f10d0b08    ....    ADD      r11,sp,#8
        0x0000db6e:    bf00        ..      NOP      
        0x0000db70:    4607        .F      MOV      r7,r0
        0x0000db72:    3005        .0      ADDS     r0,#5
        0x0000db74:    d014        ..      BEQ      0xdba0 ; am_hal_stimer_compare_delta_set + 124
        0x0000db76:    4630        0F      MOV      r0,r6
        0x0000db78:    4659        YF      MOV      r1,r11
        0x0000db7a:    f000f91f    ....    BL       am_hal_triple_read ; 0xddbc
        0x0000db7e:    aa02        ..      ADD      r2,sp,#8
        0x0000db80:    ca07        ..      LDM      r2,{r0-r2}
        0x0000db82:    4288        .B      CMP      r0,r1
        0x0000db84:    bf08        ..      IT       EQ
        0x0000db86:    4602        .F      MOVEQ    r2,r0
        0x0000db88:    f8495024    I.$P    STR      r5,[r9,r4,LSL #2]
        0x0000db8c:    f8591024    Y.$.    LDR      r1,[r9,r4,LSL #2]
        0x0000db90:    442a        *D      ADD      r2,r2,r5
        0x0000db92:    4291        .B      CMP      r1,r2
        0x0000db94:    f1a70001    ....    SUB      r0,r7,#1
        0x0000db98:    dbea        ..      BLT      0xdb70 ; am_hal_stimer_compare_delta_set + 76
        0x0000db9a:    320a        .2      ADDS     r2,r2,#0xa
        0x0000db9c:    4291        .B      CMP      r1,r2
        0x0000db9e:    dce7        ..      BGT      0xdb70 ; am_hal_stimer_compare_delta_set + 76
        0x0000dba0:    f8d80000    ....    LDR      r0,[r8,#0]
        0x0000dba4:    9900        ..      LDR      r1,[sp,#0]
        0x0000dba6:    ea01010a    ....    AND      r1,r1,r10
        0x0000dbaa:    4308        .C      ORRS     r0,r0,r1
        0x0000dbac:    f8c80000    ....    STR      r0,[r8,#0]
        0x0000dbb0:    9801        ..      LDR      r0,[sp,#4]
        0x0000dbb2:    f7fffc65    ..e.    BL       am_hal_interrupt_master_set ; 0xd480
        0x0000dbb6:    4279        yB      RSBS     r1,r7,#0
        0x0000dbb8:    2000        .       MOVS     r0,#0
        0x0000dbba:    2903        .)      CMP      r1,#3
        0x0000dbbc:    bf88        ..      IT       HI
        0x0000dbbe:    2001        .       MOVHI    r0,#1
        0x0000dbc0:    b005        ..      ADD      sp,sp,#0x14
        0x0000dbc2:    e8bd8ff0    ....    POP      {r4-r11,pc}
    am_hal_stimer_config
        0x0000dbc6:    f2481340    H.@.    MOV      r3,#0x8140
        0x0000dbca:    f2c40300    ....    MOVT     r3,#0x4000
        0x0000dbce:    6819        .h      LDR      r1,[r3,#0]
        0x0000dbd0:    4602        .F      MOV      r2,r0
        0x0000dbd2:    4608        .F      MOV      r0,r1
        0x0000dbd4:    601a        .`      STR      r2,[r3,#0]
        0x0000dbd6:    4770        pG      BX       lr
    am_hal_stimer_counter_get
        0x0000dbd8:    b580        ..      PUSH     {r7,lr}
        0x0000dbda:    b084        ..      SUB      sp,sp,#0x10
        0x0000dbdc:    f2481044    H.D.    MOV      r0,#0x8144
        0x0000dbe0:    f2c40000    ....    MOVT     r0,#0x4000
        0x0000dbe4:    a901        ..      ADD      r1,sp,#4
        0x0000dbe6:    f000f8e9    ....    BL       am_hal_triple_read ; 0xddbc
        0x0000dbea:    e9dd1201    ....    LDRD     r1,r2,[sp,#4]
        0x0000dbee:    9803        ..      LDR      r0,[sp,#0xc]
        0x0000dbf0:    4291        .B      CMP      r1,r2
        0x0000dbf2:    bf08        ..      IT       EQ
        0x0000dbf4:    4608        .F      MOVEQ    r0,r1
        0x0000dbf6:    b004        ..      ADD      sp,sp,#0x10
        0x0000dbf8:    bd80        ..      POP      {r7,pc}
    am_hal_stimer_int_clear
        0x0000dbfa:    f2483108    H..1    MOV      r1,#0x8308
        0x0000dbfe:    f2c40100    ....    MOVT     r1,#0x4000
        0x0000dc02:    6008        .`      STR      r0,[r1,#0]
        0x0000dc04:    4770        pG      BX       lr
    am_hal_stimer_int_enable
        0x0000dc06:    f2483100    H..1    MOVW     r1,#0x8300
        0x0000dc0a:    f2c40100    ....    MOVT     r1,#0x4000
        0x0000dc0e:    680a        .h      LDR      r2,[r1,#0]
        0x0000dc10:    4310        .C      ORRS     r0,r0,r2
        0x0000dc12:    6008        .`      STR      r0,[r1,#0]
        0x0000dc14:    4770        pG      BX       lr
    am_hal_stimer_int_status_get
        0x0000dc16:    f2483200    H..2    MOVW     r2,#0x8300
        0x0000dc1a:    f2c40200    ....    MOVT     r2,#0x4000
        0x0000dc1e:    4601        .F      MOV      r1,r0
        0x0000dc20:    6850        Ph      LDR      r0,[r2,#4]
        0x0000dc22:    2900        .)      CMP      r1,#0
        0x0000dc24:    bf08        ..      IT       EQ
        0x0000dc26:    4770        pG      BXEQ     lr
        0x0000dc28:    6811        .h      LDR      r1,[r2,#0]
        0x0000dc2a:    4008        .@      ANDS     r0,r0,r1
        0x0000dc2c:    4770        pG      BX       lr
    am_hal_sysctrl_control
        0x0000dc2e:    2106        .!      MOVS     r1,#6
        0x0000dc30:    2802        .(      CMP      r0,#2
        0x0000dc32:    bf38        8.      IT       CC
        0x0000dc34:    2107        .!      MOVCC    r1,#7
        0x0000dc36:    4608        .F      MOV      r0,r1
        0x0000dc38:    4770        pG      BX       lr
    am_hal_sysctrl_fpu_enable
        0x0000dc3a:    f64e5088    N..P    MOV      r0,#0xed88
        0x0000dc3e:    f2ce0000    ....    MOVT     r0,#0xe000
        0x0000dc42:    f44f0170    O.p.    MOV      r1,#0xf00000
        0x0000dc46:    6001        .`      STR      r1,[r0,#0]
        0x0000dc48:    4770        pG      BX       lr
    am_hal_sysctrl_fpu_stacking_enable
        0x0000dc4a:    b510        ..      PUSH     {r4,lr}
        0x0000dc4c:    b082        ..      SUB      sp,sp,#8
        0x0000dc4e:    4604        .F      MOV      r4,r0
        0x0000dc50:    f7fffc0e    ....    BL       am_hal_interrupt_master_disable ; 0xd470
        0x0000dc54:    9001        ..      STR      r0,[sp,#4]
        0x0000dc56:    f64e7034    N.4p    MOV      r0,#0xef34
        0x0000dc5a:    f2ce0000    ....    MOVT     r0,#0xe000
        0x0000dc5e:    6801        .h      LDR      r1,[r0,#0]
        0x0000dc60:    f04f4200    O..B    MOV      r2,#0x80000000
        0x0000dc64:    f0214140    !.@A    BIC      r1,r1,#0xc0000000
        0x0000dc68:    2c00        .,      CMP      r4,#0
        0x0000dc6a:    bf18        ..      IT       NE
        0x0000dc6c:    f04f4240    O.@B    MOVNE    r2,#0xc0000000
        0x0000dc70:    4411        .D      ADD      r1,r1,r2
        0x0000dc72:    6001        .`      STR      r1,[r0,#0]
        0x0000dc74:    9801        ..      LDR      r0,[sp,#4]
        0x0000dc76:    b002        ..      ADD      sp,sp,#8
        0x0000dc78:    e8bd4010    ...@    POP      {r4,lr}
        0x0000dc7c:    f7ffbc00    ....    B.W      am_hal_interrupt_master_set ; 0xd480
    am_hal_sysctrl_sleep
        0x0000dc80:    b5b0        ..      PUSH     {r4,r5,r7,lr}
        0x0000dc82:    b082        ..      SUB      sp,sp,#8
        0x0000dc84:    4604        .F      MOV      r4,r0
        0x0000dc86:    f7fffbf3    ....    BL       am_hal_interrupt_master_disable ; 0xd470
        0x0000dc8a:    9000        ..      STR      r0,[sp,#0]
        0x0000dc8c:    f241101c    A...    MOV      r0,#0x111c
        0x0000dc90:    f2c10000    ....    MOVT     r0,#0x1000
        0x0000dc94:    6801        .h      LDR      r1,[r0,#0]
        0x0000dc96:    3101        .1      ADDS     r1,#1
        0x0000dc98:    6001        .`      STR      r1,[r0,#0]
        0x0000dc9a:    f2440034    D.4.    MOV      r0,#0x4034
        0x0000dc9e:    f2c40000    ....    MOVT     r0,#0x4000
        0x0000dca2:    6800        .h      LDR      r0,[r0,#0]
        0x0000dca4:    f0100504    ....    ANDS     r5,r0,#4
        0x0000dca8:    d00a        ..      BEQ      0xdcc0 ; am_hal_sysctrl_sleep + 64
        0x0000dcaa:    f10d0007    ....    ADD      r0,sp,#7
        0x0000dcae:    f7fefe0c    ....    BL       am_hal_burst_mode_disable ; 0xc8ca
        0x0000dcb2:    bb08        ..      CBNZ     r0,0xdcf8 ; am_hal_sysctrl_sleep + 120
        0x0000dcb4:    f89d0007    ....    LDRB     r0,[sp,#7]
        0x0000dcb8:    2801        .(      CMP      r0,#1
        0x0000dcba:    d11d        ..      BNE      0xdcf8 ; am_hal_sysctrl_sleep + 120
        0x0000dcbc:    f7ffff09    ....    BL       am_hal_pwrctrl_wa_vddf_restore ; 0xdad2
        0x0000dcc0:    f64e5010    N..P    MOV      r0,#0xed10
        0x0000dcc4:    f2ce0000    ....    MOVT     r0,#0xe000
        0x0000dcc8:    b1bc        ..      CBZ      r4,0xdcfa ; am_hal_sysctrl_sleep + 122
        0x0000dcca:    f2402150    @.P!    MOVW     r1,#0x250
        0x0000dcce:    f2c40102    ....    MOVT     r1,#0x4002
        0x0000dcd2:    6809        .h      LDR      r1,[r1,#0]
        0x0000dcd4:    07c9        ..      LSLS     r1,r1,#31
        0x0000dcd6:    d110        ..      BNE      0xdcfa ; am_hal_sysctrl_sleep + 122
        0x0000dcd8:    f2410190    A...    MOV      r1,#0x1090
        0x0000dcdc:    f2c10100    ....    MOVT     r1,#0x1000
        0x0000dce0:    680a        .h      LDR      r2,[r1,#0]
        0x0000dce2:    b92a        *.      CBNZ     r2,0xdcf0 ; am_hal_sysctrl_sleep + 112
        0x0000dce4:    f24f0200    O...    MOVW     r2,#0xf000
        0x0000dce8:    f6c472ff    ...r    MOVT     r2,#0x4fff
        0x0000dcec:    6812        .h      LDR      r2,[r2,#0]
        0x0000dcee:    600a        .`      STR      r2,[r1,#0]
        0x0000dcf0:    6801        .h      LDR      r1,[r0,#0]
        0x0000dcf2:    f0410104    A...    ORR      r1,r1,#4
        0x0000dcf6:    e003        ..      B        0xdd00 ; am_hal_sysctrl_sleep + 128
        0x0000dcf8:    e7fe        ..      B        0xdcf8 ; am_hal_sysctrl_sleep + 120
        0x0000dcfa:    6801        .h      LDR      r1,[r0,#0]
        0x0000dcfc:    f0210104    !...    BIC      r1,r1,#4
        0x0000dd00:    6001        .`      STR      r1,[r0,#0]
        0x0000dd02:    2000        .       MOVS     r0,#0
        0x0000dd04:    f3bf8f4f    ..O.    DSB      
        0x0000dd08:    f6c570ff    ...p    MOVT     r0,#0x5fff
        0x0000dd0c:    6800        .h      LDR      r0,[r0,#0]
        0x0000dd0e:    bf30        0.      WFI      
        0x0000dd10:    f3bf8f6f    ..o.    ISB      
        0x0000dd14:    b11d        ..      CBZ      r5,0xdd1e ; am_hal_sysctrl_sleep + 158
        0x0000dd16:    f10d0007    ....    ADD      r0,sp,#7
        0x0000dd1a:    f7fefe36    ..6.    BL       am_hal_burst_mode_enable ; 0xc98a
        0x0000dd1e:    9800        ..      LDR      r0,[sp,#0]
        0x0000dd20:    f7fffbae    ....    BL       am_hal_interrupt_master_set ; 0xd480
        0x0000dd24:    b002        ..      ADD      sp,sp,#8
        0x0000dd26:    bdb0        ..      POP      {r4,r5,r7,pc}
    am_hal_tpiu_enable
        0x0000dd28:    b570        p.      PUSH     {r4-r6,lr}
        0x0000dd2a:    b084        ..      SUB      sp,sp,#0x10
        0x0000dd2c:    6806        .h      LDR      r6,[r0,#0]
        0x0000dd2e:    f6407400    @..t    MOVW     r4,#0xf00
        0x0000dd32:    2504        .%      MOVS     r5,#4
        0x0000dd34:    f2ce0404    ....    MOVT     r4,#0xe004
        0x0000dd38:    f2ce0504    ....    MOVT     r5,#0xe004
        0x0000dd3c:    2200        ."      MOVS     r2,#0
        0x0000dd3e:    f8c52300    ...#    STR      r2,[r5,#0x300]
        0x0000dd42:    b1ce        ..      CBZ      r6,0xdd78 ; am_hal_tpiu_enable + 80
        0x0000dd44:    2001        .       MOVS     r0,#1
        0x0000dd46:    6028        (`      STR      r0,[r5,#0]
        0x0000dd48:    a801        ..      ADD      r0,sp,#4
        0x0000dd4a:    f7fff87d    ..}.    BL       am_hal_clkgen_status_get ; 0xce48
        0x0000dd4e:    9801        ..      LDR      r0,[sp,#4]
        0x0000dd50:    1c41        A.      ADDS     r1,r0,#1
        0x0000dd52:    d01f        ..      BEQ      0xdd94 ; am_hal_tpiu_enable + 108
        0x0000dd54:    f24a3280    J..2    MOV      r2,#0xa380
        0x0000dd58:    f5a64161    ..aA    SUB      r1,r6,#0xe100
        0x0000dd5c:    f2c0021d    ....    MOVT     r2,#0x1d
        0x0000dd60:    08c0        ..      LSRS     r0,r0,#3
        0x0000dd62:    4291        .B      CMP      r1,r2
        0x0000dd64:    bf84        ..      ITT      HI
        0x0000dd66:    f2442640    D.@&    MOVHI    r6,#0x4240
        0x0000dd6a:    f2c0060f    ....    MOVTHI   r6,#0xf
        0x0000dd6e:    fbb0f0f6    ....    UDIV     r0,r0,r6
        0x0000dd72:    3801        .8      SUBS     r0,#1
        0x0000dd74:    b280        ..      UXTH     r0,r0
        0x0000dd76:    e00e        ..      B        0xdd96 ; am_hal_tpiu_enable + 110
        0x0000dd78:    e9d01301    ....    LDRD     r1,r3,[r0,#4]
        0x0000dd7c:    e9d00603    ....    LDRD     r0,r6,[r0,#0xc]
        0x0000dd80:    60ee        .`      STR      r6,[r5,#0xc]
        0x0000dd82:    f8c530ec    ...0    STR      r3,[r5,#0xec]
        0x0000dd86:    3801        .8      SUBS     r0,#1
        0x0000dd88:    2301        .#      MOVS     r3,#1
        0x0000dd8a:    fa03f000    ....    LSL      r0,r3,r0
        0x0000dd8e:    6028        (`      STR      r0,[r5,#0]
        0x0000dd90:    6022        "`      STR      r2,[r4,#0]
        0x0000dd92:    e008        ..      B        0xdda6 ; am_hal_tpiu_enable + 126
        0x0000dd94:    2005        .       MOVS     r0,#5
        0x0000dd96:    60e8        .`      STR      r0,[r5,#0xc]
        0x0000dd98:    2002        .       MOVS     r0,#2
        0x0000dd9a:    f8c500ec    ....    STR      r0,[r5,#0xec]
        0x0000dd9e:    2000        .       MOVS     r0,#0
        0x0000dda0:    6020         `      STR      r0,[r4,#0]
        0x0000dda2:    f2402101    @..!    MOV      r1,#0x201
        0x0000dda6:    f2402050    @.P     MOVW     r0,#0x250
        0x0000ddaa:    f2c40002    ....    MOVT     r0,#0x4002
        0x0000ddae:    6001        .`      STR      r1,[r0,#0]
        0x0000ddb0:    f44f7048    O.Hp    MOV      r0,#0x320
        0x0000ddb4:    f7fff8a3    ....    BL       am_hal_flash_delay ; 0xcefe
        0x0000ddb8:    b004        ..      ADD      sp,sp,#0x10
        0x0000ddba:    bd70        p.      POP      {r4-r6,pc}
    am_hal_triple_read
        0x0000ddbc:    b510        ..      PUSH     {r4,lr}
        0x0000ddbe:    468c        .F      MOV      r12,r1
        0x0000ddc0:    4686        .F      MOV      lr,r0
        0x0000ddc2:    b412        ..      PUSH     {r1,r4}
        0x0000ddc4:    f3ef8410    ....    MRS      r4,PRIMASK
        0x0000ddc8:    b672        r.      CPSID    i
        0x0000ddca:    bf00        ..      NOP      
        0x0000ddcc:    6801        .h      LDR      r1,[r0,#0]
        0x0000ddce:    6802        .h      LDR      r2,[r0,#0]
        0x0000ddd0:    6803        .h      LDR      r3,[r0,#0]
        0x0000ddd2:    f3848810    ....    MSR      PRIMASK,r4
        0x0000ddd6:    bc11        ..      POP      {r0,r4}
        0x0000ddd8:    6001        .`      STR      r1,[r0,#0]
        0x0000ddda:    6042        B`      STR      r2,[r0,#4]
        0x0000dddc:    6083        .`      STR      r3,[r0,#8]
        0x0000ddde:    bd10        ..      POP      {r4,pc}
    am_stimer_cmpr0_isr
        0x0000dde0:    b580        ..      PUSH     {r7,lr}
        0x0000dde2:    2000        .       MOVS     r0,#0
        0x0000dde4:    f7ffff17    ....    BL       am_hal_stimer_int_status_get ; 0xdc16
        0x0000dde8:    07c0        ..      LSLS     r0,r0,#31
        0x0000ddea:    bf08        ..      IT       EQ
        0x0000ddec:    bd80        ..      POPEQ    {r7,pc}
        0x0000ddee:    2001        .       MOVS     r0,#1
        0x0000ddf0:    f7ffff03    ....    BL       am_hal_stimer_int_clear ; 0xdbfa
        0x0000ddf4:    2000        .       MOVS     r0,#0
        0x0000ddf6:    e8bd4080    ...@    POP      {r7,lr}
        0x0000ddfa:    f001bf6d    ..m.    B.W      xPortStimerTickHandler ; 0xfcd8
    am_stimer_cmpr1_isr
        0x0000ddfe:    b580        ..      PUSH     {r7,lr}
        0x0000de00:    2000        .       MOVS     r0,#0
        0x0000de02:    f7ffff08    ....    BL       am_hal_stimer_int_status_get ; 0xdc16
        0x0000de06:    0780        ..      LSLS     r0,r0,#30
        0x0000de08:    bf58        X.      IT       PL
        0x0000de0a:    bd80        ..      POPPL    {r7,pc}
        0x0000de0c:    2002        .       MOVS     r0,#2
        0x0000de0e:    f7fffef4    ....    BL       am_hal_stimer_int_clear ; 0xdbfa
        0x0000de12:    f2410194    A...    MOV      r1,#0x1094
        0x0000de16:    f2c10100    ....    MOVT     r1,#0x1000
        0x0000de1a:    6808        .h      LDR      r0,[r1,#0]
        0x0000de1c:    1c42        B.      ADDS     r2,r0,#1
        0x0000de1e:    2001        .       MOVS     r0,#1
        0x0000de20:    600a        .`      STR      r2,[r1,#0]
        0x0000de22:    e8bd4080    ...@    POP      {r7,lr}
        0x0000de26:    f001bf57    ..W.    B.W      xPortStimerTickHandler ; 0xfcd8
    am_util_delay_ms
        0x0000de2a:    b510        ..      PUSH     {r4,lr}
        0x0000de2c:    b084        ..      SUB      sp,sp,#0x10
        0x0000de2e:    4604        .F      MOV      r4,r0
        0x0000de30:    a801        ..      ADD      r0,sp,#4
        0x0000de32:    f7fff809    ....    BL       am_hal_clkgen_status_get ; 0xce48
        0x0000de36:    9801        ..      LDR      r0,[sp,#4]
        0x0000de38:    f64111f1    A...    MOV      r1,#0x19f1
        0x0000de3c:    f2c05176    ..vQ    MOVT     r1,#0x576
        0x0000de40:    fba00101    ....    UMULL    r0,r1,r0,r1
        0x0000de44:    0988        ..      LSRS     r0,r1,#6
        0x0000de46:    4360        `C      MULS     r0,r4,r0
        0x0000de48:    f7fff859    ..Y.    BL       am_hal_flash_delay ; 0xcefe
        0x0000de4c:    b004        ..      ADD      sp,sp,#0x10
        0x0000de4e:    bd10        ..      POP      {r4,pc}
    am_util_faultisr_collect_data
        0x0000de50:    b092        ..      SUB      sp,sp,#0x48
        0x0000de52:    4604        .F      MOV      r4,r0
        0x0000de54:    4668        hF      MOV      r0,sp
        0x0000de56:    2118        .!      MOVS     r1,#0x18
        0x0000de58:    f7fefa15    ....    BL       __aeabi_memclr4 ; 0xc286
        0x0000de5c:    2500        .%      MOVS     r5,#0
        0x0000de5e:    f64e5028    N.(P    MOV      r0,#0xed28
        0x0000de62:    9507        ..      STR      r5,[sp,#0x1c]
        0x0000de64:    f2ce0000    ....    MOVT     r0,#0xe000
        0x0000de68:    6801        .h      LDR      r1,[r0,#0]
        0x0000de6a:    9107        ..      STR      r1,[sp,#0x1c]
        0x0000de6c:    9907        ..      LDR      r1,[sp,#0x1c]
        0x0000de6e:    f88d101b    ....    STRB     r1,[sp,#0x1b]
        0x0000de72:    9907        ..      LDR      r1,[sp,#0x1c]
        0x0000de74:    0a09        ..      LSRS     r1,r1,#8
        0x0000de76:    f88d101a    ....    STRB     r1,[sp,#0x1a]
        0x0000de7a:    9907        ..      LDR      r1,[sp,#0x1c]
        0x0000de7c:    0c09        ..      LSRS     r1,r1,#16
        0x0000de7e:    f8ad1018    ....    STRH     r1,[sp,#0x18]
        0x0000de82:    6900        .i      LDR      r0,[r0,#0x10]
        0x0000de84:    9008        ..      STR      r0,[sp,#0x20]
        0x0000de86:    f89d001a    ....    LDRB     r0,[sp,#0x1a]
        0x0000de8a:    0780        ..      LSLS     r0,r0,#30
        0x0000de8c:    d402        ..      BMI      0xde94 ; am_util_faultisr_collect_data + 68
        0x0000de8e:    f04f30ff    O..0    MOV      r0,#0xffffffff
        0x0000de92:    e003        ..      B        0xde9c ; am_util_faultisr_collect_data + 76
        0x0000de94:    2006        .       MOVS     r0,#6
        0x0000de96:    4621        !F      MOV      r1,r4
        0x0000de98:    f000fe0b    ....    BL       getStackedReg ; 0xeab2
        0x0000de9c:    9009        ..      STR      r0,[sp,#0x24]
        0x0000de9e:    2000        .       MOVS     r0,#0
        0x0000dea0:    4621        !F      MOV      r1,r4
        0x0000dea2:    f000fe06    ....    BL       getStackedReg ; 0xeab2
        0x0000dea6:    9011        ..      STR      r0,[sp,#0x44]
        0x0000dea8:    2001        .       MOVS     r0,#1
        0x0000deaa:    4621        !F      MOV      r1,r4
        0x0000deac:    f000fe01    ....    BL       getStackedReg ; 0xeab2
        0x0000deb0:    9010        ..      STR      r0,[sp,#0x40]
        0x0000deb2:    2002        .       MOVS     r0,#2
        0x0000deb4:    4621        !F      MOV      r1,r4
        0x0000deb6:    f000fdfc    ....    BL       getStackedReg ; 0xeab2
        0x0000deba:    900f        ..      STR      r0,[sp,#0x3c]
        0x0000debc:    2003        .       MOVS     r0,#3
        0x0000debe:    4621        !F      MOV      r1,r4
        0x0000dec0:    f000fdf7    ....    BL       getStackedReg ; 0xeab2
        0x0000dec4:    900e        ..      STR      r0,[sp,#0x38]
        0x0000dec6:    2004        .       MOVS     r0,#4
        0x0000dec8:    4621        !F      MOV      r1,r4
        0x0000deca:    f000fdf2    ....    BL       getStackedReg ; 0xeab2
        0x0000dece:    900d        ..      STR      r0,[sp,#0x34]
        0x0000ded0:    2005        .       MOVS     r0,#5
        0x0000ded2:    4621        !F      MOV      r1,r4
        0x0000ded4:    f000fded    ....    BL       getStackedReg ; 0xeab2
        0x0000ded8:    900c        ..      STR      r0,[sp,#0x30]
        0x0000deda:    2006        .       MOVS     r0,#6
        0x0000dedc:    4621        !F      MOV      r1,r4
        0x0000dede:    f000fde8    ....    BL       getStackedReg ; 0xeab2
        0x0000dee2:    900b        ..      STR      r0,[sp,#0x2c]
        0x0000dee4:    2007        .       MOVS     r0,#7
        0x0000dee6:    4621        !F      MOV      r1,r4
        0x0000dee8:    f000fde3    ....    BL       getStackedReg ; 0xeab2
        0x0000deec:    900a        ..      STR      r0,[sp,#0x28]
        0x0000deee:    4669        iF      MOV      r1,sp
        0x0000def0:    2002        .       MOVS     r0,#2
        0x0000def2:    f7fffb56    ..V.    BL       am_hal_mcuctrl_info_get ; 0xd5a2
        0x0000def6:    f64040f2    @..@    MOV      r0,#0xcf2
        0x0000defa:    f2c00001    ....    MOVT     r0,#1
        0x0000defe:    f000f915    ....    BL       am_util_stdio_printf ; 0xe12c
        0x0000df02:    9911        ..      LDR      r1,[sp,#0x44]
        0x0000df04:    f640607c    @.|`    MOV      r0,#0xe7c
        0x0000df08:    f2c00001    ....    MOVT     r0,#1
        0x0000df0c:    f000f90e    ....    BL       am_util_stdio_printf ; 0xe12c
        0x0000df10:    9910        ..      LDR      r1,[sp,#0x40]
        0x0000df12:    f640608e    @..`    MOV      r0,#0xe8e
        0x0000df16:    f2c00001    ....    MOVT     r0,#1
        0x0000df1a:    f000f907    ....    BL       am_util_stdio_printf ; 0xe12c
        0x0000df1e:    990f        ..      LDR      r1,[sp,#0x3c]
        0x0000df20:    f64060a0    @..`    MOVW     r0,#0xea0
        0x0000df24:    f2c00001    ....    MOVT     r0,#1
        0x0000df28:    f000f900    ....    BL       am_util_stdio_printf ; 0xe12c
        0x0000df2c:    990e        ..      LDR      r1,[sp,#0x38]
        0x0000df2e:    f64060b2    @..`    MOV      r0,#0xeb2
        0x0000df32:    f2c00001    ....    MOVT     r0,#1
        0x0000df36:    f000f8f9    ....    BL       am_util_stdio_printf ; 0xe12c
        0x0000df3a:    990d        ..      LDR      r1,[sp,#0x34]
        0x0000df3c:    f6407010    @..p    MOVW     r0,#0xf10
        0x0000df40:    f2c00001    ....    MOVT     r0,#1
        0x0000df44:    f000f8f2    ....    BL       am_util_stdio_printf ; 0xe12c
        0x0000df48:    990c        ..      LDR      r1,[sp,#0x30]
        0x0000df4a:    f64060d6    @..`    MOV      r0,#0xed6
        0x0000df4e:    f2c00001    ....    MOVT     r0,#1
        0x0000df52:    f000f8eb    ....    BL       am_util_stdio_printf ; 0xe12c
        0x0000df56:    990b        ..      LDR      r1,[sp,#0x2c]
        0x0000df58:    f64060c4    @..`    MOV      r0,#0xec4
        0x0000df5c:    f2c00001    ....    MOVT     r0,#1
        0x0000df60:    f000f8e4    ....    BL       am_util_stdio_printf ; 0xe12c
        0x0000df64:    990a        ..      LDR      r1,[sp,#0x28]
        0x0000df66:    f6407022    @."p    MOV      r0,#0xf22
        0x0000df6a:    f2c00001    ....    MOVT     r0,#1
        0x0000df6e:    f000f8dd    ....    BL       am_util_stdio_printf ; 0xe12c
        0x0000df72:    f640501d    @..P    MOV      r0,#0xd1d
        0x0000df76:    f2c00001    ....    MOVT     r0,#1
        0x0000df7a:    f000f8d7    ....    BL       am_util_stdio_printf ; 0xe12c
        0x0000df7e:    9909        ..      LDR      r1,[sp,#0x24]
        0x0000df80:    f6407034    @.4p    MOV      r0,#0xf34
        0x0000df84:    f2c00001    ....    MOVT     r0,#1
        0x0000df88:    f000f8d0    ....    BL       am_util_stdio_printf ; 0xe12c
        0x0000df8c:    9908        ..      LDR      r1,[sp,#0x20]
        0x0000df8e:    f64060e8    @..`    MOV      r0,#0xee8
        0x0000df92:    f2c00001    ....    MOVT     r0,#1
        0x0000df96:    f000f8c9    ....    BL       am_util_stdio_printf ; 0xe12c
        0x0000df9a:    f89d101b    ....    LDRB     r1,[sp,#0x1b]
        0x0000df9e:    a041        A.      ADR      r0,{pc}+0x106 ; 0xe0a4
        0x0000dfa0:    f000f8c4    ....    BL       am_util_stdio_printf ; 0xe12c
        0x0000dfa4:    f89d101a    ....    LDRB     r1,[sp,#0x1a]
        0x0000dfa8:    a04a        J.      ADR      r0,{pc}+0x12c ; 0xe0d4
        0x0000dfaa:    f000f8bf    ....    BL       am_util_stdio_printf ; 0xe12c
        0x0000dfae:    f8bd1018    ....    LDRH     r1,[sp,#0x18]
        0x0000dfb2:    a053        S.      ADR      r0,{pc}+0x14e ; 0xe100
        0x0000dfb4:    f000f8ba    ....    BL       am_util_stdio_printf ; 0xe12c
        0x0000dfb8:    f6405652    @.RV    MOV      r6,#0xd52
        0x0000dfbc:    f6405ae2    @..Z    MOV      r10,#0xde2
        0x0000dfc0:    f64057aa    @..W    MOV      r7,#0xdaa
        0x0000dfc4:    f6405b8f    @..[    MOV      r11,#0xd8f
        0x0000dfc8:    f64058c7    @..X    MOV      r8,#0xdc7
        0x0000dfcc:    f6405935    @.5Y    MOV      r9,#0xd35
        0x0000dfd0:    2480        .$      MOVS     r4,#0x80
        0x0000dfd2:    f2c00601    ....    MOVT     r6,#1
        0x0000dfd6:    f2c00a01    ....    MOVT     r10,#1
        0x0000dfda:    f2c00701    ....    MOVT     r7,#1
        0x0000dfde:    f2c00b01    ....    MOVT     r11,#1
        0x0000dfe2:    f2c00801    ....    MOVT     r8,#1
        0x0000dfe6:    f2c00901    ....    MOVT     r9,#1
        0x0000dfea:    bf00        ..      NOP      
        0x0000dfec:    f89d001a    ....    LDRB     r0,[sp,#0x1a]
        0x0000dff0:    4020         @      ANDS     r0,r0,r4
        0x0000dff2:    b2c1        ..      UXTB     r1,r0
        0x0000dff4:    290f        .)      CMP      r1,#0xf
        0x0000dff6:    dc0d        ..      BGT      0xe014 ; am_util_faultisr_collect_data + 452
        0x0000dff8:    1e48        H.      SUBS     r0,r1,#1
        0x0000dffa:    2807        .(      CMP      r0,#7
        0x0000dffc:    d826        &.      BHI      0xe04c ; am_util_faultisr_collect_data + 508
        0x0000dffe:    e8dff000    ....    TBB      [pc,r0]
    $d.3
        0x0000e002:    1804        ..      DCW    6148
        0x0000e004:    25251d25    %.%%    DCD    623189285
        0x0000e008:    1f25        %.      DCW    7973
    $t.4
        0x0000e00a:    f6406002    @..`    MOV      r0,#0xe02
        0x0000e00e:    f2c00001    ....    MOVT     r0,#1
        0x0000e012:    e019        ..      B        0xe048 ; am_util_faultisr_collect_data + 504
        0x0000e014:    293f        ?)      CMP      r1,#0x3f
        0x0000e016:    dc05        ..      BGT      0xe024 ; am_util_faultisr_collect_data + 468
        0x0000e018:    2910        .)      CMP      r1,#0x10
        0x0000e01a:    d013        ..      BEQ      0xe044 ; am_util_faultisr_collect_data + 500
        0x0000e01c:    2920         )      CMP      r1,#0x20
        0x0000e01e:    d115        ..      BNE      0xe04c ; am_util_faultisr_collect_data + 508
        0x0000e020:    4640        @F      MOV      r0,r8
        0x0000e022:    e011        ..      B        0xe048 ; am_util_faultisr_collect_data + 504
        0x0000e024:    2980        .)      CMP      r1,#0x80
        0x0000e026:    4630        0F      MOV      r0,r6
        0x0000e028:    d00e        ..      BEQ      0xe048 ; am_util_faultisr_collect_data + 504
        0x0000e02a:    2940        @)      CMP      r1,#0x40
        0x0000e02c:    d10e        ..      BNE      0xe04c ; am_util_faultisr_collect_data + 508
        0x0000e02e:    4648        HF      MOV      r0,r9
        0x0000e030:    e00a        ..      B        0xe048 ; am_util_faultisr_collect_data + 504
        0x0000e032:    f6405070    @.pP    MOVW     r0,#0xd70
        0x0000e036:    f2c00001    ....    MOVT     r0,#1
        0x0000e03a:    e005        ..      B        0xe048 ; am_util_faultisr_collect_data + 504
        0x0000e03c:    4650        PF      MOV      r0,r10
        0x0000e03e:    e003        ..      B        0xe048 ; am_util_faultisr_collect_data + 504
        0x0000e040:    4638        8F      MOV      r0,r7
        0x0000e042:    e001        ..      B        0xe048 ; am_util_faultisr_collect_data + 504
        0x0000e044:    4658        XF      MOV      r0,r11
        0x0000e046:    bf00        ..      NOP      
        0x0000e048:    f000f870    ..p.    BL       am_util_stdio_printf ; 0xe12c
        0x0000e04c:    ebb50f54    ..T.    CMP      r5,r4,LSR #1
        0x0000e050:    ea4f0454    O.T.    LSR      r4,r4,#1
        0x0000e054:    d1ca        ..      BNE      0xdfec ; am_util_faultisr_collect_data + 412
        0x0000e056:    f640500c    @..P    MOV      r0,#0xd0c
        0x0000e05a:    f2c00001    ....    MOVT     r0,#1
        0x0000e05e:    f000f865    ..e.    BL       am_util_stdio_printf ; 0xe12c
        0x0000e062:    f89d0000    ....    LDRB     r0,[sp,#0]
        0x0000e066:    b130        0.      CBZ      r0,0xe076 ; am_util_faultisr_collect_data + 550
        0x0000e068:    9901        ..      LDR      r1,[sp,#4]
        0x0000e06a:    f640603e    @.>`    MOV      r0,#0xe3e
        0x0000e06e:    f2c00001    ....    MOVT     r0,#1
        0x0000e072:    f000f85b    ..[.    BL       am_util_stdio_printf ; 0xe12c
        0x0000e076:    f89d0008    ....    LDRB     r0,[sp,#8]
        0x0000e07a:    b130        0.      CBZ      r0,0xe08a ; am_util_faultisr_collect_data + 570
        0x0000e07c:    9903        ..      LDR      r1,[sp,#0xc]
        0x0000e07e:    f640601e    @..`    MOV      r0,#0xe1e
        0x0000e082:    f2c00001    ....    MOVT     r0,#1
        0x0000e086:    f000f851    ..Q.    BL       am_util_stdio_printf ; 0xe12c
        0x0000e08a:    f89d0010    ....    LDRB     r0,[sp,#0x10]
        0x0000e08e:    b138        8.      CBZ      r0,0xe0a0 ; am_util_faultisr_collect_data + 592
        0x0000e090:    9905        ..      LDR      r1,[sp,#0x14]
        0x0000e092:    f640605e    @.^`    MOV      r0,#0xe5e
        0x0000e096:    f2c00001    ....    MOVT     r0,#1
        0x0000e09a:    f000f847    ..G.    BL       am_util_stdio_printf ; 0xe12c
        0x0000e09e:    bf00        ..      NOP      
        0x0000e0a0:    e7fe        ..      B        0xe0a0 ; am_util_faultisr_collect_data + 592
        0x0000e0a2:    bf00        ..      NOP      
    $d.5
        0x0000e0a4:    20202020            DCD    538976288
        0x0000e0a8:    52534d4d    MMSR    DCD    1381190989
        0x0000e0ac:    654d2820     (Me    DCD    1699555360
        0x0000e0b0:    674d206d    m Mg    DCD    1733107821
        0x0000e0b4:    4620746d    mt F    DCD    1176532077
        0x0000e0b8:    746c7561    ault    DCD    1953264993
        0x0000e0bc:    61745320     Sta    DCD    1635013408
        0x0000e0c0:    20737574    tus     DCD    544437620
        0x0000e0c4:    29676552    Reg)    DCD    694642002
        0x0000e0c8:    30203d20     = 0    DCD    807419168
        0x0000e0cc:    32302578    x%02    DCD    842016120
        0x0000e0d0:    00000a58    X...    DCD    2648
        0x0000e0d4:    20202020            DCD    538976288
        0x0000e0d8:    52534642    BFSR    DCD    1381189186
        0x0000e0dc:    75422820     (Bu    DCD    1967269920
        0x0000e0e0:    61462073    s Fa    DCD    1631985779
        0x0000e0e4:    20746c75    ult     DCD    544500853
        0x0000e0e8:    74617453    Stat    DCD    1952543827
        0x0000e0ec:    52207375    us R    DCD    1377858421
        0x0000e0f0:    20296765    eg)     DCD    539584357
        0x0000e0f4:    7830203d    = 0x    DCD    2016419901
        0x0000e0f8:    58323025    %02X    DCD    1479684133
        0x0000e0fc:    0000000a    ....    DCD    10
        0x0000e100:    20202020            DCD    538976288
        0x0000e104:    52534655    UFSR    DCD    1381189205
        0x0000e108:    73552820     (Us    DCD    1934960672
        0x0000e10c:    20656761    age     DCD    543516513
        0x0000e110:    6c756146    Faul    DCD    1819631942
        0x0000e114:    74532074    t St    DCD    1951604852
        0x0000e118:    73757461    atus    DCD    1937077345
        0x0000e11c:    67655220     Reg    DCD    1734693408
        0x0000e120:    203d2029    ) =     DCD    540876841
        0x0000e124:    30257830    0x%0    DCD    807761968
        0x0000e128:    000a5834    4X..    DCD    677940
    $t.9
    am_util_stdio_printf
        0x0000e12c:    b083        ..      SUB      sp,sp,#0xc
        0x0000e12e:    b5b0        ..      PUSH     {r4,r5,r7,lr}
        0x0000e130:    b081        ..      SUB      sp,sp,#4
        0x0000e132:    f10d0c14    ....    ADD      r12,sp,#0x14
        0x0000e136:    f241142c    A.,.    MOV      r4,#0x112c
        0x0000e13a:    e88c000e    ....    STM      r12,{r1-r3}
        0x0000e13e:    f2c10400    ....    MOVT     r4,#0x1000
        0x0000e142:    6821        !h      LDR      r1,[r4,#0]
        0x0000e144:    b171        q.      CBZ      r1,0xe164 ; am_util_stdio_printf + 56
        0x0000e146:    f2411530    A.0.    MOV      r5,#0x1130
        0x0000e14a:    f2c10500    ....    MOVT     r5,#0x1000
        0x0000e14e:    4601        .F      MOV      r1,r0
        0x0000e150:    aa05        ..      ADD      r2,sp,#0x14
        0x0000e152:    4628        (F      MOV      r0,r5
        0x0000e154:    9200        ..      STR      r2,[sp,#0]
        0x0000e156:    f000f813    ....    BL       am_util_stdio_vsprintf ; 0xe180
        0x0000e15a:    6821        !h      LDR      r1,[r4,#0]
        0x0000e15c:    4604        .F      MOV      r4,r0
        0x0000e15e:    4628        (F      MOV      r0,r5
        0x0000e160:    4788        .G      BLX      r1
        0x0000e162:    e000        ..      B        0xe166 ; am_util_stdio_printf + 58
        0x0000e164:    2400        .$      MOVS     r4,#0
        0x0000e166:    4620         F      MOV      r0,r4
        0x0000e168:    b001        ..      ADD      sp,sp,#4
        0x0000e16a:    e8bd40b0    ...@    POP      {r4,r5,r7,lr}
        0x0000e16e:    b003        ..      ADD      sp,sp,#0xc
        0x0000e170:    4770        pG      BX       lr
    am_util_stdio_printf_init
        0x0000e172:    f241112c    A.,.    MOV      r1,#0x112c
        0x0000e176:    f2c10100    ....    MOVT     r1,#0x1000
        0x0000e17a:    6008        .`      STR      r0,[r1,#0]
        0x0000e17c:    4770        pG      BX       lr
        0x0000e17e:    0000        ..      MOVS     r0,r0
    am_util_stdio_vsprintf
        0x0000e180:    e92d4ff0    -..O    PUSH     {r4-r11,lr}
        0x0000e184:    b08b        ..      SUB      sp,sp,#0x2c
        0x0000e186:    4683        .F      MOV      r11,r0
        0x0000e188:    a806        ..      ADD      r0,sp,#0x18
        0x0000e18a:    f2411823    A.#.    MOV      r8,#0x1123
        0x0000e18e:    4617        .F      MOV      r7,r2
        0x0000e190:    1e46        F.      SUBS     r6,r0,#1
        0x0000e192:    f10d0914    ....    ADD      r9,sp,#0x14
        0x0000e196:    f2c10800    ....    MOVT     r8,#0x1000
        0x0000e19a:    240d        .$      MOVS     r4,#0xd
        0x0000e19c:    2500        .%      MOVS     r5,#0
        0x0000e19e:    1c48        H.      ADDS     r0,r1,#1
        0x0000e1a0:    f8101c01    ....    LDRB     r1,[r0,#-1]
        0x0000e1a4:    2900        .)      CMP      r1,#0
        0x0000e1a6:    f000836b    ..k.    BEQ.W    0xe880 ; am_util_stdio_vsprintf + 1792
        0x0000e1aa:    2925        %)      CMP      r1,#0x25
        0x0000e1ac:    d016        ..      BEQ      0xe1dc ; am_util_stdio_vsprintf + 92
        0x0000e1ae:    f1bb0f00    ....    CMP      r11,#0
        0x0000e1b2:    d00d        ..      BEQ      0xe1d0 ; am_util_stdio_vsprintf + 80
        0x0000e1b4:    290a        .)      CMP      r1,#0xa
        0x0000e1b6:    d107        ..      BNE      0xe1c8 ; am_util_stdio_vsprintf + 72
        0x0000e1b8:    f8982000    ...     LDRB     r2,[r8,#0]
        0x0000e1bc:    b122        ".      CBZ      r2,0xe1c8 ; am_util_stdio_vsprintf + 72
        0x0000e1be:    f80b4b01    ...K    STRB     r4,[r11],#1
        0x0000e1c2:    f8101c01    ....    LDRB     r1,[r0,#-1]
        0x0000e1c6:    3501        .5      ADDS     r5,#1
        0x0000e1c8:    f80b1b01    ....    STRB     r1,[r11],#1
        0x0000e1cc:    e002        ..      B        0xe1d4 ; am_util_stdio_vsprintf + 84
        0x0000e1ce:    bf00        ..      NOP      
        0x0000e1d0:    f04f0b00    O...    MOV      r11,#0
        0x0000e1d4:    3501        .5      ADDS     r5,#1
        0x0000e1d6:    3001        .0      ADDS     r0,#1
        0x0000e1d8:    e7e2        ..      B        0xe1a0 ; am_util_stdio_vsprintf + 32
        0x0000e1da:    bf00        ..      NOP      
        0x0000e1dc:    4604        .F      MOV      r4,r0
        0x0000e1de:    f814ab01    ....    LDRB     r10,[r4],#1
        0x0000e1e2:    9604        ..      STR      r6,[sp,#0x10]
        0x0000e1e4:    46d0        .F      MOV      r8,r10
        0x0000e1e6:    f1ba0f30    ..0.    CMP      r10,#0x30
        0x0000e1ea:    bf1c        ..      ITT      NE
        0x0000e1ec:    4604        .F      MOVNE    r4,r0
        0x0000e1ee:    f04f0820    O. .    MOVNE    r8,#0x20
        0x0000e1f2:    4620         F      MOV      r0,r4
        0x0000e1f4:    4649        IF      MOV      r1,r9
        0x0000e1f6:    f000fbb1    ....    BL       decstr_to_int ; 0xe95c
        0x0000e1fa:    9a05        ..      LDR      r2,[sp,#0x14]
        0x0000e1fc:    4649        IF      MOV      r1,r9
        0x0000e1fe:    5ca6        .\      LDRB     r6,[r4,r2]
        0x0000e200:    4681        .F      MOV      r9,r0
        0x0000e202:    2e73        s.      CMP      r6,#0x73
        0x0000e204:    bf18        ..      IT       NE
        0x0000e206:    f1c90900    ....    RSBNE    r9,r9,#0
        0x0000e20a:    2800        .(      CMP      r0,#0
        0x0000e20c:    bf58        X.      IT       PL
        0x0000e20e:    4681        .F      MOVPL    r9,r0
        0x0000e210:    2e2e        ..      CMP      r6,#0x2e
        0x0000e212:    eb040c02    ....    ADD      r12,r4,r2
        0x0000e216:    d10b        ..      BNE      0xe230 ; am_util_stdio_vsprintf + 176
        0x0000e218:    463c        <F      MOV      r4,r7
        0x0000e21a:    f10c0701    ....    ADD      r7,r12,#1
        0x0000e21e:    4638        8F      MOV      r0,r7
        0x0000e220:    f000fb9c    ....    BL       decstr_to_int ; 0xe95c
        0x0000e224:    9a05        ..      LDR      r2,[sp,#0x14]
        0x0000e226:    5cbe        .\      LDRB     r6,[r7,r2]
        0x0000e228:    eb070c02    ....    ADD      r12,r7,r2
        0x0000e22c:    4627        'F      MOV      r7,r4
        0x0000e22e:    e000        ..      B        0xe232 ; am_util_stdio_vsprintf + 178
        0x0000e230:    2006        .       MOVS     r0,#6
        0x0000e232:    2e6c        l.      CMP      r6,#0x6c
        0x0000e234:    d112        ..      BNE      0xe25c ; am_util_stdio_vsprintf + 220
        0x0000e236:    4663        cF      MOV      r3,r12
        0x0000e238:    f8131f01    ....    LDRB     r1,[r3,#1]!
        0x0000e23c:    396c        l9      SUBS     r1,r1,#0x6c
        0x0000e23e:    fab1f181    ....    CLZ      r1,r1
        0x0000e242:    ea4f1251    O.Q.    LSR      r2,r1,#5
        0x0000e246:    f04f0101    O...    MOV      r1,#1
        0x0000e24a:    bf04        ..      ITT      EQ
        0x0000e24c:    2102        .!      MOVEQ    r1,#2
        0x0000e24e:    f10c0302    ....    ADDEQ    r3,r12,#2
        0x0000e252:    f81c6001    ...`    LDRB     r6,[r12,r1]
        0x0000e256:    469c        .F      MOV      r12,r3
        0x0000e258:    e001        ..      B        0xe25e ; am_util_stdio_vsprintf + 222
        0x0000e25a:    bf00        ..      NOP      
        0x0000e25c:    2200        ."      MOVS     r2,#0
        0x0000e25e:    2e72        r.      CMP      r6,#0x72
        0x0000e260:    dc13        ..      BGT      0xe28a ; am_util_stdio_vsprintf + 266
        0x0000e262:    f1a60163    ..c.    SUB      r1,r6,#0x63
        0x0000e266:    2906        .)      CMP      r1,#6
        0x0000e268:    d81c        ..      BHI      0xe2a4 ; am_util_stdio_vsprintf + 292
        0x0000e26a:    e8dff001    ....    TBB      [pc,r1]
    $d.4
        0x0000e26e:    0480        ..      DCW    1152
        0x0000e270:    70702f70    p/pp    DCD    1886400368
        0x0000e274:    0004        ..      DCW    4
    $t.5
        0x0000e276:    2a00        .*      CMP      r2,#0
        0x0000e278:    f000808c    ....    BEQ.W    0xe394 ; am_util_stdio_vsprintf + 532
        0x0000e27c:    1df8        ..      ADDS     r0,r7,#7
        0x0000e27e:    f0200707     ...    BIC      r7,r0,#7
        0x0000e282:    687c        |h      LDR      r4,[r7,#4]
        0x0000e284:    f8570b08    W...    LDR      r0,[r7],#8
        0x0000e288:    e087        ..      B        0xe39a ; am_util_stdio_vsprintf + 538
        0x0000e28a:    2e73        s.      CMP      r6,#0x73
        0x0000e28c:    f00080a2    ....    BEQ.W    0xe3d4 ; am_util_stdio_vsprintf + 596
        0x0000e290:    2e75        u.      CMP      r6,#0x75
        0x0000e292:    f00080b5    ....    BEQ.W    0xe400 ; am_util_stdio_vsprintf + 640
        0x0000e296:    2e78        x.      CMP      r6,#0x78
        0x0000e298:    d159        Y.      BNE      0xe34e ; am_util_stdio_vsprintf + 462
        0x0000e29a:    f8cdc00c    ....    STR      r12,[sp,#0xc]
        0x0000e29e:    f04f0c27    O.'.    MOV      r12,#0x27
        0x0000e2a2:    e007        ..      B        0xe2b4 ; am_util_stdio_vsprintf + 308
        0x0000e2a4:    2e46        F.      CMP      r6,#0x46
        0x0000e2a6:    d011        ..      BEQ      0xe2cc ; am_util_stdio_vsprintf + 332
        0x0000e2a8:    2e58        X.      CMP      r6,#0x58
        0x0000e2aa:    d150        P.      BNE      0xe34e ; am_util_stdio_vsprintf + 462
        0x0000e2ac:    f8cdc00c    ....    STR      r12,[sp,#0xc]
        0x0000e2b0:    f04f0c07    O...    MOV      r12,#7
        0x0000e2b4:    f8dde010    ....    LDR      lr,[sp,#0x10]
        0x0000e2b8:    2a00        .*      CMP      r2,#0
        0x0000e2ba:    f00080ab    ....    BEQ.W    0xe414 ; am_util_stdio_vsprintf + 660
        0x0000e2be:    1df9        ..      ADDS     r1,r7,#7
        0x0000e2c0:    f0210707    !...    BIC      r7,r1,#7
        0x0000e2c4:    687c        |h      LDR      r4,[r7,#4]
        0x0000e2c6:    f8571b08    W...    LDR      r1,[r7],#8
        0x0000e2ca:    e0a6        ..      B        0xe41a ; am_util_stdio_vsprintf + 666
        0x0000e2cc:    f1bb0f00    ....    CMP      r11,#0
        0x0000e2d0:    f00080c4    ....    BEQ.W    0xe45c ; am_util_stdio_vsprintf + 732
        0x0000e2d4:    4604        .F      MOV      r4,r0
        0x0000e2d6:    1df8        ..      ADDS     r0,r7,#7
        0x0000e2d8:    f0200807     ...    BIC      r8,r0,#7
        0x0000e2dc:    ed980b00    ....    VLDR     d0,[r8,#0]
        0x0000e2e0:    46e1        .F      MOV      r9,r12
        0x0000e2e2:    ec510b10    Q...    VMOV     r0,r1,d0
        0x0000e2e6:    f002fa41    ..A.    BL       __aeabi_d2f ; 0x1076c
        0x0000e2ea:    2114        .!      MOVS     r1,#0x14
        0x0000e2ec:    f8cb1000    ....    STR      r1,[r11,#0]
        0x0000e2f0:    f6426123    B.#a    MOV      r1,#0x2e23
        0x0000e2f4:    ee000a10    ....    VMOV     s0,r0
        0x0000e2f8:    f2c00123    ..#.    MOVT     r1,#0x23
        0x0000e2fc:    f1011e0d    ....    ADD      lr,r1,#0xd000d
        0x0000e300:    eeb50a40    ..@.    VCMP.F32 s0,#0.0
        0x0000e304:    f64f76fe    O..v    MOV      r6,#0xfffe
        0x0000e308:    46cc        .F      MOV      r12,r9
        0x0000e30a:    eef1fa10    ....    VMRS     APSR_nzcv,FPSCR
        0x0000e30e:    4671        qF      MOV      r1,lr
        0x0000e310:    f2c006ff    ....    MOVT     r6,#0xff
        0x0000e314:    f000829f    ....    BEQ.W    0xe856 ; am_util_stdio_vsprintf + 1750
        0x0000e318:    f3c052c7    ...R    UBFX     r2,r0,#23,#8
        0x0000e31c:    f6426123    B.#a    MOV      r1,#0x2e23
        0x0000e320:    2a9d        .*      CMP      r2,#0x9d
        0x0000e322:    f2c00123    ..#.    MOVT     r1,#0x23
        0x0000e326:    f2008296    ....    BHI.W    0xe856 ; am_util_stdio_vsprintf + 1750
        0x0000e32a:    2a68        h*      CMP      r2,#0x68
        0x0000e32c:    4671        qF      MOV      r1,lr
        0x0000e32e:    f0c08292    ....    BCC.W    0xe856 ; am_util_stdio_vsprintf + 1750
        0x0000e332:    4603        .F      MOV      r3,r0
        0x0000e334:    2101        .!      MOVS     r1,#1
        0x0000e336:    2a96        .*      CMP      r2,#0x96
        0x0000e338:    f36153df    a..S    BFI      r3,r1,#23,#9
        0x0000e33c:    f0c08209    ....    BCC.W    0xe752 ; am_util_stdio_vsprintf + 1490
        0x0000e340:    f1a20196    ....    SUB      r1,r2,#0x96
        0x0000e344:    fa03f101    ....    LSL      r1,r3,r1
        0x0000e348:    f04f0a00    O...    MOV      r10,#0
        0x0000e34c:    e212        ..      B        0xe774 ; am_util_stdio_vsprintf + 1524
        0x0000e34e:    f1bb0f00    ....    CMP      r11,#0
        0x0000e352:    bf14        ..      ITE      NE
        0x0000e354:    f80b6b01    ...k    STRBNE   r6,[r11],#1
        0x0000e358:    f04f0b00    O...    MOVEQ    r11,#0
        0x0000e35c:    f2411823    A.#.    MOV      r8,#0x1123
        0x0000e360:    9e04        ..      LDR      r6,[sp,#0x10]
        0x0000e362:    f10d0914    ....    ADD      r9,sp,#0x14
        0x0000e366:    f2c10800    ....    MOVT     r8,#0x1000
        0x0000e36a:    240d        .$      MOVS     r4,#0xd
        0x0000e36c:    e010        ..      B        0xe390 ; am_util_stdio_vsprintf + 528
        0x0000e36e:    f1bb0f00    ....    CMP      r11,#0
        0x0000e372:    bf1a        ..      ITTE     NE
        0x0000e374:    6838        8h      LDRNE    r0,[r7,#0]
        0x0000e376:    f80b0b01    ....    STRBNE   r0,[r11],#1
        0x0000e37a:    f04f0b00    O...    MOVEQ    r11,#0
        0x0000e37e:    f2411823    A.#.    MOV      r8,#0x1123
        0x0000e382:    9e04        ..      LDR      r6,[sp,#0x10]
        0x0000e384:    f10d0914    ....    ADD      r9,sp,#0x14
        0x0000e388:    f2c10800    ....    MOVT     r8,#0x1000
        0x0000e38c:    240d        .$      MOVS     r4,#0xd
        0x0000e38e:    3704        .7      ADDS     r7,#4
        0x0000e390:    3501        .5      ADDS     r5,#1
        0x0000e392:    e26f        o.      B        0xe874 ; am_util_stdio_vsprintf + 1780
        0x0000e394:    f8570b04    W...    LDR      r0,[r7],#4
        0x0000e398:    17c4        ..      ASRS     r4,r0,#31
        0x0000e39a:    eb1070e4    ...p    ADDS     r0,r0,r4,ASR #31
        0x0000e39e:    9e04        ..      LDR      r6,[sp,#0x10]
        0x0000e3a0:    ea807ee4    ...~    EOR      lr,r0,r4,ASR #31
        0x0000e3a4:    eb4470e4    D..p    ADC      r0,r4,r4,ASR #31
        0x0000e3a8:    f1b90f00    ....    CMP      r9,#0
        0x0000e3ac:    ea8071e4    ...q    EOR      r1,r0,r4,ASR #31
        0x0000e3b0:    e9cdc703    ....    STRD     r12,r7,[sp,#0xc]
        0x0000e3b4:    d046        F.      BEQ      0xe444 ; am_util_stdio_vsprintf + 708
        0x0000e3b6:    ea5e0001    ^...    ORRS     r0,lr,r1
        0x0000e3ba:    e9cd1e01    ....    STRD     r1,lr,[sp,#4]
        0x0000e3be:    d07b        {.      BEQ      0xe4b8 ; am_util_stdio_vsprintf + 824
        0x0000e3c0:    2700        .'      MOVS     r7,#0
        0x0000e3c2:    4670        pF      MOV      r0,lr
        0x0000e3c4:    f000faf8    ....    BL       divu64_10 ; 0xe9b8
        0x0000e3c8:    ea500201    P...    ORRS     r2,r0,r1
        0x0000e3cc:    f1070701    ....    ADD      r7,r7,#1
        0x0000e3d0:    d1f8        ..      BNE      0xe3c4 ; am_util_stdio_vsprintf + 580
        0x0000e3d2:    e072        r.      B        0xe4ba ; am_util_stdio_vsprintf + 826
        0x0000e3d4:    f8571b04    W...    LDR      r1,[r7],#4
        0x0000e3d8:    2900        .)      CMP      r1,#0
        0x0000e3da:    f0008109    ....    BEQ.W    0xe5f0 ; am_util_stdio_vsprintf + 1136
        0x0000e3de:    7808        .x      LDRB     r0,[r1,#0]
        0x0000e3e0:    9e04        ..      LDR      r6,[sp,#0x10]
        0x0000e3e2:    2800        .(      CMP      r0,#0
        0x0000e3e4:    f04f040d    O...    MOV      r4,#0xd
        0x0000e3e8:    46be        .F      MOV      lr,r7
        0x0000e3ea:    f000812b    ..+.    BEQ.W    0xe644 ; am_util_stdio_vsprintf + 1220
        0x0000e3ee:    1c4a        J.      ADDS     r2,r1,#1
        0x0000e3f0:    2300        .#      MOVS     r3,#0
        0x0000e3f2:    bf00        ..      NOP      
        0x0000e3f4:    5cd7        .\      LDRB     r7,[r2,r3]
        0x0000e3f6:    1c58        X.      ADDS     r0,r3,#1
        0x0000e3f8:    2f00        ./      CMP      r7,#0
        0x0000e3fa:    4603        .F      MOV      r3,r0
        0x0000e3fc:    d1fa        ..      BNE      0xe3f4 ; am_util_stdio_vsprintf + 628
        0x0000e3fe:    e122        ".      B        0xe646 ; am_util_stdio_vsprintf + 1222
        0x0000e400:    2a00        .*      CMP      r2,#0
        0x0000e402:    d03d        =.      BEQ      0xe480 ; am_util_stdio_vsprintf + 768
        0x0000e404:    1df8        ..      ADDS     r0,r7,#7
        0x0000e406:    f0200707     ...    BIC      r7,r0,#7
        0x0000e40a:    f8d7a004    ....    LDR      r10,[r7,#4]
        0x0000e40e:    f8574b08    W..K    LDR      r4,[r7],#8
        0x0000e412:    e039        9.      B        0xe488 ; am_util_stdio_vsprintf + 776
        0x0000e414:    f8571b04    W...    LDR      r1,[r7],#4
        0x0000e418:    2400        .$      MOVS     r4,#0
        0x0000e41a:    f1b90f00    ....    CMP      r9,#0
        0x0000e41e:    d027        '.      BEQ      0xe470 ; am_util_stdio_vsprintf + 752
        0x0000e420:    46ba        .F      MOV      r10,r7
        0x0000e422:    ea510204    Q...    ORRS     r2,r1,r4
        0x0000e426:    f000808d    ....    BEQ.W    0xe544 ; am_util_stdio_vsprintf + 964
        0x0000e42a:    2700        .'      MOVS     r7,#0
        0x0000e42c:    460b        .F      MOV      r3,r1
        0x0000e42e:    4622        "F      MOV      r2,r4
        0x0000e430:    091b        ..      LSRS     r3,r3,#4
        0x0000e432:    ea437302    C..s    ORR      r3,r3,r2,LSL #28
        0x0000e436:    ea431612    C...    ORR      r6,r3,r2,LSR #4
        0x0000e43a:    0912        ..      LSRS     r2,r2,#4
        0x0000e43c:    3701        .7      ADDS     r7,#1
        0x0000e43e:    2e00        ..      CMP      r6,#0
        0x0000e440:    d1f6        ..      BNE      0xe430 ; am_util_stdio_vsprintf + 688
        0x0000e442:    e080        ..      B        0xe546 ; am_util_stdio_vsprintf + 966
        0x0000e444:    f1b43fff    ...?    CMP      r4,#0xffffffff
        0x0000e448:    f34080de    @...    BLE.W    0xe608 ; am_util_stdio_vsprintf + 1160
        0x0000e44c:    f2411823    A.#.    MOV      r8,#0x1123
        0x0000e450:    465f        _F      MOV      r7,r11
        0x0000e452:    f10d0914    ....    ADD      r9,sp,#0x14
        0x0000e456:    f2c10800    ....    MOVT     r8,#0x1000
        0x0000e45a:    e071        q.      B        0xe540 ; am_util_stdio_vsprintf + 960
        0x0000e45c:    f2411823    A.#.    MOV      r8,#0x1123
        0x0000e460:    9e04        ..      LDR      r6,[sp,#0x10]
        0x0000e462:    f04f0b00    O...    MOV      r11,#0
        0x0000e466:    f10d0914    ....    ADD      r9,sp,#0x14
        0x0000e46a:    f2c10800    ....    MOVT     r8,#0x1000
        0x0000e46e:    e12e        ..      B        0xe6ce ; am_util_stdio_vsprintf + 1358
        0x0000e470:    f2411823    A.#.    MOV      r8,#0x1123
        0x0000e474:    a806        ..      ADD      r0,sp,#0x18
        0x0000e476:    f10d0914    ....    ADD      r9,sp,#0x14
        0x0000e47a:    f2c10800    ....    MOVT     r8,#0x1000
        0x0000e47e:    e081        ..      B        0xe584 ; am_util_stdio_vsprintf + 1028
        0x0000e480:    f8574b04    W..K    LDR      r4,[r7],#4
        0x0000e484:    f04f0a00    O...    MOV      r10,#0
        0x0000e488:    9e04        ..      LDR      r6,[sp,#0x10]
        0x0000e48a:    f1b90f00    ....    CMP      r9,#0
        0x0000e48e:    f8cdc00c    ....    STR      r12,[sp,#0xc]
        0x0000e492:    f00080b2    ....    BEQ.W    0xe5fa ; am_util_stdio_vsprintf + 1146
        0x0000e496:    ea54000a    T...    ORRS     r0,r4,r10
        0x0000e49a:    9704        ..      STR      r7,[sp,#0x10]
        0x0000e49c:    f00080e8    ....    BEQ.W    0xe670 ; am_util_stdio_vsprintf + 1264
        0x0000e4a0:    2700        .'      MOVS     r7,#0
        0x0000e4a2:    4620         F      MOV      r0,r4
        0x0000e4a4:    4651        QF      MOV      r1,r10
        0x0000e4a6:    bf00        ..      NOP      
        0x0000e4a8:    f000fa86    ....    BL       divu64_10 ; 0xe9b8
        0x0000e4ac:    ea500201    P...    ORRS     r2,r0,r1
        0x0000e4b0:    f1070701    ....    ADD      r7,r7,#1
        0x0000e4b4:    d1f8        ..      BNE      0xe4a8 ; am_util_stdio_vsprintf + 808
        0x0000e4b6:    e0dc        ..      B        0xe672 ; am_util_stdio_vsprintf + 1266
        0x0000e4b8:    2701        .'      MOVS     r7,#1
        0x0000e4ba:    f1b43fff    ...?    CMP      r4,#0xffffffff
        0x0000e4be:    eba90307    ....    SUB      r3,r9,r7
        0x0000e4c2:    dd02        ..      BLE      0xe4ca ; am_util_stdio_vsprintf + 842
        0x0000e4c4:    f10d0914    ....    ADD      r9,sp,#0x14
        0x0000e4c8:    e012        ..      B        0xe4f0 ; am_util_stdio_vsprintf + 880
        0x0000e4ca:    f1ba0f30    ..0.    CMP      r10,#0x30
        0x0000e4ce:    f1a30301    ....    SUB      r3,r3,#1
        0x0000e4d2:    f10d0914    ....    ADD      r9,sp,#0x14
        0x0000e4d6:    d10b        ..      BNE      0xe4f0 ; am_util_stdio_vsprintf + 880
        0x0000e4d8:    f1bb0f00    ....    CMP      r11,#0
        0x0000e4dc:    bf1a        ..      ITTE     NE
        0x0000e4de:    212d        -!      MOVNE    r1,#0x2d
        0x0000e4e0:    f80b1b01    ....    STRBNE   r1,[r11],#1
        0x0000e4e4:    f04f0b00    O...    MOVEQ    r11,#0
        0x0000e4e8:    e9dd1e01    ....    LDRD     r1,lr,[sp,#4]
        0x0000e4ec:    3501        .5      ADDS     r5,#1
        0x0000e4ee:    e001        ..      B        0xe4f4 ; am_util_stdio_vsprintf + 884
        0x0000e4f0:    e9dd1e01    ....    LDRD     r1,lr,[sp,#4]
        0x0000e4f4:    2b01        .+      CMP      r3,#1
        0x0000e4f6:    db09        ..      BLT      0xe50c ; am_util_stdio_vsprintf + 908
        0x0000e4f8:    4618        .F      MOV      r0,r3
        0x0000e4fa:    465a        ZF      MOV      r2,r11
        0x0000e4fc:    2a00        .*      CMP      r2,#0
        0x0000e4fe:    bf14        ..      ITE      NE
        0x0000e500:    f8028b01    ....    STRBNE   r8,[r2],#1
        0x0000e504:    2200        ."      MOVEQ    r2,#0
        0x0000e506:    3801        .8      SUBS     r0,#1
        0x0000e508:    d1f8        ..      BNE      0xe4fc ; am_util_stdio_vsprintf + 892
        0x0000e50a:    e000        ..      B        0xe50e ; am_util_stdio_vsprintf + 910
        0x0000e50c:    2300        .#      MOVS     r3,#0
        0x0000e50e:    f1bb0f00    ....    CMP      r11,#0
        0x0000e512:    465f        _F      MOV      r7,r11
        0x0000e514:    f2411823    A.#.    MOV      r8,#0x1123
        0x0000e518:    bf18        ..      IT       NE
        0x0000e51a:    441f        .D      ADDNE    r7,r3
        0x0000e51c:    f1ba0f30    ..0.    CMP      r10,#0x30
        0x0000e520:    441d        .D      ADD      r5,r5,r3
        0x0000e522:    f2c10800    ....    MOVT     r8,#0x1000
        0x0000e526:    d00b        ..      BEQ      0xe540 ; am_util_stdio_vsprintf + 960
        0x0000e528:    f1b43fff    ...?    CMP      r4,#0xffffffff
        0x0000e52c:    dc08        ..      BGT      0xe540 ; am_util_stdio_vsprintf + 960
        0x0000e52e:    f1bb0f00    ....    CMP      r11,#0
        0x0000e532:    f04f040d    O...    MOV      r4,#0xd
        0x0000e536:    d077        w.      BEQ      0xe628 ; am_util_stdio_vsprintf + 1192
        0x0000e538:    202d        -       MOVS     r0,#0x2d
        0x0000e53a:    f8070b01    ....    STRB     r0,[r7],#1
        0x0000e53e:    e074        t.      B        0xe62a ; am_util_stdio_vsprintf + 1194
        0x0000e540:    240d        .$      MOVS     r4,#0xd
        0x0000e542:    e073        s.      B        0xe62c ; am_util_stdio_vsprintf + 1196
        0x0000e544:    2701        .'      MOVS     r7,#1
        0x0000e546:    eba90307    ....    SUB      r3,r9,r7
        0x0000e54a:    2b01        .+      CMP      r3,#1
        0x0000e54c:    db0c        ..      BLT      0xe568 ; am_util_stdio_vsprintf + 1000
        0x0000e54e:    eba70709    ....    SUB      r7,r7,r9
        0x0000e552:    465e        ^F      MOV      r6,r11
        0x0000e554:    f10d0914    ....    ADD      r9,sp,#0x14
        0x0000e558:    2e00        ..      CMP      r6,#0
        0x0000e55a:    bf14        ..      ITE      NE
        0x0000e55c:    f8068b01    ....    STRBNE   r8,[r6],#1
        0x0000e560:    2600        .&      MOVEQ    r6,#0
        0x0000e562:    3701        .7      ADDS     r7,#1
        0x0000e564:    d3f8        ..      BCC      0xe558 ; am_util_stdio_vsprintf + 984
        0x0000e566:    e002        ..      B        0xe56e ; am_util_stdio_vsprintf + 1006
        0x0000e568:    2300        .#      MOVS     r3,#0
        0x0000e56a:    f10d0914    ....    ADD      r9,sp,#0x14
        0x0000e56e:    f2411823    A.#.    MOV      r8,#0x1123
        0x0000e572:    441d        .D      ADD      r5,r5,r3
        0x0000e574:    a806        ..      ADD      r0,sp,#0x18
        0x0000e576:    f2c10800    ....    MOVT     r8,#0x1000
        0x0000e57a:    4657        WF      MOV      r7,r10
        0x0000e57c:    f1bb0f00    ....    CMP      r11,#0
        0x0000e580:    bf18        ..      IT       NE
        0x0000e582:    449b        .D      ADDNE    r11,r11,r3
        0x0000e584:    46ba        .F      MOV      r10,r7
        0x0000e586:    ea510204    Q...    ORRS     r2,r1,r4
        0x0000e58a:    d015        ..      BEQ      0xe5b8 ; am_util_stdio_vsprintf + 1080
        0x0000e58c:    2300        .#      MOVS     r3,#0
        0x0000e58e:    bf00        ..      NOP      
        0x0000e590:    f001020f    ....    AND      r2,r1,#0xf
        0x0000e594:    0909        ..      LSRS     r1,r1,#4
        0x0000e596:    ea417104    A..q    ORR      r1,r1,r4,LSL #28
        0x0000e59a:    f1020630    ..0.    ADD      r6,r2,#0x30
        0x0000e59e:    2a09        .*      CMP      r2,#9
        0x0000e5a0:    f1030701    ....    ADD      r7,r3,#1
        0x0000e5a4:    ea411214    A...    ORR      r2,r1,r4,LSR #4
        0x0000e5a8:    bf88        ..      IT       HI
        0x0000e5aa:    4466        fD      ADDHI    r6,r6,r12
        0x0000e5ac:    54c6        .T      STRB     r6,[r0,r3]
        0x0000e5ae:    0924        $.      LSRS     r4,r4,#4
        0x0000e5b0:    2a00        .*      CMP      r2,#0
        0x0000e5b2:    463b        ;F      MOV      r3,r7
        0x0000e5b4:    d1ec        ..      BNE      0xe590 ; am_util_stdio_vsprintf + 1040
        0x0000e5b6:    e003        ..      B        0xe5c0 ; am_util_stdio_vsprintf + 1088
        0x0000e5b8:    2030        0       MOVS     r0,#0x30
        0x0000e5ba:    f88d0018    ....    STRB     r0,[sp,#0x18]
        0x0000e5be:    2701        .'      MOVS     r7,#1
        0x0000e5c0:    f8ddc00c    ....    LDR      r12,[sp,#0xc]
        0x0000e5c4:    f1bb0f00    ....    CMP      r11,#0
        0x0000e5c8:    4676        vF      MOV      r6,lr
        0x0000e5ca:    f04f040d    O...    MOV      r4,#0xd
        0x0000e5ce:    d008        ..      BEQ      0xe5e2 ; am_util_stdio_vsprintf + 1122
        0x0000e5d0:    4639        9F      MOV      r1,r7
        0x0000e5d2:    4658        XF      MOV      r0,r11
        0x0000e5d4:    5c72        r\      LDRB     r2,[r6,r1]
        0x0000e5d6:    3901        .9      SUBS     r1,#1
        0x0000e5d8:    f8002b01    ...+    STRB     r2,[r0],#1
        0x0000e5dc:    d1fa        ..      BNE      0xe5d4 ; am_util_stdio_vsprintf + 1108
        0x0000e5de:    2100        .!      MOVS     r1,#0
        0x0000e5e0:    7001        .p      STRB     r1,[r0,#0]
        0x0000e5e2:    f1bb0f00    ....    CMP      r11,#0
        0x0000e5e6:    bf18        ..      IT       NE
        0x0000e5e8:    44bb        .D      ADDNE    r11,r11,r7
        0x0000e5ea:    443d        =D      ADD      r5,r5,r7
        0x0000e5ec:    4657        WF      MOV      r7,r10
        0x0000e5ee:    e141        A.      B        0xe874 ; am_util_stdio_vsprintf + 1780
        0x0000e5f0:    9e04        ..      LDR      r6,[sp,#0x10]
        0x0000e5f2:    46be        .F      MOV      lr,r7
        0x0000e5f4:    2000        .       MOVS     r0,#0
        0x0000e5f6:    240d        .$      MOVS     r4,#0xd
        0x0000e5f8:    e025        %.      B        0xe646 ; am_util_stdio_vsprintf + 1222
        0x0000e5fa:    f2411823    A.#.    MOV      r8,#0x1123
        0x0000e5fe:    f10d0914    ....    ADD      r9,sp,#0x14
        0x0000e602:    f2c10800    ....    MOVT     r8,#0x1000
        0x0000e606:    e056        V.      B        0xe6b6 ; am_util_stdio_vsprintf + 1334
        0x0000e608:    f2411823    A.#.    MOV      r8,#0x1123
        0x0000e60c:    f1bb0f00    ....    CMP      r11,#0
        0x0000e610:    f10d0914    ....    ADD      r9,sp,#0x14
        0x0000e614:    f2c10800    ....    MOVT     r8,#0x1000
        0x0000e618:    f04f040d    O...    MOV      r4,#0xd
        0x0000e61c:    d004        ..      BEQ      0xe628 ; am_util_stdio_vsprintf + 1192
        0x0000e61e:    202d        -       MOVS     r0,#0x2d
        0x0000e620:    f80b0b01    ....    STRB     r0,[r11],#1
        0x0000e624:    465f        _F      MOV      r7,r11
        0x0000e626:    e000        ..      B        0xe62a ; am_util_stdio_vsprintf + 1194
        0x0000e628:    2700        .'      MOVS     r7,#0
        0x0000e62a:    3501        .5      ADDS     r5,#1
        0x0000e62c:    4670        pF      MOV      r0,lr
        0x0000e62e:    463a        :F      MOV      r2,r7
        0x0000e630:    f000fe84    ....    BL       uint64_to_str ; 0xf33c
        0x0000e634:    2f00        ./      CMP      r7,#0
        0x0000e636:    bf18        ..      IT       NE
        0x0000e638:    4407        .D      ADDNE    r7,r0
        0x0000e63a:    46bb        .F      MOV      r11,r7
        0x0000e63c:    e9ddc703    ....    LDRD     r12,r7,[sp,#0xc]
        0x0000e640:    4405        .D      ADD      r5,r5,r0
        0x0000e642:    e117        ..      B        0xe874 ; am_util_stdio_vsprintf + 1780
        0x0000e644:    2000        .       MOVS     r0,#0
        0x0000e646:    f1b90f01    ....    CMP      r9,#1
        0x0000e64a:    db4a        J.      BLT      0xe6e2 ; am_util_stdio_vsprintf + 1378
        0x0000e64c:    4581        .E      CMP      r9,r0
        0x0000e64e:    d948        H.      BLS      0xe6e2 ; am_util_stdio_vsprintf + 1378
        0x0000e650:    eba90200    ....    SUB      r2,r9,r0
        0x0000e654:    2a01        .*      CMP      r2,#1
        0x0000e656:    db3c        <.      BLT      0xe6d2 ; am_util_stdio_vsprintf + 1362
        0x0000e658:    eba00309    ....    SUB      r3,r0,r9
        0x0000e65c:    465f        _F      MOV      r7,r11
        0x0000e65e:    bf00        ..      NOP      
        0x0000e660:    2f00        ./      CMP      r7,#0
        0x0000e662:    bf14        ..      ITE      NE
        0x0000e664:    f8078b01    ....    STRBNE   r8,[r7],#1
        0x0000e668:    2700        .'      MOVEQ    r7,#0
        0x0000e66a:    3301        .3      ADDS     r3,#1
        0x0000e66c:    d3f8        ..      BCC      0xe660 ; am_util_stdio_vsprintf + 1248
        0x0000e66e:    e031        1.      B        0xe6d4 ; am_util_stdio_vsprintf + 1364
        0x0000e670:    2701        .'      MOVS     r7,#1
        0x0000e672:    eba90007    ....    SUB      r0,r9,r7
        0x0000e676:    2801        .(      CMP      r0,#1
        0x0000e678:    db10        ..      BLT      0xe69c ; am_util_stdio_vsprintf + 1308
        0x0000e67a:    eba70109    ....    SUB      r1,r7,r9
        0x0000e67e:    9f04        ..      LDR      r7,[sp,#0x10]
        0x0000e680:    465a        ZF      MOV      r2,r11
        0x0000e682:    f10d0914    ....    ADD      r9,sp,#0x14
        0x0000e686:    bf00        ..      NOP      
        0x0000e688:    2a00        .*      CMP      r2,#0
        0x0000e68a:    bf14        ..      ITE      NE
        0x0000e68c:    f8028b01    ....    STRBNE   r8,[r2],#1
        0x0000e690:    2200        ."      MOVEQ    r2,#0
        0x0000e692:    3101        .1      ADDS     r1,#1
        0x0000e694:    d3f8        ..      BCC      0xe688 ; am_util_stdio_vsprintf + 1288
        0x0000e696:    f2411823    A.#.    MOV      r8,#0x1123
        0x0000e69a:    e005        ..      B        0xe6a8 ; am_util_stdio_vsprintf + 1320
        0x0000e69c:    f2411823    A.#.    MOV      r8,#0x1123
        0x0000e6a0:    9f04        ..      LDR      r7,[sp,#0x10]
        0x0000e6a2:    2000        .       MOVS     r0,#0
        0x0000e6a4:    f10d0914    ....    ADD      r9,sp,#0x14
        0x0000e6a8:    f2c10800    ....    MOVT     r8,#0x1000
        0x0000e6ac:    4405        .D      ADD      r5,r5,r0
        0x0000e6ae:    f1bb0f00    ....    CMP      r11,#0
        0x0000e6b2:    bf18        ..      IT       NE
        0x0000e6b4:    4483        .D      ADDNE    r11,r11,r0
        0x0000e6b6:    4620         F      MOV      r0,r4
        0x0000e6b8:    4651        QF      MOV      r1,r10
        0x0000e6ba:    465a        ZF      MOV      r2,r11
        0x0000e6bc:    f000fe3e    ..>.    BL       uint64_to_str ; 0xf33c
        0x0000e6c0:    f1bb0f00    ....    CMP      r11,#0
        0x0000e6c4:    bf18        ..      IT       NE
        0x0000e6c6:    4483        .D      ADDNE    r11,r11,r0
        0x0000e6c8:    f8ddc00c    ....    LDR      r12,[sp,#0xc]
        0x0000e6cc:    4405        .D      ADD      r5,r5,r0
        0x0000e6ce:    240d        .$      MOVS     r4,#0xd
        0x0000e6d0:    e0d0        ..      B        0xe874 ; am_util_stdio_vsprintf + 1780
        0x0000e6d2:    2200        ."      MOVS     r2,#0
        0x0000e6d4:    4415        .D      ADD      r5,r5,r2
        0x0000e6d6:    f04f0900    O...    MOV      r9,#0
        0x0000e6da:    f1bb0f00    ....    CMP      r11,#0
        0x0000e6de:    bf18        ..      IT       NE
        0x0000e6e0:    4493        .D      ADDNE    r11,r11,r2
        0x0000e6e2:    780a        .x      LDRB     r2,[r1,#0]
        0x0000e6e4:    b17a        z.      CBZ      r2,0xe706 ; am_util_stdio_vsprintf + 1414
        0x0000e6e6:    3101        .1      ADDS     r1,#1
        0x0000e6e8:    4677        wF      MOV      r7,lr
        0x0000e6ea:    bf00        ..      NOP      
        0x0000e6ec:    f1bb0f00    ....    CMP      r11,#0
        0x0000e6f0:    bf14        ..      ITE      NE
        0x0000e6f2:    f80b2b01    ...+    STRBNE   r2,[r11],#1
        0x0000e6f6:    f04f0b00    O...    MOVEQ    r11,#0
        0x0000e6fa:    f8112b01    ...+    LDRB     r2,[r1],#1
        0x0000e6fe:    3501        .5      ADDS     r5,#1
        0x0000e700:    2a00        .*      CMP      r2,#0
        0x0000e702:    d1f3        ..      BNE      0xe6ec ; am_util_stdio_vsprintf + 1388
        0x0000e704:    e000        ..      B        0xe708 ; am_util_stdio_vsprintf + 1416
        0x0000e706:    4677        wF      MOV      r7,lr
        0x0000e708:    f1b90f00    ....    CMP      r9,#0
        0x0000e70c:    f00080ac    ....    BEQ.W    0xe868 ; am_util_stdio_vsprintf + 1768
        0x0000e710:    f1c90100    ....    RSB      r1,r9,#0
        0x0000e714:    4288        .B      CMP      r0,r1
        0x0000e716:    f08080a7    ....    BCS.W    0xe868 ; am_util_stdio_vsprintf + 1768
        0x0000e71a:    1a09        ..      SUBS     r1,r1,r0
        0x0000e71c:    2901        .)      CMP      r1,#1
        0x0000e71e:    db0b        ..      BLT      0xe738 ; am_util_stdio_vsprintf + 1464
        0x0000e720:    4448        HD      ADD      r0,r0,r9
        0x0000e722:    465a        ZF      MOV      r2,r11
        0x0000e724:    f10d0914    ....    ADD      r9,sp,#0x14
        0x0000e728:    2a00        .*      CMP      r2,#0
        0x0000e72a:    bf14        ..      ITE      NE
        0x0000e72c:    f8028b01    ....    STRBNE   r8,[r2],#1
        0x0000e730:    2200        ."      MOVEQ    r2,#0
        0x0000e732:    3001        .0      ADDS     r0,#1
        0x0000e734:    d3f8        ..      BCC      0xe728 ; am_util_stdio_vsprintf + 1448
        0x0000e736:    e002        ..      B        0xe73e ; am_util_stdio_vsprintf + 1470
        0x0000e738:    2100        .!      MOVS     r1,#0
        0x0000e73a:    f10d0914    ....    ADD      r9,sp,#0x14
        0x0000e73e:    f2411823    A.#.    MOV      r8,#0x1123
        0x0000e742:    f2c10800    ....    MOVT     r8,#0x1000
        0x0000e746:    f1bb0f00    ....    CMP      r11,#0
        0x0000e74a:    bf18        ..      IT       NE
        0x0000e74c:    448b        .D      ADDNE    r11,r11,r1
        0x0000e74e:    440d        .D      ADD      r5,r5,r1
        0x0000e750:    e090        ..      B        0xe874 ; am_util_stdio_vsprintf + 1780
        0x0000e752:    2a7f        .*      CMP      r2,#0x7f
        0x0000e754:    d309        ..      BCC      0xe76a ; am_util_stdio_vsprintf + 1514
        0x0000e756:    f1c20196    ....    RSB      r1,r2,#0x96
        0x0000e75a:    3a7e        ~:      SUBS     r2,r2,#0x7e
        0x0000e75c:    fa03f202    ....    LSL      r2,r3,r2
        0x0000e760:    fa23f101    #...    LSR      r1,r3,r1
        0x0000e764:    f0224a7f    "..J    BIC      r10,r2,#0xff000000
        0x0000e768:    e004        ..      B        0xe774 ; am_util_stdio_vsprintf + 1524
        0x0000e76a:    f1c2017e    ..~.    RSB      r1,r2,#0x7e
        0x0000e76e:    fa23fa01    #...    LSR      r10,r3,r1
        0x0000e772:    2100        .!      MOVS     r1,#0
        0x0000e774:    f1b03fff    ...?    CMP      r0,#0xffffffff
        0x0000e778:    465f        _F      MOV      r7,r11
        0x0000e77a:    dc03        ..      BGT      0xe784 ; am_util_stdio_vsprintf + 1540
        0x0000e77c:    465f        _F      MOV      r7,r11
        0x0000e77e:    202d        -       MOVS     r0,#0x2d
        0x0000e780:    f8070b01    ....    STRB     r0,[r7],#1
        0x0000e784:    b131        1.      CBZ      r1,0xe794 ; am_util_stdio_vsprintf + 1556
        0x0000e786:    2901        .)      CMP      r1,#1
        0x0000e788:    f8cde008    ....    STR      lr,[sp,#8]
        0x0000e78c:    db06        ..      BLT      0xe79c ; am_util_stdio_vsprintf + 1564
        0x0000e78e:    4608        .F      MOV      r0,r1
        0x0000e790:    2100        .!      MOVS     r1,#0
        0x0000e792:    e008        ..      B        0xe7a6 ; am_util_stdio_vsprintf + 1574
        0x0000e794:    2130        0!      MOVS     r1,#0x30
        0x0000e796:    f8071b01    ....    STRB     r1,[r7],#1
        0x0000e79a:    e011        ..      B        0xe7c0 ; am_util_stdio_vsprintf + 1600
        0x0000e79c:    202d        -       MOVS     r0,#0x2d
        0x0000e79e:    f8070b01    ....    STRB     r0,[r7],#1
        0x0000e7a2:    4248        HB      RSBS     r0,r1,#0
        0x0000e7a4:    17c1        ..      ASRS     r1,r0,#31
        0x0000e7a6:    463a        :F      MOV      r2,r7
        0x0000e7a8:    f000fdc8    ....    BL       uint64_to_str ; 0xf33c
        0x0000e7ac:    f8dde008    ....    LDR      lr,[sp,#8]
        0x0000e7b0:    46cc        .F      MOV      r12,r9
        0x0000e7b2:    2130        0!      MOVS     r1,#0x30
        0x0000e7b4:    3f01        .?      SUBS     r7,#1
        0x0000e7b6:    bf00        ..      NOP      
        0x0000e7b8:    f8170f01    ....    LDRB     r0,[r7,#1]!
        0x0000e7bc:    2800        .(      CMP      r0,#0
        0x0000e7be:    d1fb        ..      BNE      0xe7b8 ; am_util_stdio_vsprintf + 1592
        0x0000e7c0:    4638        8F      MOV      r0,r7
        0x0000e7c2:    222e        ."      MOVS     r2,#0x2e
        0x0000e7c4:    f1ba0f00    ....    CMP      r10,#0
        0x0000e7c8:    f8002b01    ...+    STRB     r2,[r0],#1
        0x0000e7cc:    d014        ..      BEQ      0xe7f8 ; am_util_stdio_vsprintf + 1656
        0x0000e7ce:    ebab0100    ....    SUB      r1,r11,r0
        0x0000e7d2:    3113        .1      ADDS     r1,r1,#0x13
        0x0000e7d4:    42a1        .B      CMP      r1,r4
        0x0000e7d6:    bfc8        ..      IT       GT
        0x0000e7d8:    4621        !F      MOVGT    r1,r4
        0x0000e7da:    2901        .)      CMP      r1,#1
        0x0000e7dc:    db10        ..      BLT      0xe800 ; am_util_stdio_vsprintf + 1664
        0x0000e7de:    2730        0'      MOVS     r7,#0x30
        0x0000e7e0:    240d        .$      MOVS     r4,#0xd
        0x0000e7e2:    eb0a028a    ....    ADD      r2,r10,r10,LSL #2
        0x0000e7e6:    eb0753d2    ...S    ADD      r3,r7,r2,LSR #23
        0x0000e7ea:    f8003b01    ...;    STRB     r3,[r0],#1
        0x0000e7ee:    3901        .9      SUBS     r1,#1
        0x0000e7f0:    ea060a42    ..B.    AND      r10,r6,r2,LSL #1
        0x0000e7f4:    d1f5        ..      BNE      0xe7e2 ; am_util_stdio_vsprintf + 1634
        0x0000e7f6:    e004        ..      B        0xe802 ; am_util_stdio_vsprintf + 1666
        0x0000e7f8:    1cb8        ..      ADDS     r0,r7,#2
        0x0000e7fa:    7079        yp      STRB     r1,[r7,#1]
        0x0000e7fc:    240d        .$      MOVS     r4,#0xd
        0x0000e7fe:    e015        ..      B        0xe82c ; am_util_stdio_vsprintf + 1708
        0x0000e800:    240d        .$      MOVS     r4,#0xd
        0x0000e802:    1e41        A.      SUBS     r1,r0,#1
        0x0000e804:    4559        YE      CMP      r1,r11
        0x0000e806:    d311        ..      BCC      0xe82c ; am_util_stdio_vsprintf + 1708
        0x0000e808:    eb0a028a    ....    ADD      r2,r10,r10,LSL #2
        0x0000e80c:    0052        R.      LSLS     r2,r2,#1
        0x0000e80e:    f1b26fa0    ...o    CMP      r2,#0x5000000
        0x0000e812:    db0b        ..      BLT      0xe82c ; am_util_stdio_vsprintf + 1708
        0x0000e814:    9e04        ..      LDR      r6,[sp,#0x10]
        0x0000e816:    780a        .x      LDRB     r2,[r1,#0]
        0x0000e818:    2a2e        .*      CMP      r2,#0x2e
        0x0000e81a:    d003        ..      BEQ      0xe824 ; am_util_stdio_vsprintf + 1700
        0x0000e81c:    2a39        9*      CMP      r2,#0x39
        0x0000e81e:    d12c        ,.      BNE      0xe87a ; am_util_stdio_vsprintf + 1786
        0x0000e820:    2230        0"      MOVS     r2,#0x30
        0x0000e822:    700a        .p      STRB     r2,[r1,#0]
        0x0000e824:    3901        .9      SUBS     r1,#1
        0x0000e826:    4559        YE      CMP      r1,r11
        0x0000e828:    d2f5        ..      BCS      0xe816 ; am_util_stdio_vsprintf + 1686
        0x0000e82a:    e000        ..      B        0xe82e ; am_util_stdio_vsprintf + 1710
        0x0000e82c:    9e04        ..      LDR      r6,[sp,#0x10]
        0x0000e82e:    eba0010b    ....    SUB      r1,r0,r11
        0x0000e832:    f1b13fff    ...?    CMP      r1,#0xffffffff
        0x0000e836:    f04f0200    O...    MOV      r2,#0
        0x0000e83a:    7002        .p      STRB     r2,[r0,#0]
        0x0000e83c:    dc10        ..      BGT      0xe860 ; am_util_stdio_vsprintf + 1760
        0x0000e83e:    f6426223    B.#b    MOV      r2,#0x2e23
        0x0000e842:    1c48        H.      ADDS     r0,r1,#1
        0x0000e844:    f2c00223    ..#.    MOVT     r2,#0x23
        0x0000e848:    bf18        ..      IT       NE
        0x0000e84a:    f1021e1c    ....    ADDNE    lr,r2,#0x1c001c
        0x0000e84e:    1c88        ..      ADDS     r0,r1,#2
        0x0000e850:    bf08        ..      IT       EQ
        0x0000e852:    4696        .F      MOVEQ    lr,r2
        0x0000e854:    4671        qF      MOV      r1,lr
        0x0000e856:    9e04        ..      LDR      r6,[sp,#0x10]
        0x0000e858:    f8cb1000    ....    STR      r1,[r11,#0]
        0x0000e85c:    2103        .!      MOVS     r1,#3
        0x0000e85e:    240d        .$      MOVS     r4,#0xd
        0x0000e860:    f1080708    ....    ADD      r7,r8,#8
        0x0000e864:    440d        .D      ADD      r5,r5,r1
        0x0000e866:    448b        .D      ADD      r11,r11,r1
        0x0000e868:    f2411823    A.#.    MOV      r8,#0x1123
        0x0000e86c:    f10d0914    ....    ADD      r9,sp,#0x14
        0x0000e870:    f2c10800    ....    MOVT     r8,#0x1000
        0x0000e874:    f10c0101    ....    ADD      r1,r12,#1
        0x0000e878:    e491        ..      B        0xe19e ; am_util_stdio_vsprintf + 30
        0x0000e87a:    3201        .2      ADDS     r2,#1
        0x0000e87c:    700a        .p      STRB     r2,[r1,#0]
        0x0000e87e:    e7d6        ..      B        0xe82e ; am_util_stdio_vsprintf + 1710
        0x0000e880:    f1bb0f00    ....    CMP      r11,#0
        0x0000e884:    bf1c        ..      ITT      NE
        0x0000e886:    2000        .       MOVNE    r0,#0
        0x0000e888:    f88b0000    ....    STRBNE   r0,[r11,#0]
        0x0000e88c:    4628        (F      MOV      r0,r5
        0x0000e88e:    b00b        ..      ADD      sp,sp,#0x2c
        0x0000e890:    e8bd8ff0    ....    POP      {r4-r11,pc}
    button0_handler
        0x0000e894:    b5b0        ..      PUSH     {r4,r5,r7,lr}
        0x0000e896:    b082        ..      SUB      sp,sp,#8
        0x0000e898:    250a        .%      MOVS     r5,#0xa
        0x0000e89a:    ac01        ..      ADD      r4,sp,#4
        0x0000e89c:    2010        .       MOVS     r0,#0x10
        0x0000e89e:    2100        .!      MOVS     r1,#0
        0x0000e8a0:    4622        "F      MOV      r2,r4
        0x0000e8a2:    f7fefd6c    ..l.    BL       am_hal_gpio_state_read ; 0xd37e
        0x0000e8a6:    9801        ..      LDR      r0,[sp,#4]
        0x0000e8a8:    b138        8.      CBZ      r0,0xe8ba ; button0_handler + 38
        0x0000e8aa:    2002        .       MOVS     r0,#2
        0x0000e8ac:    f7fffabd    ....    BL       am_util_delay_ms ; 0xde2a
        0x0000e8b0:    3d01        .=      SUBS     r5,#1
        0x0000e8b2:    d1f3        ..      BNE      0xe89c ; button0_handler + 8
        0x0000e8b4:    2000        .       MOVS     r0,#0
        0x0000e8b6:    f000f82e    ....    BL       button_handler ; 0xe916
        0x0000e8ba:    b002        ..      ADD      sp,sp,#8
        0x0000e8bc:    bdb0        ..      POP      {r4,r5,r7,pc}
        0x0000e8be:    0000        ..      MOVS     r0,r0
    button1_handler
        0x0000e8c0:    b5b0        ..      PUSH     {r4,r5,r7,lr}
        0x0000e8c2:    b082        ..      SUB      sp,sp,#8
        0x0000e8c4:    250a        .%      MOVS     r5,#0xa
        0x0000e8c6:    ac01        ..      ADD      r4,sp,#4
        0x0000e8c8:    2012        .       MOVS     r0,#0x12
        0x0000e8ca:    2100        .!      MOVS     r1,#0
        0x0000e8cc:    4622        "F      MOV      r2,r4
        0x0000e8ce:    f7fefd56    ..V.    BL       am_hal_gpio_state_read ; 0xd37e
        0x0000e8d2:    9801        ..      LDR      r0,[sp,#4]
        0x0000e8d4:    b138        8.      CBZ      r0,0xe8e6 ; button1_handler + 38
        0x0000e8d6:    2002        .       MOVS     r0,#2
        0x0000e8d8:    f7fffaa7    ....    BL       am_util_delay_ms ; 0xde2a
        0x0000e8dc:    3d01        .=      SUBS     r5,#1
        0x0000e8de:    d1f3        ..      BNE      0xe8c8 ; button1_handler + 8
        0x0000e8e0:    2001        .       MOVS     r0,#1
        0x0000e8e2:    f000f818    ....    BL       button_handler ; 0xe916
        0x0000e8e6:    b002        ..      ADD      sp,sp,#8
        0x0000e8e8:    bdb0        ..      POP      {r4,r5,r7,pc}
        0x0000e8ea:    0000        ..      MOVS     r0,r0
    button2_handler
        0x0000e8ec:    b5b0        ..      PUSH     {r4,r5,r7,lr}
        0x0000e8ee:    b082        ..      SUB      sp,sp,#8
        0x0000e8f0:    250a        .%      MOVS     r5,#0xa
        0x0000e8f2:    ac01        ..      ADD      r4,sp,#4
        0x0000e8f4:    2013        .       MOVS     r0,#0x13
        0x0000e8f6:    2100        .!      MOVS     r1,#0
        0x0000e8f8:    4622        "F      MOV      r2,r4
        0x0000e8fa:    f7fefd40    ..@.    BL       am_hal_gpio_state_read ; 0xd37e
        0x0000e8fe:    9801        ..      LDR      r0,[sp,#4]
        0x0000e900:    b138        8.      CBZ      r0,0xe912 ; button2_handler + 38
        0x0000e902:    2002        .       MOVS     r0,#2
        0x0000e904:    f7fffa91    ....    BL       am_util_delay_ms ; 0xde2a
        0x0000e908:    3d01        .=      SUBS     r5,#1
        0x0000e90a:    d1f3        ..      BNE      0xe8f4 ; button2_handler + 8
        0x0000e90c:    2002        .       MOVS     r0,#2
        0x0000e90e:    f000f802    ....    BL       button_handler ; 0xe916
        0x0000e912:    b002        ..      ADD      sp,sp,#8
        0x0000e914:    bdb0        ..      POP      {r4,r5,r7,pc}
    button_handler
        0x0000e916:    b580        ..      PUSH     {r7,lr}
        0x0000e918:    b082        ..      SUB      sp,sp,#8
        0x0000e91a:    2100        .!      MOVS     r1,#0
        0x0000e91c:    9101        ..      STR      r1,[sp,#4]
        0x0000e91e:    f6450170    E.p.    MOV      r1,#0x5870
        0x0000e922:    f2c10100    ....    MOVT     r1,#0x1000
        0x0000e926:    2201        ."      MOVS     r2,#1
        0x0000e928:    6809        .h      LDR      r1,[r1,#0]
        0x0000e92a:    4082        .@      LSLS     r2,r2,r0
        0x0000e92c:    f24f30d9    O..0    MOV      r0,#0xf3d9
        0x0000e930:    f2c00000    ....    MOVT     r0,#0
        0x0000e934:    ab01        ..      ADD      r3,sp,#4
        0x0000e936:    f001ff03    ....    BL       xTimerPendFunctionCallFromISR ; 0x10740
        0x0000e93a:    b160        `.      CBZ      r0,0xe956 ; button_handler + 64
        0x0000e93c:    9801        ..      LDR      r0,[sp,#4]
        0x0000e93e:    b150        P.      CBZ      r0,0xe956 ; button_handler + 64
        0x0000e940:    f64e5004    N..P    MOV      r0,#0xed04
        0x0000e944:    f2ce0000    ....    MOVT     r0,#0xe000
        0x0000e948:    f04f5180    O..Q    MOV      r1,#0x10000000
        0x0000e94c:    6001        .`      STR      r1,[r0,#0]
        0x0000e94e:    f3bf8f4f    ..O.    DSB      
        0x0000e952:    f3bf8f6f    ..o.    ISB      
        0x0000e956:    b002        ..      ADD      sp,sp,#8
        0x0000e958:    bd80        ..      POP      {r7,pc}
        0x0000e95a:    0000        ..      MOVS     r0,r0
    decstr_to_int
        0x0000e95c:    b510        ..      PUSH     {r4,lr}
        0x0000e95e:    4603        .F      MOV      r3,r0
        0x0000e960:    f813cb01    ....    LDRB     r12,[r3],#1
        0x0000e964:    f1bc0e2d    ..-.    SUBS     lr,r12,#0x2d
        0x0000e968:    bf18        ..      IT       NE
        0x0000e96a:    4603        .F      MOVNE    r3,r0
        0x0000e96c:    781a        .x      LDRB     r2,[r3,#0]
        0x0000e96e:    fabefe8e    ....    CLZ      lr,lr
        0x0000e972:    f1a20030    ..0.    SUB      r0,r2,#0x30
        0x0000e976:    2809        .(      CMP      r0,#9
        0x0000e978:    ea4f1e5e    O.^.    LSR      lr,lr,#5
        0x0000e97c:    d811        ..      BHI      0xe9a2 ; decstr_to_int + 70
        0x0000e97e:    3301        .3      ADDS     r3,#1
        0x0000e980:    2000        .       MOVS     r0,#0
        0x0000e982:    bf00        ..      NOP      
        0x0000e984:    eb000080    ....    ADD      r0,r0,r0,LSL #2
        0x0000e988:    eb020040    ..@.    ADD      r0,r2,r0,LSL #1
        0x0000e98c:    f8132b01    ...+    LDRB     r2,[r3],#1
        0x0000e990:    f10e0e01    ....    ADD      lr,lr,#1
        0x0000e994:    f1a20430    ..0.    SUB      r4,r2,#0x30
        0x0000e998:    2c0a        .,      CMP      r4,#0xa
        0x0000e99a:    f1a00030    ..0.    SUB      r0,r0,#0x30
        0x0000e99e:    d3f1        ..      BCC      0xe984 ; decstr_to_int + 40
        0x0000e9a0:    e000        ..      B        0xe9a4 ; decstr_to_int + 72
        0x0000e9a2:    2000        .       MOVS     r0,#0
        0x0000e9a4:    b109        ..      CBZ      r1,0xe9aa ; decstr_to_int + 78
        0x0000e9a6:    f8c1e000    ....    STR      lr,[r1,#0]
        0x0000e9aa:    f1bc0f2d    ..-.    CMP      r12,#0x2d
        0x0000e9ae:    bf08        ..      IT       EQ
        0x0000e9b0:    4240        @B      RSBEQ    r0,r0,#0
        0x0000e9b2:    bd10        ..      POP      {r4,pc}
    disable_print_interface
        0x0000e9b4:    f7fdbe3d    ..=.    B        am_bsp_itm_printf_disable ; 0xc632
    divu64_10
        0x0000e9b8:    b999        ..      CBNZ     r1,0xe9e2 ; divu64_10 + 42
        0x0000e9ba:    0841        A.      LSRS     r1,r0,#1
        0x0000e9bc:    eb010190    ....    ADD      r1,r1,r0,LSR #2
        0x0000e9c0:    eb011111    ....    ADD      r1,r1,r1,LSR #4
        0x0000e9c4:    eb012111    ...!    ADD      r1,r1,r1,LSR #8
        0x0000e9c8:    eb014111    ...A    ADD      r1,r1,r1,LSR #16
        0x0000e9cc:    08ca        ..      LSRS     r2,r1,#3
        0x0000e9ce:    eb020282    ....    ADD      r2,r2,r2,LSL #2
        0x0000e9d2:    eba00042    ..B.    SUB      r0,r0,r2,LSL #1
        0x0000e9d6:    3006        .0      ADDS     r0,#6
        0x0000e9d8:    0900        ..      LSRS     r0,r0,#4
        0x0000e9da:    eb0000d1    ....    ADD      r0,r0,r1,LSR #3
        0x0000e9de:    2100        .!      MOVS     r1,#0
        0x0000e9e0:    4770        pG      BX       lr
        0x0000e9e2:    b510        ..      PUSH     {r4,lr}
        0x0000e9e4:    ea5f0c51    _.Q.    LSRS     r12,r1,#1
        0x0000e9e8:    ea4f0290    O...    LSR      r2,r0,#2
        0x0000e9ec:    ea4f0330    O.0.    RRX      r3,r0
        0x0000e9f0:    ea427281    B..r    ORR      r2,r2,r1,LSL #30
        0x0000e9f4:    eb130e02    ....    ADDS     lr,r3,r2
        0x0000e9f8:    eb4c0391    L...    ADC      r3,r12,r1,LSR #2
        0x0000e9fc:    ea4f121e    O...    LSR      r2,lr,#4
        0x0000ea00:    ea427203    B..r    ORR      r2,r2,r3,LSL #28
        0x0000ea04:    ea4f1c13    O...    LSR      r12,r3,#4
        0x0000ea08:    eb1e0e02    ....    ADDS     lr,lr,r2
        0x0000ea0c:    eb43030c    C...    ADC      r3,r3,r12
        0x0000ea10:    ea4f221e    O.."    LSR      r2,lr,#8
        0x0000ea14:    ea426203    B..b    ORR      r2,r2,r3,LSL #24
        0x0000ea18:    ea4f2c13    O..,    LSR      r12,r3,#8
        0x0000ea1c:    eb1e0e02    ....    ADDS     lr,lr,r2
        0x0000ea20:    eb43030c    C...    ADC      r3,r3,r12
        0x0000ea24:    ea4f421e    O..B    LSR      r2,lr,#16
        0x0000ea28:    ea424203    B..B    ORR      r2,r2,r3,LSL #16
        0x0000ea2c:    ea4f4c13    O..L    LSR      r12,r3,#16
        0x0000ea30:    eb12020e    ....    ADDS     r2,r2,lr
        0x0000ea34:    eb43030c    C...    ADC      r3,r3,r12
        0x0000ea38:    18d2        ..      ADDS     r2,r2,r3
        0x0000ea3a:    f1430c00    C...    ADC      r12,r3,#0
        0x0000ea3e:    08d2        ..      LSRS     r2,r2,#3
        0x0000ea40:    ea42724c    B.Lr    ORR      r2,r2,r12,LSL #29
        0x0000ea44:    f06f0309    o...    MVN      r3,#9
        0x0000ea48:    fba2e303    ....    UMULL    lr,r3,r2,r3
        0x0000ea4c:    ea4f04dc    O...    LSR      r4,r12,#3
        0x0000ea50:    1a9b        ..      SUBS     r3,r3,r2
        0x0000ea52:    eb040484    ....    ADD      r4,r4,r4,LSL #2
        0x0000ea56:    eba30344    ..D.    SUB      r3,r3,r4,LSL #1
        0x0000ea5a:    eb10000e    ....    ADDS     r0,r0,lr
        0x0000ea5e:    4159        YA      ADCS     r1,r1,r3
        0x0000ea60:    3006        .0      ADDS     r0,#6
        0x0000ea62:    f1410100    A...    ADC      r1,r1,#0
        0x0000ea66:    0900        ..      LSRS     r0,r0,#4
        0x0000ea68:    ea407001    @..p    ORR      r0,r0,r1,LSL #28
        0x0000ea6c:    090b        ..      LSRS     r3,r1,#4
        0x0000ea6e:    1880        ..      ADDS     r0,r0,r2
        0x0000ea70:    eb4301dc    C...    ADC      r1,r3,r12,LSR #3
        0x0000ea74:    bd10        ..      POP      {r4,pc}
    eTaskConfirmSleepModeStatus
        0x0000ea76:    f6450080    E...    MOVW     r0,#0x5880
        0x0000ea7a:    f2c10000    ....    MOVT     r0,#0x1000
        0x0000ea7e:    6800        .h      LDR      r0,[r0,#0]
        0x0000ea80:    b928        (.      CBNZ     r0,0xea8e ; eTaskConfirmSleepModeStatus + 24
        0x0000ea82:    f64500c4    E...    MOV      r0,#0x58c4
        0x0000ea86:    f2c10000    ....    MOVT     r0,#0x1000
        0x0000ea8a:    6800        .h      LDR      r0,[r0,#0]
        0x0000ea8c:    b108        ..      CBZ      r0,0xea92 ; eTaskConfirmSleepModeStatus + 28
        0x0000ea8e:    2000        .       MOVS     r0,#0
        0x0000ea90:    4770        pG      BX       lr
        0x0000ea92:    f64500a4    E...    MOV      r0,#0x58a4
        0x0000ea96:    f2c10000    ....    MOVT     r0,#0x1000
        0x0000ea9a:    6801        .h      LDR      r1,[r0,#0]
        0x0000ea9c:    f6450000    E...    MOVW     r0,#0x5800
        0x0000eaa0:    f2c10000    ....    MOVT     r0,#0x1000
        0x0000eaa4:    6800        .h      LDR      r0,[r0,#0]
        0x0000eaa6:    1e42        B.      SUBS     r2,r0,#1
        0x0000eaa8:    2001        .       MOVS     r0,#1
        0x0000eaaa:    4291        .B      CMP      r1,r2
        0x0000eaac:    bf08        ..      IT       EQ
        0x0000eaae:    2002        .       MOVEQ    r0,#2
        0x0000eab0:    4770        pG      BX       lr
    getStackedReg
        0x0000eab2:    0080        ..      LSLS     r0,r0,#2
        0x0000eab4:    1840        @.      ADDS     r0,r0,r1
        0x0000eab6:    6800        .h      LDR      r0,[r0,#0]
        0x0000eab8:    4770        pG      BX       lr
        0x0000eaba:    0000        ..      MOVS     r0,r0
    main
        0x0000eabc:    2000        .       MOVS     r0,#0
        0x0000eabe:    2100        .!      MOVS     r1,#0
        0x0000eac0:    f7fef926    ..&.    BL       am_hal_clkgen_control ; 0xcd10
        0x0000eac4:    f640009c    @...    MOV      r0,#0x89c
        0x0000eac8:    f2c00001    ....    MOVT     r0,#1
        0x0000eacc:    f7fef83c    ..<.    BL       am_hal_cachectrl_config ; 0xcb48
        0x0000ead0:    f7fef914    ....    BL       am_hal_cachectrl_enable ; 0xccfc
        0x0000ead4:    f7fff8b1    ....    BL       am_hal_sysctrl_fpu_enable ; 0xdc3a
        0x0000ead8:    2001        .       MOVS     r0,#1
        0x0000eada:    f7fff8b6    ....    BL       am_hal_sysctrl_fpu_stacking_enable ; 0xdc4a
        0x0000eade:    f7fdfddb    ....    BL       am_bsp_low_power_init ; 0xc698
        0x0000eae2:    2002        .       MOVS     r0,#2
        0x0000eae4:    f7feff46    ..F.    BL       am_hal_pwrctrl_memory_enable ; 0xd974
        0x0000eae8:    200e        .       MOVS     r0,#0xe
        0x0000eaea:    f7feff43    ..C.    BL       am_hal_pwrctrl_memory_enable ; 0xd974
        0x0000eaee:    f7fdfdb0    ....    BL       am_bsp_itm_printf_enable ; 0xc652
        0x0000eaf2:    a005        ..      ADR      r0,{pc}+0x16 ; 0xeb08
        0x0000eaf4:    f7fffb1a    ....    BL       am_util_stdio_printf ; 0xe12c
        0x0000eaf8:    2001        .       MOVS     r0,#1
        0x0000eafa:    2100        .!      MOVS     r1,#0
        0x0000eafc:    f7fff897    ....    BL       am_hal_sysctrl_control ; 0xdc2e
        0x0000eb00:    f000fb4a    ..J.    BL       run_tasks ; 0xf198
        0x0000eb04:    e7fe        ..      B        0xeb04 ; main + 72
        0x0000eb06:    bf00        ..      NOP      
    $d.3
        0x0000eb08:    65657246    Free    DCD    1701147206
        0x0000eb0c:    534f5452    RTOS    DCD    1397707858
        0x0000eb10:    776f4c20     Low    DCD    2003782688
        0x0000eb14:    776f5020     Pow    DCD    2003783712
        0x0000eb18:    45207265    er E    DCD    1159754341
        0x0000eb1c:    706d6178    xamp    DCD    1886216568
        0x0000eb20:    000a656c    le..    DCD    681324
    $t.3
    prvAddCurrentTaskToDelayedList
        0x0000eb24:    b5f0        ..      PUSH     {r4-r7,lr}
        0x0000eb26:    b081        ..      SUB      sp,sp,#4
        0x0000eb28:    460d        .F      MOV      r5,r1
        0x0000eb2a:    f64501b8    E...    MOV      r1,#0x58b8
        0x0000eb2e:    f2417690    A..v    MOV      r6,#0x1790
        0x0000eb32:    f2c10100    ....    MOVT     r1,#0x1000
        0x0000eb36:    f2c10600    ....    MOVT     r6,#0x1000
        0x0000eb3a:    680f        .h      LDR      r7,[r1,#0]
        0x0000eb3c:    6831        1h      LDR      r1,[r6,#0]
        0x0000eb3e:    4604        .F      MOV      r4,r0
        0x0000eb40:    1d08        ..      ADDS     r0,r1,#4
        0x0000eb42:    f000fc25    ..%.    BL       uxListRemove ; 0xf390
        0x0000eb46:    1c60        `.      ADDS     r0,r4,#1
        0x0000eb48:    d10b        ..      BNE      0xeb62 ; prvAddCurrentTaskToDelayedList + 62
        0x0000eb4a:    b155        U.      CBZ      r5,0xeb62 ; prvAddCurrentTaskToDelayedList + 62
        0x0000eb4c:    6830        0h      LDR      r0,[r6,#0]
        0x0000eb4e:    1d01        ..      ADDS     r1,r0,#4
        0x0000eb50:    f64500a4    E...    MOV      r0,#0x58a4
        0x0000eb54:    f2c10000    ....    MOVT     r0,#0x1000
        0x0000eb58:    b001        ..      ADD      sp,sp,#4
        0x0000eb5a:    e8bd40f0    ...@    POP      {r4-r7,lr}
        0x0000eb5e:    f000bc68    ..h.    B.W      vListInsertEnd ; 0xf432
        0x0000eb62:    6830        0h      LDR      r0,[r6,#0]
        0x0000eb64:    19e4        ..      ADDS     r4,r4,r7
        0x0000eb66:    6044        D`      STR      r4,[r0,#4]
        0x0000eb68:    d30b        ..      BCC      0xeb82 ; prvAddCurrentTaskToDelayedList + 94
        0x0000eb6a:    f241709c    A..p    MOV      r0,#0x179c
        0x0000eb6e:    f2c10000    ....    MOVT     r0,#0x1000
        0x0000eb72:    6800        .h      LDR      r0,[r0,#0]
        0x0000eb74:    6831        1h      LDR      r1,[r6,#0]
        0x0000eb76:    3104        .1      ADDS     r1,#4
        0x0000eb78:    b001        ..      ADD      sp,sp,#4
        0x0000eb7a:    e8bd40f0    ...@    POP      {r4-r7,lr}
        0x0000eb7e:    f000bc3b    ..;.    B.W      vListInsert ; 0xf3f8
        0x0000eb82:    f2417098    A..p    MOV      r0,#0x1798
        0x0000eb86:    f2c10000    ....    MOVT     r0,#0x1000
        0x0000eb8a:    6800        .h      LDR      r0,[r0,#0]
        0x0000eb8c:    6831        1h      LDR      r1,[r6,#0]
        0x0000eb8e:    3104        .1      ADDS     r1,#4
        0x0000eb90:    f000fc32    ..2.    BL       vListInsert ; 0xf3f8
        0x0000eb94:    f6450078    E.x.    MOV      r0,#0x5878
        0x0000eb98:    f2c10000    ....    MOVT     r0,#0x1000
        0x0000eb9c:    6801        .h      LDR      r1,[r0,#0]
        0x0000eb9e:    428c        .B      CMP      r4,r1
        0x0000eba0:    bf38        8.      IT       CC
        0x0000eba2:    6004        .`      STRCC    r4,[r0,#0]
        0x0000eba4:    b001        ..      ADD      sp,sp,#4
        0x0000eba6:    bdf0        ..      POP      {r4-r7,pc}
    prvCheckForValidListAndQueue
        0x0000eba8:    b570        p.      PUSH     {r4-r6,lr}
        0x0000ebaa:    f000fc5b    ..[.    BL       vPortEnterCritical ; 0xf464
        0x0000ebae:    f64506bc    E...    MOV      r6,#0x58bc
        0x0000ebb2:    f2c10600    ....    MOVT     r6,#0x1000
        0x0000ebb6:    6830        0h      LDR      r0,[r6,#0]
        0x0000ebb8:    b9e8        ..      CBNZ     r0,0xebf6 ; prvCheckForValidListAndQueue + 78
        0x0000ebba:    f6450414    E...    MOV      r4,#0x5814
        0x0000ebbe:    f2c10400    ....    MOVT     r4,#0x1000
        0x0000ebc2:    4620         F      MOV      r0,r4
        0x0000ebc4:    f000fc0a    ....    BL       vListInitialise ; 0xf3dc
        0x0000ebc8:    f6450528    E.(.    MOV      r5,#0x5828
        0x0000ebcc:    f2c10500    ....    MOVT     r5,#0x1000
        0x0000ebd0:    4628        (F      MOV      r0,r5
        0x0000ebd2:    f000fc03    ....    BL       vListInitialise ; 0xf3dc
        0x0000ebd6:    f2417094    A..p    MOV      r0,#0x1794
        0x0000ebda:    f2c10000    ....    MOVT     r0,#0x1000
        0x0000ebde:    6004        .`      STR      r4,[r0,#0]
        0x0000ebe0:    f24170a0    A..p    MOVW     r0,#0x17a0
        0x0000ebe4:    f2c10000    ....    MOVT     r0,#0x1000
        0x0000ebe8:    6005        .`      STR      r5,[r0,#0]
        0x0000ebea:    2005        .       MOVS     r0,#5
        0x0000ebec:    2110        .!      MOVS     r1,#0x10
        0x0000ebee:    2200        ."      MOVS     r2,#0
        0x0000ebf0:    f001f8b8    ....    BL       xQueueGenericCreate ; 0xfd64
        0x0000ebf4:    6030        0`      STR      r0,[r6,#0]
        0x0000ebf6:    e8bd4070    ..p@    POP      {r4-r6,lr}
        0x0000ebfa:    f000bc4d    ..M.    B.W      vPortExitCritical ; 0xf498
    prvCopyDataToQueue
        0x0000ebfe:    b570        p.      PUSH     {r4-r6,lr}
        0x0000ec00:    6b86        .k      LDR      r6,[r0,#0x38]
        0x0000ec02:    6c03        .l      LDR      r3,[r0,#0x40]
        0x0000ec04:    4604        .F      MOV      r4,r0
        0x0000ec06:    b343        C.      CBZ      r3,0xec5a ; prvCopyDataToQueue + 92
        0x0000ec08:    4615        .F      MOV      r5,r2
        0x0000ec0a:    b1ca        ..      CBZ      r2,0xec40 ; prvCopyDataToQueue + 66
        0x0000ec0c:    68e0        .h      LDR      r0,[r4,#0xc]
        0x0000ec0e:    461a        .F      MOV      r2,r3
        0x0000ec10:    f7fdfaec    ....    BL       __aeabi_memcpy ; 0xc1ec
        0x0000ec14:    68e1        .h      LDR      r1,[r4,#0xc]
        0x0000ec16:    6c20         l      LDR      r0,[r4,#0x40]
        0x0000ec18:    6822        "h      LDR      r2,[r4,#0]
        0x0000ec1a:    1a09        ..      SUBS     r1,r1,r0
        0x0000ec1c:    4291        .B      CMP      r1,r2
        0x0000ec1e:    60e1        .`      STR      r1,[r4,#0xc]
        0x0000ec20:    d203        ..      BCS      0xec2a ; prvCopyDataToQueue + 44
        0x0000ec22:    68a1        .h      LDR      r1,[r4,#8]
        0x0000ec24:    4240        @B      RSBS     r0,r0,#0
        0x0000ec26:    4408        .D      ADD      r0,r0,r1
        0x0000ec28:    60e0        .`      STR      r0,[r4,#0xc]
        0x0000ec2a:    1ea8        ..      SUBS     r0,r5,#2
        0x0000ec2c:    fab0f080    ....    CLZ      r0,r0
        0x0000ec30:    0940        @.      LSRS     r0,r0,#5
        0x0000ec32:    4631        1F      MOV      r1,r6
        0x0000ec34:    2e00        ..      CMP      r6,#0
        0x0000ec36:    bf18        ..      IT       NE
        0x0000ec38:    2101        .!      MOVNE    r1,#1
        0x0000ec3a:    4008        .@      ANDS     r0,r0,r1
        0x0000ec3c:    1a36        6.      SUBS     r6,r6,r0
        0x0000ec3e:    e00c        ..      B        0xec5a ; prvCopyDataToQueue + 92
        0x0000ec40:    6860        `h      LDR      r0,[r4,#4]
        0x0000ec42:    461a        .F      MOV      r2,r3
        0x0000ec44:    f7fdfad2    ....    BL       __aeabi_memcpy ; 0xc1ec
        0x0000ec48:    6c21        !l      LDR      r1,[r4,#0x40]
        0x0000ec4a:    e9d40201    ....    LDRD     r0,r2,[r4,#4]
        0x0000ec4e:    4408        .D      ADD      r0,r0,r1
        0x0000ec50:    4290        .B      CMP      r0,r2
        0x0000ec52:    6060        ``      STR      r0,[r4,#4]
        0x0000ec54:    d301        ..      BCC      0xec5a ; prvCopyDataToQueue + 92
        0x0000ec56:    6820         h      LDR      r0,[r4,#0]
        0x0000ec58:    6060        ``      STR      r0,[r4,#4]
        0x0000ec5a:    1c70        p.      ADDS     r0,r6,#1
        0x0000ec5c:    63a0        .c      STR      r0,[r4,#0x38]
        0x0000ec5e:    bd70        p.      POP      {r4-r6,pc}
    prvIdleTask
        0x0000ec60:    f24174a4    A..t    MOV      r4,#0x17a4
        0x0000ec64:    f64e5804    N..X    MOV      r8,#0xed04
        0x0000ec68:    f6450710    E...    MOV      r7,#0x5810
        0x0000ec6c:    f2417590    A..u    MOV      r5,#0x1790
        0x0000ec70:    f6450978    E.x.    MOV      r9,#0x5878
        0x0000ec74:    f6450ab8    E...    MOV      r10,#0x58b8
        0x0000ec78:    f6450b08    E...    MOV      r11,#0x5808
        0x0000ec7c:    f2c10400    ....    MOVT     r4,#0x1000
        0x0000ec80:    f2ce0800    ....    MOVT     r8,#0xe000
        0x0000ec84:    f04f5680    O..V    MOV      r6,#0x10000000
        0x0000ec88:    f2c10700    ....    MOVT     r7,#0x1000
        0x0000ec8c:    f2c10500    ....    MOVT     r5,#0x1000
        0x0000ec90:    f2c10900    ....    MOVT     r9,#0x1000
        0x0000ec94:    f2c10a00    ....    MOVT     r10,#0x1000
        0x0000ec98:    f2c10b00    ....    MOVT     r11,#0x1000
        0x0000ec9c:    6820         h      LDR      r0,[r4,#0]
        0x0000ec9e:    2802        .(      CMP      r0,#2
        0x0000eca0:    d305        ..      BCC      0xecae ; prvIdleTask + 78
        0x0000eca2:    f8c86000    ...`    STR      r6,[r8,#0]
        0x0000eca6:    f3bf8f4f    ..O.    DSB      
        0x0000ecaa:    f3bf8f6f    ..o.    ISB      
        0x0000ecae:    6838        8h      LDR      r0,[r7,#0]
        0x0000ecb0:    6829        )h      LDR      r1,[r5,#0]
        0x0000ecb2:    6ac9        .j      LDR      r1,[r1,#0x2c]
        0x0000ecb4:    2900        .)      CMP      r1,#0
        0x0000ecb6:    d1f1        ..      BNE      0xec9c ; prvIdleTask + 60
        0x0000ecb8:    6821        !h      LDR      r1,[r4,#0]
        0x0000ecba:    2800        .(      CMP      r0,#0
        0x0000ecbc:    d1ee        ..      BNE      0xec9c ; prvIdleTask + 60
        0x0000ecbe:    2901        .)      CMP      r1,#1
        0x0000ecc0:    d8ec        ..      BHI      0xec9c ; prvIdleTask + 60
        0x0000ecc2:    f8d90000    ....    LDR      r0,[r9,#0]
        0x0000ecc6:    f8da1000    ....    LDR      r1,[r10,#0]
        0x0000ecca:    1a40        @.      SUBS     r0,r0,r1
        0x0000eccc:    2802        .(      CMP      r0,#2
        0x0000ecce:    d3e5        ..      BCC      0xec9c ; prvIdleTask + 60
        0x0000ecd0:    f8db0000    ....    LDR      r0,[r11,#0]
        0x0000ecd4:    3001        .0      ADDS     r0,#1
        0x0000ecd6:    f8cb0000    ....    STR      r0,[r11,#0]
        0x0000ecda:    f8d90000    ....    LDR      r0,[r9,#0]
        0x0000ecde:    f8da1000    ....    LDR      r1,[r10,#0]
        0x0000ece2:    4288        .B      CMP      r0,r1
        0x0000ece4:    d314        ..      BCC      0xed10 ; prvIdleTask + 176
        0x0000ece6:    6838        8h      LDR      r0,[r7,#0]
        0x0000ece8:    6829        )h      LDR      r1,[r5,#0]
        0x0000ecea:    6ac9        .j      LDR      r1,[r1,#0x2c]
        0x0000ecec:    b961        a.      CBNZ     r1,0xed08 ; prvIdleTask + 168
        0x0000ecee:    6821        !h      LDR      r1,[r4,#0]
        0x0000ecf0:    b950        P.      CBNZ     r0,0xed08 ; prvIdleTask + 168
        0x0000ecf2:    2901        .)      CMP      r1,#1
        0x0000ecf4:    d808        ..      BHI      0xed08 ; prvIdleTask + 168
        0x0000ecf6:    f8d90000    ....    LDR      r0,[r9,#0]
        0x0000ecfa:    f8da1000    ....    LDR      r1,[r10,#0]
        0x0000ecfe:    1a40        @.      SUBS     r0,r0,r1
        0x0000ed00:    2802        .(      CMP      r0,#2
        0x0000ed02:    bf28        (.      IT       CS
        0x0000ed04:    f000fc39    ..9.    BLCS     vPortSuppressTicksAndSleep ; 0xf57a
        0x0000ed08:    f001fc38    ..8.    BL       xTaskResumeAll ; 0x1057c
        0x0000ed0c:    e7c6        ..      B        0xec9c ; prvIdleTask + 60
        0x0000ed0e:    bf00        ..      NOP      
        0x0000ed10:    e7fe        ..      B        0xed10 ; prvIdleTask + 176
    prvInsertTimerInActiveList
        0x0000ed12:    b580        ..      PUSH     {r7,lr}
        0x0000ed14:    468c        .F      MOV      r12,r1
        0x0000ed16:    4601        .F      MOV      r1,r0
        0x0000ed18:    f841cf04    A...    STR      r12,[r1,#4]!
        0x0000ed1c:    4594        .E      CMP      r12,r2
        0x0000ed1e:    6100        .a      STR      r0,[r0,#0x10]
        0x0000ed20:    d908        ..      BLS      0xed34 ; prvInsertTimerInActiveList + 34
        0x0000ed22:    429a        .B      CMP      r2,r3
        0x0000ed24:    d201        ..      BCS      0xed2a ; prvInsertTimerInActiveList + 24
        0x0000ed26:    459c        .E      CMP      r12,r3
        0x0000ed28:    d211        ..      BCS      0xed4e ; prvInsertTimerInActiveList + 60
        0x0000ed2a:    f2417094    A..p    MOV      r0,#0x1794
        0x0000ed2e:    f2c10000    ....    MOVT     r0,#0x1000
        0x0000ed32:    e007        ..      B        0xed44 ; prvInsertTimerInActiveList + 50
        0x0000ed34:    6980        .i      LDR      r0,[r0,#0x18]
        0x0000ed36:    1ad2        ..      SUBS     r2,r2,r3
        0x0000ed38:    4282        .B      CMP      r2,r0
        0x0000ed3a:    d208        ..      BCS      0xed4e ; prvInsertTimerInActiveList + 60
        0x0000ed3c:    f24170a0    A..p    MOVW     r0,#0x17a0
        0x0000ed40:    f2c10000    ....    MOVT     r0,#0x1000
        0x0000ed44:    6800        .h      LDR      r0,[r0,#0]
        0x0000ed46:    f000fb57    ..W.    BL       vListInsert ; 0xf3f8
        0x0000ed4a:    2000        .       MOVS     r0,#0
        0x0000ed4c:    bd80        ..      POP      {r7,pc}
        0x0000ed4e:    2001        .       MOVS     r0,#1
        0x0000ed50:    bd80        ..      POP      {r7,pc}
        0x0000ed52:    0000        ..      MOVS     r0,r0
    prvPortStartFirstTask
        0x0000ed54:    4808        .H      LDR      r0,[pc,#32] ; [0xed78] = 0xe000ed08
        0x0000ed56:    6800        .h      LDR      r0,[r0,#0]
        0x0000ed58:    6800        .h      LDR      r0,[r0,#0]
        0x0000ed5a:    f3808808    ....    MSR      MSP,r0
        0x0000ed5e:    f04f0000    O...    MOV      r0,#0
        0x0000ed62:    f3808814    ....    MSR      CONTROL,r0
        0x0000ed66:    b662        b.      CPSIE    i
        0x0000ed68:    b661        a.      CPSIE    f
        0x0000ed6a:    f3bf8f4f    ..O.    DSB      
        0x0000ed6e:    f3bf8f6f    ..o.    ISB      
        0x0000ed72:    df00        ..      SVC      #0x0 ; formerly SWI
        0x0000ed74:    bf00        ..      NOP      
        0x0000ed76:    bf00        ..      NOP      
    $d.20
        0x0000ed78:    e000ed08    ....    DCD    3758157064
    $t.15
    prvSampleTimeNow
        0x0000ed7c:    e92d4ff0    -..O    PUSH     {r4-r11,lr}
        0x0000ed80:    b081        ..      SUB      sp,sp,#4
        0x0000ed82:    4680        .F      MOV      r8,r0
        0x0000ed84:    f001fb05    ....    BL       xTaskGetTickCount ; 0x10392
        0x0000ed88:    f2417988    A..y    MOV      r9,#0x1788
        0x0000ed8c:    f2c10900    ....    MOVT     r9,#0x1000
        0x0000ed90:    f8d91000    ....    LDR      r1,[r9,#0]
        0x0000ed94:    4682        .F      MOV      r10,r0
        0x0000ed96:    4288        .B      CMP      r0,r1
        0x0000ed98:    d237        7.      BCS      0xee0a ; prvSampleTimeNow + 142
        0x0000ed9a:    f2417594    A..u    MOV      r5,#0x1794
        0x0000ed9e:    f2c10500    ....    MOVT     r5,#0x1000
        0x0000eda2:    6828        (h      LDR      r0,[r5,#0]
        0x0000eda4:    6801        .h      LDR      r1,[r0,#0]
        0x0000eda6:    b331        1.      CBZ      r1,0xedf6 ; prvSampleTimeNow + 122
        0x0000eda8:    f04f0b00    O...    MOV      r11,#0
        0x0000edac:    68c0        .h      LDR      r0,[r0,#0xc]
        0x0000edae:    68c6        .h      LDR      r6,[r0,#0xc]
        0x0000edb0:    6804        .h      LDR      r4,[r0,#0]
        0x0000edb2:    1d37        7.      ADDS     r7,r6,#4
        0x0000edb4:    4638        8F      MOV      r0,r7
        0x0000edb6:    f000faeb    ....    BL       uxListRemove ; 0xf390
        0x0000edba:    6a71        qj      LDR      r1,[r6,#0x24]
        0x0000edbc:    4630        0F      MOV      r0,r6
        0x0000edbe:    4788        .G      BLX      r1
        0x0000edc0:    69f0        .i      LDR      r0,[r6,#0x1c]
        0x0000edc2:    2801        .(      CMP      r0,#1
        0x0000edc4:    d113        ..      BNE      0xedee ; prvSampleTimeNow + 114
        0x0000edc6:    69b0        .i      LDR      r0,[r6,#0x18]
        0x0000edc8:    4420         D      ADD      r0,r0,r4
        0x0000edca:    42a0        .B      CMP      r0,r4
        0x0000edcc:    d906        ..      BLS      0xeddc ; prvSampleTimeNow + 96
        0x0000edce:    6070        p`      STR      r0,[r6,#4]
        0x0000edd0:    6828        (h      LDR      r0,[r5,#0]
        0x0000edd2:    4639        9F      MOV      r1,r7
        0x0000edd4:    6136        6a      STR      r6,[r6,#0x10]
        0x0000edd6:    f000fb0f    ....    BL       vListInsert ; 0xf3f8
        0x0000edda:    e008        ..      B        0xedee ; prvSampleTimeNow + 114
        0x0000eddc:    4630        0F      MOV      r0,r6
        0x0000edde:    2100        .!      MOVS     r1,#0
        0x0000ede0:    4622        "F      MOV      r2,r4
        0x0000ede2:    2300        .#      MOVS     r3,#0
        0x0000ede4:    f8cdb000    ....    STR      r11,[sp,#0]
        0x0000ede8:    f001fc80    ....    BL       xTimerGenericCommand ; 0x106ec
        0x0000edec:    b160        `.      CBZ      r0,0xee08 ; prvSampleTimeNow + 140
        0x0000edee:    6828        (h      LDR      r0,[r5,#0]
        0x0000edf0:    6801        .h      LDR      r1,[r0,#0]
        0x0000edf2:    2900        .)      CMP      r1,#0
        0x0000edf4:    d1da        ..      BNE      0xedac ; prvSampleTimeNow + 48
        0x0000edf6:    f24171a0    A..q    MOVW     r1,#0x17a0
        0x0000edfa:    f2c10100    ....    MOVT     r1,#0x1000
        0x0000edfe:    680a        .h      LDR      r2,[r1,#0]
        0x0000ee00:    6008        .`      STR      r0,[r1,#0]
        0x0000ee02:    2001        .       MOVS     r0,#1
        0x0000ee04:    602a        *`      STR      r2,[r5,#0]
        0x0000ee06:    e001        ..      B        0xee0c ; prvSampleTimeNow + 144
        0x0000ee08:    e7fe        ..      B        0xee08 ; prvSampleTimeNow + 140
        0x0000ee0a:    2000        .       MOVS     r0,#0
        0x0000ee0c:    f8c80000    ....    STR      r0,[r8,#0]
        0x0000ee10:    4650        PF      MOV      r0,r10
        0x0000ee12:    f8c9a000    ....    STR      r10,[r9,#0]
        0x0000ee16:    b001        ..      ADD      sp,sp,#4
        0x0000ee18:    e8bd8ff0    ....    POP      {r4-r11,pc}
    prvTaskExitError
        0x0000ee1c:    b081        ..      SUB      sp,sp,#4
        0x0000ee1e:    2000        .       MOVS     r0,#0
        0x0000ee20:    9000        ..      STR      r0,[sp,#0]
        0x0000ee22:    f2410028    A.(.    MOV      r0,#0x1028
        0x0000ee26:    f2c10000    ....    MOVT     r0,#0x1000
        0x0000ee2a:    6800        .h      LDR      r0,[r0,#0]
        0x0000ee2c:    3001        .0      ADDS     r0,#1
        0x0000ee2e:    d000        ..      BEQ      0xee32 ; prvTaskExitError + 22
        0x0000ee30:    e7fe        ..      B        0xee30 ; prvTaskExitError + 20
        0x0000ee32:    f04f0080    O...    MOV      r0,#0x80
        0x0000ee36:    f3808811    ....    MSR      BASEPRI,r0
        0x0000ee3a:    f3bf8f6f    ..o.    ISB      
        0x0000ee3e:    f3bf8f4f    ..O.    DSB      
        0x0000ee42:    bf00        ..      NOP      
        0x0000ee44:    9800        ..      LDR      r0,[sp,#0]
        0x0000ee46:    2800        .(      CMP      r0,#0
        0x0000ee48:    d0fc        ..      BEQ      0xee44 ; prvTaskExitError + 40
        0x0000ee4a:    b001        ..      ADD      sp,sp,#4
        0x0000ee4c:    4770        pG      BX       lr
        0x0000ee4e:    0000        ..      MOVS     r0,r0
    prvTimerTask
        0x0000ee50:    b086        ..      SUB      sp,sp,#0x18
        0x0000ee52:    f2417b94    A..{    MOV      r11,#0x1794
        0x0000ee56:    f64507bc    E...    MOV      r7,#0x58bc
        0x0000ee5a:    f2c10b00    ....    MOVT     r11,#0x1000
        0x0000ee5e:    ac02        ..      ADD      r4,sp,#8
        0x0000ee60:    f2c10700    ....    MOVT     r7,#0x1000
        0x0000ee64:    ad01        ..      ADD      r5,sp,#4
        0x0000ee66:    f04f0901    O...    MOV      r9,#1
        0x0000ee6a:    bf00        ..      NOP      
        0x0000ee6c:    f8db0000    ....    LDR      r0,[r11,#0]
        0x0000ee70:    6806        .h      LDR      r6,[r0,#0]
        0x0000ee72:    b11e        ..      CBZ      r6,0xee7c ; prvTimerTask + 44
        0x0000ee74:    68c0        .h      LDR      r0,[r0,#0xc]
        0x0000ee76:    f8d08000    ....    LDR      r8,[r0,#0]
        0x0000ee7a:    e001        ..      B        0xee80 ; prvTimerTask + 48
        0x0000ee7c:    f04f0800    O...    MOV      r8,#0
        0x0000ee80:    f000fd8b    ....    BL       vTaskSuspendAll ; 0xf99a
        0x0000ee84:    4620         F      MOV      r0,r4
        0x0000ee86:    f7ffff79    ..y.    BL       prvSampleTimeNow ; 0xed7c
        0x0000ee8a:    9902        ..      LDR      r1,[sp,#8]
        0x0000ee8c:    b111        ..      CBZ      r1,0xee94 ; prvTimerTask + 68
        0x0000ee8e:    f001fb75    ..u.    BL       xTaskResumeAll ; 0x1057c
        0x0000ee92:    e032        2.      B        0xeefa ; prvTimerTask + 170
        0x0000ee94:    4682        .F      MOV      r10,r0
        0x0000ee96:    2e00        ..      CMP      r6,#0
        0x0000ee98:    f0008084    ....    BEQ.W    0xefa4 ; prvTimerTask + 340
        0x0000ee9c:    45d0        .E      CMP      r8,r10
        0x0000ee9e:    f2008081    ....    BHI.W    0xefa4 ; prvTimerTask + 340
        0x0000eea2:    f001fb6b    ..k.    BL       xTaskResumeAll ; 0x1057c
        0x0000eea6:    f8db0000    ....    LDR      r0,[r11,#0]
        0x0000eeaa:    68c0        .h      LDR      r0,[r0,#0xc]
        0x0000eeac:    f8d0b00c    ....    LDR      r11,[r0,#0xc]
        0x0000eeb0:    f10b0004    ....    ADD      r0,r11,#4
        0x0000eeb4:    f000fa6c    ..l.    BL       uxListRemove ; 0xf390
        0x0000eeb8:    f8db001c    ....    LDR      r0,[r11,#0x1c]
        0x0000eebc:    2801        .(      CMP      r0,#1
        0x0000eebe:    d114        ..      BNE      0xeeea ; prvTimerTask + 154
        0x0000eec0:    f8db0018    ....    LDR      r0,[r11,#0x18]
        0x0000eec4:    4652        RF      MOV      r2,r10
        0x0000eec6:    eb000108    ....    ADD      r1,r0,r8
        0x0000eeca:    4658        XF      MOV      r0,r11
        0x0000eecc:    4643        CF      MOV      r3,r8
        0x0000eece:    f7ffff20    .. .    BL       prvInsertTimerInActiveList ; 0xed12
        0x0000eed2:    b150        P.      CBZ      r0,0xeeea ; prvTimerTask + 154
        0x0000eed4:    4658        XF      MOV      r0,r11
        0x0000eed6:    2100        .!      MOVS     r1,#0
        0x0000eed8:    4642        BF      MOV      r2,r8
        0x0000eeda:    2300        .#      MOVS     r3,#0
        0x0000eedc:    2600        .&      MOVS     r6,#0
        0x0000eede:    9600        ..      STR      r6,[sp,#0]
        0x0000eee0:    f001fc04    ....    BL       xTimerGenericCommand ; 0x106ec
        0x0000eee4:    2800        .(      CMP      r0,#0
        0x0000eee6:    f0008085    ....    BEQ.W    0xeff4 ; prvTimerTask + 420
        0x0000eeea:    f8db1024    ..$.    LDR      r1,[r11,#0x24]
        0x0000eeee:    4658        XF      MOV      r0,r11
        0x0000eef0:    4788        .G      BLX      r1
        0x0000eef2:    f2417b94    A..{    MOV      r11,#0x1794
        0x0000eef6:    f2c10b00    ....    MOVT     r11,#0x1000
        0x0000eefa:    f04f0800    O...    MOV      r8,#0
        0x0000eefe:    bf00        ..      NOP      
        0x0000ef00:    6838        8h      LDR      r0,[r7,#0]
        0x0000ef02:    4621        !F      MOV      r1,r4
        0x0000ef04:    2200        ."      MOVS     r2,#0
        0x0000ef06:    f001f871    ..q.    BL       xQueueReceive ; 0xffec
        0x0000ef0a:    2800        .(      CMP      r0,#0
        0x0000ef0c:    d0ae        ..      BEQ      0xee6c ; prvTimerTask + 28
        0x0000ef0e:    9802        ..      LDR      r0,[sp,#8]
        0x0000ef10:    f1b03fff    ...?    CMP      r0,#0xffffffff
        0x0000ef14:    dc06        ..      BGT      0xef24 ; prvTimerTask + 212
        0x0000ef16:    e9dd2003    ...     LDRD     r2,r0,[sp,#0xc]
        0x0000ef1a:    9905        ..      LDR      r1,[sp,#0x14]
        0x0000ef1c:    4790        .G      BLX      r2
        0x0000ef1e:    9802        ..      LDR      r0,[sp,#8]
        0x0000ef20:    2800        .(      CMP      r0,#0
        0x0000ef22:    d4ed        ..      BMI      0xef00 ; prvTimerTask + 176
        0x0000ef24:    9e04        ..      LDR      r6,[sp,#0x10]
        0x0000ef26:    6970        pi      LDR      r0,[r6,#0x14]
        0x0000ef28:    b110        ..      CBZ      r0,0xef30 ; prvTimerTask + 224
        0x0000ef2a:    1d30        0.      ADDS     r0,r6,#4
        0x0000ef2c:    f000fa30    ..0.    BL       uxListRemove ; 0xf390
        0x0000ef30:    4628        (F      MOV      r0,r5
        0x0000ef32:    f7ffff23    ..#.    BL       prvSampleTimeNow ; 0xed7c
        0x0000ef36:    9902        ..      LDR      r1,[sp,#8]
        0x0000ef38:    2909        .)      CMP      r1,#9
        0x0000ef3a:    d8e1        ..      BHI      0xef00 ; prvTimerTask + 176
        0x0000ef3c:    4602        .F      MOV      r2,r0
        0x0000ef3e:    fa09f001    ....    LSL      r0,r9,r1
        0x0000ef42:    f0100fc7    ....    TST      r0,#0xc7
        0x0000ef46:    d01b        ..      BEQ      0xef80 ; prvTimerTask + 304
        0x0000ef48:    9b03        ..      LDR      r3,[sp,#0xc]
        0x0000ef4a:    69b0        .i      LDR      r0,[r6,#0x18]
        0x0000ef4c:    18c1        ..      ADDS     r1,r0,r3
        0x0000ef4e:    4630        0F      MOV      r0,r6
        0x0000ef50:    f7fffedf    ....    BL       prvInsertTimerInActiveList ; 0xed12
        0x0000ef54:    2800        .(      CMP      r0,#0
        0x0000ef56:    d0d3        ..      BEQ      0xef00 ; prvTimerTask + 176
        0x0000ef58:    6a71        qj      LDR      r1,[r6,#0x24]
        0x0000ef5a:    4630        0F      MOV      r0,r6
        0x0000ef5c:    4788        .G      BLX      r1
        0x0000ef5e:    69f0        .i      LDR      r0,[r6,#0x1c]
        0x0000ef60:    2801        .(      CMP      r0,#1
        0x0000ef62:    d1cd        ..      BNE      0xef00 ; prvTimerTask + 176
        0x0000ef64:    9803        ..      LDR      r0,[sp,#0xc]
        0x0000ef66:    69b1        .i      LDR      r1,[r6,#0x18]
        0x0000ef68:    2300        .#      MOVS     r3,#0
        0x0000ef6a:    180a        ..      ADDS     r2,r1,r0
        0x0000ef6c:    4630        0F      MOV      r0,r6
        0x0000ef6e:    2100        .!      MOVS     r1,#0
        0x0000ef70:    f8cd8000    ....    STR      r8,[sp,#0]
        0x0000ef74:    f001fbba    ....    BL       xTimerGenericCommand ; 0x106ec
        0x0000ef78:    2800        .(      CMP      r0,#0
        0x0000ef7a:    d1c1        ..      BNE      0xef00 ; prvTimerTask + 176
        0x0000ef7c:    e038        8.      B        0xeff0 ; prvTimerTask + 416
        0x0000ef7e:    bf00        ..      NOP      
        0x0000ef80:    f4107f04    ....    TST      r0,#0x210
        0x0000ef84:    d008        ..      BEQ      0xef98 ; prvTimerTask + 328
        0x0000ef86:    9803        ..      LDR      r0,[sp,#0xc]
        0x0000ef88:    61b0        .a      STR      r0,[r6,#0x18]
        0x0000ef8a:    b378        x.      CBZ      r0,0xefec ; prvTimerTask + 412
        0x0000ef8c:    1881        ..      ADDS     r1,r0,r2
        0x0000ef8e:    4630        0F      MOV      r0,r6
        0x0000ef90:    4613        .F      MOV      r3,r2
        0x0000ef92:    f7fffebe    ....    BL       prvInsertTimerInActiveList ; 0xed12
        0x0000ef96:    e7b3        ..      B        0xef00 ; prvTimerTask + 176
        0x0000ef98:    2905        .)      CMP      r1,#5
        0x0000ef9a:    d1b1        ..      BNE      0xef00 ; prvTimerTask + 176
        0x0000ef9c:    4630        0F      MOV      r0,r6
        0x0000ef9e:    f000fa8b    ....    BL       vPortFree ; 0xf4b8
        0x0000efa2:    e7ad        ..      B        0xef00 ; prvTimerTask + 176
        0x0000efa4:    b10e        ..      CBZ      r6,0xefaa ; prvTimerTask + 346
        0x0000efa6:    2200        ."      MOVS     r2,#0
        0x0000efa8:    e008        ..      B        0xefbc ; prvTimerTask + 364
        0x0000efaa:    f24170a0    A..p    MOVW     r0,#0x17a0
        0x0000efae:    f2c10000    ....    MOVT     r0,#0x1000
        0x0000efb2:    6800        .h      LDR      r0,[r0,#0]
        0x0000efb4:    6800        .h      LDR      r0,[r0,#0]
        0x0000efb6:    fab0f080    ....    CLZ      r0,r0
        0x0000efba:    0942        B.      LSRS     r2,r0,#5
        0x0000efbc:    6838        8h      LDR      r0,[r7,#0]
        0x0000efbe:    eba8010a    ....    SUB      r1,r8,r10
        0x0000efc2:    f000fb66    ..f.    BL       vQueueWaitForMessageRestricted ; 0xf692
        0x0000efc6:    f001fad9    ....    BL       xTaskResumeAll ; 0x1057c
        0x0000efca:    2800        .(      CMP      r0,#0
        0x0000efcc:    f04f0800    O...    MOV      r8,#0
        0x0000efd0:    d196        ..      BNE      0xef00 ; prvTimerTask + 176
        0x0000efd2:    f64e5004    N..P    MOV      r0,#0xed04
        0x0000efd6:    f2ce0000    ....    MOVT     r0,#0xe000
        0x0000efda:    f04f5180    O..Q    MOV      r1,#0x10000000
        0x0000efde:    6001        .`      STR      r1,[r0,#0]
        0x0000efe0:    f3bf8f4f    ..O.    DSB      
        0x0000efe4:    f3bf8f6f    ..o.    ISB      
        0x0000efe8:    e78a        ..      B        0xef00 ; prvTimerTask + 176
        0x0000efea:    bf00        ..      NOP      
        0x0000efec:    e7fe        ..      B        0xefec ; prvTimerTask + 412
        0x0000efee:    bf00        ..      NOP      
        0x0000eff0:    e7fe        ..      B        0xeff0 ; prvTimerTask + 416
        0x0000eff2:    bf00        ..      NOP      
        0x0000eff4:    e7fe        ..      B        0xeff4 ; prvTimerTask + 420
        0x0000eff6:    0000        ..      MOVS     r0,r0
    prvUnlockQueue
        0x0000eff8:    b5f0        ..      PUSH     {r4-r7,lr}
        0x0000effa:    b081        ..      SUB      sp,sp,#4
        0x0000effc:    4604        .F      MOV      r4,r0
        0x0000effe:    f000fa31    ..1.    BL       vPortEnterCritical ; 0xf464
        0x0000f002:    f9946045    ..E`    LDRSB    r6,[r4,#0x45]
        0x0000f006:    2e01        ..      CMP      r6,#1
        0x0000f008:    db0e        ..      BLT      0xf028 ; prvUnlockQueue + 48
        0x0000f00a:    f1040524    ..$.    ADD      r5,r4,#0x24
        0x0000f00e:    bf00        ..      NOP      
        0x0000f010:    6828        (h      LDR      r0,[r5,#0]
        0x0000f012:    b148        H.      CBZ      r0,0xf028 ; prvUnlockQueue + 48
        0x0000f014:    4628        (F      MOV      r0,r5
        0x0000f016:    f001fa5f    .._.    BL       xTaskRemoveFromEventList ; 0x104d8
        0x0000f01a:    b108        ..      CBZ      r0,0xf020 ; prvUnlockQueue + 40
        0x0000f01c:    f000fb69    ..i.    BL       vTaskMissedYield ; 0xf6f2
        0x0000f020:    b270        p.      SXTB     r0,r6
        0x0000f022:    3e01        .>      SUBS     r6,#1
        0x0000f024:    2801        .(      CMP      r0,#1
        0x0000f026:    dcf3        ..      BGT      0xf010 ; prvUnlockQueue + 24
        0x0000f028:    26ff        .&      MOVS     r6,#0xff
        0x0000f02a:    f8846045    ..E`    STRB     r6,[r4,#0x45]
        0x0000f02e:    f000fa33    ..3.    BL       vPortExitCritical ; 0xf498
        0x0000f032:    f000fa17    ....    BL       vPortEnterCritical ; 0xf464
        0x0000f036:    f9947044    ..Dp    LDRSB    r7,[r4,#0x44]
        0x0000f03a:    2f01        ./      CMP      r7,#1
        0x0000f03c:    db0e        ..      BLT      0xf05c ; prvUnlockQueue + 100
        0x0000f03e:    f1040510    ....    ADD      r5,r4,#0x10
        0x0000f042:    bf00        ..      NOP      
        0x0000f044:    6828        (h      LDR      r0,[r5,#0]
        0x0000f046:    b148        H.      CBZ      r0,0xf05c ; prvUnlockQueue + 100
        0x0000f048:    4628        (F      MOV      r0,r5
        0x0000f04a:    f001fa45    ..E.    BL       xTaskRemoveFromEventList ; 0x104d8
        0x0000f04e:    b108        ..      CBZ      r0,0xf054 ; prvUnlockQueue + 92
        0x0000f050:    f000fb4f    ..O.    BL       vTaskMissedYield ; 0xf6f2
        0x0000f054:    b278        x.      SXTB     r0,r7
        0x0000f056:    3f01        .?      SUBS     r7,#1
        0x0000f058:    2801        .(      CMP      r0,#1
        0x0000f05a:    dcf3        ..      BGT      0xf044 ; prvUnlockQueue + 76
        0x0000f05c:    f8846044    ..D`    STRB     r6,[r4,#0x44]
        0x0000f060:    b001        ..      ADD      sp,sp,#4
        0x0000f062:    e8bd40f0    ...@    POP      {r4-r7,lr}
        0x0000f066:    f000ba17    ....    B.W      vPortExitCritical ; 0xf498
        0x0000f06a:    0000        ..      MOVS     r0,r0
    pvPortMalloc
        0x0000f06c:    b5b0        ..      PUSH     {r4,r5,r7,lr}
        0x0000f06e:    4604        .F      MOV      r4,r0
        0x0000f070:    f000fc93    ....    BL       vTaskSuspendAll ; 0xf99a
        0x0000f074:    f241708c    A..p    MOV      r0,#0x178c
        0x0000f078:    f2c10000    ....    MOVT     r0,#0x1000
        0x0000f07c:    7801        .x      LDRB     r1,[r0,#0]
        0x0000f07e:    b9c9        ..      CBNZ     r1,0xf0b4 ; pvPortMalloc + 72
        0x0000f080:    f24171f4    A..q    MOV      r1,#0x17f4
        0x0000f084:    f2c10100    ....    MOVT     r1,#0x1000
        0x0000f088:    3108        .1      ADDS     r1,r1,#8
        0x0000f08a:    f645029c    E...    MOV      r2,#0x589c
        0x0000f08e:    f0210107    !...    BIC      r1,r1,#7
        0x0000f092:    f2c10200    ....    MOVT     r2,#0x1000
        0x0000f096:    2300        .#      MOVS     r3,#0
        0x0000f098:    e9c21300    ....    STRD     r1,r3,[r2,#0]
        0x0000f09c:    f6450264    E.d.    MOV      r2,#0x5864
        0x0000f0a0:    f2c10200    ....    MOVT     r2,#0x1000
        0x0000f0a4:    f64375f8    C..u    MOV      r5,#0x3ff8
        0x0000f0a8:    e9c23500    ...5    STRD     r3,r5,[r2,#0]
        0x0000f0ac:    e9c12500    ...%    STRD     r2,r5,[r1,#0]
        0x0000f0b0:    2101        .!      MOVS     r1,#1
        0x0000f0b2:    7001        .p      STRB     r1,[r0,#0]
        0x0000f0b4:    2c00        .,      CMP      r4,#0
        0x0000f0b6:    d053        S.      BEQ      0xf160 ; pvPortMalloc + 244
        0x0000f0b8:    0760        `.      LSLS     r0,r4,#29
        0x0000f0ba:    f0240007    $...    BIC      r0,r4,#7
        0x0000f0be:    bf18        ..      IT       NE
        0x0000f0c0:    f1000408    ....    ADDNE    r4,r0,#8
        0x0000f0c4:    1de0        ..      ADDS     r0,r4,#7
        0x0000f0c6:    f64371f6    C..q    MOV      r1,#0x3ff6
        0x0000f0ca:    4288        .B      CMP      r0,r1
        0x0000f0cc:    d848        H.      BHI      0xf160 ; pvPortMalloc + 244
        0x0000f0ce:    f645009c    E...    MOV      r0,#0x589c
        0x0000f0d2:    f2c10000    ....    MOVT     r0,#0x1000
        0x0000f0d6:    6803        .h      LDR      r3,[r0,#0]
        0x0000f0d8:    f1040e08    ....    ADD      lr,r4,#8
        0x0000f0dc:    469c        .F      MOV      r12,r3
        0x0000f0de:    f85c2f04    \../    LDR      r2,[r12,#4]!
        0x0000f0e2:    4572        rE      CMP      r2,lr
        0x0000f0e4:    d211        ..      BCS      0xf10a ; pvPortMalloc + 158
        0x0000f0e6:    6819        .h      LDR      r1,[r3,#0]
        0x0000f0e8:    b159        Y.      CBZ      r1,0xf102 ; pvPortMalloc + 150
        0x0000f0ea:    bf00        ..      NOP      
        0x0000f0ec:    684a        Jh      LDR      r2,[r1,#4]
        0x0000f0ee:    4618        .F      MOV      r0,r3
        0x0000f0f0:    460b        .F      MOV      r3,r1
        0x0000f0f2:    4572        rE      CMP      r2,lr
        0x0000f0f4:    d202        ..      BCS      0xf0fc ; pvPortMalloc + 144
        0x0000f0f6:    6819        .h      LDR      r1,[r3,#0]
        0x0000f0f8:    2900        .)      CMP      r1,#0
        0x0000f0fa:    d1f7        ..      BNE      0xf0ec ; pvPortMalloc + 128
        0x0000f0fc:    f1030c04    ....    ADD      r12,r3,#4
        0x0000f100:    e003        ..      B        0xf10a ; pvPortMalloc + 158
        0x0000f102:    f645009c    E...    MOV      r0,#0x589c
        0x0000f106:    f2c10000    ....    MOVT     r0,#0x1000
        0x0000f10a:    f6450164    E.d.    MOV      r1,#0x5864
        0x0000f10e:    f2c10100    ....    MOVT     r1,#0x1000
        0x0000f112:    428b        .B      CMP      r3,r1
        0x0000f114:    d024        $.      BEQ      0xf160 ; pvPortMalloc + 244
        0x0000f116:    6801        .h      LDR      r1,[r0,#0]
        0x0000f118:    eba2050e    ....    SUB      r5,r2,lr
        0x0000f11c:    f1010408    ....    ADD      r4,r1,#8
        0x0000f120:    6819        .h      LDR      r1,[r3,#0]
        0x0000f122:    2d11        .-      CMP      r5,#0x11
        0x0000f124:    6001        .`      STR      r1,[r0,#0]
        0x0000f126:    d311        ..      BCC      0xf14c ; pvPortMalloc + 224
        0x0000f128:    eb03010e    ....    ADD      r1,r3,lr
        0x0000f12c:    604d        M`      STR      r5,[r1,#4]
        0x0000f12e:    f8cce000    ....    STR      lr,[r12,#0]
        0x0000f132:    6848        Hh      LDR      r0,[r1,#4]
        0x0000f134:    f645029c    E...    MOV      r2,#0x589c
        0x0000f138:    f2c10200    ....    MOVT     r2,#0x1000
        0x0000f13c:    4613        .F      MOV      r3,r2
        0x0000f13e:    6812        .h      LDR      r2,[r2,#0]
        0x0000f140:    6855        Uh      LDR      r5,[r2,#4]
        0x0000f142:    4285        .B      CMP      r5,r0
        0x0000f144:    d3fa        ..      BCC      0xf13c ; pvPortMalloc + 208
        0x0000f146:    600a        .`      STR      r2,[r1,#0]
        0x0000f148:    4672        rF      MOV      r2,lr
        0x0000f14a:    6019        .`      STR      r1,[r3,#0]
        0x0000f14c:    f241002c    A.,.    MOV      r0,#0x102c
        0x0000f150:    f2c10000    ....    MOVT     r0,#0x1000
        0x0000f154:    6801        .h      LDR      r1,[r0,#0]
        0x0000f156:    1a89        ..      SUBS     r1,r1,r2
        0x0000f158:    6001        .`      STR      r1,[r0,#0]
        0x0000f15a:    f001fa0f    ....    BL       xTaskResumeAll ; 0x1057c
        0x0000f15e:    e004        ..      B        0xf16a ; pvPortMalloc + 254
        0x0000f160:    f001fa0c    ....    BL       xTaskResumeAll ; 0x1057c
        0x0000f164:    f000f934    ..4.    BL       vApplicationMallocFailedHook ; 0xf3d0
        0x0000f168:    2400        .$      MOVS     r4,#0
        0x0000f16a:    4620         F      MOV      r0,r4
        0x0000f16c:    bdb0        ..      POP      {r4,r5,r7,pc}
    pxPortInitialiseStack
        0x0000f16e:    4603        .F      MOV      r3,r0
        0x0000f170:    f64e601d    N..`    MOV      r0,#0xee1d
        0x0000f174:    f2c00000    ....    MOVT     r0,#0
        0x0000f178:    f04f7c80    O..|    MOV      r12,#0x1000000
        0x0000f17c:    f0210101    !...    BIC      r1,r1,#1
        0x0000f180:    e9031003    ....    STMDB    r3,{r0,r1,r12}
        0x0000f184:    f06f0002    o...    MVN      r0,#2
        0x0000f188:    f8430c24    C.$.    STR      r0,[r3,#-0x24]
        0x0000f18c:    f1a30044    ..D.    SUB      r0,r3,#0x44
        0x0000f190:    f8432c20    C. ,    STR      r2,[r3,#-0x20]
        0x0000f194:    4770        pG      BX       lr
        0x0000f196:    0000        ..      MOVS     r0,r0
    run_tasks
        0x0000f198:    b580        ..      PUSH     {r7,lr}
        0x0000f19a:    b082        ..      SUB      sp,sp,#8
        0x0000f19c:    2003        .       MOVS     r0,#3
        0x0000f19e:    f6450c98    E...    MOV      r12,#0x5898
        0x0000f1a2:    9000        ..      STR      r0,[sp,#0]
        0x0000f1a4:    f24f20d9    O..     MOV      r0,#0xf2d9
        0x0000f1a8:    f2c10c00    ....    MOVT     r12,#0x1000
        0x0000f1ac:    f2c00000    ....    MOVT     r0,#0
        0x0000f1b0:    a105        ..      ADR      r1,{pc}+0x18 ; 0xf1c8
        0x0000f1b2:    2280        ."      MOVS     r2,#0x80
        0x0000f1b4:    2300        .#      MOVS     r3,#0
        0x0000f1b6:    f8cdc004    ....    STR      r12,[sp,#4]
        0x0000f1ba:    f000fff5    ....    BL       xTaskCreate ; 0x101a8
        0x0000f1be:    b002        ..      ADD      sp,sp,#8
        0x0000f1c0:    e8bd4080    ...@    POP      {r7,lr}
        0x0000f1c4:    f000bb24    ..$.    B.W      vTaskStartScheduler ; 0xf810
    $d.8
        0x0000f1c8:    75746553    Setu    DCD    1970562387
        0x0000f1cc:    00000070    p...    DCD    112
    $t.6
    set_LPMMODE
        0x0000f1d0:    e92d41f0    -..A    PUSH     {r4-r8,lr}
        0x0000f1d4:    b082        ..      SUB      sp,sp,#8
        0x0000f1d6:    4680        .F      MOV      r8,r0
        0x0000f1d8:    2803        .(      CMP      r0,#3
        0x0000f1da:    d81e        ..      BHI      0xf21a ; set_LPMMODE + 74
        0x0000f1dc:    f44f5040    O.@P    MOV      r0,#0x3000
        0x0000f1e0:    f2481400    H...    MOVW     r4,#0x8100
        0x0000f1e4:    ea003608    ...6    AND      r6,r0,r8,LSL #12
        0x0000f1e8:    2700        .'      MOVS     r7,#0
        0x0000f1ea:    f2c40401    ....    MOVT     r4,#0x4001
        0x0000f1ee:    bf00        ..      NOP      
        0x0000f1f0:    193d        =.      ADDS     r5,r7,r4
        0x0000f1f2:    f7fef93d    ..=.    BL       am_hal_interrupt_master_disable ; 0xd470
        0x0000f1f6:    9001        ..      STR      r0,[sp,#4]
        0x0000f1f8:    4628        (F      MOV      r0,r5
        0x0000f1fa:    f7fdfecd    ....    BL       am_hal_flash_load_ui32 ; 0xcf98
        0x0000f1fe:    f420507c     .|P    BIC      r0,r0,#0x3f00
        0x0000f202:    4330        0C      ORRS     r0,r0,r6
        0x0000f204:    f44061e0    @..a    ORR      r1,r0,#0x700
        0x0000f208:    4628        (F      MOV      r0,r5
        0x0000f20a:    f7fdfec9    ....    BL       am_hal_flash_store_ui32 ; 0xcfa0
        0x0000f20e:    9801        ..      LDR      r0,[sp,#4]
        0x0000f210:    f7fef936    ..6.    BL       am_hal_interrupt_master_set ; 0xd480
        0x0000f214:    3704        .7      ADDS     r7,#4
        0x0000f216:    2f10        ./      CMP      r7,#0x10
        0x0000f218:    d1ea        ..      BNE      0xf1f0 ; set_LPMMODE + 32
        0x0000f21a:    2000        .       MOVS     r0,#0
        0x0000f21c:    f1b80f04    ....    CMP      r8,#4
        0x0000f220:    bf38        8.      IT       CC
        0x0000f222:    2001        .       MOVCC    r0,#1
        0x0000f224:    b002        ..      ADD      sp,sp,#8
        0x0000f226:    e8bd81f0    ....    POP      {r4-r8,pc}
        0x0000f22a:    0000        ..      MOVS     r0,r0
    set_RDWAIT
        0x0000f22c:    e92d41f0    -..A    PUSH     {r4-r8,lr}
        0x0000f230:    b082        ..      SUB      sp,sp,#8
        0x0000f232:    4604        .F      MOV      r4,r0
        0x0000f234:    280f        .(      CMP      r0,#0xf
        0x0000f236:    d81c        ..      BHI      0xf272 ; set_RDWAIT + 70
        0x0000f238:    f2481800    H...    MOVW     r8,#0x8100
        0x0000f23c:    2600        .&      MOVS     r6,#0
        0x0000f23e:    f2c40801    ....    MOVT     r8,#0x4001
        0x0000f242:    f640770f    @..w    MOV      r7,#0xf0f
        0x0000f246:    bf00        ..      NOP      
        0x0000f248:    eb060508    ....    ADD      r5,r6,r8
        0x0000f24c:    f7fef910    ....    BL       am_hal_interrupt_master_disable ; 0xd470
        0x0000f250:    9001        ..      STR      r0,[sp,#4]
        0x0000f252:    4628        (F      MOV      r0,r5
        0x0000f254:    f7fdfea0    ....    BL       am_hal_flash_load_ui32 ; 0xcf98
        0x0000f258:    43b8        .C      BICS     r0,r0,r7
        0x0000f25a:    4320         C      ORRS     r0,r0,r4
        0x0000f25c:    f44061e0    @..a    ORR      r1,r0,#0x700
        0x0000f260:    4628        (F      MOV      r0,r5
        0x0000f262:    f7fdfe9d    ....    BL       am_hal_flash_store_ui32 ; 0xcfa0
        0x0000f266:    9801        ..      LDR      r0,[sp,#4]
        0x0000f268:    f7fef90a    ....    BL       am_hal_interrupt_master_set ; 0xd480
        0x0000f26c:    3604        .6      ADDS     r6,#4
        0x0000f26e:    2e10        ..      CMP      r6,#0x10
        0x0000f270:    d1ea        ..      BNE      0xf248 ; set_RDWAIT + 28
        0x0000f272:    2000        .       MOVS     r0,#0
        0x0000f274:    2c10        .,      CMP      r4,#0x10
        0x0000f276:    bf38        8.      IT       CC
        0x0000f278:    2001        .       MOVCC    r0,#1
        0x0000f27a:    b002        ..      ADD      sp,sp,#8
        0x0000f27c:    e8bd81f0    ....    POP      {r4-r8,pc}
    set_SEDELAY
        0x0000f280:    e92d41f0    -..A    PUSH     {r4-r8,lr}
        0x0000f284:    b082        ..      SUB      sp,sp,#8
        0x0000f286:    4680        .F      MOV      r8,r0
        0x0000f288:    2807        .(      CMP      r0,#7
        0x0000f28a:    d81c        ..      BHI      0xf2c6 ; set_SEDELAY + 70
        0x0000f28c:    2070        p       MOVS     r0,#0x70
        0x0000f28e:    f2481400    H...    MOVW     r4,#0x8100
        0x0000f292:    ea001608    ....    AND      r6,r0,r8,LSL #4
        0x0000f296:    2700        .'      MOVS     r7,#0
        0x0000f298:    f2c40401    ....    MOVT     r4,#0x4001
        0x0000f29c:    193d        =.      ADDS     r5,r7,r4
        0x0000f29e:    f7fef8e7    ....    BL       am_hal_interrupt_master_disable ; 0xd470
        0x0000f2a2:    9001        ..      STR      r0,[sp,#4]
        0x0000f2a4:    4628        (F      MOV      r0,r5
        0x0000f2a6:    f7fdfe77    ..w.    BL       am_hal_flash_load_ui32 ; 0xcf98
        0x0000f2aa:    f4206077     .w`    BIC      r0,r0,#0xf70
        0x0000f2ae:    4330        0C      ORRS     r0,r0,r6
        0x0000f2b0:    f50061e0    ...a    ADD      r1,r0,#0x700
        0x0000f2b4:    4628        (F      MOV      r0,r5
        0x0000f2b6:    f7fdfe73    ..s.    BL       am_hal_flash_store_ui32 ; 0xcfa0
        0x0000f2ba:    9801        ..      LDR      r0,[sp,#4]
        0x0000f2bc:    f7fef8e0    ....    BL       am_hal_interrupt_master_set ; 0xd480
        0x0000f2c0:    3704        .7      ADDS     r7,#4
        0x0000f2c2:    2f10        ./      CMP      r7,#0x10
        0x0000f2c4:    d1ea        ..      BNE      0xf29c ; set_SEDELAY + 28
        0x0000f2c6:    2000        .       MOVS     r0,#0
        0x0000f2c8:    f1b80f08    ....    CMP      r8,#8
        0x0000f2cc:    bf38        8.      IT       CC
        0x0000f2ce:    2001        .       MOVCC    r0,#1
        0x0000f2d0:    b002        ..      ADD      sp,sp,#8
        0x0000f2d2:    e8bd81f0    ....    POP      {r4-r8,pc}
        0x0000f2d6:    0000        ..      MOVS     r0,r0
    setup_task
        0x0000f2d8:    b082        ..      SUB      sp,sp,#8
        0x0000f2da:    a00f        ..      ADR      r0,{pc}+0x3e ; 0xf318
        0x0000f2dc:    f7feff26    ..&.    BL       am_util_stdio_printf ; 0xe12c
        0x0000f2e0:    f7fdf89e    ....    BL       LedTaskSetup ; 0xc420
        0x0000f2e4:    f7fffb66    ..f.    BL       disable_print_interface ; 0xe9b4
        0x0000f2e8:    2003        .       MOVS     r0,#3
        0x0000f2ea:    f2417c84    A..|    MOV      r12,#0x1784
        0x0000f2ee:    9000        ..      STR      r0,[sp,#0]
        0x0000f2f0:    f24c30cd    L..0    MOV      r0,#0xc3cd
        0x0000f2f4:    f2c10c00    ....    MOVT     r12,#0x1000
        0x0000f2f8:    f2c00000    ....    MOVT     r0,#0
        0x0000f2fc:    a10d        ..      ADR      r1,{pc}+0x38 ; 0xf334
        0x0000f2fe:    f44f7200    O..r    MOV      r2,#0x200
        0x0000f302:    2300        .#      MOVS     r3,#0
        0x0000f304:    f8cdc004    ....    STR      r12,[sp,#4]
        0x0000f308:    f000ff4e    ..N.    BL       xTaskCreate ; 0x101a8
        0x0000f30c:    2000        .       MOVS     r0,#0
        0x0000f30e:    f000fad7    ....    BL       vTaskSuspend ; 0xf8c0
        0x0000f312:    bf00        ..      NOP      
        0x0000f314:    e7fe        ..      B        0xf314 ; setup_task + 60
        0x0000f316:    bf00        ..      NOP      
    $d.6
        0x0000f318:    6e6e7552    Runn    DCD    1852732754
        0x0000f31c:    20676e69    ing     DCD    543649385
        0x0000f320:    75746573    setu    DCD    1970562419
        0x0000f324:    61742070    p ta    DCD    1635000432
        0x0000f328:    2e736b73    sks.    DCD    779316083
        0x0000f32c:    0a0d2e2e    ....    DCD    168635950
        0x0000f330:    00000000    ....    DCD    0
        0x0000f334:    5444454c    LEDT    DCD    1413760332
        0x0000f338:    006b7361    ask.    DCD    7041889
    $t.7
    uint64_to_str
        0x0000f33c:    b5f0        ..      PUSH     {r4-r7,lr}
        0x0000f33e:    b087        ..      SUB      sp,sp,#0x1c
        0x0000f340:    4614        .F      MOV      r4,r2
        0x0000f342:    4605        .F      MOV      r5,r0
        0x0000f344:    2000        .       MOVS     r0,#0
        0x0000f346:    f10d0603    ....    ADD      r6,sp,#3
        0x0000f34a:    bf00        ..      NOP      
        0x0000f34c:    4607        .F      MOV      r7,r0
        0x0000f34e:    4628        (F      MOV      r0,r5
        0x0000f350:    f7fffb32    ..2.    BL       divu64_10 ; 0xe9b8
        0x0000f354:    4602        .F      MOV      r2,r0
        0x0000f356:    eb000080    ....    ADD      r0,r0,r0,LSL #2
        0x0000f35a:    eba50040    ..@.    SUB      r0,r5,r0,LSL #1
        0x0000f35e:    f1000330    ..0.    ADD      r3,r0,#0x30
        0x0000f362:    1c78        x.      ADDS     r0,r7,#1
        0x0000f364:    55f3        .U      STRB     r3,[r6,r7]
        0x0000f366:    ea520701    R...    ORRS     r7,r2,r1
        0x0000f36a:    4615        .F      MOV      r5,r2
        0x0000f36c:    d1ee        ..      BNE      0xf34c ; uint64_to_str + 16
        0x0000f36e:    b16c        l.      CBZ      r4,0xf38c ; uint64_to_str + 80
        0x0000f370:    2801        .(      CMP      r0,#1
        0x0000f372:    f8043b01    ...;    STRB     r3,[r4],#1
        0x0000f376:    d007        ..      BEQ      0xf388 ; uint64_to_str + 76
        0x0000f378:    1eb1        ..      SUBS     r1,r6,#2
        0x0000f37a:    4602        .F      MOV      r2,r0
        0x0000f37c:    5c8b        .\      LDRB     r3,[r1,r2]
        0x0000f37e:    3a01        .:      SUBS     r2,#1
        0x0000f380:    2a01        .*      CMP      r2,#1
        0x0000f382:    f8043b01    ...;    STRB     r3,[r4],#1
        0x0000f386:    d1f9        ..      BNE      0xf37c ; uint64_to_str + 64
        0x0000f388:    2100        .!      MOVS     r1,#0
        0x0000f38a:    7021        !p      STRB     r1,[r4,#0]
        0x0000f38c:    b007        ..      ADD      sp,sp,#0x1c
        0x0000f38e:    bdf0        ..      POP      {r4-r7,pc}
    uxListRemove
        0x0000f390:    e9d03201    ...2    LDRD     r3,r2,[r0,#4]
        0x0000f394:    6901        .i      LDR      r1,[r0,#0x10]
        0x0000f396:    609a        .`      STR      r2,[r3,#8]
        0x0000f398:    f8d1c004    ....    LDR      r12,[r1,#4]
        0x0000f39c:    6882        .h      LDR      r2,[r0,#8]
        0x0000f39e:    4584        .E      CMP      r12,r0
        0x0000f3a0:    6053        S`      STR      r3,[r2,#4]
        0x0000f3a2:    bf08        ..      IT       EQ
        0x0000f3a4:    604a        J`      STREQ    r2,[r1,#4]
        0x0000f3a6:    2200        ."      MOVS     r2,#0
        0x0000f3a8:    6102        .a      STR      r2,[r0,#0x10]
        0x0000f3aa:    6808        .h      LDR      r0,[r1,#0]
        0x0000f3ac:    3801        .8      SUBS     r0,#1
        0x0000f3ae:    6008        .`      STR      r0,[r1,#0]
        0x0000f3b0:    6808        .h      LDR      r0,[r1,#0]
        0x0000f3b2:    4770        pG      BX       lr
    uxTaskResetEventItemValue
        0x0000f3b4:    f2417190    A..q    MOV      r1,#0x1790
        0x0000f3b8:    f2c10100    ....    MOVT     r1,#0x1000
        0x0000f3bc:    6808        .h      LDR      r0,[r1,#0]
        0x0000f3be:    6980        .i      LDR      r0,[r0,#0x18]
        0x0000f3c0:    680a        .h      LDR      r2,[r1,#0]
        0x0000f3c2:    6ad2        .j      LDR      r2,[r2,#0x2c]
        0x0000f3c4:    6809        .h      LDR      r1,[r1,#0]
        0x0000f3c6:    f1c20204    ....    RSB      r2,r2,#4
        0x0000f3ca:    618a        .a      STR      r2,[r1,#0x18]
        0x0000f3cc:    4770        pG      BX       lr
        0x0000f3ce:    0000        ..      MOVS     r0,r0
    vApplicationMallocFailedHook
        0x0000f3d0:    e7fe        ..      B        vApplicationMallocFailedHook ; 0xf3d0
        0x0000f3d2:    0000        ..      MOVS     r0,r0
    vApplicationStackOverflowHook
        0x0000f3d4:    be00        ..      BKPT     #0
        0x0000f3d6:    e7fd        ..      B        vApplicationStackOverflowHook ; 0xf3d4
    vEventGroupSetBitsCallback
        0x0000f3d8:    f000bb52    ..R.    B.W      xEventGroupSetBits ; 0xfa80
    vListInitialise
        0x0000f3dc:    f04f31ff    O..1    MOV      r1,#0xffffffff
        0x0000f3e0:    4602        .F      MOV      r2,r0
        0x0000f3e2:    f8421f08    B...    STR      r1,[r2,#8]!
        0x0000f3e6:    2100        .!      MOVS     r1,#0
        0x0000f3e8:    6042        B`      STR      r2,[r0,#4]
        0x0000f3ea:    e9c02203    ..."    STRD     r2,r2,[r0,#0xc]
        0x0000f3ee:    6001        .`      STR      r1,[r0,#0]
        0x0000f3f0:    4770        pG      BX       lr
    vListInitialiseItem
        0x0000f3f2:    2100        .!      MOVS     r1,#0
        0x0000f3f4:    6101        .a      STR      r1,[r0,#0x10]
        0x0000f3f6:    4770        pG      BX       lr
    vListInsert
        0x0000f3f8:    b580        ..      PUSH     {r7,lr}
        0x0000f3fa:    f8d1c000    ....    LDR      r12,[r1,#0]
        0x0000f3fe:    f11c0201    ....    ADDS     r2,r12,#1
        0x0000f402:    d007        ..      BEQ      0xf414 ; vListInsert + 28
        0x0000f404:    f1000208    ....    ADD      r2,r0,#8
        0x0000f408:    4696        .F      MOV      lr,r2
        0x0000f40a:    6852        Rh      LDR      r2,[r2,#4]
        0x0000f40c:    6813        .h      LDR      r3,[r2,#0]
        0x0000f40e:    4563        cE      CMP      r3,r12
        0x0000f410:    d9fa        ..      BLS      0xf408 ; vListInsert + 16
        0x0000f412:    e003        ..      B        0xf41c ; vListInsert + 36
        0x0000f414:    f8d0e010    ....    LDR      lr,[r0,#0x10]
        0x0000f418:    f8de2004    ...     LDR      r2,[lr,#4]
        0x0000f41c:    604a        J`      STR      r2,[r1,#4]
        0x0000f41e:    6091        .`      STR      r1,[r2,#8]
        0x0000f420:    f8c1e008    ....    STR      lr,[r1,#8]
        0x0000f424:    f8ce1004    ....    STR      r1,[lr,#4]
        0x0000f428:    6108        .a      STR      r0,[r1,#0x10]
        0x0000f42a:    6801        .h      LDR      r1,[r0,#0]
        0x0000f42c:    3101        .1      ADDS     r1,#1
        0x0000f42e:    6001        .`      STR      r1,[r0,#0]
        0x0000f430:    bd80        ..      POP      {r7,pc}
    vListInsertEnd
        0x0000f432:    f8d0c000    ....    LDR      r12,[r0,#0]
        0x0000f436:    6843        Ch      LDR      r3,[r0,#4]
        0x0000f438:    6108        .a      STR      r0,[r1,#0x10]
        0x0000f43a:    689a        .h      LDR      r2,[r3,#8]
        0x0000f43c:    604b        K`      STR      r3,[r1,#4]
        0x0000f43e:    608a        .`      STR      r2,[r1,#8]
        0x0000f440:    689a        .h      LDR      r2,[r3,#8]
        0x0000f442:    6099        .`      STR      r1,[r3,#8]
        0x0000f444:    6051        Q`      STR      r1,[r2,#4]
        0x0000f446:    f10c0101    ....    ADD      r1,r12,#1
        0x0000f44a:    6001        .`      STR      r1,[r0,#0]
        0x0000f44c:    4770        pG      BX       lr
        0x0000f44e:    0000        ..      MOVS     r0,r0
    vPortEnableVFP
        0x0000f450:    f8df000c    ....    LDR.W    r0,[pc,#12] ; [0xf460] = 0xe000ed88
        0x0000f454:    6801        .h      LDR      r1,[r0,#0]
        0x0000f456:    f4410170    A.p.    ORR      r1,r1,#0xf00000
        0x0000f45a:    6001        .`      STR      r1,[r0,#0]
        0x0000f45c:    4770        pG      BX       lr
        0x0000f45e:    bf00        ..      NOP      
    $d.19
        0x0000f460:    e000ed88    ....    DCD    3758157192
    $t.9
    vPortEnterCritical
        0x0000f464:    f04f0080    O...    MOV      r0,#0x80
        0x0000f468:    f3808811    ....    MSR      BASEPRI,r0
        0x0000f46c:    f3bf8f6f    ..o.    ISB      
        0x0000f470:    f3bf8f4f    ..O.    DSB      
        0x0000f474:    f2410028    A.(.    MOV      r0,#0x1028
        0x0000f478:    f2c10000    ....    MOVT     r0,#0x1000
        0x0000f47c:    6801        .h      LDR      r1,[r0,#0]
        0x0000f47e:    1c4a        J.      ADDS     r2,r1,#1
        0x0000f480:    6002        .`      STR      r2,[r0,#0]
        0x0000f482:    b941        A.      CBNZ     r1,0xf496 ; vPortEnterCritical + 50
        0x0000f484:    f64e5004    N..P    MOV      r0,#0xed04
        0x0000f488:    f2ce0000    ....    MOVT     r0,#0xe000
        0x0000f48c:    6800        .h      LDR      r0,[r0,#0]
        0x0000f48e:    0600        ..      LSLS     r0,r0,#24
        0x0000f490:    d001        ..      BEQ      0xf496 ; vPortEnterCritical + 50
        0x0000f492:    bf00        ..      NOP      
        0x0000f494:    e7fe        ..      B        0xf494 ; vPortEnterCritical + 48
        0x0000f496:    4770        pG      BX       lr
    vPortExitCritical
        0x0000f498:    f2410028    A.(.    MOV      r0,#0x1028
        0x0000f49c:    f2c10000    ....    MOVT     r0,#0x1000
        0x0000f4a0:    6801        .h      LDR      r1,[r0,#0]
        0x0000f4a2:    b139        9.      CBZ      r1,0xf4b4 ; vPortExitCritical + 28
        0x0000f4a4:    3901        .9      SUBS     r1,#1
        0x0000f4a6:    6001        .`      STR      r1,[r0,#0]
        0x0000f4a8:    bf18        ..      IT       NE
        0x0000f4aa:    4770        pG      BXNE     lr
        0x0000f4ac:    2000        .       MOVS     r0,#0
        0x0000f4ae:    f3808811    ....    MSR      BASEPRI,r0
        0x0000f4b2:    4770        pG      BX       lr
        0x0000f4b4:    e7fe        ..      B        0xf4b4 ; vPortExitCritical + 28
        0x0000f4b6:    0000        ..      MOVS     r0,r0
    vPortFree
        0x0000f4b8:    b1e8        ..      CBZ      r0,0xf4f6 ; vPortFree + 62
        0x0000f4ba:    b510        ..      PUSH     {r4,lr}
        0x0000f4bc:    4604        .F      MOV      r4,r0
        0x0000f4be:    f000fa6c    ..l.    BL       vTaskSuspendAll ; 0xf99a
        0x0000f4c2:    f8540c04    T...    LDR      r0,[r4,#-4]
        0x0000f4c6:    f645029c    E...    MOV      r2,#0x589c
        0x0000f4ca:    f2c10200    ....    MOVT     r2,#0x1000
        0x0000f4ce:    bf00        ..      NOP      
        0x0000f4d0:    4611        .F      MOV      r1,r2
        0x0000f4d2:    6812        .h      LDR      r2,[r2,#0]
        0x0000f4d4:    6853        Sh      LDR      r3,[r2,#4]
        0x0000f4d6:    4283        .B      CMP      r3,r0
        0x0000f4d8:    d3fa        ..      BCC      0xf4d0 ; vPortFree + 24
        0x0000f4da:    f8442d08    D..-    STR      r2,[r4,#-8]!
        0x0000f4de:    f241022c    A.,.    MOV      r2,#0x102c
        0x0000f4e2:    f2c10200    ....    MOVT     r2,#0x1000
        0x0000f4e6:    6813        .h      LDR      r3,[r2,#0]
        0x0000f4e8:    600c        .`      STR      r4,[r1,#0]
        0x0000f4ea:    4418        .D      ADD      r0,r0,r3
        0x0000f4ec:    6010        .`      STR      r0,[r2,#0]
        0x0000f4ee:    e8bd4010    ...@    POP      {r4,lr}
        0x0000f4f2:    f001b843    ..C.    B.W      xTaskResumeAll ; 0x1057c
        0x0000f4f6:    4770        pG      BX       lr
    vPortSetupTimerInterrupt
        0x0000f4f8:    b5b0        ..      PUSH     {r4,r5,r7,lr}
        0x0000f4fa:    f24575fc    E..u    MOV      r5,#0x57fc
        0x0000f4fe:    f2c10500    ....    MOVT     r5,#0x1000
        0x0000f502:    2020                MOVS     r0,#0x20
        0x0000f504:    6028        (`      STR      r0,[r5,#0]
        0x0000f506:    f6450074    E.t.    MOV      r0,#0x5874
        0x0000f50a:    f2c10000    ....    MOVT     r0,#0x1000
        0x0000f50e:    2101        .!      MOVS     r1,#1
        0x0000f510:    7001        .p      STRB     r1,[r0,#0]
        0x0000f512:    2003        .       MOVS     r0,#3
        0x0000f514:    f7fefb77    ..w.    BL       am_hal_stimer_int_enable ; 0xdc06
        0x0000f518:    f24e4017    N..@    MOV      r0,#0xe417
        0x0000f51c:    f2ce0000    ....    MOVT     r0,#0xe000
        0x0000f520:    21e0        .!      MOVS     r1,#0xe0
        0x0000f522:    f24e1200    N...    MOVW     r2,#0xe100
        0x0000f526:    7001        .p      STRB     r1,[r0,#0]
        0x0000f528:    f2ce0200    ....    MOVT     r2,#0xe000
        0x0000f52c:    f44f0300    O...    MOV      r3,#0x800000
        0x0000f530:    6013        .`      STR      r3,[r2,#0]
        0x0000f532:    7041        Ap      STRB     r1,[r0,#1]
        0x0000f534:    f04f7080    O..p    MOV      r0,#0x1000000
        0x0000f538:    6010        .`      STR      r0,[r2,#0]
        0x0000f53a:    f04f4000    O..@    MOV      r0,#0x80000000
        0x0000f53e:    f7fefb42    ..B.    BL       am_hal_stimer_config ; 0xdbc6
        0x0000f542:    4604        .F      MOV      r4,r0
        0x0000f544:    f7fefb48    ..H.    BL       am_hal_stimer_counter_get ; 0xdbd8
        0x0000f548:    f2411228    A.(.    MOV      r2,#0x1128
        0x0000f54c:    f2c10200    ....    MOVT     r2,#0x1000
        0x0000f550:    6829        )h      LDR      r1,[r5,#0]
        0x0000f552:    6010        .`      STR      r0,[r2,#0]
        0x0000f554:    2000        .       MOVS     r0,#0
        0x0000f556:    f7fefae5    ....    BL       am_hal_stimer_compare_delta_set ; 0xdb24
        0x0000f55a:    6828        (h      LDR      r0,[r5,#0]
        0x0000f55c:    1c41        A.      ADDS     r1,r0,#1
        0x0000f55e:    2001        .       MOVS     r0,#1
        0x0000f560:    f7fefae0    ....    BL       am_hal_stimer_compare_delta_set ; 0xdb24
        0x0000f564:    f64f40f0    O..@    MOV      r0,#0xfcf0
        0x0000f568:    f6c770ff    ...p    MOVT     r0,#0x7fff
        0x0000f56c:    4020         @      ANDS     r0,r0,r4
        0x0000f56e:    f2003003    ...0    ADD      r0,r0,#0x303
        0x0000f572:    e8bd40b0    ...@    POP      {r4,r5,r7,lr}
        0x0000f576:    f7febb26    ..&.    B        am_hal_stimer_config ; 0xdbc6
    vPortSuppressTicksAndSleep
        0x0000f57a:    e92d43f0    -..C    PUSH     {r4-r9,lr}
        0x0000f57e:    b081        ..      SUB      sp,sp,#4
        0x0000f580:    f6450174    E.t.    MOV      r1,#0x5874
        0x0000f584:    f2c10100    ....    MOVT     r1,#0x1000
        0x0000f588:    780c        .x      LDRB     r4,[r1,#0]
        0x0000f58a:    f24579fc    E..y    MOV      r9,#0x57fc
        0x0000f58e:    2c00        .,      CMP      r4,#0
        0x0000f590:    bf1c        ..      ITT      NE
        0x0000f592:    f64f74fe    O..t    MOVNE    r4,#0xfffe
        0x0000f596:    f2c074ff    ...t    MOVTNE   r4,#0x7ff
        0x0000f59a:    f2c10900    ....    MOVT     r9,#0x1000
        0x0000f59e:    4284        .B      CMP      r4,r0
        0x0000f5a0:    bf28        (.      IT       CS
        0x0000f5a2:    4604        .F      MOVCS    r4,r0
        0x0000f5a4:    f8d97000    ...p    LDR      r7,[r9,#0]
        0x0000f5a8:    b672        r.      CPSID    i
        0x0000f5aa:    f3bf8f4f    ..O.    DSB      
        0x0000f5ae:    f3bf8f6f    ..o.    ISB      
        0x0000f5b2:    f7fefb11    ....    BL       am_hal_stimer_counter_get ; 0xdbd8
        0x0000f5b6:    f2411828    A.(.    MOV      r8,#0x1128
        0x0000f5ba:    f2c10800    ....    MOVT     r8,#0x1000
        0x0000f5be:    f8d86000    ...`    LDR      r6,[r8,#0]
        0x0000f5c2:    4605        .F      MOV      r5,r0
        0x0000f5c4:    f7fffa57    ..W.    BL       eTaskConfirmSleepModeStatus ; 0xea76
        0x0000f5c8:    b138        8.      CBZ      r0,0xf5da ; vPortSuppressTicksAndSleep + 96
        0x0000f5ca:    f8d92000    ...     LDR      r2,[r9,#0]
        0x0000f5ce:    1e60        `.      SUBS     r0,r4,#1
        0x0000f5d0:    1ba9        ..      SUBS     r1,r5,r6
        0x0000f5d2:    4378        xC      MULS     r0,r7,r0
        0x0000f5d4:    440a        .D      ADD      r2,r2,r1
        0x0000f5d6:    4282        .B      CMP      r2,r0
        0x0000f5d8:    d901        ..      BLS      0xf5de ; vPortSuppressTicksAndSleep + 100
        0x0000f5da:    b662        b.      CPSIE    i
        0x0000f5dc:    e034        4.      B        0xf648 ; vPortSuppressTicksAndSleep + 206
        0x0000f5de:    1a45        E.      SUBS     r5,r0,r1
        0x0000f5e0:    2000        .       MOVS     r0,#0
        0x0000f5e2:    4629        )F      MOV      r1,r5
        0x0000f5e4:    f7fefa9e    ....    BL       am_hal_stimer_compare_delta_set ; 0xdb24
        0x0000f5e8:    1c69        i.      ADDS     r1,r5,#1
        0x0000f5ea:    2001        .       MOVS     r0,#1
        0x0000f5ec:    f7fefa9a    ....    BL       am_hal_stimer_compare_delta_set ; 0xdb24
        0x0000f5f0:    4620         F      MOV      r0,r4
        0x0000f5f2:    f7fdf8ef    ....    BL       am_freertos_sleep ; 0xc7d4
        0x0000f5f6:    b120         .      CBZ      r0,0xf602 ; vPortSuppressTicksAndSleep + 136
        0x0000f5f8:    f3bf8f4f    ..O.    DSB      
        0x0000f5fc:    bf30        0.      WFI      
        0x0000f5fe:    f3bf8f6f    ..o.    ISB      
        0x0000f602:    4620         F      MOV      r0,r4
        0x0000f604:    f7fdf8ec    ....    BL       am_freertos_wakeup ; 0xc7e0
        0x0000f608:    f7fefae6    ....    BL       am_hal_stimer_counter_get ; 0xdbd8
        0x0000f60c:    f8d81000    ....    LDR      r1,[r8,#0]
        0x0000f610:    f8d92000    ...     LDR      r2,[r9,#0]
        0x0000f614:    1a43        C.      SUBS     r3,r0,r1
        0x0000f616:    fbb3f1f2    ....    UDIV     r1,r3,r2
        0x0000f61a:    434a        JC      MULS     r2,r1,r2
        0x0000f61c:    1ad2        ..      SUBS     r2,r2,r3
        0x0000f61e:    4410        .D      ADD      r0,r0,r2
        0x0000f620:    f8c80000    ....    STR      r0,[r8,#0]
        0x0000f624:    4608        .F      MOV      r0,r1
        0x0000f626:    f000f937    ..7.    BL       vTaskStepTick ; 0xf898
        0x0000f62a:    2003        .       MOVS     r0,#3
        0x0000f62c:    f7fefae5    ....    BL       am_hal_stimer_int_clear ; 0xdbfa
        0x0000f630:    f8d91000    ....    LDR      r1,[r9,#0]
        0x0000f634:    2000        .       MOVS     r0,#0
        0x0000f636:    f7fefa75    ..u.    BL       am_hal_stimer_compare_delta_set ; 0xdb24
        0x0000f63a:    f8d90000    ....    LDR      r0,[r9,#0]
        0x0000f63e:    1c41        A.      ADDS     r1,r0,#1
        0x0000f640:    2001        .       MOVS     r0,#1
        0x0000f642:    f7fefa6f    ..o.    BL       am_hal_stimer_compare_delta_set ; 0xdb24
        0x0000f646:    b662        b.      CPSIE    i
        0x0000f648:    b001        ..      ADD      sp,sp,#4
        0x0000f64a:    e8bd83f0    ....    POP      {r4-r9,pc}
        0x0000f64e:    0000        ..      MOVS     r0,r0
    vPortValidateInterruptPriority
        0x0000f650:    f3ef8005    ....    MRS      r0,IPSR
        0x0000f654:    2810        .(      CMP      r0,#0x10
        0x0000f656:    d30c        ..      BCC      0xf672 ; vPortValidateInterruptPriority + 34
        0x0000f658:    f24e31f0    N..1    MOV      r1,#0xe3f0
        0x0000f65c:    f2ce0100    ....    MOVT     r1,#0xe000
        0x0000f660:    5c40        @\      LDRB     r0,[r0,r1]
        0x0000f662:    f24571f4    E..q    MOV      r1,#0x57f4
        0x0000f666:    f2c10100    ....    MOVT     r1,#0x1000
        0x0000f66a:    7809        .x      LDRB     r1,[r1,#0]
        0x0000f66c:    4288        .B      CMP      r0,r1
        0x0000f66e:    d200        ..      BCS      0xf672 ; vPortValidateInterruptPriority + 34
        0x0000f670:    e7fe        ..      B        0xf670 ; vPortValidateInterruptPriority + 32
        0x0000f672:    f64e500c    N..P    MOV      r0,#0xed0c
        0x0000f676:    f2ce0000    ....    MOVT     r0,#0xe000
        0x0000f67a:    f24571f8    E..q    MOV      r1,#0x57f8
        0x0000f67e:    6800        .h      LDR      r0,[r0,#0]
        0x0000f680:    f2c10100    ....    MOVT     r1,#0x1000
        0x0000f684:    6809        .h      LDR      r1,[r1,#0]
        0x0000f686:    f40060e0    ...`    AND      r0,r0,#0x700
        0x0000f68a:    4288        .B      CMP      r0,r1
        0x0000f68c:    bf98        ..      IT       LS
        0x0000f68e:    4770        pG      BXLS     lr
        0x0000f690:    e7fe        ..      B        0xf690 ; vPortValidateInterruptPriority + 64
    vQueueWaitForMessageRestricted
        0x0000f692:    b570        p.      PUSH     {r4-r6,lr}
        0x0000f694:    4615        .F      MOV      r5,r2
        0x0000f696:    460e        .F      MOV      r6,r1
        0x0000f698:    4604        .F      MOV      r4,r0
        0x0000f69a:    f7fffee3    ....    BL       vPortEnterCritical ; 0xf464
        0x0000f69e:    f8940044    ..D.    LDRB     r0,[r4,#0x44]
        0x0000f6a2:    28ff        .(      CMP      r0,#0xff
        0x0000f6a4:    bf04        ..      ITT      EQ
        0x0000f6a6:    2000        .       MOVEQ    r0,#0
        0x0000f6a8:    f8840044    ..D.    STRBEQ   r0,[r4,#0x44]
        0x0000f6ac:    f8940045    ..E.    LDRB     r0,[r4,#0x45]
        0x0000f6b0:    28ff        .(      CMP      r0,#0xff
        0x0000f6b2:    bf04        ..      ITT      EQ
        0x0000f6b4:    2000        .       MOVEQ    r0,#0
        0x0000f6b6:    f8840045    ..E.    STRBEQ   r0,[r4,#0x45]
        0x0000f6ba:    f7fffeed    ....    BL       vPortExitCritical ; 0xf498
        0x0000f6be:    6ba0        .k      LDR      r0,[r4,#0x38]
        0x0000f6c0:    b928        (.      CBNZ     r0,0xf6ce ; vQueueWaitForMessageRestricted + 60
        0x0000f6c2:    f1040024    ..$.    ADD      r0,r4,#0x24
        0x0000f6c6:    4631        1F      MOV      r1,r6
        0x0000f6c8:    462a        *F      MOV      r2,r5
        0x0000f6ca:    f000f82d    ..-.    BL       vTaskPlaceOnEventListRestricted ; 0xf728
        0x0000f6ce:    4620         F      MOV      r0,r4
        0x0000f6d0:    e8bd4070    ..p@    POP      {r4-r6,lr}
        0x0000f6d4:    f7ffbc90    ....    B.W      prvUnlockQueue ; 0xeff8
    vTaskInternalSetTimeOutState
        0x0000f6d8:    f645017c    E.|.    MOV      r1,#0x587c
        0x0000f6dc:    f2c10100    ....    MOVT     r1,#0x1000
        0x0000f6e0:    6809        .h      LDR      r1,[r1,#0]
        0x0000f6e2:    6001        .`      STR      r1,[r0,#0]
        0x0000f6e4:    f64501b8    E...    MOV      r1,#0x58b8
        0x0000f6e8:    f2c10100    ....    MOVT     r1,#0x1000
        0x0000f6ec:    6809        .h      LDR      r1,[r1,#0]
        0x0000f6ee:    6041        A`      STR      r1,[r0,#4]
        0x0000f6f0:    4770        pG      BX       lr
    vTaskMissedYield
        0x0000f6f2:    f64500c4    E...    MOV      r0,#0x58c4
        0x0000f6f6:    f2c10000    ....    MOVT     r0,#0x1000
        0x0000f6fa:    2101        .!      MOVS     r1,#1
        0x0000f6fc:    6001        .`      STR      r1,[r0,#0]
        0x0000f6fe:    4770        pG      BX       lr
    vTaskPlaceOnEventList
        0x0000f700:    b180        ..      CBZ      r0,0xf724 ; vTaskPlaceOnEventList + 36
        0x0000f702:    b510        ..      PUSH     {r4,lr}
        0x0000f704:    460c        .F      MOV      r4,r1
        0x0000f706:    f2417190    A..q    MOV      r1,#0x1790
        0x0000f70a:    f2c10100    ....    MOVT     r1,#0x1000
        0x0000f70e:    6809        .h      LDR      r1,[r1,#0]
        0x0000f710:    3118        .1      ADDS     r1,r1,#0x18
        0x0000f712:    f7fffe71    ..q.    BL       vListInsert ; 0xf3f8
        0x0000f716:    4620         F      MOV      r0,r4
        0x0000f718:    2101        .!      MOVS     r1,#1
        0x0000f71a:    e8bd4010    ...@    POP      {r4,lr}
        0x0000f71e:    f7ffba01    ....    B        prvAddCurrentTaskToDelayedList ; 0xeb24
        0x0000f722:    bf00        ..      NOP      
        0x0000f724:    e7fe        ..      B        0xf724 ; vTaskPlaceOnEventList + 36
        0x0000f726:    0000        ..      MOVS     r0,r0
    vTaskPlaceOnEventListRestricted
        0x0000f728:    b1a0        ..      CBZ      r0,0xf754 ; vTaskPlaceOnEventListRestricted + 44
        0x0000f72a:    b5b0        ..      PUSH     {r4,r5,r7,lr}
        0x0000f72c:    460d        .F      MOV      r5,r1
        0x0000f72e:    f2417190    A..q    MOV      r1,#0x1790
        0x0000f732:    f2c10100    ....    MOVT     r1,#0x1000
        0x0000f736:    6809        .h      LDR      r1,[r1,#0]
        0x0000f738:    4614        .F      MOV      r4,r2
        0x0000f73a:    3118        .1      ADDS     r1,r1,#0x18
        0x0000f73c:    f7fffe79    ..y.    BL       vListInsertEnd ; 0xf432
        0x0000f740:    2c00        .,      CMP      r4,#0
        0x0000f742:    bf18        ..      IT       NE
        0x0000f744:    f04f35ff    O..5    MOVNE    r5,#0xffffffff
        0x0000f748:    4628        (F      MOV      r0,r5
        0x0000f74a:    4621        !F      MOV      r1,r4
        0x0000f74c:    e8bd40b0    ...@    POP      {r4,r5,r7,lr}
        0x0000f750:    f7ffb9e8    ....    B        prvAddCurrentTaskToDelayedList ; 0xeb24
        0x0000f754:    e7fe        ..      B        0xf754 ; vTaskPlaceOnEventListRestricted + 44
        0x0000f756:    0000        ..      MOVS     r0,r0
    vTaskPlaceOnUnorderedEventList
        0x0000f758:    b510        ..      PUSH     {r4,lr}
        0x0000f75a:    b1c8        ..      CBZ      r0,0xf790 ; vTaskPlaceOnUnorderedEventList + 56
        0x0000f75c:    4614        .F      MOV      r4,r2
        0x0000f75e:    f6450208    E...    MOV      r2,#0x5808
        0x0000f762:    f2c10200    ....    MOVT     r2,#0x1000
        0x0000f766:    6812        .h      LDR      r2,[r2,#0]
        0x0000f768:    b1a2        ..      CBZ      r2,0xf794 ; vTaskPlaceOnUnorderedEventList + 60
        0x0000f76a:    f2417290    A..r    MOV      r2,#0x1790
        0x0000f76e:    f2c10200    ....    MOVT     r2,#0x1000
        0x0000f772:    6813        .h      LDR      r3,[r2,#0]
        0x0000f774:    f0414100    A..A    ORR      r1,r1,#0x80000000
        0x0000f778:    6199        .a      STR      r1,[r3,#0x18]
        0x0000f77a:    6811        .h      LDR      r1,[r2,#0]
        0x0000f77c:    3118        .1      ADDS     r1,r1,#0x18
        0x0000f77e:    f7fffe58    ..X.    BL       vListInsertEnd ; 0xf432
        0x0000f782:    4620         F      MOV      r0,r4
        0x0000f784:    2101        .!      MOVS     r1,#1
        0x0000f786:    e8bd4010    ...@    POP      {r4,lr}
        0x0000f78a:    f7ffb9cb    ....    B        prvAddCurrentTaskToDelayedList ; 0xeb24
        0x0000f78e:    bf00        ..      NOP      
        0x0000f790:    e7fe        ..      B        0xf790 ; vTaskPlaceOnUnorderedEventList + 56
        0x0000f792:    bf00        ..      NOP      
        0x0000f794:    e7fe        ..      B        0xf794 ; vTaskPlaceOnUnorderedEventList + 60
        0x0000f796:    0000        ..      MOVS     r0,r0
    vTaskRemoveFromUnorderedEventList
        0x0000f798:    b5b0        ..      PUSH     {r4,r5,r7,lr}
        0x0000f79a:    f6450208    E...    MOV      r2,#0x5808
        0x0000f79e:    f2c10200    ....    MOVT     r2,#0x1000
        0x0000f7a2:    6812        .h      LDR      r2,[r2,#0]
        0x0000f7a4:    b382        ..      CBZ      r2,0xf808 ; vTaskRemoveFromUnorderedEventList + 112
        0x0000f7a6:    68c5        .h      LDR      r5,[r0,#0xc]
        0x0000f7a8:    f0414100    A..A    ORR      r1,r1,#0x80000000
        0x0000f7ac:    6001        .`      STR      r1,[r0,#0]
        0x0000f7ae:    b36d        m.      CBZ      r5,0xf80c ; vTaskRemoveFromUnorderedEventList + 116
        0x0000f7b0:    f7fffdee    ....    BL       uxListRemove ; 0xf390
        0x0000f7b4:    1d2c        ,.      ADDS     r4,r5,#4
        0x0000f7b6:    4620         F      MOV      r0,r4
        0x0000f7b8:    f7fffdea    ....    BL       uxListRemove ; 0xf390
        0x0000f7bc:    f6450110    E...    MOV      r1,#0x5810
        0x0000f7c0:    f2c10100    ....    MOVT     r1,#0x1000
        0x0000f7c4:    6ae8        .j      LDR      r0,[r5,#0x2c]
        0x0000f7c6:    680a        .h      LDR      r2,[r1,#0]
        0x0000f7c8:    4290        .B      CMP      r0,r2
        0x0000f7ca:    bf88        ..      IT       HI
        0x0000f7cc:    6008        .`      STRHI    r0,[r1,#0]
        0x0000f7ce:    f24171a4    A..q    MOV      r1,#0x17a4
        0x0000f7d2:    eb000080    ....    ADD      r0,r0,r0,LSL #2
        0x0000f7d6:    f2c10100    ....    MOVT     r1,#0x1000
        0x0000f7da:    eb010080    ....    ADD      r0,r1,r0,LSL #2
        0x0000f7de:    4621        !F      MOV      r1,r4
        0x0000f7e0:    f7fffe27    ..'.    BL       vListInsertEnd ; 0xf432
        0x0000f7e4:    f2417190    A..q    MOV      r1,#0x1790
        0x0000f7e8:    f2c10100    ....    MOVT     r1,#0x1000
        0x0000f7ec:    6ae8        .j      LDR      r0,[r5,#0x2c]
        0x0000f7ee:    6809        .h      LDR      r1,[r1,#0]
        0x0000f7f0:    6ac9        .j      LDR      r1,[r1,#0x2c]
        0x0000f7f2:    4288        .B      CMP      r0,r1
        0x0000f7f4:    bf98        ..      IT       LS
        0x0000f7f6:    bdb0        ..      POPLS    {r4,r5,r7,pc}
        0x0000f7f8:    f64500c4    E...    MOV      r0,#0x58c4
        0x0000f7fc:    f2c10000    ....    MOVT     r0,#0x1000
        0x0000f800:    2101        .!      MOVS     r1,#1
        0x0000f802:    6001        .`      STR      r1,[r0,#0]
        0x0000f804:    bdb0        ..      POP      {r4,r5,r7,pc}
        0x0000f806:    bf00        ..      NOP      
        0x0000f808:    e7fe        ..      B        0xf808 ; vTaskRemoveFromUnorderedEventList + 112
        0x0000f80a:    bf00        ..      NOP      
        0x0000f80c:    e7fe        ..      B        0xf80c ; vTaskRemoveFromUnorderedEventList + 116
        0x0000f80e:    0000        ..      MOVS     r0,r0
    vTaskStartScheduler
        0x0000f810:    b580        ..      PUSH     {r7,lr}
        0x0000f812:    b082        ..      SUB      sp,sp,#8
        0x0000f814:    2000        .       MOVS     r0,#0
        0x0000f816:    f6450c6c    E.l.    MOV      r12,#0x586c
        0x0000f81a:    9000        ..      STR      r0,[sp,#0]
        0x0000f81c:    f64e4061    N.a@    MOV      r0,#0xec61
        0x0000f820:    f2c10c00    ....    MOVT     r12,#0x1000
        0x0000f824:    f2c00000    ....    MOVT     r0,#0
        0x0000f828:    a119        ..      ADR      r1,{pc}+0x68 ; 0xf890
        0x0000f82a:    f44f7280    O..r    MOV      r2,#0x100
        0x0000f82e:    2300        .#      MOVS     r3,#0
        0x0000f830:    f8cdc004    ....    STR      r12,[sp,#4]
        0x0000f834:    f000fcb8    ....    BL       xTaskCreate ; 0x101a8
        0x0000f838:    2801        .(      CMP      r0,#1
        0x0000f83a:    bf08        ..      IT       EQ
        0x0000f83c:    f000ff30    ..0.    BLEQ     xTimerCreateTimerTask ; 0x106a0
        0x0000f840:    2801        .(      CMP      r0,#1
        0x0000f842:    d002        ..      BEQ      0xf84a ; vTaskStartScheduler + 58
        0x0000f844:    3001        .0      ADDS     r0,#1
        0x0000f846:    d120         .      BNE      0xf88a ; vTaskStartScheduler + 122
        0x0000f848:    e7fe        ..      B        0xf848 ; vTaskStartScheduler + 56
        0x0000f84a:    f04f0080    O...    MOV      r0,#0x80
        0x0000f84e:    f3808811    ....    MSR      BASEPRI,r0
        0x0000f852:    f3bf8f6f    ..o.    ISB      
        0x0000f856:    f3bf8f4f    ..O.    DSB      
        0x0000f85a:    f6450078    E.x.    MOV      r0,#0x5878
        0x0000f85e:    f2c10000    ....    MOVT     r0,#0x1000
        0x0000f862:    f04f31ff    O..1    MOV      r1,#0xffffffff
        0x0000f866:    6001        .`      STR      r1,[r0,#0]
        0x0000f868:    f6450094    E...    MOV      r0,#0x5894
        0x0000f86c:    f2c10000    ....    MOVT     r0,#0x1000
        0x0000f870:    2101        .!      MOVS     r1,#1
        0x0000f872:    6001        .`      STR      r1,[r0,#0]
        0x0000f874:    f64500b8    E...    MOV      r0,#0x58b8
        0x0000f878:    f2c10000    ....    MOVT     r0,#0x1000
        0x0000f87c:    2100        .!      MOVS     r1,#0
        0x0000f87e:    6001        .`      STR      r1,[r0,#0]
        0x0000f880:    b002        ..      ADD      sp,sp,#8
        0x0000f882:    e8bd4080    ...@    POP      {r7,lr}
        0x0000f886:    f000b9ab    ....    B.W      xPortStartScheduler ; 0xfbe0
        0x0000f88a:    b002        ..      ADD      sp,sp,#8
        0x0000f88c:    bd80        ..      POP      {r7,pc}
        0x0000f88e:    bf00        ..      NOP      
    $d.10
        0x0000f890:    454c4449    IDLE    DCD    1162626121
        0x0000f894:    00000000    ....    DCD    0
    $t.18
    vTaskStepTick
        0x0000f898:    f64501b8    E...    MOV      r1,#0x58b8
        0x0000f89c:    f2c10100    ....    MOVT     r1,#0x1000
        0x0000f8a0:    f6450378    E.x.    MOV      r3,#0x5878
        0x0000f8a4:    680a        .h      LDR      r2,[r1,#0]
        0x0000f8a6:    f2c10300    ....    MOVT     r3,#0x1000
        0x0000f8aa:    681b        .h      LDR      r3,[r3,#0]
        0x0000f8ac:    4402        .D      ADD      r2,r2,r0
        0x0000f8ae:    429a        .B      CMP      r2,r3
        0x0000f8b0:    d901        ..      BLS      0xf8b6 ; vTaskStepTick + 30
        0x0000f8b2:    bf00        ..      NOP      
        0x0000f8b4:    e7fe        ..      B        0xf8b4 ; vTaskStepTick + 28
        0x0000f8b6:    680a        .h      LDR      r2,[r1,#0]
        0x0000f8b8:    4410        .D      ADD      r0,r0,r2
        0x0000f8ba:    6008        .`      STR      r0,[r1,#0]
        0x0000f8bc:    4770        pG      BX       lr
        0x0000f8be:    0000        ..      MOVS     r0,r0
    vTaskSuspend
        0x0000f8c0:    b5f0        ..      PUSH     {r4-r7,lr}
        0x0000f8c2:    b081        ..      SUB      sp,sp,#4
        0x0000f8c4:    4604        .F      MOV      r4,r0
        0x0000f8c6:    f7fffdcd    ....    BL       vPortEnterCritical ; 0xf464
        0x0000f8ca:    f2417790    A..w    MOV      r7,#0x1790
        0x0000f8ce:    f2c10700    ....    MOVT     r7,#0x1000
        0x0000f8d2:    b904        ..      CBNZ     r4,0xf8d6 ; vTaskSuspend + 22
        0x0000f8d4:    683c        <h      LDR      r4,[r7,#0]
        0x0000f8d6:    1d26        &.      ADDS     r6,r4,#4
        0x0000f8d8:    4630        0F      MOV      r0,r6
        0x0000f8da:    f7fffd59    ..Y.    BL       uxListRemove ; 0xf390
        0x0000f8de:    6aa0        .j      LDR      r0,[r4,#0x28]
        0x0000f8e0:    b118        ..      CBZ      r0,0xf8ea ; vTaskSuspend + 42
        0x0000f8e2:    f1040018    ....    ADD      r0,r4,#0x18
        0x0000f8e6:    f7fffd53    ..S.    BL       uxListRemove ; 0xf390
        0x0000f8ea:    f64505a4    E...    MOV      r5,#0x58a4
        0x0000f8ee:    f2c10500    ....    MOVT     r5,#0x1000
        0x0000f8f2:    4628        (F      MOV      r0,r5
        0x0000f8f4:    4631        1F      MOV      r1,r6
        0x0000f8f6:    f7fffd9c    ....    BL       vListInsertEnd ; 0xf432
        0x0000f8fa:    f8940048    ..H.    LDRB     r0,[r4,#0x48]
        0x0000f8fe:    2801        .(      CMP      r0,#1
        0x0000f900:    bf04        ..      ITT      EQ
        0x0000f902:    2000        .       MOVEQ    r0,#0
        0x0000f904:    f8840048    ..H.    STRBEQ   r0,[r4,#0x48]
        0x0000f908:    f7fffdc6    ....    BL       vPortExitCritical ; 0xf498
        0x0000f90c:    f6450694    E...    MOV      r6,#0x5894
        0x0000f910:    f2c10600    ....    MOVT     r6,#0x1000
        0x0000f914:    6830        0h      LDR      r0,[r6,#0]
        0x0000f916:    b1b0        ..      CBZ      r0,0xf946 ; vTaskSuspend + 134
        0x0000f918:    f7fffda4    ....    BL       vPortEnterCritical ; 0xf464
        0x0000f91c:    f2417098    A..p    MOV      r0,#0x1798
        0x0000f920:    f2c10000    ....    MOVT     r0,#0x1000
        0x0000f924:    6801        .h      LDR      r1,[r0,#0]
        0x0000f926:    6809        .h      LDR      r1,[r1,#0]
        0x0000f928:    b121        !.      CBZ      r1,0xf934 ; vTaskSuspend + 116
        0x0000f92a:    6800        .h      LDR      r0,[r0,#0]
        0x0000f92c:    68c0        .h      LDR      r0,[r0,#0xc]
        0x0000f92e:    68c0        .h      LDR      r0,[r0,#0xc]
        0x0000f930:    6840        @h      LDR      r0,[r0,#4]
        0x0000f932:    e001        ..      B        0xf938 ; vTaskSuspend + 120
        0x0000f934:    f04f30ff    O..0    MOV      r0,#0xffffffff
        0x0000f938:    f6450178    E.x.    MOV      r1,#0x5878
        0x0000f93c:    f2c10100    ....    MOVT     r1,#0x1000
        0x0000f940:    6008        .`      STR      r0,[r1,#0]
        0x0000f942:    f7fffda9    ....    BL       vPortExitCritical ; 0xf498
        0x0000f946:    6838        8h      LDR      r0,[r7,#0]
        0x0000f948:    4284        .B      CMP      r4,r0
        0x0000f94a:    d001        ..      BEQ      0xf950 ; vTaskSuspend + 144
        0x0000f94c:    b001        ..      ADD      sp,sp,#4
        0x0000f94e:    bdf0        ..      POP      {r4-r7,pc}
        0x0000f950:    6830        0h      LDR      r0,[r6,#0]
        0x0000f952:    b130        0.      CBZ      r0,0xf962 ; vTaskSuspend + 162
        0x0000f954:    f6450008    E...    MOV      r0,#0x5808
        0x0000f958:    f2c10000    ....    MOVT     r0,#0x1000
        0x0000f95c:    6800        .h      LDR      r0,[r0,#0]
        0x0000f95e:    b158        X.      CBZ      r0,0xf978 ; vTaskSuspend + 184
        0x0000f960:    e7fe        ..      B        0xf960 ; vTaskSuspend + 160
        0x0000f962:    f6450100    E...    MOVW     r1,#0x5800
        0x0000f966:    f2c10100    ....    MOVT     r1,#0x1000
        0x0000f96a:    6828        (h      LDR      r0,[r5,#0]
        0x0000f96c:    6809        .h      LDR      r1,[r1,#0]
        0x0000f96e:    4288        .B      CMP      r0,r1
        0x0000f970:    d10e        ..      BNE      0xf990 ; vTaskSuspend + 208
        0x0000f972:    2000        .       MOVS     r0,#0
        0x0000f974:    6038        8`      STR      r0,[r7,#0]
        0x0000f976:    e7e9        ..      B        0xf94c ; vTaskSuspend + 140
        0x0000f978:    f64e5004    N..P    MOV      r0,#0xed04
        0x0000f97c:    f2ce0000    ....    MOVT     r0,#0xe000
        0x0000f980:    f04f5180    O..Q    MOV      r1,#0x10000000
        0x0000f984:    6001        .`      STR      r1,[r0,#0]
        0x0000f986:    f3bf8f4f    ..O.    DSB      
        0x0000f98a:    f3bf8f6f    ..o.    ISB      
        0x0000f98e:    e7dd        ..      B        0xf94c ; vTaskSuspend + 140
        0x0000f990:    b001        ..      ADD      sp,sp,#4
        0x0000f992:    e8bd40f0    ...@    POP      {r4-r7,lr}
        0x0000f996:    f000b809    ....    B.W      vTaskSwitchContext ; 0xf9ac
    vTaskSuspendAll
        0x0000f99a:    f6450008    E...    MOV      r0,#0x5808
        0x0000f99e:    f2c10000    ....    MOVT     r0,#0x1000
        0x0000f9a2:    6801        .h      LDR      r1,[r0,#0]
        0x0000f9a4:    3101        .1      ADDS     r1,#1
        0x0000f9a6:    6001        .`      STR      r1,[r0,#0]
        0x0000f9a8:    4770        pG      BX       lr
        0x0000f9aa:    0000        ..      MOVS     r0,r0
    vTaskSwitchContext
        0x0000f9ac:    b510        ..      PUSH     {r4,lr}
        0x0000f9ae:    f6450008    E...    MOV      r0,#0x5808
        0x0000f9b2:    f2c10000    ....    MOVT     r0,#0x1000
        0x0000f9b6:    6800        .h      LDR      r0,[r0,#0]
        0x0000f9b8:    b130        0.      CBZ      r0,0xf9c8 ; vTaskSwitchContext + 28
        0x0000f9ba:    f64500c4    E...    MOV      r0,#0x58c4
        0x0000f9be:    f2c10000    ....    MOVT     r0,#0x1000
        0x0000f9c2:    2101        .!      MOVS     r1,#1
        0x0000f9c4:    6001        .`      STR      r1,[r0,#0]
        0x0000f9c6:    bd10        ..      POP      {r4,pc}
        0x0000f9c8:    f64500c4    E...    MOV      r0,#0x58c4
        0x0000f9cc:    f2c10000    ....    MOVT     r0,#0x1000
        0x0000f9d0:    2100        .!      MOVS     r1,#0
        0x0000f9d2:    f2417490    A..t    MOV      r4,#0x1790
        0x0000f9d6:    6001        .`      STR      r1,[r0,#0]
        0x0000f9d8:    f2c10400    ....    MOVT     r4,#0x1000
        0x0000f9dc:    6820         h      LDR      r0,[r4,#0]
        0x0000f9de:    6b00        .k      LDR      r0,[r0,#0x30]
        0x0000f9e0:    6801        .h      LDR      r1,[r0,#0]
        0x0000f9e2:    f1b13fa5    ...?    CMP      r1,#0xa5a5a5a5
        0x0000f9e6:    d10b        ..      BNE      0xfa00 ; vTaskSwitchContext + 84
        0x0000f9e8:    6841        Ah      LDR      r1,[r0,#4]
        0x0000f9ea:    f1b13fa5    ...?    CMP      r1,#0xa5a5a5a5
        0x0000f9ee:    d107        ..      BNE      0xfa00 ; vTaskSwitchContext + 84
        0x0000f9f0:    6881        .h      LDR      r1,[r0,#8]
        0x0000f9f2:    f1b13fa5    ...?    CMP      r1,#0xa5a5a5a5
        0x0000f9f6:    d103        ..      BNE      0xfa00 ; vTaskSwitchContext + 84
        0x0000f9f8:    68c0        .h      LDR      r0,[r0,#0xc]
        0x0000f9fa:    f1b03fa5    ...?    CMP      r0,#0xa5a5a5a5
        0x0000f9fe:    d004        ..      BEQ      0xfa0a ; vTaskSwitchContext + 94
        0x0000fa00:    6820         h      LDR      r0,[r4,#0]
        0x0000fa02:    6821        !h      LDR      r1,[r4,#0]
        0x0000fa04:    3134        41      ADDS     r1,r1,#0x34
        0x0000fa06:    f7fffce5    ....    BL       vApplicationStackOverflowHook ; 0xf3d4
        0x0000fa0a:    f6450c10    E...    MOV      r12,#0x5810
        0x0000fa0e:    f2c10c00    ....    MOVT     r12,#0x1000
        0x0000fa12:    f8dc1000    ....    LDR      r1,[r12,#0]
        0x0000fa16:    f24172a4    A..r    MOV      r2,#0x17a4
        0x0000fa1a:    eb010381    ....    ADD      r3,r1,r1,LSL #2
        0x0000fa1e:    f2c10200    ....    MOVT     r2,#0x1000
        0x0000fa22:    f8520023    R.#.    LDR      r0,[r2,r3,LSL #2]
        0x0000fa26:    b948        H.      CBNZ     r0,0xfa3c ; vTaskSwitchContext + 144
        0x0000fa28:    eb020083    ....    ADD      r0,r2,r3,LSL #2
        0x0000fa2c:    f1a00314    ....    SUB      r3,r0,#0x14
        0x0000fa30:    b1b1        ..      CBZ      r1,0xfa60 ; vTaskSwitchContext + 180
        0x0000fa32:    f8530914    S...    LDR      r0,[r3],#-0x14
        0x0000fa36:    3901        .9      SUBS     r1,#1
        0x0000fa38:    2800        .(      CMP      r0,#0
        0x0000fa3a:    d0f9        ..      BEQ      0xfa30 ; vTaskSwitchContext + 132
        0x0000fa3c:    eb010081    ....    ADD      r0,r1,r1,LSL #2
        0x0000fa40:    eb020380    ....    ADD      r3,r2,r0,LSL #2
        0x0000fa44:    f8530f04    S...    LDR      r0,[r3,#4]!
        0x0000fa48:    6842        Bh      LDR      r2,[r0,#4]
        0x0000fa4a:    1d18        ..      ADDS     r0,r3,#4
        0x0000fa4c:    4282        .B      CMP      r2,r0
        0x0000fa4e:    601a        .`      STR      r2,[r3,#0]
        0x0000fa50:    d101        ..      BNE      0xfa56 ; vTaskSwitchContext + 170
        0x0000fa52:    6852        Rh      LDR      r2,[r2,#4]
        0x0000fa54:    601a        .`      STR      r2,[r3,#0]
        0x0000fa56:    68d0        .h      LDR      r0,[r2,#0xc]
        0x0000fa58:    6020         `      STR      r0,[r4,#0]
        0x0000fa5a:    f8cc1000    ....    STR      r1,[r12,#0]
        0x0000fa5e:    bd10        ..      POP      {r4,pc}
        0x0000fa60:    e7fe        ..      B        0xfa60 ; vTaskSwitchContext + 180
    xEventGroupCreate
        0x0000fa62:    b510        ..      PUSH     {r4,lr}
        0x0000fa64:    2018        .       MOVS     r0,#0x18
        0x0000fa66:    f7fffb01    ....    BL       pvPortMalloc ; 0xf06c
        0x0000fa6a:    4604        .F      MOV      r4,r0
        0x0000fa6c:    b128        (.      CBZ      r0,0xfa7a ; xEventGroupCreate + 24
        0x0000fa6e:    2100        .!      MOVS     r1,#0
        0x0000fa70:    4620         F      MOV      r0,r4
        0x0000fa72:    f8401b04    @...    STR      r1,[r0],#4
        0x0000fa76:    f7fffcb1    ....    BL       vListInitialise ; 0xf3dc
        0x0000fa7a:    4620         F      MOV      r0,r4
        0x0000fa7c:    bd10        ..      POP      {r4,pc}
        0x0000fa7e:    0000        ..      MOVS     r0,r0
    xEventGroupSetBits
        0x0000fa80:    e92d41f0    -..A    PUSH     {r4-r8,lr}
        0x0000fa84:    b130        0.      CBZ      r0,0xfa94 ; xEventGroupSetBits + 20
        0x0000fa86:    460d        .F      MOV      r5,r1
        0x0000fa88:    f1b17f80    ....    CMP      r1,#0x1000000
        0x0000fa8c:    d303        ..      BCC      0xfa96 ; xEventGroupSetBits + 22
        0x0000fa8e:    bf00        ..      NOP      
        0x0000fa90:    e7fe        ..      B        0xfa90 ; xEventGroupSetBits + 16
        0x0000fa92:    bf00        ..      NOP      
        0x0000fa94:    e7fe        ..      B        0xfa94 ; xEventGroupSetBits + 20
        0x0000fa96:    4604        .F      MOV      r4,r0
        0x0000fa98:    f100080c    ....    ADD      r8,r0,#0xc
        0x0000fa9c:    f7ffff7d    ..}.    BL       vTaskSuspendAll ; 0xf99a
        0x0000faa0:    6820         h      LDR      r0,[r4,#0]
        0x0000faa2:    6927        'i      LDR      r7,[r4,#0x10]
        0x0000faa4:    4328        (C      ORRS     r0,r0,r5
        0x0000faa6:    4547        GE      CMP      r7,r8
        0x0000faa8:    f04f0500    O...    MOV      r5,#0
        0x0000faac:    6020         `      STR      r0,[r4,#0]
        0x0000faae:    d019        ..      BEQ      0xfae4 ; xEventGroupSetBits + 100
        0x0000fab0:    4638        8F      MOV      r0,r7
        0x0000fab2:    e9d72700    ...'    LDRD     r2,r7,[r7,#0]
        0x0000fab6:    6821        !h      LDR      r1,[r4,#0]
        0x0000fab8:    f022437f    "..C    BIC      r3,r2,#0xff000000
        0x0000fabc:    0156        V.      LSLS     r6,r2,#5
        0x0000fabe:    ea010603    ....    AND      r6,r1,r3
        0x0000fac2:    d40b        ..      BMI      0xfadc ; xEventGroupSetBits + 92
        0x0000fac4:    b136        6.      CBZ      r6,0xfad4 ; xEventGroupSetBits + 84
        0x0000fac6:    f0417100    A..q    ORR      r1,r1,#0x2000000
        0x0000faca:    01d2        ..      LSLS     r2,r2,#7
        0x0000facc:    bf48        H.      IT       MI
        0x0000face:    431d        .C      ORRMI    r5,r5,r3
        0x0000fad0:    f7fffe62    ..b.    BL       vTaskRemoveFromUnorderedEventList ; 0xf798
        0x0000fad4:    4547        GE      CMP      r7,r8
        0x0000fad6:    d1eb        ..      BNE      0xfab0 ; xEventGroupSetBits + 48
        0x0000fad8:    e003        ..      B        0xfae2 ; xEventGroupSetBits + 98
        0x0000fada:    bf00        ..      NOP      
        0x0000fadc:    429e        .B      CMP      r6,r3
        0x0000fade:    d0f2        ..      BEQ      0xfac6 ; xEventGroupSetBits + 70
        0x0000fae0:    e7f8        ..      B        0xfad4 ; xEventGroupSetBits + 84
        0x0000fae2:    6820         h      LDR      r0,[r4,#0]
        0x0000fae4:    43a8        .C      BICS     r0,r0,r5
        0x0000fae6:    6020         `      STR      r0,[r4,#0]
        0x0000fae8:    f000fd48    ..H.    BL       xTaskResumeAll ; 0x1057c
        0x0000faec:    6820         h      LDR      r0,[r4,#0]
        0x0000faee:    e8bd81f0    ....    POP      {r4-r8,pc}
        0x0000faf2:    0000        ..      MOVS     r0,r0
    xEventGroupWaitBits
        0x0000faf4:    e92d43f0    -..C    PUSH     {r4-r9,lr}
        0x0000faf8:    b081        ..      SUB      sp,sp,#4
        0x0000fafa:    b128        (.      CBZ      r0,0xfb08 ; xEventGroupWaitBits + 20
        0x0000fafc:    460d        .F      MOV      r5,r1
        0x0000fafe:    f1b17f80    ....    CMP      r1,#0x1000000
        0x0000fb02:    d302        ..      BCC      0xfb0a ; xEventGroupWaitBits + 22
        0x0000fb04:    e7fe        ..      B        0xfb04 ; xEventGroupWaitBits + 16
        0x0000fb06:    bf00        ..      NOP      
        0x0000fb08:    e7fe        ..      B        0xfb08 ; xEventGroupWaitBits + 20
        0x0000fb0a:    b16d        m.      CBZ      r5,0xfb28 ; xEventGroupWaitBits + 52
        0x0000fb0c:    f8dd8020    .. .    LDR      r8,[sp,#0x20]
        0x0000fb10:    461f        .F      MOV      r7,r3
        0x0000fb12:    4616        .F      MOV      r6,r2
        0x0000fb14:    4604        .F      MOV      r4,r0
        0x0000fb16:    f000fc2a    ..*.    BL       xTaskGetSchedulerState ; 0x1036e
        0x0000fb1a:    f1b80f00    ....    CMP      r8,#0
        0x0000fb1e:    d004        ..      BEQ      0xfb2a ; xEventGroupWaitBits + 54
        0x0000fb20:    b918        ..      CBNZ     r0,0xfb2a ; xEventGroupWaitBits + 54
        0x0000fb22:    bf00        ..      NOP      
        0x0000fb24:    e7fe        ..      B        0xfb24 ; xEventGroupWaitBits + 48
        0x0000fb26:    bf00        ..      NOP      
        0x0000fb28:    e7fe        ..      B        0xfb28 ; xEventGroupWaitBits + 52
        0x0000fb2a:    f7ffff36    ..6.    BL       vTaskSuspendAll ; 0xf99a
        0x0000fb2e:    f8d49000    ....    LDR      r9,[r4,#0]
        0x0000fb32:    ea190005    ....    ANDS     r0,r9,r5
        0x0000fb36:    eba00105    ....    SUB      r1,r0,r5
        0x0000fb3a:    bf18        ..      IT       NE
        0x0000fb3c:    2001        .       MOVNE    r0,#1
        0x0000fb3e:    2f00        ./      CMP      r7,#0
        0x0000fb40:    fab1f181    ....    CLZ      r1,r1
        0x0000fb44:    bf18        ..      IT       NE
        0x0000fb46:    0948        H.      LSRNE    r0,r1,#5
        0x0000fb48:    2801        .(      CMP      r0,#1
        0x0000fb4a:    d105        ..      BNE      0xfb58 ; xEventGroupWaitBits + 100
        0x0000fb4c:    2e00        ..      CMP      r6,#0
        0x0000fb4e:    d041        A.      BEQ      0xfbd4 ; xEventGroupWaitBits + 224
        0x0000fb50:    ea290005    )...    BIC      r0,r9,r5
        0x0000fb54:    6020         `      STR      r0,[r4,#0]
        0x0000fb56:    e03d        =.      B        0xfbd4 ; xEventGroupWaitBits + 224
        0x0000fb58:    f1b80f00    ....    CMP      r8,#0
        0x0000fb5c:    d03a        :.      BEQ      0xfbd4 ; xEventGroupWaitBits + 224
        0x0000fb5e:    4630        0F      MOV      r0,r6
        0x0000fb60:    2e00        ..      CMP      r6,#0
        0x0000fb62:    bf18        ..      IT       NE
        0x0000fb64:    2001        .       MOVNE    r0,#1
        0x0000fb66:    0601        ..      LSLS     r1,r0,#24
        0x0000fb68:    f1016180    ...a    ADD      r1,r1,#0x4000000
        0x0000fb6c:    2f00        ./      CMP      r7,#0
        0x0000fb6e:    bf08        ..      IT       EQ
        0x0000fb70:    0601        ..      LSLEQ    r1,r0,#24
        0x0000fb72:    1d20         .      ADDS     r0,r4,#4
        0x0000fb74:    4329        )C      ORRS     r1,r1,r5
        0x0000fb76:    4642        BF      MOV      r2,r8
        0x0000fb78:    f7fffdee    ....    BL       vTaskPlaceOnUnorderedEventList ; 0xf758
        0x0000fb7c:    f000fcfe    ....    BL       xTaskResumeAll ; 0x1057c
        0x0000fb80:    b950        P.      CBNZ     r0,0xfb98 ; xEventGroupWaitBits + 164
        0x0000fb82:    f64e5004    N..P    MOV      r0,#0xed04
        0x0000fb86:    f2ce0000    ....    MOVT     r0,#0xe000
        0x0000fb8a:    f04f5180    O..Q    MOV      r1,#0x10000000
        0x0000fb8e:    6001        .`      STR      r1,[r0,#0]
        0x0000fb90:    f3bf8f4f    ..O.    DSB      
        0x0000fb94:    f3bf8f6f    ..o.    ISB      
        0x0000fb98:    f7fffc0c    ....    BL       uxTaskResetEventItemValue ; 0xf3b4
        0x0000fb9c:    4680        .F      MOV      r8,r0
        0x0000fb9e:    0180        ..      LSLS     r0,r0,#6
        0x0000fba0:    d415        ..      BMI      0xfbce ; xEventGroupWaitBits + 218
        0x0000fba2:    f7fffc5f    .._.    BL       vPortEnterCritical ; 0xf464
        0x0000fba6:    f8d48000    ....    LDR      r8,[r4,#0]
        0x0000fbaa:    ea180005    ....    ANDS     r0,r8,r5
        0x0000fbae:    eba00105    ....    SUB      r1,r0,r5
        0x0000fbb2:    bf18        ..      IT       NE
        0x0000fbb4:    2001        .       MOVNE    r0,#1
        0x0000fbb6:    2f00        ./      CMP      r7,#0
        0x0000fbb8:    fab1f181    ....    CLZ      r1,r1
        0x0000fbbc:    bf18        ..      IT       NE
        0x0000fbbe:    0948        H.      LSRNE    r0,r1,#5
        0x0000fbc0:    b11e        ..      CBZ      r6,0xfbca ; xEventGroupWaitBits + 214
        0x0000fbc2:    b110        ..      CBZ      r0,0xfbca ; xEventGroupWaitBits + 214
        0x0000fbc4:    ea280005    (...    BIC      r0,r8,r5
        0x0000fbc8:    6020         `      STR      r0,[r4,#0]
        0x0000fbca:    f7fffc65    ..e.    BL       vPortExitCritical ; 0xf498
        0x0000fbce:    f028497f    (..I    BIC      r9,r8,#0xff000000
        0x0000fbd2:    e001        ..      B        0xfbd8 ; xEventGroupWaitBits + 228
        0x0000fbd4:    f000fcd2    ....    BL       xTaskResumeAll ; 0x1057c
        0x0000fbd8:    4648        HF      MOV      r0,r9
        0x0000fbda:    b001        ..      ADD      sp,sp,#4
        0x0000fbdc:    e8bd83f0    ....    POP      {r4-r9,pc}
    xPortStartScheduler
        0x0000fbe0:    b5b0        ..      PUSH     {r4,r5,r7,lr}
        0x0000fbe2:    b084        ..      SUB      sp,sp,#0x10
        0x0000fbe4:    f64e5000    N..P    MOVW     r0,#0xed00
        0x0000fbe8:    f2ce0000    ....    MOVT     r0,#0xe000
        0x0000fbec:    f24c2170    L.p!    MOV      r1,#0xc270
        0x0000fbf0:    f2c4110f    ....    MOVT     r1,#0x410f
        0x0000fbf4:    6802        .h      LDR      r2,[r0,#0]
        0x0000fbf6:    1c4b        K.      ADDS     r3,r1,#1
        0x0000fbf8:    429a        .B      CMP      r2,r3
        0x0000fbfa:    d100        ..      BNE      0xfbfe ; xPortStartScheduler + 30
        0x0000fbfc:    e7fe        ..      B        0xfbfc ; xPortStartScheduler + 28
        0x0000fbfe:    6802        .h      LDR      r2,[r0,#0]
        0x0000fc00:    428a        .B      CMP      r2,r1
        0x0000fc02:    d100        ..      BNE      0xfc06 ; xPortStartScheduler + 38
        0x0000fc04:    e7fe        ..      B        0xfc04 ; xPortStartScheduler + 36
        0x0000fc06:    f24f7100    O..q    MOVW     r1,#0xf700
        0x0000fc0a:    f6cf71ff    ...q    MOVT     r1,#0xffff
        0x0000fc0e:    5c42        B\      LDRB     r2,[r0,r1]
        0x0000fc10:    f24573f4    E..s    MOV      r3,#0x57f4
        0x0000fc14:    9202        ..      STR      r2,[sp,#8]
        0x0000fc16:    22ff        ."      MOVS     r2,#0xff
        0x0000fc18:    5442        BT      STRB     r2,[r0,r1]
        0x0000fc1a:    5c42        B\      LDRB     r2,[r0,r1]
        0x0000fc1c:    f2c10300    ....    MOVT     r3,#0x1000
        0x0000fc20:    f88d2007    ...     STRB     r2,[sp,#7]
        0x0000fc24:    f89d2007    ...     LDRB     r2,[sp,#7]
        0x0000fc28:    f2457cf8    E..|    MOV      r12,#0x57f8
        0x0000fc2c:    f0020280    ....    AND      r2,r2,#0x80
        0x0000fc30:    701a        .p      STRB     r2,[r3,#0]
        0x0000fc32:    f2c10c00    ....    MOVT     r12,#0x1000
        0x0000fc36:    2307        .#      MOVS     r3,#7
        0x0000fc38:    f8cc3000    ...0    STR      r3,[r12,#0]
        0x0000fc3c:    f99d3007    ...0    LDRSB    r3,[sp,#7]
        0x0000fc40:    f1b33fff    ...?    CMP      r3,#0xffffffff
        0x0000fc44:    dc38        8.      BGT      0xfcb8 ; xPortStartScheduler + 216
        0x0000fc46:    2307        .#      MOVS     r3,#7
        0x0000fc48:    f89d2007    ...     LDRB     r2,[sp,#7]
        0x0000fc4c:    3b01        .;      SUBS     r3,#1
        0x0000fc4e:    0052        R.      LSLS     r2,r2,#1
        0x0000fc50:    f88d2007    ...     STRB     r2,[sp,#7]
        0x0000fc54:    f99d2007    ...     LDRSB    r2,[sp,#7]
        0x0000fc58:    2a00        .*      CMP      r2,#0
        0x0000fc5a:    d4f5        ..      BMI      0xfc48 ; xPortStartScheduler + 104
        0x0000fc5c:    2b04        .+      CMP      r3,#4
        0x0000fc5e:    f8cc3000    ...0    STR      r3,[r12,#0]
        0x0000fc62:    d129        ).      BNE      0xfcb8 ; xPortStartScheduler + 216
        0x0000fc64:    f44f6280    O..b    MOV      r2,#0x400
        0x0000fc68:    f8cc2000    ...     STR      r2,[r12,#0]
        0x0000fc6c:    9a02        ..      LDR      r2,[sp,#8]
        0x0000fc6e:    5442        BT      STRB     r2,[r0,r1]
        0x0000fc70:    6a01        .j      LDR      r1,[r0,#0x20]
        0x0000fc72:    f4410160    A.`.    ORR      r1,r1,#0xe00000
        0x0000fc76:    6201        .b      STR      r1,[r0,#0x20]
        0x0000fc78:    6a01        .j      LDR      r1,[r0,#0x20]
        0x0000fc7a:    f0414160    A.`A    ORR      r1,r1,#0xe0000000
        0x0000fc7e:    6201        .b      STR      r1,[r0,#0x20]
        0x0000fc80:    f7fffc3a    ..:.    BL       vPortSetupTimerInterrupt ; 0xf4f8
        0x0000fc84:    f2410428    A.(.    MOV      r4,#0x1028
        0x0000fc88:    f2c10400    ....    MOVT     r4,#0x1000
        0x0000fc8c:    2500        .%      MOVS     r5,#0
        0x0000fc8e:    6025        %`      STR      r5,[r4,#0]
        0x0000fc90:    f7fffbde    ....    BL       vPortEnableVFP ; 0xf450
        0x0000fc94:    f64e7034    N.4p    MOV      r0,#0xef34
        0x0000fc98:    f2ce0000    ....    MOVT     r0,#0xe000
        0x0000fc9c:    6801        .h      LDR      r1,[r0,#0]
        0x0000fc9e:    f0414140    A.@A    ORR      r1,r1,#0xc0000000
        0x0000fca2:    6001        .`      STR      r1,[r0,#0]
        0x0000fca4:    f7fff856    ..V.    BL       prvPortStartFirstTask ; 0xed54
        0x0000fca8:    f7fffe80    ....    BL       vTaskSwitchContext ; 0xf9ac
        0x0000fcac:    9503        ..      STR      r5,[sp,#0xc]
        0x0000fcae:    6820         h      LDR      r0,[r4,#0]
        0x0000fcb0:    3001        .0      ADDS     r0,#1
        0x0000fcb2:    d002        ..      BEQ      0xfcba ; xPortStartScheduler + 218
        0x0000fcb4:    e7fe        ..      B        0xfcb4 ; xPortStartScheduler + 212
        0x0000fcb6:    bf00        ..      NOP      
        0x0000fcb8:    e7fe        ..      B        0xfcb8 ; xPortStartScheduler + 216
        0x0000fcba:    f04f0080    O...    MOV      r0,#0x80
        0x0000fcbe:    f3808811    ....    MSR      BASEPRI,r0
        0x0000fcc2:    f3bf8f6f    ..o.    ISB      
        0x0000fcc6:    f3bf8f4f    ..O.    DSB      
        0x0000fcca:    bf00        ..      NOP      
        0x0000fccc:    9803        ..      LDR      r0,[sp,#0xc]
        0x0000fcce:    2800        .(      CMP      r0,#0
        0x0000fcd0:    d0fc        ..      BEQ      0xfccc ; xPortStartScheduler + 236
        0x0000fcd2:    2000        .       MOVS     r0,#0
        0x0000fcd4:    b004        ..      ADD      sp,sp,#0x10
        0x0000fcd6:    bdb0        ..      POP      {r4,r5,r7,pc}
    xPortStimerTickHandler
        0x0000fcd8:    b570        p.      PUSH     {r4-r6,lr}
        0x0000fcda:    4604        .F      MOV      r4,r0
        0x0000fcdc:    f7fdff7c    ..|.    BL       am_hal_stimer_counter_get ; 0xdbd8
        0x0000fce0:    f24576fc    E..v    MOV      r6,#0x57fc
        0x0000fce4:    f2c10600    ....    MOVT     r6,#0x1000
        0x0000fce8:    6831        1h      LDR      r1,[r6,#0]
        0x0000fcea:    4605        .F      MOV      r5,r0
        0x0000fcec:    1b09        ..      SUBS     r1,r1,r4
        0x0000fcee:    2000        .       MOVS     r0,#0
        0x0000fcf0:    f7fdff18    ....    BL       am_hal_stimer_compare_delta_set ; 0xdb24
        0x0000fcf4:    6830        0h      LDR      r0,[r6,#0]
        0x0000fcf6:    1b00        ..      SUBS     r0,r0,r4
        0x0000fcf8:    1c41        A.      ADDS     r1,r0,#1
        0x0000fcfa:    2001        .       MOVS     r0,#1
        0x0000fcfc:    2401        .$      MOVS     r4,#1
        0x0000fcfe:    f7fdff11    ....    BL       am_hal_stimer_compare_delta_set ; 0xdb24
        0x0000fd02:    f2411028    A.(.    MOV      r0,#0x1128
        0x0000fd06:    f2c10000    ....    MOVT     r0,#0x1000
        0x0000fd0a:    6801        .h      LDR      r1,[r0,#0]
        0x0000fd0c:    6832        2h      LDR      r2,[r6,#0]
        0x0000fd0e:    1a69        i.      SUBS     r1,r5,r1
        0x0000fd10:    fbb1f6f2    ....    UDIV     r6,r1,r2
        0x0000fd14:    428a        .B      CMP      r2,r1
        0x0000fd16:    fb06f302    ....    MUL      r3,r6,r2
        0x0000fd1a:    eba30301    ....    SUB      r3,r3,r1
        0x0000fd1e:    442b        +D      ADD      r3,r3,r5
        0x0000fd20:    6003        .`      STR      r3,[r0,#0]
        0x0000fd22:    f3ef8011    ....    MRS      r0,BASEPRI
        0x0000fd26:    f04f0380    O...    MOV      r3,#0x80
        0x0000fd2a:    f3838811    ....    MSR      BASEPRI,r3
        0x0000fd2e:    f3bf8f6f    ..o.    ISB      
        0x0000fd32:    f3bf8f4f    ..O.    DSB      
        0x0000fd36:    d811        ..      BHI      0xfd5c ; xPortStimerTickHandler + 132
        0x0000fd38:    2500        .%      MOVS     r5,#0
        0x0000fd3a:    bf00        ..      NOP      
        0x0000fd3c:    3e01        .>      SUBS     r6,#1
        0x0000fd3e:    f000fb2f    ../.    BL       xTaskIncrementTick ; 0x103a0
        0x0000fd42:    2800        .(      CMP      r0,#0
        0x0000fd44:    bf18        ..      IT       NE
        0x0000fd46:    4625        %F      MOVNE    r5,r4
        0x0000fd48:    2e00        ..      CMP      r6,#0
        0x0000fd4a:    d1f7        ..      BNE      0xfd3c ; xPortStimerTickHandler + 100
        0x0000fd4c:    b135        5.      CBZ      r5,0xfd5c ; xPortStimerTickHandler + 132
        0x0000fd4e:    f64e5004    N..P    MOV      r0,#0xed04
        0x0000fd52:    f2ce0000    ....    MOVT     r0,#0xe000
        0x0000fd56:    f04f5180    O..Q    MOV      r1,#0x10000000
        0x0000fd5a:    6001        .`      STR      r1,[r0,#0]
        0x0000fd5c:    2000        .       MOVS     r0,#0
        0x0000fd5e:    f3808811    ....    MSR      BASEPRI,r0
        0x0000fd62:    bd70        p.      POP      {r4-r6,pc}
    xQueueGenericCreate
        0x0000fd64:    b1c0        ..      CBZ      r0,0xfd98 ; xQueueGenericCreate + 52
        0x0000fd66:    b570        p.      PUSH     {r4-r6,lr}
        0x0000fd68:    4604        .F      MOV      r4,r0
        0x0000fd6a:    4348        HC      MULS     r0,r1,r0
        0x0000fd6c:    3048        H0      ADDS     r0,r0,#0x48
        0x0000fd6e:    460d        .F      MOV      r5,r1
        0x0000fd70:    2900        .)      CMP      r1,#0
        0x0000fd72:    bf08        ..      IT       EQ
        0x0000fd74:    2048        H       MOVEQ    r0,#0x48
        0x0000fd76:    f7fff979    ..y.    BL       pvPortMalloc ; 0xf06c
        0x0000fd7a:    4606        .F      MOV      r6,r0
        0x0000fd7c:    b150        P.      CBZ      r0,0xfd94 ; xQueueGenericCreate + 48
        0x0000fd7e:    4630        0F      MOV      r0,r6
        0x0000fd80:    2d00        .-      CMP      r5,#0
        0x0000fd82:    bf18        ..      IT       NE
        0x0000fd84:    3048        H0      ADDNE    r0,r0,#0x48
        0x0000fd86:    6030        0`      STR      r0,[r6,#0]
        0x0000fd88:    4630        0F      MOV      r0,r6
        0x0000fd8a:    2101        .!      MOVS     r1,#1
        0x0000fd8c:    e9c6450f    ...E    STRD     r4,r5,[r6,#0x3c]
        0x0000fd90:    f000f804    ....    BL       xQueueGenericReset ; 0xfd9c
        0x0000fd94:    4630        0F      MOV      r0,r6
        0x0000fd96:    bd70        p.      POP      {r4-r6,pc}
        0x0000fd98:    e7fe        ..      B        0xfd98 ; xQueueGenericCreate + 52
        0x0000fd9a:    0000        ..      MOVS     r0,r0
    xQueueGenericReset
        0x0000fd9c:    b300        ..      CBZ      r0,0xfde0 ; xQueueGenericReset + 68
        0x0000fd9e:    b570        p.      PUSH     {r4-r6,lr}
        0x0000fda0:    4604        .F      MOV      r4,r0
        0x0000fda2:    460e        .F      MOV      r6,r1
        0x0000fda4:    f7fffb5e    ..^.    BL       vPortEnterCritical ; 0xf464
        0x0000fda8:    6820         h      LDR      r0,[r4,#0]
        0x0000fdaa:    e9d4120f    ....    LDRD     r1,r2,[r4,#0x3c]
        0x0000fdae:    2500        .%      MOVS     r5,#0
        0x0000fdb0:    fb020301    ....    MLA      r3,r2,r1,r0
        0x0000fdb4:    3901        .9      SUBS     r1,#1
        0x0000fdb6:    fb010102    ....    MLA      r1,r1,r2,r0
        0x0000fdba:    63a5        .c      STR      r5,[r4,#0x38]
        0x0000fdbc:    e9c40301    ....    STRD     r0,r3,[r4,#4]
        0x0000fdc0:    20ff        .       MOVS     r0,#0xff
        0x0000fdc2:    60e1        .`      STR      r1,[r4,#0xc]
        0x0000fdc4:    f8840044    ..D.    STRB     r0,[r4,#0x44]
        0x0000fdc8:    f8840045    ..E.    STRB     r0,[r4,#0x45]
        0x0000fdcc:    f1040010    ....    ADD      r0,r4,#0x10
        0x0000fdd0:    b13e        >.      CBZ      r6,0xfde2 ; xQueueGenericReset + 70
        0x0000fdd2:    f7fffb03    ....    BL       vListInitialise ; 0xf3dc
        0x0000fdd6:    f1040024    ..$.    ADD      r0,r4,#0x24
        0x0000fdda:    f7fffaff    ....    BL       vListInitialise ; 0xf3dc
        0x0000fdde:    e010        ..      B        0xfe02 ; xQueueGenericReset + 102
        0x0000fde0:    e7fe        ..      B        0xfde0 ; xQueueGenericReset + 68
        0x0000fde2:    6801        .h      LDR      r1,[r0,#0]
        0x0000fde4:    b169        i.      CBZ      r1,0xfe02 ; xQueueGenericReset + 102
        0x0000fde6:    f000fb77    ..w.    BL       xTaskRemoveFromEventList ; 0x104d8
        0x0000fdea:    b150        P.      CBZ      r0,0xfe02 ; xQueueGenericReset + 102
        0x0000fdec:    f64e5004    N..P    MOV      r0,#0xed04
        0x0000fdf0:    f2ce0000    ....    MOVT     r0,#0xe000
        0x0000fdf4:    f04f5180    O..Q    MOV      r1,#0x10000000
        0x0000fdf8:    6001        .`      STR      r1,[r0,#0]
        0x0000fdfa:    f3bf8f4f    ..O.    DSB      
        0x0000fdfe:    f3bf8f6f    ..o.    ISB      
        0x0000fe02:    f7fffb49    ..I.    BL       vPortExitCritical ; 0xf498
        0x0000fe06:    2001        .       MOVS     r0,#1
        0x0000fe08:    bd70        p.      POP      {r4-r6,pc}
        0x0000fe0a:    0000        ..      MOVS     r0,r0
    xQueueGenericSend
        0x0000fe0c:    e92d4ff0    -..O    PUSH     {r4-r11,lr}
        0x0000fe10:    b083        ..      SUB      sp,sp,#0xc
        0x0000fe12:    9202        ..      STR      r2,[sp,#8]
        0x0000fe14:    b180        ..      CBZ      r0,0xfe38 ; xQueueGenericSend + 44
        0x0000fe16:    461d        .F      MOV      r5,r3
        0x0000fe18:    4617        .F      MOV      r7,r2
        0x0000fe1a:    460e        .F      MOV      r6,r1
        0x0000fe1c:    4604        .F      MOV      r4,r0
        0x0000fe1e:    b171        q.      CBZ      r1,0xfe3e ; xQueueGenericSend + 50
        0x0000fe20:    2d02        .-      CMP      r5,#2
        0x0000fe22:    d102        ..      BNE      0xfe2a ; xQueueGenericSend + 30
        0x0000fe24:    6be0        .k      LDR      r0,[r4,#0x3c]
        0x0000fe26:    2801        .(      CMP      r0,#1
        0x0000fe28:    d108        ..      BNE      0xfe3c ; xQueueGenericSend + 48
        0x0000fe2a:    f000faa0    ....    BL       xTaskGetSchedulerState ; 0x1036e
        0x0000fe2e:    b950        P.      CBNZ     r0,0xfe46 ; xQueueGenericSend + 58
        0x0000fe30:    b14f        O.      CBZ      r7,0xfe46 ; xQueueGenericSend + 58
        0x0000fe32:    bf00        ..      NOP      
        0x0000fe34:    e7fe        ..      B        0xfe34 ; xQueueGenericSend + 40
        0x0000fe36:    bf00        ..      NOP      
        0x0000fe38:    e7fe        ..      B        0xfe38 ; xQueueGenericSend + 44
        0x0000fe3a:    bf00        ..      NOP      
        0x0000fe3c:    e7fe        ..      B        0xfe3c ; xQueueGenericSend + 48
        0x0000fe3e:    6c20         l      LDR      r0,[r4,#0x40]
        0x0000fe40:    2800        .(      CMP      r0,#0
        0x0000fe42:    d0ed        ..      BEQ      0xfe20 ; xQueueGenericSend + 20
        0x0000fe44:    e7fe        ..      B        0xfe44 ; xQueueGenericSend + 56
        0x0000fe46:    f7fffb0d    ....    BL       vPortEnterCritical ; 0xf464
        0x0000fe4a:    6ba0        .k      LDR      r0,[r4,#0x38]
        0x0000fe4c:    2d02        .-      CMP      r5,#2
        0x0000fe4e:    d05a        Z.      BEQ      0xff06 ; xQueueGenericSend + 250
        0x0000fe50:    6be1        .k      LDR      r1,[r4,#0x3c]
        0x0000fe52:    4288        .B      CMP      r0,r1
        0x0000fe54:    d357        W.      BCC      0xff06 ; xQueueGenericSend + 250
        0x0000fe56:    2f00        ./      CMP      r7,#0
        0x0000fe58:    d052        R.      BEQ      0xff00 ; xQueueGenericSend + 244
        0x0000fe5a:    466f        oF      MOV      r7,sp
        0x0000fe5c:    4638        8F      MOV      r0,r7
        0x0000fe5e:    f1040810    ....    ADD      r8,r4,#0x10
        0x0000fe62:    f7fffc39    ..9.    BL       vTaskInternalSetTimeOutState ; 0xf6d8
        0x0000fe66:    f10d0908    ....    ADD      r9,sp,#8
        0x0000fe6a:    bf00        ..      NOP      
        0x0000fe6c:    f7fffb14    ....    BL       vPortExitCritical ; 0xf498
        0x0000fe70:    f7fffd93    ....    BL       vTaskSuspendAll ; 0xf99a
        0x0000fe74:    f7fffaf6    ....    BL       vPortEnterCritical ; 0xf464
        0x0000fe78:    f8940044    ..D.    LDRB     r0,[r4,#0x44]
        0x0000fe7c:    28ff        .(      CMP      r0,#0xff
        0x0000fe7e:    bf04        ..      ITT      EQ
        0x0000fe80:    2000        .       MOVEQ    r0,#0
        0x0000fe82:    f8840044    ..D.    STRBEQ   r0,[r4,#0x44]
        0x0000fe86:    f8940045    ..E.    LDRB     r0,[r4,#0x45]
        0x0000fe8a:    28ff        .(      CMP      r0,#0xff
        0x0000fe8c:    bf04        ..      ITT      EQ
        0x0000fe8e:    2000        .       MOVEQ    r0,#0
        0x0000fe90:    f8840045    ..E.    STRBEQ   r0,[r4,#0x45]
        0x0000fe94:    f7fffb00    ....    BL       vPortExitCritical ; 0xf498
        0x0000fe98:    4638        8F      MOV      r0,r7
        0x0000fe9a:    4649        IF      MOV      r1,r9
        0x0000fe9c:    f000f950    ..P.    BL       xTaskCheckForTimeOut ; 0x10140
        0x0000fea0:    2800        .(      CMP      r0,#0
        0x0000fea2:    d14b        K.      BNE      0xff3c ; xQueueGenericSend + 304
        0x0000fea4:    f7fffade    ....    BL       vPortEnterCritical ; 0xf464
        0x0000fea8:    f8d4a038    ..8.    LDR      r10,[r4,#0x38]
        0x0000feac:    f8d4b03c    ..<.    LDR      r11,[r4,#0x3c]
        0x0000feb0:    f7fffaf2    ....    BL       vPortExitCritical ; 0xf498
        0x0000feb4:    45da        .E      CMP      r10,r11
        0x0000feb6:    d115        ..      BNE      0xfee4 ; xQueueGenericSend + 216
        0x0000feb8:    9902        ..      LDR      r1,[sp,#8]
        0x0000feba:    4640        @F      MOV      r0,r8
        0x0000febc:    f7fffc20    .. .    BL       vTaskPlaceOnEventList ; 0xf700
        0x0000fec0:    4620         F      MOV      r0,r4
        0x0000fec2:    f7fff899    ....    BL       prvUnlockQueue ; 0xeff8
        0x0000fec6:    f000fb59    ..Y.    BL       xTaskResumeAll ; 0x1057c
        0x0000feca:    b980        ..      CBNZ     r0,0xfeee ; xQueueGenericSend + 226
        0x0000fecc:    f64e5004    N..P    MOV      r0,#0xed04
        0x0000fed0:    f2ce0000    ....    MOVT     r0,#0xe000
        0x0000fed4:    f04f5180    O..Q    MOV      r1,#0x10000000
        0x0000fed8:    6001        .`      STR      r1,[r0,#0]
        0x0000feda:    f3bf8f4f    ..O.    DSB      
        0x0000fede:    f3bf8f6f    ..o.    ISB      
        0x0000fee2:    e004        ..      B        0xfeee ; xQueueGenericSend + 226
        0x0000fee4:    4620         F      MOV      r0,r4
        0x0000fee6:    f7fff887    ....    BL       prvUnlockQueue ; 0xeff8
        0x0000feea:    f000fb47    ..G.    BL       xTaskResumeAll ; 0x1057c
        0x0000feee:    f7fffab9    ....    BL       vPortEnterCritical ; 0xf464
        0x0000fef2:    6ba0        .k      LDR      r0,[r4,#0x38]
        0x0000fef4:    6be1        .k      LDR      r1,[r4,#0x3c]
        0x0000fef6:    4288        .B      CMP      r0,r1
        0x0000fef8:    d305        ..      BCC      0xff06 ; xQueueGenericSend + 250
        0x0000fefa:    9802        ..      LDR      r0,[sp,#8]
        0x0000fefc:    2800        .(      CMP      r0,#0
        0x0000fefe:    d1b5        ..      BNE      0xfe6c ; xQueueGenericSend + 96
        0x0000ff00:    f7fffaca    ....    BL       vPortExitCritical ; 0xf498
        0x0000ff04:    e01f        ..      B        0xff46 ; xQueueGenericSend + 314
        0x0000ff06:    4620         F      MOV      r0,r4
        0x0000ff08:    4631        1F      MOV      r1,r6
        0x0000ff0a:    462a        *F      MOV      r2,r5
        0x0000ff0c:    f7fefe77    ..w.    BL       prvCopyDataToQueue ; 0xebfe
        0x0000ff10:    f8540f24    T.$.    LDR      r0,[r4,#0x24]!
        0x0000ff14:    b170        p.      CBZ      r0,0xff34 ; xQueueGenericSend + 296
        0x0000ff16:    4620         F      MOV      r0,r4
        0x0000ff18:    f000fade    ....    BL       xTaskRemoveFromEventList ; 0x104d8
        0x0000ff1c:    b150        P.      CBZ      r0,0xff34 ; xQueueGenericSend + 296
        0x0000ff1e:    f64e5004    N..P    MOV      r0,#0xed04
        0x0000ff22:    f2ce0000    ....    MOVT     r0,#0xe000
        0x0000ff26:    f04f5180    O..Q    MOV      r1,#0x10000000
        0x0000ff2a:    6001        .`      STR      r1,[r0,#0]
        0x0000ff2c:    f3bf8f4f    ..O.    DSB      
        0x0000ff30:    f3bf8f6f    ..o.    ISB      
        0x0000ff34:    f7fffab0    ....    BL       vPortExitCritical ; 0xf498
        0x0000ff38:    2001        .       MOVS     r0,#1
        0x0000ff3a:    e005        ..      B        0xff48 ; xQueueGenericSend + 316
        0x0000ff3c:    4620         F      MOV      r0,r4
        0x0000ff3e:    f7fff85b    ..[.    BL       prvUnlockQueue ; 0xeff8
        0x0000ff42:    f000fb1b    ....    BL       xTaskResumeAll ; 0x1057c
        0x0000ff46:    2000        .       MOVS     r0,#0
        0x0000ff48:    b003        ..      ADD      sp,sp,#0xc
        0x0000ff4a:    e8bd8ff0    ....    POP      {r4-r11,pc}
        0x0000ff4e:    0000        ..      MOVS     r0,r0
    xQueueGenericSendFromISR
        0x0000ff50:    e92d43f0    -..C    PUSH     {r4-r9,lr}
        0x0000ff54:    b081        ..      SUB      sp,sp,#4
        0x0000ff56:    b1e8        ..      CBZ      r0,0xff94 ; xQueueGenericSendFromISR + 68
        0x0000ff58:    461e        .F      MOV      r6,r3
        0x0000ff5a:    4691        .F      MOV      r9,r2
        0x0000ff5c:    4605        .F      MOV      r5,r0
        0x0000ff5e:    460f        .F      MOV      r7,r1
        0x0000ff60:    b1d9        ..      CBZ      r1,0xff9a ; xQueueGenericSendFromISR + 74
        0x0000ff62:    2e02        ..      CMP      r6,#2
        0x0000ff64:    d102        ..      BNE      0xff6c ; xQueueGenericSendFromISR + 28
        0x0000ff66:    6be8        .k      LDR      r0,[r5,#0x3c]
        0x0000ff68:    2801        .(      CMP      r0,#1
        0x0000ff6a:    d115        ..      BNE      0xff98 ; xQueueGenericSendFromISR + 72
        0x0000ff6c:    f7fffb70    ..p.    BL       vPortValidateInterruptPriority ; 0xf650
        0x0000ff70:    f3ef8811    ....    MRS      r8,BASEPRI
        0x0000ff74:    f04f0080    O...    MOV      r0,#0x80
        0x0000ff78:    f3808811    ....    MSR      BASEPRI,r0
        0x0000ff7c:    f3bf8f6f    ..o.    ISB      
        0x0000ff80:    f3bf8f4f    ..O.    DSB      
        0x0000ff84:    6ba8        .k      LDR      r0,[r5,#0x38]
        0x0000ff86:    2e02        ..      CMP      r6,#2
        0x0000ff88:    d00b        ..      BEQ      0xffa2 ; xQueueGenericSendFromISR + 82
        0x0000ff8a:    6be9        .k      LDR      r1,[r5,#0x3c]
        0x0000ff8c:    4288        .B      CMP      r0,r1
        0x0000ff8e:    d308        ..      BCC      0xffa2 ; xQueueGenericSendFromISR + 82
        0x0000ff90:    2000        .       MOVS     r0,#0
        0x0000ff92:    e025        %.      B        0xffe0 ; xQueueGenericSendFromISR + 144
        0x0000ff94:    e7fe        ..      B        0xff94 ; xQueueGenericSendFromISR + 68
        0x0000ff96:    bf00        ..      NOP      
        0x0000ff98:    e7fe        ..      B        0xff98 ; xQueueGenericSendFromISR + 72
        0x0000ff9a:    6c28        (l      LDR      r0,[r5,#0x40]
        0x0000ff9c:    2800        .(      CMP      r0,#0
        0x0000ff9e:    d0e0        ..      BEQ      0xff62 ; xQueueGenericSendFromISR + 18
        0x0000ffa0:    e7fe        ..      B        0xffa0 ; xQueueGenericSendFromISR + 80
        0x0000ffa2:    f8954045    ..E@    LDRB     r4,[r5,#0x45]
        0x0000ffa6:    4628        (F      MOV      r0,r5
        0x0000ffa8:    4639        9F      MOV      r1,r7
        0x0000ffaa:    4632        2F      MOV      r2,r6
        0x0000ffac:    f7fefe27    ..'.    BL       prvCopyDataToQueue ; 0xebfe
        0x0000ffb0:    2cff        .,      CMP      r4,#0xff
        0x0000ffb2:    d111        ..      BNE      0xffd8 ; xQueueGenericSendFromISR + 136
        0x0000ffb4:    f8550f24    U.$.    LDR      r0,[r5,#0x24]!
        0x0000ffb8:    b188        ..      CBZ      r0,0xffde ; xQueueGenericSendFromISR + 142
        0x0000ffba:    4628        (F      MOV      r0,r5
        0x0000ffbc:    f000fa8c    ....    BL       xTaskRemoveFromEventList ; 0x104d8
        0x0000ffc0:    4601        .F      MOV      r1,r0
        0x0000ffc2:    f1b90f00    ....    CMP      r9,#0
        0x0000ffc6:    f04f0001    O...    MOV      r0,#1
        0x0000ffca:    bf18        ..      IT       NE
        0x0000ffcc:    2900        .)      CMPNE    r1,#0
        0x0000ffce:    d007        ..      BEQ      0xffe0 ; xQueueGenericSendFromISR + 144
        0x0000ffd0:    2001        .       MOVS     r0,#1
        0x0000ffd2:    f8c90000    ....    STR      r0,[r9,#0]
        0x0000ffd6:    e003        ..      B        0xffe0 ; xQueueGenericSendFromISR + 144
        0x0000ffd8:    1c60        `.      ADDS     r0,r4,#1
        0x0000ffda:    f8850045    ..E.    STRB     r0,[r5,#0x45]
        0x0000ffde:    2001        .       MOVS     r0,#1
        0x0000ffe0:    f3888811    ....    MSR      BASEPRI,r8
        0x0000ffe4:    b001        ..      ADD      sp,sp,#4
        0x0000ffe6:    e8bd83f0    ....    POP      {r4-r9,pc}
        0x0000ffea:    0000        ..      MOVS     r0,r0
    xQueueReceive
        0x0000ffec:    e92d4ff0    -..O    PUSH     {r4-r11,lr}
        0x0000fff0:    b083        ..      SUB      sp,sp,#0xc
        0x0000fff2:    9202        ..      STR      r2,[sp,#8]
        0x0000fff4:    b150        P.      CBZ      r0,0x1000c ; xQueueReceive + 32
        0x0000fff6:    4616        .F      MOV      r6,r2
        0x0000fff8:    460d        .F      MOV      r5,r1
        0x0000fffa:    4604        .F      MOV      r4,r0
        0x0000fffc:    b3b9        ..      CBZ      r1,0x1006e ; xQueueReceive + 130
        0x0000fffe:    f000f9b6    ....    BL       xTaskGetSchedulerState ; 0x1036e
        0x00010002:    b920         .      CBNZ     r0,0x1000e ; xQueueReceive + 34
        0x00010004:    b11e        ..      CBZ      r6,0x1000e ; xQueueReceive + 34
        0x00010006:    bf00        ..      NOP      
        0x00010008:    e7fe        ..      B        0x10008 ; xQueueReceive + 28
        0x0001000a:    bf00        ..      NOP      
        0x0001000c:    e7fe        ..      B        0x1000c ; xQueueReceive + 32
        0x0001000e:    f7fffa29    ..).    BL       vPortEnterCritical ; 0xf464
        0x00010012:    f8d4a038    ..8.    LDR      r10,[r4,#0x38]
        0x00010016:    f1ba0f00    ....    CMP      r10,#0
        0x0001001a:    d02c        ,.      BEQ      0x10076 ; xQueueReceive + 138
        0x0001001c:    6c22        "l      LDR      r2,[r4,#0x40]
        0x0001001e:    b152        R.      CBZ      r2,0x10036 ; xQueueReceive + 74
        0x00010020:    e9d43002    ...0    LDRD     r3,r0,[r4,#8]
        0x00010024:    1881        ..      ADDS     r1,r0,r2
        0x00010026:    60e1        .`      STR      r1,[r4,#0xc]
        0x00010028:    4299        .B      CMP      r1,r3
        0x0001002a:    bf24        $.      ITT      CS
        0x0001002c:    6821        !h      LDRCS    r1,[r4,#0]
        0x0001002e:    60e1        .`      STRCS    r1,[r4,#0xc]
        0x00010030:    4628        (F      MOV      r0,r5
        0x00010032:    f7fcf8db    ....    BL       __aeabi_memcpy ; 0xc1ec
        0x00010036:    f1aa0001    ....    SUB      r0,r10,#1
        0x0001003a:    63a0        .c      STR      r0,[r4,#0x38]
        0x0001003c:    f8540f10    T...    LDR      r0,[r4,#0x10]!
        0x00010040:    b170        p.      CBZ      r0,0x10060 ; xQueueReceive + 116
        0x00010042:    4620         F      MOV      r0,r4
        0x00010044:    f000fa48    ..H.    BL       xTaskRemoveFromEventList ; 0x104d8
        0x00010048:    b150        P.      CBZ      r0,0x10060 ; xQueueReceive + 116
        0x0001004a:    f64e5004    N..P    MOV      r0,#0xed04
        0x0001004e:    f2ce0000    ....    MOVT     r0,#0xe000
        0x00010052:    f04f5180    O..Q    MOV      r1,#0x10000000
        0x00010056:    6001        .`      STR      r1,[r0,#0]
        0x00010058:    f3bf8f4f    ..O.    DSB      
        0x0001005c:    f3bf8f6f    ..o.    ISB      
        0x00010060:    2601        .&      MOVS     r6,#1
        0x00010062:    f7fffa19    ....    BL       vPortExitCritical ; 0xf498
        0x00010066:    4630        0F      MOV      r0,r6
        0x00010068:    b003        ..      ADD      sp,sp,#0xc
        0x0001006a:    e8bd8ff0    ....    POP      {r4-r11,pc}
        0x0001006e:    6c20         l      LDR      r0,[r4,#0x40]
        0x00010070:    2800        .(      CMP      r0,#0
        0x00010072:    d0c4        ..      BEQ      0xfffe ; xQueueReceive + 18
        0x00010074:    e7fe        ..      B        0x10074 ; xQueueReceive + 136
        0x00010076:    2e00        ..      CMP      r6,#0
        0x00010078:    f04f0600    O...    MOV      r6,#0
        0x0001007c:    d0f1        ..      BEQ      0x10062 ; xQueueReceive + 118
        0x0001007e:    46eb        .F      MOV      r11,sp
        0x00010080:    4658        XF      MOV      r0,r11
        0x00010082:    f1040824    ..$.    ADD      r8,r4,#0x24
        0x00010086:    f7fffb27    ..'.    BL       vTaskInternalSetTimeOutState ; 0xf6d8
        0x0001008a:    f10d0908    ....    ADD      r9,sp,#8
        0x0001008e:    bf00        ..      NOP      
        0x00010090:    f7fffa02    ....    BL       vPortExitCritical ; 0xf498
        0x00010094:    f7fffc81    ....    BL       vTaskSuspendAll ; 0xf99a
        0x00010098:    f7fff9e4    ....    BL       vPortEnterCritical ; 0xf464
        0x0001009c:    f8940044    ..D.    LDRB     r0,[r4,#0x44]
        0x000100a0:    28ff        .(      CMP      r0,#0xff
        0x000100a2:    bf08        ..      IT       EQ
        0x000100a4:    f8846044    ..D`    STRBEQ   r6,[r4,#0x44]
        0x000100a8:    f8940045    ..E.    LDRB     r0,[r4,#0x45]
        0x000100ac:    28ff        .(      CMP      r0,#0xff
        0x000100ae:    bf08        ..      IT       EQ
        0x000100b0:    f8846045    ..E`    STRBEQ   r6,[r4,#0x45]
        0x000100b4:    f7fff9f0    ....    BL       vPortExitCritical ; 0xf498
        0x000100b8:    4658        XF      MOV      r0,r11
        0x000100ba:    4649        IF      MOV      r1,r9
        0x000100bc:    f000f840    ..@.    BL       xTaskCheckForTimeOut ; 0x10140
        0x000100c0:    b160        `.      CBZ      r0,0x100dc ; xQueueReceive + 240
        0x000100c2:    4620         F      MOV      r0,r4
        0x000100c4:    f7feff98    ....    BL       prvUnlockQueue ; 0xeff8
        0x000100c8:    f000fa58    ..X.    BL       xTaskResumeAll ; 0x1057c
        0x000100cc:    f7fff9ca    ....    BL       vPortEnterCritical ; 0xf464
        0x000100d0:    6ba7        .k      LDR      r7,[r4,#0x38]
        0x000100d2:    f7fff9e1    ....    BL       vPortExitCritical ; 0xf498
        0x000100d6:    bb1f        ..      CBNZ     r7,0x10120 ; xQueueReceive + 308
        0x000100d8:    e02f        /.      B        0x1013a ; xQueueReceive + 334
        0x000100da:    bf00        ..      NOP      
        0x000100dc:    f7fff9c2    ....    BL       vPortEnterCritical ; 0xf464
        0x000100e0:    6ba7        .k      LDR      r7,[r4,#0x38]
        0x000100e2:    f7fff9d9    ....    BL       vPortExitCritical ; 0xf498
        0x000100e6:    b12f        /.      CBZ      r7,0x100f4 ; xQueueReceive + 264
        0x000100e8:    4620         F      MOV      r0,r4
        0x000100ea:    f7feff85    ....    BL       prvUnlockQueue ; 0xeff8
        0x000100ee:    f000fa45    ..E.    BL       xTaskResumeAll ; 0x1057c
        0x000100f2:    e015        ..      B        0x10120 ; xQueueReceive + 308
        0x000100f4:    9902        ..      LDR      r1,[sp,#8]
        0x000100f6:    4640        @F      MOV      r0,r8
        0x000100f8:    f7fffb02    ....    BL       vTaskPlaceOnEventList ; 0xf700
        0x000100fc:    4620         F      MOV      r0,r4
        0x000100fe:    f7feff7b    ..{.    BL       prvUnlockQueue ; 0xeff8
        0x00010102:    f000fa3b    ..;.    BL       xTaskResumeAll ; 0x1057c
        0x00010106:    b958        X.      CBNZ     r0,0x10120 ; xQueueReceive + 308
        0x00010108:    f64e5004    N..P    MOV      r0,#0xed04
        0x0001010c:    f2ce0000    ....    MOVT     r0,#0xe000
        0x00010110:    f04f5180    O..Q    MOV      r1,#0x10000000
        0x00010114:    6001        .`      STR      r1,[r0,#0]
        0x00010116:    f3bf8f4f    ..O.    DSB      
        0x0001011a:    f3bf8f6f    ..o.    ISB      
        0x0001011e:    bf00        ..      NOP      
        0x00010120:    f7fff9a0    ....    BL       vPortEnterCritical ; 0xf464
        0x00010124:    f8d4a038    ..8.    LDR      r10,[r4,#0x38]
        0x00010128:    f1ba0f00    ....    CMP      r10,#0
        0x0001012c:    f47faf76    ..v.    BNE      0x1001c ; xQueueReceive + 48
        0x00010130:    9802        ..      LDR      r0,[sp,#8]
        0x00010132:    2800        .(      CMP      r0,#0
        0x00010134:    d1ac        ..      BNE      0x10090 ; xQueueReceive + 164
        0x00010136:    2600        .&      MOVS     r6,#0
        0x00010138:    e793        ..      B        0x10062 ; xQueueReceive + 118
        0x0001013a:    2600        .&      MOVS     r6,#0
        0x0001013c:    e793        ..      B        0x10066 ; xQueueReceive + 122
        0x0001013e:    0000        ..      MOVS     r0,r0
    xTaskCheckForTimeOut
        0x00010140:    b570        p.      PUSH     {r4-r6,lr}
        0x00010142:    b338        8.      CBZ      r0,0x10194 ; xTaskCheckForTimeOut + 84
        0x00010144:    460d        .F      MOV      r5,r1
        0x00010146:    b339        9.      CBZ      r1,0x10198 ; xTaskCheckForTimeOut + 88
        0x00010148:    4604        .F      MOV      r4,r0
        0x0001014a:    f7fff98b    ....    BL       vPortEnterCritical ; 0xf464
        0x0001014e:    f6450eb8    E...    MOV      lr,#0x58b8
        0x00010152:    f2c10e00    ....    MOVT     lr,#0x1000
        0x00010156:    f8de3000    ...0    LDR      r3,[lr,#0]
        0x0001015a:    6829        )h      LDR      r1,[r5,#0]
        0x0001015c:    1c48        H.      ADDS     r0,r1,#1
        0x0001015e:    d016        ..      BEQ      0x1018e ; xTaskCheckForTimeOut + 78
        0x00010160:    f6450c7c    E.|.    MOV      r12,#0x587c
        0x00010164:    6862        bh      LDR      r2,[r4,#4]
        0x00010166:    f2c10c00    ....    MOVT     r12,#0x1000
        0x0001016a:    f8dc0000    ....    LDR      r0,[r12,#0]
        0x0001016e:    4293        .B      CMP      r3,r2
        0x00010170:    d302        ..      BCC      0x10178 ; xTaskCheckForTimeOut + 56
        0x00010172:    6826        &h      LDR      r6,[r4,#0]
        0x00010174:    42b0        .B      CMP      r0,r6
        0x00010176:    d112        ..      BNE      0x1019e ; xTaskCheckForTimeOut + 94
        0x00010178:    1a98        ..      SUBS     r0,r3,r2
        0x0001017a:    4281        .B      CMP      r1,r0
        0x0001017c:    d90d        ..      BLS      0x1019a ; xTaskCheckForTimeOut + 90
        0x0001017e:    1a08        ..      SUBS     r0,r1,r0
        0x00010180:    6028        (`      STR      r0,[r5,#0]
        0x00010182:    f8dc0000    ....    LDR      r0,[r12,#0]
        0x00010186:    6020         `      STR      r0,[r4,#0]
        0x00010188:    f8de0000    ....    LDR      r0,[lr,#0]
        0x0001018c:    6060        ``      STR      r0,[r4,#4]
        0x0001018e:    2400        .$      MOVS     r4,#0
        0x00010190:    e006        ..      B        0x101a0 ; xTaskCheckForTimeOut + 96
        0x00010192:    bf00        ..      NOP      
        0x00010194:    e7fe        ..      B        0x10194 ; xTaskCheckForTimeOut + 84
        0x00010196:    bf00        ..      NOP      
        0x00010198:    e7fe        ..      B        0x10198 ; xTaskCheckForTimeOut + 88
        0x0001019a:    2000        .       MOVS     r0,#0
        0x0001019c:    6028        (`      STR      r0,[r5,#0]
        0x0001019e:    2401        .$      MOVS     r4,#1
        0x000101a0:    f7fff97a    ..z.    BL       vPortExitCritical ; 0xf498
        0x000101a4:    4620         F      MOV      r0,r4
        0x000101a6:    bd70        p.      POP      {r4-r6,pc}
    xTaskCreate
        0x000101a8:    e92d4ff0    -..O    PUSH     {r4-r11,lr}
        0x000101ac:    b081        ..      SUB      sp,sp,#4
        0x000101ae:    0097        ..      LSLS     r7,r2,#2
        0x000101b0:    4682        .F      MOV      r10,r0
        0x000101b2:    4638        8F      MOV      r0,r7
        0x000101b4:    4699        .F      MOV      r9,r3
        0x000101b6:    4690        .F      MOV      r8,r2
        0x000101b8:    460d        .F      MOV      r5,r1
        0x000101ba:    f7feff57    ..W.    BL       pvPortMalloc ; 0xf06c
        0x000101be:    2800        .(      CMP      r0,#0
        0x000101c0:    d06e        n.      BEQ      0x102a0 ; xTaskCreate + 248
        0x000101c2:    4606        .F      MOV      r6,r0
        0x000101c4:    204c        L       MOVS     r0,#0x4c
        0x000101c6:    f7feff51    ..Q.    BL       pvPortMalloc ; 0xf06c
        0x000101ca:    2800        .(      CMP      r0,#0
        0x000101cc:    d065        e.      BEQ      0x1029a ; xTaskCreate + 242
        0x000101ce:    4604        .F      MOV      r4,r0
        0x000101d0:    2d00        .-      CMP      r5,#0
        0x000101d2:    6306        .c      STR      r6,[r0,#0x30]
        0x000101d4:    d060        `.      BEQ      0x10298 ; xTaskCreate + 240
        0x000101d6:    f8ddb028    ..(.    LDR      r11,[sp,#0x28]
        0x000101da:    4630        0F      MOV      r0,r6
        0x000101dc:    4639        9F      MOV      r1,r7
        0x000101de:    22a5        ."      MOVS     r2,#0xa5
        0x000101e0:    f7fcf849    ..I.    BL       __aeabi_memset4 ; 0xc276
        0x000101e4:    6b20         k      LDR      r0,[r4,#0x30]
        0x000101e6:    eb000088    ....    ADD      r0,r0,r8,LSL #2
        0x000101ea:    3804        .8      SUBS     r0,#4
        0x000101ec:    f0200807     ...    BIC      r8,r0,#7
        0x000101f0:    2000        .       MOVS     r0,#0
        0x000101f2:    bf00        ..      NOP      
        0x000101f4:    5c29        )\      LDRB     r1,[r5,r0]
        0x000101f6:    1822        ".      ADDS     r2,r4,r0
        0x000101f8:    280f        .(      CMP      r0,#0xf
        0x000101fa:    f8821034    ..4.    STRB     r1,[r2,#0x34]
        0x000101fe:    d003        ..      BEQ      0x10208 ; xTaskCreate + 96
        0x00010200:    5c29        )\      LDRB     r1,[r5,r0]
        0x00010202:    3001        .0      ADDS     r0,#1
        0x00010204:    2900        .)      CMP      r1,#0
        0x00010206:    d1f5        ..      BNE      0x101f4 ; xTaskCreate + 76
        0x00010208:    1d25        %.      ADDS     r5,r4,#4
        0x0001020a:    2600        .&      MOVS     r6,#0
        0x0001020c:    4628        (F      MOV      r0,r5
        0x0001020e:    f8846043    ..C`    STRB     r6,[r4,#0x43]
        0x00010212:    f1bb0f03    ....    CMP      r11,#3
        0x00010216:    bf28        (.      IT       CS
        0x00010218:    f04f0b03    O...    MOVCS    r11,#3
        0x0001021c:    f8c4b02c    ..,.    STR      r11,[r4,#0x2c]
        0x00010220:    f7fff8e7    ....    BL       vListInitialiseItem ; 0xf3f2
        0x00010224:    f1040018    ....    ADD      r0,r4,#0x18
        0x00010228:    f7fff8e3    ....    BL       vListInitialiseItem ; 0xf3f2
        0x0001022c:    f1cb0004    ....    RSB      r0,r11,#4
        0x00010230:    61a0        .a      STR      r0,[r4,#0x18]
        0x00010232:    4640        @F      MOV      r0,r8
        0x00010234:    4651        QF      MOV      r1,r10
        0x00010236:    464a        JF      MOV      r2,r9
        0x00010238:    6124        $a      STR      r4,[r4,#0x10]
        0x0001023a:    6264        db      STR      r4,[r4,#0x24]
        0x0001023c:    6466        fd      STR      r6,[r4,#0x44]
        0x0001023e:    f8846048    ..H`    STRB     r6,[r4,#0x48]
        0x00010242:    f7feff94    ....    BL       pxPortInitialiseStack ; 0xf16e
        0x00010246:    990b        ..      LDR      r1,[sp,#0x2c]
        0x00010248:    6020         `      STR      r0,[r4,#0]
        0x0001024a:    b101        ..      CBZ      r1,0x1024e ; xTaskCreate + 166
        0x0001024c:    600c        .`      STR      r4,[r1,#0]
        0x0001024e:    f7fff909    ....    BL       vPortEnterCritical ; 0xf464
        0x00010252:    f6450000    E...    MOVW     r0,#0x5800
        0x00010256:    f2c10000    ....    MOVT     r0,#0x1000
        0x0001025a:    6801        .h      LDR      r1,[r0,#0]
        0x0001025c:    f2417b90    A..{    MOV      r11,#0x1790
        0x00010260:    3101        .1      ADDS     r1,#1
        0x00010262:    6001        .`      STR      r1,[r0,#0]
        0x00010264:    f2c10b00    ....    MOVT     r11,#0x1000
        0x00010268:    f8db1000    ....    LDR      r1,[r11,#0]
        0x0001026c:    f6450a94    E...    MOV      r10,#0x5894
        0x00010270:    f24177a4    A..w    MOV      r7,#0x17a4
        0x00010274:    f2c10a00    ....    MOVT     r10,#0x1000
        0x00010278:    f2c10700    ....    MOVT     r7,#0x1000
        0x0001027c:    b199        ..      CBZ      r1,0x102a6 ; xTaskCreate + 254
        0x0001027e:    f8da0000    ....    LDR      r0,[r10,#0]
        0x00010282:    2800        .(      CMP      r0,#0
        0x00010284:    d142        B.      BNE      0x1030c ; xTaskCreate + 356
        0x00010286:    f8db0000    ....    LDR      r0,[r11,#0]
        0x0001028a:    6ae1        .j      LDR      r1,[r4,#0x2c]
        0x0001028c:    6ac0        .j      LDR      r0,[r0,#0x2c]
        0x0001028e:    4288        .B      CMP      r0,r1
        0x00010290:    bf98        ..      IT       LS
        0x00010292:    f8cb4000    ...@    STRLS    r4,[r11,#0]
        0x00010296:    e039        9.      B        0x1030c ; xTaskCreate + 356
        0x00010298:    e7fe        ..      B        0x10298 ; xTaskCreate + 240
        0x0001029a:    4630        0F      MOV      r0,r6
        0x0001029c:    f7fff90c    ....    BL       vPortFree ; 0xf4b8
        0x000102a0:    f04f30ff    O..0    MOV      r0,#0xffffffff
        0x000102a4:    e060        `.      B        0x10368 ; xTaskCreate + 448
        0x000102a6:    f8cb4000    ...@    STR      r4,[r11,#0]
        0x000102aa:    6800        .h      LDR      r0,[r0,#0]
        0x000102ac:    2801        .(      CMP      r0,#1
        0x000102ae:    d12d        -.      BNE      0x1030c ; xTaskCreate + 356
        0x000102b0:    2600        .&      MOVS     r6,#0
        0x000102b2:    bf00        ..      NOP      
        0x000102b4:    19b8        ..      ADDS     r0,r7,r6
        0x000102b6:    f7fff891    ....    BL       vListInitialise ; 0xf3dc
        0x000102ba:    3614        .6      ADDS     r6,r6,#0x14
        0x000102bc:    2e50        P.      CMP      r6,#0x50
        0x000102be:    d1f9        ..      BNE      0x102b4 ; xTaskCreate + 268
        0x000102c0:    f645083c    E.<.    MOV      r8,#0x583c
        0x000102c4:    f2c10800    ....    MOVT     r8,#0x1000
        0x000102c8:    4640        @F      MOV      r0,r8
        0x000102ca:    f7fff887    ....    BL       vListInitialise ; 0xf3dc
        0x000102ce:    f6450950    E.P.    MOV      r9,#0x5850
        0x000102d2:    f2c10900    ....    MOVT     r9,#0x1000
        0x000102d6:    4648        HF      MOV      r0,r9
        0x000102d8:    f7fff880    ....    BL       vListInitialise ; 0xf3dc
        0x000102dc:    f6450080    E...    MOVW     r0,#0x5880
        0x000102e0:    f2c10000    ....    MOVT     r0,#0x1000
        0x000102e4:    f7fff87a    ..z.    BL       vListInitialise ; 0xf3dc
        0x000102e8:    f64500a4    E...    MOV      r0,#0x58a4
        0x000102ec:    f2c10000    ....    MOVT     r0,#0x1000
        0x000102f0:    f7fff874    ..t.    BL       vListInitialise ; 0xf3dc
        0x000102f4:    f2417098    A..p    MOV      r0,#0x1798
        0x000102f8:    f2c10000    ....    MOVT     r0,#0x1000
        0x000102fc:    f8c08000    ....    STR      r8,[r0,#0]
        0x00010300:    f241709c    A..p    MOV      r0,#0x179c
        0x00010304:    f2c10000    ....    MOVT     r0,#0x1000
        0x00010308:    f8c09000    ....    STR      r9,[r0,#0]
        0x0001030c:    f645000c    E...    MOV      r0,#0x580c
        0x00010310:    f2c10000    ....    MOVT     r0,#0x1000
        0x00010314:    6801        .h      LDR      r1,[r0,#0]
        0x00010316:    3101        .1      ADDS     r1,#1
        0x00010318:    6001        .`      STR      r1,[r0,#0]
        0x0001031a:    f6450110    E...    MOV      r1,#0x5810
        0x0001031e:    f2c10100    ....    MOVT     r1,#0x1000
        0x00010322:    6ae0        .j      LDR      r0,[r4,#0x2c]
        0x00010324:    680a        .h      LDR      r2,[r1,#0]
        0x00010326:    4290        .B      CMP      r0,r2
        0x00010328:    bf88        ..      IT       HI
        0x0001032a:    6008        .`      STRHI    r0,[r1,#0]
        0x0001032c:    eb000080    ....    ADD      r0,r0,r0,LSL #2
        0x00010330:    eb070080    ....    ADD      r0,r7,r0,LSL #2
        0x00010334:    4629        )F      MOV      r1,r5
        0x00010336:    f7fff87c    ..|.    BL       vListInsertEnd ; 0xf432
        0x0001033a:    f7fff8ad    ....    BL       vPortExitCritical ; 0xf498
        0x0001033e:    f8da0000    ....    LDR      r0,[r10,#0]
        0x00010342:    b180        ..      CBZ      r0,0x10366 ; xTaskCreate + 446
        0x00010344:    f8db0000    ....    LDR      r0,[r11,#0]
        0x00010348:    6ae1        .j      LDR      r1,[r4,#0x2c]
        0x0001034a:    6ac0        .j      LDR      r0,[r0,#0x2c]
        0x0001034c:    4288        .B      CMP      r0,r1
        0x0001034e:    d20a        ..      BCS      0x10366 ; xTaskCreate + 446
        0x00010350:    f64e5004    N..P    MOV      r0,#0xed04
        0x00010354:    f2ce0000    ....    MOVT     r0,#0xe000
        0x00010358:    f04f5180    O..Q    MOV      r1,#0x10000000
        0x0001035c:    6001        .`      STR      r1,[r0,#0]
        0x0001035e:    f3bf8f4f    ..O.    DSB      
        0x00010362:    f3bf8f6f    ..o.    ISB      
        0x00010366:    2001        .       MOVS     r0,#1
        0x00010368:    b001        ..      ADD      sp,sp,#4
        0x0001036a:    e8bd8ff0    ....    POP      {r4-r11,pc}
    xTaskGetSchedulerState
        0x0001036e:    f6450094    E...    MOV      r0,#0x5894
        0x00010372:    f2c10000    ....    MOVT     r0,#0x1000
        0x00010376:    6800        .h      LDR      r0,[r0,#0]
        0x00010378:    b148        H.      CBZ      r0,0x1038e ; xTaskGetSchedulerState + 32
        0x0001037a:    f6450008    E...    MOV      r0,#0x5808
        0x0001037e:    f2c10000    ....    MOVT     r0,#0x1000
        0x00010382:    6800        .h      LDR      r0,[r0,#0]
        0x00010384:    fab0f080    ....    CLZ      r0,r0
        0x00010388:    0940        @.      LSRS     r0,r0,#5
        0x0001038a:    0040        @.      LSLS     r0,r0,#1
        0x0001038c:    4770        pG      BX       lr
        0x0001038e:    2001        .       MOVS     r0,#1
        0x00010390:    4770        pG      BX       lr
    xTaskGetTickCount
        0x00010392:    f64500b8    E...    MOV      r0,#0x58b8
        0x00010396:    f2c10000    ....    MOVT     r0,#0x1000
        0x0001039a:    6800        .h      LDR      r0,[r0,#0]
        0x0001039c:    4770        pG      BX       lr
        0x0001039e:    0000        ..      MOVS     r0,r0
    xTaskIncrementTick
        0x000103a0:    e92d4ff0    -..O    PUSH     {r4-r11,lr}
        0x000103a4:    b081        ..      SUB      sp,sp,#4
        0x000103a6:    f6450008    E...    MOV      r0,#0x5808
        0x000103aa:    f2c10000    ....    MOVT     r0,#0x1000
        0x000103ae:    6800        .h      LDR      r0,[r0,#0]
        0x000103b0:    b198        ..      CBZ      r0,0x103da ; xTaskIncrementTick + 58
        0x000103b2:    f6450004    E...    MOV      r0,#0x5804
        0x000103b6:    f2c10000    ....    MOVT     r0,#0x1000
        0x000103ba:    6801        .h      LDR      r1,[r0,#0]
        0x000103bc:    3101        .1      ADDS     r1,#1
        0x000103be:    6001        .`      STR      r1,[r0,#0]
        0x000103c0:    2400        .$      MOVS     r4,#0
        0x000103c2:    f64500c4    E...    MOV      r0,#0x58c4
        0x000103c6:    f2c10000    ....    MOVT     r0,#0x1000
        0x000103ca:    6800        .h      LDR      r0,[r0,#0]
        0x000103cc:    2800        .(      CMP      r0,#0
        0x000103ce:    bf18        ..      IT       NE
        0x000103d0:    2401        .$      MOVNE    r4,#1
        0x000103d2:    4620         F      MOV      r0,r4
        0x000103d4:    b001        ..      ADD      sp,sp,#4
        0x000103d6:    e8bd8ff0    ....    POP      {r4-r11,pc}
        0x000103da:    f64500b8    E...    MOV      r0,#0x58b8
        0x000103de:    f2c10000    ....    MOVT     r0,#0x1000
        0x000103e2:    6801        .h      LDR      r1,[r0,#0]
        0x000103e4:    1c4e        N.      ADDS     r6,r1,#1
        0x000103e6:    6006        .`      STR      r6,[r0,#0]
        0x000103e8:    d325        %.      BCC      0x10436 ; xTaskIncrementTick + 150
        0x000103ea:    f2417098    A..p    MOV      r0,#0x1798
        0x000103ee:    f2c10000    ....    MOVT     r0,#0x1000
        0x000103f2:    6801        .h      LDR      r1,[r0,#0]
        0x000103f4:    6809        .h      LDR      r1,[r1,#0]
        0x000103f6:    b101        ..      CBZ      r1,0x103fa ; xTaskIncrementTick + 90
        0x000103f8:    e7fe        ..      B        0x103f8 ; xTaskIncrementTick + 88
        0x000103fa:    f241729c    A..r    MOV      r2,#0x179c
        0x000103fe:    f2c10200    ....    MOVT     r2,#0x1000
        0x00010402:    6801        .h      LDR      r1,[r0,#0]
        0x00010404:    6813        .h      LDR      r3,[r2,#0]
        0x00010406:    6003        .`      STR      r3,[r0,#0]
        0x00010408:    6011        .`      STR      r1,[r2,#0]
        0x0001040a:    f645017c    E.|.    MOV      r1,#0x587c
        0x0001040e:    f2c10100    ....    MOVT     r1,#0x1000
        0x00010412:    680a        .h      LDR      r2,[r1,#0]
        0x00010414:    3201        .2      ADDS     r2,#1
        0x00010416:    600a        .`      STR      r2,[r1,#0]
        0x00010418:    6801        .h      LDR      r1,[r0,#0]
        0x0001041a:    6809        .h      LDR      r1,[r1,#0]
        0x0001041c:    b121        !.      CBZ      r1,0x10428 ; xTaskIncrementTick + 136
        0x0001041e:    6800        .h      LDR      r0,[r0,#0]
        0x00010420:    68c0        .h      LDR      r0,[r0,#0xc]
        0x00010422:    68c0        .h      LDR      r0,[r0,#0xc]
        0x00010424:    6840        @h      LDR      r0,[r0,#4]
        0x00010426:    e001        ..      B        0x1042c ; xTaskIncrementTick + 140
        0x00010428:    f04f30ff    O..0    MOV      r0,#0xffffffff
        0x0001042c:    f6450178    E.x.    MOV      r1,#0x5878
        0x00010430:    f2c10100    ....    MOVT     r1,#0x1000
        0x00010434:    6008        .`      STR      r0,[r1,#0]
        0x00010436:    f6450078    E.x.    MOV      r0,#0x5878
        0x0001043a:    f2c10000    ....    MOVT     r0,#0x1000
        0x0001043e:    6800        .h      LDR      r0,[r0,#0]
        0x00010440:    4286        .B      CMP      r6,r0
        0x00010442:    d3bd        ..      BCC      0x103c0 ; xTaskIncrementTick + 32
        0x00010444:    f2417798    A..w    MOV      r7,#0x1798
        0x00010448:    f2c10700    ....    MOVT     r7,#0x1000
        0x0001044c:    6838        8h      LDR      r0,[r7,#0]
        0x0001044e:    2400        .$      MOVS     r4,#0
        0x00010450:    6800        .h      LDR      r0,[r0,#0]
        0x00010452:    b3c8        ..      CBZ      r0,0x104c8 ; xTaskIncrementTick + 296
        0x00010454:    f6450910    E...    MOV      r9,#0x5810
        0x00010458:    f2417aa4    A..z    MOV      r10,#0x17a4
        0x0001045c:    f2417b90    A..{    MOV      r11,#0x1790
        0x00010460:    f2c10900    ....    MOVT     r9,#0x1000
        0x00010464:    f2c10a00    ....    MOVT     r10,#0x1000
        0x00010468:    f2c10b00    ....    MOVT     r11,#0x1000
        0x0001046c:    6838        8h      LDR      r0,[r7,#0]
        0x0001046e:    68c0        .h      LDR      r0,[r0,#0xc]
        0x00010470:    f8d0800c    ....    LDR      r8,[r0,#0xc]
        0x00010474:    4645        EF      MOV      r5,r8
        0x00010476:    f8550f04    U...    LDR      r0,[r5,#4]!
        0x0001047a:    4286        .B      CMP      r6,r0
        0x0001047c:    d326        &.      BCC      0x104cc ; xTaskIncrementTick + 300
        0x0001047e:    4628        (F      MOV      r0,r5
        0x00010480:    f7feff86    ....    BL       uxListRemove ; 0xf390
        0x00010484:    f8d80028    ..(.    LDR      r0,[r8,#0x28]
        0x00010488:    b118        ..      CBZ      r0,0x10492 ; xTaskIncrementTick + 242
        0x0001048a:    f1080018    ....    ADD      r0,r8,#0x18
        0x0001048e:    f7feff7f    ....    BL       uxListRemove ; 0xf390
        0x00010492:    f8d8002c    ..,.    LDR      r0,[r8,#0x2c]
        0x00010496:    f8d91000    ....    LDR      r1,[r9,#0]
        0x0001049a:    4288        .B      CMP      r0,r1
        0x0001049c:    bf88        ..      IT       HI
        0x0001049e:    f8c90000    ....    STRHI    r0,[r9,#0]
        0x000104a2:    eb000080    ....    ADD      r0,r0,r0,LSL #2
        0x000104a6:    eb0a0080    ....    ADD      r0,r10,r0,LSL #2
        0x000104aa:    4629        )F      MOV      r1,r5
        0x000104ac:    f7feffc1    ....    BL       vListInsertEnd ; 0xf432
        0x000104b0:    f8d8002c    ..,.    LDR      r0,[r8,#0x2c]
        0x000104b4:    f8db1000    ....    LDR      r1,[r11,#0]
        0x000104b8:    6ac9        .j      LDR      r1,[r1,#0x2c]
        0x000104ba:    683a        :h      LDR      r2,[r7,#0]
        0x000104bc:    4288        .B      CMP      r0,r1
        0x000104be:    bf28        (.      IT       CS
        0x000104c0:    2401        .$      MOVCS    r4,#1
        0x000104c2:    6810        .h      LDR      r0,[r2,#0]
        0x000104c4:    2800        .(      CMP      r0,#0
        0x000104c6:    d1d1        ..      BNE      0x1046c ; xTaskIncrementTick + 204
        0x000104c8:    f04f30ff    O..0    MOV      r0,#0xffffffff
        0x000104cc:    f6450178    E.x.    MOV      r1,#0x5878
        0x000104d0:    f2c10100    ....    MOVT     r1,#0x1000
        0x000104d4:    6008        .`      STR      r0,[r1,#0]
        0x000104d6:    e774        t.      B        0x103c2 ; xTaskIncrementTick + 34
    xTaskRemoveFromEventList
        0x000104d8:    b5b0        ..      PUSH     {r4,r5,r7,lr}
        0x000104da:    68c0        .h      LDR      r0,[r0,#0xc]
        0x000104dc:    68c5        .h      LDR      r5,[r0,#0xc]
        0x000104de:    b17d        }.      CBZ      r5,0x10500 ; xTaskRemoveFromEventList + 40
        0x000104e0:    f1050418    ....    ADD      r4,r5,#0x18
        0x000104e4:    4620         F      MOV      r0,r4
        0x000104e6:    f7feff53    ..S.    BL       uxListRemove ; 0xf390
        0x000104ea:    f6450008    E...    MOV      r0,#0x5808
        0x000104ee:    f2c10000    ....    MOVT     r0,#0x1000
        0x000104f2:    6800        .h      LDR      r0,[r0,#0]
        0x000104f4:    b128        (.      CBZ      r0,0x10502 ; xTaskRemoveFromEventList + 42
        0x000104f6:    f6450080    E...    MOVW     r0,#0x5880
        0x000104fa:    f2c10000    ....    MOVT     r0,#0x1000
        0x000104fe:    e015        ..      B        0x1052c ; xTaskRemoveFromEventList + 84
        0x00010500:    e7fe        ..      B        0x10500 ; xTaskRemoveFromEventList + 40
        0x00010502:    1d2c        ,.      ADDS     r4,r5,#4
        0x00010504:    4620         F      MOV      r0,r4
        0x00010506:    f7feff43    ..C.    BL       uxListRemove ; 0xf390
        0x0001050a:    f6450110    E...    MOV      r1,#0x5810
        0x0001050e:    f2c10100    ....    MOVT     r1,#0x1000
        0x00010512:    6ae8        .j      LDR      r0,[r5,#0x2c]
        0x00010514:    680a        .h      LDR      r2,[r1,#0]
        0x00010516:    4290        .B      CMP      r0,r2
        0x00010518:    bf88        ..      IT       HI
        0x0001051a:    6008        .`      STRHI    r0,[r1,#0]
        0x0001051c:    f24171a4    A..q    MOV      r1,#0x17a4
        0x00010520:    eb000080    ....    ADD      r0,r0,r0,LSL #2
        0x00010524:    f2c10100    ....    MOVT     r1,#0x1000
        0x00010528:    eb010080    ....    ADD      r0,r1,r0,LSL #2
        0x0001052c:    4621        !F      MOV      r1,r4
        0x0001052e:    f7feff80    ....    BL       vListInsertEnd ; 0xf432
        0x00010532:    f2417190    A..q    MOV      r1,#0x1790
        0x00010536:    f2c10100    ....    MOVT     r1,#0x1000
        0x0001053a:    6ae8        .j      LDR      r0,[r5,#0x2c]
        0x0001053c:    6809        .h      LDR      r1,[r1,#0]
        0x0001053e:    6ac9        .j      LDR      r1,[r1,#0x2c]
        0x00010540:    4288        .B      CMP      r0,r1
        0x00010542:    d906        ..      BLS      0x10552 ; xTaskRemoveFromEventList + 122
        0x00010544:    f64501c4    E...    MOV      r1,#0x58c4
        0x00010548:    f2c10100    ....    MOVT     r1,#0x1000
        0x0001054c:    2001        .       MOVS     r0,#1
        0x0001054e:    6008        .`      STR      r0,[r1,#0]
        0x00010550:    e000        ..      B        0x10554 ; xTaskRemoveFromEventList + 124
        0x00010552:    2000        .       MOVS     r0,#0
        0x00010554:    f2417198    A..q    MOV      r1,#0x1798
        0x00010558:    f2c10100    ....    MOVT     r1,#0x1000
        0x0001055c:    680a        .h      LDR      r2,[r1,#0]
        0x0001055e:    6812        .h      LDR      r2,[r2,#0]
        0x00010560:    b122        ".      CBZ      r2,0x1056c ; xTaskRemoveFromEventList + 148
        0x00010562:    6809        .h      LDR      r1,[r1,#0]
        0x00010564:    68c9        .h      LDR      r1,[r1,#0xc]
        0x00010566:    68c9        .h      LDR      r1,[r1,#0xc]
        0x00010568:    6849        Ih      LDR      r1,[r1,#4]
        0x0001056a:    e001        ..      B        0x10570 ; xTaskRemoveFromEventList + 152
        0x0001056c:    f04f31ff    O..1    MOV      r1,#0xffffffff
        0x00010570:    f6450278    E.x.    MOV      r2,#0x5878
        0x00010574:    f2c10200    ....    MOVT     r2,#0x1000
        0x00010578:    6011        .`      STR      r1,[r2,#0]
        0x0001057a:    bdb0        ..      POP      {r4,r5,r7,pc}
    xTaskResumeAll
        0x0001057c:    e92d4ff0    -..O    PUSH     {r4-r11,lr}
        0x00010580:    b081        ..      SUB      sp,sp,#4
        0x00010582:    f6450408    E...    MOV      r4,#0x5808
        0x00010586:    f2c10400    ....    MOVT     r4,#0x1000
        0x0001058a:    6820         h      LDR      r0,[r4,#0]
        0x0001058c:    b170        p.      CBZ      r0,0x105ac ; xTaskResumeAll + 48
        0x0001058e:    f7feff69    ..i.    BL       vPortEnterCritical ; 0xf464
        0x00010592:    6820         h      LDR      r0,[r4,#0]
        0x00010594:    3801        .8      SUBS     r0,#1
        0x00010596:    6020         `      STR      r0,[r4,#0]
        0x00010598:    6820         h      LDR      r0,[r4,#0]
        0x0001059a:    b140        @.      CBZ      r0,0x105ae ; xTaskResumeAll + 50
        0x0001059c:    2400        .$      MOVS     r4,#0
        0x0001059e:    f7feff7b    ..{.    BL       vPortExitCritical ; 0xf498
        0x000105a2:    4620         F      MOV      r0,r4
        0x000105a4:    b001        ..      ADD      sp,sp,#4
        0x000105a6:    e8bd8ff0    ....    POP      {r4-r11,pc}
        0x000105aa:    bf00        ..      NOP      
        0x000105ac:    e7fe        ..      B        0x105ac ; xTaskResumeAll + 48
        0x000105ae:    f6450000    E...    MOVW     r0,#0x5800
        0x000105b2:    f2c10000    ....    MOVT     r0,#0x1000
        0x000105b6:    6800        .h      LDR      r0,[r0,#0]
        0x000105b8:    2800        .(      CMP      r0,#0
        0x000105ba:    d0ef        ..      BEQ      0x1059c ; xTaskResumeAll + 32
        0x000105bc:    f6450680    E...    MOVW     r6,#0x5880
        0x000105c0:    f2c10600    ....    MOVT     r6,#0x1000
        0x000105c4:    6830        0h      LDR      r0,[r6,#0]
        0x000105c6:    f64508c4    E...    MOV      r8,#0x58c4
        0x000105ca:    2800        .(      CMP      r0,#0
        0x000105cc:    f2c10800    ....    MOVT     r8,#0x1000
        0x000105d0:    d042        B.      BEQ      0x10658 ; xTaskResumeAll + 220
        0x000105d2:    f6450710    E...    MOV      r7,#0x5810
        0x000105d6:    f24179a4    A..y    MOV      r9,#0x17a4
        0x000105da:    f2417b90    A..{    MOV      r11,#0x1790
        0x000105de:    f2c10700    ....    MOVT     r7,#0x1000
        0x000105e2:    f2c10900    ....    MOVT     r9,#0x1000
        0x000105e6:    f2c10b00    ....    MOVT     r11,#0x1000
        0x000105ea:    f04f0a01    O...    MOV      r10,#1
        0x000105ee:    bf00        ..      NOP      
        0x000105f0:    68f0        .h      LDR      r0,[r6,#0xc]
        0x000105f2:    68c5        .h      LDR      r5,[r0,#0xc]
        0x000105f4:    f1050018    ....    ADD      r0,r5,#0x18
        0x000105f8:    f7fefeca    ....    BL       uxListRemove ; 0xf390
        0x000105fc:    1d2c        ,.      ADDS     r4,r5,#4
        0x000105fe:    4620         F      MOV      r0,r4
        0x00010600:    f7fefec6    ....    BL       uxListRemove ; 0xf390
        0x00010604:    6ae8        .j      LDR      r0,[r5,#0x2c]
        0x00010606:    6839        9h      LDR      r1,[r7,#0]
        0x00010608:    4288        .B      CMP      r0,r1
        0x0001060a:    bf88        ..      IT       HI
        0x0001060c:    6038        8`      STRHI    r0,[r7,#0]
        0x0001060e:    eb000080    ....    ADD      r0,r0,r0,LSL #2
        0x00010612:    eb090080    ....    ADD      r0,r9,r0,LSL #2
        0x00010616:    4621        !F      MOV      r1,r4
        0x00010618:    f7feff0b    ....    BL       vListInsertEnd ; 0xf432
        0x0001061c:    6ae8        .j      LDR      r0,[r5,#0x2c]
        0x0001061e:    f8db1000    ....    LDR      r1,[r11,#0]
        0x00010622:    6ac9        .j      LDR      r1,[r1,#0x2c]
        0x00010624:    4288        .B      CMP      r0,r1
        0x00010626:    bf28        (.      IT       CS
        0x00010628:    f8c8a000    ....    STRCS    r10,[r8,#0]
        0x0001062c:    6830        0h      LDR      r0,[r6,#0]
        0x0001062e:    2800        .(      CMP      r0,#0
        0x00010630:    d1de        ..      BNE      0x105f0 ; xTaskResumeAll + 116
        0x00010632:    f2417098    A..p    MOV      r0,#0x1798
        0x00010636:    f2c10000    ....    MOVT     r0,#0x1000
        0x0001063a:    6801        .h      LDR      r1,[r0,#0]
        0x0001063c:    6809        .h      LDR      r1,[r1,#0]
        0x0001063e:    b121        !.      CBZ      r1,0x1064a ; xTaskResumeAll + 206
        0x00010640:    6800        .h      LDR      r0,[r0,#0]
        0x00010642:    68c0        .h      LDR      r0,[r0,#0xc]
        0x00010644:    68c0        .h      LDR      r0,[r0,#0xc]
        0x00010646:    6840        @h      LDR      r0,[r0,#4]
        0x00010648:    e001        ..      B        0x1064e ; xTaskResumeAll + 210
        0x0001064a:    f04f30ff    O..0    MOV      r0,#0xffffffff
        0x0001064e:    f6450178    E.x.    MOV      r1,#0x5878
        0x00010652:    f2c10100    ....    MOVT     r1,#0x1000
        0x00010656:    6008        .`      STR      r0,[r1,#0]
        0x00010658:    f6450404    E...    MOV      r4,#0x5804
        0x0001065c:    f2c10400    ....    MOVT     r4,#0x1000
        0x00010660:    6825        %h      LDR      r5,[r4,#0]
        0x00010662:    b155        U.      CBZ      r5,0x1067a ; xTaskResumeAll + 254
        0x00010664:    2601        .&      MOVS     r6,#1
        0x00010666:    bf00        ..      NOP      
        0x00010668:    f7fffe9a    ....    BL       xTaskIncrementTick ; 0x103a0
        0x0001066c:    b108        ..      CBZ      r0,0x10672 ; xTaskResumeAll + 246
        0x0001066e:    f8c86000    ...`    STR      r6,[r8,#0]
        0x00010672:    3d01        .=      SUBS     r5,#1
        0x00010674:    d1f8        ..      BNE      0x10668 ; xTaskResumeAll + 236
        0x00010676:    2000        .       MOVS     r0,#0
        0x00010678:    6020         `      STR      r0,[r4,#0]
        0x0001067a:    f8d80000    ....    LDR      r0,[r8,#0]
        0x0001067e:    2800        .(      CMP      r0,#0
        0x00010680:    f43faf8c    ?...    BEQ.W    0x1059c ; xTaskResumeAll + 32
        0x00010684:    f64e5004    N..P    MOV      r0,#0xed04
        0x00010688:    f2ce0000    ....    MOVT     r0,#0xe000
        0x0001068c:    f04f5180    O..Q    MOV      r1,#0x10000000
        0x00010690:    6001        .`      STR      r1,[r0,#0]
        0x00010692:    f3bf8f4f    ..O.    DSB      
        0x00010696:    2401        .$      MOVS     r4,#1
        0x00010698:    f3bf8f6f    ..o.    ISB      
        0x0001069c:    e77f        ..      B        0x1059e ; xTaskResumeAll + 34
        0x0001069e:    0000        ..      MOVS     r0,r0
    xTimerCreateTimerTask
        0x000106a0:    b580        ..      PUSH     {r7,lr}
        0x000106a2:    b082        ..      SUB      sp,sp,#8
        0x000106a4:    f7fefa80    ....    BL       prvCheckForValidListAndQueue ; 0xeba8
        0x000106a8:    f64500bc    E...    MOV      r0,#0x58bc
        0x000106ac:    f2c10000    ....    MOVT     r0,#0x1000
        0x000106b0:    6800        .h      LDR      r0,[r0,#0]
        0x000106b2:    b1a8        ..      CBZ      r0,0x106e0 ; xTimerCreateTimerTask + 64
        0x000106b4:    2003        .       MOVS     r0,#3
        0x000106b6:    f6450cc0    E...    MOV      r12,#0x58c0
        0x000106ba:    9000        ..      STR      r0,[sp,#0]
        0x000106bc:    f64e6051    N.Q`    MOV      r0,#0xee51
        0x000106c0:    f2c10c00    ....    MOVT     r12,#0x1000
        0x000106c4:    f2c00000    ....    MOVT     r0,#0
        0x000106c8:    a106        ..      ADR      r1,{pc}+0x1c ; 0x106e4
        0x000106ca:    f44f7280    O..r    MOV      r2,#0x100
        0x000106ce:    2300        .#      MOVS     r3,#0
        0x000106d0:    f8cdc004    ....    STR      r12,[sp,#4]
        0x000106d4:    f7fffd68    ..h.    BL       xTaskCreate ; 0x101a8
        0x000106d8:    b110        ..      CBZ      r0,0x106e0 ; xTimerCreateTimerTask + 64
        0x000106da:    b002        ..      ADD      sp,sp,#8
        0x000106dc:    bd80        ..      POP      {r7,pc}
        0x000106de:    bf00        ..      NOP      
        0x000106e0:    e7fe        ..      B        0x106e0 ; xTimerCreateTimerTask + 64
        0x000106e2:    bf00        ..      NOP      
    $d.1
        0x000106e4:    20726d54    Tmr     DCD    544370004
        0x000106e8:    00637653    Svc.    DCD    6518355
    $t.5
    xTimerGenericCommand
        0x000106ec:    b1c0        ..      CBZ      r0,0x10720 ; xTimerGenericCommand + 52
        0x000106ee:    b510        ..      PUSH     {r4,lr}
        0x000106f0:    b084        ..      SUB      sp,sp,#0x10
        0x000106f2:    f64504bc    E...    MOV      r4,#0x58bc
        0x000106f6:    f2c10400    ....    MOVT     r4,#0x1000
        0x000106fa:    4684        .F      MOV      r12,r0
        0x000106fc:    6820         h      LDR      r0,[r4,#0]
        0x000106fe:    b180        ..      CBZ      r0,0x10722 ; xTimerGenericCommand + 54
        0x00010700:    2905        .)      CMP      r1,#5
        0x00010702:    e9cd1200    ....    STRD     r1,r2,[sp,#0]
        0x00010706:    f8cdc008    ....    STR      r12,[sp,#8]
        0x0001070a:    dc0c        ..      BGT      0x10726 ; xTimerGenericCommand + 58
        0x0001070c:    f7fffe2f    ../.    BL       xTaskGetSchedulerState ; 0x1036e
        0x00010710:    4601        .F      MOV      r1,r0
        0x00010712:    6820         h      LDR      r0,[r4,#0]
        0x00010714:    2902        .)      CMP      r1,#2
        0x00010716:    d10c        ..      BNE      0x10732 ; xTimerGenericCommand + 70
        0x00010718:    9a06        ..      LDR      r2,[sp,#0x18]
        0x0001071a:    4669        iF      MOV      r1,sp
        0x0001071c:    e00b        ..      B        0x10736 ; xTimerGenericCommand + 74
        0x0001071e:    bf00        ..      NOP      
        0x00010720:    e7fe        ..      B        0x10720 ; xTimerGenericCommand + 52
        0x00010722:    2000        .       MOVS     r0,#0
        0x00010724:    e00a        ..      B        0x1073c ; xTimerGenericCommand + 80
        0x00010726:    4669        iF      MOV      r1,sp
        0x00010728:    461a        .F      MOV      r2,r3
        0x0001072a:    2300        .#      MOVS     r3,#0
        0x0001072c:    f7fffc10    ....    BL       xQueueGenericSendFromISR ; 0xff50
        0x00010730:    e004        ..      B        0x1073c ; xTimerGenericCommand + 80
        0x00010732:    4669        iF      MOV      r1,sp
        0x00010734:    2200        ."      MOVS     r2,#0
        0x00010736:    2300        .#      MOVS     r3,#0
        0x00010738:    f7fffb68    ..h.    BL       xQueueGenericSend ; 0xfe0c
        0x0001073c:    b004        ..      ADD      sp,sp,#0x10
        0x0001073e:    bd10        ..      POP      {r4,pc}
    xTimerPendFunctionCallFromISR
        0x00010740:    b580        ..      PUSH     {r7,lr}
        0x00010742:    b084        ..      SUB      sp,sp,#0x10
        0x00010744:    469c        .F      MOV      r12,r3
        0x00010746:    f06f0301    o...    MVN      r3,#1
        0x0001074a:    e9cd3000    ...0    STRD     r3,r0,[sp,#0]
        0x0001074e:    f64500bc    E...    MOV      r0,#0x58bc
        0x00010752:    f2c10000    ....    MOVT     r0,#0x1000
        0x00010756:    6800        .h      LDR      r0,[r0,#0]
        0x00010758:    9102        ..      STR      r1,[sp,#8]
        0x0001075a:    9203        ..      STR      r2,[sp,#0xc]
        0x0001075c:    4669        iF      MOV      r1,sp
        0x0001075e:    4662        bF      MOV      r2,r12
        0x00010760:    2300        .#      MOVS     r3,#0
        0x00010762:    f7fffbf5    ....    BL       xQueueGenericSendFromISR ; 0xff50
        0x00010766:    b004        ..      ADD      sp,sp,#0x10
        0x00010768:    bd80        ..      POP      {r7,pc}
        0x0001076a:    0000        ..      MOVS     r0,r0
    $t
    x$fpl$d2f
    $v0
    __aeabi_d2f
    _d2f
        0x0001076c:    f0214200    !..B    BIC      r2,r1,#0x80000000
        0x00010770:    f0014300    ...C    AND      r3,r1,#0x80000000
        0x00010774:    f1a25260    ..`R    SUB      r2,r2,#0x38000000
        0x00010778:    f5b21f80    ....    CMP      r2,#0x100000
        0x0001077c:    bf28        (.      IT       CS
        0x0001077e:    f1d26c7f    ...l    RSBSCS   r12,r2,#0xff00000
        0x00010782:    d90b        ..      BLS      0x1079c ; __aeabi_d2f + 48
        0x00010784:    ea5f1c00    _...    LSLS     r12,r0,#4
        0x00010788:    ea4302c2    C...    ORR      r2,r3,r2,LSL #3
        0x0001078c:    eb427050    B.Pp    ADC      r0,r2,r0,LSR #29
        0x00010790:    bf18        ..      IT       NE
        0x00010792:    4770        pG      BXNE     lr
        0x00010794:    bf28        (.      IT       CS
        0x00010796:    f0200001     ...    BICCS    r0,r0,#1
        0x0001079a:    4770        pG      BX       lr
        0x0001079c:    f5b21f80    ....    CMP      r2,#0x100000
        0x000107a0:    bfbc        ..      ITT      LT
        0x000107a2:    4618        .F      MOVLT    r0,r3
        0x000107a4:    4770        pG      BXLT     lr
        0x000107a6:    ea4f0c41    O.A.    LSL      r12,r1,#1
        0x000107aa:    f51c1f00    ....    CMN      r12,#0x200000
        0x000107ae:    d202        ..      BCS      0x107b6 ; __aeabi_d2f + 74
        0x000107b0:    4608        .F      MOV      r0,r1
        0x000107b2:    f000b867    ..g.    B.W      __fpl_fretinf ; 0x10884
        0x000107b6:    b570        p.      PUSH     {r4-r6,lr}
        0x000107b8:    f000f809    ....    BL       __fpl_dnaninf ; 0x107ce
    $d
        0x000107bc:    89000000    ....    DCD    2298478592
    $t
        0x000107c0:    f7ffbff6    ....    B.W      0x107b0 ; __aeabi_d2f + 68
        0x000107c4:    f04f4000    O..@    MOV      r0,#0x80000000
        0x000107c8:    f5a00080    ....    SUB      r0,r0,#0x400000
        0x000107cc:    4770        pG      BX       lr
    x$fpl$dnaninf
    $v0
    __fpl_dnaninf
        0x000107ce:    f10e0e02    ....    ADD      lr,lr,#2
        0x000107d2:    f02e0e03    ....    BIC      lr,lr,#3
        0x000107d6:    f85e6b04    ^..k    LDR      r6,[lr],#4
        0x000107da:    4236        6B      TST      r6,r6
        0x000107dc:    d405        ..      BMI      0x107ea ; __fpl_dnaninf + 28
        0x000107de:    2a01        .*      CMP      r2,#1
        0x000107e0:    eb430503    C...    ADC      r5,r3,r3
        0x000107e4:    f5151f00    ....    CMN      r5,#0x200000
        0x000107e8:    d812        ..      BHI      0x10810 ; __fpl_dnaninf + 66
        0x000107ea:    2801        .(      CMP      r0,#1
        0x000107ec:    eb410c01    A...    ADC      r12,r1,r1
        0x000107f0:    f51c1f00    ....    CMN      r12,#0x200000
        0x000107f4:    d80c        ..      BHI      0x10810 ; __fpl_dnaninf + 66
        0x000107f6:    d10e        ..      BNE      0x10816 ; __fpl_dnaninf + 72
        0x000107f8:    ea4f7cd1    O..|    LSR      r12,r1,#31
        0x000107fc:    eb0c0c4c    ..L.    ADD      r12,r12,r12,LSL #1
        0x00010800:    f10c0c02    ....    ADD      r12,r12,#2
        0x00010804:    f5151f00    ....    CMN      r5,#0x200000
        0x00010808:    bf08        ..      IT       EQ
        0x0001080a:    eb4c7cd3    L..|    ADCEQ    r12,r12,r3,LSR #31
        0x0001080e:    e004        ..      B        0x1081a ; __fpl_dnaninf + 76
        0x00010810:    f04f0c08    O...    MOV      r12,#8
        0x00010814:    e001        ..      B        0x1081a ; __fpl_dnaninf + 76
        0x00010816:    ea4f7cd3    O..|    LSR      r12,r3,#31
        0x0001081a:    eb0c054c    ..L.    ADD      r5,r12,r12,LSL #1
        0x0001081e:    fa26f605    &...    LSR      r6,r6,r5
        0x00010822:    f0060607    ....    AND      r6,r6,#7
        0x00010826:    f1b60c04    ....    SUBS     r12,r6,#4
        0x0001082a:    d206        ..      BCS      0x1083a ; __fpl_dnaninf + 108
        0x0001082c:    eb0e0c86    ....    ADD      r12,lr,r6,LSL #2
        0x00010830:    e8bd4070    ..p@    POP      {r4-r6,lr}
        0x00010834:    f04c0c01    L...    ORR      r12,r12,#1
        0x00010838:    4760        `G      BX       r12
        0x0001083a:    e8dff00c    ....    TBB      [pc,r12]
    $d
        0x0001083e:    0b09        ..      DCW    2825
        0x00010840:    0202        ..      DCW    514
    $t
        0x00010842:    f04f4100    O..A    MOV      r1,#0x80000000
        0x00010846:    f5a12100    ...!    SUB      r1,r1,#0x80000
        0x0001084a:    f04f0000    O...    MOV      r0,#0
        0x0001084e:    bd70        p.      POP      {r4-r6,pc}
        0x00010850:    4619        .F      MOV      r1,r3
        0x00010852:    4610        .F      MOV      r0,r2
        0x00010854:    2801        .(      CMP      r0,#1
        0x00010856:    eb510401    Q...    ADCS     r4,r1,r1
        0x0001085a:    bf18        ..      IT       NE
        0x0001085c:    f5d41400    ....    RSBSNE   r4,r4,#0x200000
        0x00010860:    bf84        ..      ITT      HI
        0x00010862:    2000        .       MOVHI    r0,#0
        0x00010864:    f0014100    ...A    ANDHI    r1,r1,#0x80000000
        0x00010868:    bd70        p.      POP      {r4-r6,pc}
    x$fpl$fpinit
    $v0
    _fp_init
        0x0001086a:    eef10a10    ....    VMRS     r0,FPSCR
        0x0001086e:    f64f71ff    O..q    MOV      r1,#0xffff
        0x00010872:    f2c031c0    ...1    MOVT     r1,#0x3c0
        0x00010876:    ea200001     ...    BIC      r0,r0,r1
        0x0001087a:    f0407040    @.@p    ORR      r0,r0,#0x3000000
        0x0001087e:    eee10a10    ....    VMSR     FPSCR,r0
    __fplib_config_fpu_vfp
    __fplib_config_pureend_doubles
        0x00010882:    4770        pG      BX       lr
    x$fpl$fretinf
    $v0
    __fpl_fretinf
        0x00010884:    21ff        .!      MOVS     r1,#0xff
        0x00010886:    ea4150d0    A..P    ORR      r0,r1,r0,LSR #23
        0x0001088a:    05c0        ..      LSLS     r0,r0,#23
        0x0001088c:    4770        pG      BX       lr
    x$fpl$usenofp
    __I$use$fp
        0x0001088e:    0000        ..      MOVS     r0,r0
    $d.realdata
    .L__const.am_hal_flash_store_ui32.SRAM_write_ui32
        0x00010890:    bf006001    .`..    DCD    3204472833
        0x00010894:    bf006800    .h..    DCD    3204474880
        0x00010898:    bf004770    pG..    DCD    3204466544
    am_hal_cachectrl_defaults
        0x0001089c:    00000308    ....    DCD    776
    am_hal_pwrctrl_memory_control
        0x000108a0:    00000000    ....    DCD    0
        0x000108a4:    00000000    ....    DCD    0
        0x000108a8:    00000000    ....    DCD    0
        0x000108ac:    00000000    ....    DCD    0
        0x000108b0:    00000000    ....    DCD    0
        0x000108b4:    00000000    ....    DCD    0
        0x000108b8:    00000001    ....    DCD    1
        0x000108bc:    00000001    ....    DCD    1
        0x000108c0:    00000001    ....    DCD    1
        0x000108c4:    00001fff    ....    DCD    8191
        0x000108c8:    00001fff    ....    DCD    8191
        0x000108cc:    00000001    ....    DCD    1
        0x000108d0:    00000003    ....    DCD    3
        0x000108d4:    00000003    ....    DCD    3
        0x000108d8:    00000003    ....    DCD    3
        0x000108dc:    00001fff    ....    DCD    8191
        0x000108e0:    00001fff    ....    DCD    8191
        0x000108e4:    00000003    ....    DCD    3
        0x000108e8:    00000007    ....    DCD    7
        0x000108ec:    00000007    ....    DCD    7
        0x000108f0:    00000007    ....    DCD    7
        0x000108f4:    00001fff    ....    DCD    8191
        0x000108f8:    00001fff    ....    DCD    8191
        0x000108fc:    00000007    ....    DCD    7
        0x00010900:    0000000f    ....    DCD    15
        0x00010904:    0000000f    ....    DCD    15
        0x00010908:    0000000f    ....    DCD    15
        0x0001090c:    00001fff    ....    DCD    8191
        0x00010910:    00001fff    ....    DCD    8191
        0x00010914:    0000000f    ....    DCD    15
        0x00010918:    0000001f    ....    DCD    31
        0x0001091c:    0000001f    ....    DCD    31
        0x00010920:    0000001f    ....    DCD    31
        0x00010924:    00001fff    ....    DCD    8191
        0x00010928:    00001fff    ....    DCD    8191
        0x0001092c:    0000001f    ....    DCD    31
        0x00010930:    0000003f    ?...    DCD    63
        0x00010934:    0000003f    ?...    DCD    63
        0x00010938:    0000003f    ?...    DCD    63
        0x0001093c:    00001fff    ....    DCD    8191
        0x00010940:    00001fff    ....    DCD    8191
        0x00010944:    0000003f    ?...    DCD    63
        0x00010948:    0000007f    ....    DCD    127
        0x0001094c:    0000007f    ....    DCD    127
        0x00010950:    0000007f    ....    DCD    127
        0x00010954:    00001fff    ....    DCD    8191
        0x00010958:    00001fff    ....    DCD    8191
        0x0001095c:    0000007f    ....    DCD    127
        0x00010960:    000000ff    ....    DCD    255
        0x00010964:    000000ff    ....    DCD    255
        0x00010968:    000000ff    ....    DCD    255
        0x0001096c:    00001fff    ....    DCD    8191
        0x00010970:    00001fff    ....    DCD    8191
        0x00010974:    000000ff    ....    DCD    255
        0x00010978:    000001ff    ....    DCD    511
        0x0001097c:    000001ff    ....    DCD    511
        0x00010980:    000001ff    ....    DCD    511
        0x00010984:    00001fff    ....    DCD    8191
        0x00010988:    00001fff    ....    DCD    8191
        0x0001098c:    000001ff    ....    DCD    511
        0x00010990:    000003ff    ....    DCD    1023
        0x00010994:    000003ff    ....    DCD    1023
        0x00010998:    000003ff    ....    DCD    1023
        0x0001099c:    00001fff    ....    DCD    8191
        0x000109a0:    00001fff    ....    DCD    8191
        0x000109a4:    000003ff    ....    DCD    1023
        0x000109a8:    000007ff    ....    DCD    2047
        0x000109ac:    000007ff    ....    DCD    2047
        0x000109b0:    000007ff    ....    DCD    2047
        0x000109b4:    00001fff    ....    DCD    8191
        0x000109b8:    00001fff    ....    DCD    8191
        0x000109bc:    000007ff    ....    DCD    2047
        0x000109c0:    00000fff    ....    DCD    4095
        0x000109c4:    00000fff    ....    DCD    4095
        0x000109c8:    00000fff    ....    DCD    4095
        0x000109cc:    00001fff    ....    DCD    8191
        0x000109d0:    00001fff    ....    DCD    8191
        0x000109d4:    00000fff    ....    DCD    4095
        0x000109d8:    00001fff    ....    DCD    8191
        0x000109dc:    00001fff    ....    DCD    8191
        0x000109e0:    00001fff    ....    DCD    8191
        0x000109e4:    00001fff    ....    DCD    8191
        0x000109e8:    00001fff    ....    DCD    8191
        0x000109ec:    00001fff    ....    DCD    8191
        0x000109f0:    00002000    . ..    DCD    8192
        0x000109f4:    00002000    . ..    DCD    8192
        0x000109f8:    00002000    . ..    DCD    8192
        0x000109fc:    00006000    .`..    DCD    24576
        0x00010a00:    00006000    .`..    DCD    24576
        0x00010a04:    00002000    . ..    DCD    8192
        0x00010a08:    00006000    .`..    DCD    24576
        0x00010a0c:    00006000    .`..    DCD    24576
        0x00010a10:    00006000    .`..    DCD    24576
        0x00010a14:    00006000    .`..    DCD    24576
        0x00010a18:    00006000    .`..    DCD    24576
        0x00010a1c:    00006000    .`..    DCD    24576
        0x00010a20:    c0000000    ....    DCD    3221225472
        0x00010a24:    00000000    ....    DCD    0
        0x00010a28:    c0000000    ....    DCD    3221225472
        0x00010a2c:    c0000000    ....    DCD    3221225472
        0x00010a30:    00000000    ....    DCD    0
        0x00010a34:    80000000    ....    DCD    2147483648
        0x00010a38:    c0007fff    ....    DCD    3221258239
        0x00010a3c:    00007fff    ....    DCD    32767
        0x00010a40:    c0007fff    ....    DCD    3221258239
        0x00010a44:    c0007fff    ....    DCD    3221258239
        0x00010a48:    00007fff    ....    DCD    32767
        0x00010a4c:    80007fff    ....    DCD    2147516415
    g_AM_BSP_GPIO_BUTTON0
        0x00010a50:    00001003    ....    DCD    4099
    g_AM_BSP_GPIO_BUTTON1
        0x00010a54:    00001003    ....    DCD    4099
    g_AM_BSP_GPIO_BUTTON2
        0x00010a58:    00001003    ....    DCD    4099
    g_AM_BSP_GPIO_ITM_SWO
        0x00010a5c:    00000002    ....    DCD    2
    g_AM_HAL_GPIO_DISABLE
        0x00010a60:    00000003    ....    DCD    3
    g_AM_HAL_GPIO_OUTPUT
        0x00010a64:    00000403    ....    DCD    1027
    g_AM_HAL_GPIO_TRISTATE
        0x00010a68:    00000c03    ....    DCD    3075
    g_am_hal_mcuctrl_flash_size
        0x00010a6c:    00004000    .@..    DCD    16384
        0x00010a70:    00008000    ....    DCD    32768
        0x00010a74:    00010000    ....    DCD    65536
        0x00010a78:    00020000    ....    DCD    131072
        0x00010a7c:    00040000    ....    DCD    262144
        0x00010a80:    00080000    ....    DCD    524288
        0x00010a84:    00100000    ....    DCD    1048576
        0x00010a88:    00200000    .. .    DCD    2097152
        0x00010a8c:    00180000    ....    DCD    1572864
        0x00010a90:    00000000    ....    DCD    0
        0x00010a94:    00000000    ....    DCD    0
        0x00010a98:    00000000    ....    DCD    0
        0x00010a9c:    00000000    ....    DCD    0
        0x00010aa0:    00000000    ....    DCD    0
        0x00010aa4:    00000000    ....    DCD    0
        0x00010aa8:    00000000    ....    DCD    0
    g_am_hal_mcuctrl_sram_size
        0x00010aac:    00004000    .@..    DCD    16384
        0x00010ab0:    00008000    ....    DCD    32768
        0x00010ab4:    00010000    ....    DCD    65536
        0x00010ab8:    00020000    ....    DCD    131072
        0x00010abc:    00040000    ....    DCD    262144
        0x00010ac0:    00080000    ....    DCD    524288
        0x00010ac4:    00100000    ....    DCD    1048576
        0x00010ac8:    00060000    ....    DCD    393216
        0x00010acc:    000c0000    ....    DCD    786432
        0x00010ad0:    00000000    ....    DCD    0
        0x00010ad4:    00000000    ....    DCD    0
        0x00010ad8:    00000000    ....    DCD    0
        0x00010adc:    00000000    ....    DCD    0
        0x00010ae0:    00000000    ....    DCD    0
        0x00010ae4:    00000000    ....    DCD    0
        0x00010ae8:    00000000    ....    DCD    0
    g_ui8Bit76Capabilities
        0x00010aec:    02800101    ....    DCD    41943297
        0x00010af0:    80010180    ....    DCD    2147549568
        0x00010af4:    80800101    ....    DCD    2155872513
        0x00010af8:    80808080    ....    DCD    2155905152
        0x00010afc:    80808080    ....    DCD    2155905152
        0x00010b00:    80808008    ....    DCD    2155905032
        0x00010b04:    01800180    ....    DCD    25166208
        0x00010b08:    80808080    ....    DCD    2155905152
        0x00010b0c:    80808080    ....    DCD    2155905152
        0x00010b10:    01800402    ....    DCD    25166850
        0x00010b14:    01010401    ....    DCD    16843777
        0x00010b18:    80808080    ....    DCD    2155905152
        0x00010b1c:    80800101    ....    DCD    2155872513
        0x00010b20:    80808080    ....    DCD    2155905152
        0x00010b24:    80808080    ....    DCD    2155905152
        0x00010b28:    80808080    ....    DCD    2155905152
        0x00010b2c:    80808080    ....    DCD    2155905152
        0x00010b30:    80808080    ....    DCD    2155905152
        0x00010b34:    8080        ..      DCW    32896
    g_ui8Inpen
        0x00010b36:    2323        ##      DCW    8995
        0x00010b38:    03a16227    'b..    DCD    60908071
        0x00010b3c:    53031087    ...S    DCD    1392709767
        0x00010b40:    8151e100    ..Q.    DCD    2169626880
        0x00010b44:    c4055541    AU..    DCD    3288683841
        0x00010b48:    b1014080    .@..    DCD    2969649280
        0x00010b4c:    31144140    @A.1    DCD    823411008
        0x00010b50:    f10031a0    .1..    DCD    4043321760
        0x00010b54:    21911180    ...!    DCD    563155328
        0x00010b58:    11e511c1    ....    DCD    300224961
        0x00010b5c:    00373045    E07.    DCD    3616837
        0x00010b60:    71003130    01.q    DCD    1895838000
        0x00010b64:    31304000    .@01    DCD    825245696
        0x00010b68:    01010100    ....    DCD    16843008
        0x00010b6c:    01010101    ....    DCD    16843009
        0x00010b70:    a0010101    ....    DCD    2684420353
        0x00010b74:    0101a050    P...    DCD    16883792
        0x00010b78:    a0010101    ....    DCD    2684420353
        0x00010b7c:    50a0a0a0    ...P    DCD    1352704160
    g_ui8NCEtable
        0x00010b80:    0112a4a3    ....    DCD    17999011
        0x00010b84:    a4a2a1a0    ....    DCD    2762121632
        0x00010b88:    92b502b3    ....    DCD    2461336243
        0x00010b8c:    82858483    ....    DCD    2189788291
        0x00010b90:    91019493    ....    DCD    2432799891
        0x00010b94:    ffffffff    ....    DCD    4294967295
        0x00010b98:    ffffffff    ....    DCD    4294967295
        0x00010b9c:    00951201    ....    DCD    9769473
        0x00010ba0:    80028483    ....    DCD    2147648643
        0x00010ba4:    b2b5b401    ....    DCD    2998252545
        0x00010ba8:    0011a4a3    ....    DCD    1156259
        0x00010bac:    83828180    ....    DCD    2206368128
        0x00010bb0:    10850283    ....    DCD    277152387
        0x00010bb4:    90959493    ....    DCD    2425722003
        0x00010bb8:    a4a212a0    ....    DCD    2762085024
        0x00010bbc:    00b2b101    ....    DCD    11710721
        0x00010bc0:    85b20280    ....    DCD    2243035776
        0x00010bc4:    94029190    ....    DCD    2483196304
        0x00010bc8:    a3a2a102    ....    DCD    2745344258
        0x00010bcc:    00b311b0    ....    DCD    11735472
        0x00010bd0:    92950012    ....    DCD    2459238418
        0x00010bd4:    0102a4a3    ....    DCD    16950435
        0x00010bd8:    02b5b4b3    ....    DCD    45462707
        0x00010bdc:    84828180    ....    DCD    2223145344
        0x00010be0:    95920190    ....    DCD    2509373840
        0x00010be4:    a0a501a3    ....    DCD    2695168419
        0x00010be8:    b1b5b4b3    ....    DCD    2981475507
        0x00010bec:    81008402    ....    DCD    2164294658
        0x00010bf0:    00959493    ....    DCD    9802899
        0x00010bf4:    a1a512a3    ....    DCD    2711949987
        0x00010bf8:    b002b400    ....    DCD    2952967168
        0x00010bfc:    84820201    ....    DCD    2223112705
        0x00010c00:    1001b190    ....    DCD    268546448
        0x00010c04:    a59211a0    ....    DCD    2777813408
        0x00010c08:    11b202b0    ....    DCD    296878768
        0x00010c0c:    02828101    ....    DCD    42107137
        0x00010c10:    10959493    ....    DCD    278238355
        0x00010c14:    00a5a493    ....    DCD    10855571
        0x00010c18:    b512b1b0    ....    DCD    3037901232
        0x00010c1c:    ffffffff    ....    DCD    4294967295
        0x00010c20:    ffffffff    ....    DCD    4294967295
        0x00010c24:    10119102    ....    DCD    269586690
        0x00010c28:    85820180    ....    DCD    2239889792
        0x00010c2c:    10029190    ....    DCD    268603792
        0x00010c30:    a5a200a0    ....    DCD    2778857632
        0x00010c34:    b185b4b3    ....    DCD    2978329779
        0x00010c38:    10020183    ....    DCD    268566915
        0x00010c3c:    93928111    ....    DCD    2475852049
        0x00010c40:    12a2a101    ....    DCD    312647937
        0x00010c44:    81b211b0    ....    DCD    2175930800
        0x00010c48:    80b20201    ....    DCD    2159149569
        0x00010c4c:    809291a4    ....    DCD    2157089188
        0x00010c50:    9200a190    ....    DCD    2449514896
        0x00010c54:    8202b1a0    ....    DCD    2181214624
        0x00010c58:    83858402    ....    DCD    2206565378
        0x00010c5c:    84950083    ....    DCD    2224357507
        0x00010c60:    10a5b4a3    ....    DCD    279295139
        0x00010c64:    90b5b400    ....    DCD    2427827200
        0x00010c68:    b50081b3    ....    DCD    3036709299
        0x00010c6c:    00929111    ....    DCD    9605393
        0x00010c70:    b0a2a110    ....    DCD    2963448080
        0x00010c74:    0102b100    ....    DCD    16953600
        0x00010c78:    11858410    ....    DCD    293962768
        0x00010c7c:    00029401    ....    DCD    168961
        0x00010c80:    10a5a480    ....    DCD    279291008
        0x00010c84:    93a50090    ....    DCD    2477064336
        0x00010c88:    94828101    ....    DCD    2491580673
        0x00010c8c:    95b291b0    ....    DCD    2511507888
        0x00010c90:    a0a20083    ....    DCD    2694971523
        0x00010c94:    0100b193    ....    DCD    16822675
        0x00010c98:    118502a3    ....    DCD    293929635
        0x00010c9c:    a1b094b3    ....    DCD    2712704179
        0x00010ca0:    a2010200    ....    DCD    2717975040
        0x00010ca4:    02b5b401    ....    DCD    45462529
    g_ui8nCEpins
        0x00010ca8:    02070707    ....    DCD    34014983
        0x00010cac:    00080802    ....    DCD    526338
        0x00010cb0:    01020202    ....    DCD    16908802
        0x00010cb4:    01010101    ....    DCD    16843009
        0x00010cb8:    01010101    ....    DCD    16843009
        0x00010cbc:    01010101    ....    DCD    16843009
        0x00010cc0:    01010101    ....    DCD    16843009
        0x00010cc4:    01010101    ....    DCD    16843009
        0x00010cc8:    01010101    ....    DCD    16843009
        0x00010ccc:    08010101    ....    DCD    134283521
        0x00010cd0:    01010008    ....    DCD    16842760
        0x00010cd4:    01010101    ....    DCD    16843009
        0x00010cd8:    01010101    ....    DCD    16843009
        0x00010cdc:    01010101    ....    DCD    16843009
        0x00010ce0:    01010101    ....    DCD    16843009
        0x00010ce4:    01010101    ....    DCD    16843009
        0x00010ce8:    01010101    ....    DCD    16843009
        0x00010cec:    01010101    ....    DCD    16843009
        0x00010cf0:    0101        ..      DCW    257
    .L.str
        0x00010cf2:    6148        Ha      DCW    24904
        0x00010cf4:    46206472    rd F    DCD    1176527986
        0x00010cf8:    746c7561    ault    DCD    1953264993
        0x00010cfc:    61747320     sta    DCD    1635021600
        0x00010d00:    64656b63    cked    DCD    1684368227
        0x00010d04:    74616420     dat    DCD    1952539680
        0x00010d08:    000a3a61    a:..    DCD    670305
    .L.str.23
        0x00010d0c:    2055434d    MCU     DCD    542458701
        0x00010d10:    6c756146    Faul    DCD    1819631942
        0x00010d14:    61642074    t da    DCD    1633951860
        0x00010d18:    0a3a6174    ta:.    DCD    171598196
        0x00010d1c:    00          .       DCB    0
    .L.str.9
        0x00010d1d:    4f7468      Oth     DCB    79,116,104
        0x00010d20:    48207265    er H    DCD    1210085989
        0x00010d24:    20647261    ard     DCD    543453793
        0x00010d28:    6c756146    Faul    DCD    1819631942
        0x00010d2c:    61642074    t da    DCD    1633951860
        0x00010d30:    0a3a6174    ta:.    DCD    171598196
        0x00010d34:    00          .       DCB    0
    .L.str.16
        0x00010d35:    202020              DCB    32,32,32
        0x00010d38:    20202020            DCD    538976288
        0x00010d3c:    53464220     BFS    DCD    1397113376
        0x00010d40:    69622052    R bi    DCD    1768038482
        0x00010d44:    203a3674    t6:     DCD    540685940
        0x00010d48:    45534552    RESE    DCD    1163085138
        0x00010d4c:    44455652    RVED    DCD    1145394770
        0x00010d50:    000a        ..      DCW    10
    .L.str.15
        0x00010d52:    2020                DCW    8224
        0x00010d54:    20202020            DCD    538976288
        0x00010d58:    46422020      BF    DCD    1178738720
        0x00010d5c:    62205253    SR b    DCD    1646285395
        0x00010d60:    3a377469    it7:    DCD    976712809
        0x00010d64:    41464220     BFA    DCD    1095123488
        0x00010d68:    4c415652    RVAL    DCD    1279350354
        0x00010d6c:    000a4449    ID..    DCD    672841
    .L.str.21
        0x00010d70:    20202020            DCD    538976288
        0x00010d74:    20202020            DCD    538976288
        0x00010d78:    52534642    BFSR    DCD    1381189186
        0x00010d7c:    74696220     bit    DCD    1953063456
        0x00010d80:    50203a31    1: P    DCD    1344289329
        0x00010d84:    49434552    RECI    DCD    1229145426
        0x00010d88:    52454553    SEER    DCD    1380271443
        0x00010d8c:    0a52        R.      DCW    2642
        0x00010d8e:    00          .       DCB    0
    .L.str.18
        0x00010d8f:    20                  DCB    32
        0x00010d90:    20202020            DCD    538976288
        0x00010d94:    42202020       B    DCD    1109401632
        0x00010d98:    20525346    FSR     DCD    542266182
        0x00010d9c:    34746962    bit4    DCD    880044386
        0x00010da0:    5453203a    : ST    DCD    1414733882
        0x00010da4:    5252454b    KERR    DCD    1381123403
        0x00010da8:    000a        ..      DCW    10
    .L.str.19
        0x00010daa:    2020                DCW    8224
        0x00010dac:    20202020            DCD    538976288
        0x00010db0:    46422020      BF    DCD    1178738720
        0x00010db4:    62205253    SR b    DCD    1646285395
        0x00010db8:    3a337469    it3:    DCD    976450665
        0x00010dbc:    534e5520     UNS    DCD    1397642528
        0x00010dc0:    52454b54    TKER    DCD    1380272980
        0x00010dc4:    0a52        R.      DCW    2642
        0x00010dc6:    00          .       DCB    0
    .L.str.17
        0x00010dc7:    20                  DCB    32
        0x00010dc8:    20202020            DCD    538976288
        0x00010dcc:    42202020       B    DCD    1109401632
        0x00010dd0:    20525346    FSR     DCD    542266182
        0x00010dd4:    35746962    bit5    DCD    896821602
        0x00010dd8:    534c203a    : LS    DCD    1397497914
        0x00010ddc:    52524550    PERR    DCD    1381123408
        0x00010de0:    000a        ..      DCW    10
    .L.str.20
        0x00010de2:    2020                DCW    8224
        0x00010de4:    20202020            DCD    538976288
        0x00010de8:    46422020      BF    DCD    1178738720
        0x00010dec:    62205253    SR b    DCD    1646285395
        0x00010df0:    3a327469    it2:    DCD    976385129
        0x00010df4:    504d4920     IMP    DCD    1347242272
        0x00010df8:    49434552    RECI    DCD    1229145426
        0x00010dfc:    52524553    SERR    DCD    1381123411
        0x00010e00:    000a        ..      DCW    10
    .L.str.22
        0x00010e02:    2020                DCW    8224
        0x00010e04:    20202020            DCD    538976288
        0x00010e08:    46422020      BF    DCD    1178738720
        0x00010e0c:    62205253    SR b    DCD    1646285395
        0x00010e10:    3a307469    it0:    DCD    976254057
        0x00010e14:    55424920     IBU    DCD    1430407456
        0x00010e18:    52524553    SERR    DCD    1381123411
        0x00010e1c:    000a        ..      DCW    10
    .L.str.25
        0x00010e1e:    2020                DCW    8224
        0x00010e20:    4f434420     DCO    DCD    1329808416
        0x00010e24:    46204544    DE F    DCD    1176520004
        0x00010e28:    746c7561    ault    DCD    1953264993
        0x00010e2c:    64644120     Add    DCD    1684291872
        0x00010e30:    73736572    ress    DCD    1936942450
        0x00010e34:    7830203a    : 0x    DCD    2016419898
        0x00010e38:    58383025    %08X    DCD    1480077349
        0x00010e3c:    000a        ..      DCW    10
    .L.str.24
        0x00010e3e:    2020                DCW    8224
        0x00010e40:    4f434920     ICO    DCD    1329809696
        0x00010e44:    46204544    DE F    DCD    1176520004
        0x00010e48:    746c7561    ault    DCD    1953264993
        0x00010e4c:    64644120     Add    DCD    1684291872
        0x00010e50:    73736572    ress    DCD    1936942450
        0x00010e54:    7830203a    : 0x    DCD    2016419898
        0x00010e58:    58383025    %08X    DCD    1480077349
        0x00010e5c:    000a        ..      DCW    10
    .L.str.26
        0x00010e5e:    2020                DCW    8224
        0x00010e60:    53595320     SYS    DCD    1398362912
        0x00010e64:    75614620     Fau    DCD    1969309216
        0x00010e68:    4120746c    lt A    DCD    1092645996
        0x00010e6c:    65726464    ddre    DCD    1701995620
        0x00010e70:    203a7373    ss:     DCD    540701555
        0x00010e74:    30257830    0x%0    DCD    807761968
        0x00010e78:    000a5838    8X..    DCD    677944
    .L.str.1
        0x00010e7c:    20202020            DCD    538976288
        0x00010e80:    20203052    R0      DCD    538980434
        0x00010e84:    7830203d    = 0x    DCD    2016419901
        0x00010e88:    58383025    %08X    DCD    1480077349
        0x00010e8c:    000a        ..      DCW    10
    .L.str.2
        0x00010e8e:    2020                DCW    8224
        0x00010e90:    31522020      R1    DCD    827465760
        0x00010e94:    203d2020      =     DCD    540876832
        0x00010e98:    30257830    0x%0    DCD    807761968
        0x00010e9c:    000a5838    8X..    DCD    677944
    .L.str.3
        0x00010ea0:    20202020            DCD    538976288
        0x00010ea4:    20203252    R2      DCD    538980946
        0x00010ea8:    7830203d    = 0x    DCD    2016419901
        0x00010eac:    58383025    %08X    DCD    1480077349
        0x00010eb0:    000a        ..      DCW    10
    .L.str.4
        0x00010eb2:    2020                DCW    8224
        0x00010eb4:    33522020      R3    DCD    861020192
        0x00010eb8:    203d2020      =     DCD    540876832
        0x00010ebc:    30257830    0x%0    DCD    807761968
        0x00010ec0:    000a5838    8X..    DCD    677944
    .L.str.7
        0x00010ec4:    20202020            DCD    538976288
        0x00010ec8:    20204350    PC      DCD    538985296
        0x00010ecc:    7830203d    = 0x    DCD    2016419901
        0x00010ed0:    58383025    %08X    DCD    1480077349
        0x00010ed4:    000a        ..      DCW    10
    .L.str.6
        0x00010ed6:    2020                DCW    8224
        0x00010ed8:    524c2020      LR    DCD    1380720672
        0x00010edc:    203d2020      =     DCD    540876832
        0x00010ee0:    30257830    0x%0    DCD    807761968
        0x00010ee4:    000a5838    8X..    DCD    677944
    .L.str.11
        0x00010ee8:    20202020            DCD    538976288
        0x00010eec:    52414642    BFAR    DCD    1380009538
        0x00010ef0:    75422820     (Bu    DCD    1967269920
        0x00010ef4:    61462073    s Fa    DCD    1631985779
        0x00010ef8:    20746c75    ult     DCD    544500853
        0x00010efc:    72646441    Addr    DCD    1919181889
        0x00010f00:    67655220     Reg    DCD    1734693408
        0x00010f04:    203d2029    ) =     DCD    540876841
        0x00010f08:    30257830    0x%0    DCD    807761968
        0x00010f0c:    000a5838    8X..    DCD    677944
    .L.str.5
        0x00010f10:    20202020            DCD    538976288
        0x00010f14:    20323152    R12     DCD    540160338
        0x00010f18:    7830203d    = 0x    DCD    2016419901
        0x00010f1c:    58383025    %08X    DCD    1480077349
        0x00010f20:    000a        ..      DCW    10
    .L.str.8
        0x00010f22:    2020                DCW    8224
        0x00010f24:    53502020      PS    DCD    1397760032
        0x00010f28:    203d2052    R =     DCD    540876882
        0x00010f2c:    30257830    0x%0    DCD    807761968
        0x00010f30:    000a5838    8X..    DCD    677944
    .L.str.10
        0x00010f34:    20202020            DCD    538976288
        0x00010f38:    6c756146    Faul    DCD    1819631942
        0x00010f3c:    64612074    t ad    DCD    1684086900
        0x00010f40:    73657264    dres    DCD    1936028260
        0x00010f44:    203d2073    s =     DCD    540876915
        0x00010f48:    30257830    0x%0    DCD    807761968
        0x00010f4c:    000a5838    8X..    DCD    677944
    Region$$Table$$Base
        0x00010f50:    00010f80    ....    DCD    69504
        0x00010f54:    10001000    ....    DCD    268439552
        0x00010f58:    00000030    0...    DCD    48
        0x00010f5c:    0000c170    p...    DCD    49520
        0x00010f60:    00010fb0    ....    DCD    69552
        0x00010f64:    10001030    0...    DCD    268439600
        0x00010f68:    00004898    .H..    DCD    18584
        0x00010f6c:    0000c18c    ....    DCD    49548
        0x00010f70:    00010fb0    ....    DCD    69552
        0x00010f74:    10000000    ....    DCD    268435456
        0x00010f78:    00001000    ....    DCD    4096
        0x00010f7c:    0000c18c    ....    DCD    49548
    Region$$Table$$Limit

** Section #2 'RWMEM' (SHT_PROGBITS) [SHF_ALLOC + SHF_WRITE]
    Size   : 48 bytes (alignment 8)
    Address: 0x10001000

    0x10001000:   0a 00 00 00 03 00 00 00 1e 00 00 00 03 00 00 00    ................
    0x10001010:   0f 00 00 00 03 00 00 00 0e 00 00 00 03 00 00 00    ................
    0x10001020:   11 00 00 00 03 00 00 00 aa aa aa aa f8 3f 00 00    .............?..


** Section #3 'RWMEM' (SHT_NOBITS) [SHF_ALLOC + SHF_WRITE]
    Size   : 18584 bytes (alignment 8)
    Address: 0x10001030


** Section #4 'STACKMEM' (SHT_NOBITS) [SHF_ALLOC + SHF_WRITE]
    Size   : 4096 bytes (alignment 8)
    Address: 0x10000000


** Section #5 '.debug_abbrev' (SHT_PROGBITS)
    Size   : 6022 bytes


** Section #6 '.debug_frame' (SHT_PROGBITS)
    Size   : 9184 bytes


** Section #7 '.debug_info' (SHT_PROGBITS)
    Size   : 26394 bytes


** Section #8 '.debug_line' (SHT_PROGBITS)
    Size   : 18523 bytes


** Section #9 '.debug_loc' (SHT_PROGBITS)
    Size   : 23994 bytes


** Section #10 '.debug_str' (SHT_PROGBITS)
    Size   : 19700 bytes


** Section #11 '.debug_ranges' (SHT_PROGBITS)
    Size   : 2024 bytes


** Section #12 '.symtab' (SHT_SYMTAB)
    Size   : 9696 bytes (alignment 4)
    String table #13 '.strtab'
    Last local symbol no. 318

    Symbol table .symtab (605 symbols, 318 local)

      #  Symbol Name                Value      Bind  Sec  Type  Vis  Size
    ========================================================================

      1  $d                         0x0000c000   Lc    1   --   De 
      2  $t                         0x0000c100   Lc    1   --   De 
      3  $d                         0x0000c130   Lc    1   --   De 
      4  $t                         0x0000c134   Lc    1   --   De 
      5  $d                         0x0000c168   Lc    1   --   De 
      6  $t                         0x0000c170   Lc    1   --   De 
      7  $d                         0x0000c1de   Lc    1   --   De 
      8  $t                         0x0000c1ec   Lc    1   --   De 
      9  $d                         0x0000c3a0   Lc    1   --   De 
     10  $t                         0x0000c3a4   Lc    1   --   De 
     11  $d                         0x0000c3ac   Lc    1   --   De 
     12  $t                         0x0000c3b0   Lc    1   --   De 
     13  $t.0                       0x0000c3b2   Lc    1   --   De 
     14  $d.6                       0x0000c558   Lc    1   --   De 
     15  $t.11                      0x0000c570   Lc    1   --   De 
     16  $d.12                      0x0000c5d0   Lc    1   --   De 
     17  $t.2                       0x0000c5e0   Lc    1   --   De 
     18  $d.3                       0x0000c600   Lc    1   --   De 
     19  $t.13                      0x0000c604   Lc    1   --   De 
     20  $d.4                       0x0000cba2   Lc    1   --   De 
     21  $t.5                       0x0000cbb4   Lc    1   --   De 
     22  $d.1                       0x0000cd34   Lc    1   --   De 
     23  $t.2                       0x0000cd3e   Lc    1   --   De 
     24  $d.1                       0x0000d2c0   Lc    1   --   De 
     25  $t.2                       0x0000d2c4   Lc    1   --   De 
     26  $d.6                       0x0000d40e   Lc    1   --   De 
     27  $t.7                       0x0000d414   Lc    1   --   De 
     28  $d.3                       0x0000e002   Lc    1   --   De 
     29  $t.4                       0x0000e00a   Lc    1   --   De 
     30  $d.5                       0x0000e0a4   Lc    1   --   De 
     31  $t.9                       0x0000e12c   Lc    1   --   De 
     32  $d.4                       0x0000e26e   Lc    1   --   De 
     33  $t.5                       0x0000e276   Lc    1   --   De 
     34  $d.3                       0x0000eb08   Lc    1   --   De 
     35  $t.3                       0x0000eb24   Lc    1   --   De 
     36  $d.20                      0x0000ed78   Lc    1   --   De 
     37  $t.15                      0x0000ed7c   Lc    1   --   De 
     38  $d.8                       0x0000f1c8   Lc    1   --   De 
     39  $t.6                       0x0000f1d0   Lc    1   --   De 
     40  $d.6                       0x0000f318   Lc    1   --   De 
     41  $t.7                       0x0000f33c   Lc    1   --   De 
     42  $d.19                      0x0000f460   Lc    1   --   De 
     43  $t.9                       0x0000f464   Lc    1   --   De 
     44  $d.10                      0x0000f890   Lc    1   --   De 
     45  $t.18                      0x0000f898   Lc    1   --   De 
     46  $d.1                       0x000106e4   Lc    1   --   De 
     47  $t.5                       0x000106ec   Lc    1   --   De 
     48  $t                         0x0001076c   Lc    1   --   De 
     49  $d                         0x000107bc   Lc    1   --   De 
     50  $t                         0x000107c0   Lc    1   --   De 
     51  $d                         0x0001083e   Lc    1   --   De 
     52  $t                         0x00010842   Lc    1   --   De 
     53  $d.realdata                0x00010890   Lc    1   --   De 
     54  $d.realdata                0x10001000   Lc    2   --   De 
     55  $d.realdata                0x10000000   Lc    4   --   De 
     56  port.c                     0x00000000   Lc  Abs  File  De 
     57  prvTaskExitError           0x0000ee1d   Lc    1  Code  De   0x32
     58  pxCurrentTCBConst2         0x0000c600   Lc    1   --   De 
     59  vPortEnableVFP             0x0000f451   Lc    1  Code  De   0xe
     60  prvPortStartFirstTask      0x0000ed55   Lc    1  Code  De   0x22
     61  pxCurrentTCBConst          0x0000c5d0   Lc    1   --   De 
     62  ucMaxSysCallPriority       0x100057f4   Lc    3  Data  De   0x1
     63  ulMaxPRIGROUPValue         0x100057f8   Lc    3  Data  De   0x4
     64  uxCriticalNesting          0x10001028   Lc    2  Data  De   0x4
     65  xMaximumPossibleSuppressedTicks
                                    0x10005874   Lc    3  Data  De   0x1
     66  g_lastSTimerVal            0x10001128   Lc    3  Data  De   0x4
     67  freertos_lowpower.c        0x00000000   Lc  Abs  File  De 
     68  led_task.c                 0x00000000   Lc  Abs  File  De 
     69  rtos.c                     0x00000000   Lc  Abs  File  De 
     70  am_util_debug.c            0x00000000   Lc  Abs  File  De 
     71  am_util_delay.c            0x00000000   Lc  Abs  File  De 
     72  am_util_faultisr.c         0x00000000   Lc  Abs  File  De 
     73  .L.str                     0x00010cf2   Lc    1  Data  De   0x1a
     74  .L.str.23                  0x00010d0c   Lc    1  Data  De   0x11
     75  .L.str.9                   0x00010d1d   Lc    1  Data  De   0x18
     76  .L.str.16                  0x00010d35   Lc    1  Data  De   0x1d
     77  .L.str.15                  0x00010d52   Lc    1  Data  De   0x1e
     78  .L.str.21                  0x00010d70   Lc    1  Data  De   0x1f
     79  .L.str.18                  0x00010d8f   Lc    1  Data  De   0x1b
     80  .L.str.19                  0x00010daa   Lc    1  Data  De   0x1d
     81  .L.str.17                  0x00010dc7   Lc    1  Data  De   0x1b
     82  .L.str.20                  0x00010de2   Lc    1  Data  De   0x20
     83  .L.str.22                  0x00010e02   Lc    1  Data  De   0x1c
     84  .L.str.25                  0x00010e1e   Lc    1  Data  De   0x20
     85  .L.str.24                  0x00010e3e   Lc    1  Data  De   0x20
     86  .L.str.26                  0x00010e5e   Lc    1  Data  De   0x1e
     87  .L.str.1                   0x00010e7c   Lc    1  Data  De   0x12
     88  .L.str.2                   0x00010e8e   Lc    1  Data  De   0x12
     89  .L.str.3                   0x00010ea0   Lc    1  Data  De   0x12
     90  .L.str.4                   0x00010eb2   Lc    1  Data  De   0x12
     91  .L.str.7                   0x00010ec4   Lc    1  Data  De   0x12
     92  .L.str.6                   0x00010ed6   Lc    1  Data  De   0x12
     93  .L.str.11                  0x00010ee8   Lc    1  Data  De   0x28
     94  .L.str.5                   0x00010f10   Lc    1  Data  De   0x12
     95  .L.str.8                   0x00010f22   Lc    1  Data  De   0x12
     96  .L.str.10                  0x00010f34   Lc    1  Data  De   0x1c
     97  am_util_stdio.c            0x00000000   Lc  Abs  File  De 
     98  decstr_to_int              0x0000e95d   Lc    1  Code  De   0x58
     99  uint64_to_str              0x0000f33d   Lc    1  Code  De   0x54
    100  divu64_10                  0x0000e9b9   Lc    1  Code  De   0xbe
    101  g_bTxtXlate                0x10001123   Lc    3  Data  De   0x1
    102  g_prfbuf                   0x10001130   Lc    3  Data  De   0x400
    103  event_groups.c             0x00000000   Lc  Abs  File  De 
    104  list.c                     0x00000000   Lc  Abs  File  De 
    105  queue.c                    0x00000000   Lc  Abs  File  De 
    106  prvCopyDataToQueue         0x0000ebff   Lc    1  Code  De   0x62
    107  prvUnlockQueue             0x0000eff9   Lc    1  Code  De   0x72
    108  tasks.c                    0x00000000   Lc  Abs  File  De 
    109  prvAddCurrentTaskToDelayedList
                                    0x0000eb25   Lc    1  Code  De   0x84
    110  prvIdleTask                0x0000ec61   Lc    1  Code  De   0xb2
    111  uxSchedulerSuspended       0x10005808   Lc    3  Data  De   0x4
    112  xTickCount                 0x100058b8   Lc    3  Data  De   0x4
    113  xSuspendedTaskList         0x100058a4   Lc    3  Data  De   0x14
    114  xSchedulerRunning          0x10005894   Lc    3  Data  De   0x4
    115  uxCurrentNumberOfTasks     0x10005800   Lc    3  Data  De   0x4
    116  uxTopReadyPriority         0x10005810   Lc    3  Data  De   0x4
    117  pxReadyTasksLists          0x100017a4   Lc    3  Data  De   0x50
    118  xPendingReadyList          0x10005880   Lc    3  Data  De   0x14
    119  xIdleTaskHandle            0x1000586c   Lc    3  Data  De   0x4
    120  xNextTaskUnblockTime       0x10005878   Lc    3  Data  De   0x4
    121  xYieldPending              0x100058c4   Lc    3  Data  De   0x4
    122  uxPendedTicks              0x10005804   Lc    3  Data  De   0x4
    123  pxDelayedTaskList          0x10001798   Lc    3  Data  De   0x4
    124  pxOverflowDelayedTaskList  0x1000179c   Lc    3  Data  De   0x4
    125  xNumOfOverflows            0x1000587c   Lc    3  Data  De   0x4
    126  uxTaskNumber               0x1000580c   Lc    3  Data  De   0x4
    127  xDelayedTaskList1          0x1000583c   Lc    3  Data  De   0x14
    128  xDelayedTaskList2          0x10005850   Lc    3  Data  De   0x14
    129  timers.c                   0x00000000   Lc  Abs  File  De 
    130  prvCheckForValidListAndQueue
                                    0x0000eba9   Lc    1  Code  De   0x56
    131  prvTimerTask               0x0000ee51   Lc    1  Code  De   0x1a6
    132  prvSampleTimeNow           0x0000ed7d   Lc    1  Code  De   0xa0
    133  prvInsertTimerInActiveList 0x0000ed13   Lc    1  Code  De   0x40
    134  xTimerQueue                0x100058bc   Lc    3  Data  De   0x4
    135  xTimerTaskHandle           0x100058c0   Lc    3  Data  De   0x4
    136  pxCurrentTimerList         0x10001794   Lc    3  Data  De   0x4
    137  pxOverflowTimerList        0x100017a0   Lc    3  Data  De   0x4
    138  prvSampleTimeNow.xLastTime 0x10001788   Lc    3  Data  De   0x4
    139  xActiveTimerList1          0x10005814   Lc    3  Data  De   0x14
    140  xActiveTimerList2          0x10005828   Lc    3  Data  De   0x14
    141  heap_2.c                   0x00000000   Lc  Abs  File  De 
    142  pvPortMalloc.xHeapHasBeenInitialised
                                    0x1000178c   Lc    3  Data  De   0x1
    143  xStart                     0x1000589c   Lc    3  Data  De   0x8
    144  xEnd                       0x10005864   Lc    3  Data  De   0x8
    145  xFreeBytesRemaining        0x1000102c   Lc    2  Data  De   0x4
    146  ucHeap                     0x100017f4   Lc    3  Data  De   0x4000
    147  am_devices_button.c        0x00000000   Lc  Abs  File  De 
    148  am_devices_led.c           0x00000000   Lc  Abs  File  De 
    149  ../keil6/startup_keil6.s   0x00000000   Lc  Abs  File  De 
    150  STACK                      0x10000000   Lc    4  Sect  De   0x1000
    151  StackMem                   0x10000000   Lc    4  Data  De 
    152  HEAP                       0x100058c8   Lc    3  Sect  De 
    153  HeapMem                    0x100058c8   Lc    3  Data  De 
    154  RESET                      0x0000c000   Lc    1  Sect  De   0x134
    155  $v0                        0x0000c100   Lc    1   --   De 
    156  .text                      0x0000c1d4   Lc    1  Sect  De   0x18
    157  $v0                        0x0000c1d4   Lc    1   --   De 
    158  am_hal_global.c            0x00000000   Lc  Abs  File  De 
    159  am_hal_cachectrl.c         0x00000000   Lc  Abs  File  De 
    160  set_LPMMODE                0x0000f1d1   Lc    1  Code  De   0x5a
    161  set_SEDELAY                0x0000f281   Lc    1  Code  De   0x56
    162  set_RDWAIT                 0x0000f22d   Lc    1  Code  De   0x54
    163  am_hal_clkgen.c            0x00000000   Lc  Abs  File  De 
    164  am_hal_ctimer.c            0x00000000   Lc  Abs  File  De 
    165  g_am_hal_ctimer_ppfnHandlers
                                    0x1000109c   Lc    3  Data  De   0x80
    166  am_hal_flash.c             0x00000000   Lc  Abs  File  De 
    167  .L__const.am_hal_flash_store_ui32.SRAM_write_ui32
                                    0x00010890   Lc    1  Data  De   0xc
    168  am_hal_gpio.c              0x00000000   Lc  Abs  File  De 
    169  g_ui8Bit76Capabilities     0x00010aec   Lc    1  Data  De   0x4a
    170  g_ui8Inpen                 0x00010b36   Lc    1  Data  De   0x4a
    171  g_ui8nCEpins               0x00010ca8   Lc    1  Data  De   0x4a
    172  g_ui8NCEtable              0x00010b80   Lc    1  Data  De   0x128
    173  gpio_ppfnHandlers          0x1000165c   Lc    3  Data  De   0x128
    174  gpio_pHandlerCtxt          0x10001534   Lc    3  Data  De   0x128
    175  am_hal_interrupt.c         0x00000000   Lc  Abs  File  De 
    176  am_hal_mcuctrl.c           0x00000000   Lc  Abs  File  De 
    177  am_hal_pwrctrl.c           0x00000000   Lc  Abs  File  De 
    178  am_hal_stimer.c            0x00000000   Lc  Abs  File  De 
    179  am_hal_sysctrl.c           0x00000000   Lc  Abs  File  De 
    180  am_bsp.c                   0x00000000   Lc  Abs  File  De 
    181  g_ui32PrintInterface       0x10001530   Lc    3  Data  De   0x4
    182  am_bsp_pins.c              0x00000000   Lc  Abs  File  De 
    183  am_hal_burst.c             0x00000000   Lc  Abs  File  De 
    184  g_bEnFromManual            0x10001121   Lc    3  Data  De   0x1
    185  g_bDisFromManual           0x10001120   Lc    3  Data  De   0x1
    186  am_hal_debug.c             0x00000000   Lc  Abs  File  De 
    187  am_hal_itm.c               0x00000000   Lc  Abs  File  De 
    188  am_hal_reset.c             0x00000000   Lc  Abs  File  De 
    189  am_hal_rtc.c               0x00000000   Lc  Abs  File  De 
    190  am_hal_tpiu.c              0x00000000   Lc  Abs  File  De 
    191  am_hal_uart.c              0x00000000   Lc  Abs  File  De 
    192  am_hal_queue.c             0x00000000   Lc  Abs  File  De 
    193  dc.s                       0x00000000   Lc  Abs  File  De 
    194  ../clib/memcpset.s         0x00000000   Lc  Abs  File  De 
    195  .text                      0x0000c1ec   Lc    1  Sect  De   0x8a
    196  ../clib/memcpset.s         0x00000000   Lc  Abs  File  De 
    197  .text                      0x0000c276   Lc    1  Sect  De   0x10
    198  ../clib/memcpset.s         0x00000000   Lc  Abs  File  De 
    199  .text                      0x0000c286   Lc    1  Sect  De   0x4e
    200  ../clib/heapaux.c          0x00000000   Lc  Abs  File  De 
    201  .text                      0x0000c2d4   Lc    1  Sect  De 
    202  ../clib/angel/startup.s    0x00000000   Lc  Abs  File  De 
    203  !!!main                    0x0000c134   Lc    1  Sect  De   0x8
    204  ../clib/angel/handlers.s   0x00000000   Lc  Abs  File  De 
    205  !!handler_copy             0x0000c170   Lc    1  Sect  De   0x1a
    206  ../fplib/d2f.s             0x00000000   Lc  Abs  File  De 
    207  x$fpl$d2f                  0x0001076c   Lc    1  Sect  De   0x62
    208  $v0                        0x0001076c   Lc    1   --   De 
    209  ../clib/angel/kernel.s     0x00000000   Lc  Abs  File  De 
    210  .ARM.Collect$$rtentry$$00000000
                                    0x0000c1b4   Lc    1  Sect  De 
    211  ../clib/memcpset.s         0x00000000   Lc  Abs  File  De 
    212  .text                      0x0000c2da   Lc    1  Sect  De   0x64
    213  ../fplib/dnaninf.s         0x00000000   Lc  Abs  File  De 
    214  x$fpl$dnaninf              0x000107ce   Lc    1  Sect  De   0x9c
    215  $v0                        0x000107ce   Lc    1   --   De 
    216  ../fplib/fretinf.s         0x00000000   Lc  Abs  File  De 
    217  x$fpl$fretinf              0x00010884   Lc    1  Sect  De   0xa
    218  $v0                        0x00010884   Lc    1   --   De 
    219  ../fplib/usenofp.s         0x00000000   Lc  Abs  File  De 
    220  x$fpl$usenofp              0x0001088e   Lc    1  Sect  De 
    221  ../clib/angel/kernel.s     0x00000000   Lc  Abs  File  De 
    222  .ARM.Collect$$rtentry$$00000002
                                    0x0000c1b4   Lc    1  Sect  De 
    223  .ARM.Collect$$rtentry$$00000009
                                    0x0000c1ba   Lc    1  Sect  De 
    224  .ARM.Collect$$rtentry$$0000000A
                                    0x0000c1ba   Lc    1  Sect  De   0x4
    225  .ARM.Collect$$rtentry$$0000000C
                                    0x0000c1be   Lc    1  Sect  De 
    226  .ARM.Collect$$rtentry$$0000000D
                                    0x0000c1be   Lc    1  Sect  De   0x8
    227  ../clib/angel/kernel.s     0x00000000   Lc  Abs  File  De 
    228  .ARM.Collect$$rtentry$$00000004
                                    0x0000c1b4   Lc    1  Sect  De   0x6
    229  ../clib/angel/sys.s        0x00000000   Lc  Abs  File  De 
    230  .text                      0x0000c33e   Lc    1  Sect  De   0x4a
    231  ../clib/stdlib.c           0x00000000   Lc  Abs  File  De 
    232  .text                      0x0000c388   Lc    1  Sect  De 
    233  ../clib/angel/boardlib.s   0x00000000   Lc  Abs  File  De 
    234  ../clib/angel/boardlib.s   0x00000000   Lc  Abs  File  De 
    235  ../clib/angel/boardlib.s   0x00000000   Lc  Abs  File  De 
    236  ../clib/libinit.s          0x00000000   Lc  Abs  File  De 
    237  .ARM.Collect$$libinit$$00000000
                                    0x0000c1a8   Lc    1  Sect  De   0x2
    238  ../clib/angel/sys.s        0x00000000   Lc  Abs  File  De 
    239  .text                      0x0000c39c   Lc    1  Sect  De   0x8
    240  .bss                       0x10001030   Lc    3  Sect  De   0x60
    241  ../clib/angel/kernel.s     0x00000000   Lc  Abs  File  De 
    242  .ARM.Collect$$rtexit$$00000000
                                    0x0000c1c6   Lc    1  Sect  De   0x2
    243  ../clib/libinit.s          0x00000000   Lc  Abs  File  De 
    244  .ARM.Collect$$libinit$$00000001
                                    0x0000c1aa   Lc    1  Sect  De   0x4
    245  .ARM.Collect$$libinit$$00000004
                                    0x0000c1ae   Lc    1  Sect  De 
    246  .ARM.Collect$$libinit$$0000000A
                                    0x0000c1ae   Lc    1  Sect  De 
    247  .ARM.Collect$$libinit$$0000000C
                                    0x0000c1ae   Lc    1  Sect  De 
    248  .ARM.Collect$$libinit$$0000000E
                                    0x0000c1ae   Lc    1  Sect  De 
    249  .ARM.Collect$$libinit$$00000011
                                    0x0000c1ae   Lc    1  Sect  De 
    250  .ARM.Collect$$libinit$$00000013
                                    0x0000c1ae   Lc    1  Sect  De 
    251  .ARM.Collect$$libinit$$00000015
                                    0x0000c1ae   Lc    1  Sect  De 
    252  .ARM.Collect$$libinit$$00000017
                                    0x0000c1ae   Lc    1  Sect  De 
    253  .ARM.Collect$$libinit$$00000019
                                    0x0000c1ae   Lc    1  Sect  De 
    254  .ARM.Collect$$libinit$$0000001B
                                    0x0000c1ae   Lc    1  Sect  De 
    255  .ARM.Collect$$libinit$$0000001D
                                    0x0000c1ae   Lc    1  Sect  De 
    256  .ARM.Collect$$libinit$$0000001F
                                    0x0000c1ae   Lc    1  Sect  De 
    257  .ARM.Collect$$libinit$$00000021
                                    0x0000c1ae   Lc    1  Sect  De 
    258  .ARM.Collect$$libinit$$00000023
                                    0x0000c1ae   Lc    1  Sect  De 
    259  .ARM.Collect$$libinit$$00000025
                                    0x0000c1ae   Lc    1  Sect  De 
    260  .ARM.Collect$$libinit$$0000002C
                                    0x0000c1ae   Lc    1  Sect  De 
    261  .ARM.Collect$$libinit$$0000002E
                                    0x0000c1ae   Lc    1  Sect  De 
    262  .ARM.Collect$$libinit$$00000030
                                    0x0000c1ae   Lc    1  Sect  De 
    263  .ARM.Collect$$libinit$$00000032
                                    0x0000c1ae   Lc    1  Sect  De 
    264  .ARM.Collect$$libinit$$00000033
                                    0x0000c1ae   Lc    1  Sect  De   0x2
    265  ../clib/angel/kernel.s     0x00000000   Lc  Abs  File  De 
    266  .ARM.Collect$$rtexit$$00000002
                                    0x0000c1c8   Lc    1  Sect  De 
    267  .ARM.Collect$$rtexit$$00000003
                                    0x0000c1c8   Lc    1  Sect  De   0x4
    268  .ARM.Collect$$rtexit$$00000004
                                    0x0000c1cc   Lc    1  Sect  De   0x6
    269  ../clib/armsys.c           0x00000000   Lc  Abs  File  De 
    270  ../clib/armsys.c           0x00000000   Lc  Abs  File  De 
    271  ../fplib/fpinit.s          0x00000000   Lc  Abs  File  De 
    272  x$fpl$fpinit               0x0001086a   Lc    1  Sect  De   0x1a
    273  $v0                        0x0001086a   Lc    1   --   De 
    274  ../clib/angel/sysapp.c     0x00000000   Lc  Abs  File  De 
    275  .text                      0x0000c3a4   Lc    1  Sect  De 
    276  ../clib/angel/sysapp.c     0x00000000   Lc  Abs  File  De 
    277  ../clib/angel/boardlib.s   0x00000000   Lc  Abs  File  De 
    278  ../clib/armsys.c           0x00000000   Lc  Abs  File  De 
    279  ../clib/armsys.c           0x00000000   Lc  Abs  File  De 
    280  ../clib/libinit.s          0x00000000   Lc  Abs  File  De 
    281  .ARM.Collect$$libshutdown$$00000000
                                    0x0000c1b0   Lc    1  Sect  De   0x2
    282  ../clib/angel/sysapp.c     0x00000000   Lc  Abs  File  De 
    283  ../clib/angel/sysapp.c     0x00000000   Lc  Abs  File  De 
    284  ../clib/angel/sys.s        0x00000000   Lc  Abs  File  De 
    285  .text                      0x0000c3b0   Lc    1  Sect  De   0x2
    286  ../clib/angel/sys.s        0x00000000   Lc  Abs  File  De 
    287  .text                      0x0000c3b2   Lc    1  Sect  De 
    288  ../clib/heapalloc.c        0x00000000   Lc  Abs  File  De 
    289  ../clib/signal.c           0x00000000   Lc  Abs  File  De 
    290  ../clib/signal.c           0x00000000   Lc  Abs  File  De 
    291  ../clib/libinit.s          0x00000000   Lc  Abs  File  De 
    292  .ARM.Collect$$libshutdown$$00000002
                                    0x0000c1b2   Lc    1  Sect  De 
    293  .ARM.Collect$$libshutdown$$00000004
                                    0x0000c1b2   Lc    1  Sect  De 
    294  .ARM.Collect$$libshutdown$$00000007
                                    0x0000c1b2   Lc    1  Sect  De 
    295  .ARM.Collect$$libshutdown$$0000000A
                                    0x0000c1b2   Lc    1  Sect  De 
    296  .ARM.Collect$$libshutdown$$0000000C
                                    0x0000c1b2   Lc    1  Sect  De 
    297  .ARM.Collect$$libshutdown$$0000000F
                                    0x0000c1b2   Lc    1  Sect  De 
    298  .ARM.Collect$$libshutdown$$00000010
                                    0x0000c1b2   Lc    1  Sect  De   0x2
    299  ../clib/angel/rt.s         0x00000000   Lc  Abs  File  De 
    300  ../clib/signal.c           0x00000000   Lc  Abs  File  De 
    301  ../clib/signal.c           0x00000000   Lc  Abs  File  De 
    302  ../clib/signal.c           0x00000000   Lc  Abs  File  De 
    303  ../clib/signal.c           0x00000000   Lc  Abs  File  De 
    304  ../clib/angel/sysapp.c     0x00000000   Lc  Abs  File  De 
    305  ../clib/angel/sysapp.c     0x00000000   Lc  Abs  File  De 
    306  ../clib/signal.s           0x00000000   Lc  Abs  File  De 
    307  ../clib/signal.c           0x00000000   Lc  Abs  File  De 
    308  ../clib/signal.c           0x00000000   Lc  Abs  File  De 
    309  ../clib/signal.c           0x00000000   Lc  Abs  File  De 
    310  ../clib/signal.c           0x00000000   Lc  Abs  File  De 
    311  ../clib/signal.c           0x00000000   Lc  Abs  File  De 
    312  ../clib/signal.c           0x00000000   Lc  Abs  File  De 
    313  ../clib/signal.c           0x00000000   Lc  Abs  File  De 
    314  ../clib/signal.c           0x00000000   Lc  Abs  File  De 
    315  ../clib/angel/scatter.s    0x00000000   Lc  Abs  File  De 
    316  !!!scatter                 0x0000c13c   Lc    1  Sect  De   0x34
    317  ../clib/angel/handlers.s   0x00000000   Lc  Abs  File  De 
    318  !!handler_zi               0x0000c18c   Lc    1  Sect  De   0x1c
    319  BuildAttributes$$THM_ISAv4$E$P$D$K$B$S$7EM$VFPi3$EXTD16$VFPS$VFMA$PE$A:L22UL41UL21$X:L11$S22US41US21$IEEE1$IW$~IW$USESV6$~STKCKD$USESV7$~SHL$OSPACE$ROPI$EBA8$UX$STANDARDLIB$REQ8$PRES8$EABIv2
                                    0x00000000   Gb  Abs   --   Hi 
    320  __Vectors                  0x0000c000   Gb    1  Data  Hi 
    321  __Patchable                0x0000c0c8   Gb    1  Data  Hi 
    322  Reset_Handler              0x0000c101   Wk    1  Code  Hi   0x1c
    323  NMI_Handler                0x0000c11f   Wk    1  Code  Hi   0x2
    324  MemManage_Handler          0x0000c121   Wk    1  Code  Hi   0x2
    325  BusFault_Handler           0x0000c123   Wk    1  Code  Hi   0x2
    326  UsageFault_Handler         0x0000c125   Wk    1  Code  Hi   0x2
    327  DebugMon_Handler           0x0000c129   Wk    1  Code  Hi   0x2
    328  am_adc_isr                 0x0000c12f   Wk    1  Code  Hi 
    329  am_ble_isr                 0x0000c12f   Wk    1  Code  Hi 
    330  am_brownout_isr            0x0000c12f   Wk    1  Code  Hi 
    331  am_clkgen_isr              0x0000c12f   Wk    1  Code  Hi 
    332  am_iomaster0_isr           0x0000c12f   Wk    1  Code  Hi 
    333  am_iomaster1_isr           0x0000c12f   Wk    1  Code  Hi 
    334  am_iomaster2_isr           0x0000c12f   Wk    1  Code  Hi 
    335  am_iomaster3_isr           0x0000c12f   Wk    1  Code  Hi 
    336  am_iomaster4_isr           0x0000c12f   Wk    1  Code  Hi 
    337  am_iomaster5_isr           0x0000c12f   Wk    1  Code  Hi 
    338  am_ioslave_acc_isr         0x0000c12f   Wk    1  Code  Hi 
    339  am_ioslave_ios_isr         0x0000c12f   Wk    1  Code  Hi 
    340  am_mspi0_isr               0x0000c12f   Wk    1  Code  Hi 
    341  am_mspi1_isr               0x0000c12f   Wk    1  Code  Hi 
    342  am_mspi2_isr               0x0000c12f   Wk    1  Code  Hi 
    343  am_pdm0_isr                0x0000c12f   Wk    1  Code  Hi 
    344  am_rtc_isr                 0x0000c12f   Wk    1  Code  Hi 
    345  am_scard_isr               0x0000c12f   Wk    1  Code  Hi 
    346  am_software0_isr           0x0000c12f   Wk    1  Code  Hi 
    347  am_stimer_cmpr2_isr        0x0000c12f   Wk    1  Code  Hi 
    348  am_stimer_cmpr3_isr        0x0000c12f   Wk    1  Code  Hi 
    349  am_stimer_cmpr4_isr        0x0000c12f   Wk    1  Code  Hi 
    350  am_stimer_cmpr5_isr        0x0000c12f   Wk    1  Code  Hi 
    351  am_stimer_cmpr6_isr        0x0000c12f   Wk    1  Code  Hi 
    352  am_stimer_cmpr7_isr        0x0000c12f   Wk    1  Code  Hi 
    353  am_stimer_isr              0x0000c12f   Wk    1  Code  Hi 
    354  am_uart0_isr               0x0000c12f   Wk    1  Code  Hi 
    355  am_uart1_isr               0x0000c12f   Wk    1  Code  Hi 
    356  am_uart_isr                0x0000c12f   Wk    1  Code  Hi 
    357  am_vcomp_isr               0x0000c12f   Wk    1  Code  Hi 
    358  am_watchdog_isr            0x0000c12f   Wk    1  Code  Hi 
    359  __main                     0x0000c135   Gb    1  Code  Hi   0x8
    360  __scatterload              0x0000c13d   Gb    1  Code  Hi 
    361  __scatterload_rt2          0x0000c13d   Gb    1  Code  Hi   0x2c
    362  __scatterload_rt2_thumb_only
                                    0x0000c13d   Gb    1  Code  Hi 
    363  __scatterload_null         0x0000c14b   Gb    1  Code  Hi 
    364  __scatterload_copy         0x0000c171   Gb    1  Code  Hi   0x1a
    365  __scatterload_zeroinit     0x0000c18d   Gb    1  Code  Hi   0x1c
    366  __rt_lib_init              0x0000c1a9   Gb    1  Code  De 
    367  __rt_lib_init_fp_1         0x0000c1ab   Gb    1  Code  Hi 
    368  __rt_lib_init_alloca_1     0x0000c1af   Gb    1  Code  Hi 
    369  __rt_lib_init_argv_1       0x0000c1af   Gb    1  Code  Hi 
    370  __rt_lib_init_atexit_1     0x0000c1af   Gb    1  Code  Hi 
    371  __rt_lib_init_clock_1      0x0000c1af   Gb    1  Code  Hi 
    372  __rt_lib_init_cpp_1        0x0000c1af   Gb    1  Code  Hi 
    373  __rt_lib_init_exceptions_1 0x0000c1af   Gb    1  Code  Hi 
    374  __rt_lib_init_fp_trap_1    0x0000c1af   Gb    1  Code  Hi 
    375  __rt_lib_init_getenv_1     0x0000c1af   Gb    1  Code  Hi 
    376  __rt_lib_init_heap_1       0x0000c1af   Gb    1  Code  Hi 
    377  __rt_lib_init_lc_collate_1 0x0000c1af   Gb    1  Code  Hi 
    378  __rt_lib_init_lc_ctype_1   0x0000c1af   Gb    1  Code  Hi 
    379  __rt_lib_init_lc_monetary_1
                                    0x0000c1af   Gb    1  Code  Hi 
    380  __rt_lib_init_lc_numeric_1 0x0000c1af   Gb    1  Code  Hi 
    381  __rt_lib_init_lc_time_1    0x0000c1af   Gb    1  Code  Hi 
    382  __rt_lib_init_preinit_1    0x0000c1af   Gb    1  Code  Hi 
    383  __rt_lib_init_rand_1       0x0000c1af   Gb    1  Code  Hi 
    384  __rt_lib_init_return       0x0000c1af   Gb    1  Code  Hi 
    385  __rt_lib_init_signal_1     0x0000c1af   Gb    1  Code  Hi 
    386  __rt_lib_init_stdio_1      0x0000c1af   Gb    1  Code  Hi 
    387  __rt_lib_init_user_alloc_1 0x0000c1af   Gb    1  Code  Hi 
    388  __rt_lib_shutdown          0x0000c1b1   Gb    1  Code  De 
    389  __rt_lib_shutdown_cpp_1    0x0000c1b3   Gb    1  Code  Hi 
    390  __rt_lib_shutdown_fp_trap_1
                                    0x0000c1b3   Gb    1  Code  Hi 
    391  __rt_lib_shutdown_heap_1   0x0000c1b3   Gb    1  Code  Hi 
    392  __rt_lib_shutdown_return   0x0000c1b3   Gb    1  Code  Hi 
    393  __rt_lib_shutdown_signal_1 0x0000c1b3   Gb    1  Code  Hi 
    394  __rt_lib_shutdown_stdio_1  0x0000c1b3   Gb    1  Code  Hi 
    395  __rt_lib_shutdown_user_alloc_1
                                    0x0000c1b3   Gb    1  Code  Hi 
    396  __rt_entry                 0x0000c1b5   Gb    1  Code  Hi 
    397  __rt_entry_presh_1         0x0000c1b5   Gb    1  Code  Hi 
    398  __rt_entry_sh              0x0000c1b5   Gb    1  Code  Hi 
    399  __rt_entry_li              0x0000c1bb   Gb    1  Code  Hi 
    400  __rt_entry_postsh_1        0x0000c1bb   Gb    1  Code  Hi 
    401  __rt_entry_main            0x0000c1bf   Gb    1  Code  Hi 
    402  __rt_entry_postli_1        0x0000c1bf   Gb    1  Code  Hi 
    403  __rt_exit                  0x0000c1c7   Gb    1  Code  De 
    404  __rt_exit_ls               0x0000c1c9   Gb    1  Code  Hi 
    405  __rt_exit_prels_1          0x0000c1c9   Gb    1  Code  Hi 
    406  __rt_exit_exit             0x0000c1cd   Gb    1  Code  Hi 
    407  __user_initial_stackheap   0x0000c1d5   Gb    1  Code  Hi   0xa
    408  __aeabi_memcpy             0x0000c1ed   Gb    1  Code  De 
    409  __rt_memcpy                0x0000c1ed   Gb    1  Code  De   0x8a
    410  _memcpy_lastbytes          0x0000c253   Gb    1  Code  De 
    411  __aeabi_memset4            0x0000c277   Gb    1  Code  De   0x10
    412  __aeabi_memset8            0x0000c277   Gb    1  Code  De 
    413  __aeabi_memclr4            0x0000c287   Gb    1  Code  De 
    414  __aeabi_memclr8            0x0000c287   Gb    1  Code  De 
    415  __rt_memclr_w              0x0000c287   Gb    1  Code  De 
    416  _memset_w                  0x0000c28b   Gb    1  Code  De   0x4a
    417  __use_two_region_memory    0x0000c2d5   Gb    1  Code  Hi   0x2
    418  __rt_heap_escrow$2region   0x0000c2d7   Gb    1  Code  De   0x2
    419  __rt_heap_expand$2region   0x0000c2d9   Gb    1  Code  De   0x2
    420  __aeabi_memcpy4            0x0000c2db   Gb    1  Code  De 
    421  __aeabi_memcpy8            0x0000c2db   Gb    1  Code  De 
    422  __rt_memcpy_w              0x0000c2db   Gb    1  Code  De   0x64
    423  _memcpy_lastbytes_aligned  0x0000c323   Gb    1  Code  De 
    424  __user_setup_stackheap     0x0000c33f   Gb    1  Code  De   0x4a
    425  exit                       0x0000c389   Gb    1  Code  De   0x12
    426  __user_libspace            0x0000c39d   Wk    1  Code  De   0x8
    427  __user_perproc_libspace    0x0000c39d   Wk    1  Code  De 
    428  __user_perthread_libspace  0x0000c39d   Wk    1  Code  De 
    429  _sys_exit                  0x0000c3a5   Gb    1  Code  De   0x8
    430  __I$use$semihosting        0x0000c3b1   Gb    1  Code  Hi 
    431  __use_no_semihosting_swi   0x0000c3b1   Gb    1  Code  Hi   0x2
    432  HardFault_Handler          0x0000c3b3   Gb    1  Code  Hi   0x1a
    433  __semihosting_library_function
                                    0x0000c3b3   Gb    1  Code  Hi 
    434  LedTask                    0x0000c3cd   Gb    1  Code  Hi   0x52
    435  LedTaskSetup               0x0000c421   Gb    1  Code  Hi   0x138
    436  PendSV_Handler             0x0000c571   Gb    1  Code  Hi   0x64
    437  SVC_Handler                0x0000c5e1   Gb    1  Code  Hi   0x24
    438  SysTick_Handler            0x0000c605   Gb    1  Code  Hi   0x2e
    439  am_bsp_itm_printf_disable  0x0000c633   Gb    1  Code  Hi   0x20
    440  am_bsp_itm_printf_enable   0x0000c653   Gb    1  Code  Hi   0x44
    441  am_bsp_low_power_init      0x0000c699   Gb    1  Code  Hi   0x46
    442  am_ctimer_isr              0x0000c6df   Gb    1  Code  Hi   0x18
    443  am_devices_led_array_init  0x0000c6f9   Gb    1  Code  Hi   0x26
    444  am_devices_led_init        0x0000c71f   Gb    1  Code  Hi   0x42
    445  am_devices_led_off         0x0000c761   Gb    1  Code  Hi   0x28
    446  am_devices_led_toggle      0x0000c789   Gb    1  Code  Hi   0x4c
    447  am_freertos_sleep          0x0000c7d5   Gb    1  Code  Hi   0xc
    448  am_freertos_wakeup         0x0000c7e1   Gb    1  Code  Hi   0x2
    449  am_gpio_isr                0x0000c7e3   Gb    1  Code  Hi   0x26
    450  am_hal_burst_ldo_charge    0x0000c809   Gb    1  Code  Hi   0xac
    451  am_hal_burst_ldo_patch_check
                                    0x0000c8b5   Gb    1  Code  Hi   0x16
    452  am_hal_burst_mode_disable  0x0000c8cb   Gb    1  Code  Hi   0x70
    453  am_hal_burst_mode_disable_w_manual_sequence
                                    0x0000c93b   Gb    1  Code  Hi   0x50
    454  am_hal_burst_mode_enable   0x0000c98b   Gb    1  Code  Hi   0x76
    455  am_hal_burst_mode_enable_w_manual_sequence
                                    0x0000ca01   Gb    1  Code  Hi   0x148
    456  am_hal_cachectrl_config    0x0000cb49   Gb    1  Code  Hi   0x48
    457  am_hal_cachectrl_control   0x0000cb91   Gb    1  Code  Hi   0x16c
    458  am_hal_cachectrl_enable    0x0000ccfd   Gb    1  Code  Hi   0x14
    459  am_hal_clkgen_control      0x0000cd11   Gb    1  Code  Hi   0x138
    460  am_hal_clkgen_status_get   0x0000ce49   Gb    1  Code  Hi   0x38
    461  am_hal_ctimer_int_clear    0x0000ce81   Gb    1  Code  Hi   0x22
    462  am_hal_ctimer_int_service  0x0000cea5   Gb    1  Code  Hi   0x32
    463  am_hal_ctimer_int_status_get
                                    0x0000ced7   Gb    1  Code  Hi   0x28
    464  am_hal_flash_delay         0x0000ceff   Gb    1  Code  Hi   0x2a
    465  am_hal_flash_delay_status_check
                                    0x0000cf29   Gb    1  Code  Hi   0x70
    466  am_hal_flash_load_ui32     0x0000cf99   Gb    1  Code  Hi   0x8
    467  am_hal_flash_store_ui32    0x0000cfa1   Gb    1  Code  Hi   0x22
    468  am_hal_gpio_interrupt_clear
                                    0x0000cfc3   Gb    1  Code  Hi   0x4c
    469  am_hal_gpio_interrupt_enable
                                    0x0000d00f   Gb    1  Code  Hi   0x46
    470  am_hal_gpio_interrupt_register
                                    0x0000d055   Gb    1  Code  Hi   0x20
    471  am_hal_gpio_interrupt_service
                                    0x0000d075   Gb    1  Code  Hi   0x90
    472  am_hal_gpio_interrupt_status_get
                                    0x0000d105   Gb    1  Code  Hi   0x66
    473  am_hal_gpio_pinconfig      0x0000d16d   Gb    1  Code  Hi   0x212
    474  am_hal_gpio_state_read     0x0000d37f   Gb    1  Code  Hi   0x58
    475  am_hal_gpio_state_write    0x0000d3d9   Gb    1  Code  Hi   0x98
    476  am_hal_interrupt_master_disable
                                    0x0000d471   Gb    1  Code  Hi   0x8
    477  am_hal_interrupt_master_enable
                                    0x0000d479   Gb    1  Code  Hi   0x8
    478  am_hal_interrupt_master_set
                                    0x0000d481   Gb    1  Code  Hi   0x6
    479  am_hal_itm_disable         0x0000d489   Gb    1  Code  Hi   0xa6
    480  am_hal_itm_enable          0x0000d531   Gb    1  Code  Hi   0x42
    481  am_hal_itm_print           0x0000d575   Gb    1  Code  Hi   0x2e
    482  am_hal_mcuctrl_info_get    0x0000d5a3   Gb    1  Code  Hi   0x11a
    483  am_hal_pwrctrl_blebuck_trim
                                    0x0000d6bd   Gb    1  Code  Hi   0x52
    484  am_hal_pwrctrl_bleif_workaround
                                    0x0000d70f   Gb    1  Code  Hi   0x74
    485  am_hal_pwrctrl_ldo_vddx_active_trim_adj_default
                                    0x0000d783   Gb    1  Code  Hi   0xac
    486  am_hal_pwrctrl_low_power_init
                                    0x0000d82f   Gb    1  Code  Hi   0x144
    487  am_hal_pwrctrl_memory_enable
                                    0x0000d975   Gb    1  Code  Hi   0x74
    488  am_hal_pwrctrl_simobuck_vddx_active_trim_adj_default
                                    0x0000d9e9   Gb    1  Code  Hi   0xac
    489  am_hal_pwrctrl_wa_vddf_boost
                                    0x0000da95   Gb    1  Code  Hi   0x3e
    490  am_hal_pwrctrl_wa_vddf_restore
                                    0x0000dad3   Gb    1  Code  Hi   0x3e
    491  am_hal_rtc_osc_disable     0x0000db11   Gb    1  Code  Hi   0x12
    492  am_hal_stimer_compare_delta_set
                                    0x0000db25   Gb    1  Code  Hi   0xa2
    493  am_hal_stimer_config       0x0000dbc7   Gb    1  Code  Hi   0x12
    494  am_hal_stimer_counter_get  0x0000dbd9   Gb    1  Code  Hi   0x22
    495  am_hal_stimer_int_clear    0x0000dbfb   Gb    1  Code  Hi   0xc
    496  am_hal_stimer_int_enable   0x0000dc07   Gb    1  Code  Hi   0x10
    497  am_hal_stimer_int_status_get
                                    0x0000dc17   Gb    1  Code  Hi   0x18
    498  am_hal_sysctrl_control     0x0000dc2f   Gb    1  Code  Hi   0xc
    499  am_hal_sysctrl_fpu_enable  0x0000dc3b   Gb    1  Code  Hi   0x10
    500  am_hal_sysctrl_fpu_stacking_enable
                                    0x0000dc4b   Gb    1  Code  Hi   0x36
    501  am_hal_sysctrl_sleep       0x0000dc81   Gb    1  Code  Hi   0xa8
    502  am_hal_tpiu_enable         0x0000dd29   Gb    1  Code  Hi   0x94
    503  am_hal_triple_read         0x0000ddbd   Gb    1  Code  Hi   0x24
    504  am_stimer_cmpr0_isr        0x0000dde1   Gb    1  Code  Hi   0x1e
    505  am_stimer_cmpr1_isr        0x0000ddff   Gb    1  Code  Hi   0x2c
    506  am_util_delay_ms           0x0000de2b   Gb    1  Code  Hi   0x26
    507  am_util_faultisr_collect_data
                                    0x0000de51   Gb    1  Code  Hi   0x254
    508  am_util_stdio_printf       0x0000e12d   Gb    1  Code  Hi   0x46
    509  am_util_stdio_printf_init  0x0000e173   Gb    1  Code  Hi   0xc
    510  am_util_stdio_vsprintf     0x0000e181   Gb    1  Code  Hi   0x714
    511  button0_handler            0x0000e895   Gb    1  Code  Hi   0x2a
    512  button1_handler            0x0000e8c1   Gb    1  Code  Hi   0x2a
    513  button2_handler            0x0000e8ed   Gb    1  Code  Hi   0x2a
    514  button_handler             0x0000e917   Gb    1  Code  Hi   0x44
    515  disable_print_interface    0x0000e9b5   Gb    1  Code  Hi   0x4
    516  eTaskConfirmSleepModeStatus
                                    0x0000ea77   Gb    1  Code  Hi   0x3c
    517  getStackedReg              0x0000eab3   Gb    1  Code  Hi   0x8
    518  main                       0x0000eabd   Gb    1  Code  Hi   0x4c
    519  pvPortMalloc               0x0000f06d   Gb    1  Code  Hi   0x102
    520  pxPortInitialiseStack      0x0000f16f   Gb    1  Code  Hi   0x28
    521  run_tasks                  0x0000f199   Gb    1  Code  Hi   0x30
    522  setup_task                 0x0000f2d9   Gb    1  Code  Hi   0x40
    523  uxListRemove               0x0000f391   Gb    1  Code  Hi   0x24
    524  uxTaskResetEventItemValue  0x0000f3b5   Gb    1  Code  Hi   0x1a
    525  vApplicationMallocFailedHook
                                    0x0000f3d1   Gb    1  Code  Hi   0x2
    526  vApplicationStackOverflowHook
                                    0x0000f3d5   Gb    1  Code  Hi   0x4
    527  vEventGroupSetBitsCallback 0x0000f3d9   Gb    1  Code  Hi   0x4
    528  vListInitialise            0x0000f3dd   Gb    1  Code  Hi   0x16
    529  vListInitialiseItem        0x0000f3f3   Gb    1  Code  Hi   0x6
    530  vListInsert                0x0000f3f9   Gb    1  Code  Hi   0x3a
    531  vListInsertEnd             0x0000f433   Gb    1  Code  Hi   0x1c
    532  vPortEnterCritical         0x0000f465   Gb    1  Code  Hi   0x34
    533  vPortExitCritical          0x0000f499   Gb    1  Code  Hi   0x1e
    534  vPortFree                  0x0000f4b9   Gb    1  Code  Hi   0x40
    535  vPortSetupTimerInterrupt   0x0000f4f9   Gb    1  Code  Hi   0x82
    536  vPortSuppressTicksAndSleep 0x0000f57b   Gb    1  Code  Hi   0xd4
    537  vPortValidateInterruptPriority
                                    0x0000f651   Gb    1  Code  Hi   0x42
    538  vQueueWaitForMessageRestricted
                                    0x0000f693   Gb    1  Code  Hi   0x46
    539  vTaskInternalSetTimeOutState
                                    0x0000f6d9   Gb    1  Code  Hi   0x1a
    540  vTaskMissedYield           0x0000f6f3   Gb    1  Code  Hi   0xe
    541  vTaskPlaceOnEventList      0x0000f701   Gb    1  Code  Hi   0x26
    542  vTaskPlaceOnEventListRestricted
                                    0x0000f729   Gb    1  Code  Hi   0x2e
    543  vTaskPlaceOnUnorderedEventList
                                    0x0000f759   Gb    1  Code  Hi   0x3e
    544  vTaskRemoveFromUnorderedEventList
                                    0x0000f799   Gb    1  Code  Hi   0x76
    545  vTaskStartScheduler        0x0000f811   Gb    1  Code  Hi   0x80
    546  vTaskStepTick              0x0000f899   Gb    1  Code  Hi   0x26
    547  vTaskSuspend               0x0000f8c1   Gb    1  Code  Hi   0xda
    548  vTaskSuspendAll            0x0000f99b   Gb    1  Code  Hi   0x10
    549  vTaskSwitchContext         0x0000f9ad   Gb    1  Code  Hi   0xb6
    550  xEventGroupCreate          0x0000fa63   Gb    1  Code  Hi   0x1c
    551  xEventGroupSetBits         0x0000fa81   Gb    1  Code  Hi   0x72
    552  xEventGroupWaitBits        0x0000faf5   Gb    1  Code  Hi   0xec
    553  xPortStartScheduler        0x0000fbe1   Gb    1  Code  Hi   0xf8
    554  xPortStimerTickHandler     0x0000fcd9   Gb    1  Code  Hi   0x8c
    555  xQueueGenericCreate        0x0000fd65   Gb    1  Code  Hi   0x36
    556  xQueueGenericReset         0x0000fd9d   Gb    1  Code  Hi   0x6e
    557  xQueueGenericSend          0x0000fe0d   Gb    1  Code  Hi   0x142
    558  xQueueGenericSendFromISR   0x0000ff51   Gb    1  Code  Hi   0x9a
    559  xQueueReceive              0x0000ffed   Gb    1  Code  Hi   0x152
    560  xTaskCheckForTimeOut       0x00010141   Gb    1  Code  Hi   0x68
    561  xTaskCreate                0x000101a9   Gb    1  Code  Hi   0x1c6
    562  xTaskGetSchedulerState     0x0001036f   Gb    1  Code  Hi   0x24
    563  xTaskGetTickCount          0x00010393   Gb    1  Code  Hi   0xc
    564  xTaskIncrementTick         0x000103a1   Gb    1  Code  Hi   0x138
    565  xTaskRemoveFromEventList   0x000104d9   Gb    1  Code  Hi   0xa4
    566  xTaskResumeAll             0x0001057d   Gb    1  Code  Hi   0x122
    567  xTimerCreateTimerTask      0x000106a1   Gb    1  Code  Hi   0x44
    568  xTimerGenericCommand       0x000106ed   Gb    1  Code  Hi   0x54
    569  xTimerPendFunctionCallFromISR
                                    0x00010741   Gb    1  Code  Hi   0x2a
    570  __aeabi_d2f                0x0001076d   Gb    1  Code  De 
    571  _d2f                       0x0001076d   Gb    1  Code  De   0x62
    572  __fpl_dnaninf              0x000107cf   Gb    1  Code  De   0x9c
    573  _fp_init                   0x0001086b   Gb    1  Code  De   0x1a
    574  __fplib_config_fpu_vfp     0x00010883   Gb    1  Code  De 
    575  __fplib_config_pureend_doubles
                                    0x00010883   Gb    1  Code  De 
    576  __fpl_fretinf              0x00010885   Gb    1  Code  De   0xa
    577  __I$use$fp                 0x0001088e   Gb    1   --   De 
    578  am_hal_cachectrl_defaults  0x0001089c   Gb    1  Data  Hi   0x3
    579  am_hal_pwrctrl_memory_control
                                    0x000108a0   Gb    1  Data  Hi   0x1b0
    580  g_AM_BSP_GPIO_BUTTON0      0x00010a50   Gb    1  Data  Hi   0x4
    581  g_AM_BSP_GPIO_BUTTON1      0x00010a54   Gb    1  Data  Hi   0x4
    582  g_AM_BSP_GPIO_BUTTON2      0x00010a58   Gb    1  Data  Hi   0x4
    583  g_AM_BSP_GPIO_ITM_SWO      0x00010a5c   Gb    1  Data  Hi   0x4
    584  g_AM_HAL_GPIO_DISABLE      0x00010a60   Gb    1  Data  Hi   0x4
    585  g_AM_HAL_GPIO_OUTPUT       0x00010a64   Gb    1  Data  Hi   0x4
    586  g_AM_HAL_GPIO_TRISTATE     0x00010a68   Gb    1  Data  Hi   0x4
    587  g_am_hal_mcuctrl_flash_size
                                    0x00010a6c   Gb    1  Data  Hi   0x40
    588  g_am_hal_mcuctrl_sram_size 0x00010aac   Gb    1  Data  Hi   0x40
    589  Region$$Table$$Base        0x00010f50   Gb    1   --   Hi 
    590  Region$$Table$$Limit       0x00010f80   Gb    1   --   Hi 
    591  am_bsp_psLEDs              0x10001000   Gb    2  Data  Hi   0x28
    592  __libspace_start           0x10001030   Gb    3  Data  De   0x60
    593  __temporary_stack_top$libspace
                                    0x10001090   Gb    3  Data  De 
    594  gAmHalResetStatus          0x10001090   Gb    3  Data  Hi   0x4
    595  gNumCmpB                   0x10001094   Gb    3  Data  Hi   0x4
    596  g_am_hal_burst_mode_available
                                    0x10001098   Gb    3  Data  Hi   0x1
    597  g_am_hal_sysctrl_sleep_count
                                    0x1000111c   Gb    3  Data  Hi   0x4
    598  g_bSimobuckTrimsDone       0x10001122   Gb    3  Data  Hi   0x1
    599  g_bVddfTrimsDone           0x10001124   Gb    3  Data  Hi   0x1
    600  g_pfnCharPrint             0x1000112c   Gb    3  Data  Hi   0x4
    601  led_task_handle            0x10001784   Gb    3  Data  Hi   0x4
    602  pxCurrentTCB               0x10001790   Gb    3  Data  Hi   0x4
    603  ulTimerCountsForOneTick    0x100057fc   Gb    3  Data  Hi   0x4
    604  xLedEventHandle            0x10005870   Gb    3  Data  Hi   0x4
    605  xSetupTask                 0x10005898   Gb    3  Data  Hi   0x4


** Section #13 '.strtab' (SHT_STRTAB)
    Size   : 10172 bytes

            #  Offset String
        ====================================

            1      1: $d
            2      4: $t
            3      7: $t.0
            4     12: $d.6
            5     17: $t.11
            6     23: $d.12
            7     29: $t.2
            8     34: $d.3
            9     39: $t.13
           10     45: $d.4
           11     50: $t.5
           12     55: $d.1
           13     60: $t.7
           14     65: $t.4
           15     70: $d.5
           16     75: $t.9
           17     80: $t.3
           18     85: $d.20
           19     91: $t.15
           20     97: $d.8
           21    102: $t.6
           22    107: $d.19
           23    113: $d.10
           24    119: $t.18
           25    125: $d.realdata
           26    137: port.c
           27    144: prvTaskExitError
           28    161: pxCurrentTCBConst2
           29    180: vPortEnableVFP
           30    195: prvPortStartFirstTask
           31    217: pxCurrentTCBConst
           32    235: ucMaxSysCallPriority
           33    256: ulMaxPRIGROUPValue
           34    275: uxCriticalNesting
           35    293: xMaximumPossibleSuppressedTicks
           36    325: g_lastSTimerVal
           37    341: freertos_lowpower.c
           38    361: led_task.c
           39    372: rtos.c
           40    379: am_util_debug.c
           41    395: am_util_delay.c
           42    411: am_util_faultisr.c
           43    430: .L.str
           44    437: .L.str.23
           45    447: .L.str.9
           46    456: .L.str.16
           47    466: .L.str.15
           48    476: .L.str.21
           49    486: .L.str.18
           50    496: .L.str.19
           51    506: .L.str.17
           52    516: .L.str.20
           53    526: .L.str.22
           54    536: .L.str.25
           55    546: .L.str.24
           56    556: .L.str.26
           57    566: .L.str.1
           58    575: .L.str.2
           59    584: .L.str.3
           60    593: .L.str.4
           61    602: .L.str.7
           62    611: .L.str.6
           63    620: .L.str.11
           64    630: .L.str.5
           65    639: .L.str.8
           66    648: .L.str.10
           67    658: am_util_stdio.c
           68    674: decstr_to_int
           69    688: uint64_to_str
           70    702: divu64_10
           71    712: g_bTxtXlate
           72    724: g_prfbuf
           73    733: event_groups.c
           74    748: list.c
           75    755: queue.c
           76    763: prvCopyDataToQueue
           77    782: prvUnlockQueue
           78    797: tasks.c
           79    805: prvAddCurrentTaskToDelayedList
           80    836: prvIdleTask
           81    848: uxSchedulerSuspended
           82    869: xTickCount
           83    880: xSuspendedTaskList
           84    899: xSchedulerRunning
           85    917: uxCurrentNumberOfTasks
           86    940: uxTopReadyPriority
           87    959: pxReadyTasksLists
           88    977: xPendingReadyList
           89    995: xIdleTaskHandle
           90   1011: xNextTaskUnblockTime
           91   1032: xYieldPending
           92   1046: uxPendedTicks
           93   1060: pxDelayedTaskList
           94   1078: pxOverflowDelayedTaskList
           95   1104: xNumOfOverflows
           96   1120: uxTaskNumber
           97   1133: xDelayedTaskList1
           98   1151: xDelayedTaskList2
           99   1169: timers.c
          100   1178: prvCheckForValidListAndQueue
          101   1207: prvTimerTask
          102   1220: prvSampleTimeNow
          103   1237: prvInsertTimerInActiveList
          104   1264: xTimerQueue
          105   1276: xTimerTaskHandle
          106   1293: pxCurrentTimerList
          107   1312: pxOverflowTimerList
          108   1332: prvSampleTimeNow.xLastTime
          109   1359: xActiveTimerList1
          110   1377: xActiveTimerList2
          111   1395: heap_2.c
          112   1404: pvPortMalloc.xHeapHasBeenInitialised
          113   1441: xStart
          114   1448: xEnd
          115   1453: xFreeBytesRemaining
          116   1473: ucHeap
          117   1480: am_devices_button.c
          118   1500: am_devices_led.c
          119   1517: ../keil6/startup_keil6.s
          120   1542: STACK
          121   1548: StackMem
          122   1557: HEAP
          123   1562: HeapMem
          124   1570: RESET
          125   1576: $v0
          126   1580: .text
          127   1586: am_hal_global.c
          128   1602: am_hal_cachectrl.c
          129   1621: set_LPMMODE
          130   1633: set_SEDELAY
          131   1645: set_RDWAIT
          132   1656: am_hal_clkgen.c
          133   1672: am_hal_ctimer.c
          134   1688: g_am_hal_ctimer_ppfnHandlers
          135   1717: am_hal_flash.c
          136   1732: .L__const.am_hal_flash_store_ui32.SRAM_write_ui32
          137   1782: am_hal_gpio.c
          138   1796: g_ui8Bit76Capabilities
          139   1819: g_ui8Inpen
          140   1830: g_ui8nCEpins
          141   1843: g_ui8NCEtable
          142   1857: gpio_ppfnHandlers
          143   1875: gpio_pHandlerCtxt
          144   1893: am_hal_interrupt.c
          145   1912: am_hal_mcuctrl.c
          146   1929: am_hal_pwrctrl.c
          147   1946: am_hal_stimer.c
          148   1962: am_hal_sysctrl.c
          149   1979: am_bsp.c
          150   1988: g_ui32PrintInterface
          151   2009: am_bsp_pins.c
          152   2023: am_hal_burst.c
          153   2038: g_bEnFromManual
          154   2054: g_bDisFromManual
          155   2071: am_hal_debug.c
          156   2086: am_hal_itm.c
          157   2099: am_hal_reset.c
          158   2114: am_hal_rtc.c
          159   2127: am_hal_tpiu.c
          160   2141: am_hal_uart.c
          161   2155: am_hal_queue.c
          162   2170: dc.s
          163   2175: ../clib/memcpset.s
          164   2194: ../clib/heapaux.c
          165   2212: ../clib/angel/startup.s
          166   2236: !!!main
          167   2244: ../clib/angel/handlers.s
          168   2269: !!handler_copy
          169   2284: ../fplib/d2f.s
          170   2299: x$fpl$d2f
          171   2309: ../clib/angel/kernel.s
          172   2332: .ARM.Collect$$rtentry$$00000000
          173   2364: ../fplib/dnaninf.s
          174   2383: x$fpl$dnaninf
          175   2397: ../fplib/fretinf.s
          176   2416: x$fpl$fretinf
          177   2430: ../fplib/usenofp.s
          178   2449: x$fpl$usenofp
          179   2463: .ARM.Collect$$rtentry$$00000002
          180   2495: .ARM.Collect$$rtentry$$00000009
          181   2527: .ARM.Collect$$rtentry$$0000000A
          182   2559: .ARM.Collect$$rtentry$$0000000C
          183   2591: .ARM.Collect$$rtentry$$0000000D
          184   2623: .ARM.Collect$$rtentry$$00000004
          185   2655: ../clib/angel/sys.s
          186   2675: ../clib/stdlib.c
          187   2692: ../clib/angel/boardlib.s
          188   2717: ../clib/libinit.s
          189   2735: .ARM.Collect$$libinit$$00000000
          190   2767: .bss
          191   2772: .ARM.Collect$$rtexit$$00000000
          192   2803: .ARM.Collect$$libinit$$00000001
          193   2835: .ARM.Collect$$libinit$$00000004
          194   2867: .ARM.Collect$$libinit$$0000000A
          195   2899: .ARM.Collect$$libinit$$0000000C
          196   2931: .ARM.Collect$$libinit$$0000000E
          197   2963: .ARM.Collect$$libinit$$00000011
          198   2995: .ARM.Collect$$libinit$$00000013
          199   3027: .ARM.Collect$$libinit$$00000015
          200   3059: .ARM.Collect$$libinit$$00000017
          201   3091: .ARM.Collect$$libinit$$00000019
          202   3123: .ARM.Collect$$libinit$$0000001B
          203   3155: .ARM.Collect$$libinit$$0000001D
          204   3187: .ARM.Collect$$libinit$$0000001F
          205   3219: .ARM.Collect$$libinit$$00000021
          206   3251: .ARM.Collect$$libinit$$00000023
          207   3283: .ARM.Collect$$libinit$$00000025
          208   3315: .ARM.Collect$$libinit$$0000002C
          209   3347: .ARM.Collect$$libinit$$0000002E
          210   3379: .ARM.Collect$$libinit$$00000030
          211   3411: .ARM.Collect$$libinit$$00000032
          212   3443: .ARM.Collect$$libinit$$00000033
          213   3475: .ARM.Collect$$rtexit$$00000002
          214   3506: .ARM.Collect$$rtexit$$00000003
          215   3537: .ARM.Collect$$rtexit$$00000004
          216   3568: ../clib/armsys.c
          217   3585: ../fplib/fpinit.s
          218   3603: x$fpl$fpinit
          219   3616: ../clib/angel/sysapp.c
          220   3639: .ARM.Collect$$libshutdown$$00000000
          221   3675: ../clib/heapalloc.c
          222   3695: ../clib/signal.c
          223   3712: .ARM.Collect$$libshutdown$$00000002
          224   3748: .ARM.Collect$$libshutdown$$00000004
          225   3784: .ARM.Collect$$libshutdown$$00000007
          226   3820: .ARM.Collect$$libshutdown$$0000000A
          227   3856: .ARM.Collect$$libshutdown$$0000000C
          228   3892: .ARM.Collect$$libshutdown$$0000000F
          229   3928: .ARM.Collect$$libshutdown$$00000010
          230   3964: ../clib/angel/rt.s
          231   3983: ../clib/signal.s
          232   4000: ../clib/angel/scatter.s
          233   4024: !!!scatter
          234   4035: !!handler_zi
          235   4048: BuildAttributes$$THM_ISAv4$E$P$D$K$B$S$7EM$VFPi3$EXTD16$VFPS$VFMA$PE$A:L22UL41UL21$X:L11$S22US41US21$IEEE1$IW$~IW$USESV6$~STKCKD$USESV7$~SHL$OSPACE$ROPI$EBA8$UX$STANDARDLIB$REQ8$PRES8$EABIv2
          236   4239: __Vectors
          237   4249: __Patchable
          238   4261: Reset_Handler
          239   4275: NMI_Handler
          240   4287: MemManage_Handler
          241   4305: BusFault_Handler
          242   4322: UsageFault_Handler
          243   4341: DebugMon_Handler
          244   4358: am_adc_isr
          245   4369: am_ble_isr
          246   4380: am_brownout_isr
          247   4396: am_clkgen_isr
          248   4410: am_iomaster0_isr
          249   4427: am_iomaster1_isr
          250   4444: am_iomaster2_isr
          251   4461: am_iomaster3_isr
          252   4478: am_iomaster4_isr
          253   4495: am_iomaster5_isr
          254   4512: am_ioslave_acc_isr
          255   4531: am_ioslave_ios_isr
          256   4550: am_mspi0_isr
          257   4563: am_mspi1_isr
          258   4576: am_mspi2_isr
          259   4589: am_pdm0_isr
          260   4601: am_rtc_isr
          261   4612: am_scard_isr
          262   4625: am_software0_isr
          263   4642: am_stimer_cmpr2_isr
          264   4662: am_stimer_cmpr3_isr
          265   4682: am_stimer_cmpr4_isr
          266   4702: am_stimer_cmpr5_isr
          267   4722: am_stimer_cmpr6_isr
          268   4742: am_stimer_cmpr7_isr
          269   4762: am_stimer_isr
          270   4776: am_uart0_isr
          271   4789: am_uart1_isr
          272   4802: am_uart_isr
          273   4814: am_vcomp_isr
          274   4827: am_watchdog_isr
          275   4843: __main
          276   4850: __scatterload
          277   4864: __scatterload_rt2
          278   4882: __scatterload_rt2_thumb_only
          279   4911: __scatterload_null
          280   4930: __scatterload_copy
          281   4949: __scatterload_zeroinit
          282   4972: __rt_lib_init
          283   4986: __rt_lib_init_fp_1
          284   5005: __rt_lib_init_alloca_1
          285   5028: __rt_lib_init_argv_1
          286   5049: __rt_lib_init_atexit_1
          287   5072: __rt_lib_init_clock_1
          288   5094: __rt_lib_init_cpp_1
          289   5114: __rt_lib_init_exceptions_1
          290   5141: __rt_lib_init_fp_trap_1
          291   5165: __rt_lib_init_getenv_1
          292   5188: __rt_lib_init_heap_1
          293   5209: __rt_lib_init_lc_collate_1
          294   5236: __rt_lib_init_lc_ctype_1
          295   5261: __rt_lib_init_lc_monetary_1
          296   5289: __rt_lib_init_lc_numeric_1
          297   5316: __rt_lib_init_lc_time_1
          298   5340: __rt_lib_init_preinit_1
          299   5364: __rt_lib_init_rand_1
          300   5385: __rt_lib_init_return
          301   5406: __rt_lib_init_signal_1
          302   5429: __rt_lib_init_stdio_1
          303   5451: __rt_lib_init_user_alloc_1
          304   5478: __rt_lib_shutdown
          305   5496: __rt_lib_shutdown_cpp_1
          306   5520: __rt_lib_shutdown_fp_trap_1
          307   5548: __rt_lib_shutdown_heap_1
          308   5573: __rt_lib_shutdown_return
          309   5598: __rt_lib_shutdown_signal_1
          310   5625: __rt_lib_shutdown_stdio_1
          311   5651: __rt_lib_shutdown_user_alloc_1
          312   5682: __rt_entry
          313   5693: __rt_entry_presh_1
          314   5712: __rt_entry_sh
          315   5726: __rt_entry_li
          316   5740: __rt_entry_postsh_1
          317   5760: __rt_entry_main
          318   5776: __rt_entry_postli_1
          319   5796: __rt_exit
          320   5806: __rt_exit_ls
          321   5819: __rt_exit_prels_1
          322   5837: __rt_exit_exit
          323   5852: __user_initial_stackheap
          324   5877: __aeabi_memcpy
          325   5892: __rt_memcpy
          326   5904: _memcpy_lastbytes
          327   5922: __aeabi_memset4
          328   5938: __aeabi_memset8
          329   5954: __aeabi_memclr4
          330   5970: __aeabi_memclr8
          331   5986: __rt_memclr_w
          332   6000: _memset_w
          333   6010: __use_two_region_memory
          334   6034: __rt_heap_escrow$2region
          335   6059: __rt_heap_expand$2region
          336   6084: __aeabi_memcpy4
          337   6100: __aeabi_memcpy8
          338   6116: __rt_memcpy_w
          339   6130: _memcpy_lastbytes_aligned
          340   6156: __user_setup_stackheap
          341   6179: exit
          342   6184: __user_libspace
          343   6200: __user_perproc_libspace
          344   6224: __user_perthread_libspace
          345   6250: _sys_exit
          346   6260: __I$use$semihosting
          347   6280: __use_no_semihosting_swi
          348   6305: HardFault_Handler
          349   6323: __semihosting_library_function
          350   6354: LedTask
          351   6362: LedTaskSetup
          352   6375: PendSV_Handler
          353   6390: SVC_Handler
          354   6402: SysTick_Handler
          355   6418: am_bsp_itm_printf_disable
          356   6444: am_bsp_itm_printf_enable
          357   6469: am_bsp_low_power_init
          358   6491: am_ctimer_isr
          359   6505: am_devices_led_array_init
          360   6531: am_devices_led_init
          361   6551: am_devices_led_off
          362   6570: am_devices_led_toggle
          363   6592: am_freertos_sleep
          364   6610: am_freertos_wakeup
          365   6629: am_gpio_isr
          366   6641: am_hal_burst_ldo_charge
          367   6665: am_hal_burst_ldo_patch_check
          368   6694: am_hal_burst_mode_disable
          369   6720: am_hal_burst_mode_disable_w_manual_sequence
          370   6764: am_hal_burst_mode_enable
          371   6789: am_hal_burst_mode_enable_w_manual_sequence
          372   6832: am_hal_cachectrl_config
          373   6856: am_hal_cachectrl_control
          374   6881: am_hal_cachectrl_enable
          375   6905: am_hal_clkgen_control
          376   6927: am_hal_clkgen_status_get
          377   6952: am_hal_ctimer_int_clear
          378   6976: am_hal_ctimer_int_service
          379   7002: am_hal_ctimer_int_status_get
          380   7031: am_hal_flash_delay
          381   7050: am_hal_flash_delay_status_check
          382   7082: am_hal_flash_load_ui32
          383   7105: am_hal_flash_store_ui32
          384   7129: am_hal_gpio_interrupt_clear
          385   7157: am_hal_gpio_interrupt_enable
          386   7186: am_hal_gpio_interrupt_register
          387   7217: am_hal_gpio_interrupt_service
          388   7247: am_hal_gpio_interrupt_status_get
          389   7280: am_hal_gpio_pinconfig
          390   7302: am_hal_gpio_state_read
          391   7325: am_hal_gpio_state_write
          392   7349: am_hal_interrupt_master_disable
          393   7381: am_hal_interrupt_master_enable
          394   7412: am_hal_interrupt_master_set
          395   7440: am_hal_itm_disable
          396   7459: am_hal_itm_enable
          397   7477: am_hal_itm_print
          398   7494: am_hal_mcuctrl_info_get
          399   7518: am_hal_pwrctrl_blebuck_trim
          400   7546: am_hal_pwrctrl_bleif_workaround
          401   7578: am_hal_pwrctrl_ldo_vddx_active_trim_adj_default
          402   7626: am_hal_pwrctrl_low_power_init
          403   7656: am_hal_pwrctrl_memory_enable
          404   7685: am_hal_pwrctrl_simobuck_vddx_active_trim_adj_default
          405   7738: am_hal_pwrctrl_wa_vddf_boost
          406   7767: am_hal_pwrctrl_wa_vddf_restore
          407   7798: am_hal_rtc_osc_disable
          408   7821: am_hal_stimer_compare_delta_set
          409   7853: am_hal_stimer_config
          410   7874: am_hal_stimer_counter_get
          411   7900: am_hal_stimer_int_clear
          412   7924: am_hal_stimer_int_enable
          413   7949: am_hal_stimer_int_status_get
          414   7978: am_hal_sysctrl_control
          415   8001: am_hal_sysctrl_fpu_enable
          416   8027: am_hal_sysctrl_fpu_stacking_enable
          417   8062: am_hal_sysctrl_sleep
          418   8083: am_hal_tpiu_enable
          419   8102: am_hal_triple_read
          420   8121: am_stimer_cmpr0_isr
          421   8141: am_stimer_cmpr1_isr
          422   8161: am_util_delay_ms
          423   8178: am_util_faultisr_collect_data
          424   8208: am_util_stdio_printf
          425   8229: am_util_stdio_printf_init
          426   8255: am_util_stdio_vsprintf
          427   8278: button0_handler
          428   8294: button1_handler
          429   8310: button2_handler
          430   8326: button_handler
          431   8341: disable_print_interface
          432   8365: eTaskConfirmSleepModeStatus
          433   8393: getStackedReg
          434   8407: main
          435   8412: pvPortMalloc
          436   8425: pxPortInitialiseStack
          437   8447: run_tasks
          438   8457: setup_task
          439   8468: uxListRemove
          440   8481: uxTaskResetEventItemValue
          441   8507: vApplicationMallocFailedHook
          442   8536: vApplicationStackOverflowHook
          443   8566: vEventGroupSetBitsCallback
          444   8593: vListInitialise
          445   8609: vListInitialiseItem
          446   8629: vListInsert
          447   8641: vListInsertEnd
          448   8656: vPortEnterCritical
          449   8675: vPortExitCritical
          450   8693: vPortFree
          451   8703: vPortSetupTimerInterrupt
          452   8728: vPortSuppressTicksAndSleep
          453   8755: vPortValidateInterruptPriority
          454   8786: vQueueWaitForMessageRestricted
          455   8817: vTaskInternalSetTimeOutState
          456   8846: vTaskMissedYield
          457   8863: vTaskPlaceOnEventList
          458   8885: vTaskPlaceOnEventListRestricted
          459   8917: vTaskPlaceOnUnorderedEventList
          460   8948: vTaskRemoveFromUnorderedEventList
          461   8982: vTaskStartScheduler
          462   9002: vTaskStepTick
          463   9016: vTaskSuspend
          464   9029: vTaskSuspendAll
          465   9045: vTaskSwitchContext
          466   9064: xEventGroupCreate
          467   9082: xEventGroupSetBits
          468   9101: xEventGroupWaitBits
          469   9121: xPortStartScheduler
          470   9141: xPortStimerTickHandler
          471   9164: xQueueGenericCreate
          472   9184: xQueueGenericReset
          473   9203: xQueueGenericSend
          474   9221: xQueueGenericSendFromISR
          475   9246: xQueueReceive
          476   9260: xTaskCheckForTimeOut
          477   9281: xTaskCreate
          478   9293: xTaskGetSchedulerState
          479   9316: xTaskGetTickCount
          480   9334: xTaskIncrementTick
          481   9353: xTaskRemoveFromEventList
          482   9378: xTaskResumeAll
          483   9393: xTimerCreateTimerTask
          484   9415: xTimerGenericCommand
          485   9436: xTimerPendFunctionCallFromISR
          486   9466: __aeabi_d2f
          487   9478: _d2f
          488   9483: __fpl_dnaninf
          489   9497: _fp_init
          490   9506: __fplib_config_fpu_vfp
          491   9529: __fplib_config_pureend_doubles
          492   9560: __fpl_fretinf
          493   9574: __I$use$fp
          494   9585: am_hal_cachectrl_defaults
          495   9611: am_hal_pwrctrl_memory_control
          496   9641: g_AM_BSP_GPIO_BUTTON0
          497   9663: g_AM_BSP_GPIO_BUTTON1
          498   9685: g_AM_BSP_GPIO_BUTTON2
          499   9707: g_AM_BSP_GPIO_ITM_SWO
          500   9729: g_AM_HAL_GPIO_DISABLE
          501   9751: g_AM_HAL_GPIO_OUTPUT
          502   9772: g_AM_HAL_GPIO_TRISTATE
          503   9795: g_am_hal_mcuctrl_flash_size
          504   9823: g_am_hal_mcuctrl_sram_size
          505   9850: Region$$Table$$Base
          506   9870: Region$$Table$$Limit
          507   9891: am_bsp_psLEDs
          508   9905: __libspace_start
          509   9922: __temporary_stack_top$libspace
          510   9953: gAmHalResetStatus
          511   9971: gNumCmpB
          512   9980: g_am_hal_burst_mode_available
          513  10010: g_am_hal_sysctrl_sleep_count
          514  10039: g_bSimobuckTrimsDone
          515  10060: g_bVddfTrimsDone
          516  10077: g_pfnCharPrint
          517  10092: led_task_handle
          518  10108: pxCurrentTCB
          519  10121: ulTimerCountsForOneTick
          520  10145: xLedEventHandle
          521  10161: xSetupTask


** Section #14 '.note' (SHT_NOTE)
    Size   : 32 bytes (alignment 4)


** Section #15 '.comment' (SHT_PROGBITS)
    Size   : 1724 bytes


** Section #16 '.shstrtab' (SHT_STRTAB)
    Size   : 156 bytes

            #  Offset String
        ====================================

            1      1: ROMEM
            2      7: RWMEM
            3     13: TCM
            4     17: STACKMEM
            5     26: .debug_abbrev
            6     40: .debug_frame
            7     53: .debug_info
            8     65: .debug_line
            9     77: .debug_loc
           10     88: .debug_str
           11     99: .debug_ranges
           12    113: .symtab
           13    121: .strtab
           14    129: .note
           15    135: .comment
           16    144: .shstrtab
           17    154: 
           18    155: 


