
========================================================================

** ELF Header Information

    File Name: bin\coremark.axf

    Machine class: ELFCLASS32 (32-bit)
    Data encoding: ELFDATA2LSB (Little endian)
    Header version: EV_CURRENT (Current version)
    Operating System ABI: none
    ABI Version: 0
    File Type: ET_EXEC (Executable) (2)
    Machine: EM_ARM (ARM)

    Image Entry point: 0x0000c135
    Flags: EF_ARM_HASENTRY + EF_ARM_ABI_FLOAT_HARD (0x05000402)

    ARM ELF revision: 5 (ABI version 2)

    Conforms to Hard float procedure-call standard

    Built with
    Component: ARM Compiler 6.16 Tool: armasm [5dfea300]
    Component: ARM Compiler 6.16 Tool: armlink [5dfeaa00]

    Header size: 52 bytes (0x34)
    Program header entry size: 32 bytes (0x20)
    Section header entry size: 40 bytes (0x28)

    Program header entries: 1
    Section header entries: 16

    Program header offset: 102732 (0x0001914c)
    Section header offset: 102764 (0x0001916c)

    Section header string table index: 15

========================================================================

** Program header #0 (PT_LOAD) [PF_X + PF_W + PF_R + PF_ARM_ENTRY]
    Size : 25280 bytes (19528 bytes in file)
    Virtual address: 0x0000c000 (Alignment 8)


========================================================================

** Section #1 'FLASH' (SHT_PROGBITS) [SHF_ALLOC + SHF_EXECINSTR]
    Size   : 19468 bytes (alignment 8)
    Address: 0x0000c000

    $d
    RESET
    __Vectors
        0x0000c000:    10001038    8...    DCD    268439608
        0x0000c004:    0000c101    ....    DCD    49409
        0x0000c008:    0000c11f    ....    DCD    49439
        0x0000c00c:    0000c2f7    ....    DCD    49911
        0x0000c010:    0000c121    !...    DCD    49441
        0x0000c014:    0000c123    #...    DCD    49443
        0x0000c018:    0000c125    %...    DCD    49445
        0x0000c01c:    00000000    ....    DCD    0
        0x0000c020:    00000000    ....    DCD    0
        0x0000c024:    00000000    ....    DCD    0
        0x0000c028:    00000000    ....    DCD    0
        0x0000c02c:    0000c127    '...    DCD    49447
        0x0000c030:    0000c129    )...    DCD    49449
        0x0000c034:    00000000    ....    DCD    0
        0x0000c038:    0000c12b    +...    DCD    49451
        0x0000c03c:    0000c311    ....    DCD    49937
        0x0000c040:    0000c12f    /...    DCD    49455
        0x0000c044:    0000c12f    /...    DCD    49455
        0x0000c048:    0000c12f    /...    DCD    49455
        0x0000c04c:    0000c12f    /...    DCD    49455
        0x0000c050:    0000c12f    /...    DCD    49455
        0x0000c054:    0000c12f    /...    DCD    49455
        0x0000c058:    0000c12f    /...    DCD    49455
        0x0000c05c:    0000c12f    /...    DCD    49455
        0x0000c060:    0000c12f    /...    DCD    49455
        0x0000c064:    0000c12f    /...    DCD    49455
        0x0000c068:    0000c12f    /...    DCD    49455
        0x0000c06c:    0000c12f    /...    DCD    49455
        0x0000c070:    0000c12f    /...    DCD    49455
        0x0000c074:    0000c12f    /...    DCD    49455
        0x0000c078:    0000c12f    /...    DCD    49455
        0x0000c07c:    0000c12f    /...    DCD    49455
        0x0000c080:    0000c12f    /...    DCD    49455
        0x0000c084:    0000c12f    /...    DCD    49455
        0x0000c088:    0000c12f    /...    DCD    49455
        0x0000c08c:    0000c12f    /...    DCD    49455
        0x0000c090:    0000c12f    /...    DCD    49455
        0x0000c094:    0000c12f    /...    DCD    49455
        0x0000c098:    0000c12f    /...    DCD    49455
        0x0000c09c:    0000c12f    /...    DCD    49455
        0x0000c0a0:    0000c12f    /...    DCD    49455
        0x0000c0a4:    0000c12f    /...    DCD    49455
        0x0000c0a8:    0000c12f    /...    DCD    49455
        0x0000c0ac:    0000c12f    /...    DCD    49455
        0x0000c0b0:    0000c12f    /...    DCD    49455
        0x0000c0b4:    0000c12f    /...    DCD    49455
        0x0000c0b8:    0000c12f    /...    DCD    49455
        0x0000c0bc:    0000c12f    /...    DCD    49455
    __Patchable
        0x0000c0c0:    00000000    ....    DCD    0
        0x0000c0c4:    00000000    ....    DCD    0
        0x0000c0c8:    00000000    ....    DCD    0
        0x0000c0cc:    00000000    ....    DCD    0
        0x0000c0d0:    00000000    ....    DCD    0
        0x0000c0d4:    00000000    ....    DCD    0
        0x0000c0d8:    00000000    ....    DCD    0
        0x0000c0dc:    00000000    ....    DCD    0
        0x0000c0e0:    00000000    ....    DCD    0
        0x0000c0e4:    00000000    ....    DCD    0
        0x0000c0e8:    00000000    ....    DCD    0
        0x0000c0ec:    00000000    ....    DCD    0
        0x0000c0f0:    00000000    ....    DCD    0
        0x0000c0f4:    00000000    ....    DCD    0
        0x0000c0f8:    00000000    ....    DCD    0
        0x0000c0fc:    00000000    ....    DCD    0
    $t
    $v0
    Reset_Handler
        0x0000c100:    f64e5088    N..P    MOV      r0,#0xed88
        0x0000c104:    f2ce0000    ....    MOVT     r0,#0xe000
        0x0000c108:    6801        .h      LDR      r1,[r0,#0]
        0x0000c10a:    f4410170    A.p.    ORR      r1,r1,#0xf00000
        0x0000c10e:    6001        .`      STR      r1,[r0,#0]
        0x0000c110:    f3bf8f4f    ..O.    DSB      
        0x0000c114:    f3bf8f6f    ..o.    ISB      
        0x0000c118:    4805        .H      LDR      r0,[pc,#20] ; [0xc130] = 0xc135
        0x0000c11a:    4700        .G      BX       r0
        0x0000c11c:    e7fe        ..      B        0xc11c ; Reset_Handler + 28
    NMI_Handler
        0x0000c11e:    e7fe        ..      B        NMI_Handler ; 0xc11e
    MemManage_Handler
        0x0000c120:    e7fe        ..      B        MemManage_Handler ; 0xc120
    BusFault_Handler
        0x0000c122:    e7fe        ..      B        BusFault_Handler ; 0xc122
    UsageFault_Handler
        0x0000c124:    e7fe        ..      B        UsageFault_Handler ; 0xc124
    SVC_Handler
        0x0000c126:    e7fe        ..      B        SVC_Handler ; 0xc126
    DebugMon_Handler
        0x0000c128:    e7fe        ..      B        DebugMon_Handler ; 0xc128
    PendSV_Handler
        0x0000c12a:    e7fe        ..      B        PendSV_Handler ; 0xc12a
        0x0000c12c:    e7fe        ..      B        0xc12c ; PendSV_Handler + 2
    am_adc_isr
    am_ble_isr
    am_brownout_isr
    am_clkgen_isr
    am_ctimer_isr
    am_gpio_isr
    am_iomaster0_isr
    am_iomaster1_isr
    am_iomaster2_isr
    am_iomaster3_isr
    am_iomaster4_isr
    am_iomaster5_isr
    am_ioslave_acc_isr
    am_ioslave_ios_isr
    am_mspi0_isr
    am_pdm0_isr
    am_rtc_isr
    am_scard_isr
    am_software0_isr
    am_stimer_cmpr0_isr
    am_stimer_cmpr1_isr
    am_stimer_cmpr2_isr
    am_stimer_cmpr3_isr
    am_stimer_cmpr4_isr
    am_stimer_cmpr5_isr
    am_stimer_cmpr6_isr
    am_stimer_cmpr7_isr
    am_stimer_isr
    am_uart0_isr
    am_uart1_isr
    am_uart_isr
    am_vcomp_isr
    am_watchdog_isr
        0x0000c12e:    e7fe        ..      B        am_adc_isr ; 0xc12e
    $d
        0x0000c130:    0000c135    5...    DCD    49461
    $t
    !!!main
    __main
        0x0000c134:    f000f802    ....    BL       __scatterload ; 0xc13c
        0x0000c138:    f000f83c    ..<.    BL       __rt_entry ; 0xc1b4
    !!!scatter
    __scatterload
    __scatterload_rt2
    __scatterload_rt2_thumb_only
        0x0000c13c:    a00a        ..      ADR      r0,{pc}+0x2c ; 0xc168
        0x0000c13e:    e8900c00    ....    LDM      r0,{r10,r11}
        0x0000c142:    4482        .D      ADD      r10,r10,r0
        0x0000c144:    4483        .D      ADD      r11,r11,r0
        0x0000c146:    f1aa0701    ....    SUB      r7,r10,#1
    __scatterload_null
        0x0000c14a:    45da        .E      CMP      r10,r11
        0x0000c14c:    d101        ..      BNE      0xc152 ; __scatterload_null + 8
        0x0000c14e:    f000f831    ..1.    BL       __rt_entry ; 0xc1b4
        0x0000c152:    f2af0e09    ....    ADR      lr,{pc}-7 ; 0xc14b
        0x0000c156:    e8ba000f    ....    LDM      r10!,{r0-r3}
        0x0000c15a:    f0130f01    ....    TST      r3,#1
        0x0000c15e:    bf18        ..      IT       NE
        0x0000c160:    1afb        ..      SUBNE    r3,r7,r3
        0x0000c162:    f0430301    C...    ORR      r3,r3,#1
        0x0000c166:    4718        .G      BX       r3
    $d
        0x0000c168:    00004a84    .J..    DCD    19076
        0x0000c16c:    00004aa4    .J..    DCD    19108
    $t
    !!handler_copy
    __scatterload_copy
        0x0000c170:    3a10        .:      SUBS     r2,r2,#0x10
        0x0000c172:    bf24        $.      ITT      CS
        0x0000c174:    c878        x.      LDMCS    r0!,{r3-r6}
        0x0000c176:    c178        x.      STMCS    r1!,{r3-r6}
        0x0000c178:    d8fa        ..      BHI      __scatterload_copy ; 0xc170
        0x0000c17a:    0752        R.      LSLS     r2,r2,#29
        0x0000c17c:    bf24        $.      ITT      CS
        0x0000c17e:    c830        0.      LDMCS    r0!,{r4,r5}
        0x0000c180:    c130        0.      STMCS    r1!,{r4,r5}
        0x0000c182:    bf44        D.      ITT      MI
        0x0000c184:    6804        .h      LDRMI    r4,[r0,#0]
        0x0000c186:    600c        .`      STRMI    r4,[r1,#0]
        0x0000c188:    4770        pG      BX       lr
        0x0000c18a:    0000        ..      MOVS     r0,r0
    !!handler_zi
    __scatterload_zeroinit
        0x0000c18c:    2300        .#      MOVS     r3,#0
        0x0000c18e:    2400        .$      MOVS     r4,#0
        0x0000c190:    2500        .%      MOVS     r5,#0
        0x0000c192:    2600        .&      MOVS     r6,#0
        0x0000c194:    3a10        .:      SUBS     r2,r2,#0x10
        0x0000c196:    bf28        (.      IT       CS
        0x0000c198:    c178        x.      STMCS    r1!,{r3-r6}
        0x0000c19a:    d8fb        ..      BHI      0xc194 ; __scatterload_zeroinit + 8
        0x0000c19c:    0752        R.      LSLS     r2,r2,#29
        0x0000c19e:    bf28        (.      IT       CS
        0x0000c1a0:    c130        0.      STMCS    r1!,{r4,r5}
        0x0000c1a2:    bf48        H.      IT       MI
        0x0000c1a4:    600b        .`      STRMI    r3,[r1,#0]
        0x0000c1a6:    4770        pG      BX       lr
    .ARM.Collect$$libinit$$00000000
    __rt_lib_init
        0x0000c1a8:    b51f        ..      PUSH     {r0-r4,lr}
    .ARM.Collect$$libinit$$00000001
    __rt_lib_init_fp_1
        0x0000c1aa:    f004f820    .. .    BL       _fp_init ; 0x101ee
    .ARM.Collect$$libinit$$00000004
    .ARM.Collect$$libinit$$0000000A
    .ARM.Collect$$libinit$$0000000C
    .ARM.Collect$$libinit$$0000000E
    .ARM.Collect$$libinit$$00000011
    .ARM.Collect$$libinit$$00000013
    .ARM.Collect$$libinit$$00000015
    .ARM.Collect$$libinit$$00000017
    .ARM.Collect$$libinit$$00000019
    .ARM.Collect$$libinit$$0000001B
    .ARM.Collect$$libinit$$0000001D
    .ARM.Collect$$libinit$$0000001F
    .ARM.Collect$$libinit$$00000021
    .ARM.Collect$$libinit$$00000023
    .ARM.Collect$$libinit$$00000025
    .ARM.Collect$$libinit$$0000002C
    .ARM.Collect$$libinit$$0000002E
    .ARM.Collect$$libinit$$00000030
    .ARM.Collect$$libinit$$00000032
    .ARM.Collect$$libinit$$00000033
    __rt_lib_init_alloca_1
    __rt_lib_init_argv_1
    __rt_lib_init_atexit_1
    __rt_lib_init_clock_1
    __rt_lib_init_cpp_1
    __rt_lib_init_exceptions_1
    __rt_lib_init_fp_trap_1
    __rt_lib_init_getenv_1
    __rt_lib_init_heap_1
    __rt_lib_init_lc_collate_1
    __rt_lib_init_lc_ctype_1
    __rt_lib_init_lc_monetary_1
    __rt_lib_init_lc_numeric_1
    __rt_lib_init_lc_time_1
    __rt_lib_init_preinit_1
    __rt_lib_init_rand_1
    __rt_lib_init_return
    __rt_lib_init_signal_1
    __rt_lib_init_stdio_1
    __rt_lib_init_user_alloc_1
        0x0000c1ae:    bd1f        ..      POP      {r0-r4,pc}
    .ARM.Collect$$libshutdown$$00000000
    __rt_lib_shutdown
        0x0000c1b0:    b510        ..      PUSH     {r4,lr}
    .ARM.Collect$$libshutdown$$00000002
    .ARM.Collect$$libshutdown$$00000004
    .ARM.Collect$$libshutdown$$00000007
    .ARM.Collect$$libshutdown$$0000000A
    .ARM.Collect$$libshutdown$$0000000C
    .ARM.Collect$$libshutdown$$0000000F
    .ARM.Collect$$libshutdown$$00000010
    __rt_lib_shutdown_cpp_1
    __rt_lib_shutdown_fp_trap_1
    __rt_lib_shutdown_heap_1
    __rt_lib_shutdown_return
    __rt_lib_shutdown_signal_1
    __rt_lib_shutdown_stdio_1
    __rt_lib_shutdown_user_alloc_1
        0x0000c1b2:    bd10        ..      POP      {r4,pc}
    .ARM.Collect$$rtentry$$00000000
    .ARM.Collect$$rtentry$$00000002
    .ARM.Collect$$rtentry$$00000004
    __rt_entry
    __rt_entry_presh_1
    __rt_entry_sh
        0x0000c1b4:    f000f866    ..f.    BL       __user_setup_stackheap ; 0xc284
        0x0000c1b8:    4611        .F      MOV      r1,r2
    .ARM.Collect$$rtentry$$00000009
    .ARM.Collect$$rtentry$$0000000A
    __rt_entry_li
    __rt_entry_postsh_1
        0x0000c1ba:    f7fffff5    ....    BL       __rt_lib_init ; 0xc1a8
    .ARM.Collect$$rtentry$$0000000C
    .ARM.Collect$$rtentry$$0000000D
    __rt_entry_main
    __rt_entry_postli_1
        0x0000c1be:    f002fc63    ..c.    BL       main ; 0xea88
        0x0000c1c2:    f000f884    ....    BL       exit ; 0xc2ce
    .ARM.Collect$$rtexit$$00000000
    __rt_exit
        0x0000c1c6:    b403        ..      PUSH     {r0,r1}
    .ARM.Collect$$rtexit$$00000002
    .ARM.Collect$$rtexit$$00000003
    __rt_exit_ls
    __rt_exit_prels_1
        0x0000c1c8:    f7fffff2    ....    BL       __rt_lib_shutdown ; 0xc1b0
    .ARM.Collect$$rtexit$$00000004
    __rt_exit_exit
        0x0000c1cc:    bc03        ..      POP      {r0,r1}
        0x0000c1ce:    f000f88b    ....    BL       _sys_exit ; 0xc2e8
        0x0000c1d2:    0000        ..      MOVS     r0,r0
    .text
    $v0
    __user_initial_stackheap
        0x0000c1d4:    4802        .H      LDR      r0,[pc,#8] ; [0xc1e0] = 0x100016b0
        0x0000c1d6:    4903        .I      LDR      r1,[pc,#12] ; [0xc1e4] = 0x10001038
        0x0000c1d8:    4a01        .J      LDR      r2,[pc,#4] ; [0xc1e0] = 0x100016b0
        0x0000c1da:    4b03        .K      LDR      r3,[pc,#12] ; [0xc1e8] = 0x10000038
        0x0000c1dc:    4770        pG      BX       lr
    $d
        0x0000c1de:    0000        ..      DCW    0
        0x0000c1e0:    100016b0    ....    DCD    268441264
        0x0000c1e4:    10001038    8...    DCD    268439608
        0x0000c1e8:    10000038    8...    DCD    268435512
    $t
    .text
    __aeabi_memclr
    __rt_memclr
        0x0000c1ec:    f04f0200    O...    MOV      r2,#0
    _memset
        0x0000c1f0:    2904        .)      CMP      r1,#4
        0x0000c1f2:    f0c08012    ....    BCC.W    0xc21a ; _memset + 42
        0x0000c1f6:    f0100c03    ....    ANDS     r12,r0,#3
        0x0000c1fa:    f000801b    ....    BEQ.W    _memset_w ; 0xc234
        0x0000c1fe:    f1cc0c04    ....    RSB      r12,r12,#4
        0x0000c202:    f1bc0f02    ....    CMP      r12,#2
        0x0000c206:    bf18        ..      IT       NE
        0x0000c208:    f8002b01    ...+    STRBNE   r2,[r0],#1
        0x0000c20c:    bfa8        ..      IT       GE
        0x0000c20e:    f8202b02     ..+    STRHGE   r2,[r0],#2
        0x0000c212:    eba1010c    ....    SUB      r1,r1,r12
        0x0000c216:    f000b80d    ....    B.W      _memset_w ; 0xc234
        0x0000c21a:    ea5f7cc1    _..|    LSLS     r12,r1,#31
        0x0000c21e:    bf24        $.      ITT      CS
        0x0000c220:    f8002b01    ...+    STRBCS   r2,[r0],#1
        0x0000c224:    f8002b01    ...+    STRBCS   r2,[r0],#1
        0x0000c228:    bf48        H.      IT       MI
        0x0000c22a:    f8002b01    ...+    STRBMI   r2,[r0],#1
        0x0000c22e:    4770        pG      BX       lr
    .text
    __aeabi_memclr4
    __aeabi_memclr8
    __rt_memclr_w
        0x0000c230:    f04f0200    O...    MOV      r2,#0
    _memset_w
        0x0000c234:    b500        ..      PUSH     {lr}
        0x0000c236:    4613        .F      MOV      r3,r2
        0x0000c238:    4694        .F      MOV      r12,r2
        0x0000c23a:    4696        .F      MOV      lr,r2
        0x0000c23c:    3920         9      SUBS     r1,r1,#0x20
        0x0000c23e:    bf22        ".      ITTT     CS
        0x0000c240:    e8a0500c    ...P    STMCS    r0!,{r2,r3,r12,lr}
        0x0000c244:    e8a0500c    ...P    STMCS    r0!,{r2,r3,r12,lr}
        0x0000c248:    f1b10120    .. .    SUBSCS   r1,r1,#0x20
        0x0000c24c:    f4bfaff7    ....    BCS.W    0xc23e ; _memset_w + 10
        0x0000c250:    0709        ..      LSLS     r1,r1,#28
        0x0000c252:    bf28        (.      IT       CS
        0x0000c254:    e8a0500c    ...P    STMCS    r0!,{r2,r3,r12,lr}
        0x0000c258:    bf48        H.      IT       MI
        0x0000c25a:    c00c        ..      STMMI    r0!,{r2,r3}
        0x0000c25c:    f85deb04    ]...    POP      {lr}
        0x0000c260:    0089        ..      LSLS     r1,r1,#2
        0x0000c262:    bf28        (.      IT       CS
        0x0000c264:    f8402b04    @..+    STRCS    r2,[r0],#4
        0x0000c268:    bf08        ..      IT       EQ
        0x0000c26a:    4770        pG      BXEQ     lr
        0x0000c26c:    bf48        H.      IT       MI
        0x0000c26e:    f8202b02     ..+    STRHMI   r2,[r0],#2
        0x0000c272:    f0114f80    ...O    TST      r1,#0x40000000
        0x0000c276:    bf18        ..      IT       NE
        0x0000c278:    f8002b01    ...+    STRBNE   r2,[r0],#1
        0x0000c27c:    4770        pG      BX       lr
    .text
    __use_two_region_memory
        0x0000c27e:    4770        pG      BX       lr
    __rt_heap_escrow$2region
        0x0000c280:    4770        pG      BX       lr
    __rt_heap_expand$2region
        0x0000c282:    4770        pG      BX       lr
    .text
    __user_setup_stackheap
        0x0000c284:    4675        uF      MOV      r5,lr
        0x0000c286:    f000f82b    ..+.    BL       __user_libspace ; 0xc2e0
        0x0000c28a:    46ae        .F      MOV      lr,r5
        0x0000c28c:    0005        ..      MOVS     r5,r0
        0x0000c28e:    4669        iF      MOV      r1,sp
        0x0000c290:    4653        SF      MOV      r3,r10
        0x0000c292:    f0200007     ...    BIC      r0,r0,#7
        0x0000c296:    4685        .F      MOV      sp,r0
        0x0000c298:    b018        ..      ADD      sp,sp,#0x60
        0x0000c29a:    b520         .      PUSH     {r5,lr}
        0x0000c29c:    f7ffff9a    ....    BL       __user_initial_stackheap ; 0xc1d4
        0x0000c2a0:    e8bd4020    .. @    POP      {r5,lr}
        0x0000c2a4:    f04f0600    O...    MOV      r6,#0
        0x0000c2a8:    f04f0700    O...    MOV      r7,#0
        0x0000c2ac:    f04f0800    O...    MOV      r8,#0
        0x0000c2b0:    f04f0b00    O...    MOV      r11,#0
        0x0000c2b4:    46ac        .F      MOV      r12,r5
        0x0000c2b6:    e8ac09c0    ....    STM      r12!,{r6-r8,r11}
        0x0000c2ba:    e8ac09c0    ....    STM      r12!,{r6-r8,r11}
        0x0000c2be:    e8ac09c0    ....    STM      r12!,{r6-r8,r11}
        0x0000c2c2:    e8ac09c0    ....    STM      r12!,{r6-r8,r11}
        0x0000c2c6:    f0210107    !...    BIC      r1,r1,#7
        0x0000c2ca:    468d        .F      MOV      sp,r1
        0x0000c2cc:    4770        pG      BX       lr
    .text
    exit
        0x0000c2ce:    b510        ..      PUSH     {r4,lr}
        0x0000c2d0:    4604        .F      MOV      r4,r0
        0x0000c2d2:    f3af8000    ....    NOP.W    
        0x0000c2d6:    4620         F      MOV      r0,r4
        0x0000c2d8:    e8bd4010    ...@    POP      {r4,lr}
        0x0000c2dc:    f7ffbf73    ..s.    B.W      __rt_exit ; 0xc1c6
    .text
    __user_libspace
    __user_perproc_libspace
    __user_perthread_libspace
        0x0000c2e0:    4800        .H      LDR      r0,[pc,#0] ; [0xc2e4] = 0x10001038
        0x0000c2e2:    4770        pG      BX       lr
    $d
        0x0000c2e4:    10001038    8...    DCD    268439608
    $t
    .text
    _sys_exit
        0x0000c2e8:    4901        .I      LDR      r1,[pc,#4] ; [0xc2f0] = 0x20026
        0x0000c2ea:    2018        .       MOVS     r0,#0x18
        0x0000c2ec:    beab        ..      BKPT     #0xab
        0x0000c2ee:    e7fe        ..      B        0xc2ee ; _sys_exit + 6
    $d
        0x0000c2f0:    00020026    &...    DCD    131110
    $t
    .text
    __I$use$semihosting
    __use_no_semihosting_swi
        0x0000c2f4:    4770        pG      BX       lr
    $t.0
    .text
    HardFault_Handler
    __semihosting_library_function
        0x0000c2f6:    b501        ..      PUSH     {r0,lr}
        0x0000c2f8:    f01e0f04    ....    TST      lr,#4
        0x0000c2fc:    bf0a        ..      ITET     EQ
        0x0000c2fe:    f3ef8008    ....    MRSEQ    r0,MSP
        0x0000c302:    f3ef8009    ....    MRSNE    r0,PSP
        0x0000c306:    f1100008    ....    ADDSEQ   r0,r0,#8
        0x0000c30a:    f001fac7    ....    BL       am_util_faultisr_collect_data ; 0xd89c
        0x0000c30e:    bd01        ..      POP      {r0,pc}
    SysTick_Handler
        0x0000c310:    f241608c    A..`    MOV      r0,#0x168c
        0x0000c314:    f2c10000    ....    MOVT     r0,#0x1000
        0x0000c318:    6801        .h      LDR      r1,[r0,#0]
        0x0000c31a:    3101        .1      ADDS     r1,#1
        0x0000c31c:    6001        .`      STR      r1,[r0,#0]
        0x0000c31e:    4770        pG      BX       lr
    am_bsp_low_power_init
        0x0000c320:    b5f0        ..      PUSH     {r4-r7,lr}
        0x0000c322:    b081        ..      SUB      sp,sp,#4
        0x0000c324:    f000fdb1    ....    BL       am_hal_pwrctrl_low_power_init ; 0xce8a
        0x0000c328:    f000ff6a    ..j.    BL       am_hal_rtc_osc_disable ; 0xd200
        0x0000c32c:    f24040b8    @..@    MOVW     r0,#0x4b8
        0x0000c330:    f2c00001    ....    MOVT     r0,#1
        0x0000c334:    6804        .h      LDR      r4,[r0,#0]
        0x0000c336:    f2400700    @...    MOVW     r7,#0
        0x0000c33a:    2600        .&      MOVS     r6,#0
        0x0000c33c:    f2c10700    ....    MOVT     r7,#0x1000
        0x0000c340:    f8575036    W.6P    LDR      r5,[r7,r6,LSL #3]
        0x0000c344:    4621        !F      MOV      r1,r4
        0x0000c346:    4628        (F      MOV      r0,r5
        0x0000c348:    f000fb66    ..f.    BL       am_hal_gpio_pinconfig ; 0xca18
        0x0000c34c:    4628        (F      MOV      r0,r5
        0x0000c34e:    2103        .!      MOVS     r1,#3
        0x0000c350:    f000fc8e    ....    BL       am_hal_gpio_state_write ; 0xcc70
        0x0000c354:    4628        (F      MOV      r0,r5
        0x0000c356:    2100        .!      MOVS     r1,#0
        0x0000c358:    f000fc8a    ....    BL       am_hal_gpio_state_write ; 0xcc70
        0x0000c35c:    3601        .6      ADDS     r6,#1
        0x0000c35e:    2e05        ..      CMP      r6,#5
        0x0000c360:    d1ee        ..      BNE      0xc340 ; am_bsp_low_power_init + 32
        0x0000c362:    b001        ..      ADD      sp,sp,#4
        0x0000c364:    bdf0        ..      POP      {r4-r7,pc}
    am_bsp_uart_printf_disable
        0x0000c366:    b510        ..      PUSH     {r4,lr}
        0x0000c368:    f2416484    A..d    MOV      r4,#0x1684
        0x0000c36c:    f2c10400    ....    MOVT     r4,#0x1000
        0x0000c370:    6820         h      LDR      r0,[r4,#0]
        0x0000c372:    f001f9f3    ....    BL       am_hal_uart_tx_flush ; 0xd75c
        0x0000c376:    2000        .       MOVS     r0,#0
        0x0000c378:    f001fb08    ....    BL       am_util_stdio_printf_init ; 0xd98c
        0x0000c37c:    6820         h      LDR      r0,[r4,#0]
        0x0000c37e:    2102        .!      MOVS     r1,#2
        0x0000c380:    2200        ."      MOVS     r2,#0
        0x0000c382:    f001f8eb    ....    BL       am_hal_uart_power_control ; 0xd55c
        0x0000c386:    6820         h      LDR      r0,[r4,#0]
        0x0000c388:    f001f8aa    ....    BL       am_hal_uart_deinitialize ; 0xd4e0
        0x0000c38c:    f24040b4    @..@    MOV      r0,#0x4b4
        0x0000c390:    f2c00001    ....    MOVT     r0,#1
        0x0000c394:    6804        .h      LDR      r4,[r0,#0]
        0x0000c396:    2016        .       MOVS     r0,#0x16
        0x0000c398:    4621        !F      MOV      r1,r4
        0x0000c39a:    f000fb3d    ..=.    BL       am_hal_gpio_pinconfig ; 0xca18
        0x0000c39e:    2017        .       MOVS     r0,#0x17
        0x0000c3a0:    4621        !F      MOV      r1,r4
        0x0000c3a2:    e8bd4010    ...@    POP      {r4,lr}
        0x0000c3a6:    f000bb37    ..7.    B.W      am_hal_gpio_pinconfig ; 0xca18
    am_bsp_uart_printf_enable
        0x0000c3aa:    b510        ..      PUSH     {r4,lr}
        0x0000c3ac:    f2416088    A..`    MOV      r0,#0x1688
        0x0000c3b0:    f2416484    A..d    MOV      r4,#0x1684
        0x0000c3b4:    f2c10000    ....    MOVT     r0,#0x1000
        0x0000c3b8:    2102        .!      MOVS     r1,#2
        0x0000c3ba:    f2c10400    ....    MOVT     r4,#0x1000
        0x0000c3be:    6001        .`      STR      r1,[r0,#0]
        0x0000c3c0:    2000        .       MOVS     r0,#0
        0x0000c3c2:    4621        !F      MOV      r1,r4
        0x0000c3c4:    f001f8a0    ....    BL       am_hal_uart_initialize ; 0xd508
        0x0000c3c8:    6820         h      LDR      r0,[r4,#0]
        0x0000c3ca:    2100        .!      MOVS     r1,#0
        0x0000c3cc:    2200        ."      MOVS     r2,#0
        0x0000c3ce:    f001f8c5    ....    BL       am_hal_uart_power_control ; 0xd55c
        0x0000c3d2:    6820         h      LDR      r0,[r4,#0]
        0x0000c3d4:    f2405140    @.@Q    MOVW     r1,#0x540
        0x0000c3d8:    f2c00101    ....    MOVT     r1,#1
        0x0000c3dc:    f000ff6c    ..l.    BL       am_hal_uart_configure ; 0xd2b8
        0x0000c3e0:    f24040b0    @..@    MOVW     r0,#0x4b0
        0x0000c3e4:    f2c00001    ....    MOVT     r0,#1
        0x0000c3e8:    6801        .h      LDR      r1,[r0,#0]
        0x0000c3ea:    2016        .       MOVS     r0,#0x16
        0x0000c3ec:    f000fb14    ....    BL       am_hal_gpio_pinconfig ; 0xca18
        0x0000c3f0:    f24040ac    @..@    MOV      r0,#0x4ac
        0x0000c3f4:    f2c00001    ....    MOVT     r0,#1
        0x0000c3f8:    6801        .h      LDR      r1,[r0,#0]
        0x0000c3fa:    2017        .       MOVS     r0,#0x17
        0x0000c3fc:    f000fb0c    ....    BL       am_hal_gpio_pinconfig ; 0xca18
        0x0000c400:    f24c4011    L..@    MOV      r0,#0xc411
        0x0000c404:    f2c00000    ....    MOVT     r0,#0
        0x0000c408:    e8bd4010    ...@    POP      {r4,lr}
        0x0000c40c:    f001babe    ....    B.W      am_util_stdio_printf_init ; 0xd98c
    am_bsp_uart_string_print
        0x0000c410:    b510        ..      PUSH     {r4,lr}
        0x0000c412:    b086        ..      SUB      sp,sp,#0x18
        0x0000c414:    2400        .$      MOVS     r4,#0
        0x0000c416:    9405        ..      STR      r4,[sp,#0x14]
        0x0000c418:    5d01        .]      LDRB     r1,[r0,r4]
        0x0000c41a:    3401        .4      ADDS     r4,#1
        0x0000c41c:    2900        .)      CMP      r1,#0
        0x0000c41e:    d1fb        ..      BNE      0xc418 ; am_bsp_uart_string_print + 8
        0x0000c420:    2100        .!      MOVS     r1,#0
        0x0000c422:    e9cd1000    ....    STRD     r1,r0,[sp,#0]
        0x0000c426:    1e60        `.      SUBS     r0,r4,#1
        0x0000c428:    9002        ..      STR      r0,[sp,#8]
        0x0000c42a:    f04f30ff    O..0    MOV      r0,#0xffffffff
        0x0000c42e:    9003        ..      STR      r0,[sp,#0xc]
        0x0000c430:    f2416084    A..`    MOV      r0,#0x1684
        0x0000c434:    f2c10000    ....    MOVT     r0,#0x1000
        0x0000c438:    a905        ..      ADD      r1,sp,#0x14
        0x0000c43a:    6800        .h      LDR      r0,[r0,#0]
        0x0000c43c:    9104        ..      STR      r1,[sp,#0x10]
        0x0000c43e:    4669        iF      MOV      r1,sp
        0x0000c440:    f001f902    ....    BL       am_hal_uart_transfer ; 0xd648
        0x0000c444:    9805        ..      LDR      r0,[sp,#0x14]
        0x0000c446:    3001        .0      ADDS     r0,#1
        0x0000c448:    42a0        .B      CMP      r0,r4
        0x0000c44a:    bf04        ..      ITT      EQ
        0x0000c44c:    b006        ..      ADDEQ    sp,sp,#0x18
        0x0000c44e:    bd10        ..      POPEQ    {r4,pc}
        0x0000c450:    e7fe        ..      B        0xc450 ; am_bsp_uart_string_print + 64
        0x0000c452:    0000        ..      MOVS     r0,r0
    am_devices_led_array_init
        0x0000c454:    b570        p.      PUSH     {r4-r6,lr}
        0x0000c456:    460c        .F      MOV      r4,r1
        0x0000c458:    3901        .9      SUBS     r1,#1
        0x0000c45a:    291e        .)      CMP      r1,#0x1e
        0x0000c45c:    d80c        ..      BHI      0xc478 ; am_devices_led_array_init + 36
        0x0000c45e:    4605        .F      MOV      r5,r0
        0x0000c460:    2800        .(      CMP      r0,#0
        0x0000c462:    bf08        ..      IT       EQ
        0x0000c464:    bd70        p.      POPEQ    {r4-r6,pc}
        0x0000c466:    2600        .&      MOVS     r6,#0
        0x0000c468:    4628        (F      MOV      r0,r5
        0x0000c46a:    f000f822    ..".    BL       am_devices_led_init ; 0xc4b2
        0x0000c46e:    3601        .6      ADDS     r6,#1
        0x0000c470:    42a6        .B      CMP      r6,r4
        0x0000c472:    f1050508    ....    ADD      r5,r5,#8
        0x0000c476:    d3f7        ..      BCC      0xc468 ; am_devices_led_array_init + 20
        0x0000c478:    bd70        p.      POP      {r4-r6,pc}
        0x0000c47a:    0000        ..      MOVS     r0,r0
    am_devices_led_array_out
        0x0000c47c:    b5f0        ..      PUSH     {r4-r7,lr}
        0x0000c47e:    b081        ..      SUB      sp,sp,#4
        0x0000c480:    b1a9        ..      CBZ      r1,0xc4ae ; am_devices_led_array_out + 50
        0x0000c482:    4614        .F      MOV      r4,r2
        0x0000c484:    460d        .F      MOV      r5,r1
        0x0000c486:    4606        .F      MOV      r6,r0
        0x0000c488:    2700        .'      MOVS     r7,#0
        0x0000c48a:    bf00        ..      NOP      
        0x0000c48c:    fa24f007    $...    LSR      r0,r4,r7
        0x0000c490:    07c0        ..      LSLS     r0,r0,#31
        0x0000c492:    d005        ..      BEQ      0xc4a0 ; am_devices_led_array_out + 36
        0x0000c494:    4630        0F      MOV      r0,r6
        0x0000c496:    4639        9F      MOV      r1,r7
        0x0000c498:    f000f840    ..@.    BL       am_devices_led_on ; 0xc51c
        0x0000c49c:    e004        ..      B        0xc4a8 ; am_devices_led_array_out + 44
        0x0000c49e:    bf00        ..      NOP      
        0x0000c4a0:    4630        0F      MOV      r0,r6
        0x0000c4a2:    4639        9F      MOV      r1,r7
        0x0000c4a4:    f000f826    ..&.    BL       am_devices_led_off ; 0xc4f4
        0x0000c4a8:    3701        .7      ADDS     r7,#1
        0x0000c4aa:    42bd        .B      CMP      r5,r7
        0x0000c4ac:    d1ee        ..      BNE      0xc48c ; am_devices_led_array_out + 16
        0x0000c4ae:    b001        ..      ADD      sp,sp,#4
        0x0000c4b0:    bdf0        ..      POP      {r4-r7,pc}
    am_devices_led_init
        0x0000c4b2:    b510        ..      PUSH     {r4,lr}
        0x0000c4b4:    b118        ..      CBZ      r0,0xc4be ; am_devices_led_init + 12
        0x0000c4b6:    4604        .F      MOV      r4,r0
        0x0000c4b8:    6800        .h      LDR      r0,[r0,#0]
        0x0000c4ba:    2831        1(      CMP      r0,#0x31
        0x0000c4bc:    d900        ..      BLS      0xc4c0 ; am_devices_led_init + 14
        0x0000c4be:    bd10        ..      POP      {r4,pc}
        0x0000c4c0:    7921        !y      LDRB     r1,[r4,#4]
        0x0000c4c2:    0789        ..      LSLS     r1,r1,#30
        0x0000c4c4:    bf47        G.      ITTEE    MI
        0x0000c4c6:    f24041b8    @..A    MOVWMI   r1,#0x4b8
        0x0000c4ca:    f2c00101    ....    MOVTMI   r1,#1
        0x0000c4ce:    f24041bc    @..A    MOVPL    r1,#0x4bc
        0x0000c4d2:    f2c00101    ....    MOVTPL   r1,#1
        0x0000c4d6:    6809        .h      LDR      r1,[r1,#0]
        0x0000c4d8:    f000fa9e    ....    BL       am_hal_gpio_pinconfig ; 0xca18
        0x0000c4dc:    6820         h      LDR      r0,[r4,#0]
        0x0000c4de:    2103        .!      MOVS     r1,#3
        0x0000c4e0:    f000fbc6    ....    BL       am_hal_gpio_state_write ; 0xcc70
        0x0000c4e4:    6861        ah      LDR      r1,[r4,#4]
        0x0000c4e6:    6820         h      LDR      r0,[r4,#0]
        0x0000c4e8:    f0010101    ....    AND      r1,r1,#1
        0x0000c4ec:    e8bd4010    ...@    POP      {r4,lr}
        0x0000c4f0:    f000bbbe    ....    B.W      am_hal_gpio_state_write ; 0xcc70
    am_devices_led_off
        0x0000c4f4:    b130        0.      CBZ      r0,0xc504 ; am_devices_led_off + 16
        0x0000c4f6:    291e        .)      CMP      r1,#0x1e
        0x0000c4f8:    d804        ..      BHI      0xc504 ; am_devices_led_off + 16
        0x0000c4fa:    4602        .F      MOV      r2,r0
        0x0000c4fc:    f8500031    P.1.    LDR      r0,[r0,r1,LSL #3]
        0x0000c500:    2831        1(      CMP      r0,#0x31
        0x0000c502:    d900        ..      BLS      0xc506 ; am_devices_led_off + 18
        0x0000c504:    4770        pG      BX       lr
        0x0000c506:    eb0201c1    ....    ADD      r1,r2,r1,LSL #3
        0x0000c50a:    6849        Ih      LDR      r1,[r1,#4]
        0x0000c50c:    078a        ..      LSLS     r2,r1,#30
        0x0000c50e:    bf52        R.      ITEE     PL
        0x0000c510:    2103        .!      MOVPL    r1,#3
        0x0000c512:    2201        ."      MOVMI    r2,#1
        0x0000c514:    ea220101    "...    BICMI    r1,r2,r1
        0x0000c518:    f000bbaa    ....    B.W      am_hal_gpio_state_write ; 0xcc70
    am_devices_led_on
        0x0000c51c:    b130        0.      CBZ      r0,0xc52c ; am_devices_led_on + 16
        0x0000c51e:    291e        .)      CMP      r1,#0x1e
        0x0000c520:    d804        ..      BHI      0xc52c ; am_devices_led_on + 16
        0x0000c522:    4602        .F      MOV      r2,r0
        0x0000c524:    f8500031    P.1.    LDR      r0,[r0,r1,LSL #3]
        0x0000c528:    2831        1(      CMP      r0,#0x31
        0x0000c52a:    d900        ..      BLS      0xc52e ; am_devices_led_on + 18
        0x0000c52c:    4770        pG      BX       lr
        0x0000c52e:    eb0201c1    ....    ADD      r1,r2,r1,LSL #3
        0x0000c532:    6849        Ih      LDR      r1,[r1,#4]
        0x0000c534:    078a        ..      LSLS     r2,r1,#30
        0x0000c536:    bf4c        L.      ITE      MI
        0x0000c538:    f0010101    ....    ANDMI    r1,r1,#1
        0x0000c53c:    2104        .!      MOVPL    r1,#4
        0x0000c53e:    f000bb97    ....    B.W      am_hal_gpio_state_write ; 0xcc70
    am_hal_burst_mode_enable
        0x0000c542:    b570        p.      PUSH     {r4-r6,lr}
        0x0000c544:    b082        ..      SUB      sp,sp,#8
        0x0000c546:    f24141a8    A..A    MOV      r1,#0x14a8
        0x0000c54a:    f2c10100    ....    MOVT     r1,#0x1000
        0x0000c54e:    7809        .x      LDRB     r1,[r1,#0]
        0x0000c550:    4604        .F      MOV      r4,r0
        0x0000c552:    f04f0601    O...    MOV      r6,#1
        0x0000c556:    b1b1        ..      CBZ      r1,0xc586 ; am_hal_burst_mode_enable + 68
        0x0000c558:    f2440534    D.4.    MOV      r5,#0x4034
        0x0000c55c:    f2c40500    ....    MOVT     r5,#0x4000
        0x0000c560:    6828        (h      LDR      r0,[r5,#0]
        0x0000c562:    4629        )F      MOV      r1,r5
        0x0000c564:    f0400001    @...    ORR      r0,r0,#1
        0x0000c568:    6028        (`      STR      r0,[r5,#0]
        0x0000c56a:    f2427010    B..p    MOV      r0,#0x2710
        0x0000c56e:    2204        ."      MOVS     r2,#4
        0x0000c570:    2304        .#      MOVS     r3,#4
        0x0000c572:    9600        ..      STR      r6,[sp,#0]
        0x0000c574:    f000fa02    ....    BL       am_hal_flash_delay_status_check ; 0xc97c
        0x0000c578:    b958        X.      CBNZ     r0,0xc592 ; am_hal_burst_mode_enable + 80
        0x0000c57a:    6828        (h      LDR      r0,[r5,#0]
        0x0000c57c:    2601        .&      MOVS     r6,#1
        0x0000c57e:    0780        ..      LSLS     r0,r0,#30
        0x0000c580:    d403        ..      BMI      0xc58a ; am_hal_burst_mode_enable + 72
        0x0000c582:    2001        .       MOVS     r0,#1
        0x0000c584:    e005        ..      B        0xc592 ; am_hal_burst_mode_enable + 80
        0x0000c586:    2007        .       MOVS     r0,#7
        0x0000c588:    e003        ..      B        0xc592 ; am_hal_burst_mode_enable + 80
        0x0000c58a:    6828        (h      LDR      r0,[r5,#0]
        0x0000c58c:    ea260690    &...    BIC      r6,r6,r0,LSR #2
        0x0000c590:    2000        .       MOVS     r0,#0
        0x0000c592:    7026        &p      STRB     r6,[r4,#0]
        0x0000c594:    b002        ..      ADD      sp,sp,#8
        0x0000c596:    bd70        p.      POP      {r4-r6,pc}
    am_hal_burst_mode_initialize
        0x0000c598:    b570        p.      PUSH     {r4-r6,lr}
        0x0000c59a:    b082        ..      SUB      sp,sp,#8
        0x0000c59c:    2518        .%      MOVS     r5,#0x18
        0x0000c59e:    f2c40502    ....    MOVT     r5,#0x4002
        0x0000c5a2:    f8551c04    U...    LDR      r1,[r5,#-4]
        0x0000c5a6:    4604        .F      MOV      r4,r0
        0x0000c5a8:    07c8        ..      LSLS     r0,r1,#31
        0x0000c5aa:    f04f0601    O...    MOV      r6,#1
        0x0000c5ae:    d101        ..      BNE      0xc5b4 ; am_hal_burst_mode_initialize + 28
        0x0000c5b0:    2007        .       MOVS     r0,#7
        0x0000c5b2:    e014        ..      B        0xc5de ; am_hal_burst_mode_initialize + 70
        0x0000c5b4:    f2410028    A.(.    MOV      r0,#0x1028
        0x0000c5b8:    f2c40002    ....    MOVT     r0,#0x4002
        0x0000c5bc:    6801        .h      LDR      r1,[r0,#0]
        0x0000c5be:    2220         "      MOVS     r2,#0x20
        0x0000c5c0:    f0414100    A..A    ORR      r1,r1,#0x80000000
        0x0000c5c4:    6001        .`      STR      r1,[r0,#0]
        0x0000c5c6:    6828        (h      LDR      r0,[r5,#0]
        0x0000c5c8:    4629        )F      MOV      r1,r5
        0x0000c5ca:    f0400010    @...    ORR      r0,r0,#0x10
        0x0000c5ce:    6028        (`      STR      r0,[r5,#0]
        0x0000c5d0:    f2427010    B..p    MOV      r0,#0x2710
        0x0000c5d4:    2320         #      MOVS     r3,#0x20
        0x0000c5d6:    9600        ..      STR      r6,[sp,#0]
        0x0000c5d8:    f000f9d0    ....    BL       am_hal_flash_delay_status_check ; 0xc97c
        0x0000c5dc:    b140        @.      CBZ      r0,0xc5f0 ; am_hal_burst_mode_initialize + 88
        0x0000c5de:    2100        .!      MOVS     r1,#0
        0x0000c5e0:    f24142a8    A..B    MOV      r2,#0x14a8
        0x0000c5e4:    f2c10200    ....    MOVT     r2,#0x1000
        0x0000c5e8:    7011        .p      STRB     r1,[r2,#0]
        0x0000c5ea:    7026        &p      STRB     r6,[r4,#0]
        0x0000c5ec:    b002        ..      ADD      sp,sp,#8
        0x0000c5ee:    bd70        p.      POP      {r4-r6,pc}
        0x0000c5f0:    6828        (h      LDR      r0,[r5,#0]
        0x0000c5f2:    2601        .&      MOVS     r6,#1
        0x0000c5f4:    0640        @.      LSLS     r0,r0,#25
        0x0000c5f6:    f04f0100    O...    MOV      r1,#0
        0x0000c5fa:    d401        ..      BMI      0xc600 ; am_hal_burst_mode_initialize + 104
        0x0000c5fc:    2007        .       MOVS     r0,#7
        0x0000c5fe:    e7ef        ..      B        0xc5e0 ; am_hal_burst_mode_initialize + 72
        0x0000c600:    6828        (h      LDR      r0,[r5,#0]
        0x0000c602:    f0100220    .. .    ANDS     r2,r0,#0x20
        0x0000c606:    bf08        ..      IT       EQ
        0x0000c608:    2107        .!      MOVEQ    r1,#7
        0x0000c60a:    f3c01340    ..@.    UBFX     r3,r0,#5,#1
        0x0000c60e:    ea861652    ..R.    EOR      r6,r6,r2,LSR #5
        0x0000c612:    4608        .F      MOV      r0,r1
        0x0000c614:    4619        .F      MOV      r1,r3
        0x0000c616:    e7e3        ..      B        0xc5e0 ; am_hal_burst_mode_initialize + 72
    am_hal_cachectrl_config
        0x0000c618:    b5b0        ..      PUSH     {r4,r5,r7,lr}
        0x0000c61a:    b082        ..      SUB      sp,sp,#8
        0x0000c61c:    4604        .F      MOV      r4,r0
        0x0000c61e:    f000fb73    ..s.    BL       am_hal_interrupt_master_disable ; 0xcd08
        0x0000c622:    f2480500    H...    MOVW     r5,#0x8000
        0x0000c626:    9001        ..      STR      r0,[sp,#4]
        0x0000c628:    f2c40501    ....    MOVT     r5,#0x4001
        0x0000c62c:    6828        (h      LDR      r0,[r5,#0]
        0x0000c62e:    f4207040     .@p    BIC      r0,r0,#0x300
        0x0000c632:    6028        (`      STR      r0,[r5,#0]
        0x0000c634:    9801        ..      LDR      r0,[sp,#4]
        0x0000c636:    f000fb6f    ..o.    BL       am_hal_interrupt_master_set ; 0xcd18
        0x0000c63a:    78a1        .x      LDRB     r1,[r4,#2]
        0x0000c63c:    7820         x      LDRB     r0,[r4,#0]
        0x0000c63e:    7862        bx      LDRB     r2,[r4,#1]
        0x0000c640:    0049        I.      LSLS     r1,r1,#1
        0x0000c642:    b2c9        ..      UXTB     r1,r1
        0x0000c644:    f0020203    ....    AND      r2,r2,#3
        0x0000c648:    f3601107    `...    BFI      r1,r0,#4,#4
        0x0000c64c:    ea412002    A..     ORR      r0,r1,r2,LSL #8
        0x0000c650:    f4401080    @...    ORR      r0,r0,#0x100000
        0x0000c654:    f4406180    @..a    ORR      r1,r0,#0x400
        0x0000c658:    2000        .       MOVS     r0,#0
        0x0000c65a:    6029        )`      STR      r1,[r5,#0]
        0x0000c65c:    b002        ..      ADD      sp,sp,#8
        0x0000c65e:    bdb0        ..      POP      {r4,r5,r7,pc}
    am_hal_cachectrl_control
        0x0000c660:    b510        ..      PUSH     {r4,lr}
        0x0000c662:    b082        ..      SUB      sp,sp,#8
        0x0000c664:    1e42        B.      SUBS     r2,r0,#1
        0x0000c666:    2a10        .*      CMP      r2,#0x10
        0x0000c668:    f200807e    ..~.    BHI.W    0xc768 ; am_hal_cachectrl_control + 264
        0x0000c66c:    2001        .       MOVS     r0,#1
        0x0000c66e:    e8dff002    ....    TBB      [pc,r2]
    $d.4
        0x0000c672:    097e        ~.      DCW    2430
        0x0000c674:    1a181512    ....    DCD    437785874
        0x0000c678:    2f221f1c    .."/    DCD    790765340
        0x0000c67c:    604f483e    >HO`    DCD    1615808574
        0x0000c680:    00716a65    ejq.    DCD    7432805
    $t.5
        0x0000c684:    f2480000    H...    MOVW     r0,#0x8000
        0x0000c688:    f2c40001    ....    MOVT     r0,#0x4001
        0x0000c68c:    6800        .h      LDR      r0,[r0,#0]
        0x0000c68e:    01c0        ..      LSLS     r0,r0,#7
        0x0000c690:    d46c        l.      BMI      0xc76c ; am_hal_cachectrl_control + 268
        0x0000c692:    2407        .$      MOVS     r4,#7
        0x0000c694:    e071        q.      B        0xc77a ; am_hal_cachectrl_control + 282
        0x0000c696:    f44f6088    O..`    MOV      r0,#0x440
        0x0000c69a:    e068        h.      B        0xc76e ; am_hal_cachectrl_control + 270
        0x0000c69c:    f44f7008    O..p    MOV      r0,#0x220
        0x0000c6a0:    e065        e.      B        0xc76e ; am_hal_cachectrl_control + 270
        0x0000c6a2:    2040        @       MOVS     r0,#0x40
        0x0000c6a4:    e063        c.      B        0xc76e ; am_hal_cachectrl_control + 270
        0x0000c6a6:    2020                MOVS     r0,#0x20
        0x0000c6a8:    e061        a.      B        0xc76e ; am_hal_cachectrl_control + 270
        0x0000c6aa:    f44f6080    O..`    MOV      r0,#0x400
        0x0000c6ae:    e05e        ^.      B        0xc76e ; am_hal_cachectrl_control + 270
        0x0000c6b0:    f44f7000    O..p    MOV      r0,#0x200
        0x0000c6b4:    e05b        [.      B        0xc76e ; am_hal_cachectrl_control + 270
        0x0000c6b6:    f000fb27    ..'.    BL       am_hal_interrupt_master_disable ; 0xcd08
        0x0000c6ba:    9001        ..      STR      r0,[sp,#4]
        0x0000c6bc:    f2480000    H...    MOVW     r0,#0x8000
        0x0000c6c0:    f2c40001    ....    MOVT     r0,#0x4001
        0x0000c6c4:    6801        .h      LDR      r1,[r0,#0]
        0x0000c6c6:    f0417180    A..q    ORR      r1,r1,#0x1000000
        0x0000c6ca:    6001        .`      STR      r1,[r0,#0]
        0x0000c6cc:    9801        ..      LDR      r0,[sp,#4]
        0x0000c6ce:    e00b        ..      B        0xc6e8 ; am_hal_cachectrl_control + 136
        0x0000c6d0:    f000fb1a    ....    BL       am_hal_interrupt_master_disable ; 0xcd08
        0x0000c6d4:    9000        ..      STR      r0,[sp,#0]
        0x0000c6d6:    f2480000    H...    MOVW     r0,#0x8000
        0x0000c6da:    f2c40001    ....    MOVT     r0,#0x4001
        0x0000c6de:    6801        .h      LDR      r1,[r0,#0]
        0x0000c6e0:    f0217180    !..q    BIC      r1,r1,#0x1000000
        0x0000c6e4:    6001        .`      STR      r1,[r0,#0]
        0x0000c6e6:    9800        ..      LDR      r0,[sp,#0]
        0x0000c6e8:    f000fb16    ....    BL       am_hal_interrupt_master_set ; 0xcd18
        0x0000c6ec:    e044        D.      B        0xc778 ; am_hal_cachectrl_control + 280
        0x0000c6ee:    2000        .       MOVS     r0,#0
        0x0000c6f0:    f003f89e    ....    BL       set_LPMMODE ; 0xf830
        0x0000c6f4:    b360        `.      CBZ      r0,0xc750 ; am_hal_cachectrl_control + 240
        0x0000c6f6:    2007        .       MOVS     r0,#7
        0x0000c6f8:    f003f8dc    ....    BL       set_SEDELAY ; 0xf8b4
        0x0000c6fc:    b340        @.      CBZ      r0,0xc750 ; am_hal_cachectrl_control + 240
        0x0000c6fe:    2003        .       MOVS     r0,#3
        0x0000c700:    e023        #.      B        0xc74a ; am_hal_cachectrl_control + 234
        0x0000c702:    2001        .       MOVS     r0,#1
        0x0000c704:    2401        .$      MOVS     r4,#1
        0x0000c706:    f003f893    ....    BL       set_LPMMODE ; 0xf830
        0x0000c70a:    b3b0        ..      CBZ      r0,0xc77a ; am_hal_cachectrl_control + 282
        0x0000c70c:    2005        .       MOVS     r0,#5
        0x0000c70e:    e005        ..      B        0xc71c ; am_hal_cachectrl_control + 188
        0x0000c710:    2001        .       MOVS     r0,#1
        0x0000c712:    2401        .$      MOVS     r4,#1
        0x0000c714:    f003f88c    ....    BL       set_LPMMODE ; 0xf830
        0x0000c718:    b378        x.      CBZ      r0,0xc77a ; am_hal_cachectrl_control + 282
        0x0000c71a:    2006        .       MOVS     r0,#6
        0x0000c71c:    f003f8ca    ....    BL       set_SEDELAY ; 0xf8b4
        0x0000c720:    b1b0        ..      CBZ      r0,0xc750 ; am_hal_cachectrl_control + 240
        0x0000c722:    2001        .       MOVS     r0,#1
        0x0000c724:    2401        .$      MOVS     r4,#1
        0x0000c726:    f003f8a4    ....    BL       set_RDWAIT ; 0xf872
        0x0000c72a:    2800        .(      CMP      r0,#0
        0x0000c72c:    bf18        ..      IT       NE
        0x0000c72e:    2400        .$      MOVNE    r4,#0
        0x0000c730:    e023        #.      B        0xc77a ; am_hal_cachectrl_control + 282
        0x0000c732:    b1c9        ..      CBZ      r1,0xc768 ; am_hal_cachectrl_control + 264
        0x0000c734:    6808        .h      LDR      r0,[r1,#0]
        0x0000c736:    f003f87b    ..{.    BL       set_LPMMODE ; 0xf830
        0x0000c73a:    e008        ..      B        0xc74e ; am_hal_cachectrl_control + 238
        0x0000c73c:    b1a1        ..      CBZ      r1,0xc768 ; am_hal_cachectrl_control + 264
        0x0000c73e:    6808        .h      LDR      r0,[r1,#0]
        0x0000c740:    f003f8b8    ....    BL       set_SEDELAY ; 0xf8b4
        0x0000c744:    e003        ..      B        0xc74e ; am_hal_cachectrl_control + 238
        0x0000c746:    b179        y.      CBZ      r1,0xc768 ; am_hal_cachectrl_control + 264
        0x0000c748:    6808        .h      LDR      r0,[r1,#0]
        0x0000c74a:    f003f892    ....    BL       set_RDWAIT ; 0xf872
        0x0000c74e:    b998        ..      CBNZ     r0,0xc778 ; am_hal_cachectrl_control + 280
        0x0000c750:    2401        .$      MOVS     r4,#1
        0x0000c752:    e012        ..      B        0xc77a ; am_hal_cachectrl_control + 282
        0x0000c754:    b141        A.      CBZ      r1,0xc768 ; am_hal_cachectrl_control + 264
        0x0000c756:    6848        Hh      LDR      r0,[r1,#4]
        0x0000c758:    220f        ."      MOVS     r2,#0xf
        0x0000c75a:    f6cf0200    ....    MOVT     r2,#0xf800
        0x0000c75e:    4210        .B      TST      r0,r2
        0x0000c760:    d102        ..      BNE      0xc768 ; am_hal_cachectrl_control + 264
        0x0000c762:    688b        .h      LDR      r3,[r1,#8]
        0x0000c764:    4213        .B      TST      r3,r2
        0x0000c766:    d00b        ..      BEQ      0xc780 ; am_hal_cachectrl_control + 288
        0x0000c768:    2406        .$      MOVS     r4,#6
        0x0000c76a:    e006        ..      B        0xc77a ; am_hal_cachectrl_control + 282
        0x0000c76c:    2002        .       MOVS     r0,#2
        0x0000c76e:    f2480100    H...    MOVW     r1,#0x8000
        0x0000c772:    f2c40101    ....    MOVT     r1,#0x4001
        0x0000c776:    6088        .`      STR      r0,[r1,#8]
        0x0000c778:    2400        .$      MOVS     r4,#0
        0x0000c77a:    4620         F      MOV      r0,r4
        0x0000c77c:    b002        ..      ADD      sp,sp,#8
        0x0000c77e:    bd10        ..      POP      {r4,pc}
        0x0000c780:    780a        .x      LDRB     r2,[r1,#0]
        0x0000c782:    2a01        .*      CMP      r2,#1
        0x0000c784:    d011        ..      BEQ      0xc7aa ; am_hal_cachectrl_control + 330
        0x0000c786:    2a00        .*      CMP      r2,#0
        0x0000c788:    d1ee        ..      BNE      0xc768 ; am_hal_cachectrl_control + 264
        0x0000c78a:    f2480200    H...    MOVW     r2,#0x8000
        0x0000c78e:    f2c40201    ....    MOVT     r2,#0x4001
        0x0000c792:    6110        .a      STR      r0,[r2,#0x10]
        0x0000c794:    6888        .h      LDR      r0,[r1,#8]
        0x0000c796:    6150        Pa      STR      r0,[r2,#0x14]
        0x0000c798:    7848        Hx      LDRB     r0,[r1,#1]
        0x0000c79a:    6811        .h      LDR      r1,[r2,#0]
        0x0000c79c:    f000003f    ..?.    AND      r0,r0,#0x3f
        0x0000c7a0:    f0210104    !...    BIC      r1,r1,#4
        0x0000c7a4:    ea410080    A...    ORR      r0,r1,r0,LSL #2
        0x0000c7a8:    e00e        ..      B        0xc7c8 ; am_hal_cachectrl_control + 360
        0x0000c7aa:    f2480200    H...    MOVW     r2,#0x8000
        0x0000c7ae:    f2c40201    ....    MOVT     r2,#0x4001
        0x0000c7b2:    6190        .a      STR      r0,[r2,#0x18]
        0x0000c7b4:    6888        .h      LDR      r0,[r1,#8]
        0x0000c7b6:    61d0        .a      STR      r0,[r2,#0x1c]
        0x0000c7b8:    7848        Hx      LDRB     r0,[r1,#1]
        0x0000c7ba:    6811        .h      LDR      r1,[r2,#0]
        0x0000c7bc:    f000001f    ....    AND      r0,r0,#0x1f
        0x0000c7c0:    f0210108    !...    BIC      r1,r1,#8
        0x0000c7c4:    ea4100c0    A...    ORR      r0,r1,r0,LSL #3
        0x0000c7c8:    6010        .`      STR      r0,[r2,#0]
        0x0000c7ca:    e7d5        ..      B        0xc778 ; am_hal_cachectrl_control + 280
    am_hal_cachectrl_enable
        0x0000c7cc:    f2480100    H...    MOVW     r1,#0x8000
        0x0000c7d0:    f2c40101    ....    MOVT     r1,#0x4001
        0x0000c7d4:    6808        .h      LDR      r0,[r1,#0]
        0x0000c7d6:    f0400201    @...    ORR      r2,r0,#1
        0x0000c7da:    2000        .       MOVS     r0,#0
        0x0000c7dc:    600a        .`      STR      r2,[r1,#0]
        0x0000c7de:    4770        pG      BX       lr
    am_hal_clkgen_control
        0x0000c7e0:    b510        ..      PUSH     {r4,lr}
        0x0000c7e2:    f24142a4    A..B    MOV      r2,#0x14a4
        0x0000c7e6:    f2c10200    ....    MOVT     r2,#0x1000
        0x0000c7ea:    6813        .h      LDR      r3,[r2,#0]
        0x0000c7ec:    460c        .F      MOV      r4,r1
        0x0000c7ee:    b92b        +.      CBNZ     r3,0xc7fc ; am_hal_clkgen_control + 28
        0x0000c7f0:    f24f0100    O...    MOVW     r1,#0xf000
        0x0000c7f4:    f6c471ff    ...q    MOVT     r1,#0x4fff
        0x0000c7f8:    6809        .h      LDR      r1,[r1,#0]
        0x0000c7fa:    6011        .`      STR      r1,[r2,#0]
        0x0000c7fc:    2809        .(      CMP      r0,#9
        0x0000c7fe:    d80f        ..      BHI      0xc820 ; am_hal_clkgen_control + 64
        0x0000c800:    e8dff000    ....    TBB      [pc,r0]
    $d.1
        0x0000c804:    20181005    ...     DCD    538447877
        0x0000c808:    544c4139    9ALT    DCD    1414283577
        0x0000c80c:    775e        ^w      DCW    30558
    $t.2
        0x0000c80e:    f244010c    D...    MOV      r1,#0x400c
        0x0000c812:    f2c40100    ....    MOVT     r1,#0x4000
        0x0000c816:    2047        G       MOVS     r0,#0x47
        0x0000c818:    6088        .`      STR      r0,[r1,#8]
        0x0000c81a:    2000        .       MOVS     r0,#0
        0x0000c81c:    60c8        .`      STR      r0,[r1,#0xc]
        0x0000c81e:    e03b        ;.      B        0xc898 ; am_hal_clkgen_control + 184
        0x0000c820:    2006        .       MOVS     r0,#6
        0x0000c822:    bd10        ..      POP      {r4,pc}
        0x0000c824:    f244000c    D...    MOV      r0,#0x400c
        0x0000c828:    f2c40000    ....    MOVT     r0,#0x4000
        0x0000c82c:    6801        .h      LDR      r1,[r0,#0]
        0x0000c82e:    f0210101    !...    BIC      r1,r1,#1
        0x0000c832:    e042        B.      B        0xc8ba ; am_hal_clkgen_control + 218
        0x0000c834:    f244000c    D...    MOV      r0,#0x400c
        0x0000c838:    f2c40000    ....    MOVT     r0,#0x4000
        0x0000c83c:    6801        .h      LDR      r1,[r0,#0]
        0x0000c83e:    f0210102    !...    BIC      r1,r1,#2
        0x0000c842:    e03a        :.      B        0xc8ba ; am_hal_clkgen_control + 218
        0x0000c844:    f2401020    @. .    MOVW     r0,#0x120
        0x0000c848:    f64f61ec    O..a    MOV      r1,#0xfeec
        0x0000c84c:    f2c40002    ....    MOVT     r0,#0x4002
        0x0000c850:    f6cf71ff    ...q    MOVT     r1,#0xffff
        0x0000c854:    5841        AX      LDR      r1,[r0,r1]
        0x0000c856:    b2c9        ..      UXTB     r1,r1
        0x0000c858:    2921        !)      CMP      r1,#0x21
        0x0000c85a:    d104        ..      BNE      0xc866 ; am_hal_clkgen_control + 134
        0x0000c85c:    6801        .h      LDR      r1,[r0,#0]
        0x0000c85e:    2201        ."      MOVS     r2,#1
        0x0000c860:    f3622109    b..!    BFI      r1,r2,#8,#2
        0x0000c864:    6001        .`      STR      r1,[r0,#0]
        0x0000c866:    f244000c    D...    MOV      r0,#0x400c
        0x0000c86a:    f2c40000    ....    MOVT     r0,#0x4000
        0x0000c86e:    6801        .h      LDR      r1,[r0,#0]
        0x0000c870:    f0410101    A...    ORR      r1,r1,#1
        0x0000c874:    e021        !.      B        0xc8ba ; am_hal_clkgen_control + 218
        0x0000c876:    f244000c    D...    MOV      r0,#0x400c
        0x0000c87a:    f2c40000    ....    MOVT     r0,#0x4000
        0x0000c87e:    6801        .h      LDR      r1,[r0,#0]
        0x0000c880:    f0410102    A...    ORR      r1,r1,#2
        0x0000c884:    e019        ..      B        0xc8ba ; am_hal_clkgen_control + 218
        0x0000c886:    f244010c    D...    MOV      r1,#0x400c
        0x0000c88a:    f2c40100    ....    MOVT     r1,#0x4000
        0x0000c88e:    2047        G       MOVS     r0,#0x47
        0x0000c890:    6088        .`      STR      r0,[r1,#8]
        0x0000c892:    2001        .       MOVS     r0,#1
        0x0000c894:    60c8        .`      STR      r0,[r1,#0xc]
        0x0000c896:    2000        .       MOVS     r0,#0
        0x0000c898:    6088        .`      STR      r0,[r1,#8]
        0x0000c89a:    bd10        ..      POP      {r4,pc}
        0x0000c89c:    f244000c    D...    MOV      r0,#0x400c
        0x0000c8a0:    f2c40000    ....    MOVT     r0,#0x4000
        0x0000c8a4:    6801        .h      LDR      r1,[r0,#0]
        0x0000c8a6:    f0210180    !...    BIC      r1,r1,#0x80
        0x0000c8aa:    e006        ..      B        0xc8ba ; am_hal_clkgen_control + 218
        0x0000c8ac:    f244000c    D...    MOV      r0,#0x400c
        0x0000c8b0:    f2c40000    ....    MOVT     r0,#0x4000
        0x0000c8b4:    6801        .h      LDR      r1,[r0,#0]
        0x0000c8b6:    f0410180    A...    ORR      r1,r1,#0x80
        0x0000c8ba:    6001        .`      STR      r1,[r0,#0]
        0x0000c8bc:    2000        .       MOVS     r0,#0
        0x0000c8be:    bd10        ..      POP      {r4,pc}
        0x0000c8c0:    f2401020    @. .    MOVW     r0,#0x120
        0x0000c8c4:    f64f61ec    O..a    MOV      r1,#0xfeec
        0x0000c8c8:    f2c40002    ....    MOVT     r0,#0x4002
        0x0000c8cc:    f6cf71ff    ...q    MOVT     r1,#0xffff
        0x0000c8d0:    5841        AX      LDR      r1,[r0,r1]
        0x0000c8d2:    b2c9        ..      UXTB     r1,r1
        0x0000c8d4:    2921        !)      CMP      r1,#0x21
        0x0000c8d6:    d107        ..      BNE      0xc8e8 ; am_hal_clkgen_control + 264
        0x0000c8d8:    6801        .h      LDR      r1,[r0,#0]
        0x0000c8da:    f4417140    A.@q    ORR      r1,r1,#0x300
        0x0000c8de:    6001        .`      STR      r1,[r0,#0]
        0x0000c8e0:    f44f507a    O.zP    MOV      r0,#0x3e80
        0x0000c8e4:    f000f834    ..4.    BL       am_hal_flash_delay ; 0xc950
        0x0000c8e8:    b164        d.      CBZ      r4,0xc904 ; am_hal_clkgen_control + 292
        0x0000c8ea:    6820         h      LDR      r0,[r4,#0]
        0x0000c8ec:    f0400001    @...    ORR      r0,r0,#1
        0x0000c8f0:    e00c        ..      B        0xc90c ; am_hal_clkgen_control + 300
        0x0000c8f2:    f244000c    D...    MOV      r0,#0x400c
        0x0000c8f6:    f2c40000    ....    MOVT     r0,#0x4000
        0x0000c8fa:    6941        Ai      LDR      r1,[r0,#0x14]
        0x0000c8fc:    f0210101    !...    BIC      r1,r1,#1
        0x0000c900:    6141        Aa      STR      r1,[r0,#0x14]
        0x0000c902:    e7db        ..      B        0xc8bc ; am_hal_clkgen_control + 220
        0x0000c904:    f64b0001    K...    MOV      r0,#0xb801
        0x0000c908:    f2c00025    ..%.    MOVT     r0,#0x25
        0x0000c90c:    f244010c    D...    MOV      r1,#0x400c
        0x0000c910:    f2c40100    ....    MOVT     r1,#0x4000
        0x0000c914:    6148        Ha      STR      r0,[r1,#0x14]
        0x0000c916:    e7d1        ..      B        0xc8bc ; am_hal_clkgen_control + 220
    am_hal_clkgen_status_get
        0x0000c918:    b1c0        ..      CBZ      r0,0xc94c ; am_hal_clkgen_status_get + 52
        0x0000c91a:    f2440118    D...    MOV      r1,#0x4018
        0x0000c91e:    f2c40100    ....    MOVT     r1,#0x4000
        0x0000c922:    680a        .h      LDR      r2,[r1,#0]
        0x0000c924:    07d2        ..      LSLS     r2,r2,#31
        0x0000c926:    f2436200    C..b    MOVW     r2,#0x3600
        0x0000c92a:    f2c0126e    ..n.    MOVT     r2,#0x16e
        0x0000c92e:    bf04        ..      ITT      EQ
        0x0000c930:    f6464200    F..B    MOVWEQ   r2,#0x6c00
        0x0000c934:    f2c022dc    ..."    MOVTEQ   r2,#0x2dc
        0x0000c938:    6002        .`      STR      r2,[r0,#0]
        0x0000c93a:    6849        Ih      LDR      r1,[r1,#4]
        0x0000c93c:    f0010201    ....    AND      r2,r1,#1
        0x0000c940:    f3c10140    ..@.    UBFX     r1,r1,#1,#1
        0x0000c944:    6042        B`      STR      r2,[r0,#4]
        0x0000c946:    7201        .r      STRB     r1,[r0,#8]
        0x0000c948:    2000        .       MOVS     r0,#0
        0x0000c94a:    4770        pG      BX       lr
        0x0000c94c:    2006        .       MOVS     r0,#6
        0x0000c94e:    4770        pG      BX       lr
    am_hal_flash_delay
        0x0000c950:    f2440134    D.4.    MOV      r1,#0x4034
        0x0000c954:    f2c40100    ....    MOVT     r1,#0x4000
        0x0000c958:    680a        .h      LDR      r2,[r1,#0]
        0x0000c95a:    f3c20180    ....    UBFX     r1,r2,#2,#1
        0x0000c95e:    4088        .@      LSLS     r0,r0,r1
        0x0000c960:    210e        .!      MOVS     r1,#0xe
        0x0000c962:    f0120f04    ....    TST      r2,#4
        0x0000c966:    bf08        ..      IT       EQ
        0x0000c968:    210b        .!      MOVEQ    r1,#0xb
        0x0000c96a:    4281        .B      CMP      r1,r0
        0x0000c96c:    bf28        (.      IT       CS
        0x0000c96e:    4770        pG      BXCS     lr
        0x0000c970:    1a40        @.      SUBS     r0,r0,r1
        0x0000c972:    219d        .!      MOVS     r1,#0x9d
        0x0000c974:    f6c00100    ....    MOVT     r1,#0x800
        0x0000c978:    4708        .G      BX       r1
        0x0000c97a:    0000        ..      MOVS     r0,r0
    am_hal_flash_delay_status_check
        0x0000c97c:    e92d4ff0    -..O    PUSH     {r4-r11,lr}
        0x0000c980:    b081        ..      SUB      sp,sp,#4
        0x0000c982:    f8dd8028    ..(.    LDR      r8,[sp,#0x28]
        0x0000c986:    f2440934    D.4.    MOV      r9,#0x4034
        0x0000c98a:    f2400b9d    @...    MOVW     r11,#0x9d
        0x0000c98e:    461c        .F      MOV      r4,r3
        0x0000c990:    4615        .F      MOV      r5,r2
        0x0000c992:    460e        .F      MOV      r6,r1
        0x0000c994:    4607        .F      MOV      r7,r0
        0x0000c996:    f2c40900    ....    MOVT     r9,#0x4000
        0x0000c99a:    f04f0a10    O...    MOV      r10,#0x10
        0x0000c99e:    f6c00b00    ....    MOVT     r11,#0x800
        0x0000c9a2:    bf00        ..      NOP      
        0x0000c9a4:    6830        0h      LDR      r0,[r6,#0]
        0x0000c9a6:    f1b80f00    ....    CMP      r8,#0
        0x0000c9aa:    ea000005    ....    AND      r0,r0,r5
        0x0000c9ae:    d003        ..      BEQ      0xc9b8 ; am_hal_flash_delay_status_check + 60
        0x0000c9b0:    42a0        .B      CMP      r0,r4
        0x0000c9b2:    d103        ..      BNE      0xc9bc ; am_hal_flash_delay_status_check + 64
        0x0000c9b4:    e014        ..      B        0xc9e0 ; am_hal_flash_delay_status_check + 100
        0x0000c9b6:    bf00        ..      NOP      
        0x0000c9b8:    42a0        .B      CMP      r0,r4
        0x0000c9ba:    d111        ..      BNE      0xc9e0 ; am_hal_flash_delay_status_check + 100
        0x0000c9bc:    b197        ..      CBZ      r7,0xc9e4 ; am_hal_flash_delay_status_check + 104
        0x0000c9be:    f8d90000    ....    LDR      r0,[r9,#0]
        0x0000c9c2:    3f01        .?      SUBS     r7,#1
        0x0000c9c4:    f3c00180    ....    UBFX     r1,r0,#2,#1
        0x0000c9c8:    f0100f04    ....    TST      r0,#4
        0x0000c9cc:    f06f000d    o...    MVN      r0,#0xd
        0x0000c9d0:    bf08        ..      IT       EQ
        0x0000c9d2:    f06f000a    o...    MVNEQ    r0,#0xa
        0x0000c9d6:    fa0af101    ....    LSL      r1,r10,r1
        0x0000c9da:    4408        .D      ADD      r0,r0,r1
        0x0000c9dc:    47d8        .G      BLX      r11
        0x0000c9de:    e7e1        ..      B        0xc9a4 ; am_hal_flash_delay_status_check + 40
        0x0000c9e0:    2000        .       MOVS     r0,#0
        0x0000c9e2:    e000        ..      B        0xc9e6 ; am_hal_flash_delay_status_check + 106
        0x0000c9e4:    2004        .       MOVS     r0,#4
        0x0000c9e6:    b001        ..      ADD      sp,sp,#4
        0x0000c9e8:    e8bd8ff0    ....    POP      {r4-r11,pc}
    am_hal_flash_load_ui32
        0x0000c9ec:    2175        u!      MOVS     r1,#0x75
        0x0000c9ee:    f6c00100    ....    MOVT     r1,#0x800
        0x0000c9f2:    4708        .G      BX       r1
    am_hal_flash_store_ui32
        0x0000c9f4:    b580        ..      PUSH     {r7,lr}
        0x0000c9f6:    b084        ..      SUB      sp,sp,#0x10
        0x0000c9f8:    f2402214    @.."    MOVW     r2,#0x214
        0x0000c9fc:    f2c00201    ....    MOVT     r2,#1
        0x0000ca00:    e9d23c00    ...<    LDRD     r3,r12,[r2,#0]
        0x0000ca04:    6892        .h      LDR      r2,[r2,#8]
        0x0000ca06:    e9cd3c01    ...<    STRD     r3,r12,[sp,#4]
        0x0000ca0a:    9203        ..      STR      r2,[sp,#0xc]
        0x0000ca0c:    aa01        ..      ADD      r2,sp,#4
        0x0000ca0e:    3201        .2      ADDS     r2,#1
        0x0000ca10:    4790        .G      BLX      r2
        0x0000ca12:    b004        ..      ADD      sp,sp,#0x10
        0x0000ca14:    bd80        ..      POP      {r7,pc}
        0x0000ca16:    0000        ..      MOVS     r0,r0
    am_hal_gpio_pinconfig
        0x0000ca18:    e92d4ff0    -..O    PUSH     {r4-r11,lr}
        0x0000ca1c:    b085        ..      SUB      sp,sp,#0x14
        0x0000ca1e:    2831        1(      CMP      r0,#0x31
        0x0000ca20:    d904        ..      BLS      0xca2c ; am_hal_gpio_pinconfig + 20
        0x0000ca22:    2506        .%      MOVS     r5,#6
        0x0000ca24:    4628        (F      MOV      r0,r5
        0x0000ca26:    b005        ..      ADD      sp,sp,#0x14
        0x0000ca28:    e8bd8ff0    ....    POP      {r4-r11,pc}
        0x0000ca2c:    b2ce        ..      UXTB     r6,r1
        0x0000ca2e:    4604        .F      MOV      r4,r0
        0x0000ca30:    f2401200    @...    MOVW     r2,#0x100
        0x0000ca34:    f0060307    ....    AND      r3,r6,#7
        0x0000ca38:    2000        .       MOVS     r0,#0
        0x0000ca3a:    f6c00200    ....    MOVT     r2,#0x800
        0x0000ca3e:    ebb01f56    ..V.    CMP      r0,r6,LSR #5
        0x0000ca42:    ea4f00c3    O...    LSL      r0,r3,#3
        0x0000ca46:    d01a        ..      BEQ      0xca7e ; am_hal_gpio_pinconfig + 102
        0x0000ca48:    0977        w.      LSRS     r7,r6,#5
        0x0000ca4a:    2ebf        ..      CMP      r6,#0xbf
        0x0000ca4c:    f0400001    @...    ORR      r0,r0,#1
        0x0000ca50:    d80a        ..      BHI      0xca68 ; am_hal_gpio_pinconfig + 80
        0x0000ca52:    2f01        ./      CMP      r7,#1
        0x0000ca54:    d008        ..      BEQ      0xca68 ; am_hal_gpio_pinconfig + 80
        0x0000ca56:    a66c        l.      ADR      r6,{pc}+0x1b2 ; 0xcc08
        0x0000ca58:    5d36        6]      LDRB     r6,[r6,r4]
        0x0000ca5a:    4615        .F      MOV      r5,r2
        0x0000ca5c:    07f6        ..      LSLS     r6,r6,#31
        0x0000ca5e:    d0e1        ..      BEQ      0xca24 ; am_hal_gpio_pinconfig + 12
        0x0000ca60:    ea401087    @...    ORR      r0,r0,r7,LSL #6
        0x0000ca64:    3880        .8      SUBS     r0,r0,#0x80
        0x0000ca66:    e00a        ..      B        0xca7e ; am_hal_gpio_pinconfig + 102
        0x0000ca68:    2f06        ./      CMP      r7,#6
        0x0000ca6a:    d103        ..      BNE      0xca74 ; am_hal_gpio_pinconfig + 92
        0x0000ca6c:    2c14        .,      CMP      r4,#0x14
        0x0000ca6e:    d006        ..      BEQ      0xca7e ; am_hal_gpio_pinconfig + 102
        0x0000ca70:    1c55        U.      ADDS     r5,r2,#1
        0x0000ca72:    e7d7        ..      B        0xca24 ; am_hal_gpio_pinconfig + 12
        0x0000ca74:    2c14        .,      CMP      r4,#0x14
        0x0000ca76:    d102        ..      BNE      0xca7e ; am_hal_gpio_pinconfig + 102
        0x0000ca78:    2f01        ./      CMP      r7,#1
        0x0000ca7a:    4615        .F      MOV      r5,r2
        0x0000ca7c:    d0d2        ..      BEQ      0xca24 ; am_hal_gpio_pinconfig + 12
        0x0000ca7e:    f3c107c1    ....    UBFX     r7,r1,#3,#2
        0x0000ca82:    b197        ..      CBZ      r7,0xcaaa ; am_hal_gpio_pinconfig + 146
        0x0000ca84:    2f02        ./      CMP      r7,#2
        0x0000ca86:    f1020502    ....    ADD      r5,r2,#2
        0x0000ca8a:    d008        ..      BEQ      0xca9e ; am_hal_gpio_pinconfig + 134
        0x0000ca8c:    2f01        ./      CMP      r7,#1
        0x0000ca8e:    d1c9        ..      BNE      0xca24 ; am_hal_gpio_pinconfig + 12
        0x0000ca90:    2c24        $,      CMP      r4,#0x24
        0x0000ca92:    d001        ..      BEQ      0xca98 ; am_hal_gpio_pinconfig + 128
        0x0000ca94:    2c03        .,      CMP      r4,#3
        0x0000ca96:    d1c5        ..      BNE      0xca24 ; am_hal_gpio_pinconfig + 12
        0x0000ca98:    f0400040    @.@.    ORR      r0,r0,#0x40
        0x0000ca9c:    e005        ..      B        0xcaaa ; am_hal_gpio_pinconfig + 146
        0x0000ca9e:    2c29        ),      CMP      r4,#0x29
        0x0000caa0:    d001        ..      BEQ      0xcaa6 ; am_hal_gpio_pinconfig + 142
        0x0000caa2:    2c25        %,      CMP      r4,#0x25
        0x0000caa4:    d1be        ..      BNE      0xca24 ; am_hal_gpio_pinconfig + 12
        0x0000caa6:    f0400080    @...    ORR      r0,r0,#0x80
        0x0000caaa:    f2405768    @.hW    MOVW     r7,#0x568
        0x0000caae:    f2c00701    ....    MOVT     r7,#1
        0x0000cab2:    5d3f        ?]      LDRB     r7,[r7,r4]
        0x0000cab4:    40df        .@      LSRS     r7,r7,r3
        0x0000cab6:    07ff        ..      LSLS     r7,r7,#31
        0x0000cab8:    a760        `.      ADR      r7,{pc}+0x184 ; 0xcc3c
        0x0000caba:    5d3f        ?]      LDRB     r7,[r7,r4]
        0x0000cabc:    bf18        ..      IT       NE
        0x0000cabe:    f0400002    @...    ORRNE    r0,r0,#2
        0x0000cac2:    429f        .B      CMP      r7,r3
        0x0000cac4:    d106        ..      BNE      0xcad4 ; am_hal_gpio_pinconfig + 188
        0x0000cac6:    0c0b        ..      LSRS     r3,r1,#16
        0x0000cac8:    f0030307    ....    AND      r3,r3,#7
        0x0000cacc:    2b07        .+      CMP      r3,#7
        0x0000cace:    d122        ".      BNE      0xcb16 ; am_hal_gpio_pinconfig + 254
        0x0000cad0:    1cd5        ..      ADDS     r5,r2,#3
        0x0000cad2:    e7a7        ..      B        0xca24 ; am_hal_gpio_pinconfig + 12
        0x0000cad4:    2202        ."      MOVS     r2,#2
        0x0000cad6:    ea0222d1    ..."    AND      r2,r2,r1,LSR #11
        0x0000cada:    4310        .C      ORRS     r0,r0,r2
        0x0000cadc:    2208        ."      MOVS     r2,#8
        0x0000cade:    f3c12381    ...#    UBFX     r3,r1,#10,#2
        0x0000cae2:    ea022291    ..."    AND      r2,r2,r1,LSR #10
        0x0000cae6:    ea420243    B.C.    ORR      r2,r2,r3,LSL #1
        0x0000caea:    3b01        .;      SUBS     r3,#1
        0x0000caec:    1ecf        ..      SUBS     r7,r1,#3
        0x0000caee:    fab3f383    ....    CLZ      r3,r3
        0x0000caf2:    fab7f787    ....    CLZ      r7,r7
        0x0000caf6:    095b        [.      LSRS     r3,r3,#5
        0x0000caf8:    097f        ..      LSRS     r7,r7,#5
        0x0000cafa:    433b        ;C      ORRS     r3,r3,r7
        0x0000cafc:    f4114fc0    ...O    TST      r1,#0x6000
        0x0000cb00:    9300        ..      STR      r3,[sp,#0]
        0x0000cb02:    bf07        ..      ITTEE    EQ
        0x0000cb04:    f3c133c0    ...3    UBFXEQ   r3,r1,#15,#1
        0x0000cb08:    ea420c03    B...    ORREQ    r12,r2,r3
        0x0000cb0c:    f3c13380    ...3    UBFXNE   r3,r1,#14,#1
        0x0000cb10:    eb020c03    ....    ADDNE    r12,r2,r3
        0x0000cb14:    e01b        ..      B        0xcb4e ; am_hal_gpio_pinconfig + 310
        0x0000cb16:    f3c147c1    ...G    UBFX     r7,r1,#19,#2
        0x0000cb1a:    ea471703    G...    ORR      r7,r7,r3,LSL #4
        0x0000cb1e:    f240539a    @..S    MOV      r3,#0x59a
        0x0000cb22:    f2c00301    ....    MOVT     r3,#1
        0x0000cb26:    eb030684    ....    ADD      r6,r3,r4,LSL #2
        0x0000cb2a:    2300        .#      MOVS     r3,#0
        0x0000cb2c:    7835        5x      LDRB     r5,[r6,#0]
        0x0000cb2e:    42af        .B      CMP      r7,r5
        0x0000cb30:    d006        ..      BEQ      0xcb40 ; am_hal_gpio_pinconfig + 296
        0x0000cb32:    3302        .3      ADDS     r3,#2
        0x0000cb34:    2b08        .+      CMP      r3,#8
        0x0000cb36:    f1060601    ....    ADD      r6,r6,#1
        0x0000cb3a:    d1f7        ..      BNE      0xcb2c ; am_hal_gpio_pinconfig + 276
        0x0000cb3c:    1d15        ..      ADDS     r5,r2,#4
        0x0000cb3e:    e771        q.      B        0xca24 ; am_hal_gpio_pinconfig + 12
        0x0000cb40:    2208        ."      MOVS     r2,#8
        0x0000cb42:    ea024291    ...B    AND      r2,r2,r1,LSR #18
        0x0000cb46:    ea430c02    C...    ORR      r12,r3,r2
        0x0000cb4a:    2200        ."      MOVS     r2,#0
        0x0000cb4c:    9200        ..      STR      r2,[sp,#0]
        0x0000cb4e:    0a09        ..      LSRS     r1,r1,#8
        0x0000cb50:    f0010103    ....    AND      r1,r1,#3
        0x0000cb54:    e8dff001    ....    TBB      [pc,r1]
    $d.1
        0x0000cb58:    06080209    ....    DCD    101188105
    $t.2
        0x0000cb5c:    f0400004    @...    ORR      r0,r0,#4
        0x0000cb60:    2100        .!      MOVS     r1,#0
        0x0000cb62:    e002        ..      B        0xcb6a ; am_hal_gpio_pinconfig + 338
        0x0000cb64:    f0400004    @...    ORR      r0,r0,#4
        0x0000cb68:    2101        .!      MOVS     r1,#1
        0x0000cb6a:    f06f0303    o...    MVN      r3,#3
        0x0000cb6e:    ea030a54    ..T.    AND      r10,r3,r4,LSR #1
        0x0000cb72:    231c        .#      MOVS     r3,#0x1c
        0x0000cb74:    2518        .%      MOVS     r5,#0x18
        0x0000cb76:    ea030384    ....    AND      r3,r3,r4,LSL #2
        0x0000cb7a:    ea0502c4    ....    AND      r2,r5,r4,LSL #3
        0x0000cb7e:    250f        .%      MOVS     r5,#0xf
        0x0000cb80:    409d        .@      LSLS     r5,r5,r3
        0x0000cb82:    43ed        .C      MVNS     r5,r5
        0x0000cb84:    2600        .&      MOVS     r6,#0
        0x0000cb86:    9503        ..      STR      r5,[sp,#0xc]
        0x0000cb88:    25ff        .%      MOVS     r5,#0xff
        0x0000cb8a:    fa00f802    ....    LSL      r8,r0,r2
        0x0000cb8e:    fa01f002    ....    LSL      r0,r1,r2
        0x0000cb92:    f2c40601    ....    MOVT     r6,#0x4001
        0x0000cb96:    4095        .@      LSLS     r5,r5,r2
        0x0000cb98:    9002        ..      STR      r0,[sp,#8]
        0x0000cb9a:    fa0cf003    ....    LSL      r0,r12,r3
        0x0000cb9e:    f1060b40    ..@.    ADD      r11,r6,#0x40
        0x0000cba2:    f0240703    $...    BIC      r7,r4,#3
        0x0000cba6:    f10609e0    ....    ADD      r9,r6,#0xe0
        0x0000cbaa:    43ed        .C      MVNS     r5,r5
        0x0000cbac:    9001        ..      STR      r0,[sp,#4]
        0x0000cbae:    f000f8ab    ....    BL       am_hal_interrupt_master_disable ; 0xcd08
        0x0000cbb2:    9900        ..      LDR      r1,[sp,#0]
        0x0000cbb4:    9004        ..      STR      r0,[sp,#0x10]
        0x0000cbb6:    b151        Q.      CBZ      r1,0xcbce ; am_hal_gpio_pinconfig + 438
        0x0000cbb8:    f004001f    ....    AND      r0,r4,#0x1f
        0x0000cbbc:    2101        .!      MOVS     r1,#1
        0x0000cbbe:    fa01f000    ....    LSL      r0,r1,r0
        0x0000cbc2:    f3c41140    ..@.    UBFX     r1,r4,#5,#1
        0x0000cbc6:    eb060181    ....    ADD      r1,r6,r1,LSL #2
        0x0000cbca:    f8c100b4    ....    STR      r0,[r1,#0xb4]
        0x0000cbce:    2073        s       MOVS     r0,#0x73
        0x0000cbd0:    6630        0f      STR      r0,[r6,#0x60]
        0x0000cbd2:    59f0        .Y      LDR      r0,[r6,r7]
        0x0000cbd4:    4028        (@      ANDS     r0,r0,r5
        0x0000cbd6:    ea400008    @...    ORR      r0,r0,r8
        0x0000cbda:    51f0        .Q      STR      r0,[r6,r7]
        0x0000cbdc:    f85a000b    Z...    LDR      r0,[r10,r11]
        0x0000cbe0:    9903        ..      LDR      r1,[sp,#0xc]
        0x0000cbe2:    4008        .@      ANDS     r0,r0,r1
        0x0000cbe4:    9901        ..      LDR      r1,[sp,#4]
        0x0000cbe6:    4308        .C      ORRS     r0,r0,r1
        0x0000cbe8:    f84a000b    J...    STR      r0,[r10,r11]
        0x0000cbec:    f8570009    W...    LDR      r0,[r7,r9]
        0x0000cbf0:    9902        ..      LDR      r1,[sp,#8]
        0x0000cbf2:    4028        (@      ANDS     r0,r0,r5
        0x0000cbf4:    4308        .C      ORRS     r0,r0,r1
        0x0000cbf6:    2500        .%      MOVS     r5,#0
        0x0000cbf8:    f8470009    G...    STR      r0,[r7,r9]
        0x0000cbfc:    6635        5f      STR      r5,[r6,#0x60]
        0x0000cbfe:    9804        ..      LDR      r0,[sp,#0x10]
        0x0000cc00:    f000f88a    ....    BL       am_hal_interrupt_master_set ; 0xcd18
        0x0000cc04:    e70e        ..      B        0xca24 ; am_hal_gpio_pinconfig + 12
        0x0000cc06:    bf00        ..      NOP      
    $d.3
    g_ui8Bit76Capabilities
        0x0000cc08:    02800101    ....    DCD    41943297
        0x0000cc0c:    80010180    ....    DCD    2147549568
        0x0000cc10:    80800101    ....    DCD    2155872513
        0x0000cc14:    80808080    ....    DCD    2155905152
        0x0000cc18:    80808080    ....    DCD    2155905152
        0x0000cc1c:    80808008    ....    DCD    2155905032
        0x0000cc20:    01800180    ....    DCD    25166208
        0x0000cc24:    80808080    ....    DCD    2155905152
        0x0000cc28:    80808080    ....    DCD    2155905152
        0x0000cc2c:    01800402    ....    DCD    25166850
        0x0000cc30:    01010401    ....    DCD    16843777
        0x0000cc34:    80808080    ....    DCD    2155905152
        0x0000cc38:    00000101    ....    DCD    257
    g_ui8nCEpins
        0x0000cc3c:    02070707    ....    DCD    34014983
        0x0000cc40:    00080802    ....    DCD    526338
        0x0000cc44:    01020202    ....    DCD    16908802
        0x0000cc48:    01010101    ....    DCD    16843009
        0x0000cc4c:    01010101    ....    DCD    16843009
        0x0000cc50:    01010101    ....    DCD    16843009
        0x0000cc54:    01010101    ....    DCD    16843009
        0x0000cc58:    01010101    ....    DCD    16843009
        0x0000cc5c:    01010101    ....    DCD    16843009
        0x0000cc60:    08010101    ....    DCD    134283521
        0x0000cc64:    01010008    ....    DCD    16842760
        0x0000cc68:    01010101    ....    DCD    16843009
        0x0000cc6c:    00000101    ....    DCD    257
    $t.7
    am_hal_gpio_state_write
        0x0000cc70:    b5b0        ..      PUSH     {r4,r5,r7,lr}
        0x0000cc72:    b082        ..      SUB      sp,sp,#8
        0x0000cc74:    2831        1(      CMP      r0,#0x31
        0x0000cc76:    d901        ..      BLS      0xcc7c ; am_hal_gpio_state_write + 12
        0x0000cc78:    2405        .$      MOVS     r4,#5
        0x0000cc7a:    e040        @.      B        0xccfe ; am_hal_gpio_state_write + 142
        0x0000cc7c:    460d        .F      MOV      r5,r1
        0x0000cc7e:    2905        .)      CMP      r1,#5
        0x0000cc80:    d901        ..      BLS      0xcc86 ; am_hal_gpio_state_write + 22
        0x0000cc82:    2406        .$      MOVS     r4,#6
        0x0000cc84:    e03b        ;.      B        0xccfe ; am_hal_gpio_state_write + 142
        0x0000cc86:    4604        .F      MOV      r4,r0
        0x0000cc88:    f000f83e    ..>.    BL       am_hal_interrupt_master_disable ; 0xcd08
        0x0000cc8c:    2d05        .-      CMP      r5,#5
        0x0000cc8e:    9001        ..      STR      r0,[sp,#4]
        0x0000cc90:    d838        8.      BHI      0xcd04 ; am_hal_gpio_state_write + 148
        0x0000cc92:    f004001f    ....    AND      r0,r4,#0x1f
        0x0000cc96:    2101        .!      MOVS     r1,#1
        0x0000cc98:    fa01f000    ....    LSL      r0,r1,r0
        0x0000cc9c:    2104        .!      MOVS     r1,#4
        0x0000cc9e:    ea0101d4    ....    AND      r1,r1,r4,LSR #3
        0x0000cca2:    e8dff005    ....    TBB      [pc,r5]
    $d.8
        0x0000cca6:    0903        ..      DCW    2307
        0x0000cca8:    211b160f    ...!    DCD    555423247
    $t.9
        0x0000ccac:    2288        ."      MOVS     r2,#0x88
        0x0000ccae:    f2c40201    ....    MOVT     r2,#0x4001
        0x0000ccb2:    4311        .C      ORRS     r1,r1,r2
        0x0000ccb4:    6108        .a      STR      r0,[r1,#0x10]
        0x0000ccb6:    e01e        ..      B        0xccf6 ; am_hal_gpio_state_write + 134
        0x0000ccb8:    2288        ."      MOVS     r2,#0x88
        0x0000ccba:    f2c40201    ....    MOVT     r2,#0x4001
        0x0000ccbe:    4311        .C      ORRS     r1,r1,r2
        0x0000ccc0:    6088        .`      STR      r0,[r1,#8]
        0x0000ccc2:    e018        ..      B        0xccf6 ; am_hal_gpio_state_write + 134
        0x0000ccc4:    2288        ."      MOVS     r2,#0x88
        0x0000ccc6:    f2c40201    ....    MOVT     r2,#0x4001
        0x0000ccca:    588b        .X      LDR      r3,[r1,r2]
        0x0000cccc:    4058        X@      EORS     r0,r0,r3
        0x0000ccce:    5088        .P      STR      r0,[r1,r2]
        0x0000ccd0:    e011        ..      B        0xccf6 ; am_hal_gpio_state_write + 134
        0x0000ccd2:    2288        ."      MOVS     r2,#0x88
        0x0000ccd4:    f2c40201    ....    MOVT     r2,#0x4001
        0x0000ccd8:    4311        .C      ORRS     r1,r1,r2
        0x0000ccda:    e00b        ..      B        0xccf4 ; am_hal_gpio_state_write + 132
        0x0000ccdc:    2288        ."      MOVS     r2,#0x88
        0x0000ccde:    f2c40201    ....    MOVT     r2,#0x4001
        0x0000cce2:    4311        .C      ORRS     r1,r1,r2
        0x0000cce4:    6208        .b      STR      r0,[r1,#0x20]
        0x0000cce6:    e006        ..      B        0xccf6 ; am_hal_gpio_state_write + 134
        0x0000cce8:    2288        ."      MOVS     r2,#0x88
        0x0000ccea:    f2c40201    ....    MOVT     r2,#0x4001
        0x0000ccee:    4311        .C      ORRS     r1,r1,r2
        0x0000ccf0:    6aca        .j      LDR      r2,[r1,#0x2c]
        0x0000ccf2:    4050        P@      EORS     r0,r0,r2
        0x0000ccf4:    62c8        .b      STR      r0,[r1,#0x2c]
        0x0000ccf6:    2400        .$      MOVS     r4,#0
        0x0000ccf8:    9801        ..      LDR      r0,[sp,#4]
        0x0000ccfa:    f000f80d    ....    BL       am_hal_interrupt_master_set ; 0xcd18
        0x0000ccfe:    4620         F      MOV      r0,r4
        0x0000cd00:    b002        ..      ADD      sp,sp,#8
        0x0000cd02:    bdb0        ..      POP      {r4,r5,r7,pc}
        0x0000cd04:    2406        .$      MOVS     r4,#6
        0x0000cd06:    e7f7        ..      B        0xccf8 ; am_hal_gpio_state_write + 136
    am_hal_interrupt_master_disable
        0x0000cd08:    f3ef8010    ....    MRS      r0,PRIMASK
        0x0000cd0c:    b672        r.      CPSID    i
        0x0000cd0e:    4770        pG      BX       lr
    am_hal_interrupt_master_enable
        0x0000cd10:    f3ef8010    ....    MRS      r0,PRIMASK
        0x0000cd14:    b662        b.      CPSIE    i
        0x0000cd16:    4770        pG      BX       lr
    am_hal_interrupt_master_set
        0x0000cd18:    f3808810    ....    MSR      PRIMASK,r0
        0x0000cd1c:    4770        pG      BX       lr
    am_hal_mcuctrl_info_get
        0x0000cd1e:    b1e1        ..      CBZ      r1,0xcd5a ; am_hal_mcuctrl_info_get + 60
        0x0000cd20:    2802        .(      CMP      r0,#2
        0x0000cd22:    d01c        ..      BEQ      0xcd5e ; am_hal_mcuctrl_info_get + 64
        0x0000cd24:    2801        .(      CMP      r0,#1
        0x0000cd26:    d037        7.      BEQ      0xcd98 ; am_hal_mcuctrl_info_get + 122
        0x0000cd28:    b9b8        ..      CBNZ     r0,0xcd5a ; am_hal_mcuctrl_info_get + 60
        0x0000cd2a:    2000        .       MOVS     r0,#0
        0x0000cd2c:    f2c40002    ....    MOVT     r0,#0x4002
        0x0000cd30:    6982        .i      LDR      r2,[r0,#0x18]
        0x0000cd32:    b2d2        ..      UXTB     r2,r2
        0x0000cd34:    f3c21380    ....    UBFX     r3,r2,#6,#1
        0x0000cd38:    f3c20280    ....    UBFX     r2,r2,#2,#1
        0x0000cd3c:    700b        .p      STRB     r3,[r1,#0]
        0x0000cd3e:    704a        Jp      STRB     r2,[r1,#1]
        0x0000cd40:    f8d021a0    ...!    LDR      r2,[r0,#0x1a0]
        0x0000cd44:    f3c26281    ...b    UBFX     r2,r2,#26,#2
        0x0000cd48:    710a        .q      STRB     r2,[r1,#4]
        0x0000cd4a:    6940        @i      LDR      r0,[r0,#0x14]
        0x0000cd4c:    f3c00240    ..@.    UBFX     r2,r0,#1,#1
        0x0000cd50:    f0000001    ....    AND      r0,r0,#1
        0x0000cd54:    708a        .p      STRB     r2,[r1,#2]
        0x0000cd56:    70c8        .p      STRB     r0,[r1,#3]
        0x0000cd58:    e06c        l.      B        0xce34 ; am_hal_mcuctrl_info_get + 278
        0x0000cd5a:    2006        .       MOVS     r0,#6
        0x0000cd5c:    4770        pG      BX       lr
        0x0000cd5e:    2000        .       MOVS     r0,#0
        0x0000cd60:    f2c40002    ....    MOVT     r0,#0x4002
        0x0000cd64:    f8d021cc    ...!    LDR      r2,[r0,#0x1cc]
        0x0000cd68:    b2d3        ..      UXTB     r3,r2
        0x0000cd6a:    f0020201    ....    AND      r2,r2,#1
        0x0000cd6e:    700a        .p      STRB     r2,[r1,#0]
        0x0000cd70:    f3c30240    ..@.    UBFX     r2,r3,#1,#1
        0x0000cd74:    720a        .r      STRB     r2,[r1,#8]
        0x0000cd76:    f3c30280    ....    UBFX     r2,r3,#2,#1
        0x0000cd7a:    740a        .t      STRB     r2,[r1,#0x10]
        0x0000cd7c:    f8d021c4    ...!    LDR      r2,[r0,#0x1c4]
        0x0000cd80:    60ca        .`      STR      r2,[r1,#0xc]
        0x0000cd82:    f8d021c0    ...!    LDR      r2,[r0,#0x1c0]
        0x0000cd86:    684b        Kh      LDR      r3,[r1,#4]
        0x0000cd88:    431a        .C      ORRS     r2,r2,r3
        0x0000cd8a:    604a        J`      STR      r2,[r1,#4]
        0x0000cd8c:    f8d001c8    ....    LDR      r0,[r0,#0x1c8]
        0x0000cd90:    694a        Ji      LDR      r2,[r1,#0x14]
        0x0000cd92:    4310        .C      ORRS     r0,r0,r2
        0x0000cd94:    6148        Ha      STR      r0,[r1,#0x14]
        0x0000cd96:    e04d        M.      B        0xce34 ; am_hal_mcuctrl_info_get + 278
        0x0000cd98:    2000        .       MOVS     r0,#0
        0x0000cd9a:    f2c40002    ....    MOVT     r0,#0x4002
        0x0000cd9e:    6802        .h      LDR      r2,[r0,#0]
        0x0000cda0:    600a        .`      STR      r2,[r1,#0]
        0x0000cda2:    6843        Ch      LDR      r3,[r0,#4]
        0x0000cda4:    604b        K`      STR      r3,[r1,#4]
        0x0000cda6:    6883        .h      LDR      r3,[r0,#8]
        0x0000cda8:    608b        .`      STR      r3,[r1,#8]
        0x0000cdaa:    68c3        .h      LDR      r3,[r0,#0xc]
        0x0000cdac:    60cb        .`      STR      r3,[r1,#0xc]
        0x0000cdae:    6903        .i      LDR      r3,[r0,#0x10]
        0x0000cdb0:    610b        .a      STR      r3,[r1,#0x10]
        0x0000cdb2:    6940        @i      LDR      r0,[r0,#0x14]
        0x0000cdb4:    f24043c0    @..C    MOVW     r3,#0x4c0
        0x0000cdb8:    6148        Ha      STR      r0,[r1,#0x14]
        0x0000cdba:    2001        .       MOVS     r0,#1
        0x0000cdbc:    6188        .a      STR      r0,[r1,#0x18]
        0x0000cdbe:    f3c25003    ...P    UBFX     r0,r2,#20,#4
        0x0000cdc2:    f2c00301    ....    MOVT     r3,#1
        0x0000cdc6:    f8530020    S. .    LDR      r0,[r3,r0,LSL #2]
        0x0000cdca:    f2405300    @..S    MOVW     r3,#0x500
        0x0000cdce:    f3c24203    ...B    UBFX     r2,r2,#16,#4
        0x0000cdd2:    f2c00301    ....    MOVT     r3,#1
        0x0000cdd6:    f8532022    S."     LDR      r2,[r3,r2,LSL #2]
        0x0000cdda:    e9c10207    ....    STRD     r0,r2,[r1,#0x1c]
        0x0000cdde:    f64070e0    @..p    MOVW     r0,#0xfe0
        0x0000cde2:    f2cf0000    ....    MOVT     r0,#0xf000
        0x0000cde6:    6802        .h      LDR      r2,[r0,#0]
        0x0000cde8:    b2d2        ..      UXTB     r2,r2
        0x0000cdea:    624a        Jb      STR      r2,[r1,#0x24]
        0x0000cdec:    6843        Ch      LDR      r3,[r0,#4]
        0x0000cdee:    f363220b    c.."    BFI      r2,r3,#8,#4
        0x0000cdf2:    624a        Jb      STR      r2,[r1,#0x24]
        0x0000cdf4:    6842        Bh      LDR      r2,[r0,#4]
        0x0000cdf6:    f3c21203    ....    UBFX     r2,r2,#4,#4
        0x0000cdfa:    628a        .b      STR      r2,[r1,#0x28]
        0x0000cdfc:    6883        .h      LDR      r3,[r0,#8]
        0x0000cdfe:    f3631207    c...    BFI      r2,r3,#4,#4
        0x0000ce02:    628a        .b      STR      r2,[r1,#0x28]
        0x0000ce04:    6882        .h      LDR      r2,[r0,#8]
        0x0000ce06:    f00202f0    ....    AND      r2,r2,#0xf0
        0x0000ce0a:    62ca        .b      STR      r2,[r1,#0x2c]
        0x0000ce0c:    68c3        .h      LDR      r3,[r0,#0xc]
        0x0000ce0e:    f3c31303    ....    UBFX     r3,r3,#4,#4
        0x0000ce12:    441a        .D      ADD      r2,r2,r3
        0x0000ce14:    62ca        .b      STR      r2,[r1,#0x2c]
        0x0000ce16:    69c2        .i      LDR      r2,[r0,#0x1c]
        0x0000ce18:    0612        ..      LSLS     r2,r2,#24
        0x0000ce1a:    630a        .c      STR      r2,[r1,#0x30]
        0x0000ce1c:    6983        .i      LDR      r3,[r0,#0x18]
        0x0000ce1e:    f3634217    c..B    BFI      r2,r3,#16,#8
        0x0000ce22:    630a        .c      STR      r2,[r1,#0x30]
        0x0000ce24:    6943        Ci      LDR      r3,[r0,#0x14]
        0x0000ce26:    f363220f    c.."    BFI      r2,r3,#8,#8
        0x0000ce2a:    630a        .c      STR      r2,[r1,#0x30]
        0x0000ce2c:    6900        .i      LDR      r0,[r0,#0x10]
        0x0000ce2e:    b2c0        ..      UXTB     r0,r0
        0x0000ce30:    4410        .D      ADD      r0,r0,r2
        0x0000ce32:    6308        .c      STR      r0,[r1,#0x30]
        0x0000ce34:    2000        .       MOVS     r0,#0
        0x0000ce36:    4770        pG      BX       lr
    am_hal_pwrctrl_blebuck_trim
        0x0000ce38:    b510        ..      PUSH     {r4,lr}
        0x0000ce3a:    b082        ..      SUB      sp,sp,#8
        0x0000ce3c:    f2403468    @.h4    MOVW     r4,#0x368
        0x0000ce40:    f64f40a4    O..@    MOV      r0,#0xfca4
        0x0000ce44:    f2c40402    ....    MOVT     r4,#0x4002
        0x0000ce48:    f6cf70ff    ...p    MOVT     r0,#0xffff
        0x0000ce4c:    5820         X      LDR      r0,[r4,r0]
        0x0000ce4e:    f00000fe    ....    AND      r0,r0,#0xfe
        0x0000ce52:    2812        .(      CMP      r0,#0x12
        0x0000ce54:    d317        ..      BCC      0xce86 ; am_hal_pwrctrl_blebuck_trim + 78
        0x0000ce56:    f7ffff57    ..W.    BL       am_hal_interrupt_master_disable ; 0xcd08
        0x0000ce5a:    9001        ..      STR      r0,[sp,#4]
        0x0000ce5c:    6820         h      LDR      r0,[r4,#0]
        0x0000ce5e:    2119        .!      MOVS     r1,#0x19
        0x0000ce60:    f361108b    a...    BFI      r0,r1,#6,#6
        0x0000ce64:    6020         `      STR      r0,[r4,#0]
        0x0000ce66:    6820         h      LDR      r0,[r4,#0]
        0x0000ce68:    210c        .!      MOVS     r1,#0xc
        0x0000ce6a:    f3610005    a...    BFI      r0,r1,#0,#6
        0x0000ce6e:    6020         `      STR      r0,[r4,#0]
        0x0000ce70:    f244003c    D.<.    MOV      r0,#0x403c
        0x0000ce74:    f2c40000    ....    MOVT     r0,#0x4000
        0x0000ce78:    6801        .h      LDR      r1,[r0,#0]
        0x0000ce7a:    f4210180    !...    BIC      r1,r1,#0x400000
        0x0000ce7e:    6001        .`      STR      r1,[r0,#0]
        0x0000ce80:    9801        ..      LDR      r0,[sp,#4]
        0x0000ce82:    f7ffff49    ..I.    BL       am_hal_interrupt_master_set ; 0xcd18
        0x0000ce86:    b002        ..      ADD      sp,sp,#8
        0x0000ce88:    bd10        ..      POP      {r4,pc}
    am_hal_pwrctrl_low_power_init
        0x0000ce8a:    b5f0        ..      PUSH     {r4-r7,lr}
        0x0000ce8c:    b081        ..      SUB      sp,sp,#4
        0x0000ce8e:    f24140a4    A..@    MOV      r0,#0x14a4
        0x0000ce92:    f2c10000    ....    MOVT     r0,#0x1000
        0x0000ce96:    6801        .h      LDR      r1,[r0,#0]
        0x0000ce98:    b929        ).      CBNZ     r1,0xcea6 ; am_hal_pwrctrl_low_power_init + 28
        0x0000ce9a:    f24f0100    O...    MOVW     r1,#0xf000
        0x0000ce9e:    f6c471ff    ...q    MOVT     r1,#0x4fff
        0x0000cea2:    6809        .h      LDR      r1,[r1,#0]
        0x0000cea4:    6001        .`      STR      r1,[r0,#0]
        0x0000cea6:    f2403554    @.T5    MOVW     r5,#0x354
        0x0000ceaa:    f64f46b8    O..F    MOV      r6,#0xfcb8
        0x0000ceae:    f2c40502    ....    MOVT     r5,#0x4002
        0x0000ceb2:    f6cf76ff    ...v    MOVT     r6,#0xffff
        0x0000ceb6:    59a8        .Y      LDR      r0,[r5,r6]
        0x0000ceb8:    f2410700    A...    MOVW     r7,#0x1000
        0x0000cebc:    b2c0        ..      UXTB     r0,r0
        0x0000cebe:    2812        .(      CMP      r0,#0x12
        0x0000cec0:    f2c40702    ....    MOVT     r7,#0x4002
        0x0000cec4:    d108        ..      BNE      0xced8 ; am_hal_pwrctrl_low_power_init + 78
        0x0000cec6:    6878        xh      LDR      r0,[r7,#4]
        0x0000cec8:    07c0        ..      LSLS     r0,r0,#31
        0x0000ceca:    d005        ..      BEQ      0xced8 ; am_hal_pwrctrl_low_power_init + 78
        0x0000cecc:    200d        .       MOVS     r0,#0xd
        0x0000cece:    f000f8ef    ....    BL       am_hal_pwrctrl_periph_enable ; 0xd0b0
        0x0000ced2:    4604        .F      MOV      r4,r0
        0x0000ced4:    2800        .(      CMP      r0,#0
        0x0000ced6:    d16a        j.      BNE      0xcfae ; am_hal_pwrctrl_low_power_init + 292
        0x0000ced8:    59a8        .Y      LDR      r0,[r5,r6]
        0x0000ceda:    b2c0        ..      UXTB     r0,r0
        0x0000cedc:    2821        !(      CMP      r0,#0x21
        0x0000cede:    d324        $.      BCC      0xcf2a ; am_hal_pwrctrl_low_power_init + 160
        0x0000cee0:    6828        (h      LDR      r0,[r5,#0]
        0x0000cee2:    2102        .!      MOVS     r1,#2
        0x0000cee4:    f3614013    a..@    BFI      r0,r1,#16,#4
        0x0000cee8:    6028        (`      STR      r0,[r5,#0]
        0x0000ceea:    682a        *h      LDR      r2,[r5,#0]
        0x0000ceec:    2003        .       MOVS     r0,#3
        0x0000ceee:    f3605217    `..R    BFI      r2,r0,#20,#4
        0x0000cef2:    602a        *`      STR      r2,[r5,#0]
        0x0000cef4:    686a        jh      LDR      r2,[r5,#4]
        0x0000cef6:    2305        .#      MOVS     r3,#5
        0x0000cef8:    f3630203    c...    BFI      r2,r3,#0,#4
        0x0000cefc:    606a        j`      STR      r2,[r5,#4]
        0x0000cefe:    686a        jh      LDR      r2,[r5,#4]
        0x0000cf00:    f3611207    a...    BFI      r2,r1,#4,#4
        0x0000cf04:    606a        j`      STR      r2,[r5,#4]
        0x0000cf06:    6869        ih      LDR      r1,[r5,#4]
        0x0000cf08:    2206        ."      MOVS     r2,#6
        0x0000cf0a:    f362210b    b..!    BFI      r1,r2,#8,#4
        0x0000cf0e:    6069        i`      STR      r1,[r5,#4]
        0x0000cf10:    6869        ih      LDR      r1,[r5,#4]
        0x0000cf12:    2201        ."      MOVS     r2,#1
        0x0000cf14:    f362310f    b..1    BFI      r1,r2,#12,#4
        0x0000cf18:    6069        i`      STR      r1,[r5,#4]
        0x0000cf1a:    6869        ih      LDR      r1,[r5,#4]
        0x0000cf1c:    f36061de    `..a    BFI      r1,r0,#27,#4
        0x0000cf20:    6069        i`      STR      r1,[r5,#4]
        0x0000cf22:    68a9        .h      LDR      r1,[r5,#8]
        0x0000cf24:    f3600103    `...    BFI      r1,r0,#0,#4
        0x0000cf28:    60a9        .`      STR      r1,[r5,#8]
        0x0000cf2a:    59a8        .Y      LDR      r0,[r5,r6]
        0x0000cf2c:    f00000fe    ....    AND      r0,r0,#0xfe
        0x0000cf30:    2812        .(      CMP      r0,#0x12
        0x0000cf32:    d303        ..      BCC      0xcf3c ; am_hal_pwrctrl_low_power_init + 178
        0x0000cf34:    68a8        .h      LDR      r0,[r5,#8]
        0x0000cf36:    f0207080     ..p    BIC      r0,r0,#0x1000000
        0x0000cf3a:    60a8        .`      STR      r0,[r5,#8]
        0x0000cf3c:    200c        .       MOVS     r0,#0xc
        0x0000cf3e:    2100        .!      MOVS     r1,#0
        0x0000cf40:    2400        .$      MOVS     r4,#0
        0x0000cf42:    f7fffb8d    ....    BL       am_hal_cachectrl_control ; 0xc660
        0x0000cf46:    69b8        .i      LDR      r0,[r7,#0x18]
        0x0000cf48:    05c0        ..      LSLS     r0,r0,#23
        0x0000cf4a:    d430        0.      BMI      0xcfae ; am_hal_pwrctrl_low_power_init + 292
        0x0000cf4c:    f7ffff74    ..t.    BL       am_hal_pwrctrl_blebuck_trim ; 0xce38
        0x0000cf50:    f64f40c4    O..@    MOV      r0,#0xfcc4
        0x0000cf54:    f6cf70ff    ...p    MOVT     r0,#0xffff
        0x0000cf58:    582a        *X      LDR      r2,[r5,r0]
        0x0000cf5a:    f5a5714f    ..Oq    SUB      r1,r5,#0x33c
        0x0000cf5e:    f0420201    B...    ORR      r2,r2,#1
        0x0000cf62:    502a        *P      STR      r2,[r5,r0]
        0x0000cf64:    2401        .$      MOVS     r4,#1
        0x0000cf66:    f2427010    B..p    MOV      r0,#0x2710
        0x0000cf6a:    2207        ."      MOVS     r2,#7
        0x0000cf6c:    2307        .#      MOVS     r3,#7
        0x0000cf6e:    9400        ..      STR      r4,[sp,#0]
        0x0000cf70:    f7fffd04    ....    BL       am_hal_flash_delay_status_check ; 0xc97c
        0x0000cf74:    b108        ..      CBZ      r0,0xcf7a ; am_hal_pwrctrl_low_power_init + 240
        0x0000cf76:    2404        .$      MOVS     r4,#4
        0x0000cf78:    e019        ..      B        0xcfae ; am_hal_pwrctrl_low_power_init + 292
        0x0000cf7a:    6838        8h      LDR      r0,[r7,#0]
        0x0000cf7c:    f0400001    @...    ORR      r0,r0,#1
        0x0000cf80:    6038        8`      STR      r0,[r7,#0]
        0x0000cf82:    6a78        xj      LDR      r0,[r7,#0x24]
        0x0000cf84:    f0400040    @.@.    ORR      r0,r0,#0x40
        0x0000cf88:    6278        xb      STR      r0,[r7,#0x24]
        0x0000cf8a:    59a8        .Y      LDR      r0,[r5,r6]
        0x0000cf8c:    b2c0        ..      UXTB     r0,r0
        0x0000cf8e:    2811        .(      CMP      r0,#0x11
        0x0000cf90:    d10c        ..      BNE      0xcfac ; am_hal_pwrctrl_low_power_init + 290
        0x0000cf92:    68a8        .h      LDR      r0,[r5,#8]
        0x0000cf94:    210f        .!      MOVS     r1,#0xf
        0x0000cf96:    f42000c0     ...    BIC      r0,r0,#0x600000
        0x0000cf9a:    60a8        .`      STR      r0,[r5,#8]
        0x0000cf9c:    6968        hi      LDR      r0,[r5,#0x14]
        0x0000cf9e:    f361108b    a...    BFI      r0,r1,#6,#6
        0x0000cfa2:    6168        ha      STR      r0,[r5,#0x14]
        0x0000cfa4:    6968        hi      LDR      r0,[r5,#0x14]
        0x0000cfa6:    f3610005    a...    BFI      r0,r1,#0,#6
        0x0000cfaa:    6168        ha      STR      r0,[r5,#0x14]
        0x0000cfac:    2400        .$      MOVS     r4,#0
        0x0000cfae:    4620         F      MOV      r0,r4
        0x0000cfb0:    b001        ..      ADD      sp,sp,#4
        0x0000cfb2:    bdf0        ..      POP      {r4-r7,pc}
    am_hal_pwrctrl_memory_enable
        0x0000cfb4:    e92d41f0    -..A    PUSH     {r4-r8,lr}
        0x0000cfb8:    f2402128    @.(!    MOVW     r1,#0x228
        0x0000cfbc:    4604        .F      MOV      r4,r0
        0x0000cfbe:    eb000040    ..@.    ADD      r0,r0,r0,LSL #1
        0x0000cfc2:    f2c00101    ....    MOVT     r1,#1
        0x0000cfc6:    eb0107c0    ....    ADD      r7,r1,r0,LSL #3
        0x0000cfca:    f8518030    Q.0.    LDR      r8,[r1,r0,LSL #3]
        0x0000cfce:    68f8        .h      LDR      r0,[r7,#0xc]
        0x0000cfd0:    f2410510    A...    MOV      r5,#0x1010
        0x0000cfd4:    f2c40502    ....    MOVT     r5,#0x4002
        0x0000cfd8:    ea680000    h...    ORN      r0,r8,r0
        0x0000cfdc:    f2420101    B...    MOV      r1,#0x2001
        0x0000cfe0:    4308        .C      ORRS     r0,r0,r1
        0x0000cfe2:    6829        )h      LDR      r1,[r5,#0]
        0x0000cfe4:    693e        >i      LDR      r6,[r7,#0x10]
        0x0000cfe6:    4008        .@      ANDS     r0,r0,r1
        0x0000cfe8:    6028        (`      STR      r0,[r5,#0]
        0x0000cfea:    2010        .       MOVS     r0,#0x10
        0x0000cfec:    f7fffcb0    ....    BL       am_hal_flash_delay ; 0xc950
        0x0000cff0:    b194        ..      CBZ      r4,0xd018 ; am_hal_pwrctrl_memory_enable + 100
        0x0000cff2:    6828        (h      LDR      r0,[r5,#0]
        0x0000cff4:    ea400008    @...    ORR      r0,r0,r8
        0x0000cff8:    6028        (`      STR      r0,[r5,#0]
        0x0000cffa:    1d38        8.      ADDS     r0,r7,#4
        0x0000cffc:    6804        .h      LDR      r4,[r0,#0]
        0x0000cffe:    2700        .'      MOVS     r7,#0
        0x0000d000:    20a0        .       MOVS     r0,#0xa0
        0x0000d002:    f7fffca5    ....    BL       am_hal_flash_delay ; 0xc950
        0x0000d006:    6868        hh      LDR      r0,[r5,#4]
        0x0000d008:    4030        0@      ANDS     r0,r0,r6
        0x0000d00a:    42a0        .B      CMP      r0,r4
        0x0000d00c:    d005        ..      BEQ      0xd01a ; am_hal_pwrctrl_memory_enable + 102
        0x0000d00e:    2f0a        ./      CMP      r7,#0xa
        0x0000d010:    f107070a    ....    ADD      r7,r7,#0xa
        0x0000d014:    d3f4        ..      BCC      0xd000 ; am_hal_pwrctrl_memory_enable + 76
        0x0000d016:    e000        ..      B        0xd01a ; am_hal_pwrctrl_memory_enable + 102
        0x0000d018:    687c        |h      LDR      r4,[r7,#4]
        0x0000d01a:    6868        hh      LDR      r0,[r5,#4]
        0x0000d01c:    4030        0@      ANDS     r0,r0,r6
        0x0000d01e:    1b00        ..      SUBS     r0,r0,r4
        0x0000d020:    bf18        ..      IT       NE
        0x0000d022:    2001        .       MOVNE    r0,#1
        0x0000d024:    e8bd81f0    ....    POP      {r4-r8,pc}
    am_hal_pwrctrl_periph_disable
        0x0000d028:    b5f0        ..      PUSH     {r4-r7,lr}
        0x0000d02a:    b081        ..      SUB      sp,sp,#4
        0x0000d02c:    f2410508    A...    MOV      r5,#0x1008
        0x0000d030:    4604        .F      MOV      r4,r0
        0x0000d032:    f2c40502    ....    MOVT     r5,#0x4002
        0x0000d036:    f7fffe67    ..g.    BL       am_hal_interrupt_master_disable ; 0xcd08
        0x0000d03a:    f24031d8    @..1    MOVW     r1,#0x3d8
        0x0000d03e:    9000        ..      STR      r0,[sp,#0]
        0x0000d040:    eb040044    ..D.    ADD      r0,r4,r4,LSL #1
        0x0000d044:    f2c00101    ....    MOVT     r1,#1
        0x0000d048:    eb010680    ....    ADD      r6,r1,r0,LSL #2
        0x0000d04c:    f8564b04    V..K    LDR      r4,[r6],#4
        0x0000d050:    6828        (h      LDR      r0,[r5,#0]
        0x0000d052:    43a0        .C      BICS     r0,r0,r4
        0x0000d054:    6028        (`      STR      r0,[r5,#0]
        0x0000d056:    9800        ..      LDR      r0,[sp,#0]
        0x0000d058:    f7fffe5e    ..^.    BL       am_hal_interrupt_master_set ; 0xcd18
        0x0000d05c:    6836        6h      LDR      r6,[r6,#0]
        0x0000d05e:    2700        .'      MOVS     r7,#0
        0x0000d060:    20a0        .       MOVS     r0,#0xa0
        0x0000d062:    f7fffc75    ..u.    BL       am_hal_flash_delay ; 0xc950
        0x0000d066:    6928        (i      LDR      r0,[r5,#0x10]
        0x0000d068:    4206        .B      TST      r6,r0
        0x0000d06a:    d003        ..      BEQ      0xd074 ; am_hal_pwrctrl_periph_disable + 76
        0x0000d06c:    2f0a        ./      CMP      r7,#0xa
        0x0000d06e:    f107070a    ....    ADD      r7,r7,#0xa
        0x0000d072:    d3f5        ..      BCC      0xd060 ; am_hal_pwrctrl_periph_disable + 56
        0x0000d074:    6928        (i      LDR      r0,[r5,#0x10]
        0x0000d076:    4206        .B      TST      r6,r0
        0x0000d078:    d00b        ..      BEQ      0xd092 ; am_hal_pwrctrl_periph_disable + 106
        0x0000d07a:    6828        (h      LDR      r0,[r5,#0]
        0x0000d07c:    2e10        ..      CMP      r6,#0x10
        0x0000d07e:    d00a        ..      BEQ      0xd096 ; am_hal_pwrctrl_periph_disable + 110
        0x0000d080:    2e08        ..      CMP      r6,#8
        0x0000d082:    d00f        ..      BEQ      0xd0a4 ; am_hal_pwrctrl_periph_disable + 124
        0x0000d084:    2e04        ..      CMP      r6,#4
        0x0000d086:    d110        ..      BNE      0xd0aa ; am_hal_pwrctrl_periph_disable + 130
        0x0000d088:    f2405181    @..Q    MOV      r1,#0x581
        0x0000d08c:    4208        .B      TST      r0,r1
        0x0000d08e:    d105        ..      BNE      0xd09c ; am_hal_pwrctrl_periph_disable + 116
        0x0000d090:    e00b        ..      B        0xd0aa ; am_hal_pwrctrl_periph_disable + 130
        0x0000d092:    2000        .       MOVS     r0,#0
        0x0000d094:    e00a        ..      B        0xd0ac ; am_hal_pwrctrl_periph_disable + 132
        0x0000d096:    f0100f70    ..p.    TST      r0,#0x70
        0x0000d09a:    d006        ..      BEQ      0xd0aa ; am_hal_pwrctrl_periph_disable + 130
        0x0000d09c:    4020         @      ANDS     r0,r0,r4
        0x0000d09e:    bf18        ..      IT       NE
        0x0000d0a0:    2001        .       MOVNE    r0,#1
        0x0000d0a2:    e003        ..      B        0xd0ac ; am_hal_pwrctrl_periph_disable + 132
        0x0000d0a4:    f0100f0e    ....    TST      r0,#0xe
        0x0000d0a8:    d1f8        ..      BNE      0xd09c ; am_hal_pwrctrl_periph_disable + 116
        0x0000d0aa:    2001        .       MOVS     r0,#1
        0x0000d0ac:    b001        ..      ADD      sp,sp,#4
        0x0000d0ae:    bdf0        ..      POP      {r4-r7,pc}
    am_hal_pwrctrl_periph_enable
        0x0000d0b0:    b5f0        ..      PUSH     {r4-r7,lr}
        0x0000d0b2:    b083        ..      SUB      sp,sp,#0xc
        0x0000d0b4:    f2410508    A...    MOV      r5,#0x1008
        0x0000d0b8:    4604        .F      MOV      r4,r0
        0x0000d0ba:    f2c40502    ....    MOVT     r5,#0x4002
        0x0000d0be:    f7fffe23    ..#.    BL       am_hal_interrupt_master_disable ; 0xcd08
        0x0000d0c2:    f24031d8    @..1    MOVW     r1,#0x3d8
        0x0000d0c6:    9002        ..      STR      r0,[sp,#8]
        0x0000d0c8:    eb040044    ..D.    ADD      r0,r4,r4,LSL #1
        0x0000d0cc:    f2c00101    ....    MOVT     r1,#1
        0x0000d0d0:    eb010680    ....    ADD      r6,r1,r0,LSL #2
        0x0000d0d4:    f8564b04    V..K    LDR      r4,[r6],#4
        0x0000d0d8:    6828        (h      LDR      r0,[r5,#0]
        0x0000d0da:    4320         C      ORRS     r0,r0,r4
        0x0000d0dc:    6028        (`      STR      r0,[r5,#0]
        0x0000d0de:    9802        ..      LDR      r0,[sp,#8]
        0x0000d0e0:    f7fffe1a    ....    BL       am_hal_interrupt_master_set ; 0xcd18
        0x0000d0e4:    6836        6h      LDR      r6,[r6,#0]
        0x0000d0e6:    2700        .'      MOVS     r7,#0
        0x0000d0e8:    20a0        .       MOVS     r0,#0xa0
        0x0000d0ea:    f7fffc31    ..1.    BL       am_hal_flash_delay ; 0xc950
        0x0000d0ee:    6928        (i      LDR      r0,[r5,#0x10]
        0x0000d0f0:    4206        .B      TST      r6,r0
        0x0000d0f2:    d103        ..      BNE      0xd0fc ; am_hal_pwrctrl_periph_enable + 76
        0x0000d0f4:    2f0a        ./      CMP      r7,#0xa
        0x0000d0f6:    f107070a    ....    ADD      r7,r7,#0xa
        0x0000d0fa:    d3f5        ..      BCC      0xd0e8 ; am_hal_pwrctrl_periph_enable + 56
        0x0000d0fc:    6928        (i      LDR      r0,[r5,#0x10]
        0x0000d0fe:    4206        .B      TST      r6,r0
        0x0000d100:    d001        ..      BEQ      0xd106 ; am_hal_pwrctrl_periph_enable + 86
        0x0000d102:    2000        .       MOVS     r0,#0
        0x0000d104:    e009        ..      B        0xd11a ; am_hal_pwrctrl_periph_enable + 106
        0x0000d106:    f7fffdff    ....    BL       am_hal_interrupt_master_disable ; 0xcd08
        0x0000d10a:    9001        ..      STR      r0,[sp,#4]
        0x0000d10c:    6828        (h      LDR      r0,[r5,#0]
        0x0000d10e:    43a0        .C      BICS     r0,r0,r4
        0x0000d110:    6028        (`      STR      r0,[r5,#0]
        0x0000d112:    9801        ..      LDR      r0,[sp,#4]
        0x0000d114:    f7fffe00    ....    BL       am_hal_interrupt_master_set ; 0xcd18
        0x0000d118:    2001        .       MOVS     r0,#1
        0x0000d11a:    b003        ..      ADD      sp,sp,#0xc
        0x0000d11c:    bdf0        ..      POP      {r4-r7,pc}
    am_hal_queue_init
        0x0000d11e:    f04f0c00    O...    MOV      r12,#0
        0x0000d122:    f8c0c000    ....    STR      r12,[r0,#0]
        0x0000d126:    f8c0c004    ....    STR      r12,[r0,#4]
        0x0000d12a:    f8c0c008    ....    STR      r12,[r0,#8]
        0x0000d12e:    e9c03203    ...2    STRD     r3,r2,[r0,#0xc]
        0x0000d132:    6141        Aa      STR      r1,[r0,#0x14]
        0x0000d134:    4770        pG      BX       lr
        0x0000d136:    0000        ..      MOVS     r0,r0
    am_hal_queue_item_add
        0x0000d138:    b5f0        ..      PUSH     {r4-r7,lr}
        0x0000d13a:    b081        ..      SUB      sp,sp,#4
        0x0000d13c:    4604        .F      MOV      r4,r0
        0x0000d13e:    6900        .i      LDR      r0,[r0,#0x10]
        0x0000d140:    460d        .F      MOV      r5,r1
        0x0000d142:    fb00f702    ....    MUL      r7,r0,r2
        0x0000d146:    f7fffddf    ....    BL       am_hal_interrupt_master_disable ; 0xcd08
        0x0000d14a:    9000        ..      STR      r0,[sp,#0]
        0x0000d14c:    68e1        .h      LDR      r1,[r4,#0xc]
        0x0000d14e:    68a0        .h      LDR      r0,[r4,#8]
        0x0000d150:    eba10c00    ....    SUB      r12,r1,r0
        0x0000d154:    45bc        .E      CMP      r12,r7
        0x0000d156:    d318        ..      BCC      0xd18a ; am_hal_queue_item_add + 82
        0x0000d158:    b1a7        ..      CBZ      r7,0xd184 ; am_hal_queue_item_add + 76
        0x0000d15a:    462a        *F      MOV      r2,r5
        0x0000d15c:    463b        ;F      MOV      r3,r7
        0x0000d15e:    bf00        ..      NOP      
        0x0000d160:    b125        %.      CBZ      r5,0xd16c ; am_hal_queue_item_add + 52
        0x0000d162:    7811        .x      LDRB     r1,[r2,#0]
        0x0000d164:    6960        `i      LDR      r0,[r4,#0x14]
        0x0000d166:    6826        &h      LDR      r6,[r4,#0]
        0x0000d168:    5581        .U      STRB     r1,[r0,r6]
        0x0000d16a:    68e1        .h      LDR      r1,[r4,#0xc]
        0x0000d16c:    6820         h      LDR      r0,[r4,#0]
        0x0000d16e:    3b01        .;      SUBS     r3,#1
        0x0000d170:    f1000001    ....    ADD      r0,r0,#1
        0x0000d174:    fbb0f6f1    ....    UDIV     r6,r0,r1
        0x0000d178:    f1020201    ....    ADD      r2,r2,#1
        0x0000d17c:    fb060011    ....    MLS      r0,r6,r1,r0
        0x0000d180:    6020         `      STR      r0,[r4,#0]
        0x0000d182:    d1ed        ..      BNE      0xd160 ; am_hal_queue_item_add + 40
        0x0000d184:    68a1        .h      LDR      r1,[r4,#8]
        0x0000d186:    4439        9D      ADD      r1,r1,r7
        0x0000d188:    60a1        .`      STR      r1,[r4,#8]
        0x0000d18a:    9800        ..      LDR      r0,[sp,#0]
        0x0000d18c:    2400        .$      MOVS     r4,#0
        0x0000d18e:    45bc        .E      CMP      r12,r7
        0x0000d190:    bf28        (.      IT       CS
        0x0000d192:    2401        .$      MOVCS    r4,#1
        0x0000d194:    f7fffdc0    ....    BL       am_hal_interrupt_master_set ; 0xcd18
        0x0000d198:    4620         F      MOV      r0,r4
        0x0000d19a:    b001        ..      ADD      sp,sp,#4
        0x0000d19c:    bdf0        ..      POP      {r4-r7,pc}
        0x0000d19e:    0000        ..      MOVS     r0,r0
    am_hal_queue_item_get
        0x0000d1a0:    b5f0        ..      PUSH     {r4-r7,lr}
        0x0000d1a2:    b081        ..      SUB      sp,sp,#4
        0x0000d1a4:    4604        .F      MOV      r4,r0
        0x0000d1a6:    6900        .i      LDR      r0,[r0,#0x10]
        0x0000d1a8:    460d        .F      MOV      r5,r1
        0x0000d1aa:    fb00f702    ....    MUL      r7,r0,r2
        0x0000d1ae:    f7fffdab    ....    BL       am_hal_interrupt_master_disable ; 0xcd08
        0x0000d1b2:    9000        ..      STR      r0,[sp,#0]
        0x0000d1b4:    f8d4c008    ....    LDR      r12,[r4,#8]
        0x0000d1b8:    45bc        .E      CMP      r12,r7
        0x0000d1ba:    d317        ..      BCC      0xd1ec ; am_hal_queue_item_get + 76
        0x0000d1bc:    b19f        ..      CBZ      r7,0xd1e6 ; am_hal_queue_item_get + 70
        0x0000d1be:    4629        )F      MOV      r1,r5
        0x0000d1c0:    463a        :F      MOV      r2,r7
        0x0000d1c2:    bf00        ..      NOP      
        0x0000d1c4:    b11d        ..      CBZ      r5,0xd1ce ; am_hal_queue_item_get + 46
        0x0000d1c6:    6863        ch      LDR      r3,[r4,#4]
        0x0000d1c8:    6960        `i      LDR      r0,[r4,#0x14]
        0x0000d1ca:    5cc0        .\      LDRB     r0,[r0,r3]
        0x0000d1cc:    7008        .p      STRB     r0,[r1,#0]
        0x0000d1ce:    6860        `h      LDR      r0,[r4,#4]
        0x0000d1d0:    68e3        .h      LDR      r3,[r4,#0xc]
        0x0000d1d2:    3001        .0      ADDS     r0,#1
        0x0000d1d4:    fbb0f6f3    ....    UDIV     r6,r0,r3
        0x0000d1d8:    3a01        .:      SUBS     r2,#1
        0x0000d1da:    fb060013    ....    MLS      r0,r6,r3,r0
        0x0000d1de:    f1010101    ....    ADD      r1,r1,#1
        0x0000d1e2:    6060        ``      STR      r0,[r4,#4]
        0x0000d1e4:    d1ee        ..      BNE      0xd1c4 ; am_hal_queue_item_get + 36
        0x0000d1e6:    68a1        .h      LDR      r1,[r4,#8]
        0x0000d1e8:    1bc9        ..      SUBS     r1,r1,r7
        0x0000d1ea:    60a1        .`      STR      r1,[r4,#8]
        0x0000d1ec:    9800        ..      LDR      r0,[sp,#0]
        0x0000d1ee:    2400        .$      MOVS     r4,#0
        0x0000d1f0:    45bc        .E      CMP      r12,r7
        0x0000d1f2:    bf28        (.      IT       CS
        0x0000d1f4:    2401        .$      MOVCS    r4,#1
        0x0000d1f6:    f7fffd8f    ....    BL       am_hal_interrupt_master_set ; 0xcd18
        0x0000d1fa:    4620         F      MOV      r0,r4
        0x0000d1fc:    b001        ..      ADD      sp,sp,#4
        0x0000d1fe:    bdf0        ..      POP      {r4-r7,pc}
    am_hal_rtc_osc_disable
        0x0000d200:    f2442050    D.P     MOV      r0,#0x4250
        0x0000d204:    f2c40000    ....    MOVT     r0,#0x4000
        0x0000d208:    6801        .h      LDR      r1,[r0,#0]
        0x0000d20a:    f0410110    A...    ORR      r1,r1,#0x10
        0x0000d20e:    6001        .`      STR      r1,[r0,#0]
        0x0000d210:    4770        pG      BX       lr
    am_hal_sysctrl_fpu_enable
        0x0000d212:    f64e5088    N..P    MOV      r0,#0xed88
        0x0000d216:    f2ce0000    ....    MOVT     r0,#0xe000
        0x0000d21a:    f44f0170    O.p.    MOV      r1,#0xf00000
        0x0000d21e:    6001        .`      STR      r1,[r0,#0]
        0x0000d220:    4770        pG      BX       lr
    am_hal_sysctrl_fpu_stacking_enable
        0x0000d222:    b510        ..      PUSH     {r4,lr}
        0x0000d224:    b082        ..      SUB      sp,sp,#8
        0x0000d226:    4604        .F      MOV      r4,r0
        0x0000d228:    f7fffd6e    ..n.    BL       am_hal_interrupt_master_disable ; 0xcd08
        0x0000d22c:    9001        ..      STR      r0,[sp,#4]
        0x0000d22e:    f64e7034    N.4p    MOV      r0,#0xef34
        0x0000d232:    f2ce0000    ....    MOVT     r0,#0xe000
        0x0000d236:    6801        .h      LDR      r1,[r0,#0]
        0x0000d238:    f04f4200    O..B    MOV      r2,#0x80000000
        0x0000d23c:    f0214140    !.@A    BIC      r1,r1,#0xc0000000
        0x0000d240:    2c00        .,      CMP      r4,#0
        0x0000d242:    bf18        ..      IT       NE
        0x0000d244:    f04f4240    O.@B    MOVNE    r2,#0xc0000000
        0x0000d248:    4411        .D      ADD      r1,r1,r2
        0x0000d24a:    6001        .`      STR      r1,[r0,#0]
        0x0000d24c:    9801        ..      LDR      r0,[sp,#4]
        0x0000d24e:    b002        ..      ADD      sp,sp,#8
        0x0000d250:    e8bd4010    ...@    POP      {r4,lr}
        0x0000d254:    f7ffbd60    ..`.    B.W      am_hal_interrupt_master_set ; 0xcd18
    am_hal_systick_count
        0x0000d258:    f24e0018    N...    MOV      r0,#0xe018
        0x0000d25c:    f2ce0000    ....    MOVT     r0,#0xe000
        0x0000d260:    6800        .h      LDR      r0,[r0,#0]
        0x0000d262:    4770        pG      BX       lr
    am_hal_systick_int_enable
        0x0000d264:    f24e0010    N...    MOV      r0,#0xe010
        0x0000d268:    f2ce0000    ....    MOVT     r0,#0xe000
        0x0000d26c:    6801        .h      LDR      r1,[r0,#0]
        0x0000d26e:    f0410102    A...    ORR      r1,r1,#2
        0x0000d272:    6001        .`      STR      r1,[r0,#0]
        0x0000d274:    4770        pG      BX       lr
    am_hal_systick_load
        0x0000d276:    f24e0114    N...    MOV      r1,#0xe014
        0x0000d27a:    f2ce0100    ....    MOVT     r1,#0xe000
        0x0000d27e:    6008        .`      STR      r0,[r1,#0]
        0x0000d280:    2000        .       MOVS     r0,#0
        0x0000d282:    6048        H`      STR      r0,[r1,#4]
        0x0000d284:    4770        pG      BX       lr
    am_hal_systick_reset
        0x0000d286:    f24e0010    N...    MOV      r0,#0xe010
        0x0000d28a:    f2ce0000    ....    MOVT     r0,#0xe000
        0x0000d28e:    2100        .!      MOVS     r1,#0
        0x0000d290:    6001        .`      STR      r1,[r0,#0]
        0x0000d292:    4770        pG      BX       lr
    am_hal_systick_start
        0x0000d294:    f24e0010    N...    MOV      r0,#0xe010
        0x0000d298:    f2ce0000    ....    MOVT     r0,#0xe000
        0x0000d29c:    6801        .h      LDR      r1,[r0,#0]
        0x0000d29e:    f0410101    A...    ORR      r1,r1,#1
        0x0000d2a2:    6001        .`      STR      r1,[r0,#0]
        0x0000d2a4:    4770        pG      BX       lr
    am_hal_systick_stop
        0x0000d2a6:    f24e0010    N...    MOV      r0,#0xe010
        0x0000d2aa:    f2ce0000    ....    MOVT     r0,#0xe000
        0x0000d2ae:    6801        .h      LDR      r1,[r0,#0]
        0x0000d2b0:    f0210101    !...    BIC      r1,r1,#1
        0x0000d2b4:    6001        .`      STR      r1,[r0,#0]
        0x0000d2b6:    4770        pG      BX       lr
    am_hal_uart_configure
        0x0000d2b8:    e92d4ff0    -..O    PUSH     {r4-r11,lr}
        0x0000d2bc:    b083        ..      SUB      sp,sp,#0xc
        0x0000d2be:    4604        .F      MOV      r4,r0
        0x0000d2c0:    6800        .h      LDR      r0,[r0,#0]
        0x0000d2c2:    f6496a06    I..j    MOV      r10,#0x9e06
        0x0000d2c6:    f2c01aea    ....    MOVT     r10,#0x1ea
        0x0000d2ca:    f020407e     .~@    BIC      r0,r0,#0xfe000000
        0x0000d2ce:    4550        PE      CMP      r0,r10
        0x0000d2d0:    d10e        ..      BNE      0xd2f0 ; am_hal_uart_configure + 56
        0x0000d2d2:    6a60        `j      LDR      r0,[r4,#0x24]
        0x0000d2d4:    f24c0900    L...    MOVW     r9,#0xc000
        0x0000d2d8:    f2c40901    ....    MOVT     r9,#0x4001
        0x0000d2dc:    eb093700    ...7    ADD      r7,r9,r0,LSL #12
        0x0000d2e0:    2000        .       MOVS     r0,#0
        0x0000d2e2:    6338        8c      STR      r0,[r7,#0x30]
        0x0000d2e4:    f8945064    ..dP    LDRB     r5,[r4,#0x64]
        0x0000d2e8:    2d05        .-      CMP      r5,#5
        0x0000d2ea:    d906        ..      BLS      0xd2fa ; am_hal_uart_configure + 66
        0x0000d2ec:    2606        .&      MOVS     r6,#6
        0x0000d2ee:    e000        ..      B        0xd2f2 ; am_hal_uart_configure + 58
        0x0000d2f0:    2602        .&      MOVS     r6,#2
        0x0000d2f2:    4630        0F      MOV      r0,r6
        0x0000d2f4:    b003        ..      ADD      sp,sp,#0xc
        0x0000d2f6:    e8bd8ff0    ....    POP      {r4-r11,pc}
        0x0000d2fa:    f240080c    @...    MOVW     r8,#0xc
        0x0000d2fe:    2603        .&      MOVS     r6,#3
        0x0000d300:    468b        .F      MOV      r11,r1
        0x0000d302:    f2c40802    ....    MOVT     r8,#0x4002
        0x0000d306:    f6c00600    ....    MOVT     r6,#0x800
        0x0000d30a:    f7fffcfd    ....    BL       am_hal_interrupt_master_disable ; 0xcd08
        0x0000d30e:    9002        ..      STR      r0,[sp,#8]
        0x0000d310:    6b38        8k      LDR      r0,[r7,#0x30]
        0x0000d312:    2170        p!      MOVS     r1,#0x70
        0x0000d314:    f0400008    @...    ORR      r0,r0,#8
        0x0000d318:    6338        8c      STR      r0,[r7,#0x30]
        0x0000d31a:    6b38        8k      LDR      r0,[r7,#0x30]
        0x0000d31c:    eb011105    ....    ADD      r1,r1,r5,LSL #4
        0x0000d320:    f0010170    ..p.    AND      r1,r1,#0x70
        0x0000d324:    f0200070     .p.    BIC      r0,r0,#0x70
        0x0000d328:    2d00        .-      CMP      r5,#0
        0x0000d32a:    bf08        ..      IT       EQ
        0x0000d32c:    2110        .!      MOVEQ    r1,#0x10
        0x0000d32e:    4408        .D      ADD      r0,r0,r1
        0x0000d330:    6338        8c      STR      r0,[r7,#0x30]
        0x0000d332:    9802        ..      LDR      r0,[sp,#8]
        0x0000d334:    f7fffcf0    ....    BL       am_hal_interrupt_master_set ; 0xcd18
        0x0000d338:    f7fffce6    ....    BL       am_hal_interrupt_master_disable ; 0xcd08
        0x0000d33c:    9001        ..      STR      r0,[sp,#4]
        0x0000d33e:    6b38        8k      LDR      r0,[r7,#0x30]
        0x0000d340:    f0200001     ...    BIC      r0,r0,#1
        0x0000d344:    6338        8c      STR      r0,[r7,#0x30]
        0x0000d346:    6b38        8k      LDR      r0,[r7,#0x30]
        0x0000d348:    f4207000     ..p    BIC      r0,r0,#0x200
        0x0000d34c:    6338        8c      STR      r0,[r7,#0x30]
        0x0000d34e:    6b38        8k      LDR      r0,[r7,#0x30]
        0x0000d350:    f4207080     ..p    BIC      r0,r0,#0x100
        0x0000d354:    6338        8c      STR      r0,[r7,#0x30]
        0x0000d356:    9801        ..      LDR      r0,[sp,#4]
        0x0000d358:    f7fffcde    ....    BL       am_hal_interrupt_master_set ; 0xcd18
        0x0000d35c:    f8db0000    ....    LDR      r0,[r11,#0]
        0x0000d360:    f8d81000    ....    LDR      r1,[r8,#0]
        0x0000d364:    f5b02f61    ..a/    CMP      r0,#0xe1000
        0x0000d368:    d902        ..      BLS      0xd370 ; am_hal_uart_configure + 184
        0x0000d36a:    b2c9        ..      UXTB     r1,r1
        0x0000d36c:    2912        .)      CMP      r1,#0x12
        0x0000d36e:    d0c0        ..      BEQ      0xd2f2 ; am_hal_uart_configure + 58
        0x0000d370:    f24e3261    N.a2    MOV      r2,#0xe361
        0x0000d374:    f8d81000    ....    LDR      r1,[r8,#0]
        0x0000d378:    f2c00216    ....    MOVT     r2,#0x16
        0x0000d37c:    4290        .B      CMP      r0,r2
        0x0000d37e:    d302        ..      BCC      0xd386 ; am_hal_uart_configure + 206
        0x0000d380:    b2c9        ..      UXTB     r1,r1
        0x0000d382:    2920         )      CMP      r1,#0x20
        0x0000d384:    d8b5        ..      BHI      0xd2f2 ; am_hal_uart_configure + 58
        0x0000d386:    6b39        9k      LDR      r1,[r7,#0x30]
        0x0000d388:    f3c11102    ....    UBFX     r1,r1,#4,#3
        0x0000d38c:    3901        .9      SUBS     r1,#1
        0x0000d38e:    2904        .)      CMP      r1,#4
        0x0000d390:    d208        ..      BCS      0xd3a4 ; am_hal_uart_configure + 236
        0x0000d392:    a24f        O.      ADR      r2,{pc}+0x13e ; 0xd4d0
        0x0000d394:    f8521021    R.!.    LDR      r1,[r2,r1,LSL #2]
        0x0000d398:    ebb11f00    ....    CMP      r1,r0,LSL #4
        0x0000d39c:    d206        ..      BCS      0xd3ac ; am_hal_uart_configure + 244
        0x0000d39e:    2000        .       MOVS     r0,#0
        0x0000d3a0:    6620         f      STR      r0,[r4,#0x60]
        0x0000d3a2:    e7a6        ..      B        0xd2f2 ; am_hal_uart_configure + 58
        0x0000d3a4:    2000        .       MOVS     r0,#0
        0x0000d3a6:    6620         f      STR      r0,[r4,#0x60]
        0x0000d3a8:    3e01        .>      SUBS     r6,#1
        0x0000d3aa:    e7a2        ..      B        0xd2f2 ; am_hal_uart_configure + 58
        0x0000d3ac:    0100        ..      LSLS     r0,r0,#4
        0x0000d3ae:    018b        ..      LSLS     r3,r1,#6
        0x0000d3b0:    fbb1f2f0    ....    UDIV     r2,r1,r0
        0x0000d3b4:    fbb3f0f0    ....    UDIV     r0,r3,r0
        0x0000d3b8:    627a        zb      STR      r2,[r7,#0x24]
        0x0000d3ba:    eba01082    ....    SUB      r0,r0,r2,LSL #6
        0x0000d3be:    0883        ..      LSRS     r3,r0,#2
        0x0000d3c0:    627a        zb      STR      r2,[r7,#0x24]
        0x0000d3c2:    eb031202    ....    ADD      r2,r3,r2,LSL #4
        0x0000d3c6:    fbb1f1f2    ....    UDIV     r1,r1,r2
        0x0000d3ca:    62b8        .b      STR      r0,[r7,#0x28]
        0x0000d3cc:    6621        !f      STR      r1,[r4,#0x60]
        0x0000d3ce:    6b38        8k      LDR      r0,[r7,#0x30]
        0x0000d3d0:    f10b0204    ....    ADD      r2,r11,#4
        0x0000d3d4:    f4204080     ..@    BIC      r0,r0,#0x4000
        0x0000d3d8:    6338        8c      STR      r0,[r7,#0x30]
        0x0000d3da:    6b38        8k      LDR      r0,[r7,#0x30]
        0x0000d3dc:    f4204000     ..@    BIC      r0,r0,#0x8000
        0x0000d3e0:    6338        8c      STR      r0,[r7,#0x30]
        0x0000d3e2:    f8db0010    ....    LDR      r0,[r11,#0x10]
        0x0000d3e6:    6b39        9k      LDR      r1,[r7,#0x30]
        0x0000d3e8:    4308        .C      ORRS     r0,r0,r1
        0x0000d3ea:    6338        8c      STR      r0,[r7,#0x30]
        0x0000d3ec:    f8db0014    ....    LDR      r0,[r11,#0x14]
        0x0000d3f0:    6378        xc      STR      r0,[r7,#0x34]
        0x0000d3f2:    ca07        ..      LDM      r2,{r0-r2}
        0x0000d3f4:    4308        .C      ORRS     r0,r0,r1
        0x0000d3f6:    4310        .C      ORRS     r0,r0,r2
        0x0000d3f8:    f0400010    @...    ORR      r0,r0,#0x10
        0x0000d3fc:    62f8        .b      STR      r0,[r7,#0x2c]
        0x0000d3fe:    f7fffc83    ....    BL       am_hal_interrupt_master_disable ; 0xcd08
        0x0000d402:    9000        ..      STR      r0,[sp,#0]
        0x0000d404:    6b38        8k      LDR      r0,[r7,#0x30]
        0x0000d406:    f0400001    @...    ORR      r0,r0,#1
        0x0000d40a:    6338        8c      STR      r0,[r7,#0x30]
        0x0000d40c:    6b38        8k      LDR      r0,[r7,#0x30]
        0x0000d40e:    f4407000    @..p    ORR      r0,r0,#0x200
        0x0000d412:    6338        8c      STR      r0,[r7,#0x30]
        0x0000d414:    6b38        8k      LDR      r0,[r7,#0x30]
        0x0000d416:    f4407080    @..p    ORR      r0,r0,#0x100
        0x0000d41a:    6338        8c      STR      r0,[r7,#0x30]
        0x0000d41c:    9800        ..      LDR      r0,[sp,#0]
        0x0000d41e:    f7fffc7b    ..{.    BL       am_hal_interrupt_master_set ; 0xcd18
        0x0000d422:    6820         h      LDR      r0,[r4,#0]
        0x0000d424:    f020407e     .~@    BIC      r0,r0,#0xfe000000
        0x0000d428:    4550        PE      CMP      r0,r10
        0x0000d42a:    d14f        O.      BNE      0xd4cc ; am_hal_uart_configure + 532
        0x0000d42c:    f8db1018    ....    LDR      r1,[r11,#0x18]
        0x0000d430:    e9db6808    ...h    LDRD     r6,r8,[r11,#0x20]
        0x0000d434:    b1b1        ..      CBZ      r1,0xd464 ; am_hal_uart_configure + 428
        0x0000d436:    f8db301c    ...0    LDR      r3,[r11,#0x1c]
        0x0000d43a:    b19b        ..      CBZ      r3,0xd464 ; am_hal_uart_configure + 428
        0x0000d43c:    2001        .       MOVS     r0,#1
        0x0000d43e:    f8840028    ..(.    STRB     r0,[r4,#0x28]
        0x0000d442:    f104002c    ..,.    ADD      r0,r4,#0x2c
        0x0000d446:    2201        ."      MOVS     r2,#1
        0x0000d448:    f7fffe69    ..i.    BL       am_hal_queue_init ; 0xd11e
        0x0000d44c:    6820         h      LDR      r0,[r4,#0]
        0x0000d44e:    f020407e     .~@    BIC      r0,r0,#0xfe000000
        0x0000d452:    4550        PE      CMP      r0,r10
        0x0000d454:    d13a        :.      BNE      0xd4cc ; am_hal_uart_configure + 532
        0x0000d456:    6a60        `j      LDR      r0,[r4,#0x24]
        0x0000d458:    eb093000    ...0    ADD      r0,r9,r0,LSL #12
        0x0000d45c:    6b81        .k      LDR      r1,[r0,#0x38]
        0x0000d45e:    f0410120    A. .    ORR      r1,r1,#0x20
        0x0000d462:    e008        ..      B        0xd476 ; am_hal_uart_configure + 446
        0x0000d464:    6a61        aj      LDR      r1,[r4,#0x24]
        0x0000d466:    2000        .       MOVS     r0,#0
        0x0000d468:    f8840028    ..(.    STRB     r0,[r4,#0x28]
        0x0000d46c:    eb093001    ...0    ADD      r0,r9,r1,LSL #12
        0x0000d470:    6b81        .k      LDR      r1,[r0,#0x38]
        0x0000d472:    f0210120    !. .    BIC      r1,r1,#0x20
        0x0000d476:    6381        .c      STR      r1,[r0,#0x38]
        0x0000d478:    b1c6        ..      CBZ      r6,0xd4ac ; am_hal_uart_configure + 500
        0x0000d47a:    f1b80f00    ....    CMP      r8,#0
        0x0000d47e:    d015        ..      BEQ      0xd4ac ; am_hal_uart_configure + 500
        0x0000d480:    2001        .       MOVS     r0,#1
        0x0000d482:    f8840044    ..D.    STRB     r0,[r4,#0x44]
        0x0000d486:    f1040048    ..H.    ADD      r0,r4,#0x48
        0x0000d48a:    4631        1F      MOV      r1,r6
        0x0000d48c:    2201        ."      MOVS     r2,#1
        0x0000d48e:    4643        CF      MOV      r3,r8
        0x0000d490:    f7fffe45    ..E.    BL       am_hal_queue_init ; 0xd11e
        0x0000d494:    6820         h      LDR      r0,[r4,#0]
        0x0000d496:    f020407e     .~@    BIC      r0,r0,#0xfe000000
        0x0000d49a:    4550        PE      CMP      r0,r10
        0x0000d49c:    d116        ..      BNE      0xd4cc ; am_hal_uart_configure + 532
        0x0000d49e:    6a60        `j      LDR      r0,[r4,#0x24]
        0x0000d4a0:    eb093000    ...0    ADD      r0,r9,r0,LSL #12
        0x0000d4a4:    6b81        .k      LDR      r1,[r0,#0x38]
        0x0000d4a6:    f0410150    A.P.    ORR      r1,r1,#0x50
        0x0000d4aa:    e00e        ..      B        0xd4ca ; am_hal_uart_configure + 530
        0x0000d4ac:    6820         h      LDR      r0,[r4,#0]
        0x0000d4ae:    2600        .&      MOVS     r6,#0
        0x0000d4b0:    f020407e     .~@    BIC      r0,r0,#0xfe000000
        0x0000d4b4:    4550        PE      CMP      r0,r10
        0x0000d4b6:    f8846044    ..D`    STRB     r6,[r4,#0x44]
        0x0000d4ba:    f47faf1a    ....    BNE      0xd2f2 ; am_hal_uart_configure + 58
        0x0000d4be:    6a60        `j      LDR      r0,[r4,#0x24]
        0x0000d4c0:    eb093000    ...0    ADD      r0,r9,r0,LSL #12
        0x0000d4c4:    6b81        .k      LDR      r1,[r0,#0x38]
        0x0000d4c6:    f0210150    !.P.    BIC      r1,r1,#0x50
        0x0000d4ca:    6381        .c      STR      r1,[r0,#0x38]
        0x0000d4cc:    2600        .&      MOVS     r6,#0
        0x0000d4ce:    e710        ..      B        0xd2f2 ; am_hal_uart_configure + 58
    $d.5
        0x0000d4d0:    016e3600    .6n.    DCD    24000000
        0x0000d4d4:    00b71b00    ....    DCD    12000000
        0x0000d4d8:    005b8d80    ..[.    DCD    6000000
        0x0000d4dc:    002dc6c0    ..-.    DCD    3000000
    $t.1
    am_hal_uart_deinitialize
        0x0000d4e0:    b180        ..      CBZ      r0,0xd504 ; am_hal_uart_deinitialize + 36
        0x0000d4e2:    4601        .F      MOV      r1,r0
        0x0000d4e4:    6800        .h      LDR      r0,[r0,#0]
        0x0000d4e6:    f6496306    I..c    MOV      r3,#0x9e06
        0x0000d4ea:    f020427e     .~B    BIC      r2,r0,#0xfe000000
        0x0000d4ee:    f2c013ea    ....    MOVT     r3,#0x1ea
        0x0000d4f2:    429a        .B      CMP      r2,r3
        0x0000d4f4:    d106        ..      BNE      0xd504 ; am_hal_uart_deinitialize + 36
        0x0000d4f6:    f0207080     ..p    BIC      r0,r0,#0x1000000
        0x0000d4fa:    6008        .`      STR      r0,[r1,#0]
        0x0000d4fc:    2000        .       MOVS     r0,#0
        0x0000d4fe:    6248        Hb      STR      r0,[r1,#0x24]
        0x0000d500:    7108        .q      STRB     r0,[r1,#4]
        0x0000d502:    4770        pG      BX       lr
        0x0000d504:    2002        .       MOVS     r0,#2
        0x0000d506:    4770        pG      BX       lr
    am_hal_uart_initialize
        0x0000d508:    b580        ..      PUSH     {r7,lr}
        0x0000d50a:    2801        .(      CMP      r0,#1
        0x0000d50c:    bf84        ..      ITT      HI
        0x0000d50e:    2005        .       MOVHI    r0,#5
        0x0000d510:    bd80        ..      POPHI    {r7,pc}
        0x0000d512:    b309        ..      CBZ      r1,0xd558 ; am_hal_uart_initialize + 80
        0x0000d514:    f2414cac    A..L    MOV      r12,#0x14ac
        0x0000d518:    f04f0e68    O.h.    MOV      lr,#0x68
        0x0000d51c:    f2c10c00    ....    MOVT     r12,#0x1000
        0x0000d520:    fb00f20e    ....    MUL      r2,r0,lr
        0x0000d524:    f85c2002    \..     LDR      r2,[r12,r2]
        0x0000d528:    01d3        ..      LSLS     r3,r2,#7
        0x0000d52a:    bf44        D.      ITT      MI
        0x0000d52c:    2007        .       MOVMI    r0,#7
        0x0000d52e:    bd80        ..      POPMI    {r7,pc}
        0x0000d530:    fb00cc0e    ....    MLA      r12,r0,lr,r12
        0x0000d534:    f6496306    I..c    MOV      r3,#0x9e06
        0x0000d538:    f2c013ea    ....    MOVT     r3,#0x1ea
        0x0000d53c:    f3630218    c...    BFI      r2,r3,#0,#25
        0x0000d540:    f8cc0024    ..$.    STR      r0,[r12,#0x24]
        0x0000d544:    2000        .       MOVS     r0,#0
        0x0000d546:    f8cc2000    ...     STR      r2,[r12,#0]
        0x0000d54a:    f88c0004    ....    STRB     r0,[r12,#4]
        0x0000d54e:    f8cc0060    ..`.    STR      r0,[r12,#0x60]
        0x0000d552:    f8c1c000    ....    STR      r12,[r1,#0]
        0x0000d556:    bd80        ..      POP      {r7,pc}
        0x0000d558:    2006        .       MOVS     r0,#6
        0x0000d55a:    bd80        ..      POP      {r7,pc}
    am_hal_uart_power_control
        0x0000d55c:    e92d41f0    -..A    PUSH     {r4-r8,lr}
        0x0000d560:    b082        ..      SUB      sp,sp,#8
        0x0000d562:    4604        .F      MOV      r4,r0
        0x0000d564:    6800        .h      LDR      r0,[r0,#0]
        0x0000d566:    f6496706    I..g    MOV      r7,#0x9e06
        0x0000d56a:    f2c017ea    ....    MOVT     r7,#0x1ea
        0x0000d56e:    f020437e     .~C    BIC      r3,r0,#0xfe000000
        0x0000d572:    42bb        .B      CMP      r3,r7
        0x0000d574:    d135        5.      BNE      0xd5e2 ; am_hal_uart_power_control + 134
        0x0000d576:    6a65        ej      LDR      r5,[r4,#0x24]
        0x0000d578:    1e4b        K.      SUBS     r3,r1,#1
        0x0000d57a:    2b02        .+      CMP      r3,#2
        0x0000d57c:    f1050608    ....    ADD      r6,r5,#8
        0x0000d580:    d234        4.      BCS      0xd5ec ; am_hal_uart_power_control + 144
        0x0000d582:    f24c0800    L...    MOVW     r8,#0xc000
        0x0000d586:    f2c40801    ....    MOVT     r8,#0x4001
        0x0000d58a:    b1c2        ..      CBZ      r2,0xd5be ; am_hal_uart_power_control + 98
        0x0000d58c:    f7fffbbc    ....    BL       am_hal_interrupt_master_disable ; 0xcd08
        0x0000d590:    9000        ..      STR      r0,[sp,#0]
        0x0000d592:    eb083005    ...0    ADD      r0,r8,r5,LSL #12
        0x0000d596:    6a01        .j      LDR      r1,[r0,#0x20]
        0x0000d598:    60a1        .`      STR      r1,[r4,#8]
        0x0000d59a:    6a41        Aj      LDR      r1,[r0,#0x24]
        0x0000d59c:    60e1        .`      STR      r1,[r4,#0xc]
        0x0000d59e:    6a81        .j      LDR      r1,[r0,#0x28]
        0x0000d5a0:    6121        !a      STR      r1,[r4,#0x10]
        0x0000d5a2:    6ac1        .j      LDR      r1,[r0,#0x2c]
        0x0000d5a4:    6161        aa      STR      r1,[r4,#0x14]
        0x0000d5a6:    6b01        .k      LDR      r1,[r0,#0x30]
        0x0000d5a8:    61a1        .a      STR      r1,[r4,#0x18]
        0x0000d5aa:    6b41        Ak      LDR      r1,[r0,#0x34]
        0x0000d5ac:    61e1        .a      STR      r1,[r4,#0x1c]
        0x0000d5ae:    6b80        .k      LDR      r0,[r0,#0x38]
        0x0000d5b0:    6220         b      STR      r0,[r4,#0x20]
        0x0000d5b2:    2001        .       MOVS     r0,#1
        0x0000d5b4:    7120         q      STRB     r0,[r4,#4]
        0x0000d5b6:    9800        ..      LDR      r0,[sp,#0]
        0x0000d5b8:    f7fffbae    ....    BL       am_hal_interrupt_master_set ; 0xcd18
        0x0000d5bc:    6820         h      LDR      r0,[r4,#0]
        0x0000d5be:    f020407e     .~@    BIC      r0,r0,#0xfe000000
        0x0000d5c2:    42b8        .B      CMP      r0,r7
        0x0000d5c4:    d105        ..      BNE      0xd5d2 ; am_hal_uart_power_control + 118
        0x0000d5c6:    6a60        `j      LDR      r0,[r4,#0x24]
        0x0000d5c8:    f04f31ff    O..1    MOV      r1,#0xffffffff
        0x0000d5cc:    eb083000    ...0    ADD      r0,r8,r0,LSL #12
        0x0000d5d0:    6441        Ad      STR      r1,[r0,#0x44]
        0x0000d5d2:    eb083005    ...0    ADD      r0,r8,r5,LSL #12
        0x0000d5d6:    2500        .%      MOVS     r5,#0
        0x0000d5d8:    6305        .c      STR      r5,[r0,#0x30]
        0x0000d5da:    b2f0        ..      UXTB     r0,r6
        0x0000d5dc:    f7fffd24    ..$.    BL       am_hal_pwrctrl_periph_disable ; 0xd028
        0x0000d5e0:    e000        ..      B        0xd5e4 ; am_hal_uart_power_control + 136
        0x0000d5e2:    2502        .%      MOVS     r5,#2
        0x0000d5e4:    4628        (F      MOV      r0,r5
        0x0000d5e6:    b002        ..      ADD      sp,sp,#8
        0x0000d5e8:    e8bd81f0    ....    POP      {r4-r8,pc}
        0x0000d5ec:    bb11        ..      CBNZ     r1,0xd634 ; am_hal_uart_power_control + 216
        0x0000d5ee:    b31a        ..      CBZ      r2,0xd638 ; am_hal_uart_power_control + 220
        0x0000d5f0:    7920         y      LDRB     r0,[r4,#4]
        0x0000d5f2:    b330        0.      CBZ      r0,0xd642 ; am_hal_uart_power_control + 230
        0x0000d5f4:    b2f0        ..      UXTB     r0,r6
        0x0000d5f6:    f7fffd5b    ..[.    BL       am_hal_pwrctrl_periph_enable ; 0xd0b0
        0x0000d5fa:    f7fffb85    ....    BL       am_hal_interrupt_master_disable ; 0xcd08
        0x0000d5fe:    9001        ..      STR      r0,[sp,#4]
        0x0000d600:    f24c0100    L...    MOVW     r1,#0xc000
        0x0000d604:    68a0        .h      LDR      r0,[r4,#8]
        0x0000d606:    f2c40101    ....    MOVT     r1,#0x4001
        0x0000d60a:    eb013105    ...1    ADD      r1,r1,r5,LSL #12
        0x0000d60e:    6208        .b      STR      r0,[r1,#0x20]
        0x0000d610:    68e0        .h      LDR      r0,[r4,#0xc]
        0x0000d612:    2500        .%      MOVS     r5,#0
        0x0000d614:    6248        Hb      STR      r0,[r1,#0x24]
        0x0000d616:    6920         i      LDR      r0,[r4,#0x10]
        0x0000d618:    6288        .b      STR      r0,[r1,#0x28]
        0x0000d61a:    6960        `i      LDR      r0,[r4,#0x14]
        0x0000d61c:    62c8        .b      STR      r0,[r1,#0x2c]
        0x0000d61e:    69a0        .i      LDR      r0,[r4,#0x18]
        0x0000d620:    6308        .c      STR      r0,[r1,#0x30]
        0x0000d622:    69e0        .i      LDR      r0,[r4,#0x1c]
        0x0000d624:    6348        Hc      STR      r0,[r1,#0x34]
        0x0000d626:    6a20         j      LDR      r0,[r4,#0x20]
        0x0000d628:    6388        .c      STR      r0,[r1,#0x38]
        0x0000d62a:    7125        %q      STRB     r5,[r4,#4]
        0x0000d62c:    9801        ..      LDR      r0,[sp,#4]
        0x0000d62e:    f7fffb73    ..s.    BL       am_hal_interrupt_master_set ; 0xcd18
        0x0000d632:    e7d7        ..      B        0xd5e4 ; am_hal_uart_power_control + 136
        0x0000d634:    2506        .%      MOVS     r5,#6
        0x0000d636:    e7d5        ..      B        0xd5e4 ; am_hal_uart_power_control + 136
        0x0000d638:    b2f0        ..      UXTB     r0,r6
        0x0000d63a:    f7fffd39    ..9.    BL       am_hal_pwrctrl_periph_enable ; 0xd0b0
        0x0000d63e:    2500        .%      MOVS     r5,#0
        0x0000d640:    e7d0        ..      B        0xd5e4 ; am_hal_uart_power_control + 136
        0x0000d642:    2507        .%      MOVS     r5,#7
        0x0000d644:    e7ce        ..      B        0xd5e4 ; am_hal_uart_power_control + 136
        0x0000d646:    0000        ..      MOVS     r0,r0
    am_hal_uart_transfer
        0x0000d648:    e92d4ff0    -..O    PUSH     {r4-r11,lr}
        0x0000d64c:    b083        ..      SUB      sp,sp,#0xc
        0x0000d64e:    680a        .h      LDR      r2,[r1,#0]
        0x0000d650:    4604        .F      MOV      r4,r0
        0x0000d652:    2a01        .*      CMP      r2,#1
        0x0000d654:    d02e        ..      BEQ      0xd6b4 ; am_hal_uart_transfer + 108
        0x0000d656:    2a00        .*      CMP      r2,#0
        0x0000d658:    d158        X.      BNE      0xd70c ; am_hal_uart_transfer + 196
        0x0000d65a:    f1010a04    ....    ADD      r10,r1,#4
        0x0000d65e:    e89a04c0    ....    LDM      r10,{r6,r7,r10}
        0x0000d662:    690b        .i      LDR      r3,[r1,#0x10]
        0x0000d664:    f1ba0f00    ....    CMP      r10,#0
        0x0000d668:    d055        U.      BEQ      0xd716 ; am_hal_uart_transfer + 206
        0x0000d66a:    2f00        ./      CMP      r7,#0
        0x0000d66c:    d050        P.      BEQ      0xd710 ; am_hal_uart_transfer + 200
        0x0000d66e:    f1ba38ff    ...8    SUBS     r8,r10,#0xffffffff
        0x0000d672:    f10d0904    ....    ADD      r9,sp,#4
        0x0000d676:    f04f0500    O...    MOV      r5,#0
        0x0000d67a:    f04f0b00    O...    MOV      r11,#0
        0x0000d67e:    9300        ..      STR      r3,[sp,#0]
        0x0000d680:    bf18        ..      IT       NE
        0x0000d682:    f04f0801    O...    MOVNE    r8,#1
        0x0000d686:    bf00        ..      NOP      
        0x0000d688:    2000        .       MOVS     r0,#0
        0x0000d68a:    9001        ..      STR      r0,[sp,#4]
        0x0000d68c:    1971        q.      ADDS     r1,r6,r5
        0x0000d68e:    4620         F      MOV      r0,r4
        0x0000d690:    463a        :F      MOV      r2,r7
        0x0000d692:    464b        KF      MOV      r3,r9
        0x0000d694:    f002f9f4    ....    BL       write_nonblocking ; 0xfa80
        0x0000d698:    9901        ..      LDR      r1,[sp,#4]
        0x0000d69a:    2800        .(      CMP      r0,#0
        0x0000d69c:    440d        .D      ADD      r5,r5,r1
        0x0000d69e:    d146        F.      BNE      0xd72e ; am_hal_uart_transfer + 230
        0x0000d6a0:    1a7f        ..      SUBS     r7,r7,r1
        0x0000d6a2:    d048        H.      BEQ      0xd736 ; am_hal_uart_transfer + 238
        0x0000d6a4:    f44f507a    O.zP    MOV      r0,#0x3e80
        0x0000d6a8:    f7fff952    ..R.    BL       am_hal_flash_delay ; 0xc950
        0x0000d6ac:    44c3        .D      ADD      r11,r11,r8
        0x0000d6ae:    45d3        .E      CMP      r11,r10
        0x0000d6b0:    d3ea        ..      BCC      0xd688 ; am_hal_uart_transfer + 64
        0x0000d6b2:    e029        ).      B        0xd708 ; am_hal_uart_transfer + 192
        0x0000d6b4:    f1010a04    ....    ADD      r10,r1,#4
        0x0000d6b8:    e89a04c0    ....    LDM      r10,{r6,r7,r10}
        0x0000d6bc:    690b        .i      LDR      r3,[r1,#0x10]
        0x0000d6be:    f1ba0f00    ....    CMP      r10,#0
        0x0000d6c2:    d02e        ..      BEQ      0xd722 ; am_hal_uart_transfer + 218
        0x0000d6c4:    b327        '.      CBZ      r7,0xd710 ; am_hal_uart_transfer + 200
        0x0000d6c6:    f1ba38ff    ...8    SUBS     r8,r10,#0xffffffff
        0x0000d6ca:    f10d0908    ....    ADD      r9,sp,#8
        0x0000d6ce:    f04f0500    O...    MOV      r5,#0
        0x0000d6d2:    f04f0b00    O...    MOV      r11,#0
        0x0000d6d6:    9300        ..      STR      r3,[sp,#0]
        0x0000d6d8:    bf18        ..      IT       NE
        0x0000d6da:    f04f0801    O...    MOVNE    r8,#1
        0x0000d6de:    bf00        ..      NOP      
        0x0000d6e0:    2000        .       MOVS     r0,#0
        0x0000d6e2:    9002        ..      STR      r0,[sp,#8]
        0x0000d6e4:    1971        q.      ADDS     r1,r6,r5
        0x0000d6e6:    4620         F      MOV      r0,r4
        0x0000d6e8:    463a        :F      MOV      r2,r7
        0x0000d6ea:    464b        KF      MOV      r3,r9
        0x0000d6ec:    f002f820    .. .    BL       read_nonblocking ; 0xf730
        0x0000d6f0:    9902        ..      LDR      r1,[sp,#8]
        0x0000d6f2:    440d        .D      ADD      r5,r5,r1
        0x0000d6f4:    b9d8        ..      CBNZ     r0,0xd72e ; am_hal_uart_transfer + 230
        0x0000d6f6:    1a7f        ..      SUBS     r7,r7,r1
        0x0000d6f8:    d01d        ..      BEQ      0xd736 ; am_hal_uart_transfer + 238
        0x0000d6fa:    f44f507a    O.zP    MOV      r0,#0x3e80
        0x0000d6fe:    f7fff927    ..'.    BL       am_hal_flash_delay ; 0xc950
        0x0000d702:    44c3        .D      ADD      r11,r11,r8
        0x0000d704:    45d3        .E      CMP      r11,r10
        0x0000d706:    d3eb        ..      BCC      0xd6e0 ; am_hal_uart_transfer + 152
        0x0000d708:    2000        .       MOVS     r0,#0
        0x0000d70a:    e018        ..      B        0xd73e ; am_hal_uart_transfer + 246
        0x0000d70c:    2007        .       MOVS     r0,#7
        0x0000d70e:    e021        !.      B        0xd754 ; am_hal_uart_transfer + 268
        0x0000d710:    2001        .       MOVS     r0,#1
        0x0000d712:    2500        .%      MOVS     r5,#0
        0x0000d714:    e014        ..      B        0xd740 ; am_hal_uart_transfer + 248
        0x0000d716:    4620         F      MOV      r0,r4
        0x0000d718:    4631        1F      MOV      r1,r6
        0x0000d71a:    463a        :F      MOV      r2,r7
        0x0000d71c:    f002f9b0    ....    BL       write_nonblocking ; 0xfa80
        0x0000d720:    e018        ..      B        0xd754 ; am_hal_uart_transfer + 268
        0x0000d722:    4620         F      MOV      r0,r4
        0x0000d724:    4631        1F      MOV      r1,r6
        0x0000d726:    463a        :F      MOV      r2,r7
        0x0000d728:    f002f802    ....    BL       read_nonblocking ; 0xf730
        0x0000d72c:    e012        ..      B        0xd754 ; am_hal_uart_transfer + 268
        0x0000d72e:    9900        ..      LDR      r1,[sp,#0]
        0x0000d730:    b181        ..      CBZ      r1,0xd754 ; am_hal_uart_transfer + 268
        0x0000d732:    600d        .`      STR      r5,[r1,#0]
        0x0000d734:    e00e        ..      B        0xd754 ; am_hal_uart_transfer + 268
        0x0000d736:    2000        .       MOVS     r0,#0
        0x0000d738:    45d3        .E      CMP      r11,r10
        0x0000d73a:    bf38        8.      IT       CC
        0x0000d73c:    2001        .       MOVCC    r0,#1
        0x0000d73e:    9b00        ..      LDR      r3,[sp,#0]
        0x0000d740:    b103        ..      CBZ      r3,0xd744 ; am_hal_uart_transfer + 252
        0x0000d742:    601d        .`      STR      r5,[r3,#0]
        0x0000d744:    2104        .!      MOVS     r1,#4
        0x0000d746:    2800        .(      CMP      r0,#0
        0x0000d748:    bf18        ..      IT       NE
        0x0000d74a:    2100        .!      MOVNE    r1,#0
        0x0000d74c:    f1ba30ff    ...0    SUBS     r0,r10,#0xffffffff
        0x0000d750:    bf18        ..      IT       NE
        0x0000d752:    4608        .F      MOVNE    r0,r1
        0x0000d754:    b003        ..      ADD      sp,sp,#0xc
        0x0000d756:    e8bd8ff0    ....    POP      {r4-r11,pc}
        0x0000d75a:    0000        ..      MOVS     r0,r0
    am_hal_uart_tx_flush
        0x0000d75c:    b570        p.      PUSH     {r4-r6,lr}
        0x0000d75e:    4604        .F      MOV      r4,r0
        0x0000d760:    f8900028    ..(.    LDRB     r0,[r0,#0x28]
        0x0000d764:    6a65        ej      LDR      r5,[r4,#0x24]
        0x0000d766:    b170        p.      CBZ      r0,0xd786 ; am_hal_uart_tx_flush + 42
        0x0000d768:    6b60        `k      LDR      r0,[r4,#0x34]
        0x0000d76a:    b160        `.      CBZ      r0,0xd786 ; am_hal_uart_tx_flush + 42
        0x0000d76c:    f6413600    A..6    MOVW     r6,#0x1b00
        0x0000d770:    f2c006b7    ....    MOVT     r6,#0xb7
        0x0000d774:    6e20         n      LDR      r0,[r4,#0x60]
        0x0000d776:    fbb6f0f0    ....    UDIV     r0,r6,r0
        0x0000d77a:    0100        ..      LSLS     r0,r0,#4
        0x0000d77c:    f7fff8e8    ....    BL       am_hal_flash_delay ; 0xc950
        0x0000d780:    6b60        `k      LDR      r0,[r4,#0x34]
        0x0000d782:    2800        .(      CMP      r0,#0
        0x0000d784:    d1f6        ..      BNE      0xd774 ; am_hal_uart_tx_flush + 24
        0x0000d786:    f24c0118    L...    MOV      r1,#0xc018
        0x0000d78a:    0328        (.      LSLS     r0,r5,#12
        0x0000d78c:    f2c40101    ....    MOVT     r1,#0x4001
        0x0000d790:    5808        .X      LDR      r0,[r1,r0]
        0x0000d792:    0700        ..      LSLS     r0,r0,#28
        0x0000d794:    d513        ..      BPL      0xd7be ; am_hal_uart_tx_flush + 98
        0x0000d796:    f24c0000    L...    MOVW     r0,#0xc000
        0x0000d79a:    f2c40001    ....    MOVT     r0,#0x4001
        0x0000d79e:    f6413600    A..6    MOVW     r6,#0x1b00
        0x0000d7a2:    eb003505    ...5    ADD      r5,r0,r5,LSL #12
        0x0000d7a6:    f2c006b7    ....    MOVT     r6,#0xb7
        0x0000d7aa:    bf00        ..      NOP      
        0x0000d7ac:    6e20         n      LDR      r0,[r4,#0x60]
        0x0000d7ae:    fbb6f0f0    ....    UDIV     r0,r6,r0
        0x0000d7b2:    0100        ..      LSLS     r0,r0,#4
        0x0000d7b4:    f7fff8cc    ....    BL       am_hal_flash_delay ; 0xc950
        0x0000d7b8:    69a8        .i      LDR      r0,[r5,#0x18]
        0x0000d7ba:    0700        ..      LSLS     r0,r0,#28
        0x0000d7bc:    d4f6        ..      BMI      0xd7ac ; am_hal_uart_tx_flush + 80
        0x0000d7be:    2000        .       MOVS     r0,#0
        0x0000d7c0:    bd70        p.      POP      {r4-r6,pc}
        0x0000d7c2:    0000        ..      MOVS     r0,r0
    am_sprintf
        0x0000d7c4:    b083        ..      SUB      sp,sp,#0xc
        0x0000d7c6:    b570        p.      PUSH     {r4-r6,lr}
        0x0000d7c8:    b081        ..      SUB      sp,sp,#4
        0x0000d7ca:    f10d0c14    ....    ADD      r12,sp,#0x14
        0x0000d7ce:    f2410498    A...    MOV      r4,#0x1098
        0x0000d7d2:    e88c000e    ....    STM      r12,{r1-r3}
        0x0000d7d6:    f2c10400    ....    MOVT     r4,#0x1000
        0x0000d7da:    6822        "h      LDR      r2,[r4,#0]
        0x0000d7dc:    2100        .!      MOVS     r1,#0
        0x0000d7de:    ebb12f92    .../    CMP      r1,r2,LSR #10
        0x0000d7e2:    d12c        ,.      BNE      0xd83e ; am_sprintf + 122
        0x0000d7e4:    f241059c    A...    MOV      r5,#0x109c
        0x0000d7e8:    f2c10500    ....    MOVT     r5,#0x1000
        0x0000d7ec:    4603        .F      MOV      r3,r0
        0x0000d7ee:    6828        (h      LDR      r0,[r5,#0]
        0x0000d7f0:    aa05        ..      ADD      r2,sp,#0x14
        0x0000d7f2:    4619        .F      MOV      r1,r3
        0x0000d7f4:    9200        ..      STR      r2,[sp,#0]
        0x0000d7f6:    f000f8dd    ....    BL       am_util_stdio_vsprintf ; 0xd9b4
        0x0000d7fa:    6822        "h      LDR      r2,[r4,#0]
        0x0000d7fc:    4601        .F      MOV      r1,r0
        0x0000d7fe:    4410        .D      ADD      r0,r0,r2
        0x0000d800:    f5b06f80    ...o    CMP      r0,#0x400
        0x0000d804:    d311        ..      BCC      0xd82a ; am_sprintf + 102
        0x0000d806:    f24106a0    A...    MOVW     r6,#0x10a0
        0x0000d80a:    f2c10600    ....    MOVT     r6,#0x1000
        0x0000d80e:    f20630d7    ...0    ADD      r0,r6,#0x3d7
        0x0000d812:    a10e        ..      ADR      r1,{pc}+0x3a ; 0xd84c
        0x0000d814:    f000f8c0    ....    BL       am_util_stdio_sprintf ; 0xd998
        0x0000d818:    2100        .!      MOVS     r1,#0
        0x0000d81a:    f5066080    ...`    ADD      r0,r6,#0x400
        0x0000d81e:    f88613ff    ....    STRB     r1,[r6,#0x3ff]
        0x0000d822:    6028        (`      STR      r0,[r5,#0]
        0x0000d824:    f44f6080    O..`    MOV      r0,#0x400
        0x0000d828:    e008        ..      B        0xd83c ; am_sprintf + 120
        0x0000d82a:    6828        (h      LDR      r0,[r5,#0]
        0x0000d82c:    4408        .D      ADD      r0,r0,r1
        0x0000d82e:    3001        .0      ADDS     r0,#1
        0x0000d830:    6028        (`      STR      r0,[r5,#0]
        0x0000d832:    6820         h      LDR      r0,[r4,#0]
        0x0000d834:    4408        .D      ADD      r0,r0,r1
        0x0000d836:    6020         `      STR      r0,[r4,#0]
        0x0000d838:    6820         h      LDR      r0,[r4,#0]
        0x0000d83a:    3001        .0      ADDS     r0,#1
        0x0000d83c:    6020         `      STR      r0,[r4,#0]
        0x0000d83e:    4608        .F      MOV      r0,r1
        0x0000d840:    b001        ..      ADD      sp,sp,#4
        0x0000d842:    e8bd4070    ..p@    POP      {r4-r6,lr}
        0x0000d846:    b003        ..      ADD      sp,sp,#0xc
        0x0000d848:    4770        pG      BX       lr
        0x0000d84a:    bf00        ..      NOP      
    $d.11
        0x0000d84c:    46465542    BUFF    DCD    1179014466
        0x0000d850:    4f205245    ER O    DCD    1327518277
        0x0000d854:    46524556    VERF    DCD    1179796822
        0x0000d858:    45574f4c    LOWE    DCD    1163349836
        0x0000d85c:    49202144    D! I    DCD    1226842436
        0x0000d860:    6572636e    ncre    DCD    1701995374
        0x0000d864:    20657361    ase     DCD    543519585
        0x0000d868:    42545250    PRTB    DCD    1112822352
        0x0000d86c:    49534655    UFSI    DCD    1230194261
        0x0000d870:    000a455a    ZE..    DCD    673114
    $t.1
    am_util_delay_ms
        0x0000d874:    b510        ..      PUSH     {r4,lr}
        0x0000d876:    b084        ..      SUB      sp,sp,#0x10
        0x0000d878:    4604        .F      MOV      r4,r0
        0x0000d87a:    a801        ..      ADD      r0,sp,#4
        0x0000d87c:    f7fff84c    ..L.    BL       am_hal_clkgen_status_get ; 0xc918
        0x0000d880:    9801        ..      LDR      r0,[sp,#4]
        0x0000d882:    f64111f1    A...    MOV      r1,#0x19f1
        0x0000d886:    f2c05176    ..vQ    MOVT     r1,#0x576
        0x0000d88a:    fba00101    ....    UMULL    r0,r1,r0,r1
        0x0000d88e:    0988        ..      LSRS     r0,r1,#6
        0x0000d890:    4360        `C      MULS     r0,r4,r0
        0x0000d892:    f7fff85d    ..].    BL       am_hal_flash_delay ; 0xc950
        0x0000d896:    b004        ..      ADD      sp,sp,#0x10
        0x0000d898:    bd10        ..      POP      {r4,pc}
        0x0000d89a:    0000        ..      MOVS     r0,r0
    am_util_faultisr_collect_data
        0x0000d89c:    b092        ..      SUB      sp,sp,#0x48
        0x0000d89e:    4604        .F      MOV      r4,r0
        0x0000d8a0:    4668        hF      MOV      r0,sp
        0x0000d8a2:    2118        .!      MOVS     r1,#0x18
        0x0000d8a4:    f7fefcc4    ....    BL       __aeabi_memclr4 ; 0xc230
        0x0000d8a8:    2000        .       MOVS     r0,#0
        0x0000d8aa:    9007        ..      STR      r0,[sp,#0x1c]
        0x0000d8ac:    f64e5028    N.(P    MOV      r0,#0xed28
        0x0000d8b0:    f2ce0000    ....    MOVT     r0,#0xe000
        0x0000d8b4:    6801        .h      LDR      r1,[r0,#0]
        0x0000d8b6:    9107        ..      STR      r1,[sp,#0x1c]
        0x0000d8b8:    9907        ..      LDR      r1,[sp,#0x1c]
        0x0000d8ba:    f88d101b    ....    STRB     r1,[sp,#0x1b]
        0x0000d8be:    9907        ..      LDR      r1,[sp,#0x1c]
        0x0000d8c0:    0a09        ..      LSRS     r1,r1,#8
        0x0000d8c2:    f88d101a    ....    STRB     r1,[sp,#0x1a]
        0x0000d8c6:    9907        ..      LDR      r1,[sp,#0x1c]
        0x0000d8c8:    0c09        ..      LSRS     r1,r1,#16
        0x0000d8ca:    f8ad1018    ....    STRH     r1,[sp,#0x18]
        0x0000d8ce:    6900        .i      LDR      r0,[r0,#0x10]
        0x0000d8d0:    9008        ..      STR      r0,[sp,#0x20]
        0x0000d8d2:    f89d001a    ....    LDRB     r0,[sp,#0x1a]
        0x0000d8d6:    0780        ..      LSLS     r0,r0,#30
        0x0000d8d8:    d402        ..      BMI      0xd8e0 ; am_util_faultisr_collect_data + 68
        0x0000d8da:    f04f30ff    O..0    MOV      r0,#0xffffffff
        0x0000d8de:    e003        ..      B        0xd8e8 ; am_util_faultisr_collect_data + 76
        0x0000d8e0:    2006        .       MOVS     r0,#6
        0x0000d8e2:    4621        !F      MOV      r1,r4
        0x0000d8e4:    f001f88b    ....    BL       getStackedReg ; 0xe9fe
        0x0000d8e8:    9009        ..      STR      r0,[sp,#0x24]
        0x0000d8ea:    2000        .       MOVS     r0,#0
        0x0000d8ec:    4621        !F      MOV      r1,r4
        0x0000d8ee:    f001f886    ....    BL       getStackedReg ; 0xe9fe
        0x0000d8f2:    9011        ..      STR      r0,[sp,#0x44]
        0x0000d8f4:    2001        .       MOVS     r0,#1
        0x0000d8f6:    4621        !F      MOV      r1,r4
        0x0000d8f8:    f001f881    ....    BL       getStackedReg ; 0xe9fe
        0x0000d8fc:    9010        ..      STR      r0,[sp,#0x40]
        0x0000d8fe:    2002        .       MOVS     r0,#2
        0x0000d900:    4621        !F      MOV      r1,r4
        0x0000d902:    f001f87c    ..|.    BL       getStackedReg ; 0xe9fe
        0x0000d906:    900f        ..      STR      r0,[sp,#0x3c]
        0x0000d908:    2003        .       MOVS     r0,#3
        0x0000d90a:    4621        !F      MOV      r1,r4
        0x0000d90c:    f001f877    ..w.    BL       getStackedReg ; 0xe9fe
        0x0000d910:    900e        ..      STR      r0,[sp,#0x38]
        0x0000d912:    2004        .       MOVS     r0,#4
        0x0000d914:    4621        !F      MOV      r1,r4
        0x0000d916:    f001f872    ..r.    BL       getStackedReg ; 0xe9fe
        0x0000d91a:    900d        ..      STR      r0,[sp,#0x34]
        0x0000d91c:    2005        .       MOVS     r0,#5
        0x0000d91e:    4621        !F      MOV      r1,r4
        0x0000d920:    f001f86d    ..m.    BL       getStackedReg ; 0xe9fe
        0x0000d924:    900c        ..      STR      r0,[sp,#0x30]
        0x0000d926:    2006        .       MOVS     r0,#6
        0x0000d928:    4621        !F      MOV      r1,r4
        0x0000d92a:    f001f868    ..h.    BL       getStackedReg ; 0xe9fe
        0x0000d92e:    900b        ..      STR      r0,[sp,#0x2c]
        0x0000d930:    2007        .       MOVS     r0,#7
        0x0000d932:    4621        !F      MOV      r1,r4
        0x0000d934:    f001f863    ..c.    BL       getStackedReg ; 0xe9fe
        0x0000d938:    900a        ..      STR      r0,[sp,#0x28]
        0x0000d93a:    4669        iF      MOV      r1,sp
        0x0000d93c:    2002        .       MOVS     r0,#2
        0x0000d93e:    f7fff9ee    ....    BL       am_hal_mcuctrl_info_get ; 0xcd1e
        0x0000d942:    bf00        ..      NOP      
        0x0000d944:    e7fe        ..      B        0xd944 ; am_util_faultisr_collect_data + 168
    am_util_stdio_printf
        0x0000d946:    b083        ..      SUB      sp,sp,#0xc
        0x0000d948:    b5b0        ..      PUSH     {r4,r5,r7,lr}
        0x0000d94a:    b081        ..      SUB      sp,sp,#4
        0x0000d94c:    f10d0c14    ....    ADD      r12,sp,#0x14
        0x0000d950:    f2415480    A..T    MOVW     r4,#0x1580
        0x0000d954:    e88c000e    ....    STM      r12,{r1-r3}
        0x0000d958:    f2c10400    ....    MOVT     r4,#0x1000
        0x0000d95c:    6821        !h      LDR      r1,[r4,#0]
        0x0000d95e:    b171        q.      CBZ      r1,0xd97e ; am_util_stdio_printf + 56
        0x0000d960:    f2415584    A..U    MOV      r5,#0x1584
        0x0000d964:    f2c10500    ....    MOVT     r5,#0x1000
        0x0000d968:    4601        .F      MOV      r1,r0
        0x0000d96a:    aa05        ..      ADD      r2,sp,#0x14
        0x0000d96c:    4628        (F      MOV      r0,r5
        0x0000d96e:    9200        ..      STR      r2,[sp,#0]
        0x0000d970:    f000f820    .. .    BL       am_util_stdio_vsprintf ; 0xd9b4
        0x0000d974:    6821        !h      LDR      r1,[r4,#0]
        0x0000d976:    4604        .F      MOV      r4,r0
        0x0000d978:    4628        (F      MOV      r0,r5
        0x0000d97a:    4788        .G      BLX      r1
        0x0000d97c:    e000        ..      B        0xd980 ; am_util_stdio_printf + 58
        0x0000d97e:    2400        .$      MOVS     r4,#0
        0x0000d980:    4620         F      MOV      r0,r4
        0x0000d982:    b001        ..      ADD      sp,sp,#4
        0x0000d984:    e8bd40b0    ...@    POP      {r4,r5,r7,lr}
        0x0000d988:    b003        ..      ADD      sp,sp,#0xc
        0x0000d98a:    4770        pG      BX       lr
    am_util_stdio_printf_init
        0x0000d98c:    f2415180    A..Q    MOVW     r1,#0x1580
        0x0000d990:    f2c10100    ....    MOVT     r1,#0x1000
        0x0000d994:    6008        .`      STR      r0,[r1,#0]
        0x0000d996:    4770        pG      BX       lr
    am_util_stdio_sprintf
        0x0000d998:    b082        ..      SUB      sp,sp,#8
        0x0000d99a:    b580        ..      PUSH     {r7,lr}
        0x0000d99c:    b082        ..      SUB      sp,sp,#8
        0x0000d99e:    e9cd2304    ...#    STRD     r2,r3,[sp,#0x10]
        0x0000d9a2:    aa04        ..      ADD      r2,sp,#0x10
        0x0000d9a4:    9201        ..      STR      r2,[sp,#4]
        0x0000d9a6:    f000f805    ....    BL       am_util_stdio_vsprintf ; 0xd9b4
        0x0000d9aa:    b002        ..      ADD      sp,sp,#8
        0x0000d9ac:    e8bd4080    ...@    POP      {r7,lr}
        0x0000d9b0:    b002        ..      ADD      sp,sp,#8
        0x0000d9b2:    4770        pG      BX       lr
    am_util_stdio_vsprintf
        0x0000d9b4:    e92d4ff0    -..O    PUSH     {r4-r11,lr}
        0x0000d9b8:    b08b        ..      SUB      sp,sp,#0x2c
        0x0000d9ba:    4683        .F      MOV      r11,r0
        0x0000d9bc:    a806        ..      ADD      r0,sp,#0x18
        0x0000d9be:    f241587c    A.|X    MOV      r8,#0x157c
        0x0000d9c2:    4617        .F      MOV      r7,r2
        0x0000d9c4:    1e46        F.      SUBS     r6,r0,#1
        0x0000d9c6:    f10d0914    ....    ADD      r9,sp,#0x14
        0x0000d9ca:    f2c10800    ....    MOVT     r8,#0x1000
        0x0000d9ce:    240d        .$      MOVS     r4,#0xd
        0x0000d9d0:    2500        .%      MOVS     r5,#0
        0x0000d9d2:    1c48        H.      ADDS     r0,r1,#1
        0x0000d9d4:    f8101c01    ....    LDRB     r1,[r0,#-1]
        0x0000d9d8:    2900        .)      CMP      r1,#0
        0x0000d9da:    f000836b    ..k.    BEQ.W    0xe0b4 ; am_util_stdio_vsprintf + 1792
        0x0000d9de:    2925        %)      CMP      r1,#0x25
        0x0000d9e0:    d016        ..      BEQ      0xda10 ; am_util_stdio_vsprintf + 92
        0x0000d9e2:    f1bb0f00    ....    CMP      r11,#0
        0x0000d9e6:    d00d        ..      BEQ      0xda04 ; am_util_stdio_vsprintf + 80
        0x0000d9e8:    290a        .)      CMP      r1,#0xa
        0x0000d9ea:    d107        ..      BNE      0xd9fc ; am_util_stdio_vsprintf + 72
        0x0000d9ec:    f8982000    ...     LDRB     r2,[r8,#0]
        0x0000d9f0:    b122        ".      CBZ      r2,0xd9fc ; am_util_stdio_vsprintf + 72
        0x0000d9f2:    f80b4b01    ...K    STRB     r4,[r11],#1
        0x0000d9f6:    f8101c01    ....    LDRB     r1,[r0,#-1]
        0x0000d9fa:    3501        .5      ADDS     r5,#1
        0x0000d9fc:    f80b1b01    ....    STRB     r1,[r11],#1
        0x0000da00:    e002        ..      B        0xda08 ; am_util_stdio_vsprintf + 84
        0x0000da02:    bf00        ..      NOP      
        0x0000da04:    f04f0b00    O...    MOV      r11,#0
        0x0000da08:    3501        .5      ADDS     r5,#1
        0x0000da0a:    3001        .0      ADDS     r0,#1
        0x0000da0c:    e7e2        ..      B        0xd9d4 ; am_util_stdio_vsprintf + 32
        0x0000da0e:    bf00        ..      NOP      
        0x0000da10:    4604        .F      MOV      r4,r0
        0x0000da12:    f814ab01    ....    LDRB     r10,[r4],#1
        0x0000da16:    9604        ..      STR      r6,[sp,#0x10]
        0x0000da18:    46d0        .F      MOV      r8,r10
        0x0000da1a:    f1ba0f30    ..0.    CMP      r10,#0x30
        0x0000da1e:    bf1c        ..      ITT      NE
        0x0000da20:    4604        .F      MOVNE    r4,r0
        0x0000da22:    f04f0820    O. .    MOVNE    r8,#0x20
        0x0000da26:    4620         F      MOV      r0,r4
        0x0000da28:    4649        IF      MOV      r1,r9
        0x0000da2a:    f000ff5d    ..].    BL       decstr_to_int ; 0xe8e8
        0x0000da2e:    9a05        ..      LDR      r2,[sp,#0x14]
        0x0000da30:    4649        IF      MOV      r1,r9
        0x0000da32:    5ca6        .\      LDRB     r6,[r4,r2]
        0x0000da34:    4681        .F      MOV      r9,r0
        0x0000da36:    2e73        s.      CMP      r6,#0x73
        0x0000da38:    bf18        ..      IT       NE
        0x0000da3a:    f1c90900    ....    RSBNE    r9,r9,#0
        0x0000da3e:    2800        .(      CMP      r0,#0
        0x0000da40:    bf58        X.      IT       PL
        0x0000da42:    4681        .F      MOVPL    r9,r0
        0x0000da44:    2e2e        ..      CMP      r6,#0x2e
        0x0000da46:    eb040c02    ....    ADD      r12,r4,r2
        0x0000da4a:    d10b        ..      BNE      0xda64 ; am_util_stdio_vsprintf + 176
        0x0000da4c:    463c        <F      MOV      r4,r7
        0x0000da4e:    f10c0701    ....    ADD      r7,r12,#1
        0x0000da52:    4638        8F      MOV      r0,r7
        0x0000da54:    f000ff48    ..H.    BL       decstr_to_int ; 0xe8e8
        0x0000da58:    9a05        ..      LDR      r2,[sp,#0x14]
        0x0000da5a:    5cbe        .\      LDRB     r6,[r7,r2]
        0x0000da5c:    eb070c02    ....    ADD      r12,r7,r2
        0x0000da60:    4627        'F      MOV      r7,r4
        0x0000da62:    e000        ..      B        0xda66 ; am_util_stdio_vsprintf + 178
        0x0000da64:    2006        .       MOVS     r0,#6
        0x0000da66:    2e6c        l.      CMP      r6,#0x6c
        0x0000da68:    d112        ..      BNE      0xda90 ; am_util_stdio_vsprintf + 220
        0x0000da6a:    4663        cF      MOV      r3,r12
        0x0000da6c:    f8131f01    ....    LDRB     r1,[r3,#1]!
        0x0000da70:    396c        l9      SUBS     r1,r1,#0x6c
        0x0000da72:    fab1f181    ....    CLZ      r1,r1
        0x0000da76:    ea4f1251    O.Q.    LSR      r2,r1,#5
        0x0000da7a:    f04f0101    O...    MOV      r1,#1
        0x0000da7e:    bf04        ..      ITT      EQ
        0x0000da80:    2102        .!      MOVEQ    r1,#2
        0x0000da82:    f10c0302    ....    ADDEQ    r3,r12,#2
        0x0000da86:    f81c6001    ...`    LDRB     r6,[r12,r1]
        0x0000da8a:    469c        .F      MOV      r12,r3
        0x0000da8c:    e001        ..      B        0xda92 ; am_util_stdio_vsprintf + 222
        0x0000da8e:    bf00        ..      NOP      
        0x0000da90:    2200        ."      MOVS     r2,#0
        0x0000da92:    2e72        r.      CMP      r6,#0x72
        0x0000da94:    dc13        ..      BGT      0xdabe ; am_util_stdio_vsprintf + 266
        0x0000da96:    f1a60163    ..c.    SUB      r1,r6,#0x63
        0x0000da9a:    2906        .)      CMP      r1,#6
        0x0000da9c:    d81c        ..      BHI      0xdad8 ; am_util_stdio_vsprintf + 292
        0x0000da9e:    e8dff001    ....    TBB      [pc,r1]
    $d.4
        0x0000daa2:    0480        ..      DCW    1152
        0x0000daa4:    70702f70    p/pp    DCD    1886400368
        0x0000daa8:    0004        ..      DCW    4
    $t.5
        0x0000daaa:    2a00        .*      CMP      r2,#0
        0x0000daac:    f000808c    ....    BEQ.W    0xdbc8 ; am_util_stdio_vsprintf + 532
        0x0000dab0:    1df8        ..      ADDS     r0,r7,#7
        0x0000dab2:    f0200707     ...    BIC      r7,r0,#7
        0x0000dab6:    687c        |h      LDR      r4,[r7,#4]
        0x0000dab8:    f8570b08    W...    LDR      r0,[r7],#8
        0x0000dabc:    e087        ..      B        0xdbce ; am_util_stdio_vsprintf + 538
        0x0000dabe:    2e73        s.      CMP      r6,#0x73
        0x0000dac0:    f00080a2    ....    BEQ.W    0xdc08 ; am_util_stdio_vsprintf + 596
        0x0000dac4:    2e75        u.      CMP      r6,#0x75
        0x0000dac6:    f00080b5    ....    BEQ.W    0xdc34 ; am_util_stdio_vsprintf + 640
        0x0000daca:    2e78        x.      CMP      r6,#0x78
        0x0000dacc:    d159        Y.      BNE      0xdb82 ; am_util_stdio_vsprintf + 462
        0x0000dace:    f8cdc00c    ....    STR      r12,[sp,#0xc]
        0x0000dad2:    f04f0c27    O.'.    MOV      r12,#0x27
        0x0000dad6:    e007        ..      B        0xdae8 ; am_util_stdio_vsprintf + 308
        0x0000dad8:    2e46        F.      CMP      r6,#0x46
        0x0000dada:    d011        ..      BEQ      0xdb00 ; am_util_stdio_vsprintf + 332
        0x0000dadc:    2e58        X.      CMP      r6,#0x58
        0x0000dade:    d150        P.      BNE      0xdb82 ; am_util_stdio_vsprintf + 462
        0x0000dae0:    f8cdc00c    ....    STR      r12,[sp,#0xc]
        0x0000dae4:    f04f0c07    O...    MOV      r12,#7
        0x0000dae8:    f8dde010    ....    LDR      lr,[sp,#0x10]
        0x0000daec:    2a00        .*      CMP      r2,#0
        0x0000daee:    f00080ab    ....    BEQ.W    0xdc48 ; am_util_stdio_vsprintf + 660
        0x0000daf2:    1df9        ..      ADDS     r1,r7,#7
        0x0000daf4:    f0210707    !...    BIC      r7,r1,#7
        0x0000daf8:    687c        |h      LDR      r4,[r7,#4]
        0x0000dafa:    f8571b08    W...    LDR      r1,[r7],#8
        0x0000dafe:    e0a6        ..      B        0xdc4e ; am_util_stdio_vsprintf + 666
        0x0000db00:    f1bb0f00    ....    CMP      r11,#0
        0x0000db04:    f00080c4    ....    BEQ.W    0xdc90 ; am_util_stdio_vsprintf + 732
        0x0000db08:    4604        .F      MOV      r4,r0
        0x0000db0a:    1df8        ..      ADDS     r0,r7,#7
        0x0000db0c:    f0200807     ...    BIC      r8,r0,#7
        0x0000db10:    ed980b00    ....    VLDR     d0,[r8,#0]
        0x0000db14:    46e1        .F      MOV      r9,r12
        0x0000db16:    ec510b10    Q...    VMOV     r0,r1,d0
        0x0000db1a:    f001ffed    ....    BL       __aeabi_d2f ; 0xfaf8
        0x0000db1e:    2114        .!      MOVS     r1,#0x14
        0x0000db20:    f8cb1000    ....    STR      r1,[r11,#0]
        0x0000db24:    f6426123    B.#a    MOV      r1,#0x2e23
        0x0000db28:    ee000a10    ....    VMOV     s0,r0
        0x0000db2c:    f2c00123    ..#.    MOVT     r1,#0x23
        0x0000db30:    f1011e0d    ....    ADD      lr,r1,#0xd000d
        0x0000db34:    eeb50a40    ..@.    VCMP.F32 s0,#0.0
        0x0000db38:    f64f76fe    O..v    MOV      r6,#0xfffe
        0x0000db3c:    46cc        .F      MOV      r12,r9
        0x0000db3e:    eef1fa10    ....    VMRS     APSR_nzcv,FPSCR
        0x0000db42:    4671        qF      MOV      r1,lr
        0x0000db44:    f2c006ff    ....    MOVT     r6,#0xff
        0x0000db48:    f000829f    ....    BEQ.W    0xe08a ; am_util_stdio_vsprintf + 1750
        0x0000db4c:    f3c052c7    ...R    UBFX     r2,r0,#23,#8
        0x0000db50:    f6426123    B.#a    MOV      r1,#0x2e23
        0x0000db54:    2a9d        .*      CMP      r2,#0x9d
        0x0000db56:    f2c00123    ..#.    MOVT     r1,#0x23
        0x0000db5a:    f2008296    ....    BHI.W    0xe08a ; am_util_stdio_vsprintf + 1750
        0x0000db5e:    2a68        h*      CMP      r2,#0x68
        0x0000db60:    4671        qF      MOV      r1,lr
        0x0000db62:    f0c08292    ....    BCC.W    0xe08a ; am_util_stdio_vsprintf + 1750
        0x0000db66:    4603        .F      MOV      r3,r0
        0x0000db68:    2101        .!      MOVS     r1,#1
        0x0000db6a:    2a96        .*      CMP      r2,#0x96
        0x0000db6c:    f36153df    a..S    BFI      r3,r1,#23,#9
        0x0000db70:    f0c08209    ....    BCC.W    0xdf86 ; am_util_stdio_vsprintf + 1490
        0x0000db74:    f1a20196    ....    SUB      r1,r2,#0x96
        0x0000db78:    fa03f101    ....    LSL      r1,r3,r1
        0x0000db7c:    f04f0a00    O...    MOV      r10,#0
        0x0000db80:    e212        ..      B        0xdfa8 ; am_util_stdio_vsprintf + 1524
        0x0000db82:    f1bb0f00    ....    CMP      r11,#0
        0x0000db86:    bf14        ..      ITE      NE
        0x0000db88:    f80b6b01    ...k    STRBNE   r6,[r11],#1
        0x0000db8c:    f04f0b00    O...    MOVEQ    r11,#0
        0x0000db90:    f241587c    A.|X    MOV      r8,#0x157c
        0x0000db94:    9e04        ..      LDR      r6,[sp,#0x10]
        0x0000db96:    f10d0914    ....    ADD      r9,sp,#0x14
        0x0000db9a:    f2c10800    ....    MOVT     r8,#0x1000
        0x0000db9e:    240d        .$      MOVS     r4,#0xd
        0x0000dba0:    e010        ..      B        0xdbc4 ; am_util_stdio_vsprintf + 528
        0x0000dba2:    f1bb0f00    ....    CMP      r11,#0
        0x0000dba6:    bf1a        ..      ITTE     NE
        0x0000dba8:    6838        8h      LDRNE    r0,[r7,#0]
        0x0000dbaa:    f80b0b01    ....    STRBNE   r0,[r11],#1
        0x0000dbae:    f04f0b00    O...    MOVEQ    r11,#0
        0x0000dbb2:    f241587c    A.|X    MOV      r8,#0x157c
        0x0000dbb6:    9e04        ..      LDR      r6,[sp,#0x10]
        0x0000dbb8:    f10d0914    ....    ADD      r9,sp,#0x14
        0x0000dbbc:    f2c10800    ....    MOVT     r8,#0x1000
        0x0000dbc0:    240d        .$      MOVS     r4,#0xd
        0x0000dbc2:    3704        .7      ADDS     r7,#4
        0x0000dbc4:    3501        .5      ADDS     r5,#1
        0x0000dbc6:    e26f        o.      B        0xe0a8 ; am_util_stdio_vsprintf + 1780
        0x0000dbc8:    f8570b04    W...    LDR      r0,[r7],#4
        0x0000dbcc:    17c4        ..      ASRS     r4,r0,#31
        0x0000dbce:    eb1070e4    ...p    ADDS     r0,r0,r4,ASR #31
        0x0000dbd2:    9e04        ..      LDR      r6,[sp,#0x10]
        0x0000dbd4:    ea807ee4    ...~    EOR      lr,r0,r4,ASR #31
        0x0000dbd8:    eb4470e4    D..p    ADC      r0,r4,r4,ASR #31
        0x0000dbdc:    f1b90f00    ....    CMP      r9,#0
        0x0000dbe0:    ea8071e4    ...q    EOR      r1,r0,r4,ASR #31
        0x0000dbe4:    e9cdc703    ....    STRD     r12,r7,[sp,#0xc]
        0x0000dbe8:    d046        F.      BEQ      0xdc78 ; am_util_stdio_vsprintf + 708
        0x0000dbea:    ea5e0001    ^...    ORRS     r0,lr,r1
        0x0000dbee:    e9cd1e01    ....    STRD     r1,lr,[sp,#4]
        0x0000dbf2:    d07b        {.      BEQ      0xdcec ; am_util_stdio_vsprintf + 824
        0x0000dbf4:    2700        .'      MOVS     r7,#0
        0x0000dbf6:    4670        pF      MOV      r0,lr
        0x0000dbf8:    f000fea2    ....    BL       divu64_10 ; 0xe940
        0x0000dbfc:    ea500201    P...    ORRS     r2,r0,r1
        0x0000dc00:    f1070701    ....    ADD      r7,r7,#1
        0x0000dc04:    d1f8        ..      BNE      0xdbf8 ; am_util_stdio_vsprintf + 580
        0x0000dc06:    e072        r.      B        0xdcee ; am_util_stdio_vsprintf + 826
        0x0000dc08:    f8571b04    W...    LDR      r1,[r7],#4
        0x0000dc0c:    2900        .)      CMP      r1,#0
        0x0000dc0e:    f0008109    ....    BEQ.W    0xde24 ; am_util_stdio_vsprintf + 1136
        0x0000dc12:    7808        .x      LDRB     r0,[r1,#0]
        0x0000dc14:    9e04        ..      LDR      r6,[sp,#0x10]
        0x0000dc16:    2800        .(      CMP      r0,#0
        0x0000dc18:    f04f040d    O...    MOV      r4,#0xd
        0x0000dc1c:    46be        .F      MOV      lr,r7
        0x0000dc1e:    f000812b    ..+.    BEQ.W    0xde78 ; am_util_stdio_vsprintf + 1220
        0x0000dc22:    1c4a        J.      ADDS     r2,r1,#1
        0x0000dc24:    2300        .#      MOVS     r3,#0
        0x0000dc26:    bf00        ..      NOP      
        0x0000dc28:    5cd7        .\      LDRB     r7,[r2,r3]
        0x0000dc2a:    1c58        X.      ADDS     r0,r3,#1
        0x0000dc2c:    2f00        ./      CMP      r7,#0
        0x0000dc2e:    4603        .F      MOV      r3,r0
        0x0000dc30:    d1fa        ..      BNE      0xdc28 ; am_util_stdio_vsprintf + 628
        0x0000dc32:    e122        ".      B        0xde7a ; am_util_stdio_vsprintf + 1222
        0x0000dc34:    2a00        .*      CMP      r2,#0
        0x0000dc36:    d03d        =.      BEQ      0xdcb4 ; am_util_stdio_vsprintf + 768
        0x0000dc38:    1df8        ..      ADDS     r0,r7,#7
        0x0000dc3a:    f0200707     ...    BIC      r7,r0,#7
        0x0000dc3e:    f8d7a004    ....    LDR      r10,[r7,#4]
        0x0000dc42:    f8574b08    W..K    LDR      r4,[r7],#8
        0x0000dc46:    e039        9.      B        0xdcbc ; am_util_stdio_vsprintf + 776
        0x0000dc48:    f8571b04    W...    LDR      r1,[r7],#4
        0x0000dc4c:    2400        .$      MOVS     r4,#0
        0x0000dc4e:    f1b90f00    ....    CMP      r9,#0
        0x0000dc52:    d027        '.      BEQ      0xdca4 ; am_util_stdio_vsprintf + 752
        0x0000dc54:    46ba        .F      MOV      r10,r7
        0x0000dc56:    ea510204    Q...    ORRS     r2,r1,r4
        0x0000dc5a:    f000808d    ....    BEQ.W    0xdd78 ; am_util_stdio_vsprintf + 964
        0x0000dc5e:    2700        .'      MOVS     r7,#0
        0x0000dc60:    460b        .F      MOV      r3,r1
        0x0000dc62:    4622        "F      MOV      r2,r4
        0x0000dc64:    091b        ..      LSRS     r3,r3,#4
        0x0000dc66:    ea437302    C..s    ORR      r3,r3,r2,LSL #28
        0x0000dc6a:    ea431612    C...    ORR      r6,r3,r2,LSR #4
        0x0000dc6e:    0912        ..      LSRS     r2,r2,#4
        0x0000dc70:    3701        .7      ADDS     r7,#1
        0x0000dc72:    2e00        ..      CMP      r6,#0
        0x0000dc74:    d1f6        ..      BNE      0xdc64 ; am_util_stdio_vsprintf + 688
        0x0000dc76:    e080        ..      B        0xdd7a ; am_util_stdio_vsprintf + 966
        0x0000dc78:    f1b43fff    ...?    CMP      r4,#0xffffffff
        0x0000dc7c:    f34080de    @...    BLE.W    0xde3c ; am_util_stdio_vsprintf + 1160
        0x0000dc80:    f241587c    A.|X    MOV      r8,#0x157c
        0x0000dc84:    465f        _F      MOV      r7,r11
        0x0000dc86:    f10d0914    ....    ADD      r9,sp,#0x14
        0x0000dc8a:    f2c10800    ....    MOVT     r8,#0x1000
        0x0000dc8e:    e071        q.      B        0xdd74 ; am_util_stdio_vsprintf + 960
        0x0000dc90:    f241587c    A.|X    MOV      r8,#0x157c
        0x0000dc94:    9e04        ..      LDR      r6,[sp,#0x10]
        0x0000dc96:    f04f0b00    O...    MOV      r11,#0
        0x0000dc9a:    f10d0914    ....    ADD      r9,sp,#0x14
        0x0000dc9e:    f2c10800    ....    MOVT     r8,#0x1000
        0x0000dca2:    e12e        ..      B        0xdf02 ; am_util_stdio_vsprintf + 1358
        0x0000dca4:    f241587c    A.|X    MOV      r8,#0x157c
        0x0000dca8:    a806        ..      ADD      r0,sp,#0x18
        0x0000dcaa:    f10d0914    ....    ADD      r9,sp,#0x14
        0x0000dcae:    f2c10800    ....    MOVT     r8,#0x1000
        0x0000dcb2:    e081        ..      B        0xddb8 ; am_util_stdio_vsprintf + 1028
        0x0000dcb4:    f8574b04    W..K    LDR      r4,[r7],#4
        0x0000dcb8:    f04f0a00    O...    MOV      r10,#0
        0x0000dcbc:    9e04        ..      LDR      r6,[sp,#0x10]
        0x0000dcbe:    f1b90f00    ....    CMP      r9,#0
        0x0000dcc2:    f8cdc00c    ....    STR      r12,[sp,#0xc]
        0x0000dcc6:    f00080b2    ....    BEQ.W    0xde2e ; am_util_stdio_vsprintf + 1146
        0x0000dcca:    ea54000a    T...    ORRS     r0,r4,r10
        0x0000dcce:    9704        ..      STR      r7,[sp,#0x10]
        0x0000dcd0:    f00080e8    ....    BEQ.W    0xdea4 ; am_util_stdio_vsprintf + 1264
        0x0000dcd4:    2700        .'      MOVS     r7,#0
        0x0000dcd6:    4620         F      MOV      r0,r4
        0x0000dcd8:    4651        QF      MOV      r1,r10
        0x0000dcda:    bf00        ..      NOP      
        0x0000dcdc:    f000fe30    ..0.    BL       divu64_10 ; 0xe940
        0x0000dce0:    ea500201    P...    ORRS     r2,r0,r1
        0x0000dce4:    f1070701    ....    ADD      r7,r7,#1
        0x0000dce8:    d1f8        ..      BNE      0xdcdc ; am_util_stdio_vsprintf + 808
        0x0000dcea:    e0dc        ..      B        0xdea6 ; am_util_stdio_vsprintf + 1266
        0x0000dcec:    2701        .'      MOVS     r7,#1
        0x0000dcee:    f1b43fff    ...?    CMP      r4,#0xffffffff
        0x0000dcf2:    eba90307    ....    SUB      r3,r9,r7
        0x0000dcf6:    dd02        ..      BLE      0xdcfe ; am_util_stdio_vsprintf + 842
        0x0000dcf8:    f10d0914    ....    ADD      r9,sp,#0x14
        0x0000dcfc:    e012        ..      B        0xdd24 ; am_util_stdio_vsprintf + 880
        0x0000dcfe:    f1ba0f30    ..0.    CMP      r10,#0x30
        0x0000dd02:    f1a30301    ....    SUB      r3,r3,#1
        0x0000dd06:    f10d0914    ....    ADD      r9,sp,#0x14
        0x0000dd0a:    d10b        ..      BNE      0xdd24 ; am_util_stdio_vsprintf + 880
        0x0000dd0c:    f1bb0f00    ....    CMP      r11,#0
        0x0000dd10:    bf1a        ..      ITTE     NE
        0x0000dd12:    212d        -!      MOVNE    r1,#0x2d
        0x0000dd14:    f80b1b01    ....    STRBNE   r1,[r11],#1
        0x0000dd18:    f04f0b00    O...    MOVEQ    r11,#0
        0x0000dd1c:    e9dd1e01    ....    LDRD     r1,lr,[sp,#4]
        0x0000dd20:    3501        .5      ADDS     r5,#1
        0x0000dd22:    e001        ..      B        0xdd28 ; am_util_stdio_vsprintf + 884
        0x0000dd24:    e9dd1e01    ....    LDRD     r1,lr,[sp,#4]
        0x0000dd28:    2b01        .+      CMP      r3,#1
        0x0000dd2a:    db09        ..      BLT      0xdd40 ; am_util_stdio_vsprintf + 908
        0x0000dd2c:    4618        .F      MOV      r0,r3
        0x0000dd2e:    465a        ZF      MOV      r2,r11
        0x0000dd30:    2a00        .*      CMP      r2,#0
        0x0000dd32:    bf14        ..      ITE      NE
        0x0000dd34:    f8028b01    ....    STRBNE   r8,[r2],#1
        0x0000dd38:    2200        ."      MOVEQ    r2,#0
        0x0000dd3a:    3801        .8      SUBS     r0,#1
        0x0000dd3c:    d1f8        ..      BNE      0xdd30 ; am_util_stdio_vsprintf + 892
        0x0000dd3e:    e000        ..      B        0xdd42 ; am_util_stdio_vsprintf + 910
        0x0000dd40:    2300        .#      MOVS     r3,#0
        0x0000dd42:    f1bb0f00    ....    CMP      r11,#0
        0x0000dd46:    465f        _F      MOV      r7,r11
        0x0000dd48:    f241587c    A.|X    MOV      r8,#0x157c
        0x0000dd4c:    bf18        ..      IT       NE
        0x0000dd4e:    441f        .D      ADDNE    r7,r3
        0x0000dd50:    f1ba0f30    ..0.    CMP      r10,#0x30
        0x0000dd54:    441d        .D      ADD      r5,r5,r3
        0x0000dd56:    f2c10800    ....    MOVT     r8,#0x1000
        0x0000dd5a:    d00b        ..      BEQ      0xdd74 ; am_util_stdio_vsprintf + 960
        0x0000dd5c:    f1b43fff    ...?    CMP      r4,#0xffffffff
        0x0000dd60:    dc08        ..      BGT      0xdd74 ; am_util_stdio_vsprintf + 960
        0x0000dd62:    f1bb0f00    ....    CMP      r11,#0
        0x0000dd66:    f04f040d    O...    MOV      r4,#0xd
        0x0000dd6a:    d077        w.      BEQ      0xde5c ; am_util_stdio_vsprintf + 1192
        0x0000dd6c:    202d        -       MOVS     r0,#0x2d
        0x0000dd6e:    f8070b01    ....    STRB     r0,[r7],#1
        0x0000dd72:    e074        t.      B        0xde5e ; am_util_stdio_vsprintf + 1194
        0x0000dd74:    240d        .$      MOVS     r4,#0xd
        0x0000dd76:    e073        s.      B        0xde60 ; am_util_stdio_vsprintf + 1196
        0x0000dd78:    2701        .'      MOVS     r7,#1
        0x0000dd7a:    eba90307    ....    SUB      r3,r9,r7
        0x0000dd7e:    2b01        .+      CMP      r3,#1
        0x0000dd80:    db0c        ..      BLT      0xdd9c ; am_util_stdio_vsprintf + 1000
        0x0000dd82:    eba70709    ....    SUB      r7,r7,r9
        0x0000dd86:    465e        ^F      MOV      r6,r11
        0x0000dd88:    f10d0914    ....    ADD      r9,sp,#0x14
        0x0000dd8c:    2e00        ..      CMP      r6,#0
        0x0000dd8e:    bf14        ..      ITE      NE
        0x0000dd90:    f8068b01    ....    STRBNE   r8,[r6],#1
        0x0000dd94:    2600        .&      MOVEQ    r6,#0
        0x0000dd96:    3701        .7      ADDS     r7,#1
        0x0000dd98:    d3f8        ..      BCC      0xdd8c ; am_util_stdio_vsprintf + 984
        0x0000dd9a:    e002        ..      B        0xdda2 ; am_util_stdio_vsprintf + 1006
        0x0000dd9c:    2300        .#      MOVS     r3,#0
        0x0000dd9e:    f10d0914    ....    ADD      r9,sp,#0x14
        0x0000dda2:    f241587c    A.|X    MOV      r8,#0x157c
        0x0000dda6:    441d        .D      ADD      r5,r5,r3
        0x0000dda8:    a806        ..      ADD      r0,sp,#0x18
        0x0000ddaa:    f2c10800    ....    MOVT     r8,#0x1000
        0x0000ddae:    4657        WF      MOV      r7,r10
        0x0000ddb0:    f1bb0f00    ....    CMP      r11,#0
        0x0000ddb4:    bf18        ..      IT       NE
        0x0000ddb6:    449b        .D      ADDNE    r11,r11,r3
        0x0000ddb8:    46ba        .F      MOV      r10,r7
        0x0000ddba:    ea510204    Q...    ORRS     r2,r1,r4
        0x0000ddbe:    d015        ..      BEQ      0xddec ; am_util_stdio_vsprintf + 1080
        0x0000ddc0:    2300        .#      MOVS     r3,#0
        0x0000ddc2:    bf00        ..      NOP      
        0x0000ddc4:    f001020f    ....    AND      r2,r1,#0xf
        0x0000ddc8:    0909        ..      LSRS     r1,r1,#4
        0x0000ddca:    ea417104    A..q    ORR      r1,r1,r4,LSL #28
        0x0000ddce:    f1020630    ..0.    ADD      r6,r2,#0x30
        0x0000ddd2:    2a09        .*      CMP      r2,#9
        0x0000ddd4:    f1030701    ....    ADD      r7,r3,#1
        0x0000ddd8:    ea411214    A...    ORR      r2,r1,r4,LSR #4
        0x0000dddc:    bf88        ..      IT       HI
        0x0000ddde:    4466        fD      ADDHI    r6,r6,r12
        0x0000dde0:    54c6        .T      STRB     r6,[r0,r3]
        0x0000dde2:    0924        $.      LSRS     r4,r4,#4
        0x0000dde4:    2a00        .*      CMP      r2,#0
        0x0000dde6:    463b        ;F      MOV      r3,r7
        0x0000dde8:    d1ec        ..      BNE      0xddc4 ; am_util_stdio_vsprintf + 1040
        0x0000ddea:    e003        ..      B        0xddf4 ; am_util_stdio_vsprintf + 1088
        0x0000ddec:    2030        0       MOVS     r0,#0x30
        0x0000ddee:    f88d0018    ....    STRB     r0,[sp,#0x18]
        0x0000ddf2:    2701        .'      MOVS     r7,#1
        0x0000ddf4:    f8ddc00c    ....    LDR      r12,[sp,#0xc]
        0x0000ddf8:    f1bb0f00    ....    CMP      r11,#0
        0x0000ddfc:    4676        vF      MOV      r6,lr
        0x0000ddfe:    f04f040d    O...    MOV      r4,#0xd
        0x0000de02:    d008        ..      BEQ      0xde16 ; am_util_stdio_vsprintf + 1122
        0x0000de04:    4639        9F      MOV      r1,r7
        0x0000de06:    4658        XF      MOV      r0,r11
        0x0000de08:    5c72        r\      LDRB     r2,[r6,r1]
        0x0000de0a:    3901        .9      SUBS     r1,#1
        0x0000de0c:    f8002b01    ...+    STRB     r2,[r0],#1
        0x0000de10:    d1fa        ..      BNE      0xde08 ; am_util_stdio_vsprintf + 1108
        0x0000de12:    2100        .!      MOVS     r1,#0
        0x0000de14:    7001        .p      STRB     r1,[r0,#0]
        0x0000de16:    f1bb0f00    ....    CMP      r11,#0
        0x0000de1a:    bf18        ..      IT       NE
        0x0000de1c:    44bb        .D      ADDNE    r11,r11,r7
        0x0000de1e:    443d        =D      ADD      r5,r5,r7
        0x0000de20:    4657        WF      MOV      r7,r10
        0x0000de22:    e141        A.      B        0xe0a8 ; am_util_stdio_vsprintf + 1780
        0x0000de24:    9e04        ..      LDR      r6,[sp,#0x10]
        0x0000de26:    46be        .F      MOV      lr,r7
        0x0000de28:    2000        .       MOVS     r0,#0
        0x0000de2a:    240d        .$      MOVS     r4,#0xd
        0x0000de2c:    e025        %.      B        0xde7a ; am_util_stdio_vsprintf + 1222
        0x0000de2e:    f241587c    A.|X    MOV      r8,#0x157c
        0x0000de32:    f10d0914    ....    ADD      r9,sp,#0x14
        0x0000de36:    f2c10800    ....    MOVT     r8,#0x1000
        0x0000de3a:    e056        V.      B        0xdeea ; am_util_stdio_vsprintf + 1334
        0x0000de3c:    f241587c    A.|X    MOV      r8,#0x157c
        0x0000de40:    f1bb0f00    ....    CMP      r11,#0
        0x0000de44:    f10d0914    ....    ADD      r9,sp,#0x14
        0x0000de48:    f2c10800    ....    MOVT     r8,#0x1000
        0x0000de4c:    f04f040d    O...    MOV      r4,#0xd
        0x0000de50:    d004        ..      BEQ      0xde5c ; am_util_stdio_vsprintf + 1192
        0x0000de52:    202d        -       MOVS     r0,#0x2d
        0x0000de54:    f80b0b01    ....    STRB     r0,[r11],#1
        0x0000de58:    465f        _F      MOV      r7,r11
        0x0000de5a:    e000        ..      B        0xde5e ; am_util_stdio_vsprintf + 1194
        0x0000de5c:    2700        .'      MOVS     r7,#0
        0x0000de5e:    3501        .5      ADDS     r5,#1
        0x0000de60:    4670        pF      MOV      r0,lr
        0x0000de62:    463a        :F      MOV      r2,r7
        0x0000de64:    f001fde2    ....    BL       uint64_to_str ; 0xfa2c
        0x0000de68:    2f00        ./      CMP      r7,#0
        0x0000de6a:    bf18        ..      IT       NE
        0x0000de6c:    4407        .D      ADDNE    r7,r0
        0x0000de6e:    46bb        .F      MOV      r11,r7
        0x0000de70:    e9ddc703    ....    LDRD     r12,r7,[sp,#0xc]
        0x0000de74:    4405        .D      ADD      r5,r5,r0
        0x0000de76:    e117        ..      B        0xe0a8 ; am_util_stdio_vsprintf + 1780
        0x0000de78:    2000        .       MOVS     r0,#0
        0x0000de7a:    f1b90f01    ....    CMP      r9,#1
        0x0000de7e:    db4a        J.      BLT      0xdf16 ; am_util_stdio_vsprintf + 1378
        0x0000de80:    4581        .E      CMP      r9,r0
        0x0000de82:    d948        H.      BLS      0xdf16 ; am_util_stdio_vsprintf + 1378
        0x0000de84:    eba90200    ....    SUB      r2,r9,r0
        0x0000de88:    2a01        .*      CMP      r2,#1
        0x0000de8a:    db3c        <.      BLT      0xdf06 ; am_util_stdio_vsprintf + 1362
        0x0000de8c:    eba00309    ....    SUB      r3,r0,r9
        0x0000de90:    465f        _F      MOV      r7,r11
        0x0000de92:    bf00        ..      NOP      
        0x0000de94:    2f00        ./      CMP      r7,#0
        0x0000de96:    bf14        ..      ITE      NE
        0x0000de98:    f8078b01    ....    STRBNE   r8,[r7],#1
        0x0000de9c:    2700        .'      MOVEQ    r7,#0
        0x0000de9e:    3301        .3      ADDS     r3,#1
        0x0000dea0:    d3f8        ..      BCC      0xde94 ; am_util_stdio_vsprintf + 1248
        0x0000dea2:    e031        1.      B        0xdf08 ; am_util_stdio_vsprintf + 1364
        0x0000dea4:    2701        .'      MOVS     r7,#1
        0x0000dea6:    eba90007    ....    SUB      r0,r9,r7
        0x0000deaa:    2801        .(      CMP      r0,#1
        0x0000deac:    db10        ..      BLT      0xded0 ; am_util_stdio_vsprintf + 1308
        0x0000deae:    eba70109    ....    SUB      r1,r7,r9
        0x0000deb2:    9f04        ..      LDR      r7,[sp,#0x10]
        0x0000deb4:    465a        ZF      MOV      r2,r11
        0x0000deb6:    f10d0914    ....    ADD      r9,sp,#0x14
        0x0000deba:    bf00        ..      NOP      
        0x0000debc:    2a00        .*      CMP      r2,#0
        0x0000debe:    bf14        ..      ITE      NE
        0x0000dec0:    f8028b01    ....    STRBNE   r8,[r2],#1
        0x0000dec4:    2200        ."      MOVEQ    r2,#0
        0x0000dec6:    3101        .1      ADDS     r1,#1
        0x0000dec8:    d3f8        ..      BCC      0xdebc ; am_util_stdio_vsprintf + 1288
        0x0000deca:    f241587c    A.|X    MOV      r8,#0x157c
        0x0000dece:    e005        ..      B        0xdedc ; am_util_stdio_vsprintf + 1320
        0x0000ded0:    f241587c    A.|X    MOV      r8,#0x157c
        0x0000ded4:    9f04        ..      LDR      r7,[sp,#0x10]
        0x0000ded6:    2000        .       MOVS     r0,#0
        0x0000ded8:    f10d0914    ....    ADD      r9,sp,#0x14
        0x0000dedc:    f2c10800    ....    MOVT     r8,#0x1000
        0x0000dee0:    4405        .D      ADD      r5,r5,r0
        0x0000dee2:    f1bb0f00    ....    CMP      r11,#0
        0x0000dee6:    bf18        ..      IT       NE
        0x0000dee8:    4483        .D      ADDNE    r11,r11,r0
        0x0000deea:    4620         F      MOV      r0,r4
        0x0000deec:    4651        QF      MOV      r1,r10
        0x0000deee:    465a        ZF      MOV      r2,r11
        0x0000def0:    f001fd9c    ....    BL       uint64_to_str ; 0xfa2c
        0x0000def4:    f1bb0f00    ....    CMP      r11,#0
        0x0000def8:    bf18        ..      IT       NE
        0x0000defa:    4483        .D      ADDNE    r11,r11,r0
        0x0000defc:    f8ddc00c    ....    LDR      r12,[sp,#0xc]
        0x0000df00:    4405        .D      ADD      r5,r5,r0
        0x0000df02:    240d        .$      MOVS     r4,#0xd
        0x0000df04:    e0d0        ..      B        0xe0a8 ; am_util_stdio_vsprintf + 1780
        0x0000df06:    2200        ."      MOVS     r2,#0
        0x0000df08:    4415        .D      ADD      r5,r5,r2
        0x0000df0a:    f04f0900    O...    MOV      r9,#0
        0x0000df0e:    f1bb0f00    ....    CMP      r11,#0
        0x0000df12:    bf18        ..      IT       NE
        0x0000df14:    4493        .D      ADDNE    r11,r11,r2
        0x0000df16:    780a        .x      LDRB     r2,[r1,#0]
        0x0000df18:    b17a        z.      CBZ      r2,0xdf3a ; am_util_stdio_vsprintf + 1414
        0x0000df1a:    3101        .1      ADDS     r1,#1
        0x0000df1c:    4677        wF      MOV      r7,lr
        0x0000df1e:    bf00        ..      NOP      
        0x0000df20:    f1bb0f00    ....    CMP      r11,#0
        0x0000df24:    bf14        ..      ITE      NE
        0x0000df26:    f80b2b01    ...+    STRBNE   r2,[r11],#1
        0x0000df2a:    f04f0b00    O...    MOVEQ    r11,#0
        0x0000df2e:    f8112b01    ...+    LDRB     r2,[r1],#1
        0x0000df32:    3501        .5      ADDS     r5,#1
        0x0000df34:    2a00        .*      CMP      r2,#0
        0x0000df36:    d1f3        ..      BNE      0xdf20 ; am_util_stdio_vsprintf + 1388
        0x0000df38:    e000        ..      B        0xdf3c ; am_util_stdio_vsprintf + 1416
        0x0000df3a:    4677        wF      MOV      r7,lr
        0x0000df3c:    f1b90f00    ....    CMP      r9,#0
        0x0000df40:    f00080ac    ....    BEQ.W    0xe09c ; am_util_stdio_vsprintf + 1768
        0x0000df44:    f1c90100    ....    RSB      r1,r9,#0
        0x0000df48:    4288        .B      CMP      r0,r1
        0x0000df4a:    f08080a7    ....    BCS.W    0xe09c ; am_util_stdio_vsprintf + 1768
        0x0000df4e:    1a09        ..      SUBS     r1,r1,r0
        0x0000df50:    2901        .)      CMP      r1,#1
        0x0000df52:    db0b        ..      BLT      0xdf6c ; am_util_stdio_vsprintf + 1464
        0x0000df54:    4448        HD      ADD      r0,r0,r9
        0x0000df56:    465a        ZF      MOV      r2,r11
        0x0000df58:    f10d0914    ....    ADD      r9,sp,#0x14
        0x0000df5c:    2a00        .*      CMP      r2,#0
        0x0000df5e:    bf14        ..      ITE      NE
        0x0000df60:    f8028b01    ....    STRBNE   r8,[r2],#1
        0x0000df64:    2200        ."      MOVEQ    r2,#0
        0x0000df66:    3001        .0      ADDS     r0,#1
        0x0000df68:    d3f8        ..      BCC      0xdf5c ; am_util_stdio_vsprintf + 1448
        0x0000df6a:    e002        ..      B        0xdf72 ; am_util_stdio_vsprintf + 1470
        0x0000df6c:    2100        .!      MOVS     r1,#0
        0x0000df6e:    f10d0914    ....    ADD      r9,sp,#0x14
        0x0000df72:    f241587c    A.|X    MOV      r8,#0x157c
        0x0000df76:    f2c10800    ....    MOVT     r8,#0x1000
        0x0000df7a:    f1bb0f00    ....    CMP      r11,#0
        0x0000df7e:    bf18        ..      IT       NE
        0x0000df80:    448b        .D      ADDNE    r11,r11,r1
        0x0000df82:    440d        .D      ADD      r5,r5,r1
        0x0000df84:    e090        ..      B        0xe0a8 ; am_util_stdio_vsprintf + 1780
        0x0000df86:    2a7f        .*      CMP      r2,#0x7f
        0x0000df88:    d309        ..      BCC      0xdf9e ; am_util_stdio_vsprintf + 1514
        0x0000df8a:    f1c20196    ....    RSB      r1,r2,#0x96
        0x0000df8e:    3a7e        ~:      SUBS     r2,r2,#0x7e
        0x0000df90:    fa03f202    ....    LSL      r2,r3,r2
        0x0000df94:    fa23f101    #...    LSR      r1,r3,r1
        0x0000df98:    f0224a7f    "..J    BIC      r10,r2,#0xff000000
        0x0000df9c:    e004        ..      B        0xdfa8 ; am_util_stdio_vsprintf + 1524
        0x0000df9e:    f1c2017e    ..~.    RSB      r1,r2,#0x7e
        0x0000dfa2:    fa23fa01    #...    LSR      r10,r3,r1
        0x0000dfa6:    2100        .!      MOVS     r1,#0
        0x0000dfa8:    f1b03fff    ...?    CMP      r0,#0xffffffff
        0x0000dfac:    465f        _F      MOV      r7,r11
        0x0000dfae:    dc03        ..      BGT      0xdfb8 ; am_util_stdio_vsprintf + 1540
        0x0000dfb0:    465f        _F      MOV      r7,r11
        0x0000dfb2:    202d        -       MOVS     r0,#0x2d
        0x0000dfb4:    f8070b01    ....    STRB     r0,[r7],#1
        0x0000dfb8:    b131        1.      CBZ      r1,0xdfc8 ; am_util_stdio_vsprintf + 1556
        0x0000dfba:    2901        .)      CMP      r1,#1
        0x0000dfbc:    f8cde008    ....    STR      lr,[sp,#8]
        0x0000dfc0:    db06        ..      BLT      0xdfd0 ; am_util_stdio_vsprintf + 1564
        0x0000dfc2:    4608        .F      MOV      r0,r1
        0x0000dfc4:    2100        .!      MOVS     r1,#0
        0x0000dfc6:    e008        ..      B        0xdfda ; am_util_stdio_vsprintf + 1574
        0x0000dfc8:    2130        0!      MOVS     r1,#0x30
        0x0000dfca:    f8071b01    ....    STRB     r1,[r7],#1
        0x0000dfce:    e011        ..      B        0xdff4 ; am_util_stdio_vsprintf + 1600
        0x0000dfd0:    202d        -       MOVS     r0,#0x2d
        0x0000dfd2:    f8070b01    ....    STRB     r0,[r7],#1
        0x0000dfd6:    4248        HB      RSBS     r0,r1,#0
        0x0000dfd8:    17c1        ..      ASRS     r1,r0,#31
        0x0000dfda:    463a        :F      MOV      r2,r7
        0x0000dfdc:    f001fd26    ..&.    BL       uint64_to_str ; 0xfa2c
        0x0000dfe0:    f8dde008    ....    LDR      lr,[sp,#8]
        0x0000dfe4:    46cc        .F      MOV      r12,r9
        0x0000dfe6:    2130        0!      MOVS     r1,#0x30
        0x0000dfe8:    3f01        .?      SUBS     r7,#1
        0x0000dfea:    bf00        ..      NOP      
        0x0000dfec:    f8170f01    ....    LDRB     r0,[r7,#1]!
        0x0000dff0:    2800        .(      CMP      r0,#0
        0x0000dff2:    d1fb        ..      BNE      0xdfec ; am_util_stdio_vsprintf + 1592
        0x0000dff4:    4638        8F      MOV      r0,r7
        0x0000dff6:    222e        ."      MOVS     r2,#0x2e
        0x0000dff8:    f1ba0f00    ....    CMP      r10,#0
        0x0000dffc:    f8002b01    ...+    STRB     r2,[r0],#1
        0x0000e000:    d014        ..      BEQ      0xe02c ; am_util_stdio_vsprintf + 1656
        0x0000e002:    ebab0100    ....    SUB      r1,r11,r0
        0x0000e006:    3113        .1      ADDS     r1,r1,#0x13
        0x0000e008:    42a1        .B      CMP      r1,r4
        0x0000e00a:    bfc8        ..      IT       GT
        0x0000e00c:    4621        !F      MOVGT    r1,r4
        0x0000e00e:    2901        .)      CMP      r1,#1
        0x0000e010:    db10        ..      BLT      0xe034 ; am_util_stdio_vsprintf + 1664
        0x0000e012:    2730        0'      MOVS     r7,#0x30
        0x0000e014:    240d        .$      MOVS     r4,#0xd
        0x0000e016:    eb0a028a    ....    ADD      r2,r10,r10,LSL #2
        0x0000e01a:    eb0753d2    ...S    ADD      r3,r7,r2,LSR #23
        0x0000e01e:    f8003b01    ...;    STRB     r3,[r0],#1
        0x0000e022:    3901        .9      SUBS     r1,#1
        0x0000e024:    ea060a42    ..B.    AND      r10,r6,r2,LSL #1
        0x0000e028:    d1f5        ..      BNE      0xe016 ; am_util_stdio_vsprintf + 1634
        0x0000e02a:    e004        ..      B        0xe036 ; am_util_stdio_vsprintf + 1666
        0x0000e02c:    1cb8        ..      ADDS     r0,r7,#2
        0x0000e02e:    7079        yp      STRB     r1,[r7,#1]
        0x0000e030:    240d        .$      MOVS     r4,#0xd
        0x0000e032:    e015        ..      B        0xe060 ; am_util_stdio_vsprintf + 1708
        0x0000e034:    240d        .$      MOVS     r4,#0xd
        0x0000e036:    1e41        A.      SUBS     r1,r0,#1
        0x0000e038:    4559        YE      CMP      r1,r11
        0x0000e03a:    d311        ..      BCC      0xe060 ; am_util_stdio_vsprintf + 1708
        0x0000e03c:    eb0a028a    ....    ADD      r2,r10,r10,LSL #2
        0x0000e040:    0052        R.      LSLS     r2,r2,#1
        0x0000e042:    f1b26fa0    ...o    CMP      r2,#0x5000000
        0x0000e046:    db0b        ..      BLT      0xe060 ; am_util_stdio_vsprintf + 1708
        0x0000e048:    9e04        ..      LDR      r6,[sp,#0x10]
        0x0000e04a:    780a        .x      LDRB     r2,[r1,#0]
        0x0000e04c:    2a2e        .*      CMP      r2,#0x2e
        0x0000e04e:    d003        ..      BEQ      0xe058 ; am_util_stdio_vsprintf + 1700
        0x0000e050:    2a39        9*      CMP      r2,#0x39
        0x0000e052:    d12c        ,.      BNE      0xe0ae ; am_util_stdio_vsprintf + 1786
        0x0000e054:    2230        0"      MOVS     r2,#0x30
        0x0000e056:    700a        .p      STRB     r2,[r1,#0]
        0x0000e058:    3901        .9      SUBS     r1,#1
        0x0000e05a:    4559        YE      CMP      r1,r11
        0x0000e05c:    d2f5        ..      BCS      0xe04a ; am_util_stdio_vsprintf + 1686
        0x0000e05e:    e000        ..      B        0xe062 ; am_util_stdio_vsprintf + 1710
        0x0000e060:    9e04        ..      LDR      r6,[sp,#0x10]
        0x0000e062:    eba0010b    ....    SUB      r1,r0,r11
        0x0000e066:    f1b13fff    ...?    CMP      r1,#0xffffffff
        0x0000e06a:    f04f0200    O...    MOV      r2,#0
        0x0000e06e:    7002        .p      STRB     r2,[r0,#0]
        0x0000e070:    dc10        ..      BGT      0xe094 ; am_util_stdio_vsprintf + 1760
        0x0000e072:    f6426223    B.#b    MOV      r2,#0x2e23
        0x0000e076:    1c48        H.      ADDS     r0,r1,#1
        0x0000e078:    f2c00223    ..#.    MOVT     r2,#0x23
        0x0000e07c:    bf18        ..      IT       NE
        0x0000e07e:    f1021e1c    ....    ADDNE    lr,r2,#0x1c001c
        0x0000e082:    1c88        ..      ADDS     r0,r1,#2
        0x0000e084:    bf08        ..      IT       EQ
        0x0000e086:    4696        .F      MOVEQ    lr,r2
        0x0000e088:    4671        qF      MOV      r1,lr
        0x0000e08a:    9e04        ..      LDR      r6,[sp,#0x10]
        0x0000e08c:    f8cb1000    ....    STR      r1,[r11,#0]
        0x0000e090:    2103        .!      MOVS     r1,#3
        0x0000e092:    240d        .$      MOVS     r4,#0xd
        0x0000e094:    f1080708    ....    ADD      r7,r8,#8
        0x0000e098:    440d        .D      ADD      r5,r5,r1
        0x0000e09a:    448b        .D      ADD      r11,r11,r1
        0x0000e09c:    f241587c    A.|X    MOV      r8,#0x157c
        0x0000e0a0:    f10d0914    ....    ADD      r9,sp,#0x14
        0x0000e0a4:    f2c10800    ....    MOVT     r8,#0x1000
        0x0000e0a8:    f10c0101    ....    ADD      r1,r12,#1
        0x0000e0ac:    e491        ..      B        0xd9d2 ; am_util_stdio_vsprintf + 30
        0x0000e0ae:    3201        .2      ADDS     r2,#1
        0x0000e0b0:    700a        .p      STRB     r2,[r1,#0]
        0x0000e0b2:    e7d6        ..      B        0xe062 ; am_util_stdio_vsprintf + 1710
        0x0000e0b4:    f1bb0f00    ....    CMP      r11,#0
        0x0000e0b8:    bf1c        ..      ITT      NE
        0x0000e0ba:    2000        .       MOVNE    r0,#0
        0x0000e0bc:    f88b0000    ....    STRBNE   r0,[r11,#0]
        0x0000e0c0:    4628        (F      MOV      r0,r5
        0x0000e0c2:    b00b        ..      ADD      sp,sp,#0x2c
        0x0000e0c4:    e8bd8ff0    ....    POP      {r4-r11,pc}
    calc_func
        0x0000e0c8:    b5f0        ..      PUSH     {r4-r7,lr}
        0x0000e0ca:    b083        ..      SUB      sp,sp,#0xc
        0x0000e0cc:    8807        ..      LDRH     r7,[r0,#0]
        0x0000e0ce:    4604        .F      MOV      r4,r0
        0x0000e0d0:    0638        8.      LSLS     r0,r7,#24
        0x0000e0d2:    d41e        ..      BMI      0xe112 ; calc_func + 74
        0x0000e0d4:    460d        .F      MOV      r5,r1
        0x0000e0d6:    f0070007    ....    AND      r0,r7,#7
        0x0000e0da:    f3c701c3    ....    UBFX     r1,r7,#3,#4
        0x0000e0de:    2801        .(      CMP      r0,#1
        0x0000e0e0:    ea411101    A...    ORR      r1,r1,r1,LSL #4
        0x0000e0e4:    d018        ..      BEQ      0xe118 ; calc_func + 80
        0x0000e0e6:    463e        >F      MOV      r6,r7
        0x0000e0e8:    b9f8        ..      CBNZ     r0,0xe12a ; calc_func + 98
        0x0000e0ea:    e9d5c005    ....    LDRD     r12,r0,[r5,#0x14]
        0x0000e0ee:    2922        ")      CMP      r1,#0x22
        0x0000e0f0:    f9b52000    ...     LDRSH    r2,[r5,#0]
        0x0000e0f4:    f9b53002    ...0    LDRSH    r3,[r5,#2]
        0x0000e0f8:    8f2e        ..      LDRH     r6,[r5,#0x38]
        0x0000e0fa:    bf98        ..      IT       LS
        0x0000e0fc:    2122        "!      MOVLS    r1,#0x22
        0x0000e0fe:    9100        ..      STR      r1,[sp,#0]
        0x0000e100:    4661        aF      MOV      r1,r12
        0x0000e102:    9601        ..      STR      r6,[sp,#4]
        0x0000e104:    f000f8fa    ....    BL       core_bench_state ; 0xe2fc
        0x0000e108:    8fe9        ..      LDRH     r1,[r5,#0x3e]
        0x0000e10a:    4606        .F      MOV      r6,r0
        0x0000e10c:    b969        i.      CBNZ     r1,0xe12a ; calc_func + 98
        0x0000e10e:    87ee        ..      STRH     r6,[r5,#0x3e]
        0x0000e110:    e00b        ..      B        0xe12a ; calc_func + 98
        0x0000e112:    f007007f    ....    AND      r0,r7,#0x7f
        0x0000e116:    e014        ..      B        0xe142 ; calc_func + 122
        0x0000e118:    8f2a        *.      LDRH     r2,[r5,#0x38]
        0x0000e11a:    f1050028    ..(.    ADD      r0,r5,#0x28
        0x0000e11e:    f000f8d9    ....    BL       core_bench_matrix ; 0xe2d4
        0x0000e122:    8fa9        ..      LDRH     r1,[r5,#0x3c]
        0x0000e124:    4606        .F      MOV      r6,r0
        0x0000e126:    b901        ..      CBNZ     r1,0xe12a ; calc_func + 98
        0x0000e128:    87ae        ..      STRH     r6,[r5,#0x3c]
        0x0000e12a:    8f29        ).      LDRH     r1,[r5,#0x38]
        0x0000e12c:    4630        0F      MOV      r0,r6
        0x0000e12e:    f000fba7    ....    BL       crcu16 ; 0xe880
        0x0000e132:    f3660706    f...    BFI      r7,r6,#0,#7
        0x0000e136:    8728        (.      STRH     r0,[r5,#0x38]
        0x0000e138:    f006007f    ....    AND      r0,r6,#0x7f
        0x0000e13c:    f0470180    G...    ORR      r1,r7,#0x80
        0x0000e140:    8021        !.      STRH     r1,[r4,#0]
        0x0000e142:    b003        ..      ADD      sp,sp,#0xc
        0x0000e144:    bdf0        ..      POP      {r4-r7,pc}
    check_data_types
        0x0000e146:    2000        .       MOVS     r0,#0
        0x0000e148:    4770        pG      BX       lr
    cmp_complex
        0x0000e14a:    b570        p.      PUSH     {r4-r6,lr}
        0x0000e14c:    460d        .F      MOV      r5,r1
        0x0000e14e:    4611        .F      MOV      r1,r2
        0x0000e150:    4614        .F      MOV      r4,r2
        0x0000e152:    f7ffffb9    ....    BL       calc_func ; 0xe0c8
        0x0000e156:    4606        .F      MOV      r6,r0
        0x0000e158:    4628        (F      MOV      r0,r5
        0x0000e15a:    4621        !F      MOV      r1,r4
        0x0000e15c:    f7ffffb4    ....    BL       calc_func ; 0xe0c8
        0x0000e160:    b2b1        ..      UXTH     r1,r6
        0x0000e162:    b280        ..      UXTH     r0,r0
        0x0000e164:    1a08        ..      SUBS     r0,r1,r0
        0x0000e166:    bd70        p.      POP      {r4-r6,pc}
    cmp_idx
        0x0000e168:    b91a        ..      CBNZ     r2,0xe172 ; cmp_idx + 10
        0x0000e16a:    7842        Bx      LDRB     r2,[r0,#1]
        0x0000e16c:    7002        .p      STRB     r2,[r0,#0]
        0x0000e16e:    784a        Jx      LDRB     r2,[r1,#1]
        0x0000e170:    700a        .p      STRB     r2,[r1,#0]
        0x0000e172:    f9b00002    ....    LDRSH    r0,[r0,#2]
        0x0000e176:    f9b11002    ....    LDRSH    r1,[r1,#2]
        0x0000e17a:    1a40        @.      SUBS     r0,r0,r1
        0x0000e17c:    4770        pG      BX       lr
        0x0000e17e:    0000        ..      MOVS     r0,r0
    core_bench_list
        0x0000e180:    e92d4ff0    -..O    PUSH     {r4-r11,lr}
        0x0000e184:    b083        ..      SUB      sp,sp,#0xc
        0x0000e186:    f9b06004    ...`    LDRSH    r6,[r0,#4]
        0x0000e18a:    6a44        Dj      LDR      r4,[r0,#0x24]
        0x0000e18c:    f04f0b00    O...    MOV      r11,#0
        0x0000e190:    2e01        ..      CMP      r6,#1
        0x0000e192:    9000        ..      STR      r0,[sp,#0]
        0x0000e194:    f8cdb008    ....    STR      r11,[sp,#8]
        0x0000e198:    f8ad100a    ....    STRH     r1,[sp,#0xa]
        0x0000e19c:    9101        ..      STR      r1,[sp,#4]
        0x0000e19e:    db46        F.      BLT      0xe22e ; core_bench_list + 174
        0x0000e1a0:    f04f0800    O...    MOV      r8,#0
        0x0000e1a4:    f10d0a08    ....    ADD      r10,sp,#8
        0x0000e1a8:    4689        .F      MOV      r9,r1
        0x0000e1aa:    2700        .'      MOVS     r7,#0
        0x0000e1ac:    2500        .%      MOVS     r5,#0
        0x0000e1ae:    f04f0b00    O...    MOV      r11,#0
        0x0000e1b2:    bf00        ..      NOP      
        0x0000e1b4:    fa5ff088    _...    UXTB     r0,r8
        0x0000e1b8:    f8ad0008    ....    STRH     r0,[sp,#8]
        0x0000e1bc:    4620         F      MOV      r0,r4
        0x0000e1be:    4651        QF      MOV      r1,r10
        0x0000e1c0:    f000f9c8    ....    BL       core_list_find ; 0xe554
        0x0000e1c4:    b154        T.      CBZ      r4,0xe1dc ; core_bench_list + 92
        0x0000e1c6:    2200        ."      MOVS     r2,#0
        0x0000e1c8:    4621        !F      MOV      r1,r4
        0x0000e1ca:    bf00        ..      NOP      
        0x0000e1cc:    460c        .F      MOV      r4,r1
        0x0000e1ce:    6809        .h      LDR      r1,[r1,#0]
        0x0000e1d0:    6022        "`      STR      r2,[r4,#0]
        0x0000e1d2:    2900        .)      CMP      r1,#0
        0x0000e1d4:    4622        "F      MOV      r2,r4
        0x0000e1d6:    d1f9        ..      BNE      0xe1cc ; core_bench_list + 76
        0x0000e1d8:    e001        ..      B        0xe1de ; core_bench_list + 94
        0x0000e1da:    bf00        ..      NOP      
        0x0000e1dc:    2400        .$      MOVS     r4,#0
        0x0000e1de:    b178        x.      CBZ      r0,0xe200 ; core_bench_list + 128
        0x0000e1e0:    6841        Ah      LDR      r1,[r0,#4]
        0x0000e1e2:    6802        .h      LDR      r2,[r0,#0]
        0x0000e1e4:    8809        ..      LDRH     r1,[r1,#0]
        0x0000e1e6:    3501        .5      ADDS     r5,#1
        0x0000e1e8:    ea012151    ..Q!    AND      r1,r1,r1,LSR #9
        0x0000e1ec:    f0010101    ....    AND      r1,r1,#1
        0x0000e1f0:    b16a        j.      CBZ      r2,0xe20e ; core_bench_list + 142
        0x0000e1f2:    6813        .h      LDR      r3,[r2,#0]
        0x0000e1f4:    6003        .`      STR      r3,[r0,#0]
        0x0000e1f6:    6820         h      LDR      r0,[r4,#0]
        0x0000e1f8:    6010        .`      STR      r0,[r2,#0]
        0x0000e1fa:    6022        "`      STR      r2,[r4,#0]
        0x0000e1fc:    e007        ..      B        0xe20e ; core_bench_list + 142
        0x0000e1fe:    bf00        ..      NOP      
        0x0000e200:    6820         h      LDR      r0,[r4,#0]
        0x0000e202:    f10b0b01    ....    ADD      r11,r11,#1
        0x0000e206:    6840        @h      LDR      r0,[r0,#4]
        0x0000e208:    8800        ..      LDRH     r0,[r0,#0]
        0x0000e20a:    f3c02100    ...!    UBFX     r1,r0,#8,#1
        0x0000e20e:    fa0ff089    ....    SXTH     r0,r9
        0x0000e212:    2800        .(      CMP      r0,#0
        0x0000e214:    d403        ..      BMI      0xe21e ; core_bench_list + 158
        0x0000e216:    f1090901    ....    ADD      r9,r9,#1
        0x0000e21a:    f8ad900a    ....    STRH     r9,[sp,#0xa]
        0x0000e21e:    f1080001    ....    ADD      r0,r8,#1
        0x0000e222:    fa0ff880    ....    SXTH     r8,r0
        0x0000e226:    45b0        .E      CMP      r8,r6
        0x0000e228:    440f        .D      ADD      r7,r7,r1
        0x0000e22a:    dbc3        ..      BLT      0xe1b4 ; core_bench_list + 52
        0x0000e22c:    e001        ..      B        0xe232 ; core_bench_list + 178
        0x0000e22e:    2500        .%      MOVS     r5,#0
        0x0000e230:    2700        .'      MOVS     r7,#0
        0x0000e232:    9901        ..      LDR      r1,[sp,#4]
        0x0000e234:    ebcb0085    ....    RSB      r0,r11,r5,LSL #2
        0x0000e238:    2901        .)      CMP      r1,#1
        0x0000e23a:    eb000607    ....    ADD      r6,r0,r7
        0x0000e23e:    db08        ..      BLT      0xe252 ; core_bench_list + 210
        0x0000e240:    f24e114b    N.K.    MOV      r1,#0xe14b
        0x0000e244:    9a00        ..      LDR      r2,[sp,#0]
        0x0000e246:    f2c00100    ....    MOVT     r1,#0
        0x0000e24a:    4620         F      MOV      r0,r4
        0x0000e24c:    f000fa1c    ....    BL       core_list_mergesort ; 0xe688
        0x0000e250:    4604        .F      MOV      r4,r0
        0x0000e252:    6820         h      LDR      r0,[r4,#0]
        0x0000e254:    e9d07800    ...x    LDRD     r7,r8,[r0,#0]
        0x0000e258:    e9d72100    ...!    LDRD     r2,r1,[r7,#0]
        0x0000e25c:    6041        A`      STR      r1,[r0,#4]
        0x0000e25e:    6002        .`      STR      r2,[r0,#0]
        0x0000e260:    2000        .       MOVS     r0,#0
        0x0000e262:    6038        8`      STR      r0,[r7,#0]
        0x0000e264:    a902        ..      ADD      r1,sp,#8
        0x0000e266:    4620         F      MOV      r0,r4
        0x0000e268:    f8c78004    ....    STR      r8,[r7,#4]
        0x0000e26c:    f000f972    ..r.    BL       core_list_find ; 0xe554
        0x0000e270:    4605        .F      MOV      r5,r0
        0x0000e272:    b908        ..      CBNZ     r0,0xe278 ; core_bench_list + 248
        0x0000e274:    6825        %h      LDR      r5,[r4,#0]
        0x0000e276:    b15d        ].      CBZ      r5,0xe290 ; core_bench_list + 272
        0x0000e278:    6860        `h      LDR      r0,[r4,#4]
        0x0000e27a:    b2b1        ..      UXTH     r1,r6
        0x0000e27c:    f9b00000    ....    LDRSH    r0,[r0,#0]
        0x0000e280:    f000fafa    ....    BL       crc16 ; 0xe878
        0x0000e284:    682d        -h      LDR      r5,[r5,#0]
        0x0000e286:    4606        .F      MOV      r6,r0
        0x0000e288:    2d00        .-      CMP      r5,#0
        0x0000e28a:    d1f5        ..      BNE      0xe278 ; core_bench_list + 248
        0x0000e28c:    f8d78004    ....    LDR      r8,[r7,#4]
        0x0000e290:    6820         h      LDR      r0,[r4,#0]
        0x0000e292:    e9d02100    ...!    LDRD     r2,r1,[r0,#0]
        0x0000e296:    6079        y`      STR      r1,[r7,#4]
        0x0000e298:    f24e1169    N.i.    MOV      r1,#0xe169
        0x0000e29c:    f8c08004    ....    STR      r8,[r0,#4]
        0x0000e2a0:    603a        :`      STR      r2,[r7,#0]
        0x0000e2a2:    6007        .`      STR      r7,[r0,#0]
        0x0000e2a4:    f2c00100    ....    MOVT     r1,#0
        0x0000e2a8:    4620         F      MOV      r0,r4
        0x0000e2aa:    2200        ."      MOVS     r2,#0
        0x0000e2ac:    f000f9ec    ....    BL       core_list_mergesort ; 0xe688
        0x0000e2b0:    6805        .h      LDR      r5,[r0,#0]
        0x0000e2b2:    b15d        ].      CBZ      r5,0xe2cc ; core_bench_list + 332
        0x0000e2b4:    4604        .F      MOV      r4,r0
        0x0000e2b6:    bf00        ..      NOP      
        0x0000e2b8:    6860        `h      LDR      r0,[r4,#4]
        0x0000e2ba:    b2b1        ..      UXTH     r1,r6
        0x0000e2bc:    f9b00000    ....    LDRSH    r0,[r0,#0]
        0x0000e2c0:    f000fada    ....    BL       crc16 ; 0xe878
        0x0000e2c4:    682d        -h      LDR      r5,[r5,#0]
        0x0000e2c6:    4606        .F      MOV      r6,r0
        0x0000e2c8:    2d00        .-      CMP      r5,#0
        0x0000e2ca:    d1f5        ..      BNE      0xe2b8 ; core_bench_list + 312
        0x0000e2cc:    b2b0        ..      UXTH     r0,r6
        0x0000e2ce:    b003        ..      ADD      sp,sp,#0xc
        0x0000e2d0:    e8bd8ff0    ....    POP      {r4-r11,pc}
    core_bench_matrix
        0x0000e2d4:    b5f0        ..      PUSH     {r4-r7,lr}
        0x0000e2d6:    b081        ..      SUB      sp,sp,#4
        0x0000e2d8:    4617        .F      MOV      r7,r2
        0x0000e2da:    e9d04200    ...B    LDRD     r4,r2,[r0,#0]
        0x0000e2de:    e9d03502    ...5    LDRD     r3,r5,[r0,#8]
        0x0000e2e2:    460e        .F      MOV      r6,r1
        0x0000e2e4:    4620         F      MOV      r0,r4
        0x0000e2e6:    4629        )F      MOV      r1,r5
        0x0000e2e8:    9600        ..      STR      r6,[sp,#0]
        0x0000e2ea:    f000fff9    ....    BL       matrix_test ; 0xf2e0
        0x0000e2ee:    4639        9F      MOV      r1,r7
        0x0000e2f0:    b001        ..      ADD      sp,sp,#4
        0x0000e2f2:    e8bd40f0    ...@    POP      {r4-r7,lr}
        0x0000e2f6:    f000babf    ....    B.W      crc16 ; 0xe878
        0x0000e2fa:    0000        ..      MOVS     r0,r0
    core_bench_state
        0x0000e2fc:    e92d4ff0    -..O    PUSH     {r4-r11,lr}
        0x0000e300:    b093        ..      SUB      sp,sp,#0x4c
        0x0000e302:    f10d0b0c    ....    ADD      r11,sp,#0xc
        0x0000e306:    460e        .F      MOV      r6,r1
        0x0000e308:    4682        .F      MOV      r10,r0
        0x0000e30a:    9102        ..      STR      r1,[sp,#8]
        0x0000e30c:    4658        XF      MOV      r0,r11
        0x0000e30e:    2120         !      MOVS     r1,#0x20
        0x0000e310:    e9cd2300    ...#    STRD     r2,r3,[sp,#0]
        0x0000e314:    f7fdff8c    ....    BL       __aeabi_memclr4 ; 0xc230
        0x0000e318:    ad0b        ..      ADD      r5,sp,#0x2c
        0x0000e31a:    4628        (F      MOV      r0,r5
        0x0000e31c:    2120         !      MOVS     r1,#0x20
        0x0000e31e:    f7fdff87    ....    BL       __aeabi_memclr4 ; 0xc230
        0x0000e322:    7830        0x      LDRB     r0,[r6,#0]
        0x0000e324:    b178        x.      CBZ      r0,0xe346 ; core_bench_state + 74
        0x0000e326:    af02        ..      ADD      r7,sp,#8
        0x0000e328:    ac03        ..      ADD      r4,sp,#0xc
        0x0000e32a:    bf00        ..      NOP      
        0x0000e32c:    4638        8F      MOV      r0,r7
        0x0000e32e:    4621        !F      MOV      r1,r4
        0x0000e330:    f000fa12    ....    BL       core_state_transition ; 0xe758
        0x0000e334:    9902        ..      LDR      r1,[sp,#8]
        0x0000e336:    f8552020    U.      LDR      r2,[r5,r0,LSL #2]
        0x0000e33a:    7809        .x      LDRB     r1,[r1,#0]
        0x0000e33c:    3201        .2      ADDS     r2,#1
        0x0000e33e:    2900        .)      CMP      r1,#0
        0x0000e340:    f8452020    E.      STR      r2,[r5,r0,LSL #2]
        0x0000e344:    d1f2        ..      BNE      0xe32c ; core_bench_state + 48
        0x0000e346:    f8dd8070    ..p.    LDR      r8,[sp,#0x70]
        0x0000e34a:    f1ba0f01    ....    CMP      r10,#1
        0x0000e34e:    eb06090a    ....    ADD      r9,r6,r10
        0x0000e352:    db0b        ..      BLT      0xe36c ; core_bench_state + 112
        0x0000e354:    9800        ..      LDR      r0,[sp,#0]
        0x0000e356:    4631        1F      MOV      r1,r6
        0x0000e358:    b2c0        ..      UXTB     r0,r0
        0x0000e35a:    bf00        ..      NOP      
        0x0000e35c:    780a        .x      LDRB     r2,[r1,#0]
        0x0000e35e:    2a2c        ,*      CMP      r2,#0x2c
        0x0000e360:    bf1c        ..      ITT      NE
        0x0000e362:    4042        B@      EORNE    r2,r2,r0
        0x0000e364:    700a        .p      STRBNE   r2,[r1,#0]
        0x0000e366:    4441        AD      ADD      r1,r1,r8
        0x0000e368:    4549        IE      CMP      r1,r9
        0x0000e36a:    d3f7        ..      BCC      0xe35c ; core_bench_state + 96
        0x0000e36c:    7830        0x      LDRB     r0,[r6,#0]
        0x0000e36e:    9602        ..      STR      r6,[sp,#8]
        0x0000e370:    b178        x.      CBZ      r0,0xe392 ; core_bench_state + 150
        0x0000e372:    af02        ..      ADD      r7,sp,#8
        0x0000e374:    ac03        ..      ADD      r4,sp,#0xc
        0x0000e376:    bf00        ..      NOP      
        0x0000e378:    4638        8F      MOV      r0,r7
        0x0000e37a:    4621        !F      MOV      r1,r4
        0x0000e37c:    f000f9ec    ....    BL       core_state_transition ; 0xe758
        0x0000e380:    9902        ..      LDR      r1,[sp,#8]
        0x0000e382:    f8552020    U.      LDR      r2,[r5,r0,LSL #2]
        0x0000e386:    7809        .x      LDRB     r1,[r1,#0]
        0x0000e388:    3201        .2      ADDS     r2,#1
        0x0000e38a:    2900        .)      CMP      r1,#0
        0x0000e38c:    f8452020    E.      STR      r2,[r5,r0,LSL #2]
        0x0000e390:    d1f2        ..      BNE      0xe378 ; core_bench_state + 124
        0x0000e392:    f1ba0f01    ....    CMP      r10,#1
        0x0000e396:    db09        ..      BLT      0xe3ac ; core_bench_state + 176
        0x0000e398:    9801        ..      LDR      r0,[sp,#4]
        0x0000e39a:    b2c0        ..      UXTB     r0,r0
        0x0000e39c:    7831        1x      LDRB     r1,[r6,#0]
        0x0000e39e:    292c        ,)      CMP      r1,#0x2c
        0x0000e3a0:    bf1c        ..      ITT      NE
        0x0000e3a2:    4041        A@      EORNE    r1,r1,r0
        0x0000e3a4:    7031        1p      STRBNE   r1,[r6,#0]
        0x0000e3a6:    4446        FD      ADD      r6,r6,r8
        0x0000e3a8:    454e        NE      CMP      r6,r9
        0x0000e3aa:    d3f7        ..      BCC      0xe39c ; core_bench_state + 160
        0x0000e3ac:    981d        ..      LDR      r0,[sp,#0x74]
        0x0000e3ae:    2400        .$      MOVS     r4,#0
        0x0000e3b0:    f8552024    U.$     LDR      r2,[r5,r4,LSL #2]
        0x0000e3b4:    b281        ..      UXTH     r1,r0
        0x0000e3b6:    4610        .F      MOV      r0,r2
        0x0000e3b8:    f000fa8a    ....    BL       crcu32 ; 0xe8d0
        0x0000e3bc:    f85b1024    [.$.    LDR      r1,[r11,r4,LSL #2]
        0x0000e3c0:    4602        .F      MOV      r2,r0
        0x0000e3c2:    4608        .F      MOV      r0,r1
        0x0000e3c4:    4611        .F      MOV      r1,r2
        0x0000e3c6:    f000fa83    ....    BL       crcu32 ; 0xe8d0
        0x0000e3ca:    3401        .4      ADDS     r4,#1
        0x0000e3cc:    2c08        .,      CMP      r4,#8
        0x0000e3ce:    d1ef        ..      BNE      0xe3b0 ; core_bench_state + 180
        0x0000e3d0:    b013        ..      ADD      sp,sp,#0x4c
        0x0000e3d2:    e8bd8ff0    ....    POP      {r4-r11,pc}
        0x0000e3d6:    0000        ..      MOVS     r0,r0
    core_init_matrix
        0x0000e3d8:    e92d4ff0    -..O    PUSH     {r4-r11,lr}
        0x0000e3dc:    b083        ..      SUB      sp,sp,#0xc
        0x0000e3de:    2a00        .*      CMP      r2,#0
        0x0000e3e0:    9301        ..      STR      r3,[sp,#4]
        0x0000e3e2:    bf08        ..      IT       EQ
        0x0000e3e4:    2201        ."      MOVEQ    r2,#1
        0x0000e3e6:    b158        X.      CBZ      r0,0xe400 ; core_init_matrix + 40
        0x0000e3e8:    4684        .F      MOV      r12,r0
        0x0000e3ea:    f04f30ff    O..0    MOV      r0,#0xffffffff
        0x0000e3ee:    2708        .'      MOVS     r7,#8
        0x0000e3f0:    1c86        ..      ADDS     r6,r0,#2
        0x0000e3f2:    437e        ~C      MULS     r6,r7,r6
        0x0000e3f4:    3001        .0      ADDS     r0,#1
        0x0000e3f6:    4566        fE      CMP      r6,r12
        0x0000e3f8:    f1070708    ....    ADD      r7,r7,#8
        0x0000e3fc:    d3f8        ..      BCC      0xe3f0 ; core_init_matrix + 24
        0x0000e3fe:    e001        ..      B        0xe404 ; core_init_matrix + 44
        0x0000e400:    f04f30ff    O..0    MOV      r0,#0xffffffff
        0x0000e404:    3103        .1      ADDS     r1,#3
        0x0000e406:    f0210103    !...    BIC      r1,r1,#3
        0x0000e40a:    fb00f800    ....    MUL      r8,r0,r0
        0x0000e40e:    9102        ..      STR      r1,[sp,#8]
        0x0000e410:    eb010148    ..H.    ADD      r1,r1,r8,LSL #1
        0x0000e414:    9100        ..      STR      r1,[sp,#0]
        0x0000e416:    b360        `.      CBZ      r0,0xe472 ; core_init_matrix + 154
        0x0000e418:    9c02        ..      LDR      r4,[sp,#8]
        0x0000e41a:    ea4f0940    O.@.    LSL      r9,r0,#1
        0x0000e41e:    ea4f0a48    O.H.    LSL      r10,r8,#1
        0x0000e422:    2601        .&      MOVS     r6,#1
        0x0000e424:    f04f0b00    O...    MOV      r11,#0
        0x0000e428:    f64f71ff    O..q    MOV      r1,#0xffff
        0x0000e42c:    eb04070a    ....    ADD      r7,r4,r10
        0x0000e430:    ea4f0c46    O.F.    LSL      r12,r6,#1
        0x0000e434:    2500        .%      MOVS     r5,#0
        0x0000e436:    bf00        ..      NOP      
        0x0000e438:    eb060e05    ....    ADD      lr,r6,r5
        0x0000e43c:    fb02f20e    ....    MUL      r2,r2,lr
        0x0000e440:    17d3        ..      ASRS     r3,r2,#31
        0x0000e442:    eb024313    ...C    ADD      r3,r2,r3,LSR #16
        0x0000e446:    438b        .C      BICS     r3,r3,r1
        0x0000e448:    1ad2        ..      SUBS     r2,r2,r3
        0x0000e44a:    eb0e0302    ....    ADD      r3,lr,r2
        0x0000e44e:    f8273015    '..0    STRH     r3,[r7,r5,LSL #1]
        0x0000e452:    eb0c0302    ....    ADD      r3,r12,r2
        0x0000e456:    b2db        ..      UXTB     r3,r3
        0x0000e458:    f8243015    $..0    STRH     r3,[r4,r5,LSL #1]
        0x0000e45c:    3501        .5      ADDS     r5,#1
        0x0000e45e:    42a8        .B      CMP      r0,r5
        0x0000e460:    f10c0c02    ....    ADD      r12,r12,#2
        0x0000e464:    d1e8        ..      BNE      0xe438 ; core_init_matrix + 96
        0x0000e466:    f10b0b01    ....    ADD      r11,r11,#1
        0x0000e46a:    444c        LD      ADD      r4,r4,r9
        0x0000e46c:    4583        .E      CMP      r11,r0
        0x0000e46e:    442e        .D      ADD      r6,r6,r5
        0x0000e470:    d1dc        ..      BNE      0xe42c ; core_init_matrix + 84
        0x0000e472:    9f00        ..      LDR      r7,[sp,#0]
        0x0000e474:    9a01        ..      LDR      r2,[sp,#4]
        0x0000e476:    eb070148    ..H.    ADD      r1,r7,r8,LSL #1
        0x0000e47a:    3103        .1      ADDS     r1,#3
        0x0000e47c:    9b02        ..      LDR      r3,[sp,#8]
        0x0000e47e:    f0210103    !...    BIC      r1,r1,#3
        0x0000e482:    6010        .`      STR      r0,[r2,#0]
        0x0000e484:    e9c23701    ...7    STRD     r3,r7,[r2,#4]
        0x0000e488:    60d1        .`      STR      r1,[r2,#0xc]
        0x0000e48a:    b003        ..      ADD      sp,sp,#0xc
        0x0000e48c:    e8bd8ff0    ....    POP      {r4-r11,pc}
    core_init_state
        0x0000e490:    e92d4ff0    -..O    PUSH     {r4-r11,lr}
        0x0000e494:    b081        ..      SUB      sp,sp,#4
        0x0000e496:    f1a00c01    ....    SUB      r12,r0,#1
        0x0000e49a:    f1bc0f02    ....    CMP      r12,#2
        0x0000e49e:    9000        ..      STR      r0,[sp,#0]
        0x0000e4a0:    d32a        *.      BCC      0xe4f8 ; core_init_state + 104
        0x0000e4a2:    2700        .'      MOVS     r7,#0
        0x0000e4a4:    f20f0e6c    ..l.    ADR.W    lr,{pc}+0x70 ; 0xe514
        0x0000e4a8:    f20f0988    ....    ADR.W    r9,{pc}+0x8c ; 0xe534
        0x0000e4ac:    f04f0a0c    O...    MOV      r10,#0xc
        0x0000e4b0:    202c        ,       MOVS     r0,#0x2c
        0x0000e4b2:    2300        .#      MOVS     r3,#0
        0x0000e4b4:    f04f0b00    O...    MOV      r11,#0
        0x0000e4b8:    b173        s.      CBZ      r3,0xe4d8 ; core_init_state + 72
        0x0000e4ba:    eb02050b    ....    ADD      r5,r2,r11
        0x0000e4be:    462c        ,F      MOV      r4,r5
        0x0000e4c0:    461e        .F      MOV      r6,r3
        0x0000e4c2:    bf00        ..      NOP      
        0x0000e4c4:    f8178b01    ....    LDRB     r8,[r7],#1
        0x0000e4c8:    3e01        .>      SUBS     r6,#1
        0x0000e4ca:    f8048b01    ....    STRB     r8,[r4],#1
        0x0000e4ce:    d1f9        ..      BNE      0xe4c4 ; core_init_state + 52
        0x0000e4d0:    54e8        .T      STRB     r0,[r5,r3]
        0x0000e4d2:    445b        [D      ADD      r3,r3,r11
        0x0000e4d4:    f1030b01    ....    ADD      r11,r3,#1
        0x0000e4d8:    3101        .1      ADDS     r1,#1
        0x0000e4da:    f0010307    ....    AND      r3,r1,#7
        0x0000e4de:    f85e4023    ^.#@    LDR      r4,[lr,r3,LSL #2]
        0x0000e4e2:    f8593023    Y.#0    LDR      r3,[r9,r3,LSL #2]
        0x0000e4e6:    ea0a0551    ..Q.    AND      r5,r10,r1,LSR #1
        0x0000e4ea:    5967        gY      LDR      r7,[r4,r5]
        0x0000e4ec:    eb0b0403    ....    ADD      r4,r11,r3
        0x0000e4f0:    3401        .4      ADDS     r4,#1
        0x0000e4f2:    4564        dE      CMP      r4,r12
        0x0000e4f4:    d3e0        ..      BCC      0xe4b8 ; core_init_state + 40
        0x0000e4f6:    e001        ..      B        0xe4fc ; core_init_state + 108
        0x0000e4f8:    f04f0b00    O...    MOV      r11,#0
        0x0000e4fc:    9800        ..      LDR      r0,[sp,#0]
        0x0000e4fe:    4583        .E      CMP      r11,r0
        0x0000e500:    d205        ..      BCS      0xe50e ; core_init_state + 126
        0x0000e502:    445a        ZD      ADD      r2,r2,r11
        0x0000e504:    eba0010b    ....    SUB      r1,r0,r11
        0x0000e508:    4610        .F      MOV      r0,r2
        0x0000e50a:    f7fdfe6f    ..o.    BL       __aeabi_memclr ; 0xc1ec
        0x0000e50e:    b001        ..      ADD      sp,sp,#4
        0x0000e510:    e8bd8ff0    ....    POP      {r4-r11,pc}
    $d.5
        0x0000e514:    00010664    d...    DCD    67172
        0x0000e518:    00010664    d...    DCD    67172
        0x0000e51c:    00010664    d...    DCD    67172
        0x0000e520:    0001049c    ....    DCD    66716
        0x0000e524:    0001049c    ....    DCD    66716
        0x0000e528:    00010688    ....    DCD    67208
        0x0000e52c:    00010688    ....    DCD    67208
        0x0000e530:    0001048c    ....    DCD    66700
        0x0000e534:    00000004    ....    DCD    4
        0x0000e538:    00000004    ....    DCD    4
        0x0000e53c:    00000004    ....    DCD    4
        0x0000e540:    00000008    ....    DCD    8
        0x0000e544:    00000008    ....    DCD    8
        0x0000e548:    00000008    ....    DCD    8
        0x0000e54c:    00000008    ....    DCD    8
        0x0000e550:    00000008    ....    DCD    8
    $t.5
    core_list_find
        0x0000e554:    f9b12002    ...     LDRSH    r2,[r1,#2]
        0x0000e558:    f1b23fff    ...?    CMP      r2,#0xffffffff
        0x0000e55c:    dd0b        ..      BLE      0xe576 ; core_list_find + 34
        0x0000e55e:    b1a0        ..      CBZ      r0,0xe58a ; core_list_find + 54
        0x0000e560:    b291        ..      UXTH     r1,r2
        0x0000e562:    bf00        ..      NOP      
        0x0000e564:    6842        Bh      LDR      r2,[r0,#4]
        0x0000e566:    8852        R.      LDRH     r2,[r2,#2]
        0x0000e568:    428a        .B      CMP      r2,r1
        0x0000e56a:    bf08        ..      IT       EQ
        0x0000e56c:    4770        pG      BXEQ     lr
        0x0000e56e:    6800        .h      LDR      r0,[r0,#0]
        0x0000e570:    2800        .(      CMP      r0,#0
        0x0000e572:    d1f7        ..      BNE      0xe564 ; core_list_find + 16
        0x0000e574:    e009        ..      B        0xe58a ; core_list_find + 54
        0x0000e576:    b140        @.      CBZ      r0,0xe58a ; core_list_find + 54
        0x0000e578:    f9b11000    ....    LDRSH    r1,[r1,#0]
        0x0000e57c:    6842        Bh      LDR      r2,[r0,#4]
        0x0000e57e:    7812        .x      LDRB     r2,[r2,#0]
        0x0000e580:    428a        .B      CMP      r2,r1
        0x0000e582:    d003        ..      BEQ      0xe58c ; core_list_find + 56
        0x0000e584:    6800        .h      LDR      r0,[r0,#0]
        0x0000e586:    2800        .(      CMP      r0,#0
        0x0000e588:    d1f8        ..      BNE      0xe57c ; core_list_find + 40
        0x0000e58a:    2000        .       MOVS     r0,#0
        0x0000e58c:    4770        pG      BX       lr
        0x0000e58e:    0000        ..      MOVS     r0,r0
    core_list_init
        0x0000e590:    e92d4ff0    -..O    PUSH     {r4-r11,lr}
        0x0000e594:    4686        .F      MOV      lr,r0
        0x0000e596:    f64c40cd    L..@    MOV      r0,#0xcccd
        0x0000e59a:    f6cc40cc    ...@    MOVT     r0,#0xcccc
        0x0000e59e:    fbae0300    ....    UMULL    r0,r3,lr,r0
        0x0000e5a2:    4608        .F      MOV      r0,r1
        0x0000e5a4:    f06f0101    o...    MVN      r1,#1
        0x0000e5a8:    eb011a13    ....    ADD      r10,r1,r3,LSR #4
        0x0000e5ac:    eb0008ca    ....    ADD      r8,r0,r10,LSL #3
        0x0000e5b0:    2100        .!      MOVS     r1,#0
        0x0000e5b2:    f2480380    H...    MOV      r3,#0x8080
        0x0000e5b6:    4647        GF      MOV      r7,r8
        0x0000e5b8:    eb08098a    ....    ADD      r9,r8,r10,LSL #2
        0x0000e5bc:    e9c01800    ....    STRD     r1,r8,[r0,#0]
        0x0000e5c0:    f8473b08    G..;    STR      r3,[r7],#8
        0x0000e5c4:    f1000308    ....    ADD      r3,r0,#8
        0x0000e5c8:    f1be0f64    ..d.    CMP      lr,#0x64
        0x0000e5cc:    f1080b04    ....    ADD      r11,r8,#4
        0x0000e5d0:    bf28        (.      IT       CS
        0x0000e5d2:    45b9        .E      CMPCS    r9,r7
        0x0000e5d4:    d90b        ..      BLS      0xe5ee ; core_list_init + 94
        0x0000e5d6:    2600        .&      MOVS     r6,#0
        0x0000e5d8:    e9c06b02    ...k    STRD     r6,r11,[r0,#8]
        0x0000e5dc:    f06f4600    o..F    MVN      r6,#0x80000000
        0x0000e5e0:    6003        .`      STR      r3,[r0,#0]
        0x0000e5e2:    4619        .F      MOV      r1,r3
        0x0000e5e4:    f1000310    ....    ADD      r3,r0,#0x10
        0x0000e5e8:    f8cb6000    ...`    STR      r6,[r11,#0]
        0x0000e5ec:    46bb        .F      MOV      r11,r7
        0x0000e5ee:    f1ba0f00    ....    CMP      r10,#0
        0x0000e5f2:    d021        !.      BEQ      0xe638 ; core_list_init + 168
        0x0000e5f4:    2700        .'      MOVS     r7,#0
        0x0000e5f6:    f6477eff    G..~    MOV      lr,#0x7fff
        0x0000e5fa:    bf00        ..      NOP      
        0x0000e5fc:    f10b0404    ....    ADD      r4,r11,#4
        0x0000e600:    454c        LE      CMP      r4,r9
        0x0000e602:    d216        ..      BCS      0xe632 ; core_list_init + 162
        0x0000e604:    f1030608    ....    ADD      r6,r3,#8
        0x0000e608:    4546        FE      CMP      r6,r8
        0x0000e60a:    d212        ..      BCS      0xe632 ; core_list_init + 162
        0x0000e60c:    ea870502    ....    EOR      r5,r7,r2
        0x0000e610:    f0070c07    ....    AND      r12,r7,#7
        0x0000e614:    f3650cc6    e...    BFI      r12,r5,#3,#4
        0x0000e618:    ea4c250c    L..%    ORR      r5,r12,r12,LSL #8
        0x0000e61c:    6019        .`      STR      r1,[r3,#0]
        0x0000e61e:    6003        .`      STR      r3,[r0,#0]
        0x0000e620:    f8c3b004    ....    STR      r11,[r3,#4]
        0x0000e624:    f8ab5000    ...P    STRH     r5,[r11,#0]
        0x0000e628:    f8abe002    ....    STRH     lr,[r11,#2]
        0x0000e62c:    4619        .F      MOV      r1,r3
        0x0000e62e:    46a3        .F      MOV      r11,r4
        0x0000e630:    4633        3F      MOV      r3,r6
        0x0000e632:    3701        .7      ADDS     r7,#1
        0x0000e634:    45ba        .E      CMP      r10,r7
        0x0000e636:    d1e1        ..      BNE      0xe5fc ; core_list_init + 108
        0x0000e638:    680e        .h      LDR      r6,[r1,#0]
        0x0000e63a:    b1de        ..      CBZ      r6,0xe674 ; core_list_init + 228
        0x0000e63c:    f64c43cd    L..C    MOV      r3,#0xcccd
        0x0000e640:    f6cc43cc    ...C    MOVT     r3,#0xcccc
        0x0000e644:    fbaa3703    ...7    UMULL    r3,r7,r10,r3
        0x0000e648:    ea4f0c97    O...    LSR      r12,r7,#2
        0x0000e64c:    2701        .'      MOVS     r7,#1
        0x0000e64e:    bf00        ..      NOP      
        0x0000e650:    1c7d        }.      ADDS     r5,r7,#1
        0x0000e652:    ea870402    ....    EOR      r4,r7,r2
        0x0000e656:    f0050307    ....    AND      r3,r5,#7
        0x0000e65a:    f36f349f    o..4    BFC      r4,#14,#18
        0x0000e65e:    4567        gE      CMP      r7,r12
        0x0000e660:    bf28        (.      IT       CS
        0x0000e662:    ea442703    D..'    ORRCS    r7,r4,r3,LSL #8
        0x0000e666:    684b        Kh      LDR      r3,[r1,#4]
        0x0000e668:    4631        1F      MOV      r1,r6
        0x0000e66a:    6836        6h      LDR      r6,[r6,#0]
        0x0000e66c:    805f        _.      STRH     r7,[r3,#2]
        0x0000e66e:    2e00        ..      CMP      r6,#0
        0x0000e670:    462f        /F      MOV      r7,r5
        0x0000e672:    d1ed        ..      BNE      0xe650 ; core_list_init + 192
        0x0000e674:    f24e1169    N.i.    MOV      r1,#0xe169
        0x0000e678:    f2c00100    ....    MOVT     r1,#0
        0x0000e67c:    2200        ."      MOVS     r2,#0
        0x0000e67e:    e8bd4ff0    ...O    POP      {r4-r11,lr}
        0x0000e682:    f000b801    ....    B.W      core_list_mergesort ; 0xe688
        0x0000e686:    0000        ..      MOVS     r0,r0
    core_list_mergesort
        0x0000e688:    e92d4ff0    -..O    PUSH     {r4-r11,lr}
        0x0000e68c:    b083        ..      SUB      sp,sp,#0xc
        0x0000e68e:    4614        .F      MOV      r4,r2
        0x0000e690:    460d        .F      MOV      r5,r1
        0x0000e692:    f04f0801    O...    MOV      r8,#1
        0x0000e696:    bf00        ..      NOP      
        0x0000e698:    4681        .F      MOV      r9,r0
        0x0000e69a:    2000        .       MOVS     r0,#0
        0x0000e69c:    2100        .!      MOVS     r1,#0
        0x0000e69e:    2600        .&      MOVS     r6,#0
        0x0000e6a0:    9002        ..      STR      r0,[sp,#8]
        0x0000e6a2:    bf00        ..      NOP      
        0x0000e6a4:    2700        .'      MOVS     r7,#0
        0x0000e6a6:    4648        HF      MOV      r0,r9
        0x0000e6a8:    f1b80f01    ....    CMP      r8,#1
        0x0000e6ac:    db09        ..      BLT      0xe6c2 ; core_list_mergesort + 58
        0x0000e6ae:    bf00        ..      NOP      
        0x0000e6b0:    6800        .h      LDR      r0,[r0,#0]
        0x0000e6b2:    3701        .7      ADDS     r7,#1
        0x0000e6b4:    b120         .      CBZ      r0,0xe6c0 ; core_list_mergesort + 56
        0x0000e6b6:    45b8        .E      CMP      r8,r7
        0x0000e6b8:    d1fa        ..      BNE      0xe6b0 ; core_list_mergesort + 40
        0x0000e6ba:    4647        GF      MOV      r7,r8
        0x0000e6bc:    e001        ..      B        0xe6c2 ; core_list_mergesort + 58
        0x0000e6be:    bf00        ..      NOP      
        0x0000e6c0:    2000        .       MOVS     r0,#0
        0x0000e6c2:    9100        ..      STR      r1,[sp,#0]
        0x0000e6c4:    3101        .1      ADDS     r1,#1
        0x0000e6c6:    9101        ..      STR      r1,[sp,#4]
        0x0000e6c8:    4649        IF      MOV      r1,r9
        0x0000e6ca:    46c3        .F      MOV      r11,r8
        0x0000e6cc:    468a        .F      MOV      r10,r1
        0x0000e6ce:    4681        .F      MOV      r9,r0
        0x0000e6d0:    2f00        ./      CMP      r7,#0
        0x0000e6d2:    dc06        ..      BGT      0xe6e2 ; core_list_mergesort + 90
        0x0000e6d4:    f1b90f00    ....    CMP      r9,#0
        0x0000e6d8:    d02e        ..      BEQ      0xe738 ; core_list_mergesort + 176
        0x0000e6da:    f1bb0f01    ....    CMP      r11,#1
        0x0000e6de:    db2b        +.      BLT      0xe738 ; core_list_mergesort + 176
        0x0000e6e0:    b1c7        ..      CBZ      r7,0xe714 ; core_list_mergesort + 140
        0x0000e6e2:    f1b90f00    ....    CMP      r9,#0
        0x0000e6e6:    bf18        ..      IT       NE
        0x0000e6e8:    f1bb0f00    ....    CMPNE    r11,#0
        0x0000e6ec:    d00c        ..      BEQ      0xe708 ; core_list_mergesort + 128
        0x0000e6ee:    f8da0004    ....    LDR      r0,[r10,#4]
        0x0000e6f2:    f8d91004    ....    LDR      r1,[r9,#4]
        0x0000e6f6:    4622        "F      MOV      r2,r4
        0x0000e6f8:    47a8        .G      BLX      r5
        0x0000e6fa:    2800        .(      CMP      r0,#0
        0x0000e6fc:    dd04        ..      BLE      0xe708 ; core_list_mergesort + 128
        0x0000e6fe:    f8d90000    ....    LDR      r0,[r9,#0]
        0x0000e702:    f1ab0b01    ....    SUB      r11,r11,#1
        0x0000e706:    e00a        ..      B        0xe71e ; core_list_mergesort + 150
        0x0000e708:    f8da1000    ....    LDR      r1,[r10,#0]
        0x0000e70c:    3f01        .?      SUBS     r7,#1
        0x0000e70e:    4648        HF      MOV      r0,r9
        0x0000e710:    4652        RF      MOV      r2,r10
        0x0000e712:    e006        ..      B        0xe722 ; core_list_mergesort + 154
        0x0000e714:    f8d90000    ....    LDR      r0,[r9,#0]
        0x0000e718:    f1ab0b01    ....    SUB      r11,r11,#1
        0x0000e71c:    2700        .'      MOVS     r7,#0
        0x0000e71e:    4651        QF      MOV      r1,r10
        0x0000e720:    464a        JF      MOV      r2,r9
        0x0000e722:    b12e        ..      CBZ      r6,0xe730 ; core_list_mergesort + 168
        0x0000e724:    6032        2`      STR      r2,[r6,#0]
        0x0000e726:    468a        .F      MOV      r10,r1
        0x0000e728:    4681        .F      MOV      r9,r0
        0x0000e72a:    4616        .F      MOV      r6,r2
        0x0000e72c:    e7d0        ..      B        0xe6d0 ; core_list_mergesort + 72
        0x0000e72e:    bf00        ..      NOP      
        0x0000e730:    4613        .F      MOV      r3,r2
        0x0000e732:    9202        ..      STR      r2,[sp,#8]
        0x0000e734:    4616        .F      MOV      r6,r2
        0x0000e736:    e7c9        ..      B        0xe6cc ; core_list_mergesort + 68
        0x0000e738:    9901        ..      LDR      r1,[sp,#4]
        0x0000e73a:    f1b90f00    ....    CMP      r9,#0
        0x0000e73e:    d1b1        ..      BNE      0xe6a4 ; core_list_mergesort + 28
        0x0000e740:    2000        .       MOVS     r0,#0
        0x0000e742:    6030        0`      STR      r0,[r6,#0]
        0x0000e744:    9800        ..      LDR      r0,[sp,#0]
        0x0000e746:    ea4f0848    O.H.    LSL      r8,r8,#1
        0x0000e74a:    2800        .(      CMP      r0,#0
        0x0000e74c:    9802        ..      LDR      r0,[sp,#8]
        0x0000e74e:    d1a3        ..      BNE      0xe698 ; core_list_mergesort + 16
        0x0000e750:    b003        ..      ADD      sp,sp,#0xc
        0x0000e752:    e8bd8ff0    ....    POP      {r4-r11,pc}
        0x0000e756:    0000        ..      MOVS     r0,r0
    core_state_transition
        0x0000e758:    b580        ..      PUSH     {r7,lr}
        0x0000e75a:    f8d0e000    ....    LDR      lr,[r0,#0]
        0x0000e75e:    4684        .F      MOV      r12,r0
        0x0000e760:    f89e2000    ...     LDRB     r2,[lr,#0]
        0x0000e764:    2a00        .*      CMP      r2,#0
        0x0000e766:    d06e        n.      BEQ      0xe846 ; core_state_transition + 238
        0x0000e768:    f10e0e01    ....    ADD      lr,lr,#1
        0x0000e76c:    2000        .       MOVS     r0,#0
        0x0000e76e:    bf00        ..      NOP      
        0x0000e770:    2a2c        ,*      CMP      r2,#0x2c
        0x0000e772:    f000807d    ..}.    BEQ.W    0xe870 ; core_state_transition + 280
        0x0000e776:    2807        .(      CMP      r0,#7
        0x0000e778:    d858        X.      BHI      0xe82c ; core_state_transition + 212
        0x0000e77a:    e8dff000    ....    TBB      [pc,r0]
    $d.2
        0x0000e77e:    5704        .W      DCW    22276
        0x0000e780:    2c261d12    ..&,    DCD    740695314
        0x0000e784:    3c35        5<      DCW    15413
    $t.3
        0x0000e786:    f1a20030    ..0.    SUB      r0,r2,#0x30
        0x0000e78a:    280a        .(      CMP      r0,#0xa
        0x0000e78c:    d339        9.      BCC      0xe802 ; core_state_transition + 170
        0x0000e78e:    2a2b        +*      CMP      r2,#0x2b
        0x0000e790:    f04f0002    O...    MOV      r0,#2
        0x0000e794:    bf18        ..      IT       NE
        0x0000e796:    2a2d        -*      CMPNE    r2,#0x2d
        0x0000e798:    d034        4.      BEQ      0xe804 ; core_state_transition + 172
        0x0000e79a:    2a2e        .*      CMP      r2,#0x2e
        0x0000e79c:    d14e        N.      BNE      0xe83c ; core_state_transition + 228
        0x0000e79e:    2005        .       MOVS     r0,#5
        0x0000e7a0:    e030        0.      B        0xe804 ; core_state_transition + 172
        0x0000e7a2:    f1a20030    ..0.    SUB      r0,r2,#0x30
        0x0000e7a6:    2809        .(      CMP      r0,#9
        0x0000e7a8:    d930        0.      BLS      0xe80c ; core_state_transition + 180
        0x0000e7aa:    6888        .h      LDR      r0,[r1,#8]
        0x0000e7ac:    2a2e        .*      CMP      r2,#0x2e
        0x0000e7ae:    f1000001    ....    ADD      r0,r0,#1
        0x0000e7b2:    6088        .`      STR      r0,[r1,#8]
        0x0000e7b4:    d038        8.      BEQ      0xe828 ; core_state_transition + 208
        0x0000e7b6:    e05a        Z.      B        0xe86e ; core_state_transition + 278
        0x0000e7b8:    2a2d        -*      CMP      r2,#0x2d
        0x0000e7ba:    d001        ..      BEQ      0xe7c0 ; core_state_transition + 104
        0x0000e7bc:    2a2b        +*      CMP      r2,#0x2b
        0x0000e7be:    d14b        K.      BNE      0xe858 ; core_state_transition + 256
        0x0000e7c0:    68c8        .h      LDR      r0,[r1,#0xc]
        0x0000e7c2:    3001        .0      ADDS     r0,#1
        0x0000e7c4:    60c8        .`      STR      r0,[r1,#0xc]
        0x0000e7c6:    2006        .       MOVS     r0,#6
        0x0000e7c8:    e030        0.      B        0xe82c ; core_state_transition + 212
        0x0000e7ca:    2a2e        .*      CMP      r2,#0x2e
        0x0000e7cc:    d122        ".      BNE      0xe814 ; core_state_transition + 188
        0x0000e7ce:    6908        .i      LDR      r0,[r1,#0x10]
        0x0000e7d0:    3001        .0      ADDS     r0,#1
        0x0000e7d2:    6108        .a      STR      r0,[r1,#0x10]
        0x0000e7d4:    e028        (.      B        0xe828 ; core_state_transition + 208
        0x0000e7d6:    f0420020    B. .    ORR      r0,r2,#0x20
        0x0000e7da:    2865        e(      CMP      r0,#0x65
        0x0000e7dc:    d120         .      BNE      0xe820 ; core_state_transition + 200
        0x0000e7de:    6948        Hi      LDR      r0,[r1,#0x14]
        0x0000e7e0:    3001        .0      ADDS     r0,#1
        0x0000e7e2:    6148        Ha      STR      r0,[r1,#0x14]
        0x0000e7e4:    2003        .       MOVS     r0,#3
        0x0000e7e6:    e021        !.      B        0xe82c ; core_state_transition + 212
        0x0000e7e8:    6988        .i      LDR      r0,[r1,#0x18]
        0x0000e7ea:    3a30        0:      SUBS     r2,r2,#0x30
        0x0000e7ec:    3001        .0      ADDS     r0,#1
        0x0000e7ee:    2a09        .*      CMP      r2,#9
        0x0000e7f0:    6188        .a      STR      r0,[r1,#0x18]
        0x0000e7f2:    d904        ..      BLS      0xe7fe ; core_state_transition + 166
        0x0000e7f4:    e03b        ;.      B        0xe86e ; core_state_transition + 278
        0x0000e7f6:    f1a20030    ..0.    SUB      r0,r2,#0x30
        0x0000e7fa:    280a        .(      CMP      r0,#0xa
        0x0000e7fc:    d228        (.      BCS      0xe850 ; core_state_transition + 248
        0x0000e7fe:    2007        .       MOVS     r0,#7
        0x0000e800:    e014        ..      B        0xe82c ; core_state_transition + 212
        0x0000e802:    2004        .       MOVS     r0,#4
        0x0000e804:    680a        .h      LDR      r2,[r1,#0]
        0x0000e806:    3201        .2      ADDS     r2,#1
        0x0000e808:    600a        .`      STR      r2,[r1,#0]
        0x0000e80a:    e00f        ..      B        0xe82c ; core_state_transition + 212
        0x0000e80c:    6888        .h      LDR      r0,[r1,#8]
        0x0000e80e:    3001        .0      ADDS     r0,#1
        0x0000e810:    6088        .`      STR      r0,[r1,#8]
        0x0000e812:    e003        ..      B        0xe81c ; core_state_transition + 196
        0x0000e814:    f1a20030    ..0.    SUB      r0,r2,#0x30
        0x0000e818:    280a        .(      CMP      r0,#0xa
        0x0000e81a:    d221        !.      BCS      0xe860 ; core_state_transition + 264
        0x0000e81c:    2004        .       MOVS     r0,#4
        0x0000e81e:    e005        ..      B        0xe82c ; core_state_transition + 212
        0x0000e820:    f1a20030    ..0.    SUB      r0,r2,#0x30
        0x0000e824:    280a        .(      CMP      r0,#0xa
        0x0000e826:    d21f        ..      BCS      0xe868 ; core_state_transition + 272
        0x0000e828:    2005        .       MOVS     r0,#5
        0x0000e82a:    bf00        ..      NOP      
        0x0000e82c:    f81e2b01    ...+    LDRB     r2,[lr],#1
        0x0000e830:    2801        .(      CMP      r0,#1
        0x0000e832:    bf18        ..      IT       NE
        0x0000e834:    2a00        .*      CMPNE    r2,#0
        0x0000e836:    f47faf9b    ....    BNE.W    0xe770 ; core_state_transition + 24
        0x0000e83a:    e006        ..      B        0xe84a ; core_state_transition + 242
        0x0000e83c:    6848        Hh      LDR      r0,[r1,#4]
        0x0000e83e:    3001        .0      ADDS     r0,#1
        0x0000e840:    6048        H`      STR      r0,[r1,#4]
        0x0000e842:    2001        .       MOVS     r0,#1
        0x0000e844:    e7de        ..      B        0xe804 ; core_state_transition + 172
        0x0000e846:    2000        .       MOVS     r0,#0
        0x0000e848:    e012        ..      B        0xe870 ; core_state_transition + 280
        0x0000e84a:    f1ae0e01    ....    SUB      lr,lr,#1
        0x0000e84e:    e00f        ..      B        0xe870 ; core_state_transition + 280
        0x0000e850:    6848        Hh      LDR      r0,[r1,#4]
        0x0000e852:    3001        .0      ADDS     r0,#1
        0x0000e854:    6048        H`      STR      r0,[r1,#4]
        0x0000e856:    e00a        ..      B        0xe86e ; core_state_transition + 278
        0x0000e858:    68c8        .h      LDR      r0,[r1,#0xc]
        0x0000e85a:    3001        .0      ADDS     r0,#1
        0x0000e85c:    60c8        .`      STR      r0,[r1,#0xc]
        0x0000e85e:    e006        ..      B        0xe86e ; core_state_transition + 278
        0x0000e860:    6908        .i      LDR      r0,[r1,#0x10]
        0x0000e862:    3001        .0      ADDS     r0,#1
        0x0000e864:    6108        .a      STR      r0,[r1,#0x10]
        0x0000e866:    e002        ..      B        0xe86e ; core_state_transition + 278
        0x0000e868:    6948        Hi      LDR      r0,[r1,#0x14]
        0x0000e86a:    3001        .0      ADDS     r0,#1
        0x0000e86c:    6148        Ha      STR      r0,[r1,#0x14]
        0x0000e86e:    2001        .       MOVS     r0,#1
        0x0000e870:    b2c0        ..      UXTB     r0,r0
        0x0000e872:    f8cce000    ....    STR      lr,[r12,#0]
        0x0000e876:    bd80        ..      POP      {r7,pc}
    crc16
        0x0000e878:    b280        ..      UXTH     r0,r0
        0x0000e87a:    f000b801    ....    B.W      crcu16 ; 0xe880
        0x0000e87e:    0000        ..      MOVS     r0,r0
    crcu16
        0x0000e880:    b510        ..      PUSH     {r4,lr}
        0x0000e882:    f24a0c01    J...    MOV      r12,#0xa001
        0x0000e886:    b2c3        ..      UXTB     r3,r0
        0x0000e888:    2400        .$      MOVS     r4,#0
        0x0000e88a:    bf00        ..      NOP      
        0x0000e88c:    ea830e01    ....    EOR      lr,r3,r1
        0x0000e890:    f3c1014e    ..N.    UBFX     r1,r1,#1,#15
        0x0000e894:    ea5f72ce    _..r    LSLS     r2,lr,#31
        0x0000e898:    ea4f0353    O.S.    LSR      r3,r3,#1
        0x0000e89c:    bf18        ..      IT       NE
        0x0000e89e:    ea81010c    ....    EORNE    r1,r1,r12
        0x0000e8a2:    2c07        .,      CMP      r4,#7
        0x0000e8a4:    f1040401    ....    ADD      r4,r4,#1
        0x0000e8a8:    d3f0        ..      BCC      0xe88c ; crcu16 + 12
        0x0000e8aa:    0a00        ..      LSRS     r0,r0,#8
        0x0000e8ac:    2200        ."      MOVS     r2,#0
        0x0000e8ae:    bf00        ..      NOP      
        0x0000e8b0:    ea800301    ....    EOR      r3,r0,r1
        0x0000e8b4:    f3c1014e    ..N.    UBFX     r1,r1,#1,#15
        0x0000e8b8:    07db        ..      LSLS     r3,r3,#31
        0x0000e8ba:    ea4f0050    O.P.    LSR      r0,r0,#1
        0x0000e8be:    bf18        ..      IT       NE
        0x0000e8c0:    ea81010c    ....    EORNE    r1,r1,r12
        0x0000e8c4:    2a07        .*      CMP      r2,#7
        0x0000e8c6:    f1020201    ....    ADD      r2,r2,#1
        0x0000e8ca:    d3f1        ..      BCC      0xe8b0 ; crcu16 + 48
        0x0000e8cc:    4608        .F      MOV      r0,r1
        0x0000e8ce:    bd10        ..      POP      {r4,pc}
    crcu32
        0x0000e8d0:    b510        ..      PUSH     {r4,lr}
        0x0000e8d2:    4604        .F      MOV      r4,r0
        0x0000e8d4:    b280        ..      UXTH     r0,r0
        0x0000e8d6:    f7ffffd3    ....    BL       crcu16 ; 0xe880
        0x0000e8da:    4601        .F      MOV      r1,r0
        0x0000e8dc:    0c20         .      LSRS     r0,r4,#16
        0x0000e8de:    e8bd4010    ...@    POP      {r4,lr}
        0x0000e8e2:    f7ffbfcd    ....    B.W      crcu16 ; 0xe880
        0x0000e8e6:    0000        ..      MOVS     r0,r0
    decstr_to_int
        0x0000e8e8:    b510        ..      PUSH     {r4,lr}
        0x0000e8ea:    4603        .F      MOV      r3,r0
        0x0000e8ec:    f813cb01    ....    LDRB     r12,[r3],#1
        0x0000e8f0:    f1bc0e2d    ..-.    SUBS     lr,r12,#0x2d
        0x0000e8f4:    bf18        ..      IT       NE
        0x0000e8f6:    4603        .F      MOVNE    r3,r0
        0x0000e8f8:    781a        .x      LDRB     r2,[r3,#0]
        0x0000e8fa:    fabefe8e    ....    CLZ      lr,lr
        0x0000e8fe:    f1a20030    ..0.    SUB      r0,r2,#0x30
        0x0000e902:    2809        .(      CMP      r0,#9
        0x0000e904:    ea4f1e5e    O.^.    LSR      lr,lr,#5
        0x0000e908:    d811        ..      BHI      0xe92e ; decstr_to_int + 70
        0x0000e90a:    3301        .3      ADDS     r3,#1
        0x0000e90c:    2000        .       MOVS     r0,#0
        0x0000e90e:    bf00        ..      NOP      
        0x0000e910:    eb000080    ....    ADD      r0,r0,r0,LSL #2
        0x0000e914:    eb020040    ..@.    ADD      r0,r2,r0,LSL #1
        0x0000e918:    f8132b01    ...+    LDRB     r2,[r3],#1
        0x0000e91c:    f10e0e01    ....    ADD      lr,lr,#1
        0x0000e920:    f1a20430    ..0.    SUB      r4,r2,#0x30
        0x0000e924:    2c0a        .,      CMP      r4,#0xa
        0x0000e926:    f1a00030    ..0.    SUB      r0,r0,#0x30
        0x0000e92a:    d3f1        ..      BCC      0xe910 ; decstr_to_int + 40
        0x0000e92c:    e000        ..      B        0xe930 ; decstr_to_int + 72
        0x0000e92e:    2000        .       MOVS     r0,#0
        0x0000e930:    b109        ..      CBZ      r1,0xe936 ; decstr_to_int + 78
        0x0000e932:    f8c1e000    ....    STR      lr,[r1,#0]
        0x0000e936:    f1bc0f2d    ..-.    CMP      r12,#0x2d
        0x0000e93a:    bf08        ..      IT       EQ
        0x0000e93c:    4240        @B      RSBEQ    r0,r0,#0
        0x0000e93e:    bd10        ..      POP      {r4,pc}
    divu64_10
        0x0000e940:    b999        ..      CBNZ     r1,0xe96a ; divu64_10 + 42
        0x0000e942:    0841        A.      LSRS     r1,r0,#1
        0x0000e944:    eb010190    ....    ADD      r1,r1,r0,LSR #2
        0x0000e948:    eb011111    ....    ADD      r1,r1,r1,LSR #4
        0x0000e94c:    eb012111    ...!    ADD      r1,r1,r1,LSR #8
        0x0000e950:    eb014111    ...A    ADD      r1,r1,r1,LSR #16
        0x0000e954:    08ca        ..      LSRS     r2,r1,#3
        0x0000e956:    eb020282    ....    ADD      r2,r2,r2,LSL #2
        0x0000e95a:    eba00042    ..B.    SUB      r0,r0,r2,LSL #1
        0x0000e95e:    3006        .0      ADDS     r0,#6
        0x0000e960:    0900        ..      LSRS     r0,r0,#4
        0x0000e962:    eb0000d1    ....    ADD      r0,r0,r1,LSR #3
        0x0000e966:    2100        .!      MOVS     r1,#0
        0x0000e968:    4770        pG      BX       lr
        0x0000e96a:    b510        ..      PUSH     {r4,lr}
        0x0000e96c:    ea5f0c51    _.Q.    LSRS     r12,r1,#1
        0x0000e970:    ea4f0290    O...    LSR      r2,r0,#2
        0x0000e974:    ea4f0330    O.0.    RRX      r3,r0
        0x0000e978:    ea427281    B..r    ORR      r2,r2,r1,LSL #30
        0x0000e97c:    eb130e02    ....    ADDS     lr,r3,r2
        0x0000e980:    eb4c0391    L...    ADC      r3,r12,r1,LSR #2
        0x0000e984:    ea4f121e    O...    LSR      r2,lr,#4
        0x0000e988:    ea427203    B..r    ORR      r2,r2,r3,LSL #28
        0x0000e98c:    ea4f1c13    O...    LSR      r12,r3,#4
        0x0000e990:    eb1e0e02    ....    ADDS     lr,lr,r2
        0x0000e994:    eb43030c    C...    ADC      r3,r3,r12
        0x0000e998:    ea4f221e    O.."    LSR      r2,lr,#8
        0x0000e99c:    ea426203    B..b    ORR      r2,r2,r3,LSL #24
        0x0000e9a0:    ea4f2c13    O..,    LSR      r12,r3,#8
        0x0000e9a4:    eb1e0e02    ....    ADDS     lr,lr,r2
        0x0000e9a8:    eb43030c    C...    ADC      r3,r3,r12
        0x0000e9ac:    ea4f421e    O..B    LSR      r2,lr,#16
        0x0000e9b0:    ea424203    B..B    ORR      r2,r2,r3,LSL #16
        0x0000e9b4:    ea4f4c13    O..L    LSR      r12,r3,#16
        0x0000e9b8:    eb12020e    ....    ADDS     r2,r2,lr
        0x0000e9bc:    eb43030c    C...    ADC      r3,r3,r12
        0x0000e9c0:    18d2        ..      ADDS     r2,r2,r3
        0x0000e9c2:    f1430c00    C...    ADC      r12,r3,#0
        0x0000e9c6:    08d2        ..      LSRS     r2,r2,#3
        0x0000e9c8:    ea42724c    B.Lr    ORR      r2,r2,r12,LSL #29
        0x0000e9cc:    f06f0309    o...    MVN      r3,#9
        0x0000e9d0:    fba2e303    ....    UMULL    lr,r3,r2,r3
        0x0000e9d4:    ea4f04dc    O...    LSR      r4,r12,#3
        0x0000e9d8:    1a9b        ..      SUBS     r3,r3,r2
        0x0000e9da:    eb040484    ....    ADD      r4,r4,r4,LSL #2
        0x0000e9de:    eba30344    ..D.    SUB      r3,r3,r4,LSL #1
        0x0000e9e2:    eb10000e    ....    ADDS     r0,r0,lr
        0x0000e9e6:    4159        YA      ADCS     r1,r1,r3
        0x0000e9e8:    3006        .0      ADDS     r0,#6
        0x0000e9ea:    f1410100    A...    ADC      r1,r1,#0
        0x0000e9ee:    0900        ..      LSRS     r0,r0,#4
        0x0000e9f0:    ea407001    @..p    ORR      r0,r0,r1,LSL #28
        0x0000e9f4:    090b        ..      LSRS     r3,r1,#4
        0x0000e9f6:    1880        ..      ADDS     r0,r0,r2
        0x0000e9f8:    eb4301dc    C...    ADC      r1,r3,r12,LSR #3
        0x0000e9fc:    bd10        ..      POP      {r4,pc}
    getStackedReg
        0x0000e9fe:    0080        ..      LSLS     r0,r0,#2
        0x0000ea00:    1840        @.      ADDS     r0,r0,r1
        0x0000ea02:    6800        .h      LDR      r0,[r0,#0]
        0x0000ea04:    4770        pG      BX       lr
        0x0000ea06:    0000        ..      MOVS     r0,r0
    get_seed_32
        0x0000ea08:    3801        .8      SUBS     r0,#1
        0x0000ea0a:    2804        .(      CMP      r0,#4
        0x0000ea0c:    bf84        ..      ITT      HI
        0x0000ea0e:    2000        .       MOVHI    r0,#0
        0x0000ea10:    4770        pG      BXHI     lr
        0x0000ea12:    a102        ..      ADR      r1,{pc}+0xa ; 0xea1c
        0x0000ea14:    f8510020    Q. .    LDR      r0,[r1,r0,LSL #2]
        0x0000ea18:    6800        .h      LDR      r0,[r0,#0]
        0x0000ea1a:    4770        pG      BX       lr
    $d.1
        0x0000ea1c:    10001690    ....    DCD    268441232
        0x0000ea20:    10001694    ....    DCD    268441236
        0x0000ea24:    1000002c    ,...    DCD    268435500
        0x0000ea28:    10000030    0...    DCD    268435504
        0x0000ea2c:    10001698    ....    DCD    268441240
    $t.2
    get_time
        0x0000ea30:    f24160a8    A..`    MOV      r0,#0x16a8
        0x0000ea34:    f24161a0    A..a    MOVW     r1,#0x16a0
        0x0000ea38:    f2c10000    ....    MOVT     r0,#0x1000
        0x0000ea3c:    f2c10100    ....    MOVT     r1,#0x1000
        0x0000ea40:    6800        .h      LDR      r0,[r0,#0]
        0x0000ea42:    6809        .h      LDR      r1,[r1,#0]
        0x0000ea44:    1a40        @.      SUBS     r0,r0,r1
        0x0000ea46:    4770        pG      BX       lr
    iterate
        0x0000ea48:    b570        p.      PUSH     {r4-r6,lr}
        0x0000ea4a:    69c5        .i      LDR      r5,[r0,#0x1c]
        0x0000ea4c:    4604        .F      MOV      r4,r0
        0x0000ea4e:    2000        .       MOVS     r0,#0
        0x0000ea50:    63a0        .c      STR      r0,[r4,#0x38]
        0x0000ea52:    63e0        .c      STR      r0,[r4,#0x3c]
        0x0000ea54:    b1b5        ..      CBZ      r5,0xea84 ; iterate + 60
        0x0000ea56:    2600        .&      MOVS     r6,#0
        0x0000ea58:    4620         F      MOV      r0,r4
        0x0000ea5a:    2101        .!      MOVS     r1,#1
        0x0000ea5c:    f7fffb90    ....    BL       core_bench_list ; 0xe180
        0x0000ea60:    8f21        !.      LDRH     r1,[r4,#0x38]
        0x0000ea62:    f7ffff0d    ....    BL       crcu16 ; 0xe880
        0x0000ea66:    8720         .      STRH     r0,[r4,#0x38]
        0x0000ea68:    4620         F      MOV      r0,r4
        0x0000ea6a:    f04f31ff    O..1    MOV      r1,#0xffffffff
        0x0000ea6e:    f7fffb87    ....    BL       core_bench_list ; 0xe180
        0x0000ea72:    8f21        !.      LDRH     r1,[r4,#0x38]
        0x0000ea74:    f7ffff04    ....    BL       crcu16 ; 0xe880
        0x0000ea78:    8720         .      STRH     r0,[r4,#0x38]
        0x0000ea7a:    b906        ..      CBNZ     r6,0xea7e ; iterate + 54
        0x0000ea7c:    8760        `.      STRH     r0,[r4,#0x3a]
        0x0000ea7e:    3601        .6      ADDS     r6,#1
        0x0000ea80:    42b5        .B      CMP      r5,r6
        0x0000ea82:    d1e9        ..      BNE      0xea58 ; iterate + 16
        0x0000ea84:    2000        .       MOVS     r0,#0
        0x0000ea86:    bd70        p.      POP      {r4-r6,pc}
    main
        0x0000ea88:    b570        p.      PUSH     {r4-r6,lr}
        0x0000ea8a:    b082        ..      SUB      sp,sp,#8
        0x0000ea8c:    f241567d    A.}V    MOV      r6,#0x157d
        0x0000ea90:    2000        .       MOVS     r0,#0
        0x0000ea92:    f2c10600    ....    MOVT     r6,#0x1000
        0x0000ea96:    ac01        ..      ADD      r4,sp,#4
        0x0000ea98:    466d        mF      MOV      r5,sp
        0x0000ea9a:    9001        ..      STR      r0,[sp,#4]
        0x0000ea9c:    7030        0p      STRB     r0,[r6,#0]
        0x0000ea9e:    4620         F      MOV      r0,r4
        0x0000eaa0:    4629        )F      MOV      r1,r5
        0x0000eaa2:    f000f809    ....    BL       main_loop ; 0xeab8
        0x0000eaa6:    2001        .       MOVS     r0,#1
        0x0000eaa8:    7030        0p      STRB     r0,[r6,#0]
        0x0000eaaa:    4620         F      MOV      r0,r4
        0x0000eaac:    4629        )F      MOV      r1,r5
        0x0000eaae:    f000f803    ....    BL       main_loop ; 0xeab8
        0x0000eab2:    2000        .       MOVS     r0,#0
        0x0000eab4:    b002        ..      ADD      sp,sp,#8
        0x0000eab6:    bd70        p.      POP      {r4-r6,pc}
    main_loop
        0x0000eab8:    e92d4ff0    -..O    PUSH     {r4-r11,lr}
        0x0000eabc:    b081        ..      SUB      sp,sp,#4
        0x0000eabe:    ed2d8b02    -...    VPUSH    {d8}
        0x0000eac2:    f5ad6d03    ...m    SUB      sp,sp,#0x830
        0x0000eac6:    f20d74ec    ...t    ADD      r4,sp,#0x7ec
        0x0000eaca:    f1040a42    ..B.    ADD      r10,r4,#0x42
        0x0000eace:    460a        .F      MOV      r2,r1
        0x0000ead0:    4601        .F      MOV      r1,r0
        0x0000ead2:    4650        PF      MOV      r0,r10
        0x0000ead4:    f000fd38    ..8.    BL       portable_init ; 0xf548
        0x0000ead8:    2001        .       MOVS     r0,#1
        0x0000eada:    f7ffff95    ....    BL       get_seed_32 ; 0xea08
        0x0000eade:    f8ad07ec    ....    STRH     r0,[sp,#0x7ec]
        0x0000eae2:    2002        .       MOVS     r0,#2
        0x0000eae4:    f7ffff90    ....    BL       get_seed_32 ; 0xea08
        0x0000eae8:    f8ad07ee    ....    STRH     r0,[sp,#0x7ee]
        0x0000eaec:    2003        .       MOVS     r0,#3
        0x0000eaee:    f7ffff8b    ....    BL       get_seed_32 ; 0xea08
        0x0000eaf2:    f8ad07f0    ....    STRH     r0,[sp,#0x7f0]
        0x0000eaf6:    2004        .       MOVS     r0,#4
        0x0000eaf8:    f7ffff86    ....    BL       get_seed_32 ; 0xea08
        0x0000eafc:    f241587d    A.}X    MOV      r8,#0x157d
        0x0000eb00:    f8cd0808    ....    STR      r0,[sp,#0x808]
        0x0000eb04:    f2c10800    ....    MOVT     r8,#0x1000
        0x0000eb08:    f8981000    ....    LDRB     r1,[r8,#0]
        0x0000eb0c:    2901        .)      CMP      r1,#1
        0x0000eb0e:    bf04        ..      ITT      EQ
        0x0000eb10:    0040        @.      LSLEQ    r0,r0,#1
        0x0000eb12:    f8cd0808    ....    STREQ    r0,[sp,#0x808]
        0x0000eb16:    2005        .       MOVS     r0,#5
        0x0000eb18:    f7ffff76    ..v.    BL       get_seed_32 ; 0xea08
        0x0000eb1c:    2800        .(      CMP      r0,#0
        0x0000eb1e:    bf08        ..      IT       EQ
        0x0000eb20:    2007        .       MOVEQ    r0,#7
        0x0000eb22:    f8bdc7ec    ....    LDRH     r12,[sp,#0x7ec]
        0x0000eb26:    f8bd17ee    ....    LDRH     r1,[sp,#0x7ee]
        0x0000eb2a:    f8bd37f0    ...7    LDRH     r3,[sp,#0x7f0]
        0x0000eb2e:    ea41070c    A...    ORR      r7,r1,r12
        0x0000eb32:    431f        .C      ORRS     r7,r7,r3
        0x0000eb34:    f8cd080c    ....    STR      r0,[sp,#0x80c]
        0x0000eb38:    d008        ..      BEQ      0xeb4c ; main_loop + 148
        0x0000eb3a:    f1bc0f01    ....    CMP      r12,#1
        0x0000eb3e:    bf08        ..      IT       EQ
        0x0000eb40:    ea510103    Q...    ORRSEQ   r1,r1,r3
        0x0000eb44:    d10b        ..      BNE      0xeb5e ; main_loop + 166
        0x0000eb46:    f2434c15    C..L    MOV      r12,#0x3415
        0x0000eb4a:    e001        ..      B        0xeb50 ; main_loop + 152
        0x0000eb4c:    f04f0c00    O...    MOV      r12,#0
        0x0000eb50:    2166        f!      MOVS     r1,#0x66
        0x0000eb52:    f8adc7ec    ....    STRH     r12,[sp,#0x7ec]
        0x0000eb56:    f8adc7ee    ....    STRH     r12,[sp,#0x7ee]
        0x0000eb5a:    f8ad17f0    ....    STRH     r1,[sp,#0x7f0]
        0x0000eb5e:    2300        .#      MOVS     r3,#0
        0x0000eb60:    a907        ..      ADD      r1,sp,#0x1c
        0x0000eb62:    2700        .'      MOVS     r7,#0
        0x0000eb64:    f8ad382c    ..,8    STRH     r3,[sp,#0x82c]
        0x0000eb68:    f8cd17f4    ....    STR      r1,[sp,#0x7f4]
        0x0000eb6c:    fa20f603     ...    LSR      r6,r0,r3
        0x0000eb70:    07f6        ..      LSLS     r6,r6,#31
        0x0000eb72:    f1030301    ....    ADD      r3,r3,#1
        0x0000eb76:    bf18        ..      IT       NE
        0x0000eb78:    3701        .7      ADDNE    r7,#1
        0x0000eb7a:    2b03        .+      CMP      r3,#3
        0x0000eb7c:    d1f6        ..      BNE      0xeb6c ; main_loop + 180
        0x0000eb7e:    b2bb        ..      UXTH     r3,r7
        0x0000eb80:    f44f67fa    O..g    MOV      r7,#0x7d0
        0x0000eb84:    fbb7f3f3    ....    UDIV     r3,r7,r3
        0x0000eb88:    2700        .'      MOVS     r7,#0
        0x0000eb8a:    2600        .&      MOVS     r6,#0
        0x0000eb8c:    f8cd3804    ...8    STR      r3,[sp,#0x804]
        0x0000eb90:    fa20f507     ...    LSR      r5,r0,r7
        0x0000eb94:    07ed        ..      LSLS     r5,r5,#31
        0x0000eb96:    d00f        ..      BEQ      0xebb8 ; main_loop + 256
        0x0000eb98:    b2b5        ..      UXTH     r5,r6
        0x0000eb9a:    fb031505    ....    MLA      r5,r3,r5,r1
        0x0000eb9e:    3701        .7      ADDS     r7,#1
        0x0000eba0:    eb040287    ....    ADD      r2,r4,r7,LSL #2
        0x0000eba4:    3601        .6      ADDS     r6,#1
        0x0000eba6:    6095        .`      STR      r5,[r2,#8]
        0x0000eba8:    e007        ..      B        0xebba ; main_loop + 258
        0x0000ebaa:    bf00        ..      NOP      
        0x0000ebac:    bf00        ..      NOP      
        0x0000ebae:    bf00        ..      NOP      
    $d.3
        0x0000ebb0:    00000000    ....    DCD    0
        0x0000ebb4:    3ff00000    ...?    DCD    1072693248
    $t.4
        0x0000ebb8:    3701        .7      ADDS     r7,#1
        0x0000ebba:    2f03        ./      CMP      r7,#3
        0x0000ebbc:    d1e8        ..      BNE      0xeb90 ; main_loop + 216
        0x0000ebbe:    07c1        ..      LSLS     r1,r0,#31
        0x0000ebc0:    d00b        ..      BEQ      0xebda ; main_loop + 290
        0x0000ebc2:    f8dd17f8    ....    LDR      r1,[sp,#0x7f8]
        0x0000ebc6:    fa0ff28c    ....    SXTH     r2,r12
        0x0000ebca:    4618        .F      MOV      r0,r3
        0x0000ebcc:    f7fffce0    ....    BL       core_list_init ; 0xe590
        0x0000ebd0:    4601        .F      MOV      r1,r0
        0x0000ebd2:    f8dd080c    ....    LDR      r0,[sp,#0x80c]
        0x0000ebd6:    f8cd1810    ....    STR      r1,[sp,#0x810]
        0x0000ebda:    0781        ..      LSLS     r1,r0,#30
        0x0000ebdc:    d50f        ..      BPL      0xebfe ; main_loop + 326
        0x0000ebde:    f9bd27ec    ...'    LDRSH    r2,[sp,#0x7ec]
        0x0000ebe2:    f8bd37ee    ...7    LDRH     r3,[sp,#0x7ee]
        0x0000ebe6:    f8dd0804    ....    LDR      r0,[sp,#0x804]
        0x0000ebea:    f8dd17fc    ....    LDR      r1,[sp,#0x7fc]
        0x0000ebee:    ea424203    B..B    ORR      r2,r2,r3,LSL #16
        0x0000ebf2:    f1040328    ..(.    ADD      r3,r4,#0x28
        0x0000ebf6:    f7fffbef    ....    BL       core_init_matrix ; 0xe3d8
        0x0000ebfa:    f8dd080c    ....    LDR      r0,[sp,#0x80c]
        0x0000ebfe:    0740        @.      LSLS     r0,r0,#29
        0x0000ec00:    d507        ..      BPL      0xec12 ; main_loop + 346
        0x0000ec02:    f8dd0804    ....    LDR      r0,[sp,#0x804]
        0x0000ec06:    f9bd17ec    ....    LDRSH    r1,[sp,#0x7ec]
        0x0000ec0a:    f8dd2800    ...(    LDR      r2,[sp,#0x800]
        0x0000ec0e:    f7fffc3f    ..?.    BL       core_init_state ; 0xe490
        0x0000ec12:    f8dd0808    ....    LDR      r0,[sp,#0x808]
        0x0000ec16:    2800        .(      CMP      r0,#0
        0x0000ec18:    d14d        M.      BNE      0xecb6 ; main_loop + 510
        0x0000ec1a:    270a        .'      MOVS     r7,#0xa
        0x0000ec1c:    f8cd7808    ...x    STR      r7,[sp,#0x808]
        0x0000ec20:    f000fe69    ..i.    BL       start_time ; 0xf8f6
        0x0000ec24:    f20d70ec    ...p    ADD      r0,sp,#0x7ec
        0x0000ec28:    f7ffff0e    ....    BL       iterate ; 0xea48
        0x0000ec2c:    f000fe8e    ....    BL       stop_time ; 0xf94c
        0x0000ec30:    f7fffefe    ....    BL       get_time ; 0xea30
        0x0000ec34:    f000feac    ....    BL       time_in_secs ; 0xf990
        0x0000ec38:    eeb08a40    ..@.    VMOV.F32 s16,s0
        0x0000ec3c:    eef08a60    ..`.    VMOV.F32 s17,s1
        0x0000ec40:    ed1f0b25    ..%.    VLDR     d0,[pc,#-148] ; [0xebb0] = 0
        0x0000ec44:    ec510b18    Q...    VMOV     r0,r1,d8
        0x0000ec48:    ec554b10    U..K    VMOV     r4,r5,d0
        0x0000ec4c:    4622        "F      MOV      r2,r4
        0x0000ec4e:    462b        +F      MOV      r3,r5
        0x0000ec50:    f001fa72    ..r.    BL       __aeabi_dcmpge ; 0x10138
        0x0000ec54:    bb00        ..      CBNZ     r0,0xec98 ; main_loop + 480
        0x0000ec56:    f20d76ec    ...v    ADD      r6,sp,#0x7ec
        0x0000ec5a:    bf00        ..      NOP      
        0x0000ec5c:    f8dd0808    ....    LDR      r0,[sp,#0x808]
        0x0000ec60:    eb000080    ....    ADD      r0,r0,r0,LSL #2
        0x0000ec64:    0040        @.      LSLS     r0,r0,#1
        0x0000ec66:    f8cd0808    ....    STR      r0,[sp,#0x808]
        0x0000ec6a:    f000fe44    ..D.    BL       start_time ; 0xf8f6
        0x0000ec6e:    4630        0F      MOV      r0,r6
        0x0000ec70:    f7fffeea    ....    BL       iterate ; 0xea48
        0x0000ec74:    f000fe6a    ..j.    BL       stop_time ; 0xf94c
        0x0000ec78:    f7fffeda    ....    BL       get_time ; 0xea30
        0x0000ec7c:    f000fe88    ....    BL       time_in_secs ; 0xf990
        0x0000ec80:    eeb08a40    ..@.    VMOV.F32 s16,s0
        0x0000ec84:    ec510b10    Q...    VMOV     r0,r1,d0
        0x0000ec88:    4622        "F      MOV      r2,r4
        0x0000ec8a:    462b        +F      MOV      r3,r5
        0x0000ec8c:    eef08a60    ..`.    VMOV.F32 s17,s1
        0x0000ec90:    f001fa60    ..`.    BL       __aeabi_dcmplt ; 0x10154
        0x0000ec94:    2800        .(      CMP      r0,#0
        0x0000ec96:    d1e1        ..      BNE      0xec5c ; main_loop + 420
        0x0000ec98:    ec510b18    Q...    VMOV     r0,r1,d8
        0x0000ec9c:    f001f900    ....    BL       __aeabi_d2uiz ; 0xfea0
        0x0000eca0:    2800        .(      CMP      r0,#0
        0x0000eca2:    bf08        ..      IT       EQ
        0x0000eca4:    2001        .       MOVEQ    r0,#1
        0x0000eca6:    fbb7f0f0    ....    UDIV     r0,r7,r0
        0x0000ecaa:    f8dd1808    ....    LDR      r1,[sp,#0x808]
        0x0000ecae:    3001        .0      ADDS     r0,#1
        0x0000ecb0:    4348        HC      MULS     r0,r1,r0
        0x0000ecb2:    f8cd0808    ....    STR      r0,[sp,#0x808]
        0x0000ecb6:    f000fe1e    ....    BL       start_time ; 0xf8f6
        0x0000ecba:    f20d70ec    ...p    ADD      r0,sp,#0x7ec
        0x0000ecbe:    f7fffec3    ....    BL       iterate ; 0xea48
        0x0000ecc2:    f000fe43    ..C.    BL       stop_time ; 0xf94c
        0x0000ecc6:    f7fffeb3    ....    BL       get_time ; 0xea30
        0x0000ecca:    f9bd17ec    ....    LDRSH    r1,[sp,#0x7ec]
        0x0000ecce:    9006        ..      STR      r0,[sp,#0x18]
        0x0000ecd0:    4608        .F      MOV      r0,r1
        0x0000ecd2:    2100        .!      MOVS     r1,#0
        0x0000ecd4:    2400        .$      MOVS     r4,#0
        0x0000ecd6:    f7fffdcf    ....    BL       crc16 ; 0xe878
        0x0000ecda:    f9bd17ee    ....    LDRSH    r1,[sp,#0x7ee]
        0x0000ecde:    4602        .F      MOV      r2,r0
        0x0000ece0:    4608        .F      MOV      r0,r1
        0x0000ece2:    4611        .F      MOV      r1,r2
        0x0000ece4:    f7fffdc8    ....    BL       crc16 ; 0xe878
        0x0000ece8:    f9bd17f0    ....    LDRSH    r1,[sp,#0x7f0]
        0x0000ecec:    4602        .F      MOV      r2,r0
        0x0000ecee:    4608        .F      MOV      r0,r1
        0x0000ecf0:    4611        .F      MOV      r1,r2
        0x0000ecf2:    f7fffdc1    ....    BL       crc16 ; 0xe878
        0x0000ecf6:    f9bd1804    ....    LDRSH    r1,[sp,#0x804]
        0x0000ecfa:    4602        .F      MOV      r2,r0
        0x0000ecfc:    4608        .F      MOV      r0,r1
        0x0000ecfe:    4611        .F      MOV      r1,r2
        0x0000ed00:    f7fffdba    ....    BL       crc16 ; 0xe878
        0x0000ed04:    4601        .F      MOV      r1,r0
        0x0000ed06:    f6473004    G..0    MOV      r0,#0x7b04
        0x0000ed0a:    f2400b28    @.(.    MOVW     r11,#0x28
        0x0000ed0e:    f64f79ff    O..y    MOV      r9,#0xffff
        0x0000ed12:    4281        .B      CMP      r1,r0
        0x0000ed14:    f2c10b00    ....    MOVT     r11,#0x1000
        0x0000ed18:    9105        ..      STR      r1,[sp,#0x14]
        0x0000ed1a:    dd14        ..      BLE      0xed46 ; main_loop + 654
        0x0000ed1c:    f64e10f5    N...    MOV      r0,#0xe9f5
        0x0000ed20:    4281        .B      CMP      r1,r0
        0x0000ed22:    d023        #.      BEQ      0xed6c ; main_loop + 692
        0x0000ed24:    f6482002    H..     MOV      r0,#0x8a02
        0x0000ed28:    4281        .B      CMP      r1,r0
        0x0000ed2a:    d027        '.      BEQ      0xed7c ; main_loop + 708
        0x0000ed2c:    2000        .       MOVS     r0,#0
        0x0000ed2e:    9004        ..      STR      r0,[sp,#0x10]
        0x0000ed30:    f6473005    G..0    MOV      r0,#0x7b05
        0x0000ed34:    4281        .B      CMP      r1,r0
        0x0000ed36:    f040809d    @...    BNE.W    0xee74 ; main_loop + 956
        0x0000ed3a:    f04f0801    O...    MOV      r8,#1
        0x0000ed3e:    2400        .$      MOVS     r4,#0
        0x0000ed40:    f20f4048    ..H@    ADR.W    r0,{pc}+0x44c ; 0xf18c
        0x0000ed44:    e024        $.      B        0xed90 ; main_loop + 728
        0x0000ed46:    f64100f2    A...    MOV      r0,#0x18f2
        0x0000ed4a:    4281        .B      CMP      r1,r0
        0x0000ed4c:    d01b        ..      BEQ      0xed86 ; main_loop + 718
        0x0000ed4e:    2000        .       MOVS     r0,#0
        0x0000ed50:    9004        ..      STR      r0,[sp,#0x10]
        0x0000ed52:    f64460af    D..`    MOV      r0,#0x4eaf
        0x0000ed56:    4281        .B      CMP      r1,r0
        0x0000ed58:    f040808c    @...    BNE.W    0xee74 ; main_loop + 956
        0x0000ed5c:    f240701b    @..p    MOV      r0,#0x71b
        0x0000ed60:    f04f0802    O...    MOV      r8,#2
        0x0000ed64:    2400        .$      MOVS     r4,#0
        0x0000ed66:    f2c00001    ....    MOVT     r0,#1
        0x0000ed6a:    e011        ..      B        0xed90 ; main_loop + 728
        0x0000ed6c:    f24060ee    @..`    MOV      r0,#0x6ee
        0x0000ed70:    f04f0803    O...    MOV      r8,#3
        0x0000ed74:    2401        .$      MOVS     r4,#1
        0x0000ed76:    f2c00001    ....    MOVT     r0,#1
        0x0000ed7a:    e009        ..      B        0xed90 ; main_loop + 728
        0x0000ed7c:    f20f30b0    ...0    ADR.W    r0,{pc}+0x3b4 ; 0xf130
        0x0000ed80:    f04f0800    O...    MOV      r8,#0
        0x0000ed84:    e004        ..      B        0xed90 ; main_loop + 728
        0x0000ed86:    f04f0804    O...    MOV      r8,#4
        0x0000ed8a:    2400        .$      MOVS     r4,#0
        0x0000ed8c:    f20f30d0    ...0    ADR.W    r0,{pc}+0x3d4 ; 0xf160
        0x0000ed90:    9404        ..      STR      r4,[sp,#0x10]
        0x0000ed92:    f7fefd17    ....    BL       am_sprintf ; 0xd7c4
        0x0000ed96:    f8db0000    ....    LDR      r0,[r11,#0]
        0x0000ed9a:    2800        .(      CMP      r0,#0
        0x0000ed9c:    d064        d.      BEQ      0xee68 ; main_loop + 944
        0x0000ed9e:    f240647e    @.~d    MOV      r4,#0x67e
        0x0000eda2:    f2406574    @.te    MOV      r5,#0x674
        0x0000eda6:    f8cda00c    ....    STR      r10,[sp,#0xc]
        0x0000edaa:    f04f0a00    O...    MOV      r10,#0
        0x0000edae:    f2c00401    ....    MOVT     r4,#1
        0x0000edb2:    f2c00501    ....    MOVT     r5,#1
        0x0000edb6:    2600        .&      MOVS     r6,#0
        0x0000edb8:    2700        .'      MOVS     r7,#0
        0x0000edba:    f04f0900    O...    MOV      r9,#0
        0x0000edbe:    bf00        ..      NOP      
        0x0000edc0:    f8dd180c    ....    LDR      r1,[sp,#0x80c]
        0x0000edc4:    f8ada82c    ..,.    STRH     r10,[sp,#0x82c]
        0x0000edc8:    07c8        ..      LSLS     r0,r1,#31
        0x0000edca:    d005        ..      BEQ      0xedd8 ; main_loop + 800
        0x0000edcc:    f8bd2826    ..&(    LDRH     r2,[sp,#0x826]
        0x0000edd0:    f8353018    5..0    LDRH     r3,[r5,r8,LSL #1]
        0x0000edd4:    429a        .B      CMP      r2,r3
        0x0000edd6:    d101        ..      BNE      0xeddc ; main_loop + 804
        0x0000edd8:    2000        .       MOVS     r0,#0
        0x0000edda:    e00d        ..      B        0xedf8 ; main_loop + 832
        0x0000eddc:    f640106a    @.j.    MOV      r0,#0x96a
        0x0000ede0:    f2c00001    ....    MOVT     r0,#1
        0x0000ede4:    4631        1F      MOV      r1,r6
        0x0000ede6:    f7fefced    ....    BL       am_sprintf ; 0xd7c4
        0x0000edea:    f8bd082c    ..,.    LDRH     r0,[sp,#0x82c]
        0x0000edee:    f8dd180c    ....    LDR      r1,[sp,#0x80c]
        0x0000edf2:    3001        .0      ADDS     r0,#1
        0x0000edf4:    f8ad082c    ..,.    STRH     r0,[sp,#0x82c]
        0x0000edf8:    078a        ..      LSLS     r2,r1,#30
        0x0000edfa:    d513        ..      BPL      0xee24 ; main_loop + 876
        0x0000edfc:    f8bd2828    ..((    LDRH     r2,[sp,#0x828]
        0x0000ee00:    f8343018    4..0    LDRH     r3,[r4,r8,LSL #1]
        0x0000ee04:    429a        .B      CMP      r2,r3
        0x0000ee06:    d00d        ..      BEQ      0xee24 ; main_loop + 876
        0x0000ee08:    f6401099    @...    MOV      r0,#0x999
        0x0000ee0c:    f2c00001    ....    MOVT     r0,#1
        0x0000ee10:    4631        1F      MOV      r1,r6
        0x0000ee12:    f7fefcd7    ....    BL       am_sprintf ; 0xd7c4
        0x0000ee16:    f8bd082c    ..,.    LDRH     r0,[sp,#0x82c]
        0x0000ee1a:    f8dd180c    ....    LDR      r1,[sp,#0x80c]
        0x0000ee1e:    3001        .0      ADDS     r0,#1
        0x0000ee20:    f8ad082c    ..,.    STRH     r0,[sp,#0x82c]
        0x0000ee24:    0749        I.      LSLS     r1,r1,#29
        0x0000ee26:    d515        ..      BPL      0xee54 ; main_loop + 924
        0x0000ee28:    f2406198    @..a    MOVW     r1,#0x698
        0x0000ee2c:    f2c00101    ....    MOVT     r1,#1
        0x0000ee30:    f8bd282a    ..*(    LDRH     r2,[sp,#0x82a]
        0x0000ee34:    f8313018    1..0    LDRH     r3,[r1,r8,LSL #1]
        0x0000ee38:    429a        .B      CMP      r2,r3
        0x0000ee3a:    d00b        ..      BEQ      0xee54 ; main_loop + 924
        0x0000ee3c:    f640103a    @.:.    MOV      r0,#0x93a
        0x0000ee40:    f2c00001    ....    MOVT     r0,#1
        0x0000ee44:    4631        1F      MOV      r1,r6
        0x0000ee46:    f7fefcbd    ....    BL       am_sprintf ; 0xd7c4
        0x0000ee4a:    f8bd082c    ..,.    LDRH     r0,[sp,#0x82c]
        0x0000ee4e:    3001        .0      ADDS     r0,#1
        0x0000ee50:    f8ad082c    ..,.    STRH     r0,[sp,#0x82c]
        0x0000ee54:    3701        .7      ADDS     r7,#1
        0x0000ee56:    f8db1000    ....    LDR      r1,[r11,#0]
        0x0000ee5a:    b2be        ..      UXTH     r6,r7
        0x0000ee5c:    42b1        .B      CMP      r1,r6
        0x0000ee5e:    4481        .D      ADD      r9,r9,r0
        0x0000ee60:    d8ae        ..      BHI      0xedc0 ; main_loop + 776
        0x0000ee62:    f8dda00c    ....    LDR      r10,[sp,#0xc]
        0x0000ee66:    e001        ..      B        0xee6c ; main_loop + 948
        0x0000ee68:    f04f0900    O...    MOV      r9,#0
        0x0000ee6c:    f241587d    A.}X    MOV      r8,#0x157d
        0x0000ee70:    f2c10800    ....    MOVT     r8,#0x1000
        0x0000ee74:    f7fff967    ..g.    BL       check_data_types ; 0xe146
        0x0000ee78:    f8dd1804    ....    LDR      r1,[sp,#0x804]
        0x0000ee7c:    eb090600    ....    ADD      r6,r9,r0
        0x0000ee80:    f640007e    @.~.    MOV      r0,#0x87e
        0x0000ee84:    f2c00001    ....    MOVT     r0,#1
        0x0000ee88:    f7fefc9c    ....    BL       am_sprintf ; 0xd7c4
        0x0000ee8c:    9f06        ..      LDR      r7,[sp,#0x18]
        0x0000ee8e:    f6400096    @...    MOV      r0,#0x896
        0x0000ee92:    f2c00001    ....    MOVT     r0,#1
        0x0000ee96:    463a        :F      MOV      r2,r7
        0x0000ee98:    2300        .#      MOVS     r3,#0
        0x0000ee9a:    f7fefc93    ....    BL       am_sprintf ; 0xd7c4
        0x0000ee9e:    4638        8F      MOV      r0,r7
        0x0000eea0:    f000fd76    ..v.    BL       time_in_secs ; 0xf990
        0x0000eea4:    f6400021    @.!.    MOV      r0,#0x821
        0x0000eea8:    ec532b10    S..+    VMOV     r2,r3,d0
        0x0000eeac:    f2c00001    ....    MOVT     r0,#1
        0x0000eeb0:    f7fefc88    ....    BL       am_sprintf ; 0xd7c4
        0x0000eeb4:    4638        8F      MOV      r0,r7
        0x0000eeb6:    f000fd6b    ..k.    BL       time_in_secs ; 0xf990
        0x0000eeba:    ed9f1b99    ....    VLDR     d1,[pc,#612] ; [0xf120] = 0
        0x0000eebe:    ec510b10    Q...    VMOV     r0,r1,d0
        0x0000eec2:    ec532b11    S..+    VMOV     r2,r3,d1
        0x0000eec6:    f001f93e    ..>.    BL       __aeabi_dcmple ; 0x10146
        0x0000eeca:    b9c8        ..      CBNZ     r0,0xef00 ; main_loop + 1096
        0x0000eecc:    f8db0000    ....    LDR      r0,[r11,#0]
        0x0000eed0:    f8dd1808    ....    LDR      r1,[sp,#0x808]
        0x0000eed4:    4348        HC      MULS     r0,r1,r0
        0x0000eed6:    f001f810    ....    BL       __aeabi_ui2d ; 0xfefa
        0x0000eeda:    4604        .F      MOV      r4,r0
        0x0000eedc:    4638        8F      MOV      r0,r7
        0x0000eede:    460d        .F      MOV      r5,r1
        0x0000eee0:    f000fd56    ..V.    BL       time_in_secs ; 0xf990
        0x0000eee4:    ec532b10    S..+    VMOV     r2,r3,d0
        0x0000eee8:    4620         F      MOV      r0,r4
        0x0000eeea:    4629        )F      MOV      r1,r5
        0x0000eeec:    f000fe42    ..B.    BL       __aeabi_ddiv ; 0xfb74
        0x0000eef0:    4602        .F      MOV      r2,r0
        0x0000eef2:    f640000a    @...    MOV      r0,#0x80a
        0x0000eef6:    f2c00001    ....    MOVT     r0,#1
        0x0000eefa:    460b        .F      MOV      r3,r1
        0x0000eefc:    f7fefc62    ..b.    BL       am_sprintf ; 0xd7c4
        0x0000ef00:    4638        8F      MOV      r0,r7
        0x0000ef02:    f000fd45    ..E.    BL       time_in_secs ; 0xf990
        0x0000ef06:    ed9f1b88    ....    VLDR     d1,[pc,#544] ; [0xf128] = 0
        0x0000ef0a:    ec510b10    Q...    VMOV     r0,r1,d0
        0x0000ef0e:    ec532b11    S..+    VMOV     r2,r3,d1
        0x0000ef12:    f001f911    ....    BL       __aeabi_dcmpge ; 0x10138
        0x0000ef16:    b930        0.      CBNZ     r0,0xef26 ; main_loop + 1134
        0x0000ef18:    f24060a2    @..`    MOV      r0,#0x6a2
        0x0000ef1c:    f2c00001    ....    MOVT     r0,#1
        0x0000ef20:    f7fefc50    ..P.    BL       am_sprintf ; 0xd7c4
        0x0000ef24:    3601        .6      ADDS     r6,#1
        0x0000ef26:    f8db0000    ....    LDR      r0,[r11,#0]
        0x0000ef2a:    f8dd1808    ....    LDR      r1,[sp,#0x808]
        0x0000ef2e:    4341        AC      MULS     r1,r0,r1
        0x0000ef30:    f6400066    @.f.    MOV      r0,#0x866
        0x0000ef34:    f2c00001    ....    MOVT     r0,#1
        0x0000ef38:    f7fefc44    ..D.    BL       am_sprintf ; 0xd7c4
        0x0000ef3c:    f64019ca    @...    MOV      r9,#0x9ca
        0x0000ef40:    f640004f    @.O.    MOV      r0,#0x84f
        0x0000ef44:    f2c00901    ....    MOVT     r9,#1
        0x0000ef48:    f2c00001    ....    MOVT     r0,#1
        0x0000ef4c:    4649        IF      MOV      r1,r9
        0x0000ef4e:    f7fefc39    ..9.    BL       am_sprintf ; 0xd7c4
        0x0000ef52:    f6400038    @.8.    MOV      r0,#0x838
        0x0000ef56:    f640213a    @.:!    MOV      r1,#0xa3a
        0x0000ef5a:    f2c00001    ....    MOVT     r0,#1
        0x0000ef5e:    f2c00101    ....    MOVT     r1,#1
        0x0000ef62:    f7fefc2f    ../.    BL       am_sprintf ; 0xd7c4
        0x0000ef66:    f64000af    @...    MOV      r0,#0x8af
        0x0000ef6a:    9905        ..      LDR      r1,[sp,#0x14]
        0x0000ef6c:    f2c00001    ....    MOVT     r0,#1
        0x0000ef70:    f7fefc28    ..(.    BL       am_sprintf ; 0xd7c4
        0x0000ef74:    f8dd180c    ....    LDR      r1,[sp,#0x80c]
        0x0000ef78:    f8db0000    ....    LDR      r0,[r11,#0]
        0x0000ef7c:    07ca        ..      LSLS     r2,r1,#31
        0x0000ef7e:    bf18        ..      IT       NE
        0x0000ef80:    2800        .(      CMPNE    r0,#0
        0x0000ef82:    d012        ..      BEQ      0xefaa ; main_loop + 1266
        0x0000ef84:    f64004ca    @...    MOV      r4,#0x8ca
        0x0000ef88:    2100        .!      MOVS     r1,#0
        0x0000ef8a:    f2c00401    ....    MOVT     r4,#1
        0x0000ef8e:    2500        .%      MOVS     r5,#0
        0x0000ef90:    f8bd2826    ..&(    LDRH     r2,[sp,#0x826]
        0x0000ef94:    4620         F      MOV      r0,r4
        0x0000ef96:    f7fefc15    ....    BL       am_sprintf ; 0xd7c4
        0x0000ef9a:    3501        .5      ADDS     r5,#1
        0x0000ef9c:    f8db0000    ....    LDR      r0,[r11,#0]
        0x0000efa0:    b2a9        ..      UXTH     r1,r5
        0x0000efa2:    4288        .B      CMP      r0,r1
        0x0000efa4:    d8f4        ..      BHI      0xef90 ; main_loop + 1240
        0x0000efa6:    f8dd180c    ....    LDR      r1,[sp,#0x80c]
        0x0000efaa:    078a        ..      LSLS     r2,r1,#30
        0x0000efac:    d513        ..      BPL      0xefd6 ; main_loop + 1310
        0x0000efae:    b190        ..      CBZ      r0,0xefd6 ; main_loop + 1310
        0x0000efb0:    f640141e    @...    MOV      r4,#0x91e
        0x0000efb4:    2100        .!      MOVS     r1,#0
        0x0000efb6:    f2c00401    ....    MOVT     r4,#1
        0x0000efba:    2500        .%      MOVS     r5,#0
        0x0000efbc:    f8bd2828    ..((    LDRH     r2,[sp,#0x828]
        0x0000efc0:    4620         F      MOV      r0,r4
        0x0000efc2:    f7fefbff    ....    BL       am_sprintf ; 0xd7c4
        0x0000efc6:    3501        .5      ADDS     r5,#1
        0x0000efc8:    f8db0000    ....    LDR      r0,[r11,#0]
        0x0000efcc:    b2a9        ..      UXTH     r1,r5
        0x0000efce:    4288        .B      CMP      r0,r1
        0x0000efd0:    d8f4        ..      BHI      0xefbc ; main_loop + 1284
        0x0000efd2:    f8dd180c    ....    LDR      r1,[sp,#0x80c]
        0x0000efd6:    0749        I.      LSLS     r1,r1,#29
        0x0000efd8:    d511        ..      BPL      0xeffe ; main_loop + 1350
        0x0000efda:    b180        ..      CBZ      r0,0xeffe ; main_loop + 1350
        0x0000efdc:    f64004e6    @...    MOV      r4,#0x8e6
        0x0000efe0:    2100        .!      MOVS     r1,#0
        0x0000efe2:    f2c00401    ....    MOVT     r4,#1
        0x0000efe6:    2500        .%      MOVS     r5,#0
        0x0000efe8:    f8bd282a    ..*(    LDRH     r2,[sp,#0x82a]
        0x0000efec:    4620         F      MOV      r0,r4
        0x0000efee:    f7fefbe9    ....    BL       am_sprintf ; 0xd7c4
        0x0000eff2:    3501        .5      ADDS     r5,#1
        0x0000eff4:    f8db0000    ....    LDR      r0,[r11,#0]
        0x0000eff8:    b2a9        ..      UXTH     r1,r5
        0x0000effa:    4288        .B      CMP      r0,r1
        0x0000effc:    d8f4        ..      BHI      0xefe8 ; main_loop + 1328
        0x0000effe:    b180        ..      CBZ      r0,0xf022 ; main_loop + 1386
        0x0000f000:    f6401402    @...    MOV      r4,#0x902
        0x0000f004:    2100        .!      MOVS     r1,#0
        0x0000f006:    f2c00401    ....    MOVT     r4,#1
        0x0000f00a:    2500        .%      MOVS     r5,#0
        0x0000f00c:    f8bd2824    ..$(    LDRH     r2,[sp,#0x824]
        0x0000f010:    4620         F      MOV      r0,r4
        0x0000f012:    f7fefbd7    ....    BL       am_sprintf ; 0xd7c4
        0x0000f016:    3501        .5      ADDS     r5,#1
        0x0000f018:    f8db0000    ....    LDR      r0,[r11,#0]
        0x0000f01c:    b2a9        ..      UXTH     r1,r5
        0x0000f01e:    4288        .B      CMP      r0,r1
        0x0000f020:    d8f4        ..      BHI      0xf00c ; main_loop + 1364
        0x0000f022:    0430        0.      LSLS     r0,r6,#16
        0x0000f024:    d00c        ..      BEQ      0xf040 ; main_loop + 1416
        0x0000f026:    f240704c    @.Lp    MOV      r0,#0x74c
        0x0000f02a:    b231        1.      SXTH     r1,r6
        0x0000f02c:    f24072f9    @..r    MOV      r2,#0x7f9
        0x0000f030:    f2c00001    ....    MOVT     r0,#1
        0x0000f034:    f2c00201    ....    MOVT     r2,#1
        0x0000f038:    2900        .)      CMP      r1,#0
        0x0000f03a:    bfc8        ..      IT       GT
        0x0000f03c:    4610        .F      MOVGT    r0,r2
        0x0000f03e:    e033        3.      B        0xf0a8 ; main_loop + 1520
        0x0000f040:    f24070af    @..p    MOV      r0,#0x7af
        0x0000f044:    f2c00001    ....    MOVT     r0,#1
        0x0000f048:    f7fefbbc    ....    BL       am_sprintf ; 0xd7c4
        0x0000f04c:    9804        ..      LDR      r0,[sp,#0x10]
        0x0000f04e:    b368        h.      CBZ      r0,0xf0ac ; main_loop + 1524
        0x0000f050:    f8db0000    ....    LDR      r0,[r11,#0]
        0x0000f054:    f8dd1808    ....    LDR      r1,[sp,#0x808]
        0x0000f058:    4348        HC      MULS     r0,r1,r0
        0x0000f05a:    f000ff4e    ..N.    BL       __aeabi_ui2d ; 0xfefa
        0x0000f05e:    4604        .F      MOV      r4,r0
        0x0000f060:    4638        8F      MOV      r0,r7
        0x0000f062:    460d        .F      MOV      r5,r1
        0x0000f064:    f000fc94    ....    BL       time_in_secs ; 0xf990
        0x0000f068:    ec532b10    S..+    VMOV     r2,r3,d0
        0x0000f06c:    4620         F      MOV      r0,r4
        0x0000f06e:    4629        )F      MOV      r1,r5
        0x0000f070:    f000fd80    ....    BL       __aeabi_ddiv ; 0xfb74
        0x0000f074:    4602        .F      MOV      r2,r0
        0x0000f076:    f640262f    @./&    MOV      r6,#0xa2f
        0x0000f07a:    f6402046    @.F     MOV      r0,#0xa46
        0x0000f07e:    f2c00601    ....    MOVT     r6,#1
        0x0000f082:    f2c00001    ....    MOVT     r0,#1
        0x0000f086:    460b        .F      MOV      r3,r1
        0x0000f088:    f8cd9000    ....    STR      r9,[sp,#0]
        0x0000f08c:    9601        ..      STR      r6,[sp,#4]
        0x0000f08e:    f7fefb99    ....    BL       am_sprintf ; 0xd7c4
        0x0000f092:    f6402040    @.@     MOVW     r0,#0xa40
        0x0000f096:    f640213a    @.:!    MOV      r1,#0xa3a
        0x0000f09a:    f2c00001    ....    MOVT     r0,#1
        0x0000f09e:    f2c00101    ....    MOVT     r1,#1
        0x0000f0a2:    f7fefb8f    ....    BL       am_sprintf ; 0xd7c4
        0x0000f0a6:    a044        D.      ADR      r0,{pc}+0x112 ; 0xf1b8
        0x0000f0a8:    f7fefb8c    ....    BL       am_sprintf ; 0xd7c4
        0x0000f0ac:    f8db0000    ....    LDR      r0,[r11,#0]
        0x0000f0b0:    f8dd1808    ....    LDR      r1,[sp,#0x808]
        0x0000f0b4:    4348        HC      MULS     r0,r1,r0
        0x0000f0b6:    f000ff20    .. .    BL       __aeabi_ui2d ; 0xfefa
        0x0000f0ba:    4604        .F      MOV      r4,r0
        0x0000f0bc:    4638        8F      MOV      r0,r7
        0x0000f0be:    460d        .F      MOV      r5,r1
        0x0000f0c0:    f000fc66    ..f.    BL       time_in_secs ; 0xf990
        0x0000f0c4:    ec532b10    S..+    VMOV     r2,r3,d0
        0x0000f0c8:    4620         F      MOV      r0,r4
        0x0000f0ca:    4629        )F      MOV      r1,r5
        0x0000f0cc:    f000fd52    ..R.    BL       __aeabi_ddiv ; 0xfb74
        0x0000f0d0:    f000fd12    ....    BL       __aeabi_d2f ; 0xfaf8
        0x0000f0d4:    f8981000    ....    LDRB     r1,[r8,#0]
        0x0000f0d8:    ee010a10    ....    VMOV     s2,r0
        0x0000f0dc:    2901        .)      CMP      r1,#1
        0x0000f0de:    a137        7.      ADR      r1,{pc}+0xde ; 0xf1bc
        0x0000f0e0:    bf08        ..      IT       EQ
        0x0000f0e2:    3104        .1      ADDEQ    r1,#4
        0x0000f0e4:    ed910a00    ....    VLDR     s0,[r1,#0]
        0x0000f0e8:    ee810a00    ....    VDIV.F32 s0,s2,s0
        0x0000f0ec:    ee100a10    ....    VMOV     r0,s0
        0x0000f0f0:    f000ffe2    ....    BL       __aeabi_f2d ; 0x100b8
        0x0000f0f4:    4602        .F      MOV      r2,r0
        0x0000f0f6:    f24060e0    @..`    MOVW     r0,#0x6e0
        0x0000f0fa:    f2c00001    ....    MOVT     r0,#1
        0x0000f0fe:    460b        .F      MOV      r3,r1
        0x0000f100:    f7fefb60    ..`.    BL       am_sprintf ; 0xd7c4
        0x0000f104:    4650        PF      MOV      r0,r10
        0x0000f106:    f000f96f    ..o.    BL       portable_fini ; 0xf3e8
        0x0000f10a:    2000        .       MOVS     r0,#0
        0x0000f10c:    f50d6d03    ...m    ADD      sp,sp,#0x830
        0x0000f110:    ecbd8b02    ....    VPOP     {d8}
        0x0000f114:    b001        ..      ADD      sp,sp,#4
        0x0000f116:    e8bd8ff0    ....    POP      {r4-r11,pc}
        0x0000f11a:    bf00        ..      NOP      
        0x0000f11c:    bf00        ..      NOP      
        0x0000f11e:    bf00        ..      NOP      
    $d.5
        0x0000f120:    00000000    ....    DCD    0
        0x0000f124:    00000000    ....    DCD    0
        0x0000f128:    00000000    ....    DCD    0
        0x0000f12c:    40240000    ..$@    DCD    1076101120
        0x0000f130:    70206b36    6k p    DCD    1881172790
        0x0000f134:    6f667265    erfo    DCD    1868984933
        0x0000f138:    6e616d72    rman    DCD    1851878770
        0x0000f13c:    72206563    ce r    DCD    1914725731
        0x0000f140:    70206e75    un p    DCD    1881173621
        0x0000f144:    6d617261    aram    DCD    1835102817
        0x0000f148:    72657465    eter    DCD    1919251557
        0x0000f14c:    6f662073    s fo    DCD    1868963955
        0x0000f150:    6f632072    r co    DCD    1868767346
        0x0000f154:    616d6572    rema    DCD    1634559346
        0x0000f158:    0a2e6b72    rk..    DCD    170814322
        0x0000f15c:    00000000    ....    DCD    0
        0x0000f160:    76204b32    2K v    DCD    1981827890
        0x0000f164:    64696c61    alid    DCD    1684630625
        0x0000f168:    6f697461    atio    DCD    1869182049
        0x0000f16c:    7572206e    n ru    DCD    1970413678
        0x0000f170:    6170206e    n pa    DCD    1634738286
        0x0000f174:    656d6172    rame    DCD    1701667186
        0x0000f178:    73726574    ters    DCD    1936876916
        0x0000f17c:    726f6620     for    DCD    1919903264
        0x0000f180:    726f6320     cor    DCD    1919902496
        0x0000f184:    72616d65    emar    DCD    1918987621
        0x0000f188:    000a2e6b    k...    DCD    667243
        0x0000f18c:    76206b36    6k v    DCD    1981836086
        0x0000f190:    64696c61    alid    DCD    1684630625
        0x0000f194:    6f697461    atio    DCD    1869182049
        0x0000f198:    7572206e    n ru    DCD    1970413678
        0x0000f19c:    6170206e    n pa    DCD    1634738286
        0x0000f1a0:    656d6172    rame    DCD    1701667186
        0x0000f1a4:    73726574    ters    DCD    1936876916
        0x0000f1a8:    726f6620     for    DCD    1919903264
        0x0000f1ac:    726f6320     cor    DCD    1919902496
        0x0000f1b0:    72616d65    emar    DCD    1918987621
        0x0000f1b4:    000a2e6b    k...    DCD    667243
        0x0000f1b8:    0000000a    ....    DCD    10
        0x0000f1bc:    42400000    ..@B    DCD    1111490560
        0x0000f1c0:    42c00000    ...B    DCD    1119879168
    $t.6
    matrix_mul_matrix
        0x0000f1c4:    e92d4ff0    -..O    PUSH     {r4-r11,lr}
        0x0000f1c8:    b082        ..      SUB      sp,sp,#8
        0x0000f1ca:    9300        ..      STR      r3,[sp,#0]
        0x0000f1cc:    b340        @.      CBZ      r0,0xf220 ; matrix_mul_matrix + 92
        0x0000f1ce:    ea4f0c40    O.@.    LSL      r12,r0,#1
        0x0000f1d2:    2300        .#      MOVS     r3,#0
        0x0000f1d4:    f04f0800    O...    MOV      r8,#0
        0x0000f1d8:    f8ddb000    ....    LDR      r11,[sp,#0]
        0x0000f1dc:    fb03f900    ....    MUL      r9,r3,r0
        0x0000f1e0:    2700        .'      MOVS     r7,#0
        0x0000f1e2:    9301        ..      STR      r3,[sp,#4]
        0x0000f1e4:    eb070a09    ....    ADD      r10,r7,r9
        0x0000f1e8:    465e        ^F      MOV      r6,r11
        0x0000f1ea:    2400        .$      MOVS     r4,#0
        0x0000f1ec:    2500        .%      MOVS     r5,#0
        0x0000f1ee:    f841802a    A.*.    STR      r8,[r1,r10,LSL #2]
        0x0000f1f2:    bf00        ..      NOP      
        0x0000f1f4:    f932e015    2...    LDRSH    lr,[r2,r5,LSL #1]
        0x0000f1f8:    f9b63000    ...0    LDRSH    r3,[r6,#0]
        0x0000f1fc:    3501        .5      ADDS     r5,#1
        0x0000f1fe:    fb13440e    ...D    SMLABB   r4,r3,lr,r4
        0x0000f202:    42a8        .B      CMP      r0,r5
        0x0000f204:    4466        fD      ADD      r6,r6,r12
        0x0000f206:    d1f5        ..      BNE      0xf1f4 ; matrix_mul_matrix + 48
        0x0000f208:    3701        .7      ADDS     r7,#1
        0x0000f20a:    4287        .B      CMP      r7,r0
        0x0000f20c:    f10b0b02    ....    ADD      r11,r11,#2
        0x0000f210:    f841402a    A.*@    STR      r4,[r1,r10,LSL #2]
        0x0000f214:    d1e6        ..      BNE      0xf1e4 ; matrix_mul_matrix + 32
        0x0000f216:    9b01        ..      LDR      r3,[sp,#4]
        0x0000f218:    4462        bD      ADD      r2,r2,r12
        0x0000f21a:    3301        .3      ADDS     r3,#1
        0x0000f21c:    4283        .B      CMP      r3,r0
        0x0000f21e:    d1db        ..      BNE      0xf1d8 ; matrix_mul_matrix + 20
        0x0000f220:    b002        ..      ADD      sp,sp,#8
        0x0000f222:    e8bd8ff0    ....    POP      {r4-r11,pc}
        0x0000f226:    0000        ..      MOVS     r0,r0
    matrix_mul_matrix_bitextract
        0x0000f228:    e92d4ff0    -..O    PUSH     {r4-r11,lr}
        0x0000f22c:    b082        ..      SUB      sp,sp,#8
        0x0000f22e:    9300        ..      STR      r3,[sp,#0]
        0x0000f230:    b370        p.      CBZ      r0,0xf290 ; matrix_mul_matrix_bitextract + 104
        0x0000f232:    ea4f0c40    O.@.    LSL      r12,r0,#1
        0x0000f236:    2300        .#      MOVS     r3,#0
        0x0000f238:    f8ddb000    ....    LDR      r11,[sp,#0]
        0x0000f23c:    fb03f900    ....    MUL      r9,r3,r0
        0x0000f240:    f04f0800    O...    MOV      r8,#0
        0x0000f244:    9301        ..      STR      r3,[sp,#4]
        0x0000f246:    bf00        ..      NOP      
        0x0000f248:    eb080a09    ....    ADD      r10,r8,r9
        0x0000f24c:    2300        .#      MOVS     r3,#0
        0x0000f24e:    465e        ^F      MOV      r6,r11
        0x0000f250:    2400        .$      MOVS     r4,#0
        0x0000f252:    2500        .%      MOVS     r5,#0
        0x0000f254:    f841302a    A.*0    STR      r3,[r1,r10,LSL #2]
        0x0000f258:    f832e015    2...    LDRH     lr,[r2,r5,LSL #1]
        0x0000f25c:    8833        3.      LDRH     r3,[r6,#0]
        0x0000f25e:    3501        .5      ADDS     r5,#1
        0x0000f260:    fb03f30e    ....    MUL      r3,r3,lr
        0x0000f264:    f3c30783    ....    UBFX     r7,r3,#2,#4
        0x0000f268:    f3c31346    ..F.    UBFX     r3,r3,#5,#7
        0x0000f26c:    fb174403    ...D    SMLABB   r4,r7,r3,r4
        0x0000f270:    42a8        .B      CMP      r0,r5
        0x0000f272:    4466        fD      ADD      r6,r6,r12
        0x0000f274:    d1f0        ..      BNE      0xf258 ; matrix_mul_matrix_bitextract + 48
        0x0000f276:    f1080801    ....    ADD      r8,r8,#1
        0x0000f27a:    4580        .E      CMP      r8,r0
        0x0000f27c:    f10b0b02    ....    ADD      r11,r11,#2
        0x0000f280:    f841402a    A.*@    STR      r4,[r1,r10,LSL #2]
        0x0000f284:    d1e0        ..      BNE      0xf248 ; matrix_mul_matrix_bitextract + 32
        0x0000f286:    9b01        ..      LDR      r3,[sp,#4]
        0x0000f288:    4462        bD      ADD      r2,r2,r12
        0x0000f28a:    3301        .3      ADDS     r3,#1
        0x0000f28c:    4283        .B      CMP      r3,r0
        0x0000f28e:    d1d3        ..      BNE      0xf238 ; matrix_mul_matrix_bitextract + 16
        0x0000f290:    b002        ..      ADD      sp,sp,#8
        0x0000f292:    e8bd8ff0    ....    POP      {r4-r11,pc}
        0x0000f296:    0000        ..      MOVS     r0,r0
    matrix_sum
        0x0000f298:    b5f0        ..      PUSH     {r4-r7,lr}
        0x0000f29a:    f04f0300    O...    MOV      r3,#0
        0x0000f29e:    b1e8        ..      CBZ      r0,0xf2dc ; matrix_sum + 68
        0x0000f2a0:    ea4f0c80    O...    LSL      r12,r0,#2
        0x0000f2a4:    f04f0e00    O...    MOV      lr,#0
        0x0000f2a8:    2500        .%      MOVS     r5,#0
        0x0000f2aa:    2400        .$      MOVS     r4,#0
        0x0000f2ac:    2600        .&      MOVS     r6,#0
        0x0000f2ae:    bf00        ..      NOP      
        0x0000f2b0:    462f        /F      MOV      r7,r5
        0x0000f2b2:    f8515026    Q.&P    LDR      r5,[r1,r6,LSL #2]
        0x0000f2b6:    3601        .6      ADDS     r6,#1
        0x0000f2b8:    442c        ,D      ADD      r4,r4,r5
        0x0000f2ba:    42bd        .B      CMP      r5,r7
        0x0000f2bc:    f04f0700    O...    MOV      r7,#0
        0x0000f2c0:    bfc8        ..      IT       GT
        0x0000f2c2:    2701        .'      MOVGT    r7,#1
        0x0000f2c4:    4294        .B      CMP      r4,r2
        0x0000f2c6:    bfc4        ..      ITT      GT
        0x0000f2c8:    2400        .$      MOVGT    r4,#0
        0x0000f2ca:    270a        .'      MOVGT    r7,#0xa
        0x0000f2cc:    42b0        .B      CMP      r0,r6
        0x0000f2ce:    443b        ;D      ADD      r3,r3,r7
        0x0000f2d0:    d1ee        ..      BNE      0xf2b0 ; matrix_sum + 24
        0x0000f2d2:    f10e0e01    ....    ADD      lr,lr,#1
        0x0000f2d6:    4586        .E      CMP      lr,r0
        0x0000f2d8:    4461        aD      ADD      r1,r1,r12
        0x0000f2da:    d1e7        ..      BNE      0xf2ac ; matrix_sum + 20
        0x0000f2dc:    b218        ..      SXTH     r0,r3
        0x0000f2de:    bdf0        ..      POP      {r4-r7,pc}
    matrix_test
        0x0000f2e0:    e92d4ff0    -..O    PUSH     {r4-r11,lr}
        0x0000f2e4:    b081        ..      SUB      sp,sp,#4
        0x0000f2e6:    4605        .F      MOV      r5,r0
        0x0000f2e8:    f8dda028    ..(.    LDR      r10,[sp,#0x28]
        0x0000f2ec:    f24f0000    O...    MOVW     r0,#0xf000
        0x0000f2f0:    f6cf70ff    ...p    MOVT     r0,#0xffff
        0x0000f2f4:    461f        .F      MOV      r7,r3
        0x0000f2f6:    4693        .F      MOV      r11,r2
        0x0000f2f8:    4688        .F      MOV      r8,r1
        0x0000f2fa:    ea4a0200    J...    ORR      r2,r10,r0
        0x0000f2fe:    b1bd        ..      CBZ      r5,0xf330 ; matrix_test + 80
        0x0000f300:    fb05f405    ....    MUL      r4,r5,r5
        0x0000f304:    2c01        .,      CMP      r4,#1
        0x0000f306:    bf98        ..      IT       LS
        0x0000f308:    2401        .$      MOVLS    r4,#1
        0x0000f30a:    4659        YF      MOV      r1,r11
        0x0000f30c:    4620         F      MOV      r0,r4
        0x0000f30e:    bf00        ..      NOP      
        0x0000f310:    880b        ..      LDRH     r3,[r1,#0]
        0x0000f312:    3801        .8      SUBS     r0,#1
        0x0000f314:    4453        SD      ADD      r3,r3,r10
        0x0000f316:    f8213b02    !..;    STRH     r3,[r1],#2
        0x0000f31a:    d1f9        ..      BNE      0xf310 ; matrix_test + 48
        0x0000f31c:    4659        YF      MOV      r1,r11
        0x0000f31e:    4646        FF      MOV      r6,r8
        0x0000f320:    f9313b02    1..;    LDRSH    r3,[r1],#2
        0x0000f324:    3c01        .<      SUBS     r4,#1
        0x0000f326:    fb03f30a    ....    MUL      r3,r3,r10
        0x0000f32a:    f8463b04    F..;    STR      r3,[r6],#4
        0x0000f32e:    d1f7        ..      BNE      0xf320 ; matrix_test + 64
        0x0000f330:    4628        (F      MOV      r0,r5
        0x0000f332:    4641        AF      MOV      r1,r8
        0x0000f334:    9200        ..      STR      r2,[sp,#0]
        0x0000f336:    f7ffffaf    ....    BL       matrix_sum ; 0xf298
        0x0000f33a:    2100        .!      MOVS     r1,#0
        0x0000f33c:    f7fffa9c    ....    BL       crc16 ; 0xe878
        0x0000f340:    4681        .F      MOV      r9,r0
        0x0000f342:    b1c5        ..      CBZ      r5,0xf376 ; matrix_test + 150
        0x0000f344:    ea4f0e45    O.E.    LSL      lr,r5,#1
        0x0000f348:    f04f0c00    O...    MOV      r12,#0
        0x0000f34c:    465a        ZF      MOV      r2,r11
        0x0000f34e:    2300        .#      MOVS     r3,#0
        0x0000f350:    2100        .!      MOVS     r1,#0
        0x0000f352:    2400        .$      MOVS     r4,#0
        0x0000f354:    f848c023    H.#.    STR      r12,[r8,r3,LSL #2]
        0x0000f358:    f9326014    2..`    LDRSH    r6,[r2,r4,LSL #1]
        0x0000f35c:    f9370014    7...    LDRSH    r0,[r7,r4,LSL #1]
        0x0000f360:    3401        .4      ADDS     r4,#1
        0x0000f362:    42a5        .B      CMP      r5,r4
        0x0000f364:    fb101106    ....    SMLABB   r1,r0,r6,r1
        0x0000f368:    d1f6        ..      BNE      0xf358 ; matrix_test + 120
        0x0000f36a:    f8481023    H.#.    STR      r1,[r8,r3,LSL #2]
        0x0000f36e:    3301        .3      ADDS     r3,#1
        0x0000f370:    42ab        .B      CMP      r3,r5
        0x0000f372:    4472        rD      ADD      r2,r2,lr
        0x0000f374:    d1ec        ..      BNE      0xf350 ; matrix_test + 112
        0x0000f376:    9c00        ..      LDR      r4,[sp,#0]
        0x0000f378:    4628        (F      MOV      r0,r5
        0x0000f37a:    4641        AF      MOV      r1,r8
        0x0000f37c:    4622        "F      MOV      r2,r4
        0x0000f37e:    f7ffff8b    ....    BL       matrix_sum ; 0xf298
        0x0000f382:    4649        IF      MOV      r1,r9
        0x0000f384:    f7fffa78    ..x.    BL       crc16 ; 0xe878
        0x0000f388:    4681        .F      MOV      r9,r0
        0x0000f38a:    4628        (F      MOV      r0,r5
        0x0000f38c:    4641        AF      MOV      r1,r8
        0x0000f38e:    465a        ZF      MOV      r2,r11
        0x0000f390:    463b        ;F      MOV      r3,r7
        0x0000f392:    f7ffff17    ....    BL       matrix_mul_matrix ; 0xf1c4
        0x0000f396:    4628        (F      MOV      r0,r5
        0x0000f398:    4641        AF      MOV      r1,r8
        0x0000f39a:    4622        "F      MOV      r2,r4
        0x0000f39c:    f7ffff7c    ..|.    BL       matrix_sum ; 0xf298
        0x0000f3a0:    4649        IF      MOV      r1,r9
        0x0000f3a2:    f7fffa69    ..i.    BL       crc16 ; 0xe878
        0x0000f3a6:    4681        .F      MOV      r9,r0
        0x0000f3a8:    4628        (F      MOV      r0,r5
        0x0000f3aa:    4641        AF      MOV      r1,r8
        0x0000f3ac:    465a        ZF      MOV      r2,r11
        0x0000f3ae:    463b        ;F      MOV      r3,r7
        0x0000f3b0:    f7ffff3a    ..:.    BL       matrix_mul_matrix_bitextract ; 0xf228
        0x0000f3b4:    4628        (F      MOV      r0,r5
        0x0000f3b6:    4641        AF      MOV      r1,r8
        0x0000f3b8:    4622        "F      MOV      r2,r4
        0x0000f3ba:    f7ffff6d    ..m.    BL       matrix_sum ; 0xf298
        0x0000f3be:    4649        IF      MOV      r1,r9
        0x0000f3c0:    f7fffa5a    ..Z.    BL       crc16 ; 0xe878
        0x0000f3c4:    b15d        ].      CBZ      r5,0xf3de ; matrix_test + 254
        0x0000f3c6:    fb05f105    ....    MUL      r1,r5,r5
        0x0000f3ca:    2200        ."      MOVS     r2,#0
        0x0000f3cc:    f83b3012    ;..0    LDRH     r3,[r11,r2,LSL #1]
        0x0000f3d0:    eba3030a    ....    SUB      r3,r3,r10
        0x0000f3d4:    f82b3012    +..0    STRH     r3,[r11,r2,LSL #1]
        0x0000f3d8:    3201        .2      ADDS     r2,#1
        0x0000f3da:    428a        .B      CMP      r2,r1
        0x0000f3dc:    d3f6        ..      BCC      0xf3cc ; matrix_test + 236
        0x0000f3de:    b200        ..      SXTH     r0,r0
        0x0000f3e0:    b001        ..      ADD      sp,sp,#4
        0x0000f3e2:    e8bd8ff0    ....    POP      {r4-r11,pc}
        0x0000f3e6:    0000        ..      MOVS     r0,r0
    portable_fini
        0x0000f3e8:    e92d41f0    -..A    PUSH     {r4-r8,lr}
        0x0000f3ec:    2100        .!      MOVS     r1,#0
        0x0000f3ee:    7001        .p      STRB     r1,[r0,#0]
        0x0000f3f0:    2000        .       MOVS     r0,#0
        0x0000f3f2:    2101        .!      MOVS     r1,#1
        0x0000f3f4:    f7fdfc3c    ..<.    BL       am_hal_gpio_state_write ; 0xcc70
        0x0000f3f8:    20a0        .       MOVS     r0,#0xa0
        0x0000f3fa:    f7fdfaa9    ....    BL       am_hal_flash_delay ; 0xc950
        0x0000f3fe:    2000        .       MOVS     r0,#0
        0x0000f400:    2100        .!      MOVS     r1,#0
        0x0000f402:    f7fdfc35    ..5.    BL       am_hal_gpio_state_write ; 0xcc70
        0x0000f406:    2011        .       MOVS     r0,#0x11
        0x0000f408:    f7fdfdd4    ....    BL       am_hal_pwrctrl_memory_enable ; 0xcfb4
        0x0000f40c:    b118        ..      CBZ      r0,0xf416 ; portable_fini + 46
        0x0000f40e:    a03b        ;.      ADR      r0,{pc}+0xee ; 0xf4fc
        0x0000f410:    f7fefa99    ....    BL       am_util_stdio_printf ; 0xd946
        0x0000f414:    e7fe        ..      B        0xf414 ; portable_fini + 44
        0x0000f416:    f2402023    @.#     MOV      r0,#0x223
        0x0000f41a:    f2c00001    ....    MOVT     r0,#1
        0x0000f41e:    f7fdf8fb    ....    BL       am_hal_cachectrl_config ; 0xc618
        0x0000f422:    f7fdf9d3    ....    BL       am_hal_cachectrl_enable ; 0xc7cc
        0x0000f426:    f7fcffc0    ....    BL       am_bsp_uart_printf_enable ; 0xc3aa
        0x0000f42a:    a03c        <.      ADR      r0,{pc}+0xf2 ; 0xf51c
        0x0000f42c:    f7fefa8b    ....    BL       am_util_stdio_printf ; 0xd946
        0x0000f430:    f24100a0    A...    MOVW     r0,#0x10a0
        0x0000f434:    f2c10000    ....    MOVT     r0,#0x1000
        0x0000f438:    7800        .x      LDRB     r0,[r0,#0]
        0x0000f43a:    b1c8        ..      CBZ      r0,0xf470 ; portable_fini + 136
        0x0000f43c:    f24104a0    A...    MOVW     r4,#0x10a0
        0x0000f440:    f2c10400    ....    MOVT     r4,#0x1000
        0x0000f444:    2500        .%      MOVS     r5,#0
        0x0000f446:    f24036fe    @..6    MOV      r6,#0x3fe
        0x0000f44a:    bf00        ..      NOP      
        0x0000f44c:    4620         F      MOV      r0,r4
        0x0000f44e:    f7fefa7a    ..z.    BL       am_util_stdio_printf ; 0xd946
        0x0000f452:    7820         x      LDRB     r0,[r4,#0]
        0x0000f454:    b128        (.      CBZ      r0,0xf462 ; portable_fini + 122
        0x0000f456:    bf00        ..      NOP      
        0x0000f458:    f8140f01    ....    LDRB     r0,[r4,#1]!
        0x0000f45c:    3501        .5      ADDS     r5,#1
        0x0000f45e:    2800        .(      CMP      r0,#0
        0x0000f460:    d1fa        ..      BNE      0xf458 ; portable_fini + 112
        0x0000f462:    42b5        .B      CMP      r5,r6
        0x0000f464:    dc04        ..      BGT      0xf470 ; portable_fini + 136
        0x0000f466:    f8140f01    ....    LDRB     r0,[r4,#1]!
        0x0000f46a:    3501        .5      ADDS     r5,#1
        0x0000f46c:    2800        .(      CMP      r0,#0
        0x0000f46e:    d1ed        ..      BNE      0xf44c ; portable_fini + 100
        0x0000f470:    f7fcff79    ..y.    BL       am_bsp_uart_printf_disable ; 0xc366
        0x0000f474:    f2400800    @...    MOVW     r8,#0
        0x0000f478:    f2c10800    ....    MOVT     r8,#0x1000
        0x0000f47c:    4640        @F      MOV      r0,r8
        0x0000f47e:    2105        .!      MOVS     r1,#5
        0x0000f480:    f7fcffe8    ....    BL       am_devices_led_array_init ; 0xc454
        0x0000f484:    f64c46cd    L..F    MOV      r6,#0xcccd
        0x0000f488:    2500        .%      MOVS     r5,#0
        0x0000f48a:    f6cc46cc    ...F    MOVT     r6,#0xcccc
        0x0000f48e:    2701        .'      MOVS     r7,#1
        0x0000f490:    2410        .$      MOVS     r4,#0x10
        0x0000f492:    bf00        ..      NOP      
        0x0000f494:    b2e8        ..      UXTB     r0,r5
        0x0000f496:    fba01206    ....    UMULL    r1,r2,r0,r6
        0x0000f49a:    08d1        ..      LSRS     r1,r2,#3
        0x0000f49c:    eb010181    ....    ADD      r1,r1,r1,LSL #2
        0x0000f4a0:    eba00041    ..A.    SUB      r0,r0,r1,LSL #1
        0x0000f4a4:    1f41        A.      SUBS     r1,r0,#5
        0x0000f4a6:    fa24f201    $...    LSR      r2,r4,r1
        0x0000f4aa:    bf38        8.      IT       CC
        0x0000f4ac:    fa07f200    ....    LSLCC    r2,r7,r0
        0x0000f4b0:    4640        @F      MOV      r0,r8
        0x0000f4b2:    2105        .!      MOVS     r1,#5
        0x0000f4b4:    f7fcffe2    ....    BL       am_devices_led_array_out ; 0xc47c
        0x0000f4b8:    20c8        .       MOVS     r0,#0xc8
        0x0000f4ba:    f7fef9db    ....    BL       am_util_delay_ms ; 0xd874
        0x0000f4be:    3501        .5      ADDS     r5,#1
        0x0000f4c0:    2d14        .-      CMP      r5,#0x14
        0x0000f4c2:    d1e7        ..      BNE      0xf494 ; portable_fini + 172
        0x0000f4c4:    f2400400    @...    MOVW     r4,#0
        0x0000f4c8:    2503        .%      MOVS     r5,#3
        0x0000f4ca:    f2c10400    ....    MOVT     r4,#0x1000
        0x0000f4ce:    bf00        ..      NOP      
        0x0000f4d0:    4620         F      MOV      r0,r4
        0x0000f4d2:    2105        .!      MOVS     r1,#5
        0x0000f4d4:    221f        ."      MOVS     r2,#0x1f
        0x0000f4d6:    f7fcffd1    ....    BL       am_devices_led_array_out ; 0xc47c
        0x0000f4da:    f44f7096    O..p    MOV      r0,#0x12c
        0x0000f4de:    f7fef9c9    ....    BL       am_util_delay_ms ; 0xd874
        0x0000f4e2:    4620         F      MOV      r0,r4
        0x0000f4e4:    2105        .!      MOVS     r1,#5
        0x0000f4e6:    2200        ."      MOVS     r2,#0
        0x0000f4e8:    f7fcffc8    ....    BL       am_devices_led_array_out ; 0xc47c
        0x0000f4ec:    f44f7096    O..p    MOV      r0,#0x12c
        0x0000f4f0:    f7fef9c0    ....    BL       am_util_delay_ms ; 0xd874
        0x0000f4f4:    3d01        .=      SUBS     r5,#1
        0x0000f4f6:    d1eb        ..      BNE      0xf4d0 ; portable_fini + 232
        0x0000f4f8:    e8bd81f0    ....    POP      {r4-r8,pc}
    $d.8
        0x0000f4fc:    6c696146    Fail    DCD    1818845510
        0x0000f500:    74206465    ed t    DCD    1948279909
        0x0000f504:    6572206f    o re    DCD    1701978223
        0x0000f508:    616e652d    -ena    DCD    1634624813
        0x0000f50c:    20656c62    ble     DCD    543517794
        0x0000f510:    206c6c61    all     DCD    543976545
        0x0000f514:    6f6d656d    memo    DCD    1869440365
        0x0000f518:    000a7972    ry..    DCD    686450
        0x0000f51c:    0a0a0a0a    ....    DCD    168430090
        0x0000f520:    69626d41    Ambi    DCD    1768058177
        0x0000f524:    694d2071    q Mi    DCD    1766662257
        0x0000f528:    206f7263    cro     DCD    544174691
        0x0000f52c:    65726f43    Core    DCD    1701998403
        0x0000f530:    6b72616d    mark    DCD    1802658157
        0x0000f534:    6e757220     run    DCD    1853190688
        0x0000f538:    6e696620     fin    DCD    1852401184
        0x0000f53c:    65687369    ishe    DCD    1701344105
        0x0000f540:    0a0a2164    d!..    DCD    168436068
        0x0000f544:    00000000    ....    DCD    0
    $t.5
    portable_init
        0x0000f548:    b510        ..      PUSH     {r4,lr}
        0x0000f54a:    b082        ..      SUB      sp,sp,#8
        0x0000f54c:    f24104a0    A...    MOVW     r4,#0x10a0
        0x0000f550:    2101        .!      MOVS     r1,#1
        0x0000f552:    f2c10400    ....    MOVT     r4,#0x1000
        0x0000f556:    7001        .p      STRB     r1,[r0,#0]
        0x0000f558:    4620         F      MOV      r0,r4
        0x0000f55a:    f44f6180    O..a    MOV      r1,#0x400
        0x0000f55e:    f7fcfe67    ..g.    BL       __aeabi_memclr4 ; 0xc230
        0x0000f562:    f241009c    A...    MOV      r0,#0x109c
        0x0000f566:    f2c10000    ....    MOVT     r0,#0x1000
        0x0000f56a:    6004        .`      STR      r4,[r0,#0]
        0x0000f56c:    f2410098    A...    MOV      r0,#0x1098
        0x0000f570:    f2c10000    ....    MOVT     r0,#0x1000
        0x0000f574:    2100        .!      MOVS     r1,#0
        0x0000f576:    6001        .`      STR      r1,[r0,#0]
        0x0000f578:    2000        .       MOVS     r0,#0
        0x0000f57a:    2100        .!      MOVS     r1,#0
        0x0000f57c:    f7fdf930    ..0.    BL       am_hal_clkgen_control ; 0xc7e0
        0x0000f580:    f2402020    @.      MOVW     r0,#0x220
        0x0000f584:    f2c00001    ....    MOVT     r0,#1
        0x0000f588:    7881        .x      LDRB     r1,[r0,#2]
        0x0000f58a:    8800        ..      LDRH     r0,[r0,#0]
        0x0000f58c:    f88d1006    ....    STRB     r1,[sp,#6]
        0x0000f590:    f8ad0004    ....    STRH     r0,[sp,#4]
        0x0000f594:    a801        ..      ADD      r0,sp,#4
        0x0000f596:    f7fdf83f    ..?.    BL       am_hal_cachectrl_config ; 0xc618
        0x0000f59a:    f7fdf917    ....    BL       am_hal_cachectrl_enable ; 0xc7cc
        0x0000f59e:    200d        .       MOVS     r0,#0xd
        0x0000f5a0:    2100        .!      MOVS     r1,#0
        0x0000f5a2:    f7fdf85d    ..].    BL       am_hal_cachectrl_control ; 0xc660
        0x0000f5a6:    b120         .      CBZ      r0,0xf5b2 ; portable_init + 106
        0x0000f5a8:    a03f        ?.      ADR      r0,{pc}+0x100 ; 0xf6a8
        0x0000f5aa:    f7fef9cc    ....    BL       am_util_stdio_printf ; 0xd946
        0x0000f5ae:    bf00        ..      NOP      
        0x0000f5b0:    e7fe        ..      B        0xf5b0 ; portable_init + 104
        0x0000f5b2:    f7fdfe2e    ....    BL       am_hal_sysctrl_fpu_enable ; 0xd212
        0x0000f5b6:    2001        .       MOVS     r0,#1
        0x0000f5b8:    f7fdfe33    ..3.    BL       am_hal_sysctrl_fpu_stacking_enable ; 0xd222
        0x0000f5bc:    f7fcfeb0    ....    BL       am_bsp_low_power_init ; 0xc320
        0x0000f5c0:    f7fcfef3    ....    BL       am_bsp_uart_printf_enable ; 0xc3aa
        0x0000f5c4:    f241547d    A.}T    MOV      r4,#0x157d
        0x0000f5c8:    f2c10400    ....    MOVT     r4,#0x1000
        0x0000f5cc:    7821        !x      LDRB     r1,[r4,#0]
        0x0000f5ce:    a04d        M.      ADR      r0,{pc}+0x136 ; 0xf704
        0x0000f5d0:    a241        A.      ADR      r2,{pc}+0x108 ; 0xf6d8
        0x0000f5d2:    2901        .)      CMP      r1,#1
        0x0000f5d4:    bf08        ..      IT       EQ
        0x0000f5d6:    4610        .F      MOVEQ    r0,r2
        0x0000f5d8:    f7fef9b5    ....    BL       am_util_stdio_printf ; 0xd946
        0x0000f5dc:    200e        .       MOVS     r0,#0xe
        0x0000f5de:    f7fdfce9    ....    BL       am_hal_pwrctrl_memory_enable ; 0xcfb4
        0x0000f5e2:    b130        0.      CBZ      r0,0xf5f2 ; portable_init + 170
        0x0000f5e4:    f64020a6    @..     MOV      r0,#0xaa6
        0x0000f5e8:    f2c00001    ....    MOVT     r0,#1
        0x0000f5ec:    f7fef9ab    ....    BL       am_util_stdio_printf ; 0xd946
        0x0000f5f0:    e7fe        ..      B        0xf5f0 ; portable_init + 168
        0x0000f5f2:    2001        .       MOVS     r0,#1
        0x0000f5f4:    f7fdfcde    ....    BL       am_hal_pwrctrl_memory_enable ; 0xcfb4
        0x0000f5f8:    b138        8.      CBZ      r0,0xf60a ; portable_init + 194
        0x0000f5fa:    f6402089    @..     MOV      r0,#0xa89
        0x0000f5fe:    f2c00001    ....    MOVT     r0,#1
        0x0000f602:    f7fef9a0    ....    BL       am_util_stdio_printf ; 0xd946
        0x0000f606:    bf00        ..      NOP      
        0x0000f608:    e7fe        ..      B        0xf608 ; portable_init + 192
        0x0000f60a:    f24040b8    @..@    MOVW     r0,#0x4b8
        0x0000f60e:    f2c00001    ....    MOVT     r0,#1
        0x0000f612:    6801        .h      LDR      r1,[r0,#0]
        0x0000f614:    2000        .       MOVS     r0,#0
        0x0000f616:    f7fdf9ff    ....    BL       am_hal_gpio_pinconfig ; 0xca18
        0x0000f61a:    7820         x      LDRB     r0,[r4,#0]
        0x0000f61c:    2801        .(      CMP      r0,#1
        0x0000f61e:    d12f        /.      BNE      0xf680 ; portable_init + 312
        0x0000f620:    f44f60fa    O..`    MOV      r0,#0x7d0
        0x0000f624:    f7fef926    ..&.    BL       am_util_delay_ms ; 0xd874
        0x0000f628:    f10d0003    ....    ADD      r0,sp,#3
        0x0000f62c:    f7fcffb4    ....    BL       am_hal_burst_mode_initialize ; 0xc598
        0x0000f630:    f89d1003    ....    LDRB     r1,[sp,#3]
        0x0000f634:    f64023f1    @..#    MOV      r3,#0xaf1
        0x0000f638:    2900        .)      CMP      r1,#0
        0x0000f63a:    f640313d    @.=1    MOV      r1,#0xb3d
        0x0000f63e:    f64022d0    @.."    MOVW     r2,#0xad0
        0x0000f642:    f2c00301    ....    MOVT     r3,#1
        0x0000f646:    f2c00101    ....    MOVT     r1,#1
        0x0000f64a:    f2c00201    ....    MOVT     r2,#1
        0x0000f64e:    bf08        ..      IT       EQ
        0x0000f650:    4613        .F      MOVEQ    r3,r2
        0x0000f652:    2800        .(      CMP      r0,#0
        0x0000f654:    bf08        ..      IT       EQ
        0x0000f656:    4619        .F      MOVEQ    r1,r3
        0x0000f658:    4608        .F      MOV      r0,r1
        0x0000f65a:    f7fef974    ..t.    BL       am_util_stdio_printf ; 0xd946
        0x0000f65e:    f24144a0    A..D    MOVW     r4,#0x14a0
        0x0000f662:    f2c10400    ....    MOVT     r4,#0x1000
        0x0000f666:    4620         F      MOV      r0,r4
        0x0000f668:    f7fcff6b    ..k.    BL       am_hal_burst_mode_enable ; 0xc542
        0x0000f66c:    b130        0.      CBZ      r0,0xf67c ; portable_init + 308
        0x0000f66e:    f6403016    @..0    MOV      r0,#0xb16
        0x0000f672:    f2c00001    ....    MOVT     r0,#1
        0x0000f676:    f7fef966    ..f.    BL       am_util_stdio_printf ; 0xd946
        0x0000f67a:    e001        ..      B        0xf680 ; portable_init + 312
        0x0000f67c:    7820         x      LDRB     r0,[r4,#0]
        0x0000f67e:    b170        p.      CBZ      r0,0xf69e ; portable_init + 342
        0x0000f680:    2000        .       MOVS     r0,#0
        0x0000f682:    2101        .!      MOVS     r1,#1
        0x0000f684:    f7fdfaf4    ....    BL       am_hal_gpio_state_write ; 0xcc70
        0x0000f688:    20a0        .       MOVS     r0,#0xa0
        0x0000f68a:    f7fdf961    ..a.    BL       am_hal_flash_delay ; 0xc950
        0x0000f68e:    2000        .       MOVS     r0,#0
        0x0000f690:    2100        .!      MOVS     r1,#0
        0x0000f692:    f7fdfaed    ....    BL       am_hal_gpio_state_write ; 0xcc70
        0x0000f696:    f7fcfe66    ..f.    BL       am_bsp_uart_printf_disable ; 0xc366
        0x0000f69a:    b002        ..      ADD      sp,sp,#8
        0x0000f69c:    bd10        ..      POP      {r4,pc}
        0x0000f69e:    f6402060    @.`     MOVW     r0,#0xa60
        0x0000f6a2:    f2c00001    ....    MOVT     r0,#1
        0x0000f6a6:    e7e6        ..      B        0xf676 ; portable_init + 302
    $d.6
        0x0000f6a8:    6c696146    Fail    DCD    1818845510
        0x0000f6ac:    74206465    ed t    DCD    1948279909
        0x0000f6b0:    6573206f    o se    DCD    1702043759
        0x0000f6b4:    61632074    t ca    DCD    1633886324
        0x0000f6b8:    20656863    che     DCD    543516771
        0x0000f6bc:    6f746e69    into    DCD    1869901417
        0x0000f6c0:    4d504c20     LPM    DCD    1297108000
        0x0000f6c4:    45444f4d    MODE    DCD    1162104653
        0x0000f6c8:    4747415f    _AGG    DCD    1195852127
        0x0000f6cc:    53534552    RESS    DCD    1397966162
        0x0000f6d0:    2e455649    IVE.    DCD    776296009
        0x0000f6d4:    0000000a    ....    DCD    10
        0x0000f6d8:    0a0a0a0a    ....    DCD    168430090
        0x0000f6dc:    69626d41    Ambi    DCD    1768058177
        0x0000f6e0:    694d2071    q Mi    DCD    1766662257
        0x0000f6e4:    206f7263    cro     DCD    544174691
        0x0000f6e8:    65726f43    Core    DCD    1701998403
        0x0000f6ec:    6b72616d    mark    DCD    1802658157
        0x0000f6f0:    4d363920     96M    DCD    1295399200
        0x0000f6f4:    74207a48    Hz t    DCD    1948285512
        0x0000f6f8:    2e747365    est.    DCD    779383653
        0x0000f6fc:    0a0a2e2e    ....    DCD    168439342
        0x0000f700:    00000000    ....    DCD    0
        0x0000f704:    0a0a0a0a    ....    DCD    168430090
        0x0000f708:    69626d41    Ambi    DCD    1768058177
        0x0000f70c:    694d2071    q Mi    DCD    1766662257
        0x0000f710:    206f7263    cro     DCD    544174691
        0x0000f714:    65726f43    Core    DCD    1701998403
        0x0000f718:    6b72616d    mark    DCD    1802658157
        0x0000f71c:    4d383420     48M    DCD    1295528992
        0x0000f720:    74207a48    Hz t    DCD    1948285512
        0x0000f724:    2e747365    est.    DCD    779383653
        0x0000f728:    0a0a2e2e    ....    DCD    168439342
        0x0000f72c:    00000000    ....    DCD    0
    $t.20
    read_nonblocking
        0x0000f730:    e92d41f0    -..A    PUSH     {r4-r8,lr}
        0x0000f734:    b1d0        ..      CBZ      r0,0xf76c ; read_nonblocking + 60
        0x0000f736:    4604        .F      MOV      r4,r0
        0x0000f738:    6800        .h      LDR      r0,[r0,#0]
        0x0000f73a:    460e        .F      MOV      r6,r1
        0x0000f73c:    f6496106    I..a    MOV      r1,#0x9e06
        0x0000f740:    f020407e     .~@    BIC      r0,r0,#0xfe000000
        0x0000f744:    f2c011ea    ....    MOVT     r1,#0x1ea
        0x0000f748:    4288        .B      CMP      r0,r1
        0x0000f74a:    d10f        ..      BNE      0xf76c ; read_nonblocking + 60
        0x0000f74c:    4698        .F      MOV      r8,r3
        0x0000f74e:    4615        .F      MOV      r5,r2
        0x0000f750:    b113        ..      CBZ      r3,0xf758 ; read_nonblocking + 40
        0x0000f752:    2000        .       MOVS     r0,#0
        0x0000f754:    f8c80000    ....    STR      r0,[r8,#0]
        0x0000f758:    b15d        ].      CBZ      r5,0xf772 ; read_nonblocking + 66
        0x0000f75a:    f8940044    ..D.    LDRB     r0,[r4,#0x44]
        0x0000f75e:    b158        X.      CBZ      r0,0xf778 ; read_nonblocking + 72
        0x0000f760:    4620         F      MOV      r0,r4
        0x0000f762:    f000f835    ..5.    BL       rx_queue_update ; 0xf7d0
        0x0000f766:    b1e8        ..      CBZ      r0,0xf7a4 ; read_nonblocking + 116
        0x0000f768:    e8bd81f0    ....    POP      {r4-r8,pc}
        0x0000f76c:    2002        .       MOVS     r0,#2
        0x0000f76e:    e8bd81f0    ....    POP      {r4-r8,pc}
        0x0000f772:    2000        .       MOVS     r0,#0
        0x0000f774:    e8bd81f0    ....    POP      {r4-r8,pc}
        0x0000f778:    6a60        `j      LDR      r0,[r4,#0x24]
        0x0000f77a:    f24c0100    L...    MOVW     r1,#0xc000
        0x0000f77e:    f2c40101    ....    MOVT     r1,#0x4001
        0x0000f782:    eb013000    ...0    ADD      r0,r1,r0,LSL #12
        0x0000f786:    2700        .'      MOVS     r7,#0
        0x0000f788:    6981        .i      LDR      r1,[r0,#0x18]
        0x0000f78a:    06c9        ..      LSLS     r1,r1,#27
        0x0000f78c:    d414        ..      BMI      0xf7b8 ; read_nonblocking + 136
        0x0000f78e:    6801        .h      LDR      r1,[r0,#0]
        0x0000f790:    f4116f70    ..po    TST      r1,#0xf00
        0x0000f794:    d112        ..      BNE      0xf7bc ; read_nonblocking + 140
        0x0000f796:    55f1        .U      STRB     r1,[r6,r7]
        0x0000f798:    3701        .7      ADDS     r7,#1
        0x0000f79a:    42bd        .B      CMP      r5,r7
        0x0000f79c:    d1f4        ..      BNE      0xf788 ; read_nonblocking + 88
        0x0000f79e:    2000        .       MOVS     r0,#0
        0x0000f7a0:    462f        /F      MOV      r7,r5
        0x0000f7a2:    e00d        ..      B        0xf7c0 ; read_nonblocking + 144
        0x0000f7a4:    6d27        'm      LDR      r7,[r4,#0x50]
        0x0000f7a6:    f1040048    ..H.    ADD      r0,r4,#0x48
        0x0000f7aa:    42af        .B      CMP      r7,r5
        0x0000f7ac:    bf88        ..      IT       HI
        0x0000f7ae:    462f        /F      MOVHI    r7,r5
        0x0000f7b0:    4631        1F      MOV      r1,r6
        0x0000f7b2:    463a        :F      MOV      r2,r7
        0x0000f7b4:    f7fdfcf4    ....    BL       am_hal_queue_item_get ; 0xd1a0
        0x0000f7b8:    2000        .       MOVS     r0,#0
        0x0000f7ba:    e001        ..      B        0xf7c0 ; read_nonblocking + 144
        0x0000f7bc:    f04f6000    O..`    MOV      r0,#0x8000000
        0x0000f7c0:    f1b80f00    ....    CMP      r8,#0
        0x0000f7c4:    bf18        ..      IT       NE
        0x0000f7c6:    f8c87000    ...p    STRNE    r7,[r8,#0]
        0x0000f7ca:    e8bd81f0    ....    POP      {r4-r8,pc}
        0x0000f7ce:    0000        ..      MOVS     r0,r0
    rx_queue_update
        0x0000f7d0:    b510        ..      PUSH     {r4,lr}
        0x0000f7d2:    b08a        ..      SUB      sp,sp,#0x28
        0x0000f7d4:    4604        .F      MOV      r4,r0
        0x0000f7d6:    f7fdfa97    ....    BL       am_hal_interrupt_master_disable ; 0xcd08
        0x0000f7da:    9001        ..      STR      r0,[sp,#4]
        0x0000f7dc:    6a60        `j      LDR      r0,[r4,#0x24]
        0x0000f7de:    f24c0100    L...    MOVW     r1,#0xc000
        0x0000f7e2:    f2c40101    ....    MOVT     r1,#0x4001
        0x0000f7e6:    eb013000    ...0    ADD      r0,r1,r0,LSL #12
        0x0000f7ea:    2200        ."      MOVS     r2,#0
        0x0000f7ec:    a902        ..      ADD      r1,sp,#8
        0x0000f7ee:    bf00        ..      NOP      
        0x0000f7f0:    6983        .i      LDR      r3,[r0,#0x18]
        0x0000f7f2:    06db        ..      LSLS     r3,r3,#27
        0x0000f7f4:    d408        ..      BMI      0xf808 ; rx_queue_update + 56
        0x0000f7f6:    6803        .h      LDR      r3,[r0,#0]
        0x0000f7f8:    f4136f70    ..po    TST      r3,#0xf00
        0x0000f7fc:    d110        ..      BNE      0xf820 ; rx_queue_update + 80
        0x0000f7fe:    548b        .T      STRB     r3,[r1,r2]
        0x0000f800:    3201        .2      ADDS     r2,#1
        0x0000f802:    2a20         *      CMP      r2,#0x20
        0x0000f804:    d1f4        ..      BNE      0xf7f0 ; rx_queue_update + 32
        0x0000f806:    2220         "      MOVS     r2,#0x20
        0x0000f808:    f1040048    ..H.    ADD      r0,r4,#0x48
        0x0000f80c:    a902        ..      ADD      r1,sp,#8
        0x0000f80e:    f7fdfc93    ....    BL       am_hal_queue_item_add ; 0xd138
        0x0000f812:    2401        .$      MOVS     r4,#1
        0x0000f814:    f6c00400    ....    MOVT     r4,#0x800
        0x0000f818:    2800        .(      CMP      r0,#0
        0x0000f81a:    bf18        ..      IT       NE
        0x0000f81c:    2400        .$      MOVNE    r4,#0
        0x0000f81e:    e001        ..      B        0xf824 ; rx_queue_update + 84
        0x0000f820:    f04f6400    O..d    MOV      r4,#0x8000000
        0x0000f824:    9801        ..      LDR      r0,[sp,#4]
        0x0000f826:    f7fdfa77    ..w.    BL       am_hal_interrupt_master_set ; 0xcd18
        0x0000f82a:    4620         F      MOV      r0,r4
        0x0000f82c:    b00a        ..      ADD      sp,sp,#0x28
        0x0000f82e:    bd10        ..      POP      {r4,pc}
    set_LPMMODE
        0x0000f830:    b5b0        ..      PUSH     {r4,r5,r7,lr}
        0x0000f832:    b082        ..      SUB      sp,sp,#8
        0x0000f834:    4604        .F      MOV      r4,r0
        0x0000f836:    2803        .(      CMP      r0,#3
        0x0000f838:    d815        ..      BHI      0xf866 ; set_LPMMODE + 54
        0x0000f83a:    f7fdfa65    ..e.    BL       am_hal_interrupt_master_disable ; 0xcd08
        0x0000f83e:    f2480504    H...    MOV      r5,#0x8004
        0x0000f842:    f2c40501    ....    MOVT     r5,#0x4001
        0x0000f846:    9001        ..      STR      r0,[sp,#4]
        0x0000f848:    4628        (F      MOV      r0,r5
        0x0000f84a:    f7fdf8cf    ....    BL       am_hal_flash_load_ui32 ; 0xc9ec
        0x0000f84e:    f420507c     .|P    BIC      r0,r0,#0x3f00
        0x0000f852:    f364300d    d..0    BFI      r0,r4,#12,#2
        0x0000f856:    f50061e0    ...a    ADD      r1,r0,#0x700
        0x0000f85a:    4628        (F      MOV      r0,r5
        0x0000f85c:    f7fdf8ca    ....    BL       am_hal_flash_store_ui32 ; 0xc9f4
        0x0000f860:    9801        ..      LDR      r0,[sp,#4]
        0x0000f862:    f7fdfa59    ..Y.    BL       am_hal_interrupt_master_set ; 0xcd18
        0x0000f866:    2000        .       MOVS     r0,#0
        0x0000f868:    2c04        .,      CMP      r4,#4
        0x0000f86a:    bf38        8.      IT       CC
        0x0000f86c:    2001        .       MOVCC    r0,#1
        0x0000f86e:    b002        ..      ADD      sp,sp,#8
        0x0000f870:    bdb0        ..      POP      {r4,r5,r7,pc}
    set_RDWAIT
        0x0000f872:    b5b0        ..      PUSH     {r4,r5,r7,lr}
        0x0000f874:    b082        ..      SUB      sp,sp,#8
        0x0000f876:    4604        .F      MOV      r4,r0
        0x0000f878:    280f        .(      CMP      r0,#0xf
        0x0000f87a:    d815        ..      BHI      0xf8a8 ; set_RDWAIT + 54
        0x0000f87c:    f7fdfa44    ..D.    BL       am_hal_interrupt_master_disable ; 0xcd08
        0x0000f880:    f2480504    H...    MOV      r5,#0x8004
        0x0000f884:    f2c40501    ....    MOVT     r5,#0x4001
        0x0000f888:    9001        ..      STR      r0,[sp,#4]
        0x0000f88a:    4628        (F      MOV      r0,r5
        0x0000f88c:    f7fdf8ae    ....    BL       am_hal_flash_load_ui32 ; 0xc9ec
        0x0000f890:    f640710f    @..q    MOV      r1,#0xf0f
        0x0000f894:    4388        .C      BICS     r0,r0,r1
        0x0000f896:    4320         C      ORRS     r0,r0,r4
        0x0000f898:    f44061e0    @..a    ORR      r1,r0,#0x700
        0x0000f89c:    4628        (F      MOV      r0,r5
        0x0000f89e:    f7fdf8a9    ....    BL       am_hal_flash_store_ui32 ; 0xc9f4
        0x0000f8a2:    9801        ..      LDR      r0,[sp,#4]
        0x0000f8a4:    f7fdfa38    ..8.    BL       am_hal_interrupt_master_set ; 0xcd18
        0x0000f8a8:    2000        .       MOVS     r0,#0
        0x0000f8aa:    2c10        .,      CMP      r4,#0x10
        0x0000f8ac:    bf38        8.      IT       CC
        0x0000f8ae:    2001        .       MOVCC    r0,#1
        0x0000f8b0:    b002        ..      ADD      sp,sp,#8
        0x0000f8b2:    bdb0        ..      POP      {r4,r5,r7,pc}
    set_SEDELAY
        0x0000f8b4:    b5b0        ..      PUSH     {r4,r5,r7,lr}
        0x0000f8b6:    b082        ..      SUB      sp,sp,#8
        0x0000f8b8:    4604        .F      MOV      r4,r0
        0x0000f8ba:    2807        .(      CMP      r0,#7
        0x0000f8bc:    d815        ..      BHI      0xf8ea ; set_SEDELAY + 54
        0x0000f8be:    f7fdfa23    ..#.    BL       am_hal_interrupt_master_disable ; 0xcd08
        0x0000f8c2:    f2480504    H...    MOV      r5,#0x8004
        0x0000f8c6:    f2c40501    ....    MOVT     r5,#0x4001
        0x0000f8ca:    9001        ..      STR      r0,[sp,#4]
        0x0000f8cc:    4628        (F      MOV      r0,r5
        0x0000f8ce:    f7fdf88d    ....    BL       am_hal_flash_load_ui32 ; 0xc9ec
        0x0000f8d2:    f4206077     .w`    BIC      r0,r0,#0xf70
        0x0000f8d6:    f3641006    d...    BFI      r0,r4,#4,#3
        0x0000f8da:    f50061e0    ...a    ADD      r1,r0,#0x700
        0x0000f8de:    4628        (F      MOV      r0,r5
        0x0000f8e0:    f7fdf888    ....    BL       am_hal_flash_store_ui32 ; 0xc9f4
        0x0000f8e4:    9801        ..      LDR      r0,[sp,#4]
        0x0000f8e6:    f7fdfa17    ....    BL       am_hal_interrupt_master_set ; 0xcd18
        0x0000f8ea:    2000        .       MOVS     r0,#0
        0x0000f8ec:    2c08        .,      CMP      r4,#8
        0x0000f8ee:    bf38        8.      IT       CC
        0x0000f8f0:    2001        .       MOVCC    r0,#1
        0x0000f8f2:    b002        ..      ADD      sp,sp,#8
        0x0000f8f4:    bdb0        ..      POP      {r4,r5,r7,pc}
    start_time
        0x0000f8f6:    b510        ..      PUSH     {r4,lr}
        0x0000f8f8:    f7fdfcd5    ....    BL       am_hal_systick_stop ; 0xd2a6
        0x0000f8fc:    f7fdfcc3    ....    BL       am_hal_systick_reset ; 0xd286
        0x0000f900:    f06f407f    o..@    MVN      r0,#0xff000000
        0x0000f904:    f06f447f    o..D    MVN      r4,#0xff000000
        0x0000f908:    f7fdfcb5    ....    BL       am_hal_systick_load ; 0xd276
        0x0000f90c:    f7fdfcaa    ....    BL       am_hal_systick_int_enable ; 0xd264
        0x0000f910:    f7fdf9fe    ....    BL       am_hal_interrupt_master_enable ; 0xcd10
        0x0000f914:    f7fdfcbe    ....    BL       am_hal_systick_start ; 0xd294
        0x0000f918:    f7fdfc9e    ....    BL       am_hal_systick_count ; 0xd258
        0x0000f91c:    f241618c    A..a    MOV      r1,#0x168c
        0x0000f920:    f2c10100    ....    MOVT     r1,#0x1000
        0x0000f924:    6809        .h      LDR      r1,[r1,#0]
        0x0000f926:    1a20         .      SUBS     r0,r4,r0
        0x0000f928:    0a0a        ..      LSRS     r2,r1,#8
        0x0000f92a:    eb106001    ...`    ADDS     r0,r0,r1,LSL #24
        0x0000f92e:    f1420100    B...    ADC      r1,r2,#0
        0x0000f932:    f24162a0    A..b    MOVW     r2,#0x16a0
        0x0000f936:    f2c10200    ....    MOVT     r2,#0x1000
        0x0000f93a:    e9c20100    ....    STRD     r0,r1,[r2,#0]
        0x0000f93e:    f24f0014    O...    MOV      r0,#0xf014
        0x0000f942:    f6c470ff    ...p    MOVT     r0,#0x4fff
        0x0000f946:    2101        .!      MOVS     r1,#1
        0x0000f948:    6001        .`      STR      r1,[r0,#0]
        0x0000f94a:    bd10        ..      POP      {r4,pc}
    stop_time
        0x0000f94c:    b580        ..      PUSH     {r7,lr}
        0x0000f94e:    f7fdfcaa    ....    BL       am_hal_systick_stop ; 0xd2a6
        0x0000f952:    f7fdfc81    ....    BL       am_hal_systick_count ; 0xd258
        0x0000f956:    f241628c    A..b    MOV      r2,#0x168c
        0x0000f95a:    f2c10200    ....    MOVT     r2,#0x1000
        0x0000f95e:    f06f417f    o..A    MVN      r1,#0xff000000
        0x0000f962:    6812        .h      LDR      r2,[r2,#0]
        0x0000f964:    1a08        ..      SUBS     r0,r1,r0
        0x0000f966:    0a11        ..      LSRS     r1,r2,#8
        0x0000f968:    eb106002    ...`    ADDS     r0,r0,r2,LSL #24
        0x0000f96c:    f24162a8    A..b    MOV      r2,#0x16a8
        0x0000f970:    f1410100    A...    ADC      r1,r1,#0
        0x0000f974:    f2c10200    ....    MOVT     r2,#0x1000
        0x0000f978:    e9c20100    ....    STRD     r0,r1,[r2,#0]
        0x0000f97c:    f24f0014    O...    MOV      r0,#0xf014
        0x0000f980:    f6c470ff    ...p    MOVT     r0,#0x4fff
        0x0000f984:    2100        .!      MOVS     r1,#0
        0x0000f986:    6001        .`      STR      r1,[r0,#0]
        0x0000f988:    bd80        ..      POP      {r7,pc}
        0x0000f98a:    0000        ..      MOVS     r0,r0
        0x0000f98c:    0000        ..      MOVS     r0,r0
        0x0000f98e:    0000        ..      MOVS     r0,r0
    time_in_secs
        0x0000f990:    b510        ..      PUSH     {r4,lr}
        0x0000f992:    f241517d    A.}Q    MOV      r1,#0x157d
        0x0000f996:    f2c10100    ....    MOVT     r1,#0x1000
        0x0000f99a:    780c        .x      LDRB     r4,[r1,#0]
        0x0000f99c:    f000faad    ....    BL       __aeabi_ui2d ; 0xfefa
        0x0000f9a0:    a207        ..      ADR      r2,{pc}+0x20 ; 0xf9c0
        0x0000f9a2:    2c01        .,      CMP      r4,#1
        0x0000f9a4:    bf08        ..      IT       EQ
        0x0000f9a6:    3208        .2      ADDEQ    r2,r2,#8
        0x0000f9a8:    ed920b00    ....    VLDR     d0,[r2,#0]
        0x0000f9ac:    ec532b10    S..+    VMOV     r2,r3,d0
        0x0000f9b0:    f000f8e0    ....    BL       __aeabi_ddiv ; 0xfb74
        0x0000f9b4:    ec410b10    A...    VMOV     d0,r0,r1
        0x0000f9b8:    bd10        ..      POP      {r4,pc}
        0x0000f9ba:    bf00        ..      NOP      
        0x0000f9bc:    bf00        ..      NOP      
        0x0000f9be:    bf00        ..      NOP      
    $d.4
        0x0000f9c0:    00000000    ....    DCD    0
        0x0000f9c4:    4186e360    `..A    DCD    1099359072
        0x0000f9c8:    00000000    ....    DCD    0
        0x0000f9cc:    4196e360    `..A    DCD    1100407648
    $t.13
    tx_queue_update
        0x0000f9d0:    e92d41f0    -..A    PUSH     {r4-r8,lr}
        0x0000f9d4:    b082        ..      SUB      sp,sp,#8
        0x0000f9d6:    6a45        Ej      LDR      r5,[r0,#0x24]
        0x0000f9d8:    f24c0800    L...    MOVW     r8,#0xc000
        0x0000f9dc:    4604        .F      MOV      r4,r0
        0x0000f9de:    f2c40801    ....    MOVT     r8,#0x4001
        0x0000f9e2:    f7fdf991    ....    BL       am_hal_interrupt_master_disable ; 0xcd08
        0x0000f9e6:    9000        ..      STR      r0,[sp,#0]
        0x0000f9e8:    eb083705    ...7    ADD      r7,r8,r5,LSL #12
        0x0000f9ec:    69b8        .i      LDR      r0,[r7,#0x18]
        0x0000f9ee:    0680        ..      LSLS     r0,r0,#26
        0x0000f9f0:    d416        ..      BMI      0xfa20 ; tx_queue_update + 80
        0x0000f9f2:    f104052c    ..,.    ADD      r5,r4,#0x2c
        0x0000f9f6:    f10d0607    ....    ADD      r6,sp,#7
        0x0000f9fa:    bf00        ..      NOP      
        0x0000f9fc:    4628        (F      MOV      r0,r5
        0x0000f9fe:    4631        1F      MOV      r1,r6
        0x0000fa00:    2201        ."      MOVS     r2,#1
        0x0000fa02:    f7fdfbcd    ....    BL       am_hal_queue_item_get ; 0xd1a0
        0x0000fa06:    b158        X.      CBZ      r0,0xfa20 ; tx_queue_update + 80
        0x0000fa08:    6a60        `j      LDR      r0,[r4,#0x24]
        0x0000fa0a:    f89d1007    ....    LDRB     r1,[sp,#7]
        0x0000fa0e:    eb083000    ...0    ADD      r0,r8,r0,LSL #12
        0x0000fa12:    6982        .i      LDR      r2,[r0,#0x18]
        0x0000fa14:    0692        ..      LSLS     r2,r2,#26
        0x0000fa16:    bf58        X.      IT       PL
        0x0000fa18:    6001        .`      STRPL    r1,[r0,#0]
        0x0000fa1a:    69b8        .i      LDR      r0,[r7,#0x18]
        0x0000fa1c:    0680        ..      LSLS     r0,r0,#26
        0x0000fa1e:    d5ed        ..      BPL      0xf9fc ; tx_queue_update + 44
        0x0000fa20:    9800        ..      LDR      r0,[sp,#0]
        0x0000fa22:    f7fdf979    ..y.    BL       am_hal_interrupt_master_set ; 0xcd18
        0x0000fa26:    b002        ..      ADD      sp,sp,#8
        0x0000fa28:    e8bd81f0    ....    POP      {r4-r8,pc}
    uint64_to_str
        0x0000fa2c:    b5f0        ..      PUSH     {r4-r7,lr}
        0x0000fa2e:    b087        ..      SUB      sp,sp,#0x1c
        0x0000fa30:    4614        .F      MOV      r4,r2
        0x0000fa32:    4605        .F      MOV      r5,r0
        0x0000fa34:    2000        .       MOVS     r0,#0
        0x0000fa36:    f10d0603    ....    ADD      r6,sp,#3
        0x0000fa3a:    bf00        ..      NOP      
        0x0000fa3c:    4607        .F      MOV      r7,r0
        0x0000fa3e:    4628        (F      MOV      r0,r5
        0x0000fa40:    f7feff7e    ..~.    BL       divu64_10 ; 0xe940
        0x0000fa44:    4602        .F      MOV      r2,r0
        0x0000fa46:    eb000080    ....    ADD      r0,r0,r0,LSL #2
        0x0000fa4a:    eba50040    ..@.    SUB      r0,r5,r0,LSL #1
        0x0000fa4e:    f1000330    ..0.    ADD      r3,r0,#0x30
        0x0000fa52:    1c78        x.      ADDS     r0,r7,#1
        0x0000fa54:    55f3        .U      STRB     r3,[r6,r7]
        0x0000fa56:    ea520701    R...    ORRS     r7,r2,r1
        0x0000fa5a:    4615        .F      MOV      r5,r2
        0x0000fa5c:    d1ee        ..      BNE      0xfa3c ; uint64_to_str + 16
        0x0000fa5e:    b16c        l.      CBZ      r4,0xfa7c ; uint64_to_str + 80
        0x0000fa60:    2801        .(      CMP      r0,#1
        0x0000fa62:    f8043b01    ...;    STRB     r3,[r4],#1
        0x0000fa66:    d007        ..      BEQ      0xfa78 ; uint64_to_str + 76
        0x0000fa68:    1eb1        ..      SUBS     r1,r6,#2
        0x0000fa6a:    4602        .F      MOV      r2,r0
        0x0000fa6c:    5c8b        .\      LDRB     r3,[r1,r2]
        0x0000fa6e:    3a01        .:      SUBS     r2,#1
        0x0000fa70:    2a01        .*      CMP      r2,#1
        0x0000fa72:    f8043b01    ...;    STRB     r3,[r4],#1
        0x0000fa76:    d1f9        ..      BNE      0xfa6c ; uint64_to_str + 64
        0x0000fa78:    2100        .!      MOVS     r1,#0
        0x0000fa7a:    7021        !p      STRB     r1,[r4,#0]
        0x0000fa7c:    b007        ..      ADD      sp,sp,#0x1c
        0x0000fa7e:    bdf0        ..      POP      {r4-r7,pc}
    write_nonblocking
        0x0000fa80:    b570        p.      PUSH     {r4-r6,lr}
        0x0000fa82:    b300        ..      CBZ      r0,0xfac6 ; write_nonblocking + 70
        0x0000fa84:    4605        .F      MOV      r5,r0
        0x0000fa86:    6800        .h      LDR      r0,[r0,#0]
        0x0000fa88:    461c        .F      MOV      r4,r3
        0x0000fa8a:    f6496306    I..c    MOV      r3,#0x9e06
        0x0000fa8e:    f020407e     .~@    BIC      r0,r0,#0xfe000000
        0x0000fa92:    f2c013ea    ....    MOVT     r3,#0x1ea
        0x0000fa96:    4298        .B      CMP      r0,r3
        0x0000fa98:    d115        ..      BNE      0xfac6 ; write_nonblocking + 70
        0x0000fa9a:    b10c        ..      CBZ      r4,0xfaa0 ; write_nonblocking + 32
        0x0000fa9c:    2000        .       MOVS     r0,#0
        0x0000fa9e:    6020         `      STR      r0,[r4,#0]
        0x0000faa0:    b33a        :.      CBZ      r2,0xfaf2 ; write_nonblocking + 114
        0x0000faa2:    f8950028    ..(.    LDRB     r0,[r5,#0x28]
        0x0000faa6:    b180        ..      CBZ      r0,0xfaca ; write_nonblocking + 74
        0x0000faa8:    6b6b        kk      LDR      r3,[r5,#0x34]
        0x0000faaa:    6bae        .k      LDR      r6,[r5,#0x38]
        0x0000faac:    f105002c    ..,.    ADD      r0,r5,#0x2c
        0x0000fab0:    1af6        ..      SUBS     r6,r6,r3
        0x0000fab2:    4296        .B      CMP      r6,r2
        0x0000fab4:    bf88        ..      IT       HI
        0x0000fab6:    4616        .F      MOVHI    r6,r2
        0x0000fab8:    4632        2F      MOV      r2,r6
        0x0000faba:    f7fdfb3d    ..=.    BL       am_hal_queue_item_add ; 0xd138
        0x0000fabe:    4628        (F      MOV      r0,r5
        0x0000fac0:    f7ffff86    ....    BL       tx_queue_update ; 0xf9d0
        0x0000fac4:    e013        ..      B        0xfaee ; write_nonblocking + 110
        0x0000fac6:    2002        .       MOVS     r0,#2
        0x0000fac8:    bd70        p.      POP      {r4-r6,pc}
        0x0000faca:    6a68        hj      LDR      r0,[r5,#0x24]
        0x0000facc:    f24c0300    L...    MOVW     r3,#0xc000
        0x0000fad0:    f2c40301    ....    MOVT     r3,#0x4001
        0x0000fad4:    eb033000    ...0    ADD      r0,r3,r0,LSL #12
        0x0000fad8:    2600        .&      MOVS     r6,#0
        0x0000fada:    bf00        ..      NOP      
        0x0000fadc:    6983        .i      LDR      r3,[r0,#0x18]
        0x0000fade:    069b        ..      LSLS     r3,r3,#26
        0x0000fae0:    d405        ..      BMI      0xfaee ; write_nonblocking + 110
        0x0000fae2:    5d8b        .]      LDRB     r3,[r1,r6]
        0x0000fae4:    3601        .6      ADDS     r6,#1
        0x0000fae6:    42b2        .B      CMP      r2,r6
        0x0000fae8:    6003        .`      STR      r3,[r0,#0]
        0x0000faea:    d1f7        ..      BNE      0xfadc ; write_nonblocking + 92
        0x0000faec:    4616        .F      MOV      r6,r2
        0x0000faee:    b104        ..      CBZ      r4,0xfaf2 ; write_nonblocking + 114
        0x0000faf0:    6026        &`      STR      r6,[r4,#0]
        0x0000faf2:    2000        .       MOVS     r0,#0
        0x0000faf4:    bd70        p.      POP      {r4-r6,pc}
        0x0000faf6:    0000        ..      MOVS     r0,r0
    $t
    x$fpl$d2f
    $v0
    __aeabi_d2f
    _d2f
        0x0000faf8:    f0214200    !..B    BIC      r2,r1,#0x80000000
        0x0000fafc:    f0014300    ...C    AND      r3,r1,#0x80000000
        0x0000fb00:    f1a25260    ..`R    SUB      r2,r2,#0x38000000
        0x0000fb04:    f5b21f80    ....    CMP      r2,#0x100000
        0x0000fb08:    bf28        (.      IT       CS
        0x0000fb0a:    f1d26c7f    ...l    RSBSCS   r12,r2,#0xff00000
        0x0000fb0e:    d90b        ..      BLS      0xfb28 ; __aeabi_d2f + 48
        0x0000fb10:    ea5f1c00    _...    LSLS     r12,r0,#4
        0x0000fb14:    ea4302c2    C...    ORR      r2,r3,r2,LSL #3
        0x0000fb18:    eb427050    B.Pp    ADC      r0,r2,r0,LSR #29
        0x0000fb1c:    bf18        ..      IT       NE
        0x0000fb1e:    4770        pG      BXNE     lr
        0x0000fb20:    bf28        (.      IT       CS
        0x0000fb22:    f0200001     ...    BICCS    r0,r0,#1
        0x0000fb26:    4770        pG      BX       lr
        0x0000fb28:    f5b21f80    ....    CMP      r2,#0x100000
        0x0000fb2c:    bfbc        ..      ITT      LT
        0x0000fb2e:    4618        .F      MOVLT    r0,r3
        0x0000fb30:    4770        pG      BXLT     lr
        0x0000fb32:    ea4f0c41    O.A.    LSL      r12,r1,#1
        0x0000fb36:    f51c1f00    ....    CMN      r12,#0x200000
        0x0000fb3a:    d202        ..      BCS      0xfb42 ; __aeabi_d2f + 74
        0x0000fb3c:    4608        .F      MOV      r0,r1
        0x0000fb3e:    f000bb63    ..c.    B.W      __fpl_fretinf ; 0x10208
        0x0000fb42:    b570        p.      PUSH     {r4-r6,lr}
        0x0000fb44:    f000fa64    ..d.    BL       __fpl_dnaninf ; 0x10010
    $d
        0x0000fb48:    89000000    ....    DCD    2298478592
    $t
        0x0000fb4c:    f7ffbff6    ....    B.W      0xfb3c ; __aeabi_d2f + 68
        0x0000fb50:    f04f4000    O..@    MOV      r0,#0x80000000
        0x0000fb54:    f5a00080    ....    SUB      r0,r0,#0x400000
        0x0000fb58:    4770        pG      BX       lr
    x$fpl$dcmpinf
    $v0
    __fpl_dcmp_Inf
        0x0000fb5a:    1049        I.      ASRS     r1,r1,#1
        0x0000fb5c:    bf58        X.      IT       PL
        0x0000fb5e:    f1c14140    ..@A    RSBPL    r1,r1,#0xc0000000
        0x0000fb62:    105b        [.      ASRS     r3,r3,#1
        0x0000fb64:    bf58        X.      IT       PL
        0x0000fb66:    f1c34340    ..@C    RSBPL    r3,r3,#0xc0000000
        0x0000fb6a:    428b        .B      CMP      r3,r1
        0x0000fb6c:    f3ef8000    ....    MRS      r0,APSR ; formerly CPSR
        0x0000fb70:    4770        pG      BX       lr
        0x0000fb72:    0000        ..      MOVS     r0,r0
    x$fpl$ddiv
    $v0
    __aeabi_ddiv
    _ddiv
        0x0000fb74:    e92d41c0    -..A    PUSH     {r6-r8,lr}
        0x0000fb78:    b430        0.      PUSH     {r4,r5}
    ddiv_entry
        0x0000fb7a:    f8dfc2a4    ....    LDR      r12,[pc,#676] ; [0xfe20] = 0x7ff0000
        0x0000fb7e:    ea3c1411    <...    BICS     r4,r12,r1,LSR #4
        0x0000fb82:    bf18        ..      IT       NE
        0x0000fb84:    ea3c1413    <...    BICSNE   r4,r12,r3,LSR #4
        0x0000fb88:    f00080ed    ....    BEQ.W    0xfd66 ; ddiv_entry + 492
        0x0000fb8c:    ea1c1411    ....    ANDS     r4,r12,r1,LSR #4
        0x0000fb90:    ea810503    ....    EOR      r5,r1,r3
        0x0000fb94:    ea4474d5    D..t    ORR      r4,r4,r5,LSR #31
        0x0000fb98:    bf18        ..      IT       NE
        0x0000fb9a:    ea1c1513    ....    ANDSNE   r5,r12,r3,LSR #4
        0x0000fb9e:    f00080c8    ....    BEQ.W    0xfd32 ; ddiv_entry + 440
        0x0000fba2:    eba40405    ....    SUB      r4,r4,r5
        0x0000fba6:    f104747f    ...t    ADD      r4,r4,#0x3fc0000
        0x0000fbaa:    f5043400    ...4    ADD      r4,r4,#0x20000
        0x0000fbae:    f04f4500    O..E    MOV      r5,#0x80000000
        0x0000fbb2:    ea4521c1    E..!    ORR      r1,r5,r1,LSL #11
        0x0000fbb6:    ea4523c3    E..#    ORR      r3,r5,r3,LSL #11
        0x0000fbba:    ea415150    A.PQ    ORR      r1,r1,r0,LSR #21
        0x0000fbbe:    ea435352    C.RS    ORR      r3,r3,r2,LSR #21
        0x0000fbc2:    ea4f20c0    O..     LSL      r0,r0,#11
        0x0000fbc6:    ea4f22c2    O.."    LSL      r2,r2,#11
        0x0000fbca:    4299        .B      CMP      r1,r3
        0x0000fbcc:    bf08        ..      IT       EQ
        0x0000fbce:    4290        .B      CMPEQ    r0,r2
        0x0000fbd0:    f000809d    ....    BEQ.W    0xfd0e ; ddiv_entry + 404
        0x0000fbd4:    ea4f6513    O..e    LSR      r5,r3,#24
        0x0000fbd8:    f20f1644    ..D.    ADR.W    r6,{pc}+0x148 ; 0xfd20
        0x0000fbdc:    5d76        v]      LDRB     r6,[r6,r5]
        0x0000fbde:    ea4f4513    O..E    LSR      r5,r3,#16
        0x0000fbe2:    fb06f705    ....    MUL      r7,r6,r5
        0x0000fbe6:    f1c77780    ...w    RSB      r7,r7,#0x1000000
        0x0000fbea:    fb06f707    ....    MUL      r7,r6,r7
        0x0000fbee:    ea4f37d7    O..7    LSR      r7,r7,#15
        0x0000fbf2:    fba76803    ...h    UMULL    r6,r8,r7,r3
        0x0000fbf6:    4276        vB      RSBS     r6,r6,#0
        0x0000fbf8:    fba7ce06    ....    UMULL    r12,lr,r7,r6
        0x0000fbfc:    f5c83880    ...8    RSB      r8,r8,#0x10000
        0x0000fc00:    bf38        8.      IT       CC
        0x0000fc02:    f1a80801    ....    SUBCC    r8,r8,#1
        0x0000fc06:    fb07e608    ....    MLA      r6,r7,r8,lr
        0x0000fc0a:    fba68c02    ....    UMULL    r8,r12,r6,r2
        0x0000fc0e:    f04f0e00    O...    MOV      lr,#0
        0x0000fc12:    fbe6ce03    ....    UMLAL    r12,lr,r6,r3
        0x0000fc16:    f1dc0c00    ....    RSBS     r12,r12,#0
        0x0000fc1a:    f1ce4e00    ...N    RSB      lr,lr,#0x80000000
        0x0000fc1e:    bf38        8.      IT       CC
        0x0000fc20:    f1ae0e01    ....    SUBCC    lr,lr,#1
        0x0000fc24:    fba6580c    ...X    UMULL    r5,r8,r6,r12
        0x0000fc28:    f04f0700    O...    MOV      r7,#0
        0x0000fc2c:    fbe6870e    ....    UMLAL    r8,r7,r6,lr
        0x0000fc30:    fba1c608    ....    UMULL    r12,r6,r1,r8
        0x0000fc34:    fba0ce07    ....    UMULL    r12,lr,r0,r7
        0x0000fc38:    eb16060e    ....    ADDS     r6,r6,lr
        0x0000fc3c:    f04f0500    O...    MOV      r5,#0
        0x0000fc40:    f1450500    E...    ADC      r5,r5,#0
        0x0000fc44:    fbe16507    ...e    UMLAL    r6,r5,r1,r7
        0x0000fc48:    f1154ee0    ...N    ADDS     lr,r5,#0x70000000
        0x0000fc4c:    bf7e        ~.      ITTT     VC
        0x0000fc4e:    f5a43480    ...4    SUBVC    r4,r4,#0x10000
        0x0000fc52:    ea5f0646    _.F.    LSLSVC   r6,r6,#1
        0x0000fc56:    416d        mA      ADCVC    r5,r5,r5
        0x0000fc58:    f1160780    ....    ADDS     r7,r6,#0x80
        0x0000fc5c:    f1450500    E...    ADC      r5,r5,#0
        0x0000fc60:    ea4f2717    O..'    LSR      r7,r7,#8
        0x0000fc64:    ea476705    G..g    ORR      r7,r7,r5,LSL #24
        0x0000fc68:    ea4f2515    O..%    LSR      r5,r5,#8
        0x0000fc6c:    ea4f6606    O..f    LSL      r6,r6,#24
        0x0000fc70:    f1a646de    ...F    SUB      r6,r6,#0x6f000000
        0x0000fc74:    f1b65f80    ..._    CMP      r6,#0x10000000
        0x0000fc78:    d920         .      BLS      0xfcbc ; ddiv_entry + 322
        0x0000fc7a:    4638        8F      MOV      r0,r7
        0x0000fc7c:    eb0571c4    ...q    ADD      r1,r5,r4,LSL #31
        0x0000fc80:    f0240c01    $...    BIC      r12,r4,#1
        0x0000fc84:    eb01110c    ....    ADD      r1,r1,r12,LSL #4
        0x0000fc88:    f1bc6ffe    ...o    CMP      r12,#0x7f00000
        0x0000fc8c:    d802        ..      BHI      0xfc94 ; ddiv_entry + 282
        0x0000fc8e:    bcf0        ..      POP      {r4-r7}
        0x0000fc90:    e8bd8100    ....    POP      {r8,pc}
        0x0000fc94:    4224        $B      TST      r4,r4
        0x0000fc96:    bf5c        \.      ITT      PL
        0x0000fc98:    f5011e80    ....    ADDPL    lr,r1,#0x100000
        0x0000fc9c:    ea9e7fc4    ....    TEQPL    lr,r4,LSL #31
        0x0000fca0:    d402        ..      BMI      0xfca8 ; ddiv_entry + 302
        0x0000fca2:    bcf0        ..      POP      {r4-r7}
        0x0000fca4:    e8bd8100    ....    POP      {r8,pc}
        0x0000fca8:    4224        $B      TST      r4,r4
        0x0000fcaa:    f1008039    ..9.    BMI.W    0xfd20 ; ddiv_entry + 422
        0x0000fcae:    f1a141c0    ...A    SUB      r1,r1,#0x60000000
        0x0000fcb2:    bcf0        ..      POP      {r4-r7}
        0x0000fcb4:    e8bd4100    ...A    POP      {r8,lr}
        0x0000fcb8:    f000b9f8    ....    B.W      __fpl_dretinf ; 0x100ac
        0x0000fcbc:    ea4f20d0    O..     LSR      r0,r0,#11
        0x0000fcc0:    ea405041    @.AP    ORR      r0,r0,r1,LSL #21
        0x0000fcc4:    ea4f21d1    O..!    LSR      r1,r1,#11
        0x0000fcc8:    ea4f22d2    O.."    LSR      r2,r2,#11
        0x0000fccc:    ea425243    B.CR    ORR      r2,r2,r3,LSL #21
        0x0000fcd0:    ea4f23d3    O..#    LSR      r3,r3,#11
        0x0000fcd4:    fba78602    ....    UMULL    r8,r6,r7,r2
        0x0000fcd8:    fb076603    ...f    MLA      r6,r7,r3,r6
        0x0000fcdc:    fb056602    ...f    MLA      r6,r5,r2,r6
        0x0000fce0:    ea1e0f0e    ....    TST      lr,lr
        0x0000fce4:    bf58        X.      IT       PL
        0x0000fce6:    eba65600    ...V    SUBPL    r6,r6,r0,LSL #20
        0x0000fcea:    ebb65600    ...V    SUBS     r6,r6,r0,LSL #20
        0x0000fcee:    ea4f0e52    O.R.    LSR      lr,r2,#1
        0x0000fcf2:    ea4e7ec3    N..~    ORR      lr,lr,r3,LSL #31
        0x0000fcf6:    eb180e0e    ....    ADDS     lr,r8,lr
        0x0000fcfa:    eb560e53    V.S.    ADCS     lr,r6,r3,LSR #1
        0x0000fcfe:    d5bc        ..      BPL      0xfc7a ; ddiv_entry + 256
        0x0000fd00:    eb180802    ....    ADDS     r8,r8,r2
        0x0000fd04:    415e        ^A      ADCS     r6,r6,r3
        0x0000fd06:    1c7f        ..      ADDS     r7,r7,#1
        0x0000fd08:    f1550500    U...    ADCS     r5,r5,#0
        0x0000fd0c:    e7b5        ..      B        0xfc7a ; ddiv_entry + 256
        0x0000fd0e:    f44f1580    O...    MOV      r5,#0x100000
        0x0000fd12:    f04f0700    O...    MOV      r7,#0
        0x0000fd16:    f04f0600    O...    MOV      r6,#0
        0x0000fd1a:    f04f0800    O...    MOV      r8,#0
        0x0000fd1e:    e7ac        ..      B        0xfc7a ; ddiv_entry + 256
        0x0000fd20:    f10141c0    ...A    ADD      r1,r1,#0x60000000
        0x0000fd24:    f0014100    ...A    AND      r1,r1,#0x80000000
        0x0000fd28:    f04f0000    O...    MOV      r0,#0
        0x0000fd2c:    bcf0        ..      POP      {r4-r7}
        0x0000fd2e:    e8bd8100    ....    POP      {r8,pc}
        0x0000fd32:    ea0c1513    ....    AND      r5,r12,r3,LSR #4
        0x0000fd36:    ea111f0c    ....    TST      r1,r12,LSL #4
        0x0000fd3a:    d000        ..      BEQ      0xfd3e ; ddiv_entry + 452
        0x0000fd3c:    e00c        ..      B        0xfd58 ; ddiv_entry + 478
        0x0000fd3e:    ea131f0c    ....    TST      r3,r12,LSL #4
        0x0000fd42:    f0008026    ..&.    BEQ.W    0xfd92 ; ddiv_entry + 536
        0x0000fd46:    f04f0000    O...    MOV      r0,#0
        0x0000fd4a:    ea810103    ....    EOR      r1,r1,r3
        0x0000fd4e:    f0014100    ...A    AND      r1,r1,#0x80000000
        0x0000fd52:    bcf0        ..      POP      {r4-r7}
        0x0000fd54:    e8bd8100    ....    POP      {r8,pc}
        0x0000fd58:    bcf0        ..      POP      {r4-r7}
        0x0000fd5a:    e8bd4100    ...A    POP      {r8,lr}
        0x0000fd5e:    ea810103    ....    EOR      r1,r1,r3
        0x0000fd62:    f000b9a3    ....    B.W      __fpl_dretinf ; 0x100ac
        0x0000fd66:    bcf0        ..      POP      {r4-r7}
        0x0000fd68:    e8bd4100    ...A    POP      {r8,lr}
        0x0000fd6c:    b570        p.      PUSH     {r4-r6,lr}
        0x0000fd6e:    f000f94f    ..O.    BL       __fpl_dnaninf ; 0x10010
        0x0000fd72:    bf00        ..      NOP      
    $d
        0x0000fd74:    3efc7e09    .~.>    DCD    1056734729
    $t
        0x0000fd78:    f000b807    ....    B.W      0xfd8a ; ddiv_entry + 528
        0x0000fd7c:    f04f0000    O...    MOV      r0,#0
        0x0000fd80:    ea810103    ....    EOR      r1,r1,r3
        0x0000fd84:    f0014100    ...A    AND      r1,r1,#0x80000000
        0x0000fd88:    4770        pG      BX       lr
        0x0000fd8a:    ea810103    ....    EOR      r1,r1,r3
        0x0000fd8e:    f000b98d    ....    B.W      __fpl_dretinf ; 0x100ac
        0x0000fd92:    bcf0        ..      POP      {r4-r7}
        0x0000fd94:    e8bd4100    ...A    POP      {r8,lr}
        0x0000fd98:    4922        "I      LDR      r1,[pc,#136] ; [0xfe24] = 0x7ff80000
        0x0000fd9a:    f04f0000    O...    MOV      r0,#0
        0x0000fd9e:    4770        pG      BX       lr
    $d
        0x0000fda0:    f9fbfdff    ....    DCD    4194041343
        0x0000fda4:    f2f4f5f7    ....    DCD    4076140023
        0x0000fda8:    ebedeef0    ....    DCD    3958238960
        0x0000fdac:    e4e6e8e9    ....    DCD    3840338153
        0x0000fdb0:    dee0e1e3    ....    DCD    3739279843
        0x0000fdb4:    d8dadbdd    ....    DCD    3638221789
        0x0000fdb8:    d3d4d5d7    ....    DCD    3553940951
        0x0000fdbc:    cdcfd0d1    ....    DCD    3452948689
        0x0000fdc0:    c8cacbcc    ....    DCD    3368733644
        0x0000fdc4:    c4c5c6c7    ....    DCD    3301295815
        0x0000fdc8:    bfc0c1c2    ....    DCD    3217080770
        0x0000fdcc:    bbbcbdbe    ....    DCD    3149708734
        0x0000fdd0:    b7b8b9ba    ....    DCD    3082336698
        0x0000fdd4:    b3b4b5b6    ....    DCD    3014964662
        0x0000fdd8:    afb0b1b2    ....    DCD    2947592626
        0x0000fddc:    abacadae    ....    DCD    2880220590
        0x0000fde0:    a8a8a9aa    ....    DCD    2829625770
        0x0000fde4:    a4a5a6a7    ....    DCD    2762319527
        0x0000fde8:    a1a2a3a3    ....    DCD    2711790499
        0x0000fdec:    9e9f9fa0    ....    DCD    2661261216
        0x0000fdf0:    9b9c9c9d    ....    DCD    2610732189
        0x0000fdf4:    9899999a    ....    DCD    2560203162
        0x0000fdf8:    95969797    ....    DCD    2509674391
        0x0000fdfc:    93939495    ....    DCD    2475922581
        0x0000fe00:    90919192    ....    DCD    2425459090
        0x0000fe04:    8e8e8f8f    ....    DCD    2391707535
        0x0000fe08:    8b8c8c8d    ....    DCD    2341244045
        0x0000fe0c:    89898a8b    ....    DCD    2307492491
        0x0000fe10:    87878888    ....    DCD    2273806472
        0x0000fe14:    84858586    ....    DCD    2223342982
        0x0000fe18:    82838384    ....    DCD    2189656964
        0x0000fe1c:    80818182    ....    DCD    2155970946
        0x0000fe20:    07ff0000    ....    DCD    134152192
        0x0000fe24:    7ff80000    ....    DCD    2146959360
    $t
    x$fpl$deqf
    $v0
    __aeabi_cdcmpeq
    _dcmpeq
        0x0000fe28:    ea510c03    Q...    ORRS     r12,r1,r3
        0x0000fe2c:    d417        ..      BMI      0xfe5e ; __aeabi_cdcmpeq + 54
        0x0000fe2e:    f51c1f80    ....    CMN      r12,#0x100000
        0x0000fe32:    bf58        X.      IT       PL
        0x0000fe34:    f5bc1f80    ....    CMPPL    r12,#0x100000
        0x0000fe38:    f1008006    ....    BMI.W    0xfe48 ; __aeabi_cdcmpeq + 32
        0x0000fe3c:    4299        .B      CMP      r1,r3
        0x0000fe3e:    bf18        ..      IT       NE
        0x0000fe40:    4770        pG      BXNE     lr
        0x0000fe42:    bf08        ..      IT       EQ
        0x0000fe44:    4290        .B      CMPEQ    r0,r2
        0x0000fe46:    4770        pG      BX       lr
        0x0000fe48:    d707        ..      BVC      0xfe5a ; __aeabi_cdcmpeq + 50
        0x0000fe4a:    f5111f80    ....    CMN      r1,#0x100000
        0x0000fe4e:    bf58        X.      IT       PL
        0x0000fe50:    f5131f80    ....    CMNPL    r3,#0x100000
        0x0000fe54:    d419        ..      BMI      0xfe8a ; __aeabi_cdcmpeq + 98
        0x0000fe56:    4299        .B      CMP      r1,r3
        0x0000fe58:    4770        pG      BX       lr
        0x0000fe5a:    4289        .B      CMP      r1,r1
        0x0000fe5c:    4770        pG      BX       lr
        0x0000fe5e:    f51c1f80    ....    CMN      r12,#0x100000
        0x0000fe62:    d508        ..      BPL      0xfe76 ; __aeabi_cdcmpeq + 78
        0x0000fe64:    f5bc1f80    ....    CMP      r12,#0x100000
        0x0000fe68:    d5f7        ..      BPL      0xfe5a ; __aeabi_cdcmpeq + 50
        0x0000fe6a:    428b        .B      CMP      r3,r1
        0x0000fe6c:    bf18        ..      IT       NE
        0x0000fe6e:    4770        pG      BXNE     lr
        0x0000fe70:    bf08        ..      IT       EQ
        0x0000fe72:    4282        .B      CMPEQ    r2,r0
        0x0000fe74:    4770        pG      BX       lr
        0x0000fe76:    f44f1c00    O...    MOV      r12,#0x200000
        0x0000fe7a:    eb1c0f41    ..A.    CMN      r12,r1,LSL #1
        0x0000fe7e:    bf38        8.      IT       CC
        0x0000fe80:    eb1c0f43    ..C.    CMNCC    r12,r3,LSL #1
        0x0000fe84:    d201        ..      BCS      0xfe8a ; __aeabi_cdcmpeq + 98
        0x0000fe86:    428b        .B      CMP      r3,r1
        0x0000fe88:    4770        pG      BX       lr
        0x0000fe8a:    b570        p.      PUSH     {r4-r6,lr}
        0x0000fe8c:    f000f8c0    ....    BL       __fpl_dnaninf ; 0x10010
    $d
        0x0000fe90:    00492492    .$I.    DCD    4793490
    $t
        0x0000fe94:    f04f5100    O..Q    MOV      r1,#0x20000000
        0x0000fe98:    f04f5380    O..S    MOV      r3,#0x10000000
        0x0000fe9c:    f7ffbe5d    ..].    B.W      __fpl_dcmp_Inf ; 0xfb5a
    x$fpl$dfixu
    $v0
    __aeabi_d2uiz
    _dfixu
        0x0000fea0:    ea4f5311    O..S    LSR      r3,r1,#20
        0x0000fea4:    f5a36380    ...c    SUB      r3,r3,#0x400
        0x0000fea8:    f1d3031e    ....    RSBS     r3,r3,#0x1e
        0x0000feac:    bfa8        ..      IT       GE
        0x0000feae:    f1d30c20    .. .    RSBSGE   r12,r3,#0x20
        0x0000feb2:    db08        ..      BLT      0xfec6 ; __aeabi_d2uiz + 38
        0x0000feb4:    f04f4200    O..B    MOV      r2,#0x80000000
        0x0000feb8:    ea4222c1    B.."    ORR      r2,r2,r1,LSL #11
        0x0000febc:    ea525250    R.PR    ORRS     r2,r2,r0,LSR #21
        0x0000fec0:    fa32f003    2...    LSRS     r0,r2,r3
        0x0000fec4:    4770        pG      BX       lr
        0x0000fec6:    4209        .B      TST      r1,r1
        0x0000fec8:    d40b        ..      BMI      0xfee2 ; __aeabi_d2uiz + 66
        0x0000feca:    2b10        .+      CMP      r3,#0x10
        0x0000fecc:    bfc4        ..      ITT      GT
        0x0000fece:    2000        .       MOVGT    r0,#0
        0x0000fed0:    4770        pG      BXGT     lr
        0x0000fed2:    f5037c78    ..x|    ADD      r12,r3,#0x3e0
        0x0000fed6:    f1bc3fff    ...?    CMP      r12,#0xffffffff
        0x0000feda:    d005        ..      BEQ      0xfee8 ; __aeabi_d2uiz + 72
        0x0000fedc:    f04f30ff    O..0    MOV      r0,#0xffffffff
        0x0000fee0:    4770        pG      BX       lr
        0x0000fee2:    f04f0000    O...    MOV      r0,#0
        0x0000fee6:    4770        pG      BX       lr
        0x0000fee8:    b570        p.      PUSH     {r4-r6,lr}
        0x0000feea:    f000f891    ....    BL       __fpl_dnaninf ; 0x10010
        0x0000feee:    bf00        ..      NOP      
    $d
        0x0000fef0:    80249249    I.$.    DCD    2149880393
    $t
        0x0000fef4:    2000        .       MOVS     r0,#0
        0x0000fef6:    4770        pG      BX       lr
        0x0000fef8:    e7f0        ..      B        0xfedc ; __aeabi_d2uiz + 60
    x$fpl$dfltu
    $v0
    __aeabi_ui2d
    _dfltu
        0x0000fefa:    fab0f380    ....    CLZ      r3,r0
        0x0000fefe:    fa10f103    ....    LSLS     r1,r0,r3
        0x0000ff02:    d00a        ..      BEQ      0xff1a ; __aeabi_ui2d + 32
        0x0000ff04:    f1c3031d    ....    RSB      r3,r3,#0x1d
        0x0000ff08:    f5036380    ...c    ADD      r3,r3,#0x400
        0x0000ff0c:    ea4f5203    O..R    LSL      r2,r3,#20
        0x0000ff10:    ea4f5041    O.AP    LSL      r0,r1,#21
        0x0000ff14:    eb0221d1    ...!    ADD      r1,r2,r1,LSR #11
        0x0000ff18:    4770        pG      BX       lr
        0x0000ff1a:    f04f0000    O...    MOV      r0,#0
        0x0000ff1e:    4770        pG      BX       lr
    x$fpl$dgeqf
    $v0
    __aeabi_cdcmpge
    _dcmpge
        0x0000ff20:    ea510c03    Q...    ORRS     r12,r1,r3
        0x0000ff24:    d417        ..      BMI      0xff56 ; __aeabi_cdcmpge + 54
        0x0000ff26:    f51c1f80    ....    CMN      r12,#0x100000
        0x0000ff2a:    bf58        X.      IT       PL
        0x0000ff2c:    f5bc1f80    ....    CMPPL    r12,#0x100000
        0x0000ff30:    f1008006    ....    BMI.W    0xff40 ; __aeabi_cdcmpge + 32
        0x0000ff34:    4299        .B      CMP      r1,r3
        0x0000ff36:    bf18        ..      IT       NE
        0x0000ff38:    4770        pG      BXNE     lr
        0x0000ff3a:    bf08        ..      IT       EQ
        0x0000ff3c:    4290        .B      CMPEQ    r0,r2
        0x0000ff3e:    4770        pG      BX       lr
        0x0000ff40:    d707        ..      BVC      0xff52 ; __aeabi_cdcmpge + 50
        0x0000ff42:    f5111f80    ....    CMN      r1,#0x100000
        0x0000ff46:    bf58        X.      IT       PL
        0x0000ff48:    f5131f80    ....    CMNPL    r3,#0x100000
        0x0000ff4c:    d419        ..      BMI      0xff82 ; __aeabi_cdcmpge + 98
        0x0000ff4e:    4299        .B      CMP      r1,r3
        0x0000ff50:    4770        pG      BX       lr
        0x0000ff52:    4289        .B      CMP      r1,r1
        0x0000ff54:    4770        pG      BX       lr
        0x0000ff56:    f51c1f80    ....    CMN      r12,#0x100000
        0x0000ff5a:    d508        ..      BPL      0xff6e ; __aeabi_cdcmpge + 78
        0x0000ff5c:    f5bc1f80    ....    CMP      r12,#0x100000
        0x0000ff60:    d5f7        ..      BPL      0xff52 ; __aeabi_cdcmpge + 50
        0x0000ff62:    428b        .B      CMP      r3,r1
        0x0000ff64:    bf18        ..      IT       NE
        0x0000ff66:    4770        pG      BXNE     lr
        0x0000ff68:    bf08        ..      IT       EQ
        0x0000ff6a:    4282        .B      CMPEQ    r2,r0
        0x0000ff6c:    4770        pG      BX       lr
        0x0000ff6e:    f44f1c00    O...    MOV      r12,#0x200000
        0x0000ff72:    eb1c0f41    ..A.    CMN      r12,r1,LSL #1
        0x0000ff76:    bf38        8.      IT       CC
        0x0000ff78:    eb1c0f43    ..C.    CMNCC    r12,r3,LSL #1
        0x0000ff7c:    d201        ..      BCS      0xff82 ; __aeabi_cdcmpge + 98
        0x0000ff7e:    428b        .B      CMP      r3,r1
        0x0000ff80:    4770        pG      BX       lr
        0x0000ff82:    b570        p.      PUSH     {r4-r6,lr}
        0x0000ff84:    f000f844    ..D.    BL       __fpl_dnaninf ; 0x10010
    $d
        0x0000ff88:    00492492    .$I.    DCD    4793490
    $t
        0x0000ff8c:    f04f5180    O..Q    MOV      r1,#0x10000000
        0x0000ff90:    f04f5300    O..S    MOV      r3,#0x20000000
        0x0000ff94:    f7ffbde1    ....    B.W      __fpl_dcmp_Inf ; 0xfb5a
    x$fpl$dleqf
    $v0
    __aeabi_cdcmple
    _dcmple
        0x0000ff98:    ea510c03    Q...    ORRS     r12,r1,r3
        0x0000ff9c:    d417        ..      BMI      0xffce ; __aeabi_cdcmple + 54
        0x0000ff9e:    f51c1f80    ....    CMN      r12,#0x100000
        0x0000ffa2:    bf58        X.      IT       PL
        0x0000ffa4:    f5bc1f80    ....    CMPPL    r12,#0x100000
        0x0000ffa8:    f1008006    ....    BMI.W    0xffb8 ; __aeabi_cdcmple + 32
        0x0000ffac:    4299        .B      CMP      r1,r3
        0x0000ffae:    bf18        ..      IT       NE
        0x0000ffb0:    4770        pG      BXNE     lr
        0x0000ffb2:    bf08        ..      IT       EQ
        0x0000ffb4:    4290        .B      CMPEQ    r0,r2
        0x0000ffb6:    4770        pG      BX       lr
        0x0000ffb8:    d707        ..      BVC      0xffca ; __aeabi_cdcmple + 50
        0x0000ffba:    f5111f80    ....    CMN      r1,#0x100000
        0x0000ffbe:    bf58        X.      IT       PL
        0x0000ffc0:    f5131f80    ....    CMNPL    r3,#0x100000
        0x0000ffc4:    d419        ..      BMI      __fpl_dcmple_InfNaN ; 0xfffa
        0x0000ffc6:    4299        .B      CMP      r1,r3
        0x0000ffc8:    4770        pG      BX       lr
        0x0000ffca:    4289        .B      CMP      r1,r1
        0x0000ffcc:    4770        pG      BX       lr
        0x0000ffce:    f51c1f80    ....    CMN      r12,#0x100000
        0x0000ffd2:    d508        ..      BPL      0xffe6 ; __aeabi_cdcmple + 78
        0x0000ffd4:    f5bc1f80    ....    CMP      r12,#0x100000
        0x0000ffd8:    d5f7        ..      BPL      0xffca ; __aeabi_cdcmple + 50
        0x0000ffda:    428b        .B      CMP      r3,r1
        0x0000ffdc:    bf18        ..      IT       NE
        0x0000ffde:    4770        pG      BXNE     lr
        0x0000ffe0:    bf08        ..      IT       EQ
        0x0000ffe2:    4282        .B      CMPEQ    r2,r0
        0x0000ffe4:    4770        pG      BX       lr
        0x0000ffe6:    f44f1c00    O...    MOV      r12,#0x200000
        0x0000ffea:    eb1c0f41    ..A.    CMN      r12,r1,LSL #1
        0x0000ffee:    bf38        8.      IT       CC
        0x0000fff0:    eb1c0f43    ..C.    CMNCC    r12,r3,LSL #1
        0x0000fff4:    d201        ..      BCS      __fpl_dcmple_InfNaN ; 0xfffa
        0x0000fff6:    428b        .B      CMP      r3,r1
        0x0000fff8:    4770        pG      BX       lr
    __fpl_dcmple_InfNaN
        0x0000fffa:    b570        p.      PUSH     {r4-r6,lr}
        0x0000fffc:    f000f808    ....    BL       __fpl_dnaninf ; 0x10010
    $d
        0x00010000:    00492492    .$I.    DCD    4793490
    $t
        0x00010004:    f04f5100    O..Q    MOV      r1,#0x20000000
        0x00010008:    f04f5380    O..S    MOV      r3,#0x10000000
        0x0001000c:    f7ffbda5    ....    B.W      __fpl_dcmp_Inf ; 0xfb5a
    x$fpl$dnaninf
    $v0
    __fpl_dnaninf
        0x00010010:    f10e0e02    ....    ADD      lr,lr,#2
        0x00010014:    f02e0e03    ....    BIC      lr,lr,#3
        0x00010018:    f85e6b04    ^..k    LDR      r6,[lr],#4
        0x0001001c:    4236        6B      TST      r6,r6
        0x0001001e:    d405        ..      BMI      0x1002c ; __fpl_dnaninf + 28
        0x00010020:    2a01        .*      CMP      r2,#1
        0x00010022:    eb430503    C...    ADC      r5,r3,r3
        0x00010026:    f5151f00    ....    CMN      r5,#0x200000
        0x0001002a:    d812        ..      BHI      0x10052 ; __fpl_dnaninf + 66
        0x0001002c:    2801        .(      CMP      r0,#1
        0x0001002e:    eb410c01    A...    ADC      r12,r1,r1
        0x00010032:    f51c1f00    ....    CMN      r12,#0x200000
        0x00010036:    d80c        ..      BHI      0x10052 ; __fpl_dnaninf + 66
        0x00010038:    d10e        ..      BNE      0x10058 ; __fpl_dnaninf + 72
        0x0001003a:    ea4f7cd1    O..|    LSR      r12,r1,#31
        0x0001003e:    eb0c0c4c    ..L.    ADD      r12,r12,r12,LSL #1
        0x00010042:    f10c0c02    ....    ADD      r12,r12,#2
        0x00010046:    f5151f00    ....    CMN      r5,#0x200000
        0x0001004a:    bf08        ..      IT       EQ
        0x0001004c:    eb4c7cd3    L..|    ADCEQ    r12,r12,r3,LSR #31
        0x00010050:    e004        ..      B        0x1005c ; __fpl_dnaninf + 76
        0x00010052:    f04f0c08    O...    MOV      r12,#8
        0x00010056:    e001        ..      B        0x1005c ; __fpl_dnaninf + 76
        0x00010058:    ea4f7cd3    O..|    LSR      r12,r3,#31
        0x0001005c:    eb0c054c    ..L.    ADD      r5,r12,r12,LSL #1
        0x00010060:    fa26f605    &...    LSR      r6,r6,r5
        0x00010064:    f0060607    ....    AND      r6,r6,#7
        0x00010068:    f1b60c04    ....    SUBS     r12,r6,#4
        0x0001006c:    d206        ..      BCS      0x1007c ; __fpl_dnaninf + 108
        0x0001006e:    eb0e0c86    ....    ADD      r12,lr,r6,LSL #2
        0x00010072:    e8bd4070    ..p@    POP      {r4-r6,lr}
        0x00010076:    f04c0c01    L...    ORR      r12,r12,#1
        0x0001007a:    4760        `G      BX       r12
        0x0001007c:    e8dff00c    ....    TBB      [pc,r12]
    $d
        0x00010080:    02020b09    ....    DCD    33688329
    $t
        0x00010084:    f04f4100    O..A    MOV      r1,#0x80000000
        0x00010088:    f5a12100    ...!    SUB      r1,r1,#0x80000
        0x0001008c:    f04f0000    O...    MOV      r0,#0
        0x00010090:    bd70        p.      POP      {r4-r6,pc}
        0x00010092:    4619        .F      MOV      r1,r3
        0x00010094:    4610        .F      MOV      r0,r2
        0x00010096:    2801        .(      CMP      r0,#1
        0x00010098:    eb510401    Q...    ADCS     r4,r1,r1
        0x0001009c:    bf18        ..      IT       NE
        0x0001009e:    f5d41400    ....    RSBSNE   r4,r4,#0x200000
        0x000100a2:    bf84        ..      ITT      HI
        0x000100a4:    2000        .       MOVHI    r0,#0
        0x000100a6:    f0014100    ...A    ANDHI    r1,r1,#0x80000000
        0x000100aa:    bd70        p.      POP      {r4-r6,pc}
    x$fpl$dretinf
    $v0
    __fpl_dretinf
        0x000100ac:    0808        ..      LSRS     r0,r1,#32
        0x000100ae:    f5a01100    ....    SUB      r1,r0,#0x200000
        0x000100b2:    ea4f0131    O.1.    RRX      r1,r1
        0x000100b6:    4770        pG      BX       lr
    x$fpl$f2d
    $v0
    __aeabi_f2d
    _f2d
        0x000100b8:    0043        C.      LSLS     r3,r0,#1
        0x000100ba:    ea4f0cd3    O...    LSR      r12,r3,#3
        0x000100be:    ea4f0c3c    O.<.    RRX      r12,r12
        0x000100c2:    4043        C@      EORS     r3,r3,r0
        0x000100c4:    bf1f        ..      ITTTT    NE
        0x000100c6:    0740        @.      LSLNE    r0,r0,#29
        0x000100c8:    f10c5160    ..`Q    ADDNE    r1,r12,#0x38000000
        0x000100cc:    f0134ffe    ...O    TSTNE    r3,#0x7f000000
        0x000100d0:    4770        pG      BXNE     lr
        0x000100d2:    f01c6f00    ...o    TST      r12,#0x8000000
        0x000100d6:    d103        ..      BNE      0x100e0 ; __aeabi_f2d + 40
        0x000100d8:    f00c4100    ...A    AND      r1,r12,#0x80000000
        0x000100dc:    2000        .       MOVS     r0,#0
        0x000100de:    4770        pG      BX       lr
        0x000100e0:    f00c4300    ...C    AND      r3,r12,#0x80000000
        0x000100e4:    ea437050    C.Pp    ORR      r0,r3,r0,LSR #29
        0x000100e8:    ea4000cc    @...    ORR      r0,r0,r12,LSL #3
        0x000100ec:    b510        ..      PUSH     {r4,lr}
        0x000100ee:    f000f838    ..8.    BL       __fpl_fnaninf ; 0x10162
        0x000100f2:    bf00        ..      NOP      
    $d
        0x000100f4:    92000000    ....    DCD    2449473536
    $t
        0x000100f8:    ea4f0100    O...    MOV.W    r1,r0
        0x000100fc:    f7ffbfd6    ....    B.W      __fpl_dretinf ; 0x100ac
        0x00010100:    f04f4100    O..A    MOV      r1,#0x80000000
        0x00010104:    f5a12100    ...!    SUB      r1,r1,#0x80000
        0x00010108:    f04f0000    O...    MOV      r0,#0
        0x0001010c:    4770        pG      BX       lr
    x$fpl$fcmp
    $v0
    __aeabi_dcmpeq
    _deq
        0x0001010e:    b510        ..      PUSH     {r4,lr}
        0x00010110:    f7fffe8a    ....    BL       __aeabi_cdcmpeq ; 0xfe28
        0x00010114:    bf0c        ..      ITE      EQ
        0x00010116:    2001        .       MOVEQ    r0,#1
        0x00010118:    2000        .       MOVNE    r0,#0
        0x0001011a:    bd10        ..      POP      {r4,pc}
    _dneq
        0x0001011c:    b510        ..      PUSH     {r4,lr}
        0x0001011e:    f7fffe83    ....    BL       __aeabi_cdcmpeq ; 0xfe28
        0x00010122:    bf14        ..      ITE      NE
        0x00010124:    2001        .       MOVNE    r0,#1
        0x00010126:    2000        .       MOVEQ    r0,#0
        0x00010128:    bd10        ..      POP      {r4,pc}
    __aeabi_dcmpgt
    _dgr
        0x0001012a:    b510        ..      PUSH     {r4,lr}
        0x0001012c:    f7fffef8    ....    BL       __aeabi_cdcmpge ; 0xff20
        0x00010130:    bf8c        ..      ITE      HI
        0x00010132:    2001        .       MOVHI    r0,#1
        0x00010134:    2000        .       MOVLS    r0,#0
        0x00010136:    bd10        ..      POP      {r4,pc}
    __aeabi_dcmpge
    _dgeq
        0x00010138:    b510        ..      PUSH     {r4,lr}
        0x0001013a:    f7fffef1    ....    BL       __aeabi_cdcmpge ; 0xff20
        0x0001013e:    bf2c        ,.      ITE      CS
        0x00010140:    2001        .       MOVCS    r0,#1
        0x00010142:    2000        .       MOVCC    r0,#0
        0x00010144:    bd10        ..      POP      {r4,pc}
    __aeabi_dcmple
    _dleq
        0x00010146:    b510        ..      PUSH     {r4,lr}
        0x00010148:    f7ffff26    ..&.    BL       __aeabi_cdcmple ; 0xff98
        0x0001014c:    bf94        ..      ITE      LS
        0x0001014e:    2001        .       MOVLS    r0,#1
        0x00010150:    2000        .       MOVHI    r0,#0
        0x00010152:    bd10        ..      POP      {r4,pc}
    __aeabi_dcmplt
    _dls
        0x00010154:    b510        ..      PUSH     {r4,lr}
        0x00010156:    f7ffff1f    ....    BL       __aeabi_cdcmple ; 0xff98
        0x0001015a:    bf34        4.      ITE      CC
        0x0001015c:    2001        .       MOVCC    r0,#1
        0x0001015e:    2000        .       MOVCS    r0,#0
        0x00010160:    bd10        ..      POP      {r4,pc}
    x$fpl$fnaninf
    $v0
    __fpl_fnaninf
        0x00010162:    f10e0e02    ....    ADD      lr,lr,#2
        0x00010166:    f02e0e03    ....    BIC      lr,lr,#3
        0x0001016a:    f85e4b04    ^..K    LDR      r4,[lr],#4
        0x0001016e:    4224        $B      TST      r4,r4
        0x00010170:    d404        ..      BMI      0x1017c ; __fpl_fnaninf + 26
        0x00010172:    ea4f0241    O.A.    LSL      r2,r1,#1
        0x00010176:    f1b24f7f    ...O    CMP      r2,#0xff000000
        0x0001017a:    d811        ..      BHI      0x101a0 ; __fpl_fnaninf + 62
        0x0001017c:    ea4f0340    O.@.    LSL      r3,r0,#1
        0x00010180:    f1b34f7f    ...O    CMP      r3,#0xff000000
        0x00010184:    d80c        ..      BHI      0x101a0 ; __fpl_fnaninf + 62
        0x00010186:    d10e        ..      BNE      0x101a6 ; __fpl_fnaninf + 68
        0x00010188:    ea4f7cd0    O..|    LSR      r12,r0,#31
        0x0001018c:    eb0c0c4c    ..L.    ADD      r12,r12,r12,LSL #1
        0x00010190:    f10c0c02    ....    ADD      r12,r12,#2
        0x00010194:    f1b24f7f    ...O    CMP      r2,#0xff000000
        0x00010198:    bf08        ..      IT       EQ
        0x0001019a:    eb4c7cd1    L..|    ADCEQ    r12,r12,r1,LSR #31
        0x0001019e:    e004        ..      B        0x101aa ; __fpl_fnaninf + 72
        0x000101a0:    f04f0c08    O...    MOV      r12,#8
        0x000101a4:    e001        ..      B        0x101aa ; __fpl_fnaninf + 72
        0x000101a6:    ea4f7cd1    O..|    LSR      r12,r1,#31
        0x000101aa:    eb0c034c    ..L.    ADD      r3,r12,r12,LSL #1
        0x000101ae:    fa24f403    $...    LSR      r4,r4,r3
        0x000101b2:    f0040407    ....    AND      r4,r4,#7
        0x000101b6:    f1b40c04    ....    SUBS     r12,r4,#4
        0x000101ba:    d206        ..      BCS      0x101ca ; __fpl_fnaninf + 104
        0x000101bc:    eb0e0c84    ....    ADD      r12,lr,r4,LSL #2
        0x000101c0:    e8bd4010    ...@    POP      {r4,lr}
        0x000101c4:    f04c0c01    L...    ORR      r12,r12,#1
        0x000101c8:    4760        `G      BX       r12
        0x000101ca:    e8dff00c    ....    TBB      [pc,r12]
    $d
        0x000101ce:    0807        ..      DCW    2055
        0x000101d0:    0202        ..      DCW    514
    $t
        0x000101d2:    f04f4000    O..@    MOV      r0,#0x80000000
        0x000101d6:    f5a00080    ....    SUB      r0,r0,#0x400000
        0x000101da:    bd10        ..      POP      {r4,pc}
        0x000101dc:    4608        .F      MOV      r0,r1
        0x000101de:    0042        B.      LSLS     r2,r0,#1
        0x000101e0:    bf18        ..      IT       NE
        0x000101e2:    f1d27280    ...r    RSBSNE   r2,r2,#0x1000000
        0x000101e6:    bf88        ..      IT       HI
        0x000101e8:    f0004000    ...@    ANDHI    r0,r0,#0x80000000
        0x000101ec:    bd10        ..      POP      {r4,pc}
    x$fpl$fpinit
    $v0
    _fp_init
        0x000101ee:    eef10a10    ....    VMRS     r0,FPSCR
        0x000101f2:    f64f71ff    O..q    MOV      r1,#0xffff
        0x000101f6:    f2c031c0    ...1    MOVT     r1,#0x3c0
        0x000101fa:    ea200001     ...    BIC      r0,r0,r1
        0x000101fe:    f0407040    @.@p    ORR      r0,r0,#0x3000000
        0x00010202:    eee10a10    ....    VMSR     FPSCR,r0
    __fplib_config_fpu_vfp
    __fplib_config_pureend_doubles
        0x00010206:    4770        pG      BX       lr
    x$fpl$fretinf
    $v0
    __fpl_fretinf
        0x00010208:    21ff        .!      MOVS     r1,#0xff
        0x0001020a:    ea4150d0    A..P    ORR      r0,r1,r0,LSR #23
        0x0001020e:    05c0        ..      LSLS     r0,r0,#23
        0x00010210:    4770        pG      BX       lr
    x$fpl$usenofp
    __I$use$fp
        0x00010212:    0000        ..      MOVS     r0,r0
    $d.realdata
    .L__const.am_hal_flash_store_ui32.SRAM_write_ui32
        0x00010214:    bf006001    .`..    DCD    3204472833
        0x00010218:    bf006800    .h..    DCD    3204474880
        0x0001021c:    bf004770    pG..    DCD    3204466544
    .L__const.portable_init.am_hal_cachectrl_benchmark
        0x00010220:    0104        ..      DCW    260
        0x00010222:    00          .       DCB    0
    am_hal_cachectrl_defaults
        0x00010223:    08          .       DCB    8
        0x00010224:    00000003    ....    DCD    3
    am_hal_pwrctrl_memory_control
        0x00010228:    00000000    ....    DCD    0
        0x0001022c:    00000000    ....    DCD    0
        0x00010230:    00000000    ....    DCD    0
        0x00010234:    00000000    ....    DCD    0
        0x00010238:    00000000    ....    DCD    0
        0x0001023c:    00000000    ....    DCD    0
        0x00010240:    00000001    ....    DCD    1
        0x00010244:    00000001    ....    DCD    1
        0x00010248:    00000001    ....    DCD    1
        0x0001024c:    00001fff    ....    DCD    8191
        0x00010250:    00001fff    ....    DCD    8191
        0x00010254:    00000001    ....    DCD    1
        0x00010258:    00000003    ....    DCD    3
        0x0001025c:    00000003    ....    DCD    3
        0x00010260:    00000003    ....    DCD    3
        0x00010264:    00001fff    ....    DCD    8191
        0x00010268:    00001fff    ....    DCD    8191
        0x0001026c:    00000003    ....    DCD    3
        0x00010270:    00000007    ....    DCD    7
        0x00010274:    00000007    ....    DCD    7
        0x00010278:    00000007    ....    DCD    7
        0x0001027c:    00001fff    ....    DCD    8191
        0x00010280:    00001fff    ....    DCD    8191
        0x00010284:    00000007    ....    DCD    7
        0x00010288:    0000000f    ....    DCD    15
        0x0001028c:    0000000f    ....    DCD    15
        0x00010290:    0000000f    ....    DCD    15
        0x00010294:    00001fff    ....    DCD    8191
        0x00010298:    00001fff    ....    DCD    8191
        0x0001029c:    0000000f    ....    DCD    15
        0x000102a0:    0000001f    ....    DCD    31
        0x000102a4:    0000001f    ....    DCD    31
        0x000102a8:    0000001f    ....    DCD    31
        0x000102ac:    00001fff    ....    DCD    8191
        0x000102b0:    00001fff    ....    DCD    8191
        0x000102b4:    0000001f    ....    DCD    31
        0x000102b8:    0000003f    ?...    DCD    63
        0x000102bc:    0000003f    ?...    DCD    63
        0x000102c0:    0000003f    ?...    DCD    63
        0x000102c4:    00001fff    ....    DCD    8191
        0x000102c8:    00001fff    ....    DCD    8191
        0x000102cc:    0000003f    ?...    DCD    63
        0x000102d0:    0000007f    ....    DCD    127
        0x000102d4:    0000007f    ....    DCD    127
        0x000102d8:    0000007f    ....    DCD    127
        0x000102dc:    00001fff    ....    DCD    8191
        0x000102e0:    00001fff    ....    DCD    8191
        0x000102e4:    0000007f    ....    DCD    127
        0x000102e8:    000000ff    ....    DCD    255
        0x000102ec:    000000ff    ....    DCD    255
        0x000102f0:    000000ff    ....    DCD    255
        0x000102f4:    00001fff    ....    DCD    8191
        0x000102f8:    00001fff    ....    DCD    8191
        0x000102fc:    000000ff    ....    DCD    255
        0x00010300:    000001ff    ....    DCD    511
        0x00010304:    000001ff    ....    DCD    511
        0x00010308:    000001ff    ....    DCD    511
        0x0001030c:    00001fff    ....    DCD    8191
        0x00010310:    00001fff    ....    DCD    8191
        0x00010314:    000001ff    ....    DCD    511
        0x00010318:    000003ff    ....    DCD    1023
        0x0001031c:    000003ff    ....    DCD    1023
        0x00010320:    000003ff    ....    DCD    1023
        0x00010324:    00001fff    ....    DCD    8191
        0x00010328:    00001fff    ....    DCD    8191
        0x0001032c:    000003ff    ....    DCD    1023
        0x00010330:    000007ff    ....    DCD    2047
        0x00010334:    000007ff    ....    DCD    2047
        0x00010338:    000007ff    ....    DCD    2047
        0x0001033c:    00001fff    ....    DCD    8191
        0x00010340:    00001fff    ....    DCD    8191
        0x00010344:    000007ff    ....    DCD    2047
        0x00010348:    00000fff    ....    DCD    4095
        0x0001034c:    00000fff    ....    DCD    4095
        0x00010350:    00000fff    ....    DCD    4095
        0x00010354:    00001fff    ....    DCD    8191
        0x00010358:    00001fff    ....    DCD    8191
        0x0001035c:    00000fff    ....    DCD    4095
        0x00010360:    00001fff    ....    DCD    8191
        0x00010364:    00001fff    ....    DCD    8191
        0x00010368:    00001fff    ....    DCD    8191
        0x0001036c:    00001fff    ....    DCD    8191
        0x00010370:    00001fff    ....    DCD    8191
        0x00010374:    00001fff    ....    DCD    8191
        0x00010378:    00002000    . ..    DCD    8192
        0x0001037c:    00002000    . ..    DCD    8192
        0x00010380:    00002000    . ..    DCD    8192
        0x00010384:    00006000    .`..    DCD    24576
        0x00010388:    00006000    .`..    DCD    24576
        0x0001038c:    00002000    . ..    DCD    8192
        0x00010390:    00006000    .`..    DCD    24576
        0x00010394:    00006000    .`..    DCD    24576
        0x00010398:    00006000    .`..    DCD    24576
        0x0001039c:    00006000    .`..    DCD    24576
        0x000103a0:    00006000    .`..    DCD    24576
        0x000103a4:    00006000    .`..    DCD    24576
        0x000103a8:    c0000000    ....    DCD    3221225472
        0x000103ac:    00000000    ....    DCD    0
        0x000103b0:    c0000000    ....    DCD    3221225472
        0x000103b4:    c0000000    ....    DCD    3221225472
        0x000103b8:    00000000    ....    DCD    0
        0x000103bc:    80000000    ....    DCD    2147483648
        0x000103c0:    c0007fff    ....    DCD    3221258239
        0x000103c4:    00007fff    ....    DCD    32767
        0x000103c8:    c0007fff    ....    DCD    3221258239
        0x000103cc:    c0007fff    ....    DCD    3221258239
        0x000103d0:    00007fff    ....    DCD    32767
        0x000103d4:    80007fff    ....    DCD    2147516415
    am_hal_pwrctrl_peripheral_control
        0x000103d8:    00000000    ....    DCD    0
        0x000103dc:    00000000    ....    DCD    0
        0x000103e0:    00000000    ....    DCD    0
        0x000103e4:    00000001    ....    DCD    1
        0x000103e8:    00000004    ....    DCD    4
        0x000103ec:    00000004    ....    DCD    4
        0x000103f0:    00000002    ....    DCD    2
        0x000103f4:    00000008    ....    DCD    8
        0x000103f8:    00000008    ....    DCD    8
        0x000103fc:    00000004    ....    DCD    4
        0x00010400:    00000008    ....    DCD    8
        0x00010404:    00000008    ....    DCD    8
        0x00010408:    00000008    ....    DCD    8
        0x0001040c:    00000008    ....    DCD    8
        0x00010410:    00000008    ....    DCD    8
        0x00010414:    00000010    ....    DCD    16
        0x00010418:    00000010    ....    DCD    16
        0x0001041c:    00000010    ....    DCD    16
        0x00010420:    00000020     ...    DCD    32
        0x00010424:    00000010    ....    DCD    16
        0x00010428:    00000010    ....    DCD    16
        0x0001042c:    00000040    @...    DCD    64
        0x00010430:    00000010    ....    DCD    16
        0x00010434:    00000010    ....    DCD    16
        0x00010438:    00000080    ....    DCD    128
        0x0001043c:    00000004    ....    DCD    4
        0x00010440:    00000004    ....    DCD    4
        0x00010444:    00000100    ....    DCD    256
        0x00010448:    00000004    ....    DCD    4
        0x0001044c:    00000004    ....    DCD    4
        0x00010450:    00000200    ....    DCD    512
        0x00010454:    00000020     ...    DCD    32
        0x00010458:    00000020     ...    DCD    32
        0x0001045c:    00000400    ....    DCD    1024
        0x00010460:    00000004    ....    DCD    4
        0x00010464:    00000004    ....    DCD    4
        0x00010468:    00000800    ....    DCD    2048
        0x0001046c:    00000040    @...    DCD    64
        0x00010470:    00000040    @...    DCD    64
        0x00010474:    00001000    ....    DCD    4096
        0x00010478:    00000080    ....    DCD    128
        0x0001047c:    00000080    ....    DCD    128
        0x00010480:    00002000    . ..    DCD    8192
        0x00010484:    00000100    ....    DCD    256
        0x00010488:    00000100    ....    DCD    256
    errpat
        0x0001048c:    00010bc8    ....    DCD    68552
        0x00010490:    00010bda    ....    DCD    68570
        0x00010494:    00010be3    ....    DCD    68579
        0x00010498:    00010bd1    ....    DCD    68561
    floatpat
        0x0001049c:    00010b6c    l...    DCD    68460
        0x000104a0:    00010b7e    ~...    DCD    68478
        0x000104a4:    00010b87    ....    DCD    68487
        0x000104a8:    00010b75    u...    DCD    68469
    g_AM_BSP_GPIO_COM_UART_RX
        0x000104ac:    00000000    ....    DCD    0
    g_AM_BSP_GPIO_COM_UART_TX
        0x000104b0:    00000000    ....    DCD    0
    g_AM_HAL_GPIO_DISABLE
        0x000104b4:    00000003    ....    DCD    3
    g_AM_HAL_GPIO_OUTPUT
        0x000104b8:    00000403    ....    DCD    1027
    g_AM_HAL_GPIO_TRISTATE
        0x000104bc:    00000c03    ....    DCD    3075
    g_am_hal_mcuctrl_flash_size
        0x000104c0:    00004000    .@..    DCD    16384
        0x000104c4:    00008000    ....    DCD    32768
        0x000104c8:    00010000    ....    DCD    65536
        0x000104cc:    00020000    ....    DCD    131072
        0x000104d0:    00040000    ....    DCD    262144
        0x000104d4:    00080000    ....    DCD    524288
        0x000104d8:    00100000    ....    DCD    1048576
        0x000104dc:    00200000    .. .    DCD    2097152
        0x000104e0:    00180000    ....    DCD    1572864
        0x000104e4:    00000000    ....    DCD    0
        0x000104e8:    00000000    ....    DCD    0
        0x000104ec:    00000000    ....    DCD    0
        0x000104f0:    00000000    ....    DCD    0
        0x000104f4:    00000000    ....    DCD    0
        0x000104f8:    00000000    ....    DCD    0
        0x000104fc:    00000000    ....    DCD    0
    g_am_hal_mcuctrl_sram_size
        0x00010500:    00004000    .@..    DCD    16384
        0x00010504:    00008000    ....    DCD    32768
        0x00010508:    00010000    ....    DCD    65536
        0x0001050c:    00020000    ....    DCD    131072
        0x00010510:    00040000    ....    DCD    262144
        0x00010514:    00080000    ....    DCD    524288
        0x00010518:    00100000    ....    DCD    1048576
        0x0001051c:    00060000    ....    DCD    393216
        0x00010520:    000c0000    ....    DCD    786432
        0x00010524:    00000000    ....    DCD    0
        0x00010528:    00000000    ....    DCD    0
        0x0001052c:    00000000    ....    DCD    0
        0x00010530:    00000000    ....    DCD    0
        0x00010534:    00000000    ....    DCD    0
        0x00010538:    00000000    ....    DCD    0
        0x0001053c:    00000000    ....    DCD    0
    g_sBspUartConfig
        0x00010540:    0001c200    ....    DCD    115200
        0x00010544:    00000060    `...    DCD    96
        0x00010548:    00000000    ....    DCD    0
        0x0001054c:    00000000    ....    DCD    0
        0x00010550:    00000000    ....    DCD    0
        0x00010554:    00000012    ....    DCD    18
        0x00010558:    00000000    ....    DCD    0
        0x0001055c:    00000000    ....    DCD    0
        0x00010560:    00000000    ....    DCD    0
        0x00010564:    00000000    ....    DCD    0
    g_ui8Inpen
        0x00010568:    62272323    ##'b    DCD    1646732067
        0x0001056c:    108703a1    ....    DCD    277283745
        0x00010570:    e1005303    .S..    DCD    3774894851
        0x00010574:    55418151    Q.AU    DCD    1430356305
        0x00010578:    4080c405    ...@    DCD    1082180613
        0x0001057c:    4140b101    ..@A    DCD    1094758657
        0x00010580:    31a03114    .1.1    DCD    832581908
        0x00010584:    1180f100    ....    DCD    293662976
        0x00010588:    11c12191    .!..    DCD    297869713
        0x0001058c:    304511e5    ..E0    DCD    809832933
        0x00010590:    31300037    7.01    DCD    825229367
        0x00010594:    40007100    .q.@    DCD    1073770752
        0x00010598:    3130        01      DCW    12592
    g_ui8NCEtable
        0x0001059a:    4232        2B      DCW    16946
        0x0001059c:    12021352    R...    DCD    302125906
        0x000105a0:    43336022    "`3C    DCD    1127440418
        0x000105a4:    40302153    S!0@    DCD    1076896083
        0x000105a8:    41312050    P 1A    DCD    1093738576
        0x000105ac:    ffff1151    Q...    DCD    4294906193
        0x000105b0:    ffffffff    ....    DCD    4294967295
        0x000105b4:    4131ffff    ..1A    DCD    1093795839
        0x000105b8:    40306051    Q`0@    DCD    1076912209
        0x000105bc:    43330050    P.3C    DCD    1127415888
        0x000105c0:    42322353    S#2B    DCD    1110582099
        0x000105c4:    10006052    R`..    DCD    268460114
        0x000105c8:    40303020     00@    DCD    1076899872
        0x000105cc:    41316150    Pa1A    DCD    1093755216
        0x000105d0:    12020151    Q...    DCD    302121297
        0x000105d4:    13034222    "B..    DCD    318980642
        0x000105d8:    10006023    #`..    DCD    268460067
        0x000105dc:    11015020     P..    DCD    285298720
        0x000105e0:    12024121    !A..    DCD    302137633
        0x000105e4:    13033222    "2..    DCD    318976546
        0x000105e8:    41316033    3`1A    DCD    1093754931
        0x000105ec:    42322151    Q!2B    DCD    1110581585
        0x000105f0:    43332252    R"3C    DCD    1127424594
        0x000105f4:    10000353    S...    DCD    268436307
        0x000105f8:    11014020     @..    DCD    285294624
        0x000105fc:    42325121    !Q2B    DCD    1110593825
        0x00010600:    43330252    R.3C    DCD    1127416402
        0x00010604:    40301353    S.0@    DCD    1076892499
        0x00010608:    41311050    P.1A    DCD    1093734480
        0x0001060c:    42326051    Q`2B    DCD    1110597713
        0x00010610:    43331252    R.3C    DCD    1127420498
        0x00010614:    10000353    S...    DCD    268436307
        0x00010618:    11014020     @..    DCD    285294624
        0x0001061c:    12026121    !a..    DCD    302145825
        0x00010620:    13035222    "R..    DCD    318984738
        0x00010624:    10003323    #3..    DCD    268448547
        0x00010628:    41313020     01A    DCD    1093742624
        0x0001062c:    42326151    Qa2B    DCD    1110597969
        0x00010630:    13030252    R...    DCD    318964306
        0x00010634:    ffff5333    3S..    DCD    4294923059
        0x00010638:    ffffffff    ....    DCD    4294967295
        0x0001063c:    1101ffff    ....    DCD    285343743
        0x00010640:    10006121    !a..    DCD    268460321
        0x00010644:    11015020     P..    DCD    285298720
        0x00010648:    12026121    !a..    DCD    302145825
        0x0001064c:    43335222    "R3C    DCD    1127436834
        0x00010650:    40301353    S.0@    DCD    1076892499
        0x00010654:    11016150    Pa..    DCD    285303120
        0x00010658:    12023121    !1..    DCD    302133537
        0x0001065c:    13033222    "2..    DCD    318976546
        0x00010660:    00004323    #C..    DCD    17187
    intpat
        0x00010664:    00010ba2    ....    DCD    68514
        0x00010668:    00010bbe    ....    DCD    68542
        0x0001066c:    00010bc3    ....    DCD    68547
        0x00010670:    00010ba7    ....    DCD    68519
    list_known_crc
        0x00010674:    3340d4b0    ..@3    DCD    859886768
        0x00010678:    e7146a79    yj..    DCD    3876874873
        0x0001067c:    e3c1        ..      DCW    58305
    matrix_known_crc
        0x0001067e:    be52        R.      DCW    48722
        0x00010680:    56081199    ...V    DCD    1443369369
        0x00010684:    07471fd7    ..G.    DCD    122101719
    scipat
        0x00010688:    00010bb5    ....    DCD    68533
        0x0001068c:    00010b90    ....    DCD    68496
        0x00010690:    00010bac    ....    DCD    68524
        0x00010694:    00010b99    ....    DCD    68505
    state_known_crc
        0x00010698:    39bf5e47    G^.9    DCD    968842823
        0x0001069c:    8e3ae5a4    ..:.    DCD    2386224548
        0x000106a0:    8d84        ..      DCW    36228
    .L.str.15
        0x000106a2:    5245        ER      DCW    21061
        0x000106a4:    21524f52    ROR!    DCD    559042386
        0x000106a8:    73754d20     Mus    DCD    1937067296
        0x000106ac:    78652074    t ex    DCD    2019893364
        0x000106b0:    74756365    ecut    DCD    1953850213
        0x000106b4:    6f662065    e fo    DCD    1868963941
        0x000106b8:    74612072    r at    DCD    1952522354
        0x000106bc:    61656c20     lea    DCD    1634036768
        0x000106c0:    31207473    st 1    DCD    824210547
        0x000106c4:    65732030    0 se    DCD    1702043696
        0x000106c8:    66207363    cs f    DCD    1713402723
        0x000106cc:    6120726f    or a    DCD    1629516399
        0x000106d0:    6c617620     val    DCD    1818326560
        0x000106d4:    72206469    id r    DCD    1914725481
        0x000106d8:    6c757365    esul    DCD    1819636581
        0x000106dc:    000a2174    t!..    DCD    663924
    .L.str.33
        0x000106e0:    4d2f4d43    CM/M    DCD    1294945603
        0x000106e4:    253d7a48    Hz=%    DCD    624785992
        0x000106e8:    2e66332e    .3f.    DCD    778449710
        0x000106ec:    000a        ..      DCW    10
    .L.str.6
        0x000106ee:    4b32        2K      DCW    19250
        0x000106f0:    72657020     per    DCD    1919250464
        0x000106f4:    6d726f66    form    DCD    1836216166
        0x000106f8:    65636e61    ance    DCD    1701015137
        0x000106fc:    6e757220     run    DCD    1853190688
        0x00010700:    72617020     par    DCD    1918988320
        0x00010704:    74656d61    amet    DCD    1952804193
        0x00010708:    20737265    ers     DCD    544436837
        0x0001070c:    20726f66    for     DCD    544370534
        0x00010710:    65726f63    core    DCD    1701998435
        0x00010714:    6b72616d    mark    DCD    1802658157
        0x00010718:    0a2e        ..      DCW    2606
        0x0001071a:    00          .       DCB    0
    .L.str.5
        0x0001071b:    50          P       DCB    80
        0x0001071c:    69666f72    rofi    DCD    1768320882
        0x00010720:    6720656c    le g    DCD    1730176364
        0x00010724:    72656e65    ener    DCD    1919250021
        0x00010728:    6f697461    atio    DCD    1869182049
        0x0001072c:    7572206e    n ru    DCD    1970413678
        0x00010730:    6170206e    n pa    DCD    1634738286
        0x00010734:    656d6172    rame    DCD    1701667186
        0x00010738:    73726574    ters    DCD    1936876916
        0x0001073c:    726f6620     for    DCD    1919903264
        0x00010740:    726f6320     cor    DCD    1919902496
        0x00010744:    72616d65    emar    DCD    1918987621
        0x00010748:    000a2e6b    k...    DCD    667243
    .L.str.32
        0x0001074c:    6e6e6143    Cann    DCD    1852727619
        0x00010750:    7620746f    ot v    DCD    1981838447
        0x00010754:    64696c61    alid    DCD    1684630625
        0x00010758:    20657461    ate     DCD    543519841
        0x0001075c:    7265706f    oper    DCD    1919250543
        0x00010760:    6f697461    atio    DCD    1869182049
        0x00010764:    6f66206e    n fo    DCD    1868963950
        0x00010768:    68742072    r th    DCD    1752440946
        0x0001076c:    20657365    ese     DCD    543519589
        0x00010770:    64656573    seed    DCD    1684366707
        0x00010774:    6c617620     val    DCD    1818326560
        0x00010778:    2c736575    ues,    DCD    745760117
        0x0001077c:    656c7020     ple    DCD    1701605408
        0x00010780:    20657361    ase     DCD    543519585
        0x00010784:    706d6f63    comp    DCD    1886220131
        0x00010788:    20657261    are     DCD    543519329
        0x0001078c:    68746977    with    DCD    1752459639
        0x00010790:    73657220     res    DCD    1936028192
        0x00010794:    73746c75    ults    DCD    1937009781
        0x00010798:    206e6f20     on     DCD    544108320
        0x0001079c:    6e6b2061    a kn    DCD    1852514401
        0x000107a0:    206e776f    own     DCD    544110447
        0x000107a4:    74616c70    plat    DCD    1952541808
        0x000107a8:    6d726f66    form    DCD    1836216166
        0x000107ac:    0a2e        ..      DCW    2606
        0x000107ae:    00          .       DCB    0
    .L.str.26
        0x000107af:    43          C       DCB    67
        0x000107b0:    6572726f    orre    DCD    1701999215
        0x000107b4:    6f207463    ct o    DCD    1864397923
        0x000107b8:    61726570    pera    DCD    1634887024
        0x000107bc:    6e6f6974    tion    DCD    1852795252
        0x000107c0:    6c617620     val    DCD    1818326560
        0x000107c4:    74616469    idat    DCD    1952539753
        0x000107c8:    202e6465    ed.     DCD    539911269
        0x000107cc:    20656553    See     DCD    543515987
        0x000107d0:    64616572    read    DCD    1684104562
        0x000107d4:    742e656d    me.t    DCD    1949197677
        0x000107d8:    66207478    xt f    DCD    1713403000
        0x000107dc:    7220726f    or r    DCD    1914729071
        0x000107e0:    61206e75    un a    DCD    1629515381
        0x000107e4:    7220646e    nd r    DCD    1914725486
        0x000107e8:    726f7065    epor    DCD    1919905893
        0x000107ec:    676e6974    ting    DCD    1735289204
        0x000107f0:    6c757220     rul    DCD    1819636256
        0x000107f4:    0a2e7365    es..    DCD    170816357
        0x000107f8:    00          .       DCB    0
    .L.str.31
        0x000107f9:    457272      Err     DCB    69,114,114
        0x000107fc:    2073726f    ors     DCD    544436847
        0x00010800:    65746564    dete    DCD    1702126948
        0x00010804:    64657463    cted    DCD    1684370531
        0x00010808:    000a        ..      DCW    10
    .L.str.14
        0x0001080a:    7449        It      DCW    29769
        0x0001080c:    74617265    erat    DCD    1952543333
        0x00010810:    736e6f69    ions    DCD    1936617321
        0x00010814:    6365532f    /Sec    DCD    1667584815
        0x00010818:    3a202020       :    DCD    975183904
        0x0001081c:    0a662520     %f.    DCD    174466336
        0x00010820:    00          .       DCB    0
    .L.str.13
        0x00010821:    546f74      Tot     DCB    84,111,116
        0x00010824:    74206c61    al t    DCD    1948281953
        0x00010828:    20656d69    ime     DCD    543518057
        0x0001082c:    63657328    (sec    DCD    1667593000
        0x00010830:    203a2973    s):     DCD    540682611
        0x00010834:    000a6625    %f..    DCD    681509
    .L.str.19
        0x00010838:    6f6d654d    Memo    DCD    1869440333
        0x0001083c:    6c207972    ry l    DCD    1814067570
        0x00010840:    7461636f    ocat    DCD    1952539503
        0x00010844:    206e6f69    ion     DCD    544108393
        0x00010848:    25203a20     : %    DCD    622869024
        0x0001084c:    0a73        s.      DCW    2675
        0x0001084e:    00          .       DCB    0
    .L.str.17
        0x0001084f:    43          C       DCB    67
        0x00010850:    69706d6f    ompi    DCD    1768975727
        0x00010854:    2072656c    ler     DCD    544367980
        0x00010858:    73726576    vers    DCD    1936876918
        0x0001085c:    206e6f69    ion     DCD    544108393
        0x00010860:    7325203a    : %s    DCD    1931812922
        0x00010864:    000a        ..      DCW    10
    .L.str.16
        0x00010866:    7449        It      DCW    29769
        0x00010868:    74617265    erat    DCD    1952543333
        0x0001086c:    736e6f69    ions    DCD    1936617321
        0x00010870:    20202020            DCD    538976288
        0x00010874:    3a202020       :    DCD    975183904
        0x00010878:    756c2520     %lu    DCD    1970021664
        0x0001087c:    000a        ..      DCW    10
    .L.str.11
        0x0001087e:    6f43        Co      DCW    28483
        0x00010880:    614d6572    reMa    DCD    1632462194
        0x00010884:    53206b72    rk S    DCD    1394633586
        0x00010888:    20657a69    ize     DCD    543521385
        0x0001088c:    3a202020       :    DCD    975183904
        0x00010890:    756c2520     %lu    DCD    1970021664
        0x00010894:    000a        ..      DCW    10
    .L.str.12
        0x00010896:    6f54        To      DCW    28500
        0x00010898:    206c6174    tal     DCD    543973748
        0x0001089c:    6b636974    tick    DCD    1801677172
        0x000108a0:    20202073    s       DCD    538976371
        0x000108a4:    3a202020       :    DCD    975183904
        0x000108a8:    6c6c2520     %ll    DCD    1819026720
        0x000108ac:    0a75        u.      DCW    2677
        0x000108ae:    00          .       DCB    0
    .L.str.21
        0x000108af:    73          s       DCB    115
        0x000108b0:    63646565    eedc    DCD    1667523941
        0x000108b4:    20206372    rc      DCD    538993522
        0x000108b8:    20202020            DCD    538976288
        0x000108bc:    20202020            DCD    538976288
        0x000108c0:    7830203a    : 0x    DCD    2016419898
        0x000108c4:    78343025    %04x    DCD    2016686117
        0x000108c8:    000a        ..      DCW    10
    .L.str.22
        0x000108ca:    255b        [%      DCW    9563
        0x000108cc:    72635d64    d]cr    DCD    1919114596
        0x000108d0:    73696c63    clis    DCD    1936288867
        0x000108d4:    20202074    t       DCD    538976372
        0x000108d8:    20202020            DCD    538976288
        0x000108dc:    7830203a    : 0x    DCD    2016419898
        0x000108e0:    78343025    %04x    DCD    2016686117
        0x000108e4:    000a        ..      DCW    10
    .L.str.24
        0x000108e6:    255b        [%      DCW    9563
        0x000108e8:    72635d64    d]cr    DCD    1919114596
        0x000108ec:    61747363    csta    DCD    1635021667
        0x000108f0:    20206574    te      DCD    538994036
        0x000108f4:    20202020            DCD    538976288
        0x000108f8:    7830203a    : 0x    DCD    2016419898
        0x000108fc:    78343025    %04x    DCD    2016686117
        0x00010900:    000a        ..      DCW    10
    .L.str.25
        0x00010902:    255b        [%      DCW    9563
        0x00010904:    72635d64    d]cr    DCD    1919114596
        0x00010908:    6e696663    cfin    DCD    1852401251
        0x0001090c:    20206c61    al      DCD    538995809
        0x00010910:    20202020            DCD    538976288
        0x00010914:    7830203a    : 0x    DCD    2016419898
        0x00010918:    78343025    %04x    DCD    2016686117
        0x0001091c:    000a        ..      DCW    10
    .L.str.23
        0x0001091e:    255b        [%      DCW    9563
        0x00010920:    72635d64    d]cr    DCD    1919114596
        0x00010924:    74616d63    cmat    DCD    1952542051
        0x00010928:    20786972    rix     DCD    544762226
        0x0001092c:    20202020            DCD    538976288
        0x00010930:    7830203a    : 0x    DCD    2016419898
        0x00010934:    78343025    %04x    DCD    2016686117
        0x00010938:    000a        ..      DCW    10
    .L.str.10
        0x0001093a:    255b        [%      DCW    9563
        0x0001093c:    52455d75    u]ER    DCD    1380277621
        0x00010940:    21524f52    ROR!    DCD    559042386
        0x00010944:    61747320     sta    DCD    1635021600
        0x00010948:    63206574    te c    DCD    1663067508
        0x0001094c:    30206372    rc 0    DCD    807428978
        0x00010950:    34302578    x%04    DCD    875570552
        0x00010954:    202d2078    x -     DCD    539828344
        0x00010958:    756f6873    shou    DCD    1970235507
        0x0001095c:    6220646c    ld b    DCD    1646290028
        0x00010960:    78302065    e 0x    DCD    2016419941
        0x00010964:    78343025    %04x    DCD    2016686117
        0x00010968:    000a        ..      DCW    10
    .L.str.8
        0x0001096a:    255b        [%      DCW    9563
        0x0001096c:    52455d75    u]ER    DCD    1380277621
        0x00010970:    21524f52    ROR!    DCD    559042386
        0x00010974:    73696c20     lis    DCD    1936288800
        0x00010978:    72632074    t cr    DCD    1919098996
        0x0001097c:    78302063    c 0x    DCD    2016419939
        0x00010980:    78343025    %04x    DCD    2016686117
        0x00010984:    73202d20     - s    DCD    1931488544
        0x00010988:    6c756f68    houl    DCD    1819635560
        0x0001098c:    65622064    d be    DCD    1700929636
        0x00010990:    25783020     0x%    DCD    628633632
        0x00010994:    0a783430    04x.    DCD    175649840
        0x00010998:    00          .       DCB    0
    .L.str.9
        0x00010999:    5b2575      [%u     DCB    91,37,117
        0x0001099c:    5252455d    ]ERR    DCD    1381123421
        0x000109a0:    2021524f    OR!     DCD    539054671
        0x000109a4:    7274616d    matr    DCD    1920229741
        0x000109a8:    63207869    ix c    DCD    1663072361
        0x000109ac:    30206372    rc 0    DCD    807428978
        0x000109b0:    34302578    x%04    DCD    875570552
        0x000109b4:    202d2078    x -     DCD    539828344
        0x000109b8:    756f6873    shou    DCD    1970235507
        0x000109bc:    6220646c    ld b    DCD    1646290028
        0x000109c0:    78302065    e 0x    DCD    2016419941
        0x000109c4:    78343025    %04x    DCD    2016686117
        0x000109c8:    000a        ..      DCW    10
    .L.str.18
        0x000109ca:    4347        GC      DCW    17223
        0x000109cc:    6c432043    C Cl    DCD    1816338499
        0x000109d0:    20676e61    ang     DCD    543649377
        0x000109d4:    302e3331    13.0    DCD    808334129
        0x000109d8:    2820302e    .0 (    DCD    673198126
        0x000109dc:    3a687373    ssh:    DCD    979923827
        0x000109e0:    73642f2f    //ds    DCD    1935945519
        0x000109e4:    7265672d    -ger    DCD    1919248173
        0x000109e8:    2f746972    rit/    DCD    796158322
        0x000109ec:    636d7261    armc    DCD    1668117089
        0x000109f0:    69706d6f    ompi    DCD    1768975727
        0x000109f4:    2f72656c    ler/    DCD    796026220
        0x000109f8:    6d766c6c    llvm    DCD    1836477548
        0x000109fc:    6f72702d    -pro    DCD    1869770797
        0x00010a00:    7463656a    ject    DCD    1952671082
        0x00010a04:    35663120     1f5    DCD    895889696
        0x00010a08:    64303737    770d    DCD    1680881463
        0x00010a0c:    32376636    6f72    DCD    842491446
        0x00010a10:    65346565    ee4e    DCD    1697932645
        0x00010a14:    31326162    ba21    DCD    825385314
        0x00010a18:    39303935    5909    DCD    959461685
        0x00010a1c:    66626232    2bbf    DCD    1717723698
        0x00010a20:    62626334    4cbb    DCD    1650615092
        0x00010a24:    62393138    819b    DCD    1647915320
        0x00010a28:    33323365    e323    DCD    858927973
        0x00010a2c:    2961        a)      DCW    10593
        0x00010a2e:    00          .       DCB    0
    .L.str.28
        0x00010a2f:    66          f       DCB    102
        0x00010a30:    7367616c    lags    DCD    1936154988
        0x00010a34:    6f2d203a    : -o    DCD    1865228346
        0x00010a38:    0033        3.      DCW    51
    .L.str.20
        0x00010a3a:    5453        ST      DCW    21587
        0x00010a3c:    004b4341    ACK.    DCD    4932417
    .L.str.29
        0x00010a40:    25202f20     / %    DCD    622866208
        0x00010a44:    0073        s.      DCW    115
    .L.str.27
        0x00010a46:    6f43        Co      DCW    28483
        0x00010a48:    614d6572    reMa    DCD    1632462194
        0x00010a4c:    31206b72    rk 1    DCD    824208242
        0x00010a50:    3a20302e    .0 :    DCD    975188014
        0x00010a54:    20662520     %f     DCD    543565088
        0x00010a58:    7325202f    / %s    DCD    1931812911
        0x00010a5c:    00732520     %s.    DCD    7546144
    .L.str.8
        0x00010a60:    6c6f7041    Apol    DCD    1819242561
        0x00010a64:    20336f6c    lo3     DCD    540241772
        0x00010a68:    7265706f    oper    DCD    1919250543
        0x00010a6c:    6e697461    atin    DCD    1852404833
        0x00010a70:    6e692067    g in    DCD    1852383335
        0x00010a74:    72754220     Bur    DCD    1920287264
        0x00010a78:    4d207473    st M    DCD    1293972595
        0x00010a7c:    2065646f    ode     DCD    543515759
        0x00010a80:    4d363928    (96M    DCD    1295399208
        0x00010a84:    0a297a48    Hz).    DCD    170490440
        0x00010a88:    00          .       DCB    0
    .L.str.4
        0x00010a89:    466169      Fai     DCB    70,97,105
        0x00010a8c:    2064656c    led     DCD    543450476
        0x00010a90:    72206f74    to r    DCD    1914728308
        0x00010a94:    6e6f6365    econ    DCD    1852793701
        0x00010a98:    75676966    figu    DCD    1969711462
        0x00010a9c:    53206572    re S    DCD    1394632050
        0x00010aa0:    2e4d4152    RAM.    DCD    776814930
        0x00010aa4:    000a        ..      DCW    10
    .L.str.3
        0x00010aa6:    6146        Fa      DCW    24902
        0x00010aa8:    64656c69    iled    DCD    1684368489
        0x00010aac:    206f7420     to     DCD    544175136
        0x00010ab0:    6f636572    reco    DCD    1868785010
        0x00010ab4:    6769666e    nfig    DCD    1734960750
        0x00010ab8:    20657275    ure     DCD    543519349
        0x00010abc:    73616c46    Flas    DCD    1935764550
        0x00010ac0:    6f662068    h fo    DCD    1868963944
        0x00010ac4:    696d2072    r mi    DCD    1768759410
        0x00010ac8:    756d696e    nimu    DCD    1970104686
        0x00010acc:    000a2e6d    m...    DCD    667245
    .L.str.5
        0x00010ad0:    6c6f7041    Apol    DCD    1819242561
        0x00010ad4:    20336f6c    lo3     DCD    540241772
        0x00010ad8:    73727542    Burs    DCD    1936880962
        0x00010adc:    6f4d2074    t Mo    DCD    1867325556
        0x00010ae0:    69206564    de i    DCD    1763730788
        0x00010ae4:    76412073    s Av    DCD    1983979635
        0x00010ae8:    616c6961    aila    DCD    1634494817
        0x00010aec:    0a656c62    ble.    DCD    174419042
        0x00010af0:    00          .       DCB    0
    .L.str.6
        0x00010af1:    41706f      Apo     DCB    65,112,111
        0x00010af4:    336f6c6c    llo3    DCD    862940268
        0x00010af8:    72754220     Bur    DCD    1920287264
        0x00010afc:    4d207473    st M    DCD    1293972595
        0x00010b00:    2065646f    ode     DCD    543515759
        0x00010b04:    4e207369    is N    DCD    1310749545
        0x00010b08:    4120746f    ot A    DCD    1092645999
        0x00010b0c:    6c696176    vail    DCD    1818845558
        0x00010b10:    656c6261    able    DCD    1701601889
        0x00010b14:    000a        ..      DCW    10
    .L.str.9
        0x00010b16:    6146        Fa      DCW    24902
        0x00010b18:    64656c69    iled    DCD    1684368489
        0x00010b1c:    206f7420     to     DCD    544175136
        0x00010b20:    62616e45    Enab    DCD    1650552389
        0x00010b24:    4220656c    le B    DCD    1109419372
        0x00010b28:    74737275    urst    DCD    1953722997
        0x00010b2c:    646f4d20     Mod    DCD    1685015840
        0x00010b30:    706f2065    e op    DCD    1886330981
        0x00010b34:    74617265    erat    DCD    1952543333
        0x00010b38:    0a6e6f69    ion.    DCD    175009641
        0x00010b3c:    00          .       DCB    0
    .L.str.7
        0x00010b3d:    466169      Fai     DCB    70,97,105
        0x00010b40:    2064656c    led     DCD    543450476
        0x00010b44:    49206f74    to I    DCD    1226862452
        0x00010b48:    6974696e    niti    DCD    1769236846
        0x00010b4c:    7a696c61    aliz    DCD    2053729377
        0x00010b50:    6f662065    e fo    DCD    1868963941
        0x00010b54:    75422072    r Bu    DCD    1967267954
        0x00010b58:    20747372    rst     DCD    544502642
        0x00010b5c:    65646f4d    Mode    DCD    1701080909
        0x00010b60:    65706f20     ope    DCD    1701867296
        0x00010b64:    69746172    rati    DCD    1769234802
        0x00010b68:    000a6e6f    on..    DCD    683631
        0x00010b6c:    352e3533    35.5    DCD    892220723
        0x00010b70:    30303434    4400    DCD    808465460
        0x00010b74:    2e302b00    .+0.    DCD    774908672
        0x00010b78:    30343436    6440    DCD    808727606
        0x00010b7c:    312e0030    0..1    DCD    825098288
        0x00010b80:    35343332    2345    DCD    892613426
        0x00010b84:    2d003030    00.-    DCD    754987056
        0x00010b88:    2e303131    110.    DCD    774910257
        0x00010b8c:    00303037    700.    DCD    3158071
        0x00010b90:    32312e2d    -.12    DCD    842083885
        0x00010b94:    322d6533    3e-2    DCD    841835827
        0x00010b98:    2e302b00    .+0.    DCD    774908672
        0x00010b9c:    312d6536    6e-1    DCD    825058614
        0x00010ba0:    30350032    2.50    DCD    808779826
        0x00010ba4:    2b003231    12.+    DCD    721433137
        0x00010ba8:    00323231    122.    DCD    3289649
        0x00010bac:    6537382d    -87e    DCD    1698117677
        0x00010bb0:    3233382b    +832    DCD    842217515
        0x00010bb4:    352e3500    .5.5    DCD    892220672
        0x00010bb8:    2b653030    00e+    DCD    728051760
        0x00010bbc:    32310033    3.12    DCD    842072115
        0x00010bc0:    2d003433    34.-    DCD    754988083
        0x00010bc4:    00343738    874.    DCD    3422008
        0x00010bc8:    332e3054    T0.3    DCD    858665044
        0x00010bcc:    46312d65    e-1F    DCD    1177628005
        0x00010bd0:    2e343300    .34.    DCD    775172864
        0x00010bd4:    542d6530    0e-T    DCD    1412261168
        0x00010bd8:    542d005e    ^.-T    DCD    1412235358
        0x00010bdc:    2b2b542e    .T++    DCD    724259886
        0x00010be0:    31007154    Tq.1    DCD    822112596
        0x00010be4:    342e3354    T3.4    DCD    875443028
        0x00010be8:    007a3465    e4z.    DCD    8008805
    Region$$Table$$Base
        0x00010bec:    00010c10    ....    DCD    68624
        0x00010bf0:    10000000    ....    DCD    268435456
        0x00010bf4:    00000038    8...    DCD    56
        0x00010bf8:    0000c170    p...    DCD    49520
        0x00010bfc:    00010c48    H...    DCD    68680
        0x00010c00:    10000038    8...    DCD    268435512
        0x00010c04:    00001678    x...    DCD    5752
        0x00010c08:    0000c18c    ....    DCD    49548
    Region$$Table$$Limit

** Section #2 'SRAM' (SHT_PROGBITS) [SHF_ALLOC + SHF_WRITE]
    Size   : 56 bytes (alignment 8)
    Address: 0x10000000

    0x10000000:   0a 00 00 00 03 00 00 00 1e 00 00 00 03 00 00 00    ................
    0x10000010:   0f 00 00 00 03 00 00 00 0e 00 00 00 03 00 00 00    ................
    0x10000020:   11 00 00 00 03 00 00 00 01 00 00 00 66 00 00 00    ............f...
    0x10000030:   d0 07 00 00 00 00 00 00                            ........


** Section #3 'SRAM' (SHT_NOBITS) [SHF_ALLOC + SHF_WRITE]
    Size   : 5752 bytes (alignment 8)
    Address: 0x10000038


** Section #4 '.debug_abbrev' (SHT_PROGBITS)
    Size   : 3869 bytes


** Section #5 '.debug_frame' (SHT_PROGBITS)
    Size   : 6884 bytes


** Section #6 '.debug_info' (SHT_PROGBITS)
    Size   : 14331 bytes


** Section #7 '.debug_line' (SHT_PROGBITS)
    Size   : 10142 bytes


** Section #8 '.debug_loc' (SHT_PROGBITS)
    Size   : 16225 bytes


** Section #9 '.debug_str' (SHT_PROGBITS)
    Size   : 10618 bytes


** Section #10 '.debug_ranges' (SHT_PROGBITS)
    Size   : 976 bytes


** Section #11 '.symtab' (SHT_SYMTAB)
    Size   : 9568 bytes (alignment 4)
    String table #12 '.strtab'
    Last local symbol no. 329

    Symbol table .symtab (597 symbols, 329 local)

      #  Symbol Name                Value      Bind  Sec  Type  Vis  Size
    ========================================================================

      1  $d                         0x0000c000   Lc    1   --   De 
      2  $t                         0x0000c100   Lc    1   --   De 
      3  $d                         0x0000c130   Lc    1   --   De 
      4  $t                         0x0000c134   Lc    1   --   De 
      5  $d                         0x0000c168   Lc    1   --   De 
      6  $t                         0x0000c170   Lc    1   --   De 
      7  $d                         0x0000c1de   Lc    1   --   De 
      8  $t                         0x0000c1ec   Lc    1   --   De 
      9  $d                         0x0000c2e4   Lc    1   --   De 
     10  $t                         0x0000c2e8   Lc    1   --   De 
     11  $d                         0x0000c2f0   Lc    1   --   De 
     12  $t                         0x0000c2f4   Lc    1   --   De 
     13  $t.0                       0x0000c2f6   Lc    1   --   De 
     14  $d.4                       0x0000c672   Lc    1   --   De 
     15  $t.5                       0x0000c684   Lc    1   --   De 
     16  $d.1                       0x0000c804   Lc    1   --   De 
     17  $t.2                       0x0000c80e   Lc    1   --   De 
     18  $d.1                       0x0000cb58   Lc    1   --   De 
     19  $t.2                       0x0000cb5c   Lc    1   --   De 
     20  $d.3                       0x0000cc08   Lc    1   --   De 
     21  $t.7                       0x0000cc70   Lc    1   --   De 
     22  $d.8                       0x0000cca6   Lc    1   --   De 
     23  $t.9                       0x0000ccac   Lc    1   --   De 
     24  $d.5                       0x0000d4d0   Lc    1   --   De 
     25  $t.1                       0x0000d4e0   Lc    1   --   De 
     26  $d.11                      0x0000d84c   Lc    1   --   De 
     27  $t.1                       0x0000d874   Lc    1   --   De 
     28  $d.4                       0x0000daa2   Lc    1   --   De 
     29  $t.5                       0x0000daaa   Lc    1   --   De 
     30  $d.5                       0x0000e514   Lc    1   --   De 
     31  $t.5                       0x0000e554   Lc    1   --   De 
     32  $d.2                       0x0000e77e   Lc    1   --   De 
     33  $t.3                       0x0000e786   Lc    1   --   De 
     34  $d.1                       0x0000ea1c   Lc    1   --   De 
     35  $t.2                       0x0000ea30   Lc    1   --   De 
     36  $d.3                       0x0000ebb0   Lc    1   --   De 
     37  $t.4                       0x0000ebb8   Lc    1   --   De 
     38  $d.5                       0x0000f120   Lc    1   --   De 
     39  $t.6                       0x0000f1c4   Lc    1   --   De 
     40  $d.8                       0x0000f4fc   Lc    1   --   De 
     41  $t.5                       0x0000f548   Lc    1   --   De 
     42  $d.6                       0x0000f6a8   Lc    1   --   De 
     43  $t.20                      0x0000f730   Lc    1   --   De 
     44  $d.4                       0x0000f9c0   Lc    1   --   De 
     45  $t.13                      0x0000f9d0   Lc    1   --   De 
     46  $t                         0x0000faf8   Lc    1   --   De 
     47  $d                         0x0000fb48   Lc    1   --   De 
     48  $t                         0x0000fb4c   Lc    1   --   De 
     49  $d                         0x0000fd74   Lc    1   --   De 
     50  $t                         0x0000fd78   Lc    1   --   De 
     51  $d                         0x0000fda0   Lc    1   --   De 
     52  $t                         0x0000fe28   Lc    1   --   De 
     53  $d                         0x0000fe90   Lc    1   --   De 
     54  $t                         0x0000fe94   Lc    1   --   De 
     55  $d                         0x0000fef0   Lc    1   --   De 
     56  $t                         0x0000fef4   Lc    1   --   De 
     57  $d                         0x0000ff88   Lc    1   --   De 
     58  $t                         0x0000ff8c   Lc    1   --   De 
     59  $d                         0x00010000   Lc    1   --   De 
     60  $t                         0x00010004   Lc    1   --   De 
     61  $d                         0x00010080   Lc    1   --   De 
     62  $t                         0x00010084   Lc    1   --   De 
     63  $d                         0x000100f4   Lc    1   --   De 
     64  $t                         0x000100f8   Lc    1   --   De 
     65  $d                         0x000101ce   Lc    1   --   De 
     66  $t                         0x000101d2   Lc    1   --   De 
     67  $d.realdata                0x00010214   Lc    1   --   De 
     68  $d.realdata                0x10000000   Lc    2   --   De 
     69  am_time.c                  0x00000000   Lc  Abs  File  De 
     70  coremark.c                 0x00000000   Lc  Abs  File  De 
     71  core_list_join.c           0x00000000   Lc  Abs  File  De 
     72  core_main.c                0x00000000   Lc  Abs  File  De 
     73  .L.str.15                  0x000106a2   Lc    1  Data  De   0x3e
     74  .L.str.33                  0x000106e0   Lc    1  Data  De   0xe
     75  .L.str.6                   0x000106ee   Lc    1  Data  De   0x2d
     76  .L.str.5                   0x0001071b   Lc    1  Data  De   0x31
     77  .L.str.32                  0x0001074c   Lc    1  Data  De   0x63
     78  .L.str.26                  0x000107af   Lc    1  Data  De   0x4a
     79  .L.str.31                  0x000107f9   Lc    1  Data  De   0x11
     80  .L.str.14                  0x0001080a   Lc    1  Data  De   0x17
     81  .L.str.13                  0x00010821   Lc    1  Data  De   0x17
     82  .L.str.19                  0x00010838   Lc    1  Data  De   0x17
     83  .L.str.17                  0x0001084f   Lc    1  Data  De   0x17
     84  .L.str.16                  0x00010866   Lc    1  Data  De   0x18
     85  .L.str.11                  0x0001087e   Lc    1  Data  De   0x18
     86  .L.str.12                  0x00010896   Lc    1  Data  De   0x19
     87  .L.str.21                  0x000108af   Lc    1  Data  De   0x1b
     88  .L.str.22                  0x000108ca   Lc    1  Data  De   0x1c
     89  .L.str.24                  0x000108e6   Lc    1  Data  De   0x1c
     90  .L.str.25                  0x00010902   Lc    1  Data  De   0x1c
     91  .L.str.23                  0x0001091e   Lc    1  Data  De   0x1c
     92  .L.str.10                  0x0001093a   Lc    1  Data  De   0x30
     93  .L.str.8                   0x0001096a   Lc    1  Data  De   0x2f
     94  .L.str.9                   0x00010999   Lc    1  Data  De   0x31
     95  .L.str.18                  0x000109ca   Lc    1  Data  De   0x65
     96  .L.str.28                  0x00010a2f   Lc    1  Data  De   0xb
     97  .L.str.20                  0x00010a3a   Lc    1  Data  De   0x6
     98  .L.str.29                  0x00010a40   Lc    1  Data  De   0x6
     99  .L.str.27                  0x00010a46   Lc    1  Data  De   0x1a
    100  list_known_crc             0x00010674   Lc    1  Data  De   0xa
    101  matrix_known_crc           0x0001067e   Lc    1  Data  De   0xa
    102  state_known_crc            0x00010698   Lc    1  Data  De   0xa
    103  core_matrix.c              0x00000000   Lc  Abs  File  De 
    104  core_portme.c              0x00000000   Lc  Abs  File  De 
    105  start_time_val             0x100016a0   Lc    3  Data  De   0x8
    106  stop_time_val              0x100016a8   Lc    3  Data  De   0x8
    107  .L__const.portable_init.am_hal_cachectrl_benchmark
                                    0x00010220   Lc    1  Data  De   0x3
    108  .L.str.8                   0x00010a60   Lc    1  Data  De   0x29
    109  .L.str.4                   0x00010a89   Lc    1  Data  De   0x1d
    110  .L.str.3                   0x00010aa6   Lc    1  Data  De   0x2a
    111  .L.str.5                   0x00010ad0   Lc    1  Data  De   0x21
    112  .L.str.6                   0x00010af1   Lc    1  Data  De   0x25
    113  .L.str.9                   0x00010b16   Lc    1  Data  De   0x27
    114  .L.str.7                   0x00010b3d   Lc    1  Data  De   0x2f
    115  core_state.c               0x00000000   Lc  Abs  File  De 
    116  intpat                     0x00010664   Lc    1  Data  De   0x10
    117  floatpat                   0x0001049c   Lc    1  Data  De   0x10
    118  scipat                     0x00010688   Lc    1  Data  De   0x10
    119  errpat                     0x0001048c   Lc    1  Data  De   0x10
    120  core_util.c                0x00000000   Lc  Abs  File  De 
    121  am_util_delay.c            0x00000000   Lc  Abs  File  De 
    122  am_util_faultisr.c         0x00000000   Lc  Abs  File  De 
    123  am_util_stdio.c            0x00000000   Lc  Abs  File  De 
    124  decstr_to_int              0x0000e8e9   Lc    1  Code  De   0x58
    125  uint64_to_str              0x0000fa2d   Lc    1  Code  De   0x54
    126  divu64_10                  0x0000e941   Lc    1  Code  De   0xbe
    127  g_bTxtXlate                0x1000157c   Lc    3  Data  De   0x1
    128  g_prfbuf                   0x10001584   Lc    3  Data  De   0x100
    129  am_devices_led.c           0x00000000   Lc  Abs  File  De 
    130  ../keil6/startup_keil6.s   0x00000000   Lc  Abs  File  De 
    131  STACK                      0x10000038   Lc    3  Sect  De   0x1000
    132  StackMem                   0x10000038   Lc    3  Data  De 
    133  HEAP                       0x100016b0   Lc    3  Sect  De 
    134  HeapMem                    0x100016b0   Lc    3  Data  De 
    135  RESET                      0x0000c000   Lc    1  Sect  De   0x134
    136  $v0                        0x0000c100   Lc    1   --   De 
    137  .text                      0x0000c1d4   Lc    1  Sect  De   0x18
    138  $v0                        0x0000c1d4   Lc    1   --   De 
    139  am_hal_global.c            0x00000000   Lc  Abs  File  De 
    140  am_hal_burst.c             0x00000000   Lc  Abs  File  De 
    141  am_hal_cachectrl.c         0x00000000   Lc  Abs  File  De 
    142  set_LPMMODE                0x0000f831   Lc    1  Code  De   0x42
    143  set_SEDELAY                0x0000f8b5   Lc    1  Code  De   0x42
    144  set_RDWAIT                 0x0000f873   Lc    1  Code  De   0x42
    145  am_hal_clkgen.c            0x00000000   Lc  Abs  File  De 
    146  am_hal_flash.c             0x00000000   Lc  Abs  File  De 
    147  .L__const.am_hal_flash_store_ui32.SRAM_write_ui32
                                    0x00010214   Lc    1  Data  De   0xc
    148  am_hal_gpio.c              0x00000000   Lc  Abs  File  De 
    149  g_ui8Bit76Capabilities     0x0000cc08   Lc    1   --   De 
    150  g_ui8nCEpins               0x0000cc3c   Lc    1   --   De 
    151  g_ui8Inpen                 0x00010568   Lc    1  Data  De   0x32
    152  g_ui8NCEtable              0x0001059a   Lc    1  Data  De   0xc8
    153  am_hal_interrupt.c         0x00000000   Lc  Abs  File  De 
    154  am_hal_mcuctrl.c           0x00000000   Lc  Abs  File  De 
    155  am_hal_pwrctrl.c           0x00000000   Lc  Abs  File  De 
    156  am_hal_sysctrl.c           0x00000000   Lc  Abs  File  De 
    157  am_hal_systick.c           0x00000000   Lc  Abs  File  De 
    158  am_bsp.c                   0x00000000   Lc  Abs  File  De 
    159  g_ui32PrintInterface       0x10001688   Lc    3  Data  De   0x4
    160  g_sCOMUART                 0x10001684   Lc    3  Data  De   0x4
    161  g_sBspUartConfig           0x00010540   Lc    1  Data  De   0x28
    162  am_hal_itm.c               0x00000000   Lc  Abs  File  De 
    163  am_hal_reset.c             0x00000000   Lc  Abs  File  De 
    164  am_hal_rtc.c               0x00000000   Lc  Abs  File  De 
    165  am_hal_tpiu.c              0x00000000   Lc  Abs  File  De 
    166  am_hal_uart.c              0x00000000   Lc  Abs  File  De 
    167  rx_queue_update            0x0000f7d1   Lc    1  Code  De   0x60
    168  tx_queue_update            0x0000f9d1   Lc    1  Code  De   0x5c
    169  write_nonblocking          0x0000fa81   Lc    1  Code  De   0x76
    170  read_nonblocking           0x0000f731   Lc    1  Code  De   0x9e
    171  g_am_hal_uart_states       0x100014ac   Lc    3  Data  De   0xd0
    172  am_bsp_pins.c              0x00000000   Lc  Abs  File  De 
    173  am_hal_queue.c             0x00000000   Lc  Abs  File  De 
    174  dc.s                       0x00000000   Lc  Abs  File  De 
    175  ../clib/memcpset.s         0x00000000   Lc  Abs  File  De 
    176  .text                      0x0000c1ec   Lc    1  Sect  De   0x44
    177  ../clib/memcpset.s         0x00000000   Lc  Abs  File  De 
    178  .text                      0x0000c230   Lc    1  Sect  De   0x4e
    179  ../clib/heapaux.c          0x00000000   Lc  Abs  File  De 
    180  .text                      0x0000c27e   Lc    1  Sect  De 
    181  ../clib/angel/startup.s    0x00000000   Lc  Abs  File  De 
    182  !!!main                    0x0000c134   Lc    1  Sect  De   0x8
    183  ../clib/angel/handlers.s   0x00000000   Lc  Abs  File  De 
    184  !!handler_copy             0x0000c170   Lc    1  Sect  De   0x1a
    185  ../fplib/d2f.s             0x00000000   Lc  Abs  File  De 
    186  x$fpl$d2f                  0x0000faf8   Lc    1  Sect  De   0x62
    187  $v0                        0x0000faf8   Lc    1   --   De 
    188  ../fplib/dcmp.s            0x00000000   Lc  Abs  File  De 
    189  x$fpl$fcmp                 0x0001010e   Lc    1  Sect  De   0x54
    190  $v0                        0x0001010e   Lc    1   --   De 
    191  ../fplib/ddiv.s            0x00000000   Lc  Abs  File  De 
    192  x$fpl$ddiv                 0x0000fb74   Lc    1  Sect  De   0x2b4
    193  $v0                        0x0000fb74   Lc    1   --   De 
    194  ddiv_entry                 0x0000fb7b   Lc    1  Code  De 
    195  ../fplib/dfixu.s           0x00000000   Lc  Abs  File  De 
    196  x$fpl$dfixu                0x0000fea0   Lc    1  Sect  De   0x5a
    197  $v0                        0x0000fea0   Lc    1   --   De 
    198  ../fplib/dflt.s            0x00000000   Lc  Abs  File  De 
    199  x$fpl$dfltu                0x0000fefa   Lc    1  Sect  De   0x26
    200  $v0                        0x0000fefa   Lc    1   --   De 
    201  ../fplib/f2d.s             0x00000000   Lc  Abs  File  De 
    202  x$fpl$f2d                  0x000100b8   Lc    1  Sect  De   0x56
    203  $v0                        0x000100b8   Lc    1   --   De 
    204  ../clib/angel/kernel.s     0x00000000   Lc  Abs  File  De 
    205  .ARM.Collect$$rtentry$$00000000
                                    0x0000c1b4   Lc    1  Sect  De 
    206  ../fplib/deqf.s            0x00000000   Lc  Abs  File  De 
    207  x$fpl$deqf                 0x0000fe28   Lc    1  Sect  De   0x78
    208  $v0                        0x0000fe28   Lc    1   --   De 
    209  ../fplib/dgeqf.s           0x00000000   Lc  Abs  File  De 
    210  x$fpl$dgeqf                0x0000ff20   Lc    1  Sect  De   0x78
    211  $v0                        0x0000ff20   Lc    1   --   De 
    212  ../fplib/dleqf.s           0x00000000   Lc  Abs  File  De 
    213  x$fpl$dleqf                0x0000ff98   Lc    1  Sect  De   0x78
    214  $v0                        0x0000ff98   Lc    1   --   De 
    215  ../fplib/dnaninf.s         0x00000000   Lc  Abs  File  De 
    216  x$fpl$dnaninf              0x00010010   Lc    1  Sect  De   0x9c
    217  $v0                        0x00010010   Lc    1   --   De 
    218  ../fplib/dretinf.s         0x00000000   Lc  Abs  File  De 
    219  x$fpl$dretinf              0x000100ac   Lc    1  Sect  De   0xc
    220  $v0                        0x000100ac   Lc    1   --   De 
    221  ../fplib/fnaninf.s         0x00000000   Lc  Abs  File  De 
    222  x$fpl$fnaninf              0x00010162   Lc    1  Sect  De   0x8c
    223  $v0                        0x00010162   Lc    1   --   De 
    224  ../fplib/fretinf.s         0x00000000   Lc  Abs  File  De 
    225  x$fpl$fretinf              0x00010208   Lc    1  Sect  De   0xa
    226  $v0                        0x00010208   Lc    1   --   De 
    227  ../fplib/usenofp.s         0x00000000   Lc  Abs  File  De 
    228  x$fpl$usenofp              0x00010212   Lc    1  Sect  De 
    229  ../clib/angel/kernel.s     0x00000000   Lc  Abs  File  De 
    230  .ARM.Collect$$rtentry$$00000002
                                    0x0000c1b4   Lc    1  Sect  De 
    231  .ARM.Collect$$rtentry$$00000009
                                    0x0000c1ba   Lc    1  Sect  De 
    232  .ARM.Collect$$rtentry$$0000000A
                                    0x0000c1ba   Lc    1  Sect  De   0x4
    233  .ARM.Collect$$rtentry$$0000000C
                                    0x0000c1be   Lc    1  Sect  De 
    234  .ARM.Collect$$rtentry$$0000000D
                                    0x0000c1be   Lc    1  Sect  De   0x8
    235  ../clib/angel/kernel.s     0x00000000   Lc  Abs  File  De 
    236  .ARM.Collect$$rtentry$$00000004
                                    0x0000c1b4   Lc    1  Sect  De   0x6
    237  ../fplib/dcmpi.s           0x00000000   Lc  Abs  File  De 
    238  x$fpl$dcmpinf              0x0000fb5a   Lc    1  Sect  De   0x18
    239  $v0                        0x0000fb5a   Lc    1   --   De 
    240  ../clib/angel/sys.s        0x00000000   Lc  Abs  File  De 
    241  .text                      0x0000c284   Lc    1  Sect  De   0x4a
    242  ../clib/stdlib.c           0x00000000   Lc  Abs  File  De 
    243  .text                      0x0000c2ce   Lc    1  Sect  De 
    244  ../clib/angel/boardlib.s   0x00000000   Lc  Abs  File  De 
    245  ../clib/angel/boardlib.s   0x00000000   Lc  Abs  File  De 
    246  ../clib/angel/boardlib.s   0x00000000   Lc  Abs  File  De 
    247  ../clib/libinit.s          0x00000000   Lc  Abs  File  De 
    248  .ARM.Collect$$libinit$$00000000
                                    0x0000c1a8   Lc    1  Sect  De   0x2
    249  ../clib/angel/sys.s        0x00000000   Lc  Abs  File  De 
    250  .text                      0x0000c2e0   Lc    1  Sect  De   0x8
    251  .bss                       0x10001038   Lc    3  Sect  De   0x60
    252  ../clib/angel/kernel.s     0x00000000   Lc  Abs  File  De 
    253  .ARM.Collect$$rtexit$$00000000
                                    0x0000c1c6   Lc    1  Sect  De   0x2
    254  ../clib/libinit.s          0x00000000   Lc  Abs  File  De 
    255  .ARM.Collect$$libinit$$00000001
                                    0x0000c1aa   Lc    1  Sect  De   0x4
    256  .ARM.Collect$$libinit$$00000004
                                    0x0000c1ae   Lc    1  Sect  De 
    257  .ARM.Collect$$libinit$$0000000A
                                    0x0000c1ae   Lc    1  Sect  De 
    258  .ARM.Collect$$libinit$$0000000C
                                    0x0000c1ae   Lc    1  Sect  De 
    259  .ARM.Collect$$libinit$$0000000E
                                    0x0000c1ae   Lc    1  Sect  De 
    260  .ARM.Collect$$libinit$$00000011
                                    0x0000c1ae   Lc    1  Sect  De 
    261  .ARM.Collect$$libinit$$00000013
                                    0x0000c1ae   Lc    1  Sect  De 
    262  .ARM.Collect$$libinit$$00000015
                                    0x0000c1ae   Lc    1  Sect  De 
    263  .ARM.Collect$$libinit$$00000017
                                    0x0000c1ae   Lc    1  Sect  De 
    264  .ARM.Collect$$libinit$$00000019
                                    0x0000c1ae   Lc    1  Sect  De 
    265  .ARM.Collect$$libinit$$0000001B
                                    0x0000c1ae   Lc    1  Sect  De 
    266  .ARM.Collect$$libinit$$0000001D
                                    0x0000c1ae   Lc    1  Sect  De 
    267  .ARM.Collect$$libinit$$0000001F
                                    0x0000c1ae   Lc    1  Sect  De 
    268  .ARM.Collect$$libinit$$00000021
                                    0x0000c1ae   Lc    1  Sect  De 
    269  .ARM.Collect$$libinit$$00000023
                                    0x0000c1ae   Lc    1  Sect  De 
    270  .ARM.Collect$$libinit$$00000025
                                    0x0000c1ae   Lc    1  Sect  De 
    271  .ARM.Collect$$libinit$$0000002C
                                    0x0000c1ae   Lc    1  Sect  De 
    272  .ARM.Collect$$libinit$$0000002E
                                    0x0000c1ae   Lc    1  Sect  De 
    273  .ARM.Collect$$libinit$$00000030
                                    0x0000c1ae   Lc    1  Sect  De 
    274  .ARM.Collect$$libinit$$00000032
                                    0x0000c1ae   Lc    1  Sect  De 
    275  .ARM.Collect$$libinit$$00000033
                                    0x0000c1ae   Lc    1  Sect  De   0x2
    276  ../clib/angel/kernel.s     0x00000000   Lc  Abs  File  De 
    277  .ARM.Collect$$rtexit$$00000002
                                    0x0000c1c8   Lc    1  Sect  De 
    278  .ARM.Collect$$rtexit$$00000003
                                    0x0000c1c8   Lc    1  Sect  De   0x4
    279  .ARM.Collect$$rtexit$$00000004
                                    0x0000c1cc   Lc    1  Sect  De   0x6
    280  ../clib/armsys.c           0x00000000   Lc  Abs  File  De 
    281  ../clib/armsys.c           0x00000000   Lc  Abs  File  De 
    282  ../fplib/fpinit.s          0x00000000   Lc  Abs  File  De 
    283  x$fpl$fpinit               0x000101ee   Lc    1  Sect  De   0x1a
    284  $v0                        0x000101ee   Lc    1   --   De 
    285  ../clib/angel/sysapp.c     0x00000000   Lc  Abs  File  De 
    286  .text                      0x0000c2e8   Lc    1  Sect  De 
    287  ../clib/angel/sysapp.c     0x00000000   Lc  Abs  File  De 
    288  ../clib/angel/boardlib.s   0x00000000   Lc  Abs  File  De 
    289  ../clib/armsys.c           0x00000000   Lc  Abs  File  De 
    290  ../clib/armsys.c           0x00000000   Lc  Abs  File  De 
    291  ../clib/libinit.s          0x00000000   Lc  Abs  File  De 
    292  .ARM.Collect$$libshutdown$$00000000
                                    0x0000c1b0   Lc    1  Sect  De   0x2
    293  ../clib/angel/sysapp.c     0x00000000   Lc  Abs  File  De 
    294  ../clib/angel/sysapp.c     0x00000000   Lc  Abs  File  De 
    295  ../clib/angel/sys.s        0x00000000   Lc  Abs  File  De 
    296  .text                      0x0000c2f4   Lc    1  Sect  De   0x2
    297  ../clib/angel/sys.s        0x00000000   Lc  Abs  File  De 
    298  .text                      0x0000c2f6   Lc    1  Sect  De 
    299  ../clib/heapalloc.c        0x00000000   Lc  Abs  File  De 
    300  ../clib/signal.c           0x00000000   Lc  Abs  File  De 
    301  ../clib/signal.c           0x00000000   Lc  Abs  File  De 
    302  ../clib/libinit.s          0x00000000   Lc  Abs  File  De 
    303  .ARM.Collect$$libshutdown$$00000002
                                    0x0000c1b2   Lc    1  Sect  De 
    304  .ARM.Collect$$libshutdown$$00000004
                                    0x0000c1b2   Lc    1  Sect  De 
    305  .ARM.Collect$$libshutdown$$00000007
                                    0x0000c1b2   Lc    1  Sect  De 
    306  .ARM.Collect$$libshutdown$$0000000A
                                    0x0000c1b2   Lc    1  Sect  De 
    307  .ARM.Collect$$libshutdown$$0000000C
                                    0x0000c1b2   Lc    1  Sect  De 
    308  .ARM.Collect$$libshutdown$$0000000F
                                    0x0000c1b2   Lc    1  Sect  De 
    309  .ARM.Collect$$libshutdown$$00000010
                                    0x0000c1b2   Lc    1  Sect  De   0x2
    310  ../clib/angel/rt.s         0x00000000   Lc  Abs  File  De 
    311  ../clib/signal.c           0x00000000   Lc  Abs  File  De 
    312  ../clib/signal.c           0x00000000   Lc  Abs  File  De 
    313  ../clib/signal.c           0x00000000   Lc  Abs  File  De 
    314  ../clib/signal.c           0x00000000   Lc  Abs  File  De 
    315  ../clib/angel/sysapp.c     0x00000000   Lc  Abs  File  De 
    316  ../clib/angel/sysapp.c     0x00000000   Lc  Abs  File  De 
    317  ../clib/signal.s           0x00000000   Lc  Abs  File  De 
    318  ../clib/signal.c           0x00000000   Lc  Abs  File  De 
    319  ../clib/signal.c           0x00000000   Lc  Abs  File  De 
    320  ../clib/signal.c           0x00000000   Lc  Abs  File  De 
    321  ../clib/signal.c           0x00000000   Lc  Abs  File  De 
    322  ../clib/signal.c           0x00000000   Lc  Abs  File  De 
    323  ../clib/signal.c           0x00000000   Lc  Abs  File  De 
    324  ../clib/signal.c           0x00000000   Lc  Abs  File  De 
    325  ../clib/signal.c           0x00000000   Lc  Abs  File  De 
    326  ../clib/angel/scatter.s    0x00000000   Lc  Abs  File  De 
    327  !!!scatter                 0x0000c13c   Lc    1  Sect  De   0x34
    328  ../clib/angel/handlers.s   0x00000000   Lc  Abs  File  De 
    329  !!handler_zi               0x0000c18c   Lc    1  Sect  De   0x1c
    330  BuildAttributes$$THM_ISAv4$E$P$D$K$B$S$7EM$VFPi3$EXTD16$VFPS$VFMA$PE$A:L22UL41UL21$X:L11$S22US41US21$IEEE1$IW$~IW$USESV6$~STKCKD$USESV7$~SHL$OSPACE$ROPI$EBA8$UX$STANDARDLIB$REQ8$PRES8$EABIv2
                                    0x00000000   Gb  Abs   --   Hi 
    331  __Vectors                  0x0000c000   Gb    1  Data  Hi 
    332  __Patchable                0x0000c0c0   Gb    1  Data  Hi 
    333  Reset_Handler              0x0000c101   Wk    1  Code  Hi   0x1c
    334  NMI_Handler                0x0000c11f   Wk    1  Code  Hi   0x2
    335  MemManage_Handler          0x0000c121   Wk    1  Code  Hi   0x2
    336  BusFault_Handler           0x0000c123   Wk    1  Code  Hi   0x2
    337  UsageFault_Handler         0x0000c125   Wk    1  Code  Hi   0x2
    338  SVC_Handler                0x0000c127   Wk    1  Code  Hi   0x2
    339  DebugMon_Handler           0x0000c129   Wk    1  Code  Hi   0x2
    340  PendSV_Handler             0x0000c12b   Wk    1  Code  Hi   0x2
    341  am_adc_isr                 0x0000c12f   Wk    1  Code  Hi 
    342  am_ble_isr                 0x0000c12f   Wk    1  Code  Hi 
    343  am_brownout_isr            0x0000c12f   Wk    1  Code  Hi 
    344  am_clkgen_isr              0x0000c12f   Wk    1  Code  Hi 
    345  am_ctimer_isr              0x0000c12f   Wk    1  Code  Hi 
    346  am_gpio_isr                0x0000c12f   Wk    1  Code  Hi 
    347  am_iomaster0_isr           0x0000c12f   Wk    1  Code  Hi 
    348  am_iomaster1_isr           0x0000c12f   Wk    1  Code  Hi 
    349  am_iomaster2_isr           0x0000c12f   Wk    1  Code  Hi 
    350  am_iomaster3_isr           0x0000c12f   Wk    1  Code  Hi 
    351  am_iomaster4_isr           0x0000c12f   Wk    1  Code  Hi 
    352  am_iomaster5_isr           0x0000c12f   Wk    1  Code  Hi 
    353  am_ioslave_acc_isr         0x0000c12f   Wk    1  Code  Hi 
    354  am_ioslave_ios_isr         0x0000c12f   Wk    1  Code  Hi 
    355  am_mspi0_isr               0x0000c12f   Wk    1  Code  Hi 
    356  am_pdm0_isr                0x0000c12f   Wk    1  Code  Hi 
    357  am_rtc_isr                 0x0000c12f   Wk    1  Code  Hi 
    358  am_scard_isr               0x0000c12f   Wk    1  Code  Hi 
    359  am_software0_isr           0x0000c12f   Wk    1  Code  Hi 
    360  am_stimer_cmpr0_isr        0x0000c12f   Wk    1  Code  Hi 
    361  am_stimer_cmpr1_isr        0x0000c12f   Wk    1  Code  Hi 
    362  am_stimer_cmpr2_isr        0x0000c12f   Wk    1  Code  Hi 
    363  am_stimer_cmpr3_isr        0x0000c12f   Wk    1  Code  Hi 
    364  am_stimer_cmpr4_isr        0x0000c12f   Wk    1  Code  Hi 
    365  am_stimer_cmpr5_isr        0x0000c12f   Wk    1  Code  Hi 
    366  am_stimer_cmpr6_isr        0x0000c12f   Wk    1  Code  Hi 
    367  am_stimer_cmpr7_isr        0x0000c12f   Wk    1  Code  Hi 
    368  am_stimer_isr              0x0000c12f   Wk    1  Code  Hi 
    369  am_uart0_isr               0x0000c12f   Wk    1  Code  Hi 
    370  am_uart1_isr               0x0000c12f   Wk    1  Code  Hi 
    371  am_uart_isr                0x0000c12f   Wk    1  Code  Hi 
    372  am_vcomp_isr               0x0000c12f   Wk    1  Code  Hi 
    373  am_watchdog_isr            0x0000c12f   Wk    1  Code  Hi 
    374  __main                     0x0000c135   Gb    1  Code  Hi   0x8
    375  __scatterload              0x0000c13d   Gb    1  Code  Hi 
    376  __scatterload_rt2          0x0000c13d   Gb    1  Code  Hi   0x2c
    377  __scatterload_rt2_thumb_only
                                    0x0000c13d   Gb    1  Code  Hi 
    378  __scatterload_null         0x0000c14b   Gb    1  Code  Hi 
    379  __scatterload_copy         0x0000c171   Gb    1  Code  Hi   0x1a
    380  __scatterload_zeroinit     0x0000c18d   Gb    1  Code  Hi   0x1c
    381  __rt_lib_init              0x0000c1a9   Gb    1  Code  De 
    382  __rt_lib_init_fp_1         0x0000c1ab   Gb    1  Code  Hi 
    383  __rt_lib_init_alloca_1     0x0000c1af   Gb    1  Code  Hi 
    384  __rt_lib_init_argv_1       0x0000c1af   Gb    1  Code  Hi 
    385  __rt_lib_init_atexit_1     0x0000c1af   Gb    1  Code  Hi 
    386  __rt_lib_init_clock_1      0x0000c1af   Gb    1  Code  Hi 
    387  __rt_lib_init_cpp_1        0x0000c1af   Gb    1  Code  Hi 
    388  __rt_lib_init_exceptions_1 0x0000c1af   Gb    1  Code  Hi 
    389  __rt_lib_init_fp_trap_1    0x0000c1af   Gb    1  Code  Hi 
    390  __rt_lib_init_getenv_1     0x0000c1af   Gb    1  Code  Hi 
    391  __rt_lib_init_heap_1       0x0000c1af   Gb    1  Code  Hi 
    392  __rt_lib_init_lc_collate_1 0x0000c1af   Gb    1  Code  Hi 
    393  __rt_lib_init_lc_ctype_1   0x0000c1af   Gb    1  Code  Hi 
    394  __rt_lib_init_lc_monetary_1
                                    0x0000c1af   Gb    1  Code  Hi 
    395  __rt_lib_init_lc_numeric_1 0x0000c1af   Gb    1  Code  Hi 
    396  __rt_lib_init_lc_time_1    0x0000c1af   Gb    1  Code  Hi 
    397  __rt_lib_init_preinit_1    0x0000c1af   Gb    1  Code  Hi 
    398  __rt_lib_init_rand_1       0x0000c1af   Gb    1  Code  Hi 
    399  __rt_lib_init_return       0x0000c1af   Gb    1  Code  Hi 
    400  __rt_lib_init_signal_1     0x0000c1af   Gb    1  Code  Hi 
    401  __rt_lib_init_stdio_1      0x0000c1af   Gb    1  Code  Hi 
    402  __rt_lib_init_user_alloc_1 0x0000c1af   Gb    1  Code  Hi 
    403  __rt_lib_shutdown          0x0000c1b1   Gb    1  Code  De 
    404  __rt_lib_shutdown_cpp_1    0x0000c1b3   Gb    1  Code  Hi 
    405  __rt_lib_shutdown_fp_trap_1
                                    0x0000c1b3   Gb    1  Code  Hi 
    406  __rt_lib_shutdown_heap_1   0x0000c1b3   Gb    1  Code  Hi 
    407  __rt_lib_shutdown_return   0x0000c1b3   Gb    1  Code  Hi 
    408  __rt_lib_shutdown_signal_1 0x0000c1b3   Gb    1  Code  Hi 
    409  __rt_lib_shutdown_stdio_1  0x0000c1b3   Gb    1  Code  Hi 
    410  __rt_lib_shutdown_user_alloc_1
                                    0x0000c1b3   Gb    1  Code  Hi 
    411  __rt_entry                 0x0000c1b5   Gb    1  Code  Hi 
    412  __rt_entry_presh_1         0x0000c1b5   Gb    1  Code  Hi 
    413  __rt_entry_sh              0x0000c1b5   Gb    1  Code  Hi 
    414  __rt_entry_li              0x0000c1bb   Gb    1  Code  Hi 
    415  __rt_entry_postsh_1        0x0000c1bb   Gb    1  Code  Hi 
    416  __rt_entry_main            0x0000c1bf   Gb    1  Code  Hi 
    417  __rt_entry_postli_1        0x0000c1bf   Gb    1  Code  Hi 
    418  __rt_exit                  0x0000c1c7   Gb    1  Code  De 
    419  __rt_exit_ls               0x0000c1c9   Gb    1  Code  Hi 
    420  __rt_exit_prels_1          0x0000c1c9   Gb    1  Code  Hi 
    421  __rt_exit_exit             0x0000c1cd   Gb    1  Code  Hi 
    422  __user_initial_stackheap   0x0000c1d5   Gb    1  Code  Hi   0xa
    423  __aeabi_memclr             0x0000c1ed   Gb    1  Code  De 
    424  __rt_memclr                0x0000c1ed   Gb    1  Code  De 
    425  _memset                    0x0000c1f1   Gb    1  Code  De   0x40
    426  __aeabi_memclr4            0x0000c231   Gb    1  Code  De 
    427  __aeabi_memclr8            0x0000c231   Gb    1  Code  De 
    428  __rt_memclr_w              0x0000c231   Gb    1  Code  De 
    429  _memset_w                  0x0000c235   Gb    1  Code  De   0x4a
    430  __use_two_region_memory    0x0000c27f   Gb    1  Code  Hi   0x2
    431  __rt_heap_escrow$2region   0x0000c281   Gb    1  Code  De   0x2
    432  __rt_heap_expand$2region   0x0000c283   Gb    1  Code  De   0x2
    433  __user_setup_stackheap     0x0000c285   Gb    1  Code  De   0x4a
    434  exit                       0x0000c2cf   Gb    1  Code  De   0x12
    435  __user_libspace            0x0000c2e1   Wk    1  Code  De   0x8
    436  __user_perproc_libspace    0x0000c2e1   Wk    1  Code  De 
    437  __user_perthread_libspace  0x0000c2e1   Wk    1  Code  De 
    438  _sys_exit                  0x0000c2e9   Gb    1  Code  De   0x8
    439  __I$use$semihosting        0x0000c2f5   Gb    1  Code  Hi 
    440  __use_no_semihosting_swi   0x0000c2f5   Gb    1  Code  Hi   0x2
    441  HardFault_Handler          0x0000c2f7   Gb    1  Code  Hi   0x1a
    442  __semihosting_library_function
                                    0x0000c2f7   Gb    1  Code  Hi 
    443  SysTick_Handler            0x0000c311   Gb    1  Code  Hi   0x10
    444  am_bsp_low_power_init      0x0000c321   Gb    1  Code  Hi   0x46
    445  am_bsp_uart_printf_disable 0x0000c367   Gb    1  Code  Hi   0x44
    446  am_bsp_uart_printf_enable  0x0000c3ab   Gb    1  Code  Hi   0x66
    447  am_bsp_uart_string_print   0x0000c411   Gb    1  Code  Hi   0x42
    448  am_devices_led_array_init  0x0000c455   Gb    1  Code  Hi   0x26
    449  am_devices_led_array_out   0x0000c47d   Gb    1  Code  Hi   0x36
    450  am_devices_led_init        0x0000c4b3   Gb    1  Code  Hi   0x42
    451  am_devices_led_off         0x0000c4f5   Gb    1  Code  Hi   0x28
    452  am_devices_led_on          0x0000c51d   Gb    1  Code  Hi   0x26
    453  am_hal_burst_mode_enable   0x0000c543   Gb    1  Code  Hi   0x56
    454  am_hal_burst_mode_initialize
                                    0x0000c599   Gb    1  Code  Hi   0x80
    455  am_hal_cachectrl_config    0x0000c619   Gb    1  Code  Hi   0x48
    456  am_hal_cachectrl_control   0x0000c661   Gb    1  Code  Hi   0x16c
    457  am_hal_cachectrl_enable    0x0000c7cd   Gb    1  Code  Hi   0x14
    458  am_hal_clkgen_control      0x0000c7e1   Gb    1  Code  Hi   0x138
    459  am_hal_clkgen_status_get   0x0000c919   Gb    1  Code  Hi   0x38
    460  am_hal_flash_delay         0x0000c951   Gb    1  Code  Hi   0x2a
    461  am_hal_flash_delay_status_check
                                    0x0000c97d   Gb    1  Code  Hi   0x70
    462  am_hal_flash_load_ui32     0x0000c9ed   Gb    1  Code  Hi   0x8
    463  am_hal_flash_store_ui32    0x0000c9f5   Gb    1  Code  Hi   0x22
    464  am_hal_gpio_pinconfig      0x0000ca19   Gb    1  Code  Hi   0x1f0
    465  am_hal_gpio_state_write    0x0000cc71   Gb    1  Code  Hi   0x98
    466  am_hal_interrupt_master_disable
                                    0x0000cd09   Gb    1  Code  Hi   0x8
    467  am_hal_interrupt_master_enable
                                    0x0000cd11   Gb    1  Code  Hi   0x8
    468  am_hal_interrupt_master_set
                                    0x0000cd19   Gb    1  Code  Hi   0x6
    469  am_hal_mcuctrl_info_get    0x0000cd1f   Gb    1  Code  Hi   0x11a
    470  am_hal_pwrctrl_blebuck_trim
                                    0x0000ce39   Gb    1  Code  Hi   0x52
    471  am_hal_pwrctrl_low_power_init
                                    0x0000ce8b   Gb    1  Code  Hi   0x12a
    472  am_hal_pwrctrl_memory_enable
                                    0x0000cfb5   Gb    1  Code  Hi   0x74
    473  am_hal_pwrctrl_periph_disable
                                    0x0000d029   Gb    1  Code  Hi   0x88
    474  am_hal_pwrctrl_periph_enable
                                    0x0000d0b1   Gb    1  Code  Hi   0x6e
    475  am_hal_queue_init          0x0000d11f   Gb    1  Code  Hi   0x18
    476  am_hal_queue_item_add      0x0000d139   Gb    1  Code  Hi   0x66
    477  am_hal_queue_item_get      0x0000d1a1   Gb    1  Code  Hi   0x60
    478  am_hal_rtc_osc_disable     0x0000d201   Gb    1  Code  Hi   0x12
    479  am_hal_sysctrl_fpu_enable  0x0000d213   Gb    1  Code  Hi   0x10
    480  am_hal_sysctrl_fpu_stacking_enable
                                    0x0000d223   Gb    1  Code  Hi   0x36
    481  am_hal_systick_count       0x0000d259   Gb    1  Code  Hi   0xc
    482  am_hal_systick_int_enable  0x0000d265   Gb    1  Code  Hi   0x12
    483  am_hal_systick_load        0x0000d277   Gb    1  Code  Hi   0x10
    484  am_hal_systick_reset       0x0000d287   Gb    1  Code  Hi   0xe
    485  am_hal_systick_start       0x0000d295   Gb    1  Code  Hi   0x12
    486  am_hal_systick_stop        0x0000d2a7   Gb    1  Code  Hi   0x12
    487  am_hal_uart_configure      0x0000d2b9   Gb    1  Code  Hi   0x218
    488  am_hal_uart_deinitialize   0x0000d4e1   Gb    1  Code  Hi   0x28
    489  am_hal_uart_initialize     0x0000d509   Gb    1  Code  Hi   0x54
    490  am_hal_uart_power_control  0x0000d55d   Gb    1  Code  Hi   0xea
    491  am_hal_uart_transfer       0x0000d649   Gb    1  Code  Hi   0x112
    492  am_hal_uart_tx_flush       0x0000d75d   Gb    1  Code  Hi   0x66
    493  am_sprintf                 0x0000d7c5   Gb    1  Code  Hi   0x88
    494  am_util_delay_ms           0x0000d875   Gb    1  Code  Hi   0x26
    495  am_util_faultisr_collect_data
                                    0x0000d89d   Gb    1  Code  Hi   0xaa
    496  am_util_stdio_printf       0x0000d947   Gb    1  Code  Hi   0x46
    497  am_util_stdio_printf_init  0x0000d98d   Gb    1  Code  Hi   0xc
    498  am_util_stdio_sprintf      0x0000d999   Gb    1  Code  Hi   0x1c
    499  am_util_stdio_vsprintf     0x0000d9b5   Gb    1  Code  Hi   0x714
    500  calc_func                  0x0000e0c9   Gb    1  Code  Hi   0x7e
    501  check_data_types           0x0000e147   Gb    1  Code  Hi   0x4
    502  cmp_complex                0x0000e14b   Gb    1  Code  Hi   0x1e
    503  cmp_idx                    0x0000e169   Gb    1  Code  Hi   0x16
    504  core_bench_list            0x0000e181   Gb    1  Code  Hi   0x154
    505  core_bench_matrix          0x0000e2d5   Gb    1  Code  Hi   0x26
    506  core_bench_state           0x0000e2fd   Gb    1  Code  Hi   0xda
    507  core_init_matrix           0x0000e3d9   Gb    1  Code  Hi   0xb8
    508  core_init_state            0x0000e491   Gb    1  Code  Hi   0x84
    509  core_list_find             0x0000e555   Gb    1  Code  Hi   0x3a
    510  core_list_init             0x0000e591   Gb    1  Code  Hi   0xf6
    511  core_list_mergesort        0x0000e689   Gb    1  Code  Hi   0xce
    512  core_state_transition      0x0000e759   Gb    1  Code  Hi   0x120
    513  crc16                      0x0000e879   Gb    1  Code  Hi   0x6
    514  crcu16                     0x0000e881   Gb    1  Code  Hi   0x50
    515  crcu32                     0x0000e8d1   Gb    1  Code  Hi   0x16
    516  getStackedReg              0x0000e9ff   Gb    1  Code  Hi   0x8
    517  get_seed_32                0x0000ea09   Gb    1  Code  Hi   0x14
    518  get_time                   0x0000ea31   Gb    1  Code  Hi   0x18
    519  iterate                    0x0000ea49   Gb    1  Code  Hi   0x40
    520  main                       0x0000ea89   Gb    1  Code  Hi   0x30
    521  main_loop                  0x0000eab9   Gb    1  Code  Hi   0x70c
    522  matrix_mul_matrix          0x0000f1c5   Gb    1  Code  Hi   0x62
    523  matrix_mul_matrix_bitextract
                                    0x0000f229   Gb    1  Code  Hi   0x6e
    524  matrix_sum                 0x0000f299   Gb    1  Code  Hi   0x48
    525  matrix_test                0x0000f2e1   Gb    1  Code  Hi   0x106
    526  portable_fini              0x0000f3e9   Gb    1  Code  Hi   0x114
    527  portable_init              0x0000f549   Gb    1  Code  Hi   0x160
    528  start_time                 0x0000f8f7   Gb    1  Code  Hi   0x56
    529  stop_time                  0x0000f94d   Gb    1  Code  Hi   0x3e
    530  time_in_secs               0x0000f991   Gb    1  Code  Hi   0x40
    531  __aeabi_d2f                0x0000faf9   Gb    1  Code  De 
    532  _d2f                       0x0000faf9   Gb    1  Code  De   0x62
    533  __fpl_dcmp_Inf             0x0000fb5b   Gb    1  Code  De   0x18
    534  __aeabi_ddiv               0x0000fb75   Gb    1  Code  De 
    535  _ddiv                      0x0000fb75   Gb    1  Code  De   0x22c
    536  __aeabi_cdcmpeq            0x0000fe29   Gb    1  Code  De 
    537  _dcmpeq                    0x0000fe29   Gb    1  Code  De   0x78
    538  __aeabi_d2uiz              0x0000fea1   Gb    1  Code  De 
    539  _dfixu                     0x0000fea1   Gb    1  Code  De   0x5a
    540  __aeabi_ui2d               0x0000fefb   Gb    1  Code  De 
    541  _dfltu                     0x0000fefb   Gb    1  Code  De   0x26
    542  __aeabi_cdcmpge            0x0000ff21   Gb    1  Code  De 
    543  _dcmpge                    0x0000ff21   Gb    1  Code  De   0x78
    544  __aeabi_cdcmple            0x0000ff99   Gb    1  Code  De 
    545  _dcmple                    0x0000ff99   Gb    1  Code  De   0x78
    546  __fpl_dcmple_InfNaN        0x0000fffb   Gb    1  Code  Pr 
    547  __fpl_dnaninf              0x00010011   Gb    1  Code  De   0x9c
    548  __fpl_dretinf              0x000100ad   Gb    1  Code  De   0xc
    549  __aeabi_f2d                0x000100b9   Gb    1  Code  De 
    550  _f2d                       0x000100b9   Gb    1  Code  De   0x56
    551  __aeabi_dcmpeq             0x0001010f   Gb    1  Code  De 
    552  _deq                       0x0001010f   Gb    1  Code  De   0xe
    553  _dneq                      0x0001011d   Gb    1  Code  De   0xe
    554  __aeabi_dcmpgt             0x0001012b   Gb    1  Code  De 
    555  _dgr                       0x0001012b   Gb    1  Code  De   0xe
    556  __aeabi_dcmpge             0x00010139   Gb    1  Code  De 
    557  _dgeq                      0x00010139   Gb    1  Code  De   0xe
    558  __aeabi_dcmple             0x00010147   Gb    1  Code  De 
    559  _dleq                      0x00010147   Gb    1  Code  De   0xe
    560  __aeabi_dcmplt             0x00010155   Gb    1  Code  De 
    561  _dls                       0x00010155   Gb    1  Code  De   0xe
    562  __fpl_fnaninf              0x00010163   Gb    1  Code  De   0x8c
    563  _fp_init                   0x000101ef   Gb    1  Code  De   0x1a
    564  __fplib_config_fpu_vfp     0x00010207   Gb    1  Code  De 
    565  __fplib_config_pureend_doubles
                                    0x00010207   Gb    1  Code  De 
    566  __fpl_fretinf              0x00010209   Gb    1  Code  De   0xa
    567  __I$use$fp                 0x00010212   Gb    1   --   De 
    568  am_hal_cachectrl_defaults  0x00010223   Gb    1  Data  Hi   0x3
    569  am_hal_pwrctrl_memory_control
                                    0x00010228   Gb    1  Data  Hi   0x1b0
    570  am_hal_pwrctrl_peripheral_control
                                    0x000103d8   Gb    1  Data  Hi   0xb4
    571  g_AM_BSP_GPIO_COM_UART_RX  0x000104ac   Gb    1  Data  Hi   0x4
    572  g_AM_BSP_GPIO_COM_UART_TX  0x000104b0   Gb    1  Data  Hi   0x4
    573  g_AM_HAL_GPIO_DISABLE      0x000104b4   Gb    1  Data  Hi   0x4
    574  g_AM_HAL_GPIO_OUTPUT       0x000104b8   Gb    1  Data  Hi   0x4
    575  g_AM_HAL_GPIO_TRISTATE     0x000104bc   Gb    1  Data  Hi   0x4
    576  g_am_hal_mcuctrl_flash_size
                                    0x000104c0   Gb    1  Data  Hi   0x40
    577  g_am_hal_mcuctrl_sram_size 0x00010500   Gb    1  Data  Hi   0x40
    578  Region$$Table$$Base        0x00010bec   Gb    1   --   Hi 
    579  Region$$Table$$Limit       0x00010c0c   Gb    1   --   Hi 
    580  am_bsp_psLEDs              0x10000000   Gb    2  Data  Hi   0x28
    581  default_num_contexts       0x10000028   Gb    2  Data  Hi   0x4
    582  seed3_volatile             0x1000002c   Gb    2  Data  Hi   0x4
    583  seed4_volatile             0x10000030   Gb    2  Data  Hi   0x4
    584  __libspace_start           0x10001038   Gb    3  Data  De   0x60
    585  __temporary_stack_top$libspace
                                    0x10001098   Gb    3  Data  De 
    586  am_bufcnt                  0x10001098   Gb    3  Data  Hi   0x4
    587  am_pcBuf                   0x1000109c   Gb    3  Data  Hi   0x4
    588  am_prtbuf                  0x100010a0   Gb    3  Data  Hi   0x400
    589  eBurstMode                 0x100014a0   Gb    3  Data  Hi   0x1
    590  gAmHalResetStatus          0x100014a4   Gb    3  Data  Hi   0x4
    591  g_am_hal_burst_mode_available
                                    0x100014a8   Gb    3  Data  Hi   0x1
    592  g_eAmbClkSpd               0x1000157d   Gb    3  Data  Hi   0x1
    593  g_pfnCharPrint             0x10001580   Gb    3  Data  Hi   0x4
    594  g_ui32SysTickWrappedTime   0x1000168c   Gb    3  Data  Hi   0x4
    595  seed1_volatile             0x10001690   Gb    3  Data  Hi   0x4
    596  seed2_volatile             0x10001694   Gb    3  Data  Hi   0x4
    597  seed5_volatile             0x10001698   Gb    3  Data  Hi   0x4


** Section #12 '.strtab' (SHT_STRTAB)
    Size   : 8728 bytes

            #  Offset String
        ====================================

            1      1: $d
            2      4: $t
            3      7: $t.0
            4     12: $d.4
            5     17: $t.5
            6     22: $d.1
            7     27: $t.2
            8     32: $d.3
            9     37: $t.7
           10     42: $d.8
           11     47: $t.9
           12     52: $d.5
           13     57: $t.1
           14     62: $d.11
           15     68: $d.2
           16     73: $t.3
           17     78: $t.4
           18     83: $t.6
           19     88: $d.6
           20     93: $t.20
           21     99: $t.13
           22    105: $d.realdata
           23    117: am_time.c
           24    127: coremark.c
           25    138: core_list_join.c
           26    155: core_main.c
           27    167: .L.str.15
           28    177: .L.str.33
           29    187: .L.str.6
           30    196: .L.str.5
           31    205: .L.str.32
           32    215: .L.str.26
           33    225: .L.str.31
           34    235: .L.str.14
           35    245: .L.str.13
           36    255: .L.str.19
           37    265: .L.str.17
           38    275: .L.str.16
           39    285: .L.str.11
           40    295: .L.str.12
           41    305: .L.str.21
           42    315: .L.str.22
           43    325: .L.str.24
           44    335: .L.str.25
           45    345: .L.str.23
           46    355: .L.str.10
           47    365: .L.str.8
           48    374: .L.str.9
           49    383: .L.str.18
           50    393: .L.str.28
           51    403: .L.str.20
           52    413: .L.str.29
           53    423: .L.str.27
           54    433: list_known_crc
           55    448: matrix_known_crc
           56    465: state_known_crc
           57    481: core_matrix.c
           58    495: core_portme.c
           59    509: start_time_val
           60    524: stop_time_val
           61    538: .L__const.portable_init.am_hal_cachectrl_benchmark
           62    589: .L.str.4
           63    598: .L.str.3
           64    607: .L.str.7
           65    616: core_state.c
           66    629: intpat
           67    636: floatpat
           68    645: scipat
           69    652: errpat
           70    659: core_util.c
           71    671: am_util_delay.c
           72    687: am_util_faultisr.c
           73    706: am_util_stdio.c
           74    722: decstr_to_int
           75    736: uint64_to_str
           76    750: divu64_10
           77    760: g_bTxtXlate
           78    772: g_prfbuf
           79    781: am_devices_led.c
           80    798: ../keil6/startup_keil6.s
           81    823: STACK
           82    829: StackMem
           83    838: HEAP
           84    843: HeapMem
           85    851: RESET
           86    857: $v0
           87    861: .text
           88    867: am_hal_global.c
           89    883: am_hal_burst.c
           90    898: am_hal_cachectrl.c
           91    917: set_LPMMODE
           92    929: set_SEDELAY
           93    941: set_RDWAIT
           94    952: am_hal_clkgen.c
           95    968: am_hal_flash.c
           96    983: .L__const.am_hal_flash_store_ui32.SRAM_write_ui32
           97   1033: am_hal_gpio.c
           98   1047: g_ui8Bit76Capabilities
           99   1070: g_ui8nCEpins
          100   1083: g_ui8Inpen
          101   1094: g_ui8NCEtable
          102   1108: am_hal_interrupt.c
          103   1127: am_hal_mcuctrl.c
          104   1144: am_hal_pwrctrl.c
          105   1161: am_hal_sysctrl.c
          106   1178: am_hal_systick.c
          107   1195: am_bsp.c
          108   1204: g_ui32PrintInterface
          109   1225: g_sCOMUART
          110   1236: g_sBspUartConfig
          111   1253: am_hal_itm.c
          112   1266: am_hal_reset.c
          113   1281: am_hal_rtc.c
          114   1294: am_hal_tpiu.c
          115   1308: am_hal_uart.c
          116   1322: rx_queue_update
          117   1338: tx_queue_update
          118   1354: write_nonblocking
          119   1372: read_nonblocking
          120   1389: g_am_hal_uart_states
          121   1410: am_bsp_pins.c
          122   1424: am_hal_queue.c
          123   1439: dc.s
          124   1444: ../clib/memcpset.s
          125   1463: ../clib/heapaux.c
          126   1481: ../clib/angel/startup.s
          127   1505: !!!main
          128   1513: ../clib/angel/handlers.s
          129   1538: !!handler_copy
          130   1553: ../fplib/d2f.s
          131   1568: x$fpl$d2f
          132   1578: ../fplib/dcmp.s
          133   1594: x$fpl$fcmp
          134   1605: ../fplib/ddiv.s
          135   1621: x$fpl$ddiv
          136   1632: ddiv_entry
          137   1643: ../fplib/dfixu.s
          138   1660: x$fpl$dfixu
          139   1672: ../fplib/dflt.s
          140   1688: x$fpl$dfltu
          141   1700: ../fplib/f2d.s
          142   1715: x$fpl$f2d
          143   1725: ../clib/angel/kernel.s
          144   1748: .ARM.Collect$$rtentry$$00000000
          145   1780: ../fplib/deqf.s
          146   1796: x$fpl$deqf
          147   1807: ../fplib/dgeqf.s
          148   1824: x$fpl$dgeqf
          149   1836: ../fplib/dleqf.s
          150   1853: x$fpl$dleqf
          151   1865: ../fplib/dnaninf.s
          152   1884: x$fpl$dnaninf
          153   1898: ../fplib/dretinf.s
          154   1917: x$fpl$dretinf
          155   1931: ../fplib/fnaninf.s
          156   1950: x$fpl$fnaninf
          157   1964: ../fplib/fretinf.s
          158   1983: x$fpl$fretinf
          159   1997: ../fplib/usenofp.s
          160   2016: x$fpl$usenofp
          161   2030: .ARM.Collect$$rtentry$$00000002
          162   2062: .ARM.Collect$$rtentry$$00000009
          163   2094: .ARM.Collect$$rtentry$$0000000A
          164   2126: .ARM.Collect$$rtentry$$0000000C
          165   2158: .ARM.Collect$$rtentry$$0000000D
          166   2190: .ARM.Collect$$rtentry$$00000004
          167   2222: ../fplib/dcmpi.s
          168   2239: x$fpl$dcmpinf
          169   2253: ../clib/angel/sys.s
          170   2273: ../clib/stdlib.c
          171   2290: ../clib/angel/boardlib.s
          172   2315: ../clib/libinit.s
          173   2333: .ARM.Collect$$libinit$$00000000
          174   2365: .bss
          175   2370: .ARM.Collect$$rtexit$$00000000
          176   2401: .ARM.Collect$$libinit$$00000001
          177   2433: .ARM.Collect$$libinit$$00000004
          178   2465: .ARM.Collect$$libinit$$0000000A
          179   2497: .ARM.Collect$$libinit$$0000000C
          180   2529: .ARM.Collect$$libinit$$0000000E
          181   2561: .ARM.Collect$$libinit$$00000011
          182   2593: .ARM.Collect$$libinit$$00000013
          183   2625: .ARM.Collect$$libinit$$00000015
          184   2657: .ARM.Collect$$libinit$$00000017
          185   2689: .ARM.Collect$$libinit$$00000019
          186   2721: .ARM.Collect$$libinit$$0000001B
          187   2753: .ARM.Collect$$libinit$$0000001D
          188   2785: .ARM.Collect$$libinit$$0000001F
          189   2817: .ARM.Collect$$libinit$$00000021
          190   2849: .ARM.Collect$$libinit$$00000023
          191   2881: .ARM.Collect$$libinit$$00000025
          192   2913: .ARM.Collect$$libinit$$0000002C
          193   2945: .ARM.Collect$$libinit$$0000002E
          194   2977: .ARM.Collect$$libinit$$00000030
          195   3009: .ARM.Collect$$libinit$$00000032
          196   3041: .ARM.Collect$$libinit$$00000033
          197   3073: .ARM.Collect$$rtexit$$00000002
          198   3104: .ARM.Collect$$rtexit$$00000003
          199   3135: .ARM.Collect$$rtexit$$00000004
          200   3166: ../clib/armsys.c
          201   3183: ../fplib/fpinit.s
          202   3201: x$fpl$fpinit
          203   3214: ../clib/angel/sysapp.c
          204   3237: .ARM.Collect$$libshutdown$$00000000
          205   3273: ../clib/heapalloc.c
          206   3293: ../clib/signal.c
          207   3310: .ARM.Collect$$libshutdown$$00000002
          208   3346: .ARM.Collect$$libshutdown$$00000004
          209   3382: .ARM.Collect$$libshutdown$$00000007
          210   3418: .ARM.Collect$$libshutdown$$0000000A
          211   3454: .ARM.Collect$$libshutdown$$0000000C
          212   3490: .ARM.Collect$$libshutdown$$0000000F
          213   3526: .ARM.Collect$$libshutdown$$00000010
          214   3562: ../clib/angel/rt.s
          215   3581: ../clib/signal.s
          216   3598: ../clib/angel/scatter.s
          217   3622: !!!scatter
          218   3633: !!handler_zi
          219   3646: BuildAttributes$$THM_ISAv4$E$P$D$K$B$S$7EM$VFPi3$EXTD16$VFPS$VFMA$PE$A:L22UL41UL21$X:L11$S22US41US21$IEEE1$IW$~IW$USESV6$~STKCKD$USESV7$~SHL$OSPACE$ROPI$EBA8$UX$STANDARDLIB$REQ8$PRES8$EABIv2
          220   3837: __Vectors
          221   3847: __Patchable
          222   3859: Reset_Handler
          223   3873: NMI_Handler
          224   3885: MemManage_Handler
          225   3903: BusFault_Handler
          226   3920: UsageFault_Handler
          227   3939: SVC_Handler
          228   3951: DebugMon_Handler
          229   3968: PendSV_Handler
          230   3983: am_adc_isr
          231   3994: am_ble_isr
          232   4005: am_brownout_isr
          233   4021: am_clkgen_isr
          234   4035: am_ctimer_isr
          235   4049: am_gpio_isr
          236   4061: am_iomaster0_isr
          237   4078: am_iomaster1_isr
          238   4095: am_iomaster2_isr
          239   4112: am_iomaster3_isr
          240   4129: am_iomaster4_isr
          241   4146: am_iomaster5_isr
          242   4163: am_ioslave_acc_isr
          243   4182: am_ioslave_ios_isr
          244   4201: am_mspi0_isr
          245   4214: am_pdm0_isr
          246   4226: am_rtc_isr
          247   4237: am_scard_isr
          248   4250: am_software0_isr
          249   4267: am_stimer_cmpr0_isr
          250   4287: am_stimer_cmpr1_isr
          251   4307: am_stimer_cmpr2_isr
          252   4327: am_stimer_cmpr3_isr
          253   4347: am_stimer_cmpr4_isr
          254   4367: am_stimer_cmpr5_isr
          255   4387: am_stimer_cmpr6_isr
          256   4407: am_stimer_cmpr7_isr
          257   4427: am_stimer_isr
          258   4441: am_uart0_isr
          259   4454: am_uart1_isr
          260   4467: am_uart_isr
          261   4479: am_vcomp_isr
          262   4492: am_watchdog_isr
          263   4508: __main
          264   4515: __scatterload
          265   4529: __scatterload_rt2
          266   4547: __scatterload_rt2_thumb_only
          267   4576: __scatterload_null
          268   4595: __scatterload_copy
          269   4614: __scatterload_zeroinit
          270   4637: __rt_lib_init
          271   4651: __rt_lib_init_fp_1
          272   4670: __rt_lib_init_alloca_1
          273   4693: __rt_lib_init_argv_1
          274   4714: __rt_lib_init_atexit_1
          275   4737: __rt_lib_init_clock_1
          276   4759: __rt_lib_init_cpp_1
          277   4779: __rt_lib_init_exceptions_1
          278   4806: __rt_lib_init_fp_trap_1
          279   4830: __rt_lib_init_getenv_1
          280   4853: __rt_lib_init_heap_1
          281   4874: __rt_lib_init_lc_collate_1
          282   4901: __rt_lib_init_lc_ctype_1
          283   4926: __rt_lib_init_lc_monetary_1
          284   4954: __rt_lib_init_lc_numeric_1
          285   4981: __rt_lib_init_lc_time_1
          286   5005: __rt_lib_init_preinit_1
          287   5029: __rt_lib_init_rand_1
          288   5050: __rt_lib_init_return
          289   5071: __rt_lib_init_signal_1
          290   5094: __rt_lib_init_stdio_1
          291   5116: __rt_lib_init_user_alloc_1
          292   5143: __rt_lib_shutdown
          293   5161: __rt_lib_shutdown_cpp_1
          294   5185: __rt_lib_shutdown_fp_trap_1
          295   5213: __rt_lib_shutdown_heap_1
          296   5238: __rt_lib_shutdown_return
          297   5263: __rt_lib_shutdown_signal_1
          298   5290: __rt_lib_shutdown_stdio_1
          299   5316: __rt_lib_shutdown_user_alloc_1
          300   5347: __rt_entry
          301   5358: __rt_entry_presh_1
          302   5377: __rt_entry_sh
          303   5391: __rt_entry_li
          304   5405: __rt_entry_postsh_1
          305   5425: __rt_entry_main
          306   5441: __rt_entry_postli_1
          307   5461: __rt_exit
          308   5471: __rt_exit_ls
          309   5484: __rt_exit_prels_1
          310   5502: __rt_exit_exit
          311   5517: __user_initial_stackheap
          312   5542: __aeabi_memclr
          313   5557: __rt_memclr
          314   5569: _memset
          315   5577: __aeabi_memclr4
          316   5593: __aeabi_memclr8
          317   5609: __rt_memclr_w
          318   5623: _memset_w
          319   5633: __use_two_region_memory
          320   5657: __rt_heap_escrow$2region
          321   5682: __rt_heap_expand$2region
          322   5707: __user_setup_stackheap
          323   5730: exit
          324   5735: __user_libspace
          325   5751: __user_perproc_libspace
          326   5775: __user_perthread_libspace
          327   5801: _sys_exit
          328   5811: __I$use$semihosting
          329   5831: __use_no_semihosting_swi
          330   5856: HardFault_Handler
          331   5874: __semihosting_library_function
          332   5905: SysTick_Handler
          333   5921: am_bsp_low_power_init
          334   5943: am_bsp_uart_printf_disable
          335   5970: am_bsp_uart_printf_enable
          336   5996: am_bsp_uart_string_print
          337   6021: am_devices_led_array_init
          338   6047: am_devices_led_array_out
          339   6072: am_devices_led_init
          340   6092: am_devices_led_off
          341   6111: am_devices_led_on
          342   6129: am_hal_burst_mode_enable
          343   6154: am_hal_burst_mode_initialize
          344   6183: am_hal_cachectrl_config
          345   6207: am_hal_cachectrl_control
          346   6232: am_hal_cachectrl_enable
          347   6256: am_hal_clkgen_control
          348   6278: am_hal_clkgen_status_get
          349   6303: am_hal_flash_delay
          350   6322: am_hal_flash_delay_status_check
          351   6354: am_hal_flash_load_ui32
          352   6377: am_hal_flash_store_ui32
          353   6401: am_hal_gpio_pinconfig
          354   6423: am_hal_gpio_state_write
          355   6447: am_hal_interrupt_master_disable
          356   6479: am_hal_interrupt_master_enable
          357   6510: am_hal_interrupt_master_set
          358   6538: am_hal_mcuctrl_info_get
          359   6562: am_hal_pwrctrl_blebuck_trim
          360   6590: am_hal_pwrctrl_low_power_init
          361   6620: am_hal_pwrctrl_memory_enable
          362   6649: am_hal_pwrctrl_periph_disable
          363   6679: am_hal_pwrctrl_periph_enable
          364   6708: am_hal_queue_init
          365   6726: am_hal_queue_item_add
          366   6748: am_hal_queue_item_get
          367   6770: am_hal_rtc_osc_disable
          368   6793: am_hal_sysctrl_fpu_enable
          369   6819: am_hal_sysctrl_fpu_stacking_enable
          370   6854: am_hal_systick_count
          371   6875: am_hal_systick_int_enable
          372   6901: am_hal_systick_load
          373   6921: am_hal_systick_reset
          374   6942: am_hal_systick_start
          375   6963: am_hal_systick_stop
          376   6983: am_hal_uart_configure
          377   7005: am_hal_uart_deinitialize
          378   7030: am_hal_uart_initialize
          379   7053: am_hal_uart_power_control
          380   7079: am_hal_uart_transfer
          381   7100: am_hal_uart_tx_flush
          382   7121: am_sprintf
          383   7132: am_util_delay_ms
          384   7149: am_util_faultisr_collect_data
          385   7179: am_util_stdio_printf
          386   7200: am_util_stdio_printf_init
          387   7226: am_util_stdio_sprintf
          388   7248: am_util_stdio_vsprintf
          389   7271: calc_func
          390   7281: check_data_types
          391   7298: cmp_complex
          392   7310: cmp_idx
          393   7318: core_bench_list
          394   7334: core_bench_matrix
          395   7352: core_bench_state
          396   7369: core_init_matrix
          397   7386: core_init_state
          398   7402: core_list_find
          399   7417: core_list_init
          400   7432: core_list_mergesort
          401   7452: core_state_transition
          402   7474: crc16
          403   7480: crcu16
          404   7487: crcu32
          405   7494: getStackedReg
          406   7508: get_seed_32
          407   7520: get_time
          408   7529: iterate
          409   7537: main
          410   7542: main_loop
          411   7552: matrix_mul_matrix
          412   7570: matrix_mul_matrix_bitextract
          413   7599: matrix_sum
          414   7610: matrix_test
          415   7622: portable_fini
          416   7636: portable_init
          417   7650: start_time
          418   7661: stop_time
          419   7671: time_in_secs
          420   7684: __aeabi_d2f
          421   7696: _d2f
          422   7701: __fpl_dcmp_Inf
          423   7716: __aeabi_ddiv
          424   7729: _ddiv
          425   7735: __aeabi_cdcmpeq
          426   7751: _dcmpeq
          427   7759: __aeabi_d2uiz
          428   7773: _dfixu
          429   7780: __aeabi_ui2d
          430   7793: _dfltu
          431   7800: __aeabi_cdcmpge
          432   7816: _dcmpge
          433   7824: __aeabi_cdcmple
          434   7840: _dcmple
          435   7848: __fpl_dcmple_InfNaN
          436   7868: __fpl_dnaninf
          437   7882: __fpl_dretinf
          438   7896: __aeabi_f2d
          439   7908: _f2d
          440   7913: __aeabi_dcmpeq
          441   7928: _deq
          442   7933: _dneq
          443   7939: __aeabi_dcmpgt
          444   7954: _dgr
          445   7959: __aeabi_dcmpge
          446   7974: _dgeq
          447   7980: __aeabi_dcmple
          448   7995: _dleq
          449   8001: __aeabi_dcmplt
          450   8016: _dls
          451   8021: __fpl_fnaninf
          452   8035: _fp_init
          453   8044: __fplib_config_fpu_vfp
          454   8067: __fplib_config_pureend_doubles
          455   8098: __fpl_fretinf
          456   8112: __I$use$fp
          457   8123: am_hal_cachectrl_defaults
          458   8149: am_hal_pwrctrl_memory_control
          459   8179: am_hal_pwrctrl_peripheral_control
          460   8213: g_AM_BSP_GPIO_COM_UART_RX
          461   8239: g_AM_BSP_GPIO_COM_UART_TX
          462   8265: g_AM_HAL_GPIO_DISABLE
          463   8287: g_AM_HAL_GPIO_OUTPUT
          464   8308: g_AM_HAL_GPIO_TRISTATE
          465   8331: g_am_hal_mcuctrl_flash_size
          466   8359: g_am_hal_mcuctrl_sram_size
          467   8386: Region$$Table$$Base
          468   8406: Region$$Table$$Limit
          469   8427: am_bsp_psLEDs
          470   8441: default_num_contexts
          471   8462: seed3_volatile
          472   8477: seed4_volatile
          473   8492: __libspace_start
          474   8509: __temporary_stack_top$libspace
          475   8540: am_bufcnt
          476   8550: am_pcBuf
          477   8559: am_prtbuf
          478   8569: eBurstMode
          479   8580: gAmHalResetStatus
          480   8598: g_am_hal_burst_mode_available
          481   8628: g_eAmbClkSpd
          482   8641: g_pfnCharPrint
          483   8656: g_ui32SysTickWrappedTime
          484   8681: seed1_volatile
          485   8696: seed2_volatile
          486   8711: seed5_volatile
          487   8726: 
          488   8727: 


** Section #13 '.note' (SHT_NOTE)
    Size   : 28 bytes (alignment 4)


** Section #14 '.comment' (SHT_PROGBITS)
    Size   : 1636 bytes


** Section #15 '.shstrtab' (SHT_STRTAB)
    Size   : 140 bytes

            #  Offset String
        ====================================

            1      1: FLASH
            2      7: SRAM
            3     12: .debug_abbrev
            4     26: .debug_frame
            5     39: .debug_info
            6     51: .debug_line
            7     63: .debug_loc
            8     74: .debug_str
            9     85: .debug_ranges
           10     99: .symtab
           11    107: .strtab
           12    115: .note
           13    121: .comment
           14    130: .shstrtab


