
========================================================================

** ELF Header Information

    File Name: bin\i2s_loopback.axf

    Machine class: ELFCLASS32 (32-bit)
    Data encoding: ELFDATA2LSB (Little endian)
    Header version: EV_CURRENT (Current version)
    Operating System ABI: none
    ABI Version: 0
    File Type: ET_EXEC (Executable) (2)
    Machine: EM_ARM (ARM)

    Image Entry point: 0x00018235
    Flags: EF_ARM_HASENTRY + EF_ARM_ABI_FLOAT_HARD (0x05000402)

    ARM ELF revision: 5 (ABI version 2)

    Conforms to Hard float procedure-call standard

    Built with
    Component: ARM Compiler 6.16 Tool: armasm [5dfea300]
    Component: ARM Compiler 6.16 Tool: armlink [5dfeaa00]

    Header size: 52 bytes (0x34)
    Program header entry size: 32 bytes (0x20)
    Section header entry size: 40 bytes (0x28)

    Program header entries: 1
    Section header entries: 17

    Program header offset: 66292 (0x000102f4)
    Section header offset: 66324 (0x00010314)

    Section header string table index: 16

========================================================================

** Program header #0 (PT_LOAD) [PF_X + PF_W + PF_R + PF_ARM_ENTRY]
    Size : 27200 bytes (13000 bytes in file)
    Virtual address: 0x00018000 (Alignment 8)


========================================================================

** Section #1 'MCU_MRAM' (SHT_PROGBITS) [SHF_ALLOC + SHF_EXECINSTR]
    Size   : 12720 bytes (alignment 4)
    Address: 0x00018000

    $d
    RESET
    __Vectors
        0x00018000:    10001820     ...    DCD    268441632
        0x00018004:    00018201    ....    DCD    98817
        0x00018008:    0001821f    ....    DCD    98847
        0x0001800c:    000184e1    ....    DCD    99553
        0x00018010:    00018221    !...    DCD    98849
        0x00018014:    00018223    #...    DCD    98851
        0x00018018:    00018225    %...    DCD    98853
        0x0001801c:    00000000    ....    DCD    0
        0x00018020:    00000000    ....    DCD    0
        0x00018024:    00000000    ....    DCD    0
        0x00018028:    00000000    ....    DCD    0
        0x0001802c:    00018227    '...    DCD    98855
        0x00018030:    00018229    )...    DCD    98857
        0x00018034:    00000000    ....    DCD    0
        0x00018038:    0001822b    +...    DCD    98859
        0x0001803c:    0001822d    -...    DCD    98861
        0x00018040:    0001822f    /...    DCD    98863
        0x00018044:    0001822f    /...    DCD    98863
        0x00018048:    0001822f    /...    DCD    98863
        0x0001804c:    0001822f    /...    DCD    98863
        0x00018050:    0001822f    /...    DCD    98863
        0x00018054:    0001822f    /...    DCD    98863
        0x00018058:    0001822f    /...    DCD    98863
        0x0001805c:    0001822f    /...    DCD    98863
        0x00018060:    0001822f    /...    DCD    98863
        0x00018064:    0001822f    /...    DCD    98863
        0x00018068:    0001822f    /...    DCD    98863
        0x0001806c:    0001822f    /...    DCD    98863
        0x00018070:    0001822f    /...    DCD    98863
        0x00018074:    0001822f    /...    DCD    98863
        0x00018078:    0001822f    /...    DCD    98863
        0x0001807c:    0001822f    /...    DCD    98863
        0x00018080:    0001822f    /...    DCD    98863
        0x00018084:    0001822f    /...    DCD    98863
        0x00018088:    0001822f    /...    DCD    98863
        0x0001808c:    0001822f    /...    DCD    98863
        0x00018090:    0001822f    /...    DCD    98863
        0x00018094:    0001822f    /...    DCD    98863
        0x00018098:    0001822f    /...    DCD    98863
        0x0001809c:    0001822f    /...    DCD    98863
        0x000180a0:    0001822f    /...    DCD    98863
        0x000180a4:    0001822f    /...    DCD    98863
        0x000180a8:    0001822f    /...    DCD    98863
        0x000180ac:    0001822f    /...    DCD    98863
        0x000180b0:    0001822f    /...    DCD    98863
        0x000180b4:    0001822f    /...    DCD    98863
        0x000180b8:    0001822f    /...    DCD    98863
        0x000180bc:    0001822f    /...    DCD    98863
        0x000180c0:    0001822f    /...    DCD    98863
        0x000180c4:    0001822f    /...    DCD    98863
        0x000180c8:    0001822f    /...    DCD    98863
        0x000180cc:    0001822f    /...    DCD    98863
        0x000180d0:    0001822f    /...    DCD    98863
        0x000180d4:    0001822f    /...    DCD    98863
        0x000180d8:    0001822f    /...    DCD    98863
        0x000180dc:    0001822f    /...    DCD    98863
        0x000180e0:    0001822f    /...    DCD    98863
        0x000180e4:    0001822f    /...    DCD    98863
        0x000180e8:    0001822f    /...    DCD    98863
        0x000180ec:    0001822f    /...    DCD    98863
        0x000180f0:    00018673    s...    DCD    99955
        0x000180f4:    000186bf    ....    DCD    100031
        0x000180f8:    0001822f    /...    DCD    98863
        0x000180fc:    0001822f    /...    DCD    98863
        0x00018100:    0001822f    /...    DCD    98863
        0x00018104:    0001822f    /...    DCD    98863
        0x00018108:    0001822f    /...    DCD    98863
        0x0001810c:    0001822f    /...    DCD    98863
        0x00018110:    0001822f    /...    DCD    98863
        0x00018114:    0001822f    /...    DCD    98863
        0x00018118:    0001822f    /...    DCD    98863
        0x0001811c:    0001822f    /...    DCD    98863
        0x00018120:    0001822f    /...    DCD    98863
        0x00018124:    0001822f    /...    DCD    98863
        0x00018128:    0001822f    /...    DCD    98863
        0x0001812c:    0001822f    /...    DCD    98863
        0x00018130:    0001822f    /...    DCD    98863
        0x00018134:    0001822f    /...    DCD    98863
        0x00018138:    0001822f    /...    DCD    98863
        0x0001813c:    0001822f    /...    DCD    98863
        0x00018140:    0001822f    /...    DCD    98863
        0x00018144:    0001822f    /...    DCD    98863
        0x00018148:    0001822f    /...    DCD    98863
        0x0001814c:    0001822f    /...    DCD    98863
        0x00018150:    0001822f    /...    DCD    98863
        0x00018154:    0001822f    /...    DCD    98863
        0x00018158:    0001822f    /...    DCD    98863
        0x0001815c:    0001822f    /...    DCD    98863
        0x00018160:    0001822f    /...    DCD    98863
        0x00018164:    0001822f    /...    DCD    98863
        0x00018168:    0001822f    /...    DCD    98863
        0x0001816c:    0001822f    /...    DCD    98863
        0x00018170:    0001822f    /...    DCD    98863
        0x00018174:    0001822f    /...    DCD    98863
        0x00018178:    0001822f    /...    DCD    98863
        0x0001817c:    0001822f    /...    DCD    98863
        0x00018180:    0001822f    /...    DCD    98863
        0x00018184:    0001822f    /...    DCD    98863
        0x00018188:    0001822f    /...    DCD    98863
        0x0001818c:    0001822f    /...    DCD    98863
    __Patchable
        0x00018190:    00000000    ....    DCD    0
        0x00018194:    00000000    ....    DCD    0
        0x00018198:    00000000    ....    DCD    0
        0x0001819c:    00000000    ....    DCD    0
        0x000181a0:    00000000    ....    DCD    0
        0x000181a4:    00000000    ....    DCD    0
        0x000181a8:    00000000    ....    DCD    0
        0x000181ac:    00000000    ....    DCD    0
        0x000181b0:    00000000    ....    DCD    0
        0x000181b4:    00000000    ....    DCD    0
        0x000181b8:    00000000    ....    DCD    0
        0x000181bc:    00000000    ....    DCD    0
        0x000181c0:    00000000    ....    DCD    0
        0x000181c4:    00000000    ....    DCD    0
        0x000181c8:    00000000    ....    DCD    0
        0x000181cc:    00000000    ....    DCD    0
        0x000181d0:    00000000    ....    DCD    0
        0x000181d4:    00000000    ....    DCD    0
        0x000181d8:    00000000    ....    DCD    0
        0x000181dc:    00000000    ....    DCD    0
        0x000181e0:    00000000    ....    DCD    0
        0x000181e4:    00000000    ....    DCD    0
        0x000181e8:    00000000    ....    DCD    0
        0x000181ec:    00000000    ....    DCD    0
        0x000181f0:    00000000    ....    DCD    0
        0x000181f4:    00000000    ....    DCD    0
        0x000181f8:    00000000    ....    DCD    0
        0x000181fc:    00000000    ....    DCD    0
    $t
    $v0
    Reset_Handler
        0x00018200:    f64e5088    N..P    MOV      r0,#0xed88
        0x00018204:    f2ce0000    ....    MOVT     r0,#0xe000
        0x00018208:    6801        .h      LDR      r1,[r0,#0]
        0x0001820a:    f4410170    A.p.    ORR      r1,r1,#0xf00000
        0x0001820e:    6001        .`      STR      r1,[r0,#0]
        0x00018210:    f3bf8f4f    ..O.    DSB      
        0x00018214:    f3bf8f6f    ..o.    ISB      
        0x00018218:    4805        .H      LDR      r0,[pc,#20] ; [0x18230] = 0x18235
        0x0001821a:    4700        .G      BX       r0
        0x0001821c:    e7fe        ..      B        0x1821c ; Reset_Handler + 28
    NMI_Handler
        0x0001821e:    e7fe        ..      B        NMI_Handler ; 0x1821e
    MemManage_Handler
        0x00018220:    e7fe        ..      B        MemManage_Handler ; 0x18220
    BusFault_Handler
        0x00018222:    e7fe        ..      B        BusFault_Handler ; 0x18222
    UsageFault_Handler
        0x00018224:    e7fe        ..      B        UsageFault_Handler ; 0x18224
    SVC_Handler
        0x00018226:    e7fe        ..      B        SVC_Handler ; 0x18226
    DebugMon_Handler
        0x00018228:    e7fe        ..      B        DebugMon_Handler ; 0x18228
    PendSV_Handler
        0x0001822a:    e7fe        ..      B        PendSV_Handler ; 0x1822a
    SysTick_Handler
        0x0001822c:    e7fe        ..      B        SysTick_Handler ; 0x1822c
    am_cryptosec_isr
    am_default_isr
    am_adc_isr
    am_audadc0_isr
    am_brownout_isr
    am_cachecpu_isr
    am_clkgen_isr
    am_ctimer_isr
    am_disp_isr
    am_dsi_isr
    am_dspi2s2_isr
    am_dspi2s3_isr
    am_gpio0_001f_isr
    am_gpio0_203f_isr
    am_gpio0_405f_isr
    am_gpio0_607f_isr
    am_gpio1_001f_isr
    am_gpio1_203f_isr
    am_gpio1_405f_isr
    am_gpio1_607f_isr
    am_gpu_isr
    am_iomaster0_isr
    am_iomaster1_isr
    am_iomaster2_isr
    am_iomaster3_isr
    am_iomaster4_isr
    am_iomaster5_isr
    am_iomaster6_isr
    am_iomaster7_isr
    am_ioslave_acc_isr
    am_ioslave_ios_isr
    am_mspi0_isr
    am_mspi1_isr
    am_mspi2_isr
    am_pdm0_isr
    am_pdm1_isr
    am_pdm2_isr
    am_pdm3_isr
    am_rtc_isr
    am_sdio_isr
    am_stimer_cmpr0_isr
    am_stimer_cmpr1_isr
    am_stimer_cmpr2_isr
    am_stimer_cmpr3_isr
    am_stimer_cmpr4_isr
    am_stimer_cmpr5_isr
    am_stimer_cmpr6_isr
    am_stimer_cmpr7_isr
    am_stimerof_isr
    am_timer00_isr
    am_timer01_isr
    am_timer02_isr
    am_timer03_isr
    am_timer04_isr
    am_timer05_isr
    am_timer06_isr
    am_timer07_isr
    am_timer08_isr
    am_timer09_isr
    am_timer10_isr
    am_timer11_isr
    am_timer12_isr
    am_timer13_isr
    am_timer14_isr
    am_timer15_isr
    am_uart1_isr
    am_uart2_isr
    am_uart3_isr
    am_uart_isr
    am_usb_isr
    am_vcomp_isr
    am_watchdog_isr
        0x0001822e:    e7fe        ..      B        am_cryptosec_isr ; 0x1822e
    $d
        0x00018230:    00018235    5...    DCD    98869
    $t
    !!!main
    __main
        0x00018234:    f000f802    ....    BL       __scatterload ; 0x1823c
        0x00018238:    f000f85a    ..Z.    BL       __rt_entry ; 0x182f0
    !!!scatter
    __scatterload
    __scatterload_rt2
    __scatterload_rt2_thumb_only
        0x0001823c:    a00a        ..      ADR      r0,{pc}+0x2c ; 0x18268
        0x0001823e:    e8900c00    ....    LDM      r0,{r10,r11}
        0x00018242:    4482        .D      ADD      r10,r10,r0
        0x00018244:    4483        .D      ADD      r11,r11,r0
        0x00018246:    f1aa0701    ....    SUB      r7,r10,#1
    __scatterload_null
        0x0001824a:    45da        .E      CMP      r10,r11
        0x0001824c:    d101        ..      BNE      0x18252 ; __scatterload_null + 8
        0x0001824e:    f000f84f    ..O.    BL       __rt_entry ; 0x182f0
        0x00018252:    f2af0e09    ....    ADR      lr,{pc}-7 ; 0x1824b
        0x00018256:    e8ba000f    ....    LDM      r10!,{r0-r3}
        0x0001825a:    f0130f01    ....    TST      r3,#1
        0x0001825e:    bf18        ..      IT       NE
        0x00018260:    1afb        ..      SUBNE    r3,r7,r3
        0x00018262:    f0430301    C...    ORR      r3,r3,#1
        0x00018266:    4718        .G      BX       r3
    $d
        0x00018268:    00002f18    ./..    DCD    12056
        0x0001826c:    00002f48    H/..    DCD    12104
    $t
    !!dczerorl
    __decompress
    __decompress0
        0x00018270:    440a        .D      ADD      r2,r2,r1
        0x00018272:    f8104b01    ...K    LDRB     r4,[r0],#1
        0x00018276:    f014050f    ....    ANDS     r5,r4,#0xf
        0x0001827a:    bf08        ..      IT       EQ
        0x0001827c:    f8105b01    ...[    LDRBEQ   r5,[r0],#1
        0x00018280:    0924        $.      LSRS     r4,r4,#4
        0x00018282:    bf08        ..      IT       EQ
        0x00018284:    f8104b01    ...K    LDRBEQ   r4,[r0],#1
        0x00018288:    1e6d        m.      SUBS     r5,r5,#1
        0x0001828a:    d005        ..      BEQ      0x18298 ; __decompress + 40
        0x0001828c:    f8103b01    ...;    LDRB     r3,[r0],#1
        0x00018290:    1e6d        m.      SUBS     r5,r5,#1
        0x00018292:    f8013b01    ...;    STRB     r3,[r1],#1
        0x00018296:    d1f9        ..      BNE      0x1828c ; __decompress + 28
        0x00018298:    1e64        d.      SUBS     r4,r4,#1
        0x0001829a:    d003        ..      BEQ      0x182a4 ; __decompress + 52
        0x0001829c:    1e64        d.      SUBS     r4,r4,#1
        0x0001829e:    f8015b01    ...[    STRB     r5,[r1],#1
        0x000182a2:    d1fb        ..      BNE      0x1829c ; __decompress + 44
        0x000182a4:    4291        .B      CMP      r1,r2
        0x000182a6:    d3e4        ..      BCC      0x18272 ; __decompress + 2
        0x000182a8:    4770        pG      BX       lr
        0x000182aa:    0000        ..      MOVS     r0,r0
    !!handler_copy
    __scatterload_copy
        0x000182ac:    3a10        .:      SUBS     r2,r2,#0x10
        0x000182ae:    bf24        $.      ITT      CS
        0x000182b0:    c878        x.      LDMCS    r0!,{r3-r6}
        0x000182b2:    c178        x.      STMCS    r1!,{r3-r6}
        0x000182b4:    d8fa        ..      BHI      __scatterload_copy ; 0x182ac
        0x000182b6:    0752        R.      LSLS     r2,r2,#29
        0x000182b8:    bf24        $.      ITT      CS
        0x000182ba:    c830        0.      LDMCS    r0!,{r4,r5}
        0x000182bc:    c130        0.      STMCS    r1!,{r4,r5}
        0x000182be:    bf44        D.      ITT      MI
        0x000182c0:    6804        .h      LDRMI    r4,[r0,#0]
        0x000182c2:    600c        .`      STRMI    r4,[r1,#0]
        0x000182c4:    4770        pG      BX       lr
        0x000182c6:    0000        ..      MOVS     r0,r0
    !!handler_zi
    __scatterload_zeroinit
        0x000182c8:    2300        .#      MOVS     r3,#0
        0x000182ca:    2400        .$      MOVS     r4,#0
        0x000182cc:    2500        .%      MOVS     r5,#0
        0x000182ce:    2600        .&      MOVS     r6,#0
        0x000182d0:    3a10        .:      SUBS     r2,r2,#0x10
        0x000182d2:    bf28        (.      IT       CS
        0x000182d4:    c178        x.      STMCS    r1!,{r3-r6}
        0x000182d6:    d8fb        ..      BHI      0x182d0 ; __scatterload_zeroinit + 8
        0x000182d8:    0752        R.      LSLS     r2,r2,#29
        0x000182da:    bf28        (.      IT       CS
        0x000182dc:    c130        0.      STMCS    r1!,{r4,r5}
        0x000182de:    bf48        H.      IT       MI
        0x000182e0:    600b        .`      STRMI    r3,[r1,#0]
        0x000182e2:    4770        pG      BX       lr
    .ARM.Collect$$libinit$$00000000
    __rt_lib_init
        0x000182e4:    b51f        ..      PUSH     {r0-r4,lr}
    .ARM.Collect$$libinit$$00000001
    __rt_lib_init_fp_1
        0x000182e6:    f002fc54    ..T.    BL       _fp_init ; 0x1ab92
    .ARM.Collect$$libinit$$00000004
    .ARM.Collect$$libinit$$0000000A
    .ARM.Collect$$libinit$$0000000C
    .ARM.Collect$$libinit$$0000000E
    .ARM.Collect$$libinit$$00000011
    .ARM.Collect$$libinit$$00000013
    .ARM.Collect$$libinit$$00000015
    .ARM.Collect$$libinit$$00000017
    .ARM.Collect$$libinit$$00000019
    .ARM.Collect$$libinit$$0000001B
    .ARM.Collect$$libinit$$0000001D
    .ARM.Collect$$libinit$$0000001F
    .ARM.Collect$$libinit$$00000021
    .ARM.Collect$$libinit$$00000023
    .ARM.Collect$$libinit$$00000025
    .ARM.Collect$$libinit$$0000002C
    .ARM.Collect$$libinit$$0000002E
    .ARM.Collect$$libinit$$00000030
    .ARM.Collect$$libinit$$00000032
    .ARM.Collect$$libinit$$00000033
    __rt_lib_init_alloca_1
    __rt_lib_init_argv_1
    __rt_lib_init_atexit_1
    __rt_lib_init_clock_1
    __rt_lib_init_cpp_1
    __rt_lib_init_exceptions_1
    __rt_lib_init_fp_trap_1
    __rt_lib_init_getenv_1
    __rt_lib_init_heap_1
    __rt_lib_init_lc_collate_1
    __rt_lib_init_lc_ctype_1
    __rt_lib_init_lc_monetary_1
    __rt_lib_init_lc_numeric_1
    __rt_lib_init_lc_time_1
    __rt_lib_init_preinit_1
    __rt_lib_init_rand_1
    __rt_lib_init_return
    __rt_lib_init_signal_1
    __rt_lib_init_stdio_1
    __rt_lib_init_user_alloc_1
        0x000182ea:    bd1f        ..      POP      {r0-r4,pc}
    .ARM.Collect$$libshutdown$$00000000
    __rt_lib_shutdown
        0x000182ec:    b510        ..      PUSH     {r4,lr}
    .ARM.Collect$$libshutdown$$00000002
    .ARM.Collect$$libshutdown$$00000004
    .ARM.Collect$$libshutdown$$00000007
    .ARM.Collect$$libshutdown$$0000000A
    .ARM.Collect$$libshutdown$$0000000C
    .ARM.Collect$$libshutdown$$0000000F
    .ARM.Collect$$libshutdown$$00000010
    __rt_lib_shutdown_cpp_1
    __rt_lib_shutdown_fp_trap_1
    __rt_lib_shutdown_heap_1
    __rt_lib_shutdown_return
    __rt_lib_shutdown_signal_1
    __rt_lib_shutdown_stdio_1
    __rt_lib_shutdown_user_alloc_1
        0x000182ee:    bd10        ..      POP      {r4,pc}
    .ARM.Collect$$rtentry$$00000000
    .ARM.Collect$$rtentry$$00000002
    .ARM.Collect$$rtentry$$00000004
    __rt_entry
    __rt_entry_presh_1
    __rt_entry_sh
        0x000182f0:    f000f8bc    ....    BL       __user_setup_stackheap ; 0x1846c
        0x000182f4:    4611        .F      MOV      r1,r2
    .ARM.Collect$$rtentry$$00000009
    .ARM.Collect$$rtentry$$0000000A
    __rt_entry_li
    __rt_entry_postsh_1
        0x000182f6:    f7fffff5    ....    BL       __rt_lib_init ; 0x182e4
    .ARM.Collect$$rtentry$$0000000C
    .ARM.Collect$$rtentry$$0000000D
    __rt_entry_main
    __rt_entry_postli_1
        0x000182fa:    f002fa85    ....    BL       main ; 0x1a808
        0x000182fe:    f000f8da    ....    BL       exit ; 0x184b6
    .ARM.Collect$$rtexit$$00000000
    __rt_exit
        0x00018302:    b403        ..      PUSH     {r0,r1}
    .ARM.Collect$$rtexit$$00000002
    .ARM.Collect$$rtexit$$00000003
    __rt_exit_ls
    __rt_exit_prels_1
        0x00018304:    f7fffff2    ....    BL       __rt_lib_shutdown ; 0x182ec
    .ARM.Collect$$rtexit$$00000004
    __rt_exit_exit
        0x00018308:    bc03        ..      POP      {r0,r1}
        0x0001830a:    f000f8e1    ....    BL       _sys_exit ; 0x184d0
        0x0001830e:    0000        ..      MOVS     r0,r0
    .text
    $v0
    __user_initial_stackheap
        0x00018310:    4802        .H      LDR      r0,[pc,#8] ; [0x1831c] = 0x10000820
        0x00018312:    4903        .I      LDR      r1,[pc,#12] ; [0x18320] = 0x10001820
        0x00018314:    4a01        .J      LDR      r2,[pc,#4] ; [0x1831c] = 0x10000820
        0x00018316:    4b03        .K      LDR      r3,[pc,#12] ; [0x18324] = 0x10000820
        0x00018318:    4770        pG      BX       lr
    $d
        0x0001831a:    0000        ..      DCW    0
        0x0001831c:    10000820     ...    DCD    268437536
        0x00018320:    10001820     ...    DCD    268441632
        0x00018324:    10000820     ...    DCD    268437536
    $t
    .text
    __aeabi_uldivmod
    _ll_udiv
        0x00018328:    ea530c02    S...    ORRS     r12,r3,r2
        0x0001832c:    f0008069    ..i.    BEQ.W    0x18402 ; __aeabi_uldivmod + 218
        0x00018330:    e92d4bf0    -..K    PUSH     {r4-r9,r11,lr}
        0x00018334:    f04f0600    O...    MOV      r6,#0
        0x00018338:    2b00        .+      CMP      r3,#0
        0x0001833a:    bf1f        ..      ITTTT    NE
        0x0001833c:    fab3f583    ....    CLZNE    r5,r3
        0x00018340:    fa03f405    ....    LSLNE    r4,r3,r5
        0x00018344:    fa24f605    $...    LSRNE    r6,r4,r5
        0x00018348:    405e        ^@      EORNE    r6,r6,r3
        0x0001834a:    bf12        ..      ITEE     NE
        0x0001834c:    4316        .C      ORRNE    r6,r6,r2
        0x0001834e:    fab2f582    ....    CLZEQ    r5,r2
        0x00018352:    fa02f405    ....    LSLEQ    r4,r2,r5
        0x00018356:    f1c50520    .. .    RSB      r5,r5,#0x20
        0x0001835a:    bf1e        ..      ITTT     NE
        0x0001835c:    fa22fc05    "...    LSRNE    r12,r2,r5
        0x00018360:    ea44040c    D...    ORRNE    r4,r4,r12
        0x00018364:    3520         5      ADDNE    r5,r5,#0x20
        0x00018366:    ea564c04    V..L    ORRS     r12,r6,r4,LSL #16
        0x0001836a:    ea4f4414    O..D    LSR      r4,r4,#16
        0x0001836e:    bf18        ..      IT       NE
        0x00018370:    1c64        d.      ADDNE    r4,r4,#1
        0x00018372:    f04f0800    O...    MOV      r8,#0
        0x00018376:    f04f0900    O...    MOV      r9,#0
        0x0001837a:    4290        .B      CMP      r0,r2
        0x0001837c:    eb710c03    q...    SBCS     r12,r1,r3
        0x00018380:    d339        9.      BCC      0x183f6 ; __aeabi_uldivmod + 206
        0x00018382:    2900        .)      CMP      r1,#0
        0x00018384:    bf19        ..      ITTEE    NE
        0x00018386:    fab1f781    ....    CLZNE    r7,r1
        0x0001838a:    fa01f607    ....    LSLNE    r6,r1,r7
        0x0001838e:    fab0f780    ....    CLZEQ    r7,r0
        0x00018392:    fa00f607    ....    LSLEQ    r6,r0,r7
        0x00018396:    f1c70720    .. .    RSB      r7,r7,#0x20
        0x0001839a:    bf1e        ..      ITTT     NE
        0x0001839c:    fa20fc07     ...    LSRNE    r12,r0,r7
        0x000183a0:    ea46060c    F...    ORRNE    r6,r6,r12
        0x000183a4:    3720         7      ADDNE    r7,r7,#0x20
        0x000183a6:    fbb6fcf4    ....    UDIV     r12,r6,r4
        0x000183aa:    eba70705    ....    SUB      r7,r7,r5
        0x000183ae:    3f10        .?      SUBS     r7,r7,#0x10
        0x000183b0:    f0070b1f    ....    AND      r11,r7,#0x1f
        0x000183b4:    f1cb0620    .. .    RSB      r6,r11,#0x20
        0x000183b8:    fa2cf606    ,...    LSR      r6,r12,r6
        0x000183bc:    fa0cfb0b    ....    LSL      r11,r12,r11
        0x000183c0:    bf44        D.      ITT      MI
        0x000183c2:    46b3        .F      MOVMI    r11,r6
        0x000183c4:    2600        .&      MOVMI    r6,#0
        0x000183c6:    2f20         /      CMP      r7,#0x20
        0x000183c8:    bfa4        ..      ITT      GE
        0x000183ca:    465e        ^F      MOVGE    r6,r11
        0x000183cc:    f04f0b00    O...    MOVGE    r11,#0
        0x000183d0:    ea5b0c06    [...    ORRS     r12,r11,r6
        0x000183d4:    bf08        ..      IT       EQ
        0x000183d6:    f04f0b01    O...    MOVEQ    r11,#1
        0x000183da:    eb19090b    ....    ADDS     r9,r9,r11
        0x000183de:    eb480806    H...    ADC      r8,r8,r6
        0x000183e2:    fbab7c02    ...|    UMULL    r7,r12,r11,r2
        0x000183e6:    fb06cc02    ....    MLA      r12,r6,r2,r12
        0x000183ea:    fb0bcc03    ....    MLA      r12,r11,r3,r12
        0x000183ee:    1bc0        ..      SUBS     r0,r0,r7
        0x000183f0:    eb71010c    q...    SBCS     r1,r1,r12
        0x000183f4:    e7c1        ..      B        0x1837a ; __aeabi_uldivmod + 82
        0x000183f6:    460b        .F      MOV      r3,r1
        0x000183f8:    4602        .F      MOV      r2,r0
        0x000183fa:    4641        AF      MOV      r1,r8
        0x000183fc:    4648        HF      MOV      r0,r9
        0x000183fe:    e8bd8bf0    ....    POP      {r4-r9,r11,pc}
        0x00018402:    b513        ..      PUSH     {r0,r1,r4,lr}
        0x00018404:    4308        .C      ORRS     r0,r0,r1
        0x00018406:    bf18        ..      IT       NE
        0x00018408:    f04f30ff    O..0    MOVNE    r0,#0xffffffff
        0x0001840c:    4601        .F      MOV      r1,r0
        0x0001840e:    f3af8000    ....    NOP.W    
        0x00018412:    e8bd401c    ...@    POP      {r2-r4,lr}
        0x00018416:    4770        pG      BX       lr
    .text
    __aeabi_memclr4
    __aeabi_memclr8
    __rt_memclr_w
        0x00018418:    f04f0200    O...    MOV      r2,#0
    _memset_w
        0x0001841c:    b500        ..      PUSH     {lr}
        0x0001841e:    4613        .F      MOV      r3,r2
        0x00018420:    4694        .F      MOV      r12,r2
        0x00018422:    4696        .F      MOV      lr,r2
        0x00018424:    3920         9      SUBS     r1,r1,#0x20
        0x00018426:    bf22        ".      ITTT     CS
        0x00018428:    e8a0500c    ...P    STMCS    r0!,{r2,r3,r12,lr}
        0x0001842c:    e8a0500c    ...P    STMCS    r0!,{r2,r3,r12,lr}
        0x00018430:    f1b10120    .. .    SUBSCS   r1,r1,#0x20
        0x00018434:    f4bfaff7    ....    BCS.W    0x18426 ; _memset_w + 10
        0x00018438:    0709        ..      LSLS     r1,r1,#28
        0x0001843a:    bf28        (.      IT       CS
        0x0001843c:    e8a0500c    ...P    STMCS    r0!,{r2,r3,r12,lr}
        0x00018440:    bf48        H.      IT       MI
        0x00018442:    c00c        ..      STMMI    r0!,{r2,r3}
        0x00018444:    f85deb04    ]...    POP      {lr}
        0x00018448:    0089        ..      LSLS     r1,r1,#2
        0x0001844a:    bf28        (.      IT       CS
        0x0001844c:    f8402b04    @..+    STRCS    r2,[r0],#4
        0x00018450:    bf08        ..      IT       EQ
        0x00018452:    4770        pG      BXEQ     lr
        0x00018454:    bf48        H.      IT       MI
        0x00018456:    f8202b02     ..+    STRHMI   r2,[r0],#2
        0x0001845a:    f0114f80    ...O    TST      r1,#0x40000000
        0x0001845e:    bf18        ..      IT       NE
        0x00018460:    f8002b01    ...+    STRBNE   r2,[r0],#1
        0x00018464:    4770        pG      BX       lr
    .text
    __use_two_region_memory
        0x00018466:    4770        pG      BX       lr
    __rt_heap_escrow$2region
        0x00018468:    4770        pG      BX       lr
    __rt_heap_expand$2region
        0x0001846a:    4770        pG      BX       lr
    .text
    __user_setup_stackheap
        0x0001846c:    4675        uF      MOV      r5,lr
        0x0001846e:    f000f82b    ..+.    BL       __user_libspace ; 0x184c8
        0x00018472:    46ae        .F      MOV      lr,r5
        0x00018474:    0005        ..      MOVS     r5,r0
        0x00018476:    4669        iF      MOV      r1,sp
        0x00018478:    4653        SF      MOV      r3,r10
        0x0001847a:    f0200007     ...    BIC      r0,r0,#7
        0x0001847e:    4685        .F      MOV      sp,r0
        0x00018480:    b018        ..      ADD      sp,sp,#0x60
        0x00018482:    b520         .      PUSH     {r5,lr}
        0x00018484:    f7ffff44    ..D.    BL       __user_initial_stackheap ; 0x18310
        0x00018488:    e8bd4020    .. @    POP      {r5,lr}
        0x0001848c:    f04f0600    O...    MOV      r6,#0
        0x00018490:    f04f0700    O...    MOV      r7,#0
        0x00018494:    f04f0800    O...    MOV      r8,#0
        0x00018498:    f04f0b00    O...    MOV      r11,#0
        0x0001849c:    46ac        .F      MOV      r12,r5
        0x0001849e:    e8ac09c0    ....    STM      r12!,{r6-r8,r11}
        0x000184a2:    e8ac09c0    ....    STM      r12!,{r6-r8,r11}
        0x000184a6:    e8ac09c0    ....    STM      r12!,{r6-r8,r11}
        0x000184aa:    e8ac09c0    ....    STM      r12!,{r6-r8,r11}
        0x000184ae:    f0210107    !...    BIC      r1,r1,#7
        0x000184b2:    468d        .F      MOV      sp,r1
        0x000184b4:    4770        pG      BX       lr
    .text
    exit
        0x000184b6:    b510        ..      PUSH     {r4,lr}
        0x000184b8:    4604        .F      MOV      r4,r0
        0x000184ba:    f3af8000    ....    NOP.W    
        0x000184be:    4620         F      MOV      r0,r4
        0x000184c0:    e8bd4010    ...@    POP      {r4,lr}
        0x000184c4:    f7ffbf1d    ....    B.W      __rt_exit ; 0x18302
    .text
    __user_libspace
    __user_perproc_libspace
    __user_perthread_libspace
        0x000184c8:    4800        .H      LDR      r0,[pc,#0] ; [0x184cc] = 0x100000d0
        0x000184ca:    4770        pG      BX       lr
    $d
        0x000184cc:    100000d0    ....    DCD    268435664
    $t
    .text
    _sys_exit
        0x000184d0:    4901        .I      LDR      r1,[pc,#4] ; [0x184d8] = 0x20026
        0x000184d2:    2018        .       MOVS     r0,#0x18
        0x000184d4:    beab        ..      BKPT     #0xab
        0x000184d6:    e7fe        ..      B        0x184d6 ; _sys_exit + 6
    $d
        0x000184d8:    00020026    &...    DCD    131110
    $t
    .text
    __I$use$semihosting
    __use_no_semihosting_swi
        0x000184dc:    4770        pG      BX       lr
    .text
    __semihosting_library_function
        0x000184de:    0000        ..      MOVS     r0,r0
    $t.0
    HardFault_Handler
        0x000184e0:    f01e0f04    ....    TST      lr,#4
        0x000184e4:    bf0c        ..      ITE      EQ
        0x000184e6:    f3ef8008    ....    MRSEQ    r0,MSP
        0x000184ea:    f3ef8009    ....    MRSNE    r0,PSP
        0x000184ee:    4904        .I      LDR      r1,[pc,#16] ; [0x18500] = 0x1000013c
        0x000184f0:    f5017100    ...q    ADD      r1,r1,#0x200
        0x000184f4:    f0210103    !...    BIC      r1,r1,#3
        0x000184f8:    468d        .F      MOV      sp,r1
        0x000184fa:    f001baaf    ....    B.W      am_util_faultisr_collect_data ; 0x19a5c
        0x000184fe:    bf00        ..      NOP      
    $d.7
        0x00018500:    1000013c    <...    DCD    268435772
    $t.25
    am_bsp_i2s_pins_enable
        0x00018504:    b580        ..      PUSH     {r7,lr}
        0x00018506:    2801        .(      CMP      r0,#1
        0x00018508:    d900        ..      BLS      0x1850c ; am_bsp_i2s_pins_enable + 8
        0x0001850a:    bd80        ..      POP      {r7,pc}
        0x0001850c:    d01a        ..      BEQ      0x18544 ; am_bsp_i2s_pins_enable + 64
        0x0001850e:    2800        .(      CMP      r0,#0
        0x00018510:    bf18        ..      IT       NE
        0x00018512:    bd80        ..      POPNE    {r7,pc}
        0x00018514:    b371        q.      CBZ      r1,0x18574 ; am_bsp_i2s_pins_enable + 112
        0x00018516:    f240001c    @...    MOVW     r0,#0x1c
        0x0001851a:    f2c10000    ....    MOVT     r0,#0x1000
        0x0001851e:    6801        .h      LDR      r1,[r0,#0]
        0x00018520:    200c        .       MOVS     r0,#0xc
        0x00018522:    f000fc1b    ....    BL       am_hal_gpio_pinconfig ; 0x18d5c
        0x00018526:    f2400018    @...    MOVW     r0,#0x18
        0x0001852a:    f2c10000    ....    MOVT     r0,#0x1000
        0x0001852e:    6801        .h      LDR      r1,[r0,#0]
        0x00018530:    200b        .       MOVS     r0,#0xb
        0x00018532:    f000fc13    ....    BL       am_hal_gpio_pinconfig ; 0x18d5c
        0x00018536:    f2400028    @.(.    MOVW     r0,#0x28
        0x0001853a:    f2c10000    ....    MOVT     r0,#0x1000
        0x0001853e:    6801        .h      LDR      r1,[r0,#0]
        0x00018540:    200d        .       MOVS     r0,#0xd
        0x00018542:    e054        T.      B        0x185ee ; am_bsp_i2s_pins_enable + 234
        0x00018544:    b3a9        ..      CBZ      r1,0x185b2 ; am_bsp_i2s_pins_enable + 174
        0x00018546:    f2400030    @.0.    MOVW     r0,#0x30
        0x0001854a:    f2c10000    ....    MOVT     r0,#0x1000
        0x0001854e:    6801        .h      LDR      r1,[r0,#0]
        0x00018550:    2011        .       MOVS     r0,#0x11
        0x00018552:    f000fc03    ....    BL       am_hal_gpio_pinconfig ; 0x18d5c
        0x00018556:    f240002c    @.,.    MOVW     r0,#0x2c
        0x0001855a:    f2c10000    ....    MOVT     r0,#0x1000
        0x0001855e:    6801        .h      LDR      r1,[r0,#0]
        0x00018560:    2010        .       MOVS     r0,#0x10
        0x00018562:    f000fbfb    ....    BL       am_hal_gpio_pinconfig ; 0x18d5c
        0x00018566:    f240003c    @.<.    MOVW     r0,#0x3c
        0x0001856a:    f2c10000    ....    MOVT     r0,#0x1000
        0x0001856e:    6801        .h      LDR      r1,[r0,#0]
        0x00018570:    2012        .       MOVS     r0,#0x12
        0x00018572:    e03c        <.      B        0x185ee ; am_bsp_i2s_pins_enable + 234
        0x00018574:    f2400024    @.$.    MOVW     r0,#0x24
        0x00018578:    f2c10000    ....    MOVT     r0,#0x1000
        0x0001857c:    6801        .h      LDR      r1,[r0,#0]
        0x0001857e:    200c        .       MOVS     r0,#0xc
        0x00018580:    f000fbec    ....    BL       am_hal_gpio_pinconfig ; 0x18d5c
        0x00018584:    f2400018    @...    MOVW     r0,#0x18
        0x00018588:    f2c10000    ....    MOVT     r0,#0x1000
        0x0001858c:    6801        .h      LDR      r1,[r0,#0]
        0x0001858e:    200b        .       MOVS     r0,#0xb
        0x00018590:    f000fbe4    ....    BL       am_hal_gpio_pinconfig ; 0x18d5c
        0x00018594:    f2400028    @.(.    MOVW     r0,#0x28
        0x00018598:    f2c10000    ....    MOVT     r0,#0x1000
        0x0001859c:    6801        .h      LDR      r1,[r0,#0]
        0x0001859e:    200d        .       MOVS     r0,#0xd
        0x000185a0:    f000fbdc    ....    BL       am_hal_gpio_pinconfig ; 0x18d5c
        0x000185a4:    f2400020    @. .    MOVW     r0,#0x20
        0x000185a8:    f2c10000    ....    MOVT     r0,#0x1000
        0x000185ac:    6801        .h      LDR      r1,[r0,#0]
        0x000185ae:    200e        .       MOVS     r0,#0xe
        0x000185b0:    e01d        ..      B        0x185ee ; am_bsp_i2s_pins_enable + 234
        0x000185b2:    f2400038    @.8.    MOVW     r0,#0x38
        0x000185b6:    f2c10000    ....    MOVT     r0,#0x1000
        0x000185ba:    6801        .h      LDR      r1,[r0,#0]
        0x000185bc:    2011        .       MOVS     r0,#0x11
        0x000185be:    f000fbcd    ....    BL       am_hal_gpio_pinconfig ; 0x18d5c
        0x000185c2:    f240002c    @.,.    MOVW     r0,#0x2c
        0x000185c6:    f2c10000    ....    MOVT     r0,#0x1000
        0x000185ca:    6801        .h      LDR      r1,[r0,#0]
        0x000185cc:    2010        .       MOVS     r0,#0x10
        0x000185ce:    f000fbc5    ....    BL       am_hal_gpio_pinconfig ; 0x18d5c
        0x000185d2:    f240003c    @.<.    MOVW     r0,#0x3c
        0x000185d6:    f2c10000    ....    MOVT     r0,#0x1000
        0x000185da:    6801        .h      LDR      r1,[r0,#0]
        0x000185dc:    2012        .       MOVS     r0,#0x12
        0x000185de:    f000fbbd    ....    BL       am_hal_gpio_pinconfig ; 0x18d5c
        0x000185e2:    f2400034    @.4.    MOVW     r0,#0x34
        0x000185e6:    f2c10000    ....    MOVT     r0,#0x1000
        0x000185ea:    6801        .h      LDR      r1,[r0,#0]
        0x000185ec:    2013        .       MOVS     r0,#0x13
        0x000185ee:    e8bd4080    ...@    POP      {r7,lr}
        0x000185f2:    f000bbb3    ....    B.W      am_hal_gpio_pinconfig ; 0x18d5c
    am_bsp_itm_printf_enable
        0x000185f6:    b580        ..      PUSH     {r7,lr}
        0x000185f8:    b082        ..      SUB      sp,sp,#8
        0x000185fa:    f2410008    A...    MOV      r0,#0x1008
        0x000185fe:    f2c40002    ....    MOVT     r0,#0x4002
        0x00018602:    6800        .h      LDR      r0,[r0,#0]
        0x00018604:    02c0        ..      LSLS     r0,r0,#11
        0x00018606:    d512        ..      BPL      0x1862e ; am_bsp_itm_printf_enable + 56
        0x00018608:    f640207c    @.|     MOV      r0,#0xa7c
        0x0001860c:    f2c4000c    ....    MOVT     r0,#0x400c
        0x00018610:    6800        .h      LDR      r0,[r0,#0]
        0x00018612:    07c0        ..      LSLS     r0,r0,#31
        0x00018614:    d00b        ..      BEQ      0x1862e ; am_bsp_itm_printf_enable + 56
        0x00018616:    a801        ..      ADD      r0,sp,#4
        0x00018618:    f000fa48    ..H.    BL       am_hal_dcu_get ; 0x18aac
        0x0001861c:    f89d0004    ....    LDRB     r0,[sp,#4]
        0x00018620:    06c0        ..      LSLS     r0,r0,#27
        0x00018622:    d408        ..      BMI      0x18636 ; am_bsp_itm_printf_enable + 64
        0x00018624:    2001        .       MOVS     r0,#1
        0x00018626:    2110        .!      MOVS     r1,#0x10
        0x00018628:    f000fa8e    ....    BL       am_hal_dcu_update ; 0x18b48
        0x0001862c:    b118        ..      CBZ      r0,0x18636 ; am_bsp_itm_printf_enable + 64
        0x0001862e:    f04f30ff    O..0    MOV      r0,#0xffffffff
        0x00018632:    b002        ..      ADD      sp,sp,#8
        0x00018634:    bd80        ..      POP      {r7,pc}
        0x00018636:    f24030da    @..0    MOV      r0,#0x3da
        0x0001863a:    f2c10000    ....    MOVT     r0,#0x1000
        0x0001863e:    2101        .!      MOVS     r1,#1
        0x00018640:    7001        .p      STRB     r1,[r0,#0]
        0x00018642:    f000ff4f    ..O.    BL       am_hal_itm_enable ; 0x194e4
        0x00018646:    f2442040    D.@     MOV      r0,#0x4240
        0x0001864a:    f2c0000f    ....    MOVT     r0,#0xf
        0x0001864e:    f001f9c8    ....    BL       am_hal_tpiu_enable ; 0x199e2
        0x00018652:    f2400040    @.@.    MOVW     r0,#0x40
        0x00018656:    f2c10000    ....    MOVT     r0,#0x1000
        0x0001865a:    6801        .h      LDR      r1,[r0,#0]
        0x0001865c:    201c        .       MOVS     r0,#0x1c
        0x0001865e:    f000fb7d    ..}.    BL       am_hal_gpio_pinconfig ; 0x18d5c
        0x00018662:    f2495029    I.)P    MOV      r0,#0x9529
        0x00018666:    f2c00001    ....    MOVT     r0,#1
        0x0001866a:    f001fba6    ....    BL       am_util_stdio_printf_init ; 0x19dba
        0x0001866e:    2000        .       MOVS     r0,#0
        0x00018670:    e7df        ..      B        0x18632 ; am_bsp_itm_printf_enable + 60
    am_dspi2s0_isr
        0x00018672:    b5b0        ..      PUSH     {r4,r5,r7,lr}
        0x00018674:    b082        ..      SUB      sp,sp,#8
        0x00018676:    f6400514    @...    MOV      r5,#0x814
        0x0001867a:    f2c10500    ....    MOVT     r5,#0x1000
        0x0001867e:    6828        (h      LDR      r0,[r5,#0]
        0x00018680:    a901        ..      ADD      r1,sp,#4
        0x00018682:    2201        ."      MOVS     r2,#1
        0x00018684:    2401        .$      MOVS     r4,#1
        0x00018686:    f000fe71    ..q.    BL       am_hal_i2s_interrupt_status_get ; 0x1936c
        0x0001868a:    6828        (h      LDR      r0,[r5,#0]
        0x0001868c:    9901        ..      LDR      r1,[sp,#4]
        0x0001868e:    f000fda2    ....    BL       am_hal_i2s_interrupt_clear ; 0x191d6
        0x00018692:    6828        (h      LDR      r0,[r5,#0]
        0x00018694:    9901        ..      LDR      r1,[sp,#4]
        0x00018696:    f2400244    @.D.    MOVW     r2,#0x44
        0x0001869a:    f2c10200    ....    MOVT     r2,#0x1000
        0x0001869e:    f000fdae    ....    BL       am_hal_i2s_interrupt_service ; 0x191fe
        0x000186a2:    9901        ..      LDR      r1,[sp,#4]
        0x000186a4:    0708        ..      LSLS     r0,r1,#28
        0x000186a6:    f24070f8    @..p    MOVW     r0,#0x7f8
        0x000186aa:    f2c10000    ....    MOVT     r0,#0x1000
        0x000186ae:    bf48        H.      IT       MI
        0x000186b0:    6004        .`      STRMI    r4,[r0,#0]
        0x000186b2:    06c9        ..      LSLS     r1,r1,#27
        0x000186b4:    bf44        D.      ITT      MI
        0x000186b6:    2101        .!      MOVMI    r1,#1
        0x000186b8:    6041        A`      STRMI    r1,[r0,#4]
        0x000186ba:    b002        ..      ADD      sp,sp,#8
        0x000186bc:    bdb0        ..      POP      {r4,r5,r7,pc}
    am_dspi2s1_isr
        0x000186be:    b5b0        ..      PUSH     {r4,r5,r7,lr}
        0x000186c0:    b082        ..      SUB      sp,sp,#8
        0x000186c2:    f6400518    @...    MOV      r5,#0x818
        0x000186c6:    f2c10500    ....    MOVT     r5,#0x1000
        0x000186ca:    6828        (h      LDR      r0,[r5,#0]
        0x000186cc:    a901        ..      ADD      r1,sp,#4
        0x000186ce:    2201        ."      MOVS     r2,#1
        0x000186d0:    2401        .$      MOVS     r4,#1
        0x000186d2:    f000fe4b    ..K.    BL       am_hal_i2s_interrupt_status_get ; 0x1936c
        0x000186d6:    6828        (h      LDR      r0,[r5,#0]
        0x000186d8:    9901        ..      LDR      r1,[sp,#4]
        0x000186da:    f000fd7c    ..|.    BL       am_hal_i2s_interrupt_clear ; 0x191d6
        0x000186de:    6828        (h      LDR      r0,[r5,#0]
        0x000186e0:    9901        ..      LDR      r1,[sp,#4]
        0x000186e2:    f240025c    @.\.    MOVW     r2,#0x5c
        0x000186e6:    f2c10200    ....    MOVT     r2,#0x1000
        0x000186ea:    f000fd88    ....    BL       am_hal_i2s_interrupt_service ; 0x191fe
        0x000186ee:    9901        ..      LDR      r1,[sp,#4]
        0x000186f0:    0708        ..      LSLS     r0,r1,#28
        0x000186f2:    f24070f8    @..p    MOVW     r0,#0x7f8
        0x000186f6:    f2c10000    ....    MOVT     r0,#0x1000
        0x000186fa:    bf48        H.      IT       MI
        0x000186fc:    6084        .`      STRMI    r4,[r0,#8]
        0x000186fe:    06c9        ..      LSLS     r1,r1,#27
        0x00018700:    bf44        D.      ITT      MI
        0x00018702:    2101        .!      MOVMI    r1,#1
        0x00018704:    60c1        .`      STRMI    r1,[r0,#0xc]
        0x00018706:    b002        ..      ADD      sp,sp,#8
        0x00018708:    bdb0        ..      POP      {r4,r5,r7,pc}
        0x0001870a:    0000        ..      MOVS     r0,r0
    am_hal_clkgen_control
        0x0001870c:    b510        ..      PUSH     {r4,lr}
        0x0001870e:    4602        .F      MOV      r2,r0
        0x00018710:    281e        .(      CMP      r0,#0x1e
        0x00018712:    f04f0006    O...    MOV      r0,#6
        0x00018716:    bf88        ..      IT       HI
        0x00018718:    bd10        ..      POPHI    {r4,pc}
        0x0001871a:    e8dff012    ....    TBH      [pc,r2,LSL #1]
    $d.1
        0x0001871e:    001f        ..      DCW    31
        0x00018720:    00300027    '.0.    DCD    3145767
        0x00018724:    00400037    7.@.    DCD    4194359
        0x00018728:    00710068    h.q.    DCD    7405672
        0x0001872c:    00a00091    ....    DCD    10485905
        0x00018730:    010d010d    ....    DCD    17629453
        0x00018734:    010d010d    ....    DCD    17629453
        0x00018738:    010d010d    ....    DCD    17629453
        0x0001873c:    010d010d    ....    DCD    17629453
        0x00018740:    010d010d    ....    DCD    17629453
        0x00018744:    00b400ac    ....    DCD    11796652
        0x00018748:    00c400bc    ....    DCD    12845244
        0x0001874c:    00d400cb    ....    DCD    13893835
        0x00018750:    00e400dc    ....    DCD    14942428
        0x00018754:    00f400ec    ....    DCD    15991020
        0x00018758:    010400fb    ....    DCD    17039611
    $t.2
        0x0001875c:    f244000c    D...    MOV      r0,#0x400c
        0x00018760:    f2c40000    ....    MOVT     r0,#0x4000
        0x00018764:    6801        .h      LDR      r1,[r0,#0]
        0x00018766:    f0210180    !...    BIC      r1,r1,#0x80
        0x0001876a:    e006        ..      B        0x1877a ; am_hal_clkgen_control + 110
        0x0001876c:    f244000c    D...    MOV      r0,#0x400c
        0x00018770:    f2c40000    ....    MOVT     r0,#0x4000
        0x00018774:    6801        .h      LDR      r1,[r0,#0]
        0x00018776:    f0410180    A...    ORR      r1,r1,#0x80
        0x0001877a:    6001        .`      STR      r1,[r0,#0]
        0x0001877c:    e0db        ..      B        0x18936 ; am_hal_clkgen_control + 554
        0x0001877e:    2900        .)      CMP      r1,#0
        0x00018780:    f00080dd    ....    BEQ.W    0x1893e ; am_hal_clkgen_control + 562
        0x00018784:    6808        .h      LDR      r0,[r1,#0]
        0x00018786:    f0400001    @...    ORR      r0,r0,#1
        0x0001878a:    e0dc        ..      B        0x18946 ; am_hal_clkgen_control + 570
        0x0001878c:    f244000c    D...    MOV      r0,#0x400c
        0x00018790:    f2c40000    ....    MOVT     r0,#0x4000
        0x00018794:    6941        Ai      LDR      r1,[r0,#0x14]
        0x00018796:    f0210101    !...    BIC      r1,r1,#1
        0x0001879a:    6141        Aa      STR      r1,[r0,#0x14]
        0x0001879c:    e0cb        ..      B        0x18936 ; am_hal_clkgen_control + 554
        0x0001879e:    f244000c    D...    MOV      r0,#0x400c
        0x000187a2:    f2c40000    ....    MOVT     r0,#0x4000
        0x000187a6:    6bc2        .k      LDR      r2,[r0,#0x3c]
        0x000187a8:    2402        .$      MOVS     r4,#2
        0x000187aa:    f0220201    "...    BIC      r2,r2,#1
        0x000187ae:    63c2        .c      STR      r2,[r0,#0x3c]
        0x000187b0:    6c03        .l      LDR      r3,[r0,#0x40]
        0x000187b2:    f64452d0    D..R    MOV      r2,#0x4dd0
        0x000187b6:    f0430307    C...    ORR      r3,r3,#7
        0x000187ba:    6403        .d      STR      r3,[r0,#0x40]
        0x000187bc:    6c43        Cl      LDR      r3,[r0,#0x44]
        0x000187be:    f2c00262    ..b.    MOVT     r2,#0x62
        0x000187c2:    f3640301    d...    BFI      r3,r4,#0,#2
        0x000187c6:    6443        Cd      STR      r3,[r0,#0x44]
        0x000187c8:    b121        !.      CBZ      r1,0x187d4 ; am_hal_clkgen_control + 200
        0x000187ca:    6809        .h      LDR      r1,[r1,#0]
        0x000187cc:    2900        .)      CMP      r1,#0
        0x000187ce:    bf18        ..      IT       NE
        0x000187d0:    f44f0200    O...    MOVNE    r2,#0x800000
        0x000187d4:    f64f73fc    O..s    MOV      r3,#0xfffc
        0x000187d8:    6c41        Al      LDR      r1,[r0,#0x44]
        0x000187da:    f6c773ff    ...s    MOVT     r3,#0x7fff
        0x000187de:    3307        .3      ADDS     r3,#7
        0x000187e0:    4019        .@      ANDS     r1,r1,r3
        0x000187e2:    4311        .C      ORRS     r1,r1,r2
        0x000187e4:    6441        Ad      STR      r1,[r0,#0x44]
        0x000187e6:    6bc1        .k      LDR      r1,[r0,#0x3c]
        0x000187e8:    f0410101    A...    ORR      r1,r1,#1
        0x000187ec:    e006        ..      B        0x187fc ; am_hal_clkgen_control + 240
        0x000187ee:    f244000c    D...    MOV      r0,#0x400c
        0x000187f2:    f2c40000    ....    MOVT     r0,#0x4000
        0x000187f6:    6bc1        .k      LDR      r1,[r0,#0x3c]
        0x000187f8:    f0210101    !...    BIC      r1,r1,#1
        0x000187fc:    63c1        .c      STR      r1,[r0,#0x3c]
        0x000187fe:    e09a        ..      B        0x18936 ; am_hal_clkgen_control + 554
        0x00018800:    2900        .)      CMP      r1,#0
        0x00018802:    f000809a    ....    BEQ.W    0x1893a ; am_hal_clkgen_control + 558
        0x00018806:    6808        .h      LDR      r0,[r1,#0]
        0x00018808:    2801        .(      CMP      r0,#1
        0x0001880a:    f0408096    @...    BNE.W    0x1893a ; am_hal_clkgen_control + 558
        0x0001880e:    f244040c    D...    MOV      r4,#0x400c
        0x00018812:    f2c40400    ....    MOVT     r4,#0x4000
        0x00018816:    6960        `i      LDR      r0,[r4,#0x14]
        0x00018818:    f6464300    F..C    MOVW     r3,#0x6c00
        0x0001881c:    f0200001     ...    BIC      r0,r0,#1
        0x00018820:    6160        `a      STR      r0,[r4,#0x14]
        0x00018822:    6c20         l      LDR      r0,[r4,#0x40]
        0x00018824:    f2c023dc    ...#    MOVT     r3,#0x2dc
        0x00018828:    f0400007    @...    ORR      r0,r0,#7
        0x0001882c:    6420         d      STR      r0,[r4,#0x40]
        0x0001882e:    684a        Jh      LDR      r2,[r1,#4]
        0x00018830:    1e50        P.      SUBS     r0,r2,#1
        0x00018832:    4298        .B      CMP      r0,r3
        0x00018834:    f080808d    ....    BCS.W    0x18952 ; am_hal_clkgen_control + 582
        0x00018838:    f44f1c00    O...    MOV      r12,#0x200000
        0x0001883c:    2002        .       MOVS     r0,#2
        0x0001883e:    e091        ..      B        0x18964 ; am_hal_clkgen_control + 600
        0x00018840:    f244000c    D...    MOV      r0,#0x400c
        0x00018844:    f2c40000    ....    MOVT     r0,#0x4000
        0x00018848:    6b81        .k      LDR      r1,[r0,#0x38]
        0x0001884a:    0689        ..      LSLS     r1,r1,#26
        0x0001884c:    d473        s.      BMI      0x18936 ; am_hal_clkgen_control + 554
        0x0001884e:    6b81        .k      LDR      r1,[r0,#0x38]
        0x00018850:    f0410120    A. .    ORR      r1,r1,#0x20
        0x00018854:    6381        .c      STR      r1,[r0,#0x38]
        0x00018856:    200a        .       MOVS     r0,#0xa
        0x00018858:    f000f9ec    ....    BL       am_hal_delay_us ; 0x18c34
        0x0001885c:    e06b        k.      B        0x18936 ; am_hal_clkgen_control + 554
        0x0001885e:    f244000c    D...    MOV      r0,#0x400c
        0x00018862:    f2c40000    ....    MOVT     r0,#0x4000
        0x00018866:    6b81        .k      LDR      r1,[r0,#0x38]
        0x00018868:    0689        ..      LSLS     r1,r1,#26
        0x0001886a:    d564        d.      BPL      0x18936 ; am_hal_clkgen_control + 554
        0x0001886c:    6b81        .k      LDR      r1,[r0,#0x38]
        0x0001886e:    f0210120    !. .    BIC      r1,r1,#0x20
        0x00018872:    6381        .c      STR      r1,[r0,#0x38]
        0x00018874:    e05f        _.      B        0x18936 ; am_hal_clkgen_control + 554
        0x00018876:    f244000c    D...    MOV      r0,#0x400c
        0x0001887a:    f2c40000    ....    MOVT     r0,#0x4000
        0x0001887e:    6f81        .o      LDR      r1,[r0,#0x78]
        0x00018880:    f0410180    A...    ORR      r1,r1,#0x80
        0x00018884:    e056        V.      B        0x18934 ; am_hal_clkgen_control + 552
        0x00018886:    f244000c    D...    MOV      r0,#0x400c
        0x0001888a:    f2c40000    ....    MOVT     r0,#0x4000
        0x0001888e:    6f81        .o      LDR      r1,[r0,#0x78]
        0x00018890:    f0210180    !...    BIC      r1,r1,#0x80
        0x00018894:    e04e        N.      B        0x18934 ; am_hal_clkgen_control + 552
        0x00018896:    f244000c    D...    MOV      r0,#0x400c
        0x0001889a:    f2c40000    ....    MOVT     r0,#0x4000
        0x0001889e:    6f81        .o      LDR      r1,[r0,#0x78]
        0x000188a0:    f0210130    !.0.    BIC      r1,r1,#0x30
        0x000188a4:    e046        F.      B        0x18934 ; am_hal_clkgen_control + 552
        0x000188a6:    f244000c    D...    MOV      r0,#0x400c
        0x000188aa:    f2c40000    ....    MOVT     r0,#0x4000
        0x000188ae:    6f81        .o      LDR      r1,[r0,#0x78]
        0x000188b0:    2201        ."      MOVS     r2,#1
        0x000188b2:    e005        ..      B        0x188c0 ; am_hal_clkgen_control + 436
        0x000188b4:    f244000c    D...    MOV      r0,#0x400c
        0x000188b8:    f2c40000    ....    MOVT     r0,#0x4000
        0x000188bc:    6f81        .o      LDR      r1,[r0,#0x78]
        0x000188be:    2202        ."      MOVS     r2,#2
        0x000188c0:    f3621105    b...    BFI      r1,r2,#4,#2
        0x000188c4:    e036        6.      B        0x18934 ; am_hal_clkgen_control + 552
        0x000188c6:    f244000c    D...    MOV      r0,#0x400c
        0x000188ca:    f2c40000    ....    MOVT     r0,#0x4000
        0x000188ce:    6f81        .o      LDR      r1,[r0,#0x78]
        0x000188d0:    f0410130    A.0.    ORR      r1,r1,#0x30
        0x000188d4:    e02e        ..      B        0x18934 ; am_hal_clkgen_control + 552
        0x000188d6:    f244000c    D...    MOV      r0,#0x400c
        0x000188da:    f2c40000    ....    MOVT     r0,#0x4000
        0x000188de:    6f81        .o      LDR      r1,[r0,#0x78]
        0x000188e0:    f0410108    A...    ORR      r1,r1,#8
        0x000188e4:    e026        &.      B        0x18934 ; am_hal_clkgen_control + 552
        0x000188e6:    f244000c    D...    MOV      r0,#0x400c
        0x000188ea:    f2c40000    ....    MOVT     r0,#0x4000
        0x000188ee:    6f81        .o      LDR      r1,[r0,#0x78]
        0x000188f0:    f0210108    !...    BIC      r1,r1,#8
        0x000188f4:    e01e        ..      B        0x18934 ; am_hal_clkgen_control + 552
        0x000188f6:    f244000c    D...    MOV      r0,#0x400c
        0x000188fa:    f2c40000    ....    MOVT     r0,#0x4000
        0x000188fe:    6f81        .o      LDR      r1,[r0,#0x78]
        0x00018900:    f0210103    !...    BIC      r1,r1,#3
        0x00018904:    e016        ..      B        0x18934 ; am_hal_clkgen_control + 552
        0x00018906:    f244000c    D...    MOV      r0,#0x400c
        0x0001890a:    f2c40000    ....    MOVT     r0,#0x4000
        0x0001890e:    6f81        .o      LDR      r1,[r0,#0x78]
        0x00018910:    2201        ."      MOVS     r2,#1
        0x00018912:    e005        ..      B        0x18920 ; am_hal_clkgen_control + 532
        0x00018914:    f244000c    D...    MOV      r0,#0x400c
        0x00018918:    f2c40000    ....    MOVT     r0,#0x4000
        0x0001891c:    6f81        .o      LDR      r1,[r0,#0x78]
        0x0001891e:    2202        ."      MOVS     r2,#2
        0x00018920:    f3620101    b...    BFI      r1,r2,#0,#2
        0x00018924:    e006        ..      B        0x18934 ; am_hal_clkgen_control + 552
        0x00018926:    f244000c    D...    MOV      r0,#0x400c
        0x0001892a:    f2c40000    ....    MOVT     r0,#0x4000
        0x0001892e:    6f81        .o      LDR      r1,[r0,#0x78]
        0x00018930:    f0410103    A...    ORR      r1,r1,#3
        0x00018934:    6781        .g      STR      r1,[r0,#0x78]
        0x00018936:    2000        .       MOVS     r0,#0
        0x00018938:    bd10        ..      POP      {r4,pc}
        0x0001893a:    2006        .       MOVS     r0,#6
        0x0001893c:    bd10        ..      POP      {r4,pc}
        0x0001893e:    f64b0001    K...    MOV      r0,#0xb801
        0x00018942:    f2c000a5    ....    MOVT     r0,#0xa5
        0x00018946:    f244010c    D...    MOV      r1,#0x400c
        0x0001894a:    f2c40100    ....    MOVT     r1,#0x4000
        0x0001894e:    6148        Ha      STR      r0,[r1,#0x14]
        0x00018950:    e7f1        ..      B        0x18936 ; am_hal_clkgen_control + 554
        0x00018952:    f24d73ff    M..s    MOV      r3,#0xd7ff
        0x00018956:    f2c053b8    ...S    MOVT     r3,#0x5b8
        0x0001895a:    4298        .B      CMP      r0,r3
        0x0001895c:    d815        ..      BHI      0x1898a ; am_hal_clkgen_control + 638
        0x0001895e:    f44f0c80    O...    MOV      r12,#0x400000
        0x00018962:    2003        .       MOVS     r0,#3
        0x00018964:    6c63        cl      LDR      r3,[r4,#0x44]
        0x00018966:    f0230303    #...    BIC      r3,r3,#3
        0x0001896a:    4418        .D      ADD      r0,r0,r3
        0x0001896c:    6460        `d      STR      r0,[r4,#0x44]
        0x0001896e:    688b        .h      LDR      r3,[r1,#8]
        0x00018970:    0850        P.      LSRS     r0,r2,#1
        0x00018972:    2100        .!      MOVS     r1,#0
        0x00018974:    fbec0103    ....    UMLAL    r0,r1,r12,r3
        0x00018978:    2300        .#      MOVS     r3,#0
        0x0001897a:    f7fffcd5    ....    BL       __aeabi_uldivmod ; 0x18328
        0x0001897e:    0f42        B.      LSRS     r2,r0,#29
        0x00018980:    ea4202c1    B...    ORR      r2,r2,r1,LSL #3
        0x00018984:    ea427151    B.Qq    ORR      r1,r2,r1,LSR #29
        0x00018988:    b109        ..      CBZ      r1,0x1898e ; am_hal_clkgen_control + 642
        0x0001898a:    2005        .       MOVS     r0,#5
        0x0001898c:    bd10        ..      POP      {r4,pc}
        0x0001898e:    f64f72fc    O..r    MOV      r2,#0xfffc
        0x00018992:    6c61        al      LDR      r1,[r4,#0x44]
        0x00018994:    f6c772ff    ...r    MOVT     r2,#0x7fff
        0x00018998:    ea020080    ....    AND      r0,r2,r0,LSL #2
        0x0001899c:    3207        .2      ADDS     r2,#7
        0x0001899e:    4011        .@      ANDS     r1,r1,r2
        0x000189a0:    4408        .D      ADD      r0,r0,r1
        0x000189a2:    6460        `d      STR      r0,[r4,#0x44]
        0x000189a4:    6be0        .k      LDR      r0,[r4,#0x3c]
        0x000189a6:    f0400001    @...    ORR      r0,r0,#1
        0x000189aa:    63e0        .c      STR      r0,[r4,#0x3c]
        0x000189ac:    e7c3        ..      B        0x18936 ; am_hal_clkgen_control + 554
    am_hal_daxi_config
        0x000189ae:    b5b0        ..      PUSH     {r4,r5,r7,lr}
        0x000189b0:    b082        ..      SUB      sp,sp,#8
        0x000189b2:    2550        P%      MOVS     r5,#0x50
        0x000189b4:    4604        .F      MOV      r4,r0
        0x000189b6:    f6c40500    ....    MOVT     r5,#0x4800
        0x000189ba:    f000fd87    ....    BL       am_hal_interrupt_master_disable ; 0x194cc
        0x000189be:    9001        ..      STR      r0,[sp,#4]
        0x000189c0:    2001        .       MOVS     r0,#1
        0x000189c2:    f000f827    ..'.    BL       am_hal_daxi_control ; 0x18a14
        0x000189c6:    b1cc        ..      CBZ      r4,0x189fc ; am_hal_daxi_config + 78
        0x000189c8:    7860        `x      LDRB     r0,[r4,#1]
        0x000189ca:    7922        "y      LDRB     r2,[r4,#4]
        0x000189cc:    78a1        .x      LDRB     r1,[r4,#2]
        0x000189ce:    78e3        .x      LDRB     r3,[r4,#3]
        0x000189d0:    f0020201    ....    AND      r2,r2,#1
        0x000189d4:    f000007f    ....    AND      r0,r0,#0x7f
        0x000189d8:    ea420040    B.@.    ORR      r0,r2,r0,LSL #1
        0x000189dc:    f363200b    c..     BFI      r0,r3,#8,#4
        0x000189e0:    f001011f    ....    AND      r1,r1,#0x1f
        0x000189e4:    ea404001    @..@    ORR      r0,r0,r1,LSL #16
        0x000189e8:    6028        (`      STR      r0,[r5,#0]
        0x000189ea:    7920         y      LDRB     r0,[r4,#4]
        0x000189ec:    f2400100    @...    MOVW     r1,#0
        0x000189f0:    f2c10100    ....    MOVT     r1,#0x1000
        0x000189f4:    7108        .q      STRB     r0,[r1,#4]
        0x000189f6:    6820         h      LDR      r0,[r4,#0]
        0x000189f8:    6008        .`      STR      r0,[r1,#0]
        0x000189fa:    e001        ..      B        0x18a00 ; am_hal_daxi_config + 82
        0x000189fc:    2006        .       MOVS     r0,#6
        0x000189fe:    6028        (`      STR      r0,[r5,#0]
        0x00018a00:    2000        .       MOVS     r0,#0
        0x00018a02:    f2c470ff    ...p    MOVT     r0,#0x47ff
        0x00018a06:    6800        .h      LDR      r0,[r0,#0]
        0x00018a08:    9801        ..      LDR      r0,[sp,#4]
        0x00018a0a:    f000fd67    ..g.    BL       am_hal_interrupt_master_set ; 0x194dc
        0x00018a0e:    2000        .       MOVS     r0,#0
        0x00018a10:    b002        ..      ADD      sp,sp,#8
        0x00018a12:    bdb0        ..      POP      {r4,r5,r7,pc}
    am_hal_daxi_control
        0x00018a14:    b510        ..      PUSH     {r4,lr}
        0x00018a16:    b082        ..      SUB      sp,sp,#8
        0x00018a18:    2803        .(      CMP      r0,#3
        0x00018a1a:    d821        !.      BHI      0x18a60 ; am_hal_daxi_control + 76
        0x00018a1c:    e8dff000    ....    TBB      [pc,r0]
    $d.9
        0x00018a20:    19142202    ."..    DCD    420749826
    $t.10
        0x00018a24:    2054        T       MOVS     r0,#0x54
        0x00018a26:    f6c40000    ....    MOVT     r0,#0x4800
        0x00018a2a:    f8501c04    P...    LDR      r1,[r0,#-4]
        0x00018a2e:    0749        I.      LSLS     r1,r1,#29
        0x00018a30:    d438        8.      BMI      0x18aa4 ; am_hal_daxi_control + 144
        0x00018a32:    f3bf8f4f    ..O.    DSB      
        0x00018a36:    6801        .h      LDR      r1,[r0,#0]
        0x00018a38:    f0410102    A...    ORR      r1,r1,#2
        0x00018a3c:    6001        .`      STR      r1,[r0,#0]
        0x00018a3e:    2000        .       MOVS     r0,#0
        0x00018a40:    f2c470ff    ...p    MOVT     r0,#0x47ff
        0x00018a44:    6800        .h      LDR      r0,[r0,#0]
        0x00018a46:    e02d        -.      B        0x18aa4 ; am_hal_daxi_control + 144
        0x00018a48:    2000        .       MOVS     r0,#0
        0x00018a4a:    2400        .$      MOVS     r4,#0
        0x00018a4c:    f7ffffaf    ....    BL       am_hal_daxi_config ; 0x189ae
        0x00018a50:    e029        ).      B        0x18aa6 ; am_hal_daxi_control + 146
        0x00018a52:    f2400000    @...    MOVW     r0,#0
        0x00018a56:    f2c10000    ....    MOVT     r0,#0x1000
        0x00018a5a:    f7ffffa8    ....    BL       am_hal_daxi_config ; 0x189ae
        0x00018a5e:    e021        !.      B        0x18aa4 ; am_hal_daxi_control + 144
        0x00018a60:    2406        .$      MOVS     r4,#6
        0x00018a62:    e020         .      B        0x18aa6 ; am_hal_daxi_control + 146
        0x00018a64:    2454        T$      MOVS     r4,#0x54
        0x00018a66:    f6c40400    ....    MOVT     r4,#0x4800
        0x00018a6a:    f000fd2f    ../.    BL       am_hal_interrupt_master_disable ; 0x194cc
        0x00018a6e:    9001        ..      STR      r0,[sp,#4]
        0x00018a70:    f8540c04    T...    LDR      r0,[r4,#-4]
        0x00018a74:    0740        @.      LSLS     r0,r0,#29
        0x00018a76:    d40f        ..      BMI      0x18a98 ; am_hal_daxi_control + 132
        0x00018a78:    f3bf8f4f    ..O.    DSB      
        0x00018a7c:    6820         h      LDR      r0,[r4,#0]
        0x00018a7e:    f0400001    @...    ORR      r0,r0,#1
        0x00018a82:    6020         `      STR      r0,[r4,#0]
        0x00018a84:    2000        .       MOVS     r0,#0
        0x00018a86:    f2c470ff    ...p    MOVT     r0,#0x47ff
        0x00018a8a:    6801        .h      LDR      r1,[r0,#0]
        0x00018a8c:    6821        !h      LDR      r1,[r4,#0]
        0x00018a8e:    f0410102    A...    ORR      r1,r1,#2
        0x00018a92:    6021        !`      STR      r1,[r4,#0]
        0x00018a94:    6800        .h      LDR      r0,[r0,#0]
        0x00018a96:    bf00        ..      NOP      
        0x00018a98:    6820         h      LDR      r0,[r4,#0]
        0x00018a9a:    0740        @.      LSLS     r0,r0,#29
        0x00018a9c:    d5fc        ..      BPL      0x18a98 ; am_hal_daxi_control + 132
        0x00018a9e:    9801        ..      LDR      r0,[sp,#4]
        0x00018aa0:    f000fd1c    ....    BL       am_hal_interrupt_master_set ; 0x194dc
        0x00018aa4:    2400        .$      MOVS     r4,#0
        0x00018aa6:    4620         F      MOV      r0,r4
        0x00018aa8:    b002        ..      ADD      sp,sp,#8
        0x00018aaa:    bd10        ..      POP      {r4,pc}
    am_hal_dcu_get
        0x00018aac:    b5b0        ..      PUSH     {r4,r5,r7,lr}
        0x00018aae:    b084        ..      SUB      sp,sp,#0x10
        0x00018ab0:    f2410108    A...    MOV      r1,#0x1008
        0x00018ab4:    f2c40102    ....    MOVT     r1,#0x4002
        0x00018ab8:    6809        .h      LDR      r1,[r1,#0]
        0x00018aba:    02c9        ..      LSLS     r1,r1,#11
        0x00018abc:    d506        ..      BPL      0x18acc ; am_hal_dcu_get + 32
        0x00018abe:    f640217c    @.|!    MOV      r1,#0xa7c
        0x00018ac2:    f2c4010c    ....    MOVT     r1,#0x400c
        0x00018ac6:    6809        .h      LDR      r1,[r1,#0]
        0x00018ac8:    07c9        ..      LSLS     r1,r1,#31
        0x00018aca:    d101        ..      BNE      0x18ad0 ; am_hal_dcu_get + 36
        0x00018acc:    2007        .       MOVS     r0,#7
        0x00018ace:    e038        8.      B        0x18b42 ; am_hal_dcu_get + 150
        0x00018ad0:    f2400194    @...    MOVW     r1,#0x94
        0x00018ad4:    f2c10100    ....    MOVT     r1,#0x1000
        0x00018ad8:    6809        .h      LDR      r1,[r1,#0]
        0x00018ada:    f240333c    @.<3    MOVW     r3,#0x33c
        0x00018ade:    684a        Jh      LDR      r2,[r1,#4]
        0x00018ae0:    f2c10300    ....    MOVT     r3,#0x1000
        0x00018ae4:    9201        ..      STR      r2,[sp,#4]
        0x00018ae6:    6809        .h      LDR      r1,[r1,#0]
        0x00018ae8:    9102        ..      STR      r1,[sp,#8]
        0x00018aea:    681b        .h      LDR      r3,[r3,#0]
        0x00018aec:    fa21fc03    !...    LSR      r12,r1,r3
        0x00018af0:    f1c30120    .. .    RSB      r1,r3,#0x20
        0x00018af4:    fa02f101    ....    LSL      r1,r2,r1
        0x00018af8:    ea4c0e01    L...    ORR      lr,r12,r1
        0x00018afc:    f1b30120    .. .    SUBS     r1,r3,#0x20
        0x00018b00:    bf58        X.      IT       PL
        0x00018b02:    fa22fe01    "...    LSRPL    lr,r2,r1
        0x00018b06:    fa22f203    "...    LSR      r2,r2,r3
        0x00018b0a:    f04f0300    O...    MOV      r3,#0
        0x00018b0e:    f04f0c01    O...    MOV      r12,#1
        0x00018b12:    f04f0100    O...    MOV      r1,#0
        0x00018b16:    bf58        X.      IT       PL
        0x00018b18:    2200        ."      MOVPL    r2,#0
        0x00018b1a:    bf00        ..      NOP      
        0x00018b1c:    f00e0407    ....    AND      r4,lr,#7
        0x00018b20:    fa0cf503    ....    LSL      r5,r12,r3
        0x00018b24:    f0940f05    ....    TEQ      r4,#5
        0x00018b28:    bf08        ..      IT       EQ
        0x00018b2a:    4329        )C      ORREQ    r1,r1,r5
        0x00018b2c:    ea4f05de    O...    LSR      r5,lr,#3
        0x00018b30:    3301        .3      ADDS     r3,#1
        0x00018b32:    ea457e42    E.B~    ORR      lr,r5,r2,LSL #29
        0x00018b36:    2b14        .+      CMP      r3,#0x14
        0x00018b38:    ea4f02d2    O...    LSR      r2,r2,#3
        0x00018b3c:    d1ee        ..      BNE      0x18b1c ; am_hal_dcu_get + 112
        0x00018b3e:    6001        .`      STR      r1,[r0,#0]
        0x00018b40:    2000        .       MOVS     r0,#0
        0x00018b42:    b004        ..      ADD      sp,sp,#0x10
        0x00018b44:    bdb0        ..      POP      {r4,r5,r7,pc}
        0x00018b46:    0000        ..      MOVS     r0,r0
    am_hal_dcu_update
        0x00018b48:    e92d41f0    -..A    PUSH     {r4-r8,lr}
        0x00018b4c:    b086        ..      SUB      sp,sp,#0x18
        0x00018b4e:    f2410208    A...    MOV      r2,#0x1008
        0x00018b52:    f2c40202    ....    MOVT     r2,#0x4002
        0x00018b56:    6812        .h      LDR      r2,[r2,#0]
        0x00018b58:    02d2        ..      LSLS     r2,r2,#11
        0x00018b5a:    d53b        ;.      BPL      0x18bd4 ; am_hal_dcu_update + 140
        0x00018b5c:    f6402c7c    @.|,    MOV      r12,#0xa7c
        0x00018b60:    f2c40c0c    ....    MOVT     r12,#0x400c
        0x00018b64:    f8dc2000    ...     LDR      r2,[r12,#0]
        0x00018b68:    07d2        ..      LSLS     r2,r2,#31
        0x00018b6a:    f04f0207    O...    MOV      r2,#7
        0x00018b6e:    d032        2.      BEQ      0x18bd6 ; am_hal_dcu_update + 142
        0x00018b70:    f240333c    @.<3    MOVW     r3,#0x33c
        0x00018b74:    f2c10300    ....    MOVT     r3,#0x1000
        0x00018b78:    f8d38000    ....    LDR      r8,[r3,#0]
        0x00018b7c:    2500        .%      MOVS     r5,#0
        0x00018b7e:    2300        .#      MOVS     r3,#0
        0x00018b80:    f04f0e00    O...    MOV      lr,#0
        0x00018b84:    078e        ..      LSLS     r6,r1,#30
        0x00018b86:    d511        ..      BPL      0x18bac ; am_hal_dcu_update + 100
        0x00018b88:    eb080605    ....    ADD      r6,r8,r5
        0x00018b8c:    f1c60420    .. .    RSB      r4,r6,#0x20
        0x00018b90:    f1b60720    .. .    SUBS     r7,r6,#0x20
        0x00018b94:    fa22f404    "...    LSR      r4,r2,r4
        0x00018b98:    fa02f606    ....    LSL      r6,r2,r6
        0x00018b9c:    bf58        X.      IT       PL
        0x00018b9e:    fa02f407    ....    LSLPL    r4,r2,r7
        0x00018ba2:    bf58        X.      IT       PL
        0x00018ba4:    2600        .&      MOVPL    r6,#0
        0x00018ba6:    ea4e0e04    N...    ORR      lr,lr,r4
        0x00018baa:    4333        3C      ORRS     r3,r3,r6
        0x00018bac:    3503        .5      ADDS     r5,#3
        0x00018bae:    2d3c        <-      CMP      r5,#0x3c
        0x00018bb0:    ea4f0151    O.Q.    LSR      r1,r1,#1
        0x00018bb4:    d1e6        ..      BNE      0x18b84 ; am_hal_dcu_update + 60
        0x00018bb6:    f2400198    @...    MOVW     r1,#0x98
        0x00018bba:    f2c10100    ....    MOVT     r1,#0x1000
        0x00018bbe:    6809        .h      LDR      r1,[r1,#0]
        0x00018bc0:    684a        Jh      LDR      r2,[r1,#4]
        0x00018bc2:    9201        ..      STR      r2,[sp,#4]
        0x00018bc4:    6809        .h      LDR      r1,[r1,#0]
        0x00018bc6:    ea02020e    ....    AND      r2,r2,lr
        0x00018bca:    ea010403    ....    AND      r4,r1,r3
        0x00018bce:    4322        "C      ORRS     r2,r2,r4
        0x00018bd0:    9102        ..      STR      r1,[sp,#8]
        0x00018bd2:    d004        ..      BEQ      0x18bde ; am_hal_dcu_update + 150
        0x00018bd4:    2207        ."      MOVS     r2,#7
        0x00018bd6:    4610        .F      MOV      r0,r2
        0x00018bd8:    b006        ..      ADD      sp,sp,#0x18
        0x00018bda:    e8bd81f0    ....    POP      {r4-r8,pc}
        0x00018bde:    f2400194    @...    MOVW     r1,#0x94
        0x00018be2:    f2c10100    ....    MOVT     r1,#0x1000
        0x00018be6:    6809        .h      LDR      r1,[r1,#0]
        0x00018be8:    f2400510    @...    MOVW     r5,#0x10
        0x00018bec:    684a        Jh      LDR      r2,[r1,#4]
        0x00018bee:    f2400608    @...    MOVW     r6,#8
        0x00018bf2:    9203        ..      STR      r2,[sp,#0xc]
        0x00018bf4:    680c        .h      LDR      r4,[r1,#0]
        0x00018bf6:    f2c10500    ....    MOVT     r5,#0x1000
        0x00018bfa:    f2c10600    ....    MOVT     r6,#0x1000
        0x00018bfe:    9404        ..      STR      r4,[sp,#0x10]
        0x00018c00:    2800        .(      CMP      r0,#0
        0x00018c02:    bf18        ..      IT       NE
        0x00018c04:    462e        .F      MOVNE    r6,r5
        0x00018c06:    e9d65000    ...P    LDRD     r5,r0,[r6,#0]
        0x00018c0a:    439c        .C      BICS     r4,r4,r3
        0x00018c0c:    ea22020e    "...    BIC      r2,r2,lr
        0x00018c10:    402b        +@      ANDS     r3,r3,r5
        0x00018c12:    ea00000e    ....    AND      r0,r0,lr
        0x00018c16:    4310        .C      ORRS     r0,r0,r2
        0x00018c18:    ea430204    C...    ORR      r2,r3,r4
        0x00018c1c:    e9cd0203    ....    STRD     r0,r2,[sp,#0xc]
        0x00018c20:    9803        ..      LDR      r0,[sp,#0xc]
        0x00018c22:    6048        H`      STR      r0,[r1,#4]
        0x00018c24:    9804        ..      LDR      r0,[sp,#0x10]
        0x00018c26:    6008        .`      STR      r0,[r1,#0]
        0x00018c28:    f8dc0000    ....    LDR      r0,[r12,#0]
        0x00018c2c:    07c0        ..      LSLS     r0,r0,#31
        0x00018c2e:    d0fb        ..      BEQ      0x18c28 ; am_hal_dcu_update + 224
        0x00018c30:    2200        ."      MOVS     r2,#0
        0x00018c32:    e7d0        ..      B        0x18bd6 ; am_hal_dcu_update + 142
    am_hal_delay_us
        0x00018c34:    f2410100    A...    MOVW     r1,#0x1000
        0x00018c38:    f2c40102    ....    MOVT     r1,#0x4002
        0x00018c3c:    6809        .h      LDR      r1,[r1,#0]
        0x00018c3e:    2205        ."      MOVS     r2,#5
        0x00018c40:    f0010118    ....    AND      r1,r1,#0x18
        0x00018c44:    2910        .)      CMP      r1,#0x10
        0x00018c46:    bf08        ..      IT       EQ
        0x00018c48:    2206        ."      MOVEQ    r2,#6
        0x00018c4a:    fa00f002    ....    LSL      r0,r0,r2
        0x00018c4e:    f04f010f    O...    MOV      r1,#0xf
        0x00018c52:    bf08        ..      IT       EQ
        0x00018c54:    2115        .!      MOVEQ    r1,#0x15
        0x00018c56:    4281        .B      CMP      r1,r0
        0x00018c58:    bf28        (.      IT       CS
        0x00018c5a:    4770        pG      BXCS     lr
        0x00018c5c:    1a40        @.      SUBS     r0,r0,r1
        0x00018c5e:    f64a51e0    J..Q    MOV      r1,#0xade0
        0x00018c62:    f2c00101    ....    MOVT     r1,#1
        0x00018c66:    6a49        Ij      LDR      r1,[r1,#0x24]
        0x00018c68:    4708        .G      BX       r1
        0x00018c6a:    0000        ..      MOVS     r0,r0
    am_hal_delay_us_status_change
        0x00018c6c:    e92d43f0    -..C    PUSH     {r4-r9,lr}
        0x00018c70:    b081        ..      SUB      sp,sp,#4
        0x00018c72:    460d        .F      MOV      r5,r1
        0x00018c74:    6809        .h      LDR      r1,[r1,#0]
        0x00018c76:    4011        .@      ANDS     r1,r1,r2
        0x00018c78:    4299        .B      CMP      r1,r3
        0x00018c7a:    d01b        ..      BEQ      0x18cb4 ; am_hal_delay_us_status_change + 72
        0x00018c7c:    f64a51e0    J..Q    MOV      r1,#0xade0
        0x00018c80:    f2c00101    ....    MOVT     r1,#1
        0x00018c84:    6a4f        Oj      LDR      r7,[r1,#0x24]
        0x00018c86:    f2410900    A...    MOVW     r9,#0x1000
        0x00018c8a:    4698        .F      MOV      r8,r3
        0x00018c8c:    4616        .F      MOV      r6,r2
        0x00018c8e:    1c44        D.      ADDS     r4,r0,#1
        0x00018c90:    f2c40902    ....    MOVT     r9,#0x4002
        0x00018c94:    3c01        .<      SUBS     r4,#1
        0x00018c96:    d00f        ..      BEQ      0x18cb8 ; am_hal_delay_us_status_change + 76
        0x00018c98:    f8d90000    ....    LDR      r0,[r9,#0]
        0x00018c9c:    f0000018    ....    AND      r0,r0,#0x18
        0x00018ca0:    2810        .(      CMP      r0,#0x10
        0x00018ca2:    f04f0011    O...    MOV      r0,#0x11
        0x00018ca6:    bf08        ..      IT       EQ
        0x00018ca8:    202b        +       MOVEQ    r0,#0x2b
        0x00018caa:    47b8        .G      BLX      r7
        0x00018cac:    6828        (h      LDR      r0,[r5,#0]
        0x00018cae:    4030        0@      ANDS     r0,r0,r6
        0x00018cb0:    4540        @E      CMP      r0,r8
        0x00018cb2:    d1ef        ..      BNE      0x18c94 ; am_hal_delay_us_status_change + 40
        0x00018cb4:    2000        .       MOVS     r0,#0
        0x00018cb6:    e000        ..      B        0x18cba ; am_hal_delay_us_status_change + 78
        0x00018cb8:    2004        .       MOVS     r0,#4
        0x00018cba:    b001        ..      ADD      sp,sp,#4
        0x00018cbc:    e8bd83f0    ....    POP      {r4-r9,pc}
    am_hal_delay_us_status_check
        0x00018cc0:    e92d47f0    -..G    PUSH     {r4-r10,lr}
        0x00018cc4:    4607        .F      MOV      r7,r0
        0x00018cc6:    f64a50e0    J..P    MOV      r0,#0xade0
        0x00018cca:    f2c00001    ....    MOVT     r0,#1
        0x00018cce:    f8dd8020    .. .    LDR      r8,[sp,#0x20]
        0x00018cd2:    6a44        Dj      LDR      r4,[r0,#0x24]
        0x00018cd4:    f2410a00    A...    MOVW     r10,#0x1000
        0x00018cd8:    4699        .F      MOV      r9,r3
        0x00018cda:    4615        .F      MOV      r5,r2
        0x00018cdc:    460e        .F      MOV      r6,r1
        0x00018cde:    f2c40a02    ....    MOVT     r10,#0x4002
        0x00018ce2:    bf00        ..      NOP      
        0x00018ce4:    6830        0h      LDR      r0,[r6,#0]
        0x00018ce6:    f1b80f00    ....    CMP      r8,#0
        0x00018cea:    ea000005    ....    AND      r0,r0,r5
        0x00018cee:    d003        ..      BEQ      0x18cf8 ; am_hal_delay_us_status_check + 56
        0x00018cf0:    4548        HE      CMP      r0,r9
        0x00018cf2:    d103        ..      BNE      0x18cfc ; am_hal_delay_us_status_check + 60
        0x00018cf4:    e00f        ..      B        0x18d16 ; am_hal_delay_us_status_check + 86
        0x00018cf6:    bf00        ..      NOP      
        0x00018cf8:    4548        HE      CMP      r0,r9
        0x00018cfa:    d10c        ..      BNE      0x18d16 ; am_hal_delay_us_status_check + 86
        0x00018cfc:    b177        w.      CBZ      r7,0x18d1c ; am_hal_delay_us_status_check + 92
        0x00018cfe:    f8da0000    ....    LDR      r0,[r10,#0]
        0x00018d02:    3f01        .?      SUBS     r7,#1
        0x00018d04:    f0000018    ....    AND      r0,r0,#0x18
        0x00018d08:    2810        .(      CMP      r0,#0x10
        0x00018d0a:    f04f0011    O...    MOV      r0,#0x11
        0x00018d0e:    bf08        ..      IT       EQ
        0x00018d10:    202b        +       MOVEQ    r0,#0x2b
        0x00018d12:    47a0        .G      BLX      r4
        0x00018d14:    e7e6        ..      B        0x18ce4 ; am_hal_delay_us_status_check + 36
        0x00018d16:    2000        .       MOVS     r0,#0
        0x00018d18:    e8bd87f0    ....    POP      {r4-r10,pc}
        0x00018d1c:    2004        .       MOVS     r0,#4
        0x00018d1e:    e8bd87f0    ....    POP      {r4-r10,pc}
    am_hal_fault_status_get
        0x00018d22:    b1c8        ..      CBZ      r0,0x18d58 ; am_hal_fault_status_get + 54
        0x00018d24:    2180        .!      MOVS     r1,#0x80
        0x00018d26:    f6c40100    ....    MOVT     r1,#0x4800
        0x00018d2a:    68ca        .h      LDR      r2,[r1,#0xc]
        0x00018d2c:    b2d3        ..      UXTB     r3,r2
        0x00018d2e:    f0020201    ....    AND      r2,r2,#1
        0x00018d32:    7002        .p      STRB     r2,[r0,#0]
        0x00018d34:    f3c30240    ..@.    UBFX     r2,r3,#1,#1
        0x00018d38:    7202        .r      STRB     r2,[r0,#8]
        0x00018d3a:    f3c30280    ....    UBFX     r2,r3,#2,#1
        0x00018d3e:    7402        .t      STRB     r2,[r0,#0x10]
        0x00018d40:    684a        Jh      LDR      r2,[r1,#4]
        0x00018d42:    60c2        .`      STR      r2,[r0,#0xc]
        0x00018d44:    680a        .h      LDR      r2,[r1,#0]
        0x00018d46:    6843        Ch      LDR      r3,[r0,#4]
        0x00018d48:    431a        .C      ORRS     r2,r2,r3
        0x00018d4a:    6042        B`      STR      r2,[r0,#4]
        0x00018d4c:    6889        .h      LDR      r1,[r1,#8]
        0x00018d4e:    6942        Bi      LDR      r2,[r0,#0x14]
        0x00018d50:    4311        .C      ORRS     r1,r1,r2
        0x00018d52:    6141        Aa      STR      r1,[r0,#0x14]
        0x00018d54:    2000        .       MOVS     r0,#0
        0x00018d56:    4770        pG      BX       lr
        0x00018d58:    2006        .       MOVS     r0,#6
        0x00018d5a:    4770        pG      BX       lr
    am_hal_gpio_pinconfig
        0x00018d5c:    b081        ..      SUB      sp,sp,#4
        0x00018d5e:    287f        .(      CMP      r0,#0x7f
        0x00018d60:    9100        ..      STR      r1,[sp,#0]
        0x00018d62:    d901        ..      BLS      0x18d68 ; am_hal_gpio_pinconfig + 12
        0x00018d64:    2005        .       MOVS     r0,#5
        0x00018d66:    e01c        ..      B        0x18da2 ; am_hal_gpio_pinconfig + 70
        0x00018d68:    0509        ..      LSLS     r1,r1,#20
        0x00018d6a:    d508        ..      BPL      0x18d7e ; am_hal_gpio_pinconfig + 34
        0x00018d6c:    0941        A.      LSRS     r1,r0,#5
        0x00018d6e:    a20e        ..      ADR      r2,{pc}+0x3a ; 0x18da8
        0x00018d70:    f8521021    R.!.    LDR      r1,[r2,r1,LSL #2]
        0x00018d74:    f000021f    ....    AND      r2,r0,#0x1f
        0x00018d78:    40d1        .@      LSRS     r1,r1,r2
        0x00018d7a:    07c9        ..      LSLS     r1,r1,#31
        0x00018d7c:    d010        ..      BEQ      0x18da0 ; am_hal_gpio_pinconfig + 68
        0x00018d7e:    f2402100    @..!    MOVW     r1,#0x200
        0x00018d82:    f2c40101    ....    MOVT     r1,#0x4001
        0x00018d86:    2273        s"      MOVS     r2,#0x73
        0x00018d88:    600a        .`      STR      r2,[r1,#0]
        0x00018d8a:    9a00        ..      LDR      r2,[sp,#0]
        0x00018d8c:    f64f6300    O..c    MOVW     r3,#0xfe00
        0x00018d90:    eb010080    ....    ADD      r0,r1,r0,LSL #2
        0x00018d94:    f6cf73ff    ...s    MOVT     r3,#0xffff
        0x00018d98:    50c2        .P      STR      r2,[r0,r3]
        0x00018d9a:    2000        .       MOVS     r0,#0
        0x00018d9c:    6008        .`      STR      r0,[r1,#0]
        0x00018d9e:    e000        ..      B        0x18da2 ; am_hal_gpio_pinconfig + 70
        0x00018da0:    2007        .       MOVS     r0,#7
        0x00018da2:    b001        ..      ADD      sp,sp,#4
        0x00018da4:    4770        pG      BX       lr
        0x00018da6:    bf00        ..      NOP      
    $d.2
    g_ui32DSpintbl
        0x00018da8:    8fc007e0    ....    DCD    2411726816
        0x00018dac:    e3fbffff    ....    DCD    3824943103
        0x00018db0:    01ffffff    ....    DCD    33554431
        0x00018db4:    00000000    ....    DCD    0
    $t.5
    am_hal_i2s_configure
        0x00018db8:    b5f0        ..      PUSH     {r4-r7,lr}
        0x00018dba:    b081        ..      SUB      sp,sp,#4
        0x00018dbc:    460c        .F      MOV      r4,r1
        0x00018dbe:    4601        .F      MOV      r1,r0
        0x00018dc0:    2800        .(      CMP      r0,#0
        0x00018dc2:    f04f0006    O...    MOV      r0,#6
        0x00018dc6:    bf18        ..      IT       NE
        0x00018dc8:    2c00        .,      CMPNE    r4,#0
        0x00018dca:    d101        ..      BNE      0x18dd0 ; am_hal_i2s_configure + 24
        0x00018dcc:    b001        ..      ADD      sp,sp,#4
        0x00018dce:    bdf0        ..      POP      {r4-r7,pc}
        0x00018dd0:    684a        Jh      LDR      r2,[r1,#4]
        0x00018dd2:    2a01        .*      CMP      r2,#1
        0x00018dd4:    d8fa        ..      BHI      0x18dcc ; am_hal_i2s_configure + 20
        0x00018dd6:    6808        .h      LDR      r0,[r1,#0]
        0x00018dd8:    f2451325    E.%.    MOV      r3,#0x5125
        0x00018ddc:    f020417e     .~A    BIC      r1,r0,#0xfe000000
        0x00018de0:    f2c01312    ....    MOVT     r3,#0x112
        0x00018de4:    4299        .B      CMP      r1,r3
        0x00018de6:    d107        ..      BNE      0x18df8 ; am_hal_i2s_configure + 64
        0x00018de8:    0180        ..      LSLS     r0,r0,#6
        0x00018dea:    d407        ..      BMI      0x18dfc ; am_hal_i2s_configure + 68
        0x00018dec:    68e5        .h      LDR      r5,[r4,#0xc]
        0x00018dee:    6869        ih      LDR      r1,[r5,#4]
        0x00018df0:    2908        .)      CMP      r1,#8
        0x00018df2:    d905        ..      BLS      0x18e00 ; am_hal_i2s_configure + 72
        0x00018df4:    2006        .       MOVS     r0,#6
        0x00018df6:    e7e9        ..      B        0x18dcc ; am_hal_i2s_configure + 20
        0x00018df8:    2002        .       MOVS     r0,#2
        0x00018dfa:    e7e7        ..      B        0x18dcc ; am_hal_i2s_configure + 20
        0x00018dfc:    2007        .       MOVS     r0,#7
        0x00018dfe:    e7e5        ..      B        0x18dcc ; am_hal_i2s_configure + 20
        0x00018e00:    2900        .)      CMP      r1,#0
        0x00018e02:    f04f0006    O...    MOV      r0,#6
        0x00018e06:    d0e1        ..      BEQ      0x18dcc ; am_hal_i2s_configure + 20
        0x00018e08:    68ab        .h      LDR      r3,[r5,#8]
        0x00018e0a:    2b08        .+      CMP      r3,#8
        0x00018e0c:    d8de        ..      BHI      0x18dcc ; am_hal_i2s_configure + 20
        0x00018e0e:    4419        .D      ADD      r1,r1,r3
        0x00018e10:    2908        .)      CMP      r1,#8
        0x00018e12:    d8db        ..      BHI      0x18dcc ; am_hal_i2s_configure + 20
        0x00018e14:    7d29        )}      LDRB     r1,[r5,#0x14]
        0x00018e16:    2006        .       MOVS     r0,#6
        0x00018e18:    2905        .)      CMP      r1,#5
        0x00018e1a:    d8d7        ..      BHI      0x18dcc ; am_hal_i2s_configure + 20
        0x00018e1c:    2301        .#      MOVS     r3,#1
        0x00018e1e:    fa03f101    ....    LSL      r1,r3,r1
        0x00018e22:    f0110f35    ..5.    TST      r1,#0x35
        0x00018e26:    d0d1        ..      BEQ      0x18dcc ; am_hal_i2s_configure + 20
        0x00018e28:    7d69        i}      LDRB     r1,[r5,#0x15]
        0x00018e2a:    2006        .       MOVS     r0,#6
        0x00018e2c:    2905        .)      CMP      r1,#5
        0x00018e2e:    d8cd        ..      BHI      0x18dcc ; am_hal_i2s_configure + 20
        0x00018e30:    2301        .#      MOVS     r3,#1
        0x00018e32:    fa03f101    ....    LSL      r1,r3,r1
        0x00018e36:    f0110f35    ..5.    TST      r1,#0x35
        0x00018e3a:    d0c7        ..      BEQ      0x18dcc ; am_hal_i2s_configure + 20
        0x00018e3c:    7b29        ){      LDRB     r1,[r5,#0xc]
        0x00018e3e:    2006        .       MOVS     r0,#6
        0x00018e40:    2905        .)      CMP      r1,#5
        0x00018e42:    d8c3        ..      BHI      0x18dcc ; am_hal_i2s_configure + 20
        0x00018e44:    2301        .#      MOVS     r3,#1
        0x00018e46:    fa03f101    ....    LSL      r1,r3,r1
        0x00018e4a:    f0110f35    ..5.    TST      r1,#0x35
        0x00018e4e:    d0bd        ..      BEQ      0x18dcc ; am_hal_i2s_configure + 20
        0x00018e50:    7b69        i{      LDRB     r1,[r5,#0xd]
        0x00018e52:    2006        .       MOVS     r0,#6
        0x00018e54:    2905        .)      CMP      r1,#5
        0x00018e56:    d8b9        ..      BHI      0x18dcc ; am_hal_i2s_configure + 20
        0x00018e58:    2301        .#      MOVS     r3,#1
        0x00018e5a:    fa03f101    ....    LSL      r1,r3,r1
        0x00018e5e:    f0110f35    ..5.    TST      r1,#0x35
        0x00018e62:    d0b3        ..      BEQ      0x18dcc ; am_hal_i2s_configure + 20
        0x00018e64:    f2480148    H.H.    MOV      r1,#0x8048
        0x00018e68:    0310        ..      LSLS     r0,r2,#12
        0x00018e6a:    f2c40120    .. .    MOVT     r1,#0x4020
        0x00018e6e:    6927        'i      LDR      r7,[r4,#0x10]
        0x00018e70:    580b        .X      LDR      r3,[r1,r0]
        0x00018e72:    f2480600    H...    MOVW     r6,#0x8000
        0x00018e76:    f0430320    C. .    ORR      r3,r3,#0x20
        0x00018e7a:    500b        .P      STR      r3,[r1,r0]
        0x00018e7c:    580b        .X      LDR      r3,[r1,r0]
        0x00018e7e:    f2c40620    .. .    MOVT     r6,#0x4020
        0x00018e82:    eb063602    ...6    ADD      r6,r6,r2,LSL #12
        0x00018e86:    f0430202    C...    ORR      r2,r3,#2
        0x00018e8a:    500a        .P      STR      r2,[r1,r0]
        0x00018e8c:    20c8        .       MOVS     r0,#0xc8
        0x00018e8e:    f7fffed1    ....    BL       am_hal_delay_us ; 0x18c34
        0x00018e92:    7860        `x      LDRB     r0,[r4,#1]
        0x00018e94:    2100        .!      MOVS     r1,#0
        0x00018e96:    3801        .8      SUBS     r0,#1
        0x00018e98:    2802        .(      CMP      r0,#2
        0x00018e9a:    bf38        8.      IT       CC
        0x00018e9c:    2101        .!      MOVCC    r1,#1
        0x00018e9e:    7b28        ({      LDRB     r0,[r5,#0xc]
        0x00018ea0:    f24b1c40    K.@.    MOV      r12,#0xb140
        0x00018ea4:    f2c00c01    ....    MOVT     r12,#1
        0x00018ea8:    782a        *x      LDRB     r2,[r5,#0]
        0x00018eaa:    686b        kh      LDR      r3,[r5,#4]
        0x00018eac:    f85c0020    \. .    LDR      r0,[r12,r0,LSL #2]
        0x00018eb0:    2a00        .*      CMP      r2,#0
        0x00018eb2:    fb00f203    ....    MUL      r2,r0,r3
        0x00018eb6:    d006        ..      BEQ      0x18ec6 ; am_hal_i2s_configure + 270
        0x00018eb8:    7b6b        k{      LDRB     r3,[r5,#0xd]
        0x00018eba:    f8d5e008    ....    LDR      lr,[r5,#8]
        0x00018ebe:    f85c3023    \.#0    LDR      r3,[r12,r3,LSL #2]
        0x00018ec2:    fb03220e    ..."    MLA      r2,r3,lr,r2
        0x00018ec6:    f64f73f0    O..s    MOV      r3,#0xfff0
        0x00018eca:    eb031202    ....    ADD      r2,r3,r2,LSL #4
        0x00018ece:    b292        ..      UXTH     r2,r2
        0x00018ed0:    4411        .D      ADD      r1,r1,r2
        0x00018ed2:    7b3a        :{      LDRB     r2,[r7,#0xc]
        0x00018ed4:    7b7b        {{      LDRB     r3,[r7,#0xd]
        0x00018ed6:    7bbf        .{      LDRB     r7,[r7,#0xe]
        0x00018ed8:    f0020201    ....    AND      r2,r2,#1
        0x00018edc:    ea414102    A..A    ORR      r1,r1,r2,LSL #16
        0x00018ee0:    f0070201    ....    AND      r2,r7,#1
        0x00018ee4:    7827        'x      LDRB     r7,[r4,#0]
        0x00018ee6:    ea414142    A.BA    ORR      r1,r1,r2,LSL #17
        0x00018eea:    f0070201    ....    AND      r2,r7,#1
        0x00018eee:    ea414182    A..A    ORR      r1,r1,r2,LSL #18
        0x00018ef2:    f0030201    ....    AND      r2,r3,#1
        0x00018ef6:    ea4141c2    A..A    ORR      r1,r1,r2,LSL #19
        0x00018efa:    f04f627f    O..b    MOV      r2,#0xff00000
        0x00018efe:    eb025000    ...P    ADD      r0,r2,r0,LSL #20
        0x00018f02:    f000607f    ...`    AND      r0,r0,#0xff00000
        0x00018f06:    4408        .D      ADD      r0,r0,r1
        0x00018f08:    6470        pd      STR      r0,[r6,#0x44]
        0x00018f0a:    7d28        (}      LDRB     r0,[r5,#0x14]
        0x00018f0c:    7da9        .}      LDRB     r1,[r5,#0x16]
        0x00018f0e:    7b2a        *{      LDRB     r2,[r5,#0xc]
        0x00018f10:    f0000007    ....    AND      r0,r0,#7
        0x00018f14:    f36100c3    a...    BFI      r0,r1,#3,#1
        0x00018f18:    f0020107    ....    AND      r1,r2,#7
        0x00018f1c:    ea401041    @.A.    ORR      r0,r0,r1,LSL #5
        0x00018f20:    6869        ih      LDR      r1,[r5,#4]
        0x00018f22:    f44f42fe    O..B    MOV      r2,#0x7f00
        0x00018f26:    eb022101    ...!    ADD      r1,r2,r1,LSL #8
        0x00018f2a:    7d6a        j}      LDRB     r2,[r5,#0x15]
        0x00018f2c:    f40141fe    ...A    AND      r1,r1,#0x7f00
        0x00018f30:    4408        .D      ADD      r0,r0,r1
        0x00018f32:    f0020107    ....    AND      r1,r2,#7
        0x00018f36:    692a        *i      LDR      r2,[r5,#0x10]
        0x00018f38:    ea404001    @..@    ORR      r0,r0,r1,LSL #16
        0x00018f3c:    f0020103    ....    AND      r1,r2,#3
        0x00018f40:    7b6a        j{      LDRB     r2,[r5,#0xd]
        0x00018f42:    ea4040c1    @..@    ORR      r0,r0,r1,LSL #19
        0x00018f46:    f0020107    ....    AND      r1,r2,#7
        0x00018f4a:    ea405041    @.AP    ORR      r0,r0,r1,LSL #21
        0x00018f4e:    68a9        .h      LDR      r1,[r5,#8]
        0x00018f50:    f04f42fe    O..B    MOV      r2,#0x7f000000
        0x00018f54:    eb026101    ...a    ADD      r1,r2,r1,LSL #24
        0x00018f58:    f00141fe    ...A    AND      r1,r1,#0x7f000000
        0x00018f5c:    782a        *x      LDRB     r2,[r5,#0]
        0x00018f5e:    4308        .C      ORRS     r0,r0,r1
        0x00018f60:    ea4070c2    @..p    ORR      r0,r0,r2,LSL #31
        0x00018f64:    6430        0d      STR      r0,[r6,#0x40]
        0x00018f66:    7820         x      LDRB     r0,[r4,#0]
        0x00018f68:    2801        .(      CMP      r0,#1
        0x00018f6a:    d003        ..      BEQ      0x18f74 ; am_hal_i2s_configure + 444
        0x00018f6c:    68a0        .h      LDR      r0,[r4,#8]
        0x00018f6e:    b108        ..      CBZ      r0,0x18f74 ; am_hal_i2s_configure + 444
        0x00018f70:    2000        .       MOVS     r0,#0
        0x00018f72:    e000        ..      B        0x18f76 ; am_hal_i2s_configure + 446
        0x00018f74:    2002        .       MOVS     r0,#2
        0x00018f76:    6570        pe      STR      r0,[r6,#0x54]
        0x00018f78:    78a0        .x      LDRB     r0,[r4,#2]
        0x00018f7a:    6861        ah      LDR      r1,[r4,#4]
        0x00018f7c:    f8d62100    ...!    LDR      r2,[r6,#0x100]
        0x00018f80:    f000001f    ....    AND      r0,r0,#0x1f
        0x00018f84:    f3615214    a..R    BFI      r2,r1,#20,#1
        0x00018f88:    f8c62100    ...!    STR      r2,[r6,#0x100]
        0x00018f8c:    f8d61100    ....    LDR      r1,[r6,#0x100]
        0x00018f90:    f42171f8    !..q    BIC      r1,r1,#0x1f0
        0x00018f94:    ea411000    A...    ORR      r0,r1,r0,LSL #4
        0x00018f98:    f8c60100    ....    STR      r0,[r6,#0x100]
        0x00018f9c:    f8d60100    ....    LDR      r0,[r6,#0x100]
        0x00018fa0:    f0400001    @...    ORR      r0,r0,#1
        0x00018fa4:    f8c60100    ....    STR      r0,[r6,#0x100]
        0x00018fa8:    2032        2       MOVS     r0,#0x32
        0x00018faa:    f7fffe43    ..C.    BL       am_hal_delay_us ; 0x18c34
        0x00018fae:    2020                MOVS     r0,#0x20
        0x00018fb0:    6130        0a      STR      r0,[r6,#0x10]
        0x00018fb2:    6330        0c      STR      r0,[r6,#0x30]
        0x00018fb4:    2000        .       MOVS     r0,#0
        0x00018fb6:    e709        ..      B        0x18dcc ; am_hal_i2s_configure + 20
    am_hal_i2s_dma_configure
        0x00018fb8:    b5b0        ..      PUSH     {r4,r5,r7,lr}
        0x00018fba:    6803        .h      LDR      r3,[r0,#0]
        0x00018fbc:    f0234c7e    #.~L    BIC      r12,r3,#0xfe000000
        0x00018fc0:    f2451325    E.%.    MOV      r3,#0x5125
        0x00018fc4:    f2c01312    ....    MOVT     r3,#0x112
        0x00018fc8:    459c        .E      CMP      r12,r3
        0x00018fca:    bf1c        ..      ITT      NE
        0x00018fcc:    2002        .       MOVNE    r0,#2
        0x00018fce:    bdb0        ..      POPNE    {r4,r5,r7,pc}
        0x00018fd0:    e9d23e00    ...>    LDRD     r3,lr,[r2,#0]
        0x00018fd4:    e9d24503    ...E    LDRD     r4,r5,[r2,#0xc]
        0x00018fd8:    f8d0c004    ....    LDR      r12,[r0,#4]
        0x00018fdc:    e9c03e0d    ...>    STRD     r3,lr,[r0,#0x34]
        0x00018fe0:    e9c03411    ...4    STRD     r3,r4,[r0,#0x44]
        0x00018fe4:    f2483308    H..3    MOV      r3,#0x8308
        0x00018fe8:    e9c0450f    ...E    STRD     r4,r5,[r0,#0x3c]
        0x00018fec:    ea4f300c    O..0    LSL      r0,r12,#12
        0x00018ff0:    f2c40320    .. .    MOVT     r3,#0x4020
        0x00018ff4:    251f        .%      MOVS     r5,#0x1f
        0x00018ff6:    614a        Ja      STR      r2,[r1,#0x14]
        0x00018ff8:    501d        .P      STR      r5,[r3,r0]
        0x00018ffa:    f248034c    H.L.    MOV      r3,#0x804c
        0x00018ffe:    f2c40320    .. .    MOVT     r3,#0x4020
        0x00019002:    2500        .%      MOVS     r5,#0
        0x00019004:    501d        .P      STR      r5,[r3,r0]
        0x00019006:    7849        Ix      LDRB     r1,[r1,#1]
        0x00019008:    f2480000    H...    MOVW     r0,#0x8000
        0x0001900c:    f2c40020    .. .    MOVT     r0,#0x4020
        0x00019010:    2902        .)      CMP      r1,#2
        0x00019012:    eb00300c    ...0    ADD      r0,r0,r12,LSL #12
        0x00019016:    d00b        ..      BEQ      0x19030 ; am_hal_i2s_dma_configure + 120
        0x00019018:    2901        .)      CMP      r1,#1
        0x0001901a:    d018        ..      BEQ      0x1904e ; am_hal_i2s_dma_configure + 150
        0x0001901c:    bb11        ..      CBNZ     r1,0x19064 ; am_hal_i2s_dma_configure + 172
        0x0001901e:    6891        .h      LDR      r1,[r2,#8]
        0x00019020:    f8c01204    ....    STR      r1,[r0,#0x204]
        0x00019024:    6811        .h      LDR      r1,[r2,#0]
        0x00019026:    2211        ."      MOVS     r2,#0x11
        0x00019028:    f8c01208    ....    STR      r1,[r0,#0x208]
        0x0001902c:    2110        .!      MOVS     r1,#0x10
        0x0001902e:    e016        ..      B        0x1905e ; am_hal_i2s_dma_configure + 166
        0x00019030:    6951        Qi      LDR      r1,[r2,#0x14]
        0x00019032:    f8c01210    ....    STR      r1,[r0,#0x210]
        0x00019036:    68d1        .h      LDR      r1,[r2,#0xc]
        0x00019038:    f8c01214    ....    STR      r1,[r0,#0x214]
        0x0001903c:    6891        .h      LDR      r1,[r2,#8]
        0x0001903e:    f8c01204    ....    STR      r1,[r0,#0x204]
        0x00019042:    6811        .h      LDR      r1,[r2,#0]
        0x00019044:    2233        3"      MOVS     r2,#0x33
        0x00019046:    f8c01208    ....    STR      r1,[r0,#0x208]
        0x0001904a:    2118        .!      MOVS     r1,#0x18
        0x0001904c:    e007        ..      B        0x1905e ; am_hal_i2s_dma_configure + 166
        0x0001904e:    6951        Qi      LDR      r1,[r2,#0x14]
        0x00019050:    f8c01210    ....    STR      r1,[r0,#0x210]
        0x00019054:    68d1        .h      LDR      r1,[r2,#0xc]
        0x00019056:    2222        ""      MOVS     r2,#0x22
        0x00019058:    f8c01214    ....    STR      r1,[r0,#0x214]
        0x0001905c:    2108        .!      MOVS     r1,#8
        0x0001905e:    64c2        .d      STR      r2,[r0,#0x4c]
        0x00019060:    f8c01300    ....    STR      r1,[r0,#0x300]
        0x00019064:    f8d01200    ....    LDR      r1,[r0,#0x200]
        0x00019068:    f0410102    A...    ORR      r1,r1,#2
        0x0001906c:    f8c01200    ....    STR      r1,[r0,#0x200]
        0x00019070:    f8d01200    ....    LDR      r1,[r0,#0x200]
        0x00019074:    f0410120    A. .    ORR      r1,r1,#0x20
        0x00019078:    f8c01200    ....    STR      r1,[r0,#0x200]
        0x0001907c:    2000        .       MOVS     r0,#0
        0x0001907e:    bdb0        ..      POP      {r4,r5,r7,pc}
    am_hal_i2s_dma_get_buffer
        0x00019080:    b510        ..      PUSH     {r4,lr}
        0x00019082:    4604        .F      MOV      r4,r0
        0x00019084:    b129        ).      CBZ      r1,0x19092 ; am_hal_i2s_dma_get_buffer + 18
        0x00019086:    6c20         l      LDR      r0,[r4,#0x40]
        0x00019088:    6ca1        .l      LDR      r1,[r4,#0x48]
        0x0001908a:    4281        .B      CMP      r1,r0
        0x0001908c:    bf08        ..      IT       EQ
        0x0001908e:    6be0        .k      LDREQ    r0,[r4,#0x3c]
        0x00019090:    bd10        ..      POP      {r4,pc}
        0x00019092:    2000        .       MOVS     r0,#0
        0x00019094:    2100        .!      MOVS     r1,#0
        0x00019096:    f7fffcbd    ....    BL       am_hal_daxi_control ; 0x18a14
        0x0001909a:    6ba0        .k      LDR      r0,[r4,#0x38]
        0x0001909c:    6c61        al      LDR      r1,[r4,#0x44]
        0x0001909e:    4281        .B      CMP      r1,r0
        0x000190a0:    bf18        ..      IT       NE
        0x000190a2:    bd10        ..      POPNE    {r4,pc}
        0x000190a4:    6b60        `k      LDR      r0,[r4,#0x34]
        0x000190a6:    bd10        ..      POP      {r4,pc}
    am_hal_i2s_dma_transfer_start
        0x000190a8:    b5b0        ..      PUSH     {r4,r5,r7,lr}
        0x000190aa:    6802        .h      LDR      r2,[r0,#0]
        0x000190ac:    f2451325    E.%.    MOV      r3,#0x5125
        0x000190b0:    f022427e    ".~B    BIC      r2,r2,#0xfe000000
        0x000190b4:    f2c01312    ....    MOVT     r3,#0x112
        0x000190b8:    429a        .B      CMP      r2,r3
        0x000190ba:    d10f        ..      BNE      0x190dc ; am_hal_i2s_dma_transfer_start + 52
        0x000190bc:    6840        @h      LDR      r0,[r0,#4]
        0x000190be:    f2480328    H.(.    MOV      r3,#0x8028
        0x000190c2:    0302        ..      LSLS     r2,r0,#12
        0x000190c4:    f2c40320    .. .    MOVT     r3,#0x4020
        0x000190c8:    589d        .X      LDR      r5,[r3,r2]
        0x000190ca:    589a        .X      LDR      r2,[r3,r2]
        0x000190cc:    f0254370    %.pC    BIC      r3,r5,#0xf0000000
        0x000190d0:    f0025280    ...R    AND      r2,r2,#0x10000000
        0x000190d4:    18d2        ..      ADDS     r2,r2,r3
        0x000190d6:    d004        ..      BEQ      0x190e2 ; am_hal_i2s_dma_transfer_start + 58
        0x000190d8:    2401        .$      MOVS     r4,#1
        0x000190da:    e000        ..      B        0x190de ; am_hal_i2s_dma_transfer_start + 54
        0x000190dc:    2402        .$      MOVS     r4,#2
        0x000190de:    4620         F      MOV      r0,r4
        0x000190e0:    bdb0        ..      POP      {r4,r5,r7,pc}
        0x000190e2:    7849        Ix      LDRB     r1,[r1,#1]
        0x000190e4:    f2480200    H...    MOVW     r2,#0x8000
        0x000190e8:    f2c40220    .. .    MOVT     r2,#0x4020
        0x000190ec:    2902        .)      CMP      r1,#2
        0x000190ee:    eb023500    ...5    ADD      r5,r2,r0,LSL #12
        0x000190f2:    d012        ..      BEQ      0x1911a ; am_hal_i2s_dma_transfer_start + 114
        0x000190f4:    2901        .)      CMP      r1,#1
        0x000190f6:    d023        #.      BEQ      0x19140 ; am_hal_i2s_dma_transfer_start + 152
        0x000190f8:    b969        i.      CBNZ     r1,0x19116 ; am_hal_i2s_dma_transfer_start + 110
        0x000190fa:    f8d50200    ....    LDR      r0,[r5,#0x200]
        0x000190fe:    f0400001    @...    ORR      r0,r0,#1
        0x00019102:    f8c50200    ....    STR      r0,[r5,#0x200]
        0x00019106:    6ca8        .l      LDR      r0,[r5,#0x48]
        0x00019108:    f0200020     . .    BIC      r0,r0,#0x20
        0x0001910c:    64a8        .d      STR      r0,[r5,#0x48]
        0x0001910e:    6ca8        .l      LDR      r0,[r5,#0x48]
        0x00019110:    f0400010    @...    ORR      r0,r0,#0x10
        0x00019114:    64a8        .d      STR      r0,[r5,#0x48]
        0x00019116:    2400        .$      MOVS     r4,#0
        0x00019118:    e7e1        ..      B        0x190de ; am_hal_i2s_dma_transfer_start + 54
        0x0001911a:    2001        .       MOVS     r0,#1
        0x0001911c:    2100        .!      MOVS     r1,#0
        0x0001911e:    2400        .$      MOVS     r4,#0
        0x00019120:    f7fffc78    ..x.    BL       am_hal_daxi_control ; 0x18a14
        0x00019124:    f8d50200    ....    LDR      r0,[r5,#0x200]
        0x00019128:    f0400001    @...    ORR      r0,r0,#1
        0x0001912c:    f8c50200    ....    STR      r0,[r5,#0x200]
        0x00019130:    f8d50200    ....    LDR      r0,[r5,#0x200]
        0x00019134:    f0400010    @...    ORR      r0,r0,#0x10
        0x00019138:    f8c50200    ....    STR      r0,[r5,#0x200]
        0x0001913c:    2011        .       MOVS     r0,#0x11
        0x0001913e:    e011        ..      B        0x19164 ; am_hal_i2s_dma_transfer_start + 188
        0x00019140:    2001        .       MOVS     r0,#1
        0x00019142:    2100        .!      MOVS     r1,#0
        0x00019144:    2400        .$      MOVS     r4,#0
        0x00019146:    f7fffc65    ..e.    BL       am_hal_daxi_control ; 0x18a14
        0x0001914a:    f8d50200    ....    LDR      r0,[r5,#0x200]
        0x0001914e:    f0400010    @...    ORR      r0,r0,#0x10
        0x00019152:    f8c50200    ....    STR      r0,[r5,#0x200]
        0x00019156:    6ca8        .l      LDR      r0,[r5,#0x48]
        0x00019158:    f0200002     ...    BIC      r0,r0,#2
        0x0001915c:    64a8        .d      STR      r0,[r5,#0x48]
        0x0001915e:    6ca8        .l      LDR      r0,[r5,#0x48]
        0x00019160:    f0400001    @...    ORR      r0,r0,#1
        0x00019164:    64a8        .d      STR      r0,[r5,#0x48]
        0x00019166:    e7ba        ..      B        0x190de ; am_hal_i2s_dma_transfer_start + 54
    am_hal_i2s_enable
        0x00019168:    b178        x.      CBZ      r0,0x1918a ; am_hal_i2s_enable + 34
        0x0001916a:    6801        .h      LDR      r1,[r0,#0]
        0x0001916c:    f2451325    E.%.    MOV      r3,#0x5125
        0x00019170:    f021427e    !.~B    BIC      r2,r1,#0xfe000000
        0x00019174:    f2c01312    ....    MOVT     r3,#0x112
        0x00019178:    429a        .B      CMP      r2,r3
        0x0001917a:    d106        ..      BNE      0x1918a ; am_hal_i2s_enable + 34
        0x0001917c:    018a        ..      LSLS     r2,r1,#6
        0x0001917e:    bf5c        \.      ITT      PL
        0x00019180:    f0417100    A..q    ORRPL    r1,r1,#0x2000000
        0x00019184:    6001        .`      STRPL    r1,[r0,#0]
        0x00019186:    2000        .       MOVS     r0,#0
        0x00019188:    4770        pG      BX       lr
        0x0001918a:    2002        .       MOVS     r0,#2
        0x0001918c:    4770        pG      BX       lr
    am_hal_i2s_initialize
        0x0001918e:    b580        ..      PUSH     {r7,lr}
        0x00019190:    2801        .(      CMP      r0,#1
        0x00019192:    bf84        ..      ITT      HI
        0x00019194:    2005        .       MOVHI    r0,#5
        0x00019196:    bd80        ..      POPHI    {r7,pc}
        0x00019198:    b1d9        ..      CBZ      r1,0x191d2 ; am_hal_i2s_initialize + 68
        0x0001919a:    f2403c40    @.@<    MOVW     r12,#0x340
        0x0001919e:    f04f0e4c    O.L.    MOV      lr,#0x4c
        0x000191a2:    f2c10c00    ....    MOVT     r12,#0x1000
        0x000191a6:    fb00f20e    ....    MUL      r2,r0,lr
        0x000191aa:    f85c2002    \..     LDR      r2,[r12,r2]
        0x000191ae:    01d3        ..      LSLS     r3,r2,#7
        0x000191b0:    bf44        D.      ITT      MI
        0x000191b2:    2007        .       MOVMI    r0,#7
        0x000191b4:    bd80        ..      POPMI    {r7,pc}
        0x000191b6:    f2451325    E.%.    MOV      r3,#0x5125
        0x000191ba:    fb00cc0e    ....    MLA      r12,r0,lr,r12
        0x000191be:    f2c01312    ....    MOVT     r3,#0x112
        0x000191c2:    f3630219    c...    BFI      r2,r3,#0,#26
        0x000191c6:    e9cc2000    ...     STRD     r2,r0,[r12,#0]
        0x000191ca:    2000        .       MOVS     r0,#0
        0x000191cc:    f8c1c000    ....    STR      r12,[r1,#0]
        0x000191d0:    bd80        ..      POP      {r7,pc}
        0x000191d2:    2006        .       MOVS     r0,#6
        0x000191d4:    bd80        ..      POP      {r7,pc}
    am_hal_i2s_interrupt_clear
        0x000191d6:    6802        .h      LDR      r2,[r0,#0]
        0x000191d8:    f2451325    E.%.    MOV      r3,#0x5125
        0x000191dc:    f022427e    ".~B    BIC      r2,r2,#0xfe000000
        0x000191e0:    f2c01312    ....    MOVT     r3,#0x112
        0x000191e4:    429a        .B      CMP      r2,r3
        0x000191e6:    bf1c        ..      ITT      NE
        0x000191e8:    2002        .       MOVNE    r0,#2
        0x000191ea:    4770        pG      BXNE     lr
        0x000191ec:    6840        @h      LDR      r0,[r0,#4]
        0x000191ee:    f2483208    H..2    MOV      r2,#0x8308
        0x000191f2:    0300        ..      LSLS     r0,r0,#12
        0x000191f4:    f2c40220    .. .    MOVT     r2,#0x4020
        0x000191f8:    5011        .P      STR      r1,[r2,r0]
        0x000191fa:    2000        .       MOVS     r0,#0
        0x000191fc:    4770        pG      BX       lr
    am_hal_i2s_interrupt_service
        0x000191fe:    e92d41f0    -..A    PUSH     {r4-r8,lr}
        0x00019202:    4616        .F      MOV      r6,r2
        0x00019204:    4604        .F      MOV      r4,r0
        0x00019206:    7852        Rx      LDRB     r2,[r2,#1]
        0x00019208:    460d        .F      MOV      r5,r1
        0x0001920a:    f2480000    H...    MOVW     r0,#0x8000
        0x0001920e:    6861        ah      LDR      r1,[r4,#4]
        0x00019210:    f2c40020    .. .    MOVT     r0,#0x4020
        0x00019214:    2a02        .*      CMP      r2,#2
        0x00019216:    f0050210    ....    AND      r2,r5,#0x10
        0x0001921a:    d155        U.      BNE      0x192c8 ; am_hal_i2s_interrupt_service + 202
        0x0001921c:    b32a        *.      CBZ      r2,0x1926a ; am_hal_i2s_interrupt_service + 108
        0x0001921e:    eb003201    ...2    ADD      r2,r0,r1,LSL #12
        0x00019222:    f8d2320c    ...2    LDR      r3,[r2,#0x20c]
        0x00019226:    075b        [.      LSLS     r3,r3,#29
        0x00019228:    bf42        B.      ITTT     MI
        0x0001922a:    2300        .#      MOVMI    r3,#0
        0x0001922c:    f8c23200    ...2    STRMI    r3,[r2,#0x200]
        0x00019230:    f8c2320c    ...2    STRMI    r3,[r2,#0x20c]
        0x00019234:    f8d23200    ...2    LDR      r3,[r2,#0x200]
        0x00019238:    f0230301    #...    BIC      r3,r3,#1
        0x0001923c:    f8c23200    ...2    STR      r3,[r2,#0x200]
        0x00019240:    2300        .#      MOVS     r3,#0
        0x00019242:    f8c2320c    ...2    STR      r3,[r2,#0x20c]
        0x00019246:    6ba3        .k      LDR      r3,[r4,#0x38]
        0x00019248:    6c67        gl      LDR      r7,[r4,#0x44]
        0x0001924a:    429f        .B      CMP      r7,r3
        0x0001924c:    bf08        ..      IT       EQ
        0x0001924e:    6b63        ck      LDREQ    r3,[r4,#0x34]
        0x00019250:    6463        cd      STR      r3,[r4,#0x44]
        0x00019252:    f8c23208    ...2    STR      r3,[r2,#0x208]
        0x00019256:    6973        si      LDR      r3,[r6,#0x14]
        0x00019258:    689b        .h      LDR      r3,[r3,#8]
        0x0001925a:    f8c23204    ...2    STR      r3,[r2,#0x204]
        0x0001925e:    f8d23200    ...2    LDR      r3,[r2,#0x200]
        0x00019262:    f0430301    C...    ORR      r3,r3,#1
        0x00019266:    f8c23200    ...2    STR      r3,[r2,#0x200]
        0x0001926a:    072a        *.      LSLS     r2,r5,#28
        0x0001926c:    d576        v.      BPL      0x1935c ; am_hal_i2s_interrupt_service + 350
        0x0001926e:    eb003701    ...7    ADD      r7,r0,r1,LSL #12
        0x00019272:    f8d71218    ....    LDR      r1,[r7,#0x218]
        0x00019276:    0749        I.      LSLS     r1,r1,#29
        0x00019278:    d507        ..      BPL      0x1928a ; am_hal_i2s_interrupt_service + 140
        0x0001927a:    6861        ah      LDR      r1,[r4,#4]
        0x0001927c:    eb003001    ...0    ADD      r0,r0,r1,LSL #12
        0x00019280:    2100        .!      MOVS     r1,#0
        0x00019282:    f8c01200    ....    STR      r1,[r0,#0x200]
        0x00019286:    f8c01218    ....    STR      r1,[r0,#0x218]
        0x0001928a:    2001        .       MOVS     r0,#1
        0x0001928c:    2100        .!      MOVS     r1,#0
        0x0001928e:    f04f0800    O...    MOV      r8,#0
        0x00019292:    f7fffbbf    ....    BL       am_hal_daxi_control ; 0x18a14
        0x00019296:    f8d70200    ....    LDR      r0,[r7,#0x200]
        0x0001929a:    f0200010     ...    BIC      r0,r0,#0x10
        0x0001929e:    f8c70200    ....    STR      r0,[r7,#0x200]
        0x000192a2:    f8c78218    ....    STR      r8,[r7,#0x218]
        0x000192a6:    6c20         l      LDR      r0,[r4,#0x40]
        0x000192a8:    6ca1        .l      LDR      r1,[r4,#0x48]
        0x000192aa:    4281        .B      CMP      r1,r0
        0x000192ac:    bf08        ..      IT       EQ
        0x000192ae:    6be0        .k      LDREQ    r0,[r4,#0x3c]
        0x000192b0:    64a0        .d      STR      r0,[r4,#0x48]
        0x000192b2:    f8c70214    ....    STR      r0,[r7,#0x214]
        0x000192b6:    6970        pi      LDR      r0,[r6,#0x14]
        0x000192b8:    6940        @i      LDR      r0,[r0,#0x14]
        0x000192ba:    f8c70210    ....    STR      r0,[r7,#0x210]
        0x000192be:    f8d70200    ....    LDR      r0,[r7,#0x200]
        0x000192c2:    f0400010    @...    ORR      r0,r0,#0x10
        0x000192c6:    e047        G.      B        0x19358 ; am_hal_i2s_interrupt_service + 346
        0x000192c8:    b302        ..      CBZ      r2,0x1930c ; am_hal_i2s_interrupt_service + 270
        0x000192ca:    eb003201    ...2    ADD      r2,r0,r1,LSL #12
        0x000192ce:    2300        .#      MOVS     r3,#0
        0x000192d0:    f8c23200    ...2    STR      r3,[r2,#0x200]
        0x000192d4:    f8d2720c    ...r    LDR      r7,[r2,#0x20c]
        0x000192d8:    077f        ..      LSLS     r7,r7,#29
        0x000192da:    d506        ..      BPL      0x192ea ; am_hal_i2s_interrupt_service + 236
        0x000192dc:    6867        gh      LDR      r7,[r4,#4]
        0x000192de:    eb003707    ...7    ADD      r7,r0,r7,LSL #12
        0x000192e2:    f8c73200    ...2    STR      r3,[r7,#0x200]
        0x000192e6:    f8c7320c    ...2    STR      r3,[r7,#0x20c]
        0x000192ea:    f8c2320c    ...2    STR      r3,[r2,#0x20c]
        0x000192ee:    6973        si      LDR      r3,[r6,#0x14]
        0x000192f0:    689b        .h      LDR      r3,[r3,#8]
        0x000192f2:    f8c23204    ...2    STR      r3,[r2,#0x204]
        0x000192f6:    6ba3        .k      LDR      r3,[r4,#0x38]
        0x000192f8:    6c67        gl      LDR      r7,[r4,#0x44]
        0x000192fa:    429f        .B      CMP      r7,r3
        0x000192fc:    bf08        ..      IT       EQ
        0x000192fe:    6b63        ck      LDREQ    r3,[r4,#0x34]
        0x00019300:    6463        cd      STR      r3,[r4,#0x44]
        0x00019302:    f8c23208    ...2    STR      r3,[r2,#0x208]
        0x00019306:    2303        .#      MOVS     r3,#3
        0x00019308:    f8c23200    ...2    STR      r3,[r2,#0x200]
        0x0001930c:    072a        *.      LSLS     r2,r5,#28
        0x0001930e:    d525        %.      BPL      0x1935c ; am_hal_i2s_interrupt_service + 350
        0x00019310:    eb003701    ...7    ADD      r7,r0,r1,LSL #12
        0x00019314:    f04f0800    O...    MOV      r8,#0
        0x00019318:    f8c78200    ....    STR      r8,[r7,#0x200]
        0x0001931c:    f8d71218    ....    LDR      r1,[r7,#0x218]
        0x00019320:    0749        I.      LSLS     r1,r1,#29
        0x00019322:    d506        ..      BPL      0x19332 ; am_hal_i2s_interrupt_service + 308
        0x00019324:    6861        ah      LDR      r1,[r4,#4]
        0x00019326:    eb003001    ...0    ADD      r0,r0,r1,LSL #12
        0x0001932a:    f8c08200    ....    STR      r8,[r0,#0x200]
        0x0001932e:    f8c08218    ....    STR      r8,[r0,#0x218]
        0x00019332:    2001        .       MOVS     r0,#1
        0x00019334:    2100        .!      MOVS     r1,#0
        0x00019336:    f7fffb6d    ..m.    BL       am_hal_daxi_control ; 0x18a14
        0x0001933a:    f8c78218    ....    STR      r8,[r7,#0x218]
        0x0001933e:    6970        pi      LDR      r0,[r6,#0x14]
        0x00019340:    6940        @i      LDR      r0,[r0,#0x14]
        0x00019342:    f8c70210    ....    STR      r0,[r7,#0x210]
        0x00019346:    6c20         l      LDR      r0,[r4,#0x40]
        0x00019348:    6ca1        .l      LDR      r1,[r4,#0x48]
        0x0001934a:    4281        .B      CMP      r1,r0
        0x0001934c:    bf08        ..      IT       EQ
        0x0001934e:    6be0        .k      LDREQ    r0,[r4,#0x3c]
        0x00019350:    64a0        .d      STR      r0,[r4,#0x48]
        0x00019352:    f8c70214    ....    STR      r0,[r7,#0x214]
        0x00019356:    2030        0       MOVS     r0,#0x30
        0x00019358:    f8c70200    ....    STR      r0,[r7,#0x200]
        0x0001935c:    07e8        ..      LSLS     r0,r5,#31
        0x0001935e:    d002        ..      BEQ      0x19366 ; am_hal_i2s_interrupt_service + 360
        0x00019360:    4620         F      MOV      r0,r4
        0x00019362:    f000f825    ..%.    BL       am_hal_i2s_ipb_interrupt_service ; 0x193b0
        0x00019366:    2000        .       MOVS     r0,#0
        0x00019368:    e8bd81f0    ....    POP      {r4-r8,pc}
    am_hal_i2s_interrupt_status_get
        0x0001936c:    6803        .h      LDR      r3,[r0,#0]
        0x0001936e:    f0234c7e    #.~L    BIC      r12,r3,#0xfe000000
        0x00019372:    f2451325    E.%.    MOV      r3,#0x5125
        0x00019376:    f2c01312    ....    MOVT     r3,#0x112
        0x0001937a:    459c        .E      CMP      r12,r3
        0x0001937c:    bf1c        ..      ITT      NE
        0x0001937e:    2002        .       MOVNE    r0,#2
        0x00019380:    4770        pG      BXNE     lr
        0x00019382:    6843        Ch      LDR      r3,[r0,#4]
        0x00019384:    f2483004    H..0    MOV      r0,#0x8304
        0x00019388:    ea4f3c03    O..<    LSL      r12,r3,#12
        0x0001938c:    f2c40020    .. .    MOVT     r0,#0x4020
        0x00019390:    f850000c    P...    LDR      r0,[r0,r12]
        0x00019394:    b14a        J.      CBZ      r2,0x193aa ; am_hal_i2s_interrupt_status_get + 62
        0x00019396:    f2480200    H...    MOVW     r2,#0x8000
        0x0001939a:    f2c40220    .. .    MOVT     r2,#0x4020
        0x0001939e:    eb023203    ...2    ADD      r2,r2,r3,LSL #12
        0x000193a2:    6008        .`      STR      r0,[r1,#0]
        0x000193a4:    f8d22300    ...#    LDR      r2,[r2,#0x300]
        0x000193a8:    4010        .@      ANDS     r0,r0,r2
        0x000193aa:    6008        .`      STR      r0,[r1,#0]
        0x000193ac:    2000        .       MOVS     r0,#0
        0x000193ae:    4770        pG      BX       lr
    am_hal_i2s_ipb_interrupt_service
        0x000193b0:    6840        @h      LDR      r0,[r0,#4]
        0x000193b2:    f248024c    H.L.    MOV      r2,#0x804c
        0x000193b6:    0301        ..      LSLS     r1,r0,#12
        0x000193b8:    f2c40220    .. .    MOVT     r2,#0x4020
        0x000193bc:    5851        QX      LDR      r1,[r2,r1]
        0x000193be:    f2480200    H...    MOVW     r2,#0x8000
        0x000193c2:    f2c40220    .. .    MOVT     r2,#0x4020
        0x000193c6:    030b        ..      LSLS     r3,r1,#12
        0x000193c8:    eb023000    ...0    ADD      r0,r2,r0,LSL #12
        0x000193cc:    d503        ..      BPL      0x193d6 ; am_hal_i2s_ipb_interrupt_service + 38
        0x000193ce:    6cc2        .l      LDR      r2,[r0,#0x4c]
        0x000193d0:    f4222200    ".."    BIC      r2,r2,#0x80000
        0x000193d4:    64c2        .d      STR      r2,[r0,#0x4c]
        0x000193d6:    038a        ..      LSLS     r2,r1,#14
        0x000193d8:    d503        ..      BPL      0x193e2 ; am_hal_i2s_ipb_interrupt_service + 50
        0x000193da:    6cc2        .l      LDR      r2,[r0,#0x4c]
        0x000193dc:    f4223200    "..2    BIC      r2,r2,#0x20000
        0x000193e0:    64c2        .d      STR      r2,[r0,#0x4c]
        0x000193e2:    034a        J.      LSLS     r2,r1,#13
        0x000193e4:    d503        ..      BPL      0x193ee ; am_hal_i2s_ipb_interrupt_service + 62
        0x000193e6:    6cc2        .l      LDR      r2,[r0,#0x4c]
        0x000193e8:    f4222280    ".."    BIC      r2,r2,#0x40000
        0x000193ec:    64c2        .d      STR      r2,[r0,#0x4c]
        0x000193ee:    03c9        ..      LSLS     r1,r1,#15
        0x000193f0:    d503        ..      BPL      0x193fa ; am_hal_i2s_ipb_interrupt_service + 74
        0x000193f2:    6cc1        .l      LDR      r1,[r0,#0x4c]
        0x000193f4:    f4213180    !..1    BIC      r1,r1,#0x10000
        0x000193f8:    64c1        .d      STR      r1,[r0,#0x4c]
        0x000193fa:    2000        .       MOVS     r0,#0
        0x000193fc:    4770        pG      BX       lr
    am_hal_i2s_power_control
        0x000193fe:    b5b0        ..      PUSH     {r4,r5,r7,lr}
        0x00019400:    4604        .F      MOV      r4,r0
        0x00019402:    6800        .h      LDR      r0,[r0,#0]
        0x00019404:    f2451325    E.%.    MOV      r3,#0x5125
        0x00019408:    f020407e     .~@    BIC      r0,r0,#0xfe000000
        0x0001940c:    f2c01312    ....    MOVT     r3,#0x112
        0x00019410:    4298        .B      CMP      r0,r3
        0x00019412:    bf1c        ..      ITT      NE
        0x00019414:    2002        .       MOVNE    r0,#2
        0x00019416:    bdb0        ..      POPNE    {r4,r5,r7,pc}
        0x00019418:    6865        eh      LDR      r5,[r4,#4]
        0x0001941a:    1e48        H.      SUBS     r0,r1,#1
        0x0001941c:    2802        .(      CMP      r0,#2
        0x0001941e:    f105001f    ....    ADD      r0,r5,#0x1f
        0x00019422:    d224        $.      BCS      0x1946e ; am_hal_i2s_power_control + 112
        0x00019424:    b1f2        ..      CBZ      r2,0x19464 ; am_hal_i2s_power_control + 102
        0x00019426:    f2480100    H...    MOVW     r1,#0x8000
        0x0001942a:    f2c40120    .. .    MOVT     r1,#0x4020
        0x0001942e:    eb013105    ...1    ADD      r1,r1,r5,LSL #12
        0x00019432:    6c8a        .l      LDR      r2,[r1,#0x48]
        0x00019434:    60e2        .`      STR      r2,[r4,#0xc]
        0x00019436:    6c0a        .l      LDR      r2,[r1,#0x40]
        0x00019438:    6122        "a      STR      r2,[r4,#0x10]
        0x0001943a:    6c4a        Jl      LDR      r2,[r1,#0x44]
        0x0001943c:    6162        ba      STR      r2,[r4,#0x14]
        0x0001943e:    6d4a        Jm      LDR      r2,[r1,#0x54]
        0x00019440:    61a2        .a      STR      r2,[r4,#0x18]
        0x00019442:    f8d12100    ...!    LDR      r2,[r1,#0x100]
        0x00019446:    61e2        .a      STR      r2,[r4,#0x1c]
        0x00019448:    6cca        .l      LDR      r2,[r1,#0x4c]
        0x0001944a:    6222        "b      STR      r2,[r4,#0x20]
        0x0001944c:    690a        .i      LDR      r2,[r1,#0x10]
        0x0001944e:    6262        bb      STR      r2,[r4,#0x24]
        0x00019450:    6b0a        .k      LDR      r2,[r1,#0x30]
        0x00019452:    62a2        .b      STR      r2,[r4,#0x28]
        0x00019454:    f8d12300    ...#    LDR      r2,[r1,#0x300]
        0x00019458:    62e2        .b      STR      r2,[r4,#0x2c]
        0x0001945a:    f8d11200    ....    LDR      r1,[r1,#0x200]
        0x0001945e:    6321        !c      STR      r1,[r4,#0x30]
        0x00019460:    2101        .!      MOVS     r1,#1
        0x00019462:    7221        !r      STRB     r1,[r4,#8]
        0x00019464:    b2c0        ..      UXTB     r0,r0
        0x00019466:    f000f9d4    ....    BL       am_hal_pwrctrl_periph_disable ; 0x19812
        0x0001946a:    2000        .       MOVS     r0,#0
        0x0001946c:    bdb0        ..      POP      {r4,r5,r7,pc}
        0x0001946e:    bb29        ).      CBNZ     r1,0x194bc ; am_hal_i2s_power_control + 190
        0x00019470:    b332        2.      CBZ      r2,0x194c0 ; am_hal_i2s_power_control + 194
        0x00019472:    7a21        !z      LDRB     r1,[r4,#8]
        0x00019474:    b341        A.      CBZ      r1,0x194c8 ; am_hal_i2s_power_control + 202
        0x00019476:    b2c0        ..      UXTB     r0,r0
        0x00019478:    f000fa5a    ..Z.    BL       am_hal_pwrctrl_periph_enable ; 0x19930
        0x0001947c:    f2480100    H...    MOVW     r1,#0x8000
        0x00019480:    68e0        .h      LDR      r0,[r4,#0xc]
        0x00019482:    f2c40120    .. .    MOVT     r1,#0x4020
        0x00019486:    eb013105    ...1    ADD      r1,r1,r5,LSL #12
        0x0001948a:    6488        .d      STR      r0,[r1,#0x48]
        0x0001948c:    6920         i      LDR      r0,[r4,#0x10]
        0x0001948e:    6408        .d      STR      r0,[r1,#0x40]
        0x00019490:    6960        `i      LDR      r0,[r4,#0x14]
        0x00019492:    6448        Hd      STR      r0,[r1,#0x44]
        0x00019494:    69a0        .i      LDR      r0,[r4,#0x18]
        0x00019496:    6548        He      STR      r0,[r1,#0x54]
        0x00019498:    69e0        .i      LDR      r0,[r4,#0x1c]
        0x0001949a:    f8c10100    ....    STR      r0,[r1,#0x100]
        0x0001949e:    6a20         j      LDR      r0,[r4,#0x20]
        0x000194a0:    64c8        .d      STR      r0,[r1,#0x4c]
        0x000194a2:    6a60        `j      LDR      r0,[r4,#0x24]
        0x000194a4:    6108        .a      STR      r0,[r1,#0x10]
        0x000194a6:    6aa0        .j      LDR      r0,[r4,#0x28]
        0x000194a8:    6308        .c      STR      r0,[r1,#0x30]
        0x000194aa:    6ae0        .j      LDR      r0,[r4,#0x2c]
        0x000194ac:    f8c10300    ....    STR      r0,[r1,#0x300]
        0x000194b0:    6b20         k      LDR      r0,[r4,#0x30]
        0x000194b2:    f8c10200    ....    STR      r0,[r1,#0x200]
        0x000194b6:    2000        .       MOVS     r0,#0
        0x000194b8:    7220         r      STRB     r0,[r4,#8]
        0x000194ba:    bdb0        ..      POP      {r4,r5,r7,pc}
        0x000194bc:    2006        .       MOVS     r0,#6
        0x000194be:    bdb0        ..      POP      {r4,r5,r7,pc}
        0x000194c0:    b2c0        ..      UXTB     r0,r0
        0x000194c2:    f000fa35    ..5.    BL       am_hal_pwrctrl_periph_enable ; 0x19930
        0x000194c6:    e7d0        ..      B        0x1946a ; am_hal_i2s_power_control + 108
        0x000194c8:    2007        .       MOVS     r0,#7
        0x000194ca:    bdb0        ..      POP      {r4,r5,r7,pc}
    am_hal_interrupt_master_disable
        0x000194cc:    f3ef8010    ....    MRS      r0,PRIMASK
        0x000194d0:    b672        r.      CPSID    i
        0x000194d2:    4770        pG      BX       lr
    am_hal_interrupt_master_enable
        0x000194d4:    f3ef8010    ....    MRS      r0,PRIMASK
        0x000194d8:    b662        b.      CPSIE    i
        0x000194da:    4770        pG      BX       lr
    am_hal_interrupt_master_set
        0x000194dc:    f3808810    ....    MSR      PRIMASK,r0
        0x000194e0:    4770        pG      BX       lr
        0x000194e2:    0000        ..      MOVS     r0,r0
    am_hal_itm_enable
        0x000194e4:    f64e50fc    N..P    MOV      r0,#0xedfc
        0x000194e8:    f2ce0000    ....    MOVT     r0,#0xe000
        0x000194ec:    6801        .h      LDR      r1,[r0,#0]
        0x000194ee:    f0417180    A..q    ORR      r1,r1,#0x1000000
        0x000194f2:    6001        .`      STR      r1,[r0,#0]
        0x000194f4:    6801        .h      LDR      r1,[r0,#0]
        0x000194f6:    01c9        ..      LSLS     r1,r1,#7
        0x000194f8:    d5fc        ..      BPL      0x194f4 ; am_hal_itm_enable + 16
        0x000194fa:    f6406000    @..`    MOVW     r0,#0xe00
        0x000194fe:    f64c6155    L.Ua    MOV      r1,#0xce55
        0x00019502:    f2ce0000    ....    MOVT     r0,#0xe000
        0x00019506:    f2cc51ac    ...Q    MOVT     r1,#0xc5ac
        0x0001950a:    f8c011b0    ....    STR      r1,[r0,#0x1b0]
        0x0001950e:    210f        .!      MOVS     r1,#0xf
        0x00019510:    6401        .d      STR      r1,[r0,#0x40]
        0x00019512:    f04f31ff    O..1    MOV      r1,#0xffffffff
        0x00019516:    6001        .`      STR      r1,[r0,#0]
        0x00019518:    f2405111    @..Q    MOV      r1,#0x511
        0x0001951c:    f2c00115    ....    MOVT     r1,#0x15
        0x00019520:    f8c01080    ....    STR      r1,[r0,#0x80]
        0x00019524:    4770        pG      BX       lr
        0x00019526:    0000        ..      MOVS     r0,r0
    am_hal_itm_print
        0x00019528:    2100        .!      MOVS     r1,#0
        0x0001952a:    bf00        ..      NOP      
        0x0001952c:    5c42        B\      LDRB     r2,[r0,r1]
        0x0001952e:    3101        .1      ADDS     r1,#1
        0x00019530:    2a00        .*      CMP      r2,#0
        0x00019532:    d1fb        ..      BNE      0x1952c ; am_hal_itm_print + 4
        0x00019534:    3901        .9      SUBS     r1,#1
        0x00019536:    bf08        ..      IT       EQ
        0x00019538:    4770        pG      BXEQ     lr
        0x0001953a:    f04f4260    O.`B    MOV      r2,#0xe0000000
        0x0001953e:    bf00        ..      NOP      
        0x00019540:    f890c000    ....    LDRB     r12,[r0,#0]
        0x00019544:    6813        .h      LDR      r3,[r2,#0]
        0x00019546:    2b00        .+      CMP      r3,#0
        0x00019548:    d0fc        ..      BEQ      0x19544 ; am_hal_itm_print + 28
        0x0001954a:    3001        .0      ADDS     r0,#1
        0x0001954c:    3901        .9      SUBS     r1,#1
        0x0001954e:    f882c000    ....    STRB     r12,[r2,#0]
        0x00019552:    d1f5        ..      BNE      0x19540 ; am_hal_itm_print + 24
        0x00019554:    4770        pG      BX       lr
        0x00019556:    0000        ..      MOVS     r0,r0
    am_hal_mcuctrl_control
        0x00019558:    b570        p.      PUSH     {r4-r6,lr}
        0x0001955a:    b082        ..      SUB      sp,sp,#8
        0x0001955c:    2805        .(      CMP      r0,#5
        0x0001955e:    f2008148    ..H.    BHI.W    0x197f2 ; am_hal_mcuctrl_control + 666
        0x00019562:    460c        .F      MOV      r4,r1
        0x00019564:    e8dff010    ....    TBH      [pc,r0,LSL #1]
    $d.2
        0x00019568:    00170006    ....    DCD    1507334
        0x0001956c:    0092002c    ,...    DCD    9568300
        0x00019570:    013400e6    ..4.    DCD    20185318
    $t.3
        0x00019574:    f7ffffaa    ....    BL       am_hal_interrupt_master_disable ; 0x194cc
        0x00019578:    9000        ..      STR      r0,[sp,#0]
        0x0001957a:    f2401020    @. .    MOVW     r0,#0x120
        0x0001957e:    f2c40002    ....    MOVT     r0,#0x4002
        0x00019582:    6801        .h      LDR      r1,[r0,#0]
        0x00019584:    9101        ..      STR      r1,[sp,#4]
        0x00019586:    9901        ..      LDR      r1,[sp,#4]
        0x00019588:    f021011f    !...    BIC      r1,r1,#0x1f
        0x0001958c:    9101        ..      STR      r1,[sp,#4]
        0x0001958e:    9901        ..      LDR      r1,[sp,#4]
        0x00019590:    f0410119    A...    ORR      r1,r1,#0x19
        0x00019594:    e00f        ..      B        0x195b6 ; am_hal_mcuctrl_control + 94
        0x00019596:    f7ffff99    ....    BL       am_hal_interrupt_master_disable ; 0x194cc
        0x0001959a:    9000        ..      STR      r0,[sp,#0]
        0x0001959c:    f2401020    @. .    MOVW     r0,#0x120
        0x000195a0:    f2c40002    ....    MOVT     r0,#0x4002
        0x000195a4:    6801        .h      LDR      r1,[r0,#0]
        0x000195a6:    9101        ..      STR      r1,[sp,#4]
        0x000195a8:    9901        ..      LDR      r1,[sp,#4]
        0x000195aa:    f021011f    !...    BIC      r1,r1,#0x1f
        0x000195ae:    9101        ..      STR      r1,[sp,#4]
        0x000195b0:    9901        ..      LDR      r1,[sp,#4]
        0x000195b2:    f0410118    A...    ORR      r1,r1,#0x18
        0x000195b6:    9101        ..      STR      r1,[sp,#4]
        0x000195b8:    9901        ..      LDR      r1,[sp,#4]
        0x000195ba:    6001        .`      STR      r1,[r0,#0]
        0x000195bc:    9800        ..      LDR      r0,[sp,#0]
        0x000195be:    e103        ..      B        0x197c8 ; am_hal_mcuctrl_control + 624
        0x000195c0:    2c00        .,      CMP      r4,#0
        0x000195c2:    f0008116    ....    BEQ.W    0x197f2 ; am_hal_mcuctrl_control + 666
        0x000195c6:    f2401520    @. .    MOVW     r5,#0x120
        0x000195ca:    f2c40502    ....    MOVT     r5,#0x4002
        0x000195ce:    f7ffff7d    ..}.    BL       am_hal_interrupt_master_disable ; 0x194cc
        0x000195d2:    9001        ..      STR      r0,[sp,#4]
        0x000195d4:    f2401c30    @.0.    MOVW     r12,#0x130
        0x000195d8:    f2c10c00    ....    MOVT     r12,#0x1000
        0x000195dc:    7922        "y      LDRB     r2,[r4,#4]
        0x000195de:    f8dc1000    ....    LDR      r1,[r12,#0]
        0x000195e2:    b1aa        ..      CBZ      r2,0x19610 ; am_hal_mcuctrl_control + 184
        0x000195e4:    6822        "h      LDR      r2,[r4,#0]
        0x000195e6:    79e3        .y      LDRB     r3,[r4,#7]
        0x000195e8:    ea420001    B...    ORR      r0,r2,r1
        0x000195ec:    2b00        .+      CMP      r3,#0
        0x000195ee:    f8cc0000    ....    STR      r0,[r12,#0]
        0x000195f2:    f8dc0004    ....    LDR      r0,[r12,#4]
        0x000195f6:    bf0c        ..      ITE      EQ
        0x000195f8:    ea200202     ...    BICEQ    r2,r0,r2
        0x000195fc:    4302        .C      ORRNE    r2,r2,r0
        0x000195fe:    f8cc2004    ...     STR      r2,[r12,#4]
        0x00019602:    68e8        .h      LDR      r0,[r5,#0xc]
        0x00019604:    2a00        .*      CMP      r2,#0
        0x00019606:    f0200080     ...    BIC      r0,r0,#0x80
        0x0001960a:    bf18        ..      IT       NE
        0x0001960c:    3080        .0      ADDNE    r0,r0,#0x80
        0x0001960e:    60e8        .`      STR      r0,[r5,#0xc]
        0x00019610:    b911        ..      CBNZ     r1,0x19618 ; am_hal_mcuctrl_control + 192
        0x00019612:    f8dc0000    ....    LDR      r0,[r12,#0]
        0x00019616:    b918        ..      CBNZ     r0,0x19620 ; am_hal_mcuctrl_control + 200
        0x00019618:    79a0        .y      LDRB     r0,[r4,#6]
        0x0001961a:    2800        .(      CMP      r0,#0
        0x0001961c:    f00080d3    ....    BEQ.W    0x197c6 ; am_hal_mcuctrl_control + 622
        0x00019620:    2001        .       MOVS     r0,#1
        0x00019622:    f88c0008    ....    STRB     r0,[r12,#8]
        0x00019626:    f240008c    @...    MOVW     r0,#0x8c
        0x0001962a:    f2400190    @...    MOVW     r1,#0x90
        0x0001962e:    f2c10000    ....    MOVT     r0,#0x1000
        0x00019632:    f2c10100    ....    MOVT     r1,#0x1000
        0x00019636:    6800        .h      LDR      r0,[r0,#0]
        0x00019638:    6809        .h      LDR      r1,[r1,#0]
        0x0001963a:    f000003f    ..?.    AND      r0,r0,#0x3f
        0x0001963e:    f001010f    ....    AND      r1,r1,#0xf
        0x00019642:    ea401081    @...    ORR      r0,r0,r1,LSL #6
        0x00019646:    f6484100    H..A    MOVW     r1,#0x8c00
        0x0001964a:    f6c071ff    ...q    MOVT     r1,#0xfff
        0x0001964e:    4308        .C      ORRS     r0,r0,r1
        0x00019650:    60a8        .`      STR      r0,[r5,#8]
        0x00019652:    68e8        .h      LDR      r0,[r5,#0xc]
        0x00019654:    f0200022     .".    BIC      r0,r0,#0x22
        0x00019658:    1c81        ..      ADDS     r1,r0,#2
        0x0001965a:    60e9        .`      STR      r1,[r5,#0xc]
        0x0001965c:    f0400103    @...    ORR      r1,r0,#3
        0x00019660:    60e9        .`      STR      r1,[r5,#0xc]
        0x00019662:    f0400113    @...    ORR      r1,r0,#0x13
        0x00019666:    f040001b    @...    ORR      r0,r0,#0x1b
        0x0001966a:    60e9        .`      STR      r1,[r5,#0xc]
        0x0001966c:    60e8        .`      STR      r0,[r5,#0xc]
        0x0001966e:    2005        .       MOVS     r0,#5
        0x00019670:    f7fffae0    ....    BL       am_hal_delay_us ; 0x18c34
        0x00019674:    68e8        .h      LDR      r0,[r5,#0xc]
        0x00019676:    7961        ay      LDRB     r1,[r4,#5]
        0x00019678:    f4407280    @..r    ORR      r2,r0,#0x100
        0x0001967c:    f0220219    "...    BIC      r2,r2,#0x19
        0x00019680:    2900        .)      CMP      r1,#0
        0x00019682:    bf08        ..      IT       EQ
        0x00019684:    f0200210     ...    BICEQ    r2,r0,#0x10
        0x00019688:    60ea        .`      STR      r2,[r5,#0xc]
        0x0001968a:    e09c        ..      B        0x197c6 ; am_hal_mcuctrl_control + 622
        0x0001968c:    2c00        .,      CMP      r4,#0
        0x0001968e:    f00080b0    ....    BEQ.W    0x197f2 ; am_hal_mcuctrl_control + 666
        0x00019692:    f2401620    @. .    MOVW     r6,#0x120
        0x00019696:    f2c40602    ....    MOVT     r6,#0x4002
        0x0001969a:    f7ffff17    ....    BL       am_hal_interrupt_master_disable ; 0x194cc
        0x0001969e:    9001        ..      STR      r0,[sp,#4]
        0x000196a0:    f2401030    @.0.    MOVW     r0,#0x130
        0x000196a4:    f2c10000    ....    MOVT     r0,#0x1000
        0x000196a8:    7922        "y      LDRB     r2,[r4,#4]
        0x000196aa:    6801        .h      LDR      r1,[r0,#0]
        0x000196ac:    b192        ..      CBZ      r2,0x196d4 ; am_hal_mcuctrl_control + 380
        0x000196ae:    6822        "h      LDR      r2,[r4,#0]
        0x000196b0:    79e3        .y      LDRB     r3,[r4,#7]
        0x000196b2:    ea420501    B...    ORR      r5,r2,r1
        0x000196b6:    2b00        .+      CMP      r3,#0
        0x000196b8:    6005        .`      STR      r5,[r0,#0]
        0x000196ba:    6843        Ch      LDR      r3,[r0,#4]
        0x000196bc:    bf0c        ..      ITE      EQ
        0x000196be:    ea230202    #...    BICEQ    r2,r3,r2
        0x000196c2:    431a        .C      ORRNE    r2,r2,r3
        0x000196c4:    6042        B`      STR      r2,[r0,#4]
        0x000196c6:    68f3        .h      LDR      r3,[r6,#0xc]
        0x000196c8:    2a00        .*      CMP      r2,#0
        0x000196ca:    f0230380    #...    BIC      r3,r3,#0x80
        0x000196ce:    bf18        ..      IT       NE
        0x000196d0:    3380        .3      ADDNE    r3,r3,#0x80
        0x000196d2:    60f3        .`      STR      r3,[r6,#0xc]
        0x000196d4:    b909        ..      CBNZ     r1,0x196da ; am_hal_mcuctrl_control + 386
        0x000196d6:    6800        .h      LDR      r0,[r0,#0]
        0x000196d8:    b910        ..      CBNZ     r0,0x196e0 ; am_hal_mcuctrl_control + 392
        0x000196da:    79a0        .y      LDRB     r0,[r4,#6]
        0x000196dc:    2800        .(      CMP      r0,#0
        0x000196de:    d072        r.      BEQ      0x197c6 ; am_hal_mcuctrl_control + 622
        0x000196e0:    f240008c    @...    MOVW     r0,#0x8c
        0x000196e4:    f2400190    @...    MOVW     r1,#0x90
        0x000196e8:    f2c10000    ....    MOVT     r0,#0x1000
        0x000196ec:    f2c10100    ....    MOVT     r1,#0x1000
        0x000196f0:    6800        .h      LDR      r0,[r0,#0]
        0x000196f2:    6809        .h      LDR      r1,[r1,#0]
        0x000196f4:    f000003f    ..?.    AND      r0,r0,#0x3f
        0x000196f8:    f001010f    ....    AND      r1,r1,#0xf
        0x000196fc:    ea401081    @...    ORR      r0,r0,r1,LSL #6
        0x00019700:    f6484100    H..A    MOVW     r1,#0x8c00
        0x00019704:    f6c071ff    ...q    MOVT     r1,#0xfff
        0x00019708:    4308        .C      ORRS     r0,r0,r1
        0x0001970a:    60b0        .`      STR      r0,[r6,#8]
        0x0001970c:    68f0        .h      LDR      r0,[r6,#0xc]
        0x0001970e:    f0400122    @.".    ORR      r1,r0,#0x22
        0x00019712:    60f1        .`      STR      r1,[r6,#0xc]
        0x00019714:    f0400123    @.#.    ORR      r1,r0,#0x23
        0x00019718:    60f1        .`      STR      r1,[r6,#0xc]
        0x0001971a:    7961        ay      LDRB     r1,[r4,#5]
        0x0001971c:    f4407291    @..r    ORR      r2,r0,#0x122
        0x00019720:    f0220201    "...    BIC      r2,r2,#1
        0x00019724:    f040000b    @...    ORR      r0,r0,#0xb
        0x00019728:    2900        .)      CMP      r1,#0
        0x0001972a:    bf08        ..      IT       EQ
        0x0001972c:    f0200220     . .    BICEQ    r2,r0,#0x20
        0x00019730:    60f2        .`      STR      r2,[r6,#0xc]
        0x00019732:    e048        H.      B        0x197c6 ; am_hal_mcuctrl_control + 622
        0x00019734:    2c00        .,      CMP      r4,#0
        0x00019736:    d05c        \.      BEQ      0x197f2 ; am_hal_mcuctrl_control + 666
        0x00019738:    f2401520    @. .    MOVW     r5,#0x120
        0x0001973c:    f2c40502    ....    MOVT     r5,#0x4002
        0x00019740:    f7fffec4    ....    BL       am_hal_interrupt_master_disable ; 0x194cc
        0x00019744:    9001        ..      STR      r0,[sp,#4]
        0x00019746:    7920         y      LDRB     r0,[r4,#4]
        0x00019748:    b1b8        ..      CBZ      r0,0x1977a ; am_hal_mcuctrl_control + 546
        0x0001974a:    f2401130    @.0.    MOVW     r1,#0x130
        0x0001974e:    f2c10100    ....    MOVT     r1,#0x1000
        0x00019752:    6820         h      LDR      r0,[r4,#0]
        0x00019754:    e9d12300    ...#    LDRD     r2,r3,[r1,#0]
        0x00019758:    4382        .C      BICS     r2,r2,r0
        0x0001975a:    600a        .`      STR      r2,[r1,#0]
        0x0001975c:    79e2        .y      LDRB     r2,[r4,#7]
        0x0001975e:    ea430600    C...    ORR      r6,r3,r0
        0x00019762:    2a00        .*      CMP      r2,#0
        0x00019764:    bf08        ..      IT       EQ
        0x00019766:    ea230600    #...    BICEQ    r6,r3,r0
        0x0001976a:    604e        N`      STR      r6,[r1,#4]
        0x0001976c:    68e8        .h      LDR      r0,[r5,#0xc]
        0x0001976e:    2e00        ..      CMP      r6,#0
        0x00019770:    f0200080     ...    BIC      r0,r0,#0x80
        0x00019774:    bf18        ..      IT       NE
        0x00019776:    3080        .0      ADDNE    r0,r0,#0x80
        0x00019778:    60e8        .`      STR      r0,[r5,#0xc]
        0x0001977a:    f2401030    @.0.    MOVW     r0,#0x130
        0x0001977e:    f2c10000    ....    MOVT     r0,#0x1000
        0x00019782:    6801        .h      LDR      r1,[r0,#0]
        0x00019784:    b109        ..      CBZ      r1,0x1978a ; am_hal_mcuctrl_control + 562
        0x00019786:    79a1        .y      LDRB     r1,[r4,#6]
        0x00019788:    b1e9        ..      CBZ      r1,0x197c6 ; am_hal_mcuctrl_control + 622
        0x0001978a:    2100        .!      MOVS     r1,#0
        0x0001978c:    7201        .r      STRB     r1,[r0,#8]
        0x0001978e:    6001        .`      STR      r1,[r0,#0]
        0x00019790:    f240008c    @...    MOVW     r0,#0x8c
        0x00019794:    f2400190    @...    MOVW     r1,#0x90
        0x00019798:    f2c10000    ....    MOVT     r0,#0x1000
        0x0001979c:    f2c10100    ....    MOVT     r1,#0x1000
        0x000197a0:    6800        .h      LDR      r0,[r0,#0]
        0x000197a2:    6809        .h      LDR      r1,[r1,#0]
        0x000197a4:    f000003f    ..?.    AND      r0,r0,#0x3f
        0x000197a8:    f001010f    ....    AND      r1,r1,#0xf
        0x000197ac:    ea401081    @...    ORR      r0,r0,r1,LSL #6
        0x000197b0:    f0407044    @.Dp    ORR      r0,r0,#0x3100000
        0x000197b4:    f44030f8    @..0    ORR      r0,r0,#0x1f000
        0x000197b8:    60a8        .`      STR      r0,[r5,#8]
        0x000197ba:    68e8        .h      LDR      r0,[r5,#0xc]
        0x000197bc:    f240112b    @.+.    MOV      r1,#0x12b
        0x000197c0:    4388        .C      BICS     r0,r0,r1
        0x000197c2:    3002        .0      ADDS     r0,#2
        0x000197c4:    60e8        .`      STR      r0,[r5,#0xc]
        0x000197c6:    9801        ..      LDR      r0,[sp,#4]
        0x000197c8:    f7fffe88    ....    BL       am_hal_interrupt_master_set ; 0x194dc
        0x000197cc:    2000        .       MOVS     r0,#0
        0x000197ce:    e011        ..      B        0x197f4 ; am_hal_mcuctrl_control + 668
        0x000197d0:    b17c        |.      CBZ      r4,0x197f2 ; am_hal_mcuctrl_control + 666
        0x000197d2:    7820         x      LDRB     r0,[r4,#0]
        0x000197d4:    f2401130    @.0.    MOVW     r1,#0x130
        0x000197d8:    f2c10100    ....    MOVT     r1,#0x1000
        0x000197dc:    684a        Jh      LDR      r2,[r1,#4]
        0x000197de:    2800        .(      CMP      r0,#0
        0x000197e0:    f2401020    @. .    MOVW     r0,#0x120
        0x000197e4:    f2c40002    ....    MOVT     r0,#0x4002
        0x000197e8:    d006        ..      BEQ      0x197f8 ; am_hal_mcuctrl_control + 672
        0x000197ea:    f4421200    B...    ORR      r2,r2,#0x200000
        0x000197ee:    604a        J`      STR      r2,[r1,#4]
        0x000197f0:    e006        ..      B        0x19800 ; am_hal_mcuctrl_control + 680
        0x000197f2:    2006        .       MOVS     r0,#6
        0x000197f4:    b002        ..      ADD      sp,sp,#8
        0x000197f6:    bd70        p.      POP      {r4-r6,pc}
        0x000197f8:    f4221200    "...    BIC      r2,r2,#0x200000
        0x000197fc:    604a        J`      STR      r2,[r1,#4]
        0x000197fe:    b122        ".      CBZ      r2,0x1980a ; am_hal_mcuctrl_control + 690
        0x00019800:    68c1        .h      LDR      r1,[r0,#0xc]
        0x00019802:    f0410180    A...    ORR      r1,r1,#0x80
        0x00019806:    60c1        .`      STR      r1,[r0,#0xc]
        0x00019808:    e7e0        ..      B        0x197cc ; am_hal_mcuctrl_control + 628
        0x0001980a:    68c1        .h      LDR      r1,[r0,#0xc]
        0x0001980c:    f0210180    !...    BIC      r1,r1,#0x80
        0x00019810:    e7f9        ..      B        0x19806 ; am_hal_mcuctrl_control + 686
    am_hal_pwrctrl_periph_disable
        0x00019812:    e92d43f0    -..C    PUSH     {r4-r9,lr}
        0x00019816:    b083        ..      SUB      sp,sp,#0xc
        0x00019818:    2821        !(      CMP      r0,#0x21
        0x0001981a:    d901        ..      BLS      0x19820 ; am_hal_pwrctrl_periph_disable + 14
        0x0001981c:    2406        .$      MOVS     r4,#6
        0x0001981e:    e083        ..      B        0x19928 ; am_hal_pwrctrl_periph_disable + 278
        0x00019820:    f64a31b8    J..1    MOV      r1,#0xabb8
        0x00019824:    f2c00101    ....    MOVT     r1,#1
        0x00019828:    0102        ..      LSLS     r2,r0,#4
        0x0001982a:    f8518002    Q...    LDR      r8,[r1,r2]
        0x0001982e:    eb011500    ....    ADD      r5,r1,r0,LSL #4
        0x00019832:    686f        oh      LDR      r7,[r5,#4]
        0x00019834:    f8d81000    ....    LDR      r1,[r8,#0]
        0x00019838:    4239        9B      TST      r1,r7
        0x0001983a:    d074        t.      BEQ      0x19926 ; am_hal_pwrctrl_periph_disable + 276
        0x0001983c:    2814        .(      CMP      r0,#0x14
        0x0001983e:    d12c        ,.      BNE      0x1989a ; am_hal_pwrctrl_periph_disable + 136
        0x00019840:    f64076e0    @..v    MOVW     r6,#0xfe0
        0x00019844:    f2c4060c    ....    MOVT     r6,#0x400c
        0x00019848:    6830        0h      LDR      r0,[r6,#0]
        0x0001984a:    28c0        .(      CMP      r0,#0xc0
        0x0001984c:    d125        %.      BNE      0x1989a ; am_hal_pwrctrl_periph_disable + 136
        0x0001984e:    f640297c    @.|)    MOV      r9,#0xa7c
        0x00019852:    f2c4090c    ....    MOVT     r9,#0x400c
        0x00019856:    2064        d       MOVS     r0,#0x64
        0x00019858:    4649        IF      MOV      r1,r9
        0x0001985a:    2201        ."      MOVS     r2,#1
        0x0001985c:    2301        .#      MOVS     r3,#1
        0x0001985e:    f7fffa05    ....    BL       am_hal_delay_us_status_change ; 0x18c6c
        0x00019862:    4604        .F      MOV      r4,r0
        0x00019864:    2800        .(      CMP      r0,#0
        0x00019866:    d15f        _.      BNE      0x19928 ; am_hal_pwrctrl_periph_disable + 278
        0x00019868:    f5066173    ..sa    ADD      r1,r6,#0xf30
        0x0001986c:    2064        d       MOVS     r0,#0x64
        0x0001986e:    2201        ."      MOVS     r2,#1
        0x00019870:    2301        .#      MOVS     r3,#1
        0x00019872:    f7fff9fb    ....    BL       am_hal_delay_us_status_change ; 0x18c6c
        0x00019876:    4604        .F      MOV      r4,r0
        0x00019878:    2800        .(      CMP      r0,#0
        0x0001987a:    d155        U.      BNE      0x19928 ; am_hal_pwrctrl_periph_disable + 278
        0x0001987c:    f8d90004    ....    LDR      r0,[r9,#4]
        0x00019880:    f0400001    @...    ORR      r0,r0,#1
        0x00019884:    f8c90004    ....    STR      r0,[r9,#4]
        0x00019888:    f6400010    @...    MOVW     r0,#0x810
        0x0001988c:    f2c10000    ....    MOVT     r0,#0x1000
        0x00019890:    6801        .h      LDR      r1,[r0,#0]
        0x00019892:    b111        ..      CBZ      r1,0x1989a ; am_hal_pwrctrl_periph_disable + 136
        0x00019894:    2000        .       MOVS     r0,#0
        0x00019896:    f000fe60    ..`.    BL       crypto_boost_trims ; 0x1a55a
        0x0001989a:    e9d56502    ...e    LDRD     r6,r5,[r5,#8]
        0x0001989e:    f7fffe15    ....    BL       am_hal_interrupt_master_disable ; 0x194cc
        0x000198a2:    9002        ..      STR      r0,[sp,#8]
        0x000198a4:    f8d80000    ....    LDR      r0,[r8,#0]
        0x000198a8:    43b8        .C      BICS     r0,r0,r7
        0x000198aa:    f8c80000    ....    STR      r0,[r8,#0]
        0x000198ae:    9802        ..      LDR      r0,[sp,#8]
        0x000198b0:    f7fffe14    ....    BL       am_hal_interrupt_master_set ; 0x194dc
        0x000198b4:    2400        .$      MOVS     r4,#0
        0x000198b6:    2005        .       MOVS     r0,#5
        0x000198b8:    4631        1F      MOV      r1,r6
        0x000198ba:    462a        *F      MOV      r2,r5
        0x000198bc:    462b        +F      MOV      r3,r5
        0x000198be:    9400        ..      STR      r4,[sp,#0]
        0x000198c0:    f7fff9fe    ....    BL       am_hal_delay_us_status_check ; 0x18cc0
        0x000198c4:    b380        ..      CBZ      r0,0x19928 ; am_hal_pwrctrl_periph_disable + 278
        0x000198c6:    f5b57ff0    ....    CMP      r5,#0x1e0
        0x000198ca:    f04f0400    O...    MOV      r4,#0
        0x000198ce:    db0c        ..      BLT      0x198ea ; am_hal_pwrctrl_periph_disable + 216
        0x000198d0:    d014        ..      BEQ      0x198fc ; am_hal_pwrctrl_periph_disable + 234
        0x000198d2:    f5b53fe0    ...?    CMP      r5,#0x1c000
        0x000198d6:    d019        ..      BEQ      0x1990c ; am_hal_pwrctrl_periph_disable + 250
        0x000198d8:    f5b55ff0    ..._    CMP      r5,#0x1e00
        0x000198dc:    d124        $.      BNE      0x19928 ; am_hal_pwrctrl_periph_disable + 278
        0x000198de:    f8d80000    ....    LDR      r0,[r8,#0]
        0x000198e2:    f4105ff0    ..._    TST      r0,#0x1e00
        0x000198e6:    d11c        ..      BNE      0x19922 ; am_hal_pwrctrl_periph_disable + 272
        0x000198e8:    e01d        ..      B        0x19926 ; am_hal_pwrctrl_periph_disable + 276
        0x000198ea:    2d1e        .-      CMP      r5,#0x1e
        0x000198ec:    d014        ..      BEQ      0x19918 ; am_hal_pwrctrl_periph_disable + 262
        0x000198ee:    2dff        .-      CMP      r5,#0xff
        0x000198f0:    d11a        ..      BNE      0x19928 ; am_hal_pwrctrl_periph_disable + 278
        0x000198f2:    f8d80000    ....    LDR      r0,[r8,#0]
        0x000198f6:    0600        ..      LSLS     r0,r0,#24
        0x000198f8:    d113        ..      BNE      0x19922 ; am_hal_pwrctrl_periph_disable + 272
        0x000198fa:    e014        ..      B        0x19926 ; am_hal_pwrctrl_periph_disable + 276
        0x000198fc:    f8d80000    ....    LDR      r0,[r8,#0]
        0x00019900:    f4107ff0    ....    TST      r0,#0x1e0
        0x00019904:    bf18        ..      IT       NE
        0x00019906:    f8d80000    ....    LDRNE    r0,[r8,#0]
        0x0001990a:    e00c        ..      B        0x19926 ; am_hal_pwrctrl_periph_disable + 276
        0x0001990c:    f8d80000    ....    LDR      r0,[r8,#0]
        0x00019910:    f4103fe0    ...?    TST      r0,#0x1c000
        0x00019914:    d105        ..      BNE      0x19922 ; am_hal_pwrctrl_periph_disable + 272
        0x00019916:    e006        ..      B        0x19926 ; am_hal_pwrctrl_periph_disable + 276
        0x00019918:    f8d80000    ....    LDR      r0,[r8,#0]
        0x0001991c:    f0100f1e    ....    TST      r0,#0x1e
        0x00019920:    d001        ..      BEQ      0x19926 ; am_hal_pwrctrl_periph_disable + 276
        0x00019922:    f8d80000    ....    LDR      r0,[r8,#0]
        0x00019926:    2400        .$      MOVS     r4,#0
        0x00019928:    4620         F      MOV      r0,r4
        0x0001992a:    b003        ..      ADD      sp,sp,#0xc
        0x0001992c:    e8bd83f0    ....    POP      {r4-r9,pc}
    am_hal_pwrctrl_periph_enable
        0x00019930:    e92d43f0    -..C    PUSH     {r4-r9,lr}
        0x00019934:    b083        ..      SUB      sp,sp,#0xc
        0x00019936:    2821        !(      CMP      r0,#0x21
        0x00019938:    d901        ..      BLS      0x1993e ; am_hal_pwrctrl_periph_enable + 14
        0x0001993a:    2706        .'      MOVS     r7,#6
        0x0001993c:    e00d        ..      B        0x1995a ; am_hal_pwrctrl_periph_enable + 42
        0x0001993e:    4606        .F      MOV      r6,r0
        0x00019940:    f64a31b8    J..1    MOV      r1,#0xabb8
        0x00019944:    f2c00101    ....    MOVT     r1,#1
        0x00019948:    0132        2.      LSLS     r2,r6,#4
        0x0001994a:    588f        .X      LDR      r7,[r1,r2]
        0x0001994c:    eb011000    ....    ADD      r0,r1,r0,LSL #4
        0x00019950:    6844        Dh      LDR      r4,[r0,#4]
        0x00019952:    6839        9h      LDR      r1,[r7,#0]
        0x00019954:    4221        !B      TST      r1,r4
        0x00019956:    d004        ..      BEQ      0x19962 ; am_hal_pwrctrl_periph_enable + 50
        0x00019958:    2700        .'      MOVS     r7,#0
        0x0001995a:    4638        8F      MOV      r0,r7
        0x0001995c:    b003        ..      ADD      sp,sp,#0xc
        0x0001995e:    e8bd83f0    ....    POP      {r4-r9,pc}
        0x00019962:    e9d09502    ....    LDRD     r9,r5,[r0,#8]
        0x00019966:    f6400810    @...    MOVW     r8,#0x810
        0x0001996a:    2e14        ..      CMP      r6,#0x14
        0x0001996c:    f2c10800    ....    MOVT     r8,#0x1000
        0x00019970:    d105        ..      BNE      0x1997e ; am_hal_pwrctrl_periph_enable + 78
        0x00019972:    f8d81000    ....    LDR      r1,[r8,#0]
        0x00019976:    b111        ..      CBZ      r1,0x1997e ; am_hal_pwrctrl_periph_enable + 78
        0x00019978:    2001        .       MOVS     r0,#1
        0x0001997a:    f000fdee    ....    BL       crypto_boost_trims ; 0x1a55a
        0x0001997e:    f7fffda5    ....    BL       am_hal_interrupt_master_disable ; 0x194cc
        0x00019982:    9002        ..      STR      r0,[sp,#8]
        0x00019984:    6838        8h      LDR      r0,[r7,#0]
        0x00019986:    4320         C      ORRS     r0,r0,r4
        0x00019988:    6038        8`      STR      r0,[r7,#0]
        0x0001998a:    9802        ..      LDR      r0,[sp,#8]
        0x0001998c:    f7fffda6    ....    BL       am_hal_interrupt_master_set ; 0x194dc
        0x00019990:    2701        .'      MOVS     r7,#1
        0x00019992:    2005        .       MOVS     r0,#5
        0x00019994:    4649        IF      MOV      r1,r9
        0x00019996:    462a        *F      MOV      r2,r5
        0x00019998:    462b        +F      MOV      r3,r5
        0x0001999a:    9700        ..      STR      r7,[sp,#0]
        0x0001999c:    f7fff990    ....    BL       am_hal_delay_us_status_check ; 0x18cc0
        0x000199a0:    b150        P.      CBZ      r0,0x199b8 ; am_hal_pwrctrl_periph_enable + 136
        0x000199a2:    4607        .F      MOV      r7,r0
        0x000199a4:    2e14        ..      CMP      r6,#0x14
        0x000199a6:    d1d8        ..      BNE      0x1995a ; am_hal_pwrctrl_periph_enable + 42
        0x000199a8:    f8d81000    ....    LDR      r1,[r8,#0]
        0x000199ac:    2900        .)      CMP      r1,#0
        0x000199ae:    d0d4        ..      BEQ      0x1995a ; am_hal_pwrctrl_periph_enable + 42
        0x000199b0:    2000        .       MOVS     r0,#0
        0x000199b2:    f000fdd2    ....    BL       crypto_boost_trims ; 0x1a55a
        0x000199b6:    e7d0        ..      B        0x1995a ; am_hal_pwrctrl_periph_enable + 42
        0x000199b8:    2e14        ..      CMP      r6,#0x14
        0x000199ba:    d10b        ..      BNE      0x199d4 ; am_hal_pwrctrl_periph_enable + 164
        0x000199bc:    f6417110    A..q    MOV      r1,#0x1f10
        0x000199c0:    f2c4010c    ....    MOVT     r1,#0x400c
        0x000199c4:    2064        d       MOVS     r0,#0x64
        0x000199c6:    2201        ."      MOVS     r2,#1
        0x000199c8:    2301        .#      MOVS     r3,#1
        0x000199ca:    f7fff94f    ..O.    BL       am_hal_delay_us_status_change ; 0x18c6c
        0x000199ce:    4607        .F      MOV      r7,r0
        0x000199d0:    2800        .(      CMP      r0,#0
        0x000199d2:    d1c2        ..      BNE      0x1995a ; am_hal_pwrctrl_periph_enable + 42
        0x000199d4:    f8d90000    ....    LDR      r0,[r9,#0]
        0x000199d8:    4028        (@      ANDS     r0,r0,r5
        0x000199da:    fab0f080    ....    CLZ      r0,r0
        0x000199de:    0947        G.      LSRS     r7,r0,#5
        0x000199e0:    e7bb        ..      B        0x1995a ; am_hal_pwrctrl_periph_enable + 42
    am_hal_tpiu_enable
        0x000199e2:    f24a3280    J..2    MOV      r2,#0xa380
        0x000199e6:    2104        .!      MOVS     r1,#4
        0x000199e8:    f5a04361    ..aC    SUB      r3,r0,#0xe100
        0x000199ec:    f2c0021d    ....    MOVT     r2,#0x1d
        0x000199f0:    f2ce0104    ....    MOVT     r1,#0xe004
        0x000199f4:    f04f0c00    O...    MOV      r12,#0
        0x000199f8:    4293        .B      CMP      r3,r2
        0x000199fa:    f6464300    F..C    MOVW     r3,#0x6c00
        0x000199fe:    f8c1c300    ....    STR      r12,[r1,#0x300]
        0x00019a02:    bf84        ..      ITT      HI
        0x00019a04:    f2442040    D.@     MOVHI    r0,#0x4240
        0x00019a08:    f2c0000f    ....    MOVTHI   r0,#0xf
        0x00019a0c:    f2c023dc    ...#    MOVT     r3,#0x2dc
        0x00019a10:    fbb3f0f0    ....    UDIV     r0,r3,r0
        0x00019a14:    2201        ."      MOVS     r2,#1
        0x00019a16:    3801        .8      SUBS     r0,#1
        0x00019a18:    b280        ..      UXTH     r0,r0
        0x00019a1a:    600a        .`      STR      r2,[r1,#0]
        0x00019a1c:    60c8        .`      STR      r0,[r1,#0xc]
        0x00019a1e:    2002        .       MOVS     r0,#2
        0x00019a20:    f8c100ec    ....    STR      r0,[r1,#0xec]
        0x00019a24:    f6407100    @..q    MOVW     r1,#0xf00
        0x00019a28:    f2ce0104    ....    MOVT     r1,#0xe004
        0x00019a2c:    f8c1c000    ....    STR      r12,[r1,#0]
        0x00019a30:    f2402150    @.P!    MOVW     r1,#0x250
        0x00019a34:    f2c40102    ....    MOVT     r1,#0x4002
        0x00019a38:    680a        .h      LDR      r2,[r1,#0]
        0x00019a3a:    f3600243    `.C.    BFI      r2,r0,#1,#3
        0x00019a3e:    600a        .`      STR      r2,[r1,#0]
        0x00019a40:    6808        .h      LDR      r0,[r1,#0]
        0x00019a42:    f0400201    @...    ORR      r2,r0,#1
        0x00019a46:    2064        d       MOVS     r0,#0x64
        0x00019a48:    600a        .`      STR      r2,[r1,#0]
        0x00019a4a:    f7ffb8f3    ....    B        am_hal_delay_us ; 0x18c34
    am_util_delay_ms
        0x00019a4e:    f44f717a    O.zq    MOV      r1,#0x3e8
        0x00019a52:    4348        HC      MULS     r0,r1,r0
        0x00019a54:    f7ffb8ee    ....    B        am_hal_delay_us ; 0x18c34
    am_util_delay_us
        0x00019a58:    f7ffb8ec    ....    B        am_hal_delay_us ; 0x18c34
    am_util_faultisr_collect_data
        0x00019a5c:    b092        ..      SUB      sp,sp,#0x48
        0x00019a5e:    4604        .F      MOV      r4,r0
        0x00019a60:    4668        hF      MOV      r0,sp
        0x00019a62:    2118        .!      MOVS     r1,#0x18
        0x00019a64:    f7fefcd8    ....    BL       __aeabi_memclr4 ; 0x18418
        0x00019a68:    2000        .       MOVS     r0,#0
        0x00019a6a:    9007        ..      STR      r0,[sp,#0x1c]
        0x00019a6c:    f64e5028    N.(P    MOV      r0,#0xed28
        0x00019a70:    f2ce0000    ....    MOVT     r0,#0xe000
        0x00019a74:    6801        .h      LDR      r1,[r0,#0]
        0x00019a76:    9107        ..      STR      r1,[sp,#0x1c]
        0x00019a78:    9907        ..      LDR      r1,[sp,#0x1c]
        0x00019a7a:    f88d101b    ....    STRB     r1,[sp,#0x1b]
        0x00019a7e:    9907        ..      LDR      r1,[sp,#0x1c]
        0x00019a80:    0a09        ..      LSRS     r1,r1,#8
        0x00019a82:    f88d101a    ....    STRB     r1,[sp,#0x1a]
        0x00019a86:    9907        ..      LDR      r1,[sp,#0x1c]
        0x00019a88:    0c09        ..      LSRS     r1,r1,#16
        0x00019a8a:    f8ad1018    ....    STRH     r1,[sp,#0x18]
        0x00019a8e:    f1044170    ..pA    ADD      r1,r4,#0xf0000000
        0x00019a92:    6900        .i      LDR      r0,[r0,#0x10]
        0x00019a94:    0c89        ..      LSRS     r1,r1,#18
        0x00019a96:    290a        .)      CMP      r1,#0xa
        0x00019a98:    9008        ..      STR      r0,[sp,#0x20]
        0x00019a9a:    d806        ..      BHI      0x19aaa ; am_util_faultisr_collect_data + 78
        0x00019a9c:    f89d001a    ....    LDRB     r0,[sp,#0x1a]
        0x00019aa0:    0780        ..      LSLS     r0,r0,#30
        0x00019aa2:    d412        ..      BMI      0x19aca ; am_util_faultisr_collect_data + 110
        0x00019aa4:    f04f30ff    O..0    MOV      r0,#0xffffffff
        0x00019aa8:    e013        ..      B        0x19ad2 ; am_util_faultisr_collect_data + 118
        0x00019aaa:    4668        hF      MOV      r0,sp
        0x00019aac:    f7fff939    ..9.    BL       am_hal_fault_status_get ; 0x18d22
        0x00019ab0:    f64a6095    J..`    MOV      r0,#0xae95
        0x00019ab4:    f2c00001    ....    MOVT     r0,#1
        0x00019ab8:    f000f95c    ..\.    BL       am_util_stdio_printf ; 0x19d74
        0x00019abc:    f64a6024    J.$`    MOV      r0,#0xae24
        0x00019ac0:    f2c00001    ....    MOVT     r0,#1
        0x00019ac4:    f000f956    ..V.    BL       am_util_stdio_printf ; 0x19d74
        0x00019ac8:    e05e        ^.      B        0x19b88 ; am_util_faultisr_collect_data + 300
        0x00019aca:    2006        .       MOVS     r0,#6
        0x00019acc:    4621        !F      MOV      r1,r4
        0x00019ace:    f000fe3a    ..:.    BL       getStackedReg ; 0x1a746
        0x00019ad2:    9009        ..      STR      r0,[sp,#0x24]
        0x00019ad4:    2000        .       MOVS     r0,#0
        0x00019ad6:    4621        !F      MOV      r1,r4
        0x00019ad8:    f000fe35    ..5.    BL       getStackedReg ; 0x1a746
        0x00019adc:    9011        ..      STR      r0,[sp,#0x44]
        0x00019ade:    2001        .       MOVS     r0,#1
        0x00019ae0:    4621        !F      MOV      r1,r4
        0x00019ae2:    f000fe30    ..0.    BL       getStackedReg ; 0x1a746
        0x00019ae6:    9010        ..      STR      r0,[sp,#0x40]
        0x00019ae8:    2002        .       MOVS     r0,#2
        0x00019aea:    4621        !F      MOV      r1,r4
        0x00019aec:    f000fe2b    ..+.    BL       getStackedReg ; 0x1a746
        0x00019af0:    900f        ..      STR      r0,[sp,#0x3c]
        0x00019af2:    2003        .       MOVS     r0,#3
        0x00019af4:    4621        !F      MOV      r1,r4
        0x00019af6:    f000fe26    ..&.    BL       getStackedReg ; 0x1a746
        0x00019afa:    900e        ..      STR      r0,[sp,#0x38]
        0x00019afc:    2004        .       MOVS     r0,#4
        0x00019afe:    4621        !F      MOV      r1,r4
        0x00019b00:    f000fe21    ..!.    BL       getStackedReg ; 0x1a746
        0x00019b04:    900d        ..      STR      r0,[sp,#0x34]
        0x00019b06:    2005        .       MOVS     r0,#5
        0x00019b08:    4621        !F      MOV      r1,r4
        0x00019b0a:    f000fe1c    ....    BL       getStackedReg ; 0x1a746
        0x00019b0e:    900c        ..      STR      r0,[sp,#0x30]
        0x00019b10:    2006        .       MOVS     r0,#6
        0x00019b12:    4621        !F      MOV      r1,r4
        0x00019b14:    f000fe17    ....    BL       getStackedReg ; 0x1a746
        0x00019b18:    900b        ..      STR      r0,[sp,#0x2c]
        0x00019b1a:    2007        .       MOVS     r0,#7
        0x00019b1c:    4621        !F      MOV      r1,r4
        0x00019b1e:    f000fe12    ....    BL       getStackedReg ; 0x1a746
        0x00019b22:    900a        ..      STR      r0,[sp,#0x28]
        0x00019b24:    4668        hF      MOV      r0,sp
        0x00019b26:    f7fff8fc    ....    BL       am_hal_fault_status_get ; 0x18d22
        0x00019b2a:    f64a6095    J..`    MOV      r0,#0xae95
        0x00019b2e:    f2c00001    ....    MOVT     r0,#1
        0x00019b32:    f000f91f    ....    BL       am_util_stdio_printf ; 0x19d74
        0x00019b36:    f64a60af    J..`    MOV      r0,#0xaeaf
        0x00019b3a:    f2c00001    ....    MOVT     r0,#1
        0x00019b3e:    f000f919    ....    BL       am_util_stdio_printf ; 0x19d74
        0x00019b42:    9911        ..      LDR      r1,[sp,#0x44]
        0x00019b44:    f24b00c2    K...    MOV      r0,#0xb0c2
        0x00019b48:    f2c00001    ....    MOVT     r0,#1
        0x00019b4c:    f000f912    ....    BL       am_util_stdio_printf ; 0x19d74
        0x00019b50:    9910        ..      LDR      r1,[sp,#0x40]
        0x00019b52:    a065        e.      ADR      r0,{pc}+0x196 ; 0x19ce8
        0x00019b54:    f000f90e    ....    BL       am_util_stdio_printf ; 0x19d74
        0x00019b58:    990f        ..      LDR      r1,[sp,#0x3c]
        0x00019b5a:    a068        h.      ADR      r0,{pc}+0x1a2 ; 0x19cfc
        0x00019b5c:    f000f90a    ....    BL       am_util_stdio_printf ; 0x19d74
        0x00019b60:    990e        ..      LDR      r1,[sp,#0x38]
        0x00019b62:    a06b        k.      ADR      r0,{pc}+0x1ae ; 0x19d10
        0x00019b64:    f000f906    ....    BL       am_util_stdio_printf ; 0x19d74
        0x00019b68:    990d        ..      LDR      r1,[sp,#0x34]
        0x00019b6a:    a06e        n.      ADR      r0,{pc}+0x1ba ; 0x19d24
        0x00019b6c:    f000f902    ....    BL       am_util_stdio_printf ; 0x19d74
        0x00019b70:    990c        ..      LDR      r1,[sp,#0x30]
        0x00019b72:    a071        q.      ADR      r0,{pc}+0x1c6 ; 0x19d38
        0x00019b74:    f000f8fe    ....    BL       am_util_stdio_printf ; 0x19d74
        0x00019b78:    990b        ..      LDR      r1,[sp,#0x2c]
        0x00019b7a:    a074        t.      ADR      r0,{pc}+0x1d2 ; 0x19d4c
        0x00019b7c:    f000f8fa    ....    BL       am_util_stdio_printf ; 0x19d74
        0x00019b80:    990a        ..      LDR      r1,[sp,#0x28]
        0x00019b82:    a077        w.      ADR      r0,{pc}+0x1de ; 0x19d60
        0x00019b84:    f000f8f6    ....    BL       am_util_stdio_printf ; 0x19d74
        0x00019b88:    f64a60db    J..`    MOV      r0,#0xaedb
        0x00019b8c:    f2c00001    ....    MOVT     r0,#1
        0x00019b90:    f000f8f0    ....    BL       am_util_stdio_printf ; 0x19d74
        0x00019b94:    9909        ..      LDR      r1,[sp,#0x24]
        0x00019b96:    f24b00fc    K...    MOV      r0,#0xb0fc
        0x00019b9a:    f2c00001    ....    MOVT     r0,#1
        0x00019b9e:    f000f8e9    ....    BL       am_util_stdio_printf ; 0x19d74
        0x00019ba2:    9908        ..      LDR      r1,[sp,#0x20]
        0x00019ba4:    f24b00d4    K...    MOV      r0,#0xb0d4
        0x00019ba8:    f2c00001    ....    MOVT     r0,#1
        0x00019bac:    f000f8e2    ....    BL       am_util_stdio_printf ; 0x19d74
        0x00019bb0:    f89d101b    ....    LDRB     r1,[sp,#0x1b]
        0x00019bb4:    f24b0006    K...    MOV      r0,#0xb006
        0x00019bb8:    f2c00001    ....    MOVT     r0,#1
        0x00019bbc:    f000f8da    ....    BL       am_util_stdio_printf ; 0x19d74
        0x00019bc0:    f8bd1018    ....    LDRH     r1,[sp,#0x18]
        0x00019bc4:    f24b0035    K.5.    MOV      r0,#0xb035
        0x00019bc8:    f2c00001    ....    MOVT     r0,#1
        0x00019bcc:    f000f8d2    ....    BL       am_util_stdio_printf ; 0x19d74
        0x00019bd0:    f89d101a    ....    LDRB     r1,[sp,#0x1a]
        0x00019bd4:    f64a70dc    J..p    MOV      r0,#0xafdc
        0x00019bd8:    f2c00001    ....    MOVT     r0,#1
        0x00019bdc:    f000f8ca    ....    BL       am_util_stdio_printf ; 0x19d74
        0x00019be0:    f64a7510    J..u    MOV      r5,#0xaf10
        0x00019be4:    f64a7aa0    J..z    MOV      r10,#0xafa0
        0x00019be8:    f64a7768    J.hw    MOV      r7,#0xaf68
        0x00019bec:    f64a7b4d    J.M{    MOV      r11,#0xaf4d
        0x00019bf0:    f64a7885    J..x    MOV      r8,#0xaf85
        0x00019bf4:    f64a69f3    J..i    MOV      r9,#0xaef3
        0x00019bf8:    2480        .$      MOVS     r4,#0x80
        0x00019bfa:    f2c00501    ....    MOVT     r5,#1
        0x00019bfe:    f2c00a01    ....    MOVT     r10,#1
        0x00019c02:    f2c00701    ....    MOVT     r7,#1
        0x00019c06:    2600        .&      MOVS     r6,#0
        0x00019c08:    f2c00b01    ....    MOVT     r11,#1
        0x00019c0c:    f2c00801    ....    MOVT     r8,#1
        0x00019c10:    f2c00901    ....    MOVT     r9,#1
        0x00019c14:    f89d001a    ....    LDRB     r0,[sp,#0x1a]
        0x00019c18:    4020         @      ANDS     r0,r0,r4
        0x00019c1a:    b2c1        ..      UXTB     r1,r0
        0x00019c1c:    290f        .)      CMP      r1,#0xf
        0x00019c1e:    dc0d        ..      BGT      0x19c3c ; am_util_faultisr_collect_data + 480
        0x00019c20:    1e48        H.      SUBS     r0,r1,#1
        0x00019c22:    2807        .(      CMP      r0,#7
        0x00019c24:    d826        &.      BHI      0x19c74 ; am_util_faultisr_collect_data + 536
        0x00019c26:    e8dff000    ....    TBB      [pc,r0]
    $d.3
        0x00019c2a:    1804        ..      DCW    6148
        0x00019c2c:    25251d25    %.%%    DCD    623189285
        0x00019c30:    1f25        %.      DCW    7973
    $t.4
        0x00019c32:    f64a70c0    J..p    MOV      r0,#0xafc0
        0x00019c36:    f2c00001    ....    MOVT     r0,#1
        0x00019c3a:    e019        ..      B        0x19c70 ; am_util_faultisr_collect_data + 532
        0x00019c3c:    293f        ?)      CMP      r1,#0x3f
        0x00019c3e:    dc05        ..      BGT      0x19c4c ; am_util_faultisr_collect_data + 496
        0x00019c40:    2910        .)      CMP      r1,#0x10
        0x00019c42:    d013        ..      BEQ      0x19c6c ; am_util_faultisr_collect_data + 528
        0x00019c44:    2920         )      CMP      r1,#0x20
        0x00019c46:    d115        ..      BNE      0x19c74 ; am_util_faultisr_collect_data + 536
        0x00019c48:    4640        @F      MOV      r0,r8
        0x00019c4a:    e011        ..      B        0x19c70 ; am_util_faultisr_collect_data + 532
        0x00019c4c:    2980        .)      CMP      r1,#0x80
        0x00019c4e:    4628        (F      MOV      r0,r5
        0x00019c50:    d00e        ..      BEQ      0x19c70 ; am_util_faultisr_collect_data + 532
        0x00019c52:    2940        @)      CMP      r1,#0x40
        0x00019c54:    d10e        ..      BNE      0x19c74 ; am_util_faultisr_collect_data + 536
        0x00019c56:    4648        HF      MOV      r0,r9
        0x00019c58:    e00a        ..      B        0x19c70 ; am_util_faultisr_collect_data + 532
        0x00019c5a:    f64a702e    J..p    MOV      r0,#0xaf2e
        0x00019c5e:    f2c00001    ....    MOVT     r0,#1
        0x00019c62:    e005        ..      B        0x19c70 ; am_util_faultisr_collect_data + 532
        0x00019c64:    4650        PF      MOV      r0,r10
        0x00019c66:    e003        ..      B        0x19c70 ; am_util_faultisr_collect_data + 532
        0x00019c68:    4638        8F      MOV      r0,r7
        0x00019c6a:    e001        ..      B        0x19c70 ; am_util_faultisr_collect_data + 532
        0x00019c6c:    4658        XF      MOV      r0,r11
        0x00019c6e:    bf00        ..      NOP      
        0x00019c70:    f000f880    ....    BL       am_util_stdio_printf ; 0x19d74
        0x00019c74:    ebb60f54    ..T.    CMP      r6,r4,LSR #1
        0x00019c78:    ea4f0454    O.T.    LSR      r4,r4,#1
        0x00019c7c:    d1ca        ..      BNE      0x19c14 ; am_util_faultisr_collect_data + 440
        0x00019c7e:    f89d0000    ....    LDRB     r0,[sp,#0]
        0x00019c82:    b928        (.      CBNZ     r0,0x19c90 ; am_util_faultisr_collect_data + 564
        0x00019c84:    f89d0008    ....    LDRB     r0,[sp,#8]
        0x00019c88:    b910        ..      CBNZ     r0,0x19c90 ; am_util_faultisr_collect_data + 564
        0x00019c8a:    f89d0010    ....    LDRB     r0,[sp,#0x10]
        0x00019c8e:    b178        x.      CBZ      r0,0x19cb0 ; am_util_faultisr_collect_data + 596
        0x00019c90:    f64a60c9    J..`    MOV      r0,#0xaec9
        0x00019c94:    f2c00001    ....    MOVT     r0,#1
        0x00019c98:    f000f86c    ..l.    BL       am_util_stdio_printf ; 0x19d74
        0x00019c9c:    f89d0000    ....    LDRB     r0,[sp,#0]
        0x00019ca0:    b130        0.      CBZ      r0,0x19cb0 ; am_util_faultisr_collect_data + 596
        0x00019ca2:    9901        ..      LDR      r1,[sp,#4]
        0x00019ca4:    f24b0082    K...    MOV      r0,#0xb082
        0x00019ca8:    f2c00001    ....    MOVT     r0,#1
        0x00019cac:    f000f862    ..b.    BL       am_util_stdio_printf ; 0x19d74
        0x00019cb0:    f89d0008    ....    LDRB     r0,[sp,#8]
        0x00019cb4:    b130        0.      CBZ      r0,0x19cc4 ; am_util_faultisr_collect_data + 616
        0x00019cb6:    9903        ..      LDR      r1,[sp,#0xc]
        0x00019cb8:    f24b0061    K.a.    MOV      r0,#0xb061
        0x00019cbc:    f2c00001    ....    MOVT     r0,#1
        0x00019cc0:    f000f858    ..X.    BL       am_util_stdio_printf ; 0x19d74
        0x00019cc4:    f89d0010    ....    LDRB     r0,[sp,#0x10]
        0x00019cc8:    b130        0.      CBZ      r0,0x19cd8 ; am_util_faultisr_collect_data + 636
        0x00019cca:    9905        ..      LDR      r1,[sp,#0x14]
        0x00019ccc:    f24b00a3    K...    MOV      r0,#0xb0a3
        0x00019cd0:    f2c00001    ....    MOVT     r0,#1
        0x00019cd4:    f000f84e    ..N.    BL       am_util_stdio_printf ; 0x19d74
        0x00019cd8:    f64a6067    J.g`    MOV      r0,#0xae67
        0x00019cdc:    f2c00001    ....    MOVT     r0,#1
        0x00019ce0:    f000f848    ..H.    BL       am_util_stdio_printf ; 0x19d74
        0x00019ce4:    e7fe        ..      B        0x19ce4 ; am_util_faultisr_collect_data + 648
        0x00019ce6:    bf00        ..      NOP      
    $d.5
        0x00019ce8:    20202020            DCD    538976288
        0x00019cec:    20203152    R1      DCD    538980690
        0x00019cf0:    7830203d    = 0x    DCD    2016419901
        0x00019cf4:    58383025    %08X    DCD    1480077349
        0x00019cf8:    0000000a    ....    DCD    10
        0x00019cfc:    20202020            DCD    538976288
        0x00019d00:    20203252    R2      DCD    538980946
        0x00019d04:    7830203d    = 0x    DCD    2016419901
        0x00019d08:    58383025    %08X    DCD    1480077349
        0x00019d0c:    0000000a    ....    DCD    10
        0x00019d10:    20202020            DCD    538976288
        0x00019d14:    20203352    R3      DCD    538981202
        0x00019d18:    7830203d    = 0x    DCD    2016419901
        0x00019d1c:    58383025    %08X    DCD    1480077349
        0x00019d20:    0000000a    ....    DCD    10
        0x00019d24:    20202020            DCD    538976288
        0x00019d28:    20323152    R12     DCD    540160338
        0x00019d2c:    7830203d    = 0x    DCD    2016419901
        0x00019d30:    58383025    %08X    DCD    1480077349
        0x00019d34:    0000000a    ....    DCD    10
        0x00019d38:    20202020            DCD    538976288
        0x00019d3c:    2020524c    LR      DCD    538989132
        0x00019d40:    7830203d    = 0x    DCD    2016419901
        0x00019d44:    58383025    %08X    DCD    1480077349
        0x00019d48:    0000000a    ....    DCD    10
        0x00019d4c:    20202020            DCD    538976288
        0x00019d50:    20204350    PC      DCD    538985296
        0x00019d54:    7830203d    = 0x    DCD    2016419901
        0x00019d58:    58383025    %08X    DCD    1480077349
        0x00019d5c:    0000000a    ....    DCD    10
        0x00019d60:    20202020            DCD    538976288
        0x00019d64:    20525350    PSR     DCD    542266192
        0x00019d68:    7830203d    = 0x    DCD    2016419901
        0x00019d6c:    58383025    %08X    DCD    1480077349
        0x00019d70:    00000a0a    ....    DCD    2570
    $t.9
    am_util_stdio_printf
        0x00019d74:    b083        ..      SUB      sp,sp,#0xc
        0x00019d76:    b5b0        ..      PUSH     {r4,r5,r7,lr}
        0x00019d78:    b081        ..      SUB      sp,sp,#4
        0x00019d7a:    f10d0c14    ....    ADD      r12,sp,#0x14
        0x00019d7e:    f24034e4    @..4    MOVW     r4,#0x3e4
        0x00019d82:    e88c000e    ....    STM      r12,{r1-r3}
        0x00019d86:    f2c10400    ....    MOVT     r4,#0x1000
        0x00019d8a:    6821        !h      LDR      r1,[r4,#0]
        0x00019d8c:    b171        q.      CBZ      r1,0x19dac ; am_util_stdio_printf + 56
        0x00019d8e:    f24035e8    @..5    MOVW     r5,#0x3e8
        0x00019d92:    f2c10500    ....    MOVT     r5,#0x1000
        0x00019d96:    4601        .F      MOV      r1,r0
        0x00019d98:    aa05        ..      ADD      r2,sp,#0x14
        0x00019d9a:    4628        (F      MOV      r0,r5
        0x00019d9c:    9200        ..      STR      r2,[sp,#0]
        0x00019d9e:    f000f821    ..!.    BL       am_util_stdio_vsprintf ; 0x19de4
        0x00019da2:    6821        !h      LDR      r1,[r4,#0]
        0x00019da4:    4604        .F      MOV      r4,r0
        0x00019da6:    4628        (F      MOV      r0,r5
        0x00019da8:    4788        .G      BLX      r1
        0x00019daa:    e000        ..      B        0x19dae ; am_util_stdio_printf + 58
        0x00019dac:    2400        .$      MOVS     r4,#0
        0x00019dae:    4620         F      MOV      r0,r4
        0x00019db0:    b001        ..      ADD      sp,sp,#4
        0x00019db2:    e8bd40b0    ...@    POP      {r4,r5,r7,lr}
        0x00019db6:    b003        ..      ADD      sp,sp,#0xc
        0x00019db8:    4770        pG      BX       lr
    am_util_stdio_printf_init
        0x00019dba:    f24031e4    @..1    MOVW     r1,#0x3e4
        0x00019dbe:    f2c10100    ....    MOVT     r1,#0x1000
        0x00019dc2:    6008        .`      STR      r0,[r1,#0]
        0x00019dc4:    4770        pG      BX       lr
        0x00019dc6:    0000        ..      MOVS     r0,r0
    am_util_stdio_terminal_clear
        0x00019dc8:    a001        ..      ADR      r0,{pc}+8 ; 0x19dd0
        0x00019dca:    f7ffbfd3    ....    B.W      am_util_stdio_printf ; 0x19d74
        0x00019dce:    bf00        ..      NOP      
    $d.14
        0x00019dd0:    0a0a0a0a    ....    DCD    168430090
        0x00019dd4:    0a0a0a0a    ....    DCD    168430090
        0x00019dd8:    0a0a0a0a    ....    DCD    168430090
        0x00019ddc:    0a0a0a0a    ....    DCD    168430090
        0x00019de0:    00000a0a    ....    DCD    2570
    $t.3
    am_util_stdio_vsprintf
        0x00019de4:    e92d4ff0    -..O    PUSH     {r4-r11,lr}
        0x00019de8:    b08b        ..      SUB      sp,sp,#0x2c
        0x00019dea:    4683        .F      MOV      r11,r0
        0x00019dec:    a806        ..      ADD      r0,sp,#0x18
        0x00019dee:    f24038d9    @..8    MOV      r8,#0x3d9
        0x00019df2:    4617        .F      MOV      r7,r2
        0x00019df4:    1e46        F.      SUBS     r6,r0,#1
        0x00019df6:    f10d0914    ....    ADD      r9,sp,#0x14
        0x00019dfa:    f2c10800    ....    MOVT     r8,#0x1000
        0x00019dfe:    240d        .$      MOVS     r4,#0xd
        0x00019e00:    2500        .%      MOVS     r5,#0
        0x00019e02:    1c48        H.      ADDS     r0,r1,#1
        0x00019e04:    f8101c01    ....    LDRB     r1,[r0,#-1]
        0x00019e08:    2900        .)      CMP      r1,#0
        0x00019e0a:    f000836b    ..k.    BEQ.W    0x1a4e4 ; am_util_stdio_vsprintf + 1792
        0x00019e0e:    2925        %)      CMP      r1,#0x25
        0x00019e10:    d016        ..      BEQ      0x19e40 ; am_util_stdio_vsprintf + 92
        0x00019e12:    f1bb0f00    ....    CMP      r11,#0
        0x00019e16:    d00d        ..      BEQ      0x19e34 ; am_util_stdio_vsprintf + 80
        0x00019e18:    290a        .)      CMP      r1,#0xa
        0x00019e1a:    d107        ..      BNE      0x19e2c ; am_util_stdio_vsprintf + 72
        0x00019e1c:    f8982000    ...     LDRB     r2,[r8,#0]
        0x00019e20:    b122        ".      CBZ      r2,0x19e2c ; am_util_stdio_vsprintf + 72
        0x00019e22:    f80b4b01    ...K    STRB     r4,[r11],#1
        0x00019e26:    f8101c01    ....    LDRB     r1,[r0,#-1]
        0x00019e2a:    3501        .5      ADDS     r5,#1
        0x00019e2c:    f80b1b01    ....    STRB     r1,[r11],#1
        0x00019e30:    e002        ..      B        0x19e38 ; am_util_stdio_vsprintf + 84
        0x00019e32:    bf00        ..      NOP      
        0x00019e34:    f04f0b00    O...    MOV      r11,#0
        0x00019e38:    3501        .5      ADDS     r5,#1
        0x00019e3a:    3001        .0      ADDS     r0,#1
        0x00019e3c:    e7e2        ..      B        0x19e04 ; am_util_stdio_vsprintf + 32
        0x00019e3e:    bf00        ..      NOP      
        0x00019e40:    4604        .F      MOV      r4,r0
        0x00019e42:    f814ab01    ....    LDRB     r10,[r4],#1
        0x00019e46:    9604        ..      STR      r6,[sp,#0x10]
        0x00019e48:    46d0        .F      MOV      r8,r10
        0x00019e4a:    f1ba0f30    ..0.    CMP      r10,#0x30
        0x00019e4e:    bf1c        ..      ITT      NE
        0x00019e50:    4604        .F      MOVNE    r4,r0
        0x00019e52:    f04f0820    O. .    MOVNE    r8,#0x20
        0x00019e56:    4620         F      MOV      r0,r4
        0x00019e58:    4649        IF      MOV      r1,r9
        0x00019e5a:    f000fbe9    ....    BL       decstr_to_int ; 0x1a630
        0x00019e5e:    9a05        ..      LDR      r2,[sp,#0x14]
        0x00019e60:    4649        IF      MOV      r1,r9
        0x00019e62:    5ca6        .\      LDRB     r6,[r4,r2]
        0x00019e64:    4681        .F      MOV      r9,r0
        0x00019e66:    2e73        s.      CMP      r6,#0x73
        0x00019e68:    bf18        ..      IT       NE
        0x00019e6a:    f1c90900    ....    RSBNE    r9,r9,#0
        0x00019e6e:    2800        .(      CMP      r0,#0
        0x00019e70:    bf58        X.      IT       PL
        0x00019e72:    4681        .F      MOVPL    r9,r0
        0x00019e74:    2e2e        ..      CMP      r6,#0x2e
        0x00019e76:    eb040c02    ....    ADD      r12,r4,r2
        0x00019e7a:    d10b        ..      BNE      0x19e94 ; am_util_stdio_vsprintf + 176
        0x00019e7c:    463c        <F      MOV      r4,r7
        0x00019e7e:    f10c0701    ....    ADD      r7,r12,#1
        0x00019e82:    4638        8F      MOV      r0,r7
        0x00019e84:    f000fbd4    ....    BL       decstr_to_int ; 0x1a630
        0x00019e88:    9a05        ..      LDR      r2,[sp,#0x14]
        0x00019e8a:    5cbe        .\      LDRB     r6,[r7,r2]
        0x00019e8c:    eb070c02    ....    ADD      r12,r7,r2
        0x00019e90:    4627        'F      MOV      r7,r4
        0x00019e92:    e000        ..      B        0x19e96 ; am_util_stdio_vsprintf + 178
        0x00019e94:    2006        .       MOVS     r0,#6
        0x00019e96:    2e6c        l.      CMP      r6,#0x6c
        0x00019e98:    d112        ..      BNE      0x19ec0 ; am_util_stdio_vsprintf + 220
        0x00019e9a:    4663        cF      MOV      r3,r12
        0x00019e9c:    f8131f01    ....    LDRB     r1,[r3,#1]!
        0x00019ea0:    396c        l9      SUBS     r1,r1,#0x6c
        0x00019ea2:    fab1f181    ....    CLZ      r1,r1
        0x00019ea6:    ea4f1251    O.Q.    LSR      r2,r1,#5
        0x00019eaa:    f04f0101    O...    MOV      r1,#1
        0x00019eae:    bf04        ..      ITT      EQ
        0x00019eb0:    2102        .!      MOVEQ    r1,#2
        0x00019eb2:    f10c0302    ....    ADDEQ    r3,r12,#2
        0x00019eb6:    f81c6001    ...`    LDRB     r6,[r12,r1]
        0x00019eba:    469c        .F      MOV      r12,r3
        0x00019ebc:    e001        ..      B        0x19ec2 ; am_util_stdio_vsprintf + 222
        0x00019ebe:    bf00        ..      NOP      
        0x00019ec0:    2200        ."      MOVS     r2,#0
        0x00019ec2:    2e72        r.      CMP      r6,#0x72
        0x00019ec4:    dc13        ..      BGT      0x19eee ; am_util_stdio_vsprintf + 266
        0x00019ec6:    f1a60163    ..c.    SUB      r1,r6,#0x63
        0x00019eca:    2906        .)      CMP      r1,#6
        0x00019ecc:    d81c        ..      BHI      0x19f08 ; am_util_stdio_vsprintf + 292
        0x00019ece:    e8dff001    ....    TBB      [pc,r1]
    $d.4
        0x00019ed2:    0480        ..      DCW    1152
        0x00019ed4:    70702f70    p/pp    DCD    1886400368
        0x00019ed8:    0004        ..      DCW    4
    $t.5
        0x00019eda:    2a00        .*      CMP      r2,#0
        0x00019edc:    f000808c    ....    BEQ.W    0x19ff8 ; am_util_stdio_vsprintf + 532
        0x00019ee0:    1df8        ..      ADDS     r0,r7,#7
        0x00019ee2:    f0200707     ...    BIC      r7,r0,#7
        0x00019ee6:    687c        |h      LDR      r4,[r7,#4]
        0x00019ee8:    f8570b08    W...    LDR      r0,[r7],#8
        0x00019eec:    e087        ..      B        0x19ffe ; am_util_stdio_vsprintf + 538
        0x00019eee:    2e73        s.      CMP      r6,#0x73
        0x00019ef0:    f00080a2    ....    BEQ.W    0x1a038 ; am_util_stdio_vsprintf + 596
        0x00019ef4:    2e75        u.      CMP      r6,#0x75
        0x00019ef6:    f00080b5    ....    BEQ.W    0x1a064 ; am_util_stdio_vsprintf + 640
        0x00019efa:    2e78        x.      CMP      r6,#0x78
        0x00019efc:    d159        Y.      BNE      0x19fb2 ; am_util_stdio_vsprintf + 462
        0x00019efe:    f8cdc00c    ....    STR      r12,[sp,#0xc]
        0x00019f02:    f04f0c27    O.'.    MOV      r12,#0x27
        0x00019f06:    e007        ..      B        0x19f18 ; am_util_stdio_vsprintf + 308
        0x00019f08:    2e46        F.      CMP      r6,#0x46
        0x00019f0a:    d011        ..      BEQ      0x19f30 ; am_util_stdio_vsprintf + 332
        0x00019f0c:    2e58        X.      CMP      r6,#0x58
        0x00019f0e:    d150        P.      BNE      0x19fb2 ; am_util_stdio_vsprintf + 462
        0x00019f10:    f8cdc00c    ....    STR      r12,[sp,#0xc]
        0x00019f14:    f04f0c07    O...    MOV      r12,#7
        0x00019f18:    f8dde010    ....    LDR      lr,[sp,#0x10]
        0x00019f1c:    2a00        .*      CMP      r2,#0
        0x00019f1e:    f00080ab    ....    BEQ.W    0x1a078 ; am_util_stdio_vsprintf + 660
        0x00019f22:    1df9        ..      ADDS     r1,r7,#7
        0x00019f24:    f0210707    !...    BIC      r7,r1,#7
        0x00019f28:    687c        |h      LDR      r4,[r7,#4]
        0x00019f2a:    f8571b08    W...    LDR      r1,[r7],#8
        0x00019f2e:    e0a6        ..      B        0x1a07e ; am_util_stdio_vsprintf + 666
        0x00019f30:    f1bb0f00    ....    CMP      r11,#0
        0x00019f34:    f00080c4    ....    BEQ.W    0x1a0c0 ; am_util_stdio_vsprintf + 732
        0x00019f38:    4604        .F      MOV      r4,r0
        0x00019f3a:    1df8        ..      ADDS     r0,r7,#7
        0x00019f3c:    f0200807     ...    BIC      r8,r0,#7
        0x00019f40:    ed980b00    ....    VLDR     d0,[r8,#0]
        0x00019f44:    46e1        .F      MOV      r9,r12
        0x00019f46:    ec510b10    Q...    VMOV     r0,r1,d0
        0x00019f4a:    f000fda3    ....    BL       __aeabi_d2f ; 0x1aa94
        0x00019f4e:    2114        .!      MOVS     r1,#0x14
        0x00019f50:    f8cb1000    ....    STR      r1,[r11,#0]
        0x00019f54:    f6426123    B.#a    MOV      r1,#0x2e23
        0x00019f58:    ee000a10    ....    VMOV     s0,r0
        0x00019f5c:    f2c00123    ..#.    MOVT     r1,#0x23
        0x00019f60:    f1011e0d    ....    ADD      lr,r1,#0xd000d
        0x00019f64:    eeb50a40    ..@.    VCMP.F32 s0,#0.0
        0x00019f68:    f64f76fe    O..v    MOV      r6,#0xfffe
        0x00019f6c:    46cc        .F      MOV      r12,r9
        0x00019f6e:    eef1fa10    ....    VMRS     APSR_nzcv,FPSCR
        0x00019f72:    4671        qF      MOV      r1,lr
        0x00019f74:    f2c006ff    ....    MOVT     r6,#0xff
        0x00019f78:    f000829f    ....    BEQ.W    0x1a4ba ; am_util_stdio_vsprintf + 1750
        0x00019f7c:    f3c052c7    ...R    UBFX     r2,r0,#23,#8
        0x00019f80:    f6426123    B.#a    MOV      r1,#0x2e23
        0x00019f84:    2a9d        .*      CMP      r2,#0x9d
        0x00019f86:    f2c00123    ..#.    MOVT     r1,#0x23
        0x00019f8a:    f2008296    ....    BHI.W    0x1a4ba ; am_util_stdio_vsprintf + 1750
        0x00019f8e:    2a68        h*      CMP      r2,#0x68
        0x00019f90:    4671        qF      MOV      r1,lr
        0x00019f92:    f0c08292    ....    BCC.W    0x1a4ba ; am_util_stdio_vsprintf + 1750
        0x00019f96:    4603        .F      MOV      r3,r0
        0x00019f98:    2101        .!      MOVS     r1,#1
        0x00019f9a:    2a96        .*      CMP      r2,#0x96
        0x00019f9c:    f36153df    a..S    BFI      r3,r1,#23,#9
        0x00019fa0:    f0c08209    ....    BCC.W    0x1a3b6 ; am_util_stdio_vsprintf + 1490
        0x00019fa4:    f1a20196    ....    SUB      r1,r2,#0x96
        0x00019fa8:    fa03f101    ....    LSL      r1,r3,r1
        0x00019fac:    f04f0a00    O...    MOV      r10,#0
        0x00019fb0:    e212        ..      B        0x1a3d8 ; am_util_stdio_vsprintf + 1524
        0x00019fb2:    f1bb0f00    ....    CMP      r11,#0
        0x00019fb6:    bf14        ..      ITE      NE
        0x00019fb8:    f80b6b01    ...k    STRBNE   r6,[r11],#1
        0x00019fbc:    f04f0b00    O...    MOVEQ    r11,#0
        0x00019fc0:    f24038d9    @..8    MOV      r8,#0x3d9
        0x00019fc4:    9e04        ..      LDR      r6,[sp,#0x10]
        0x00019fc6:    f10d0914    ....    ADD      r9,sp,#0x14
        0x00019fca:    f2c10800    ....    MOVT     r8,#0x1000
        0x00019fce:    240d        .$      MOVS     r4,#0xd
        0x00019fd0:    e010        ..      B        0x19ff4 ; am_util_stdio_vsprintf + 528
        0x00019fd2:    f1bb0f00    ....    CMP      r11,#0
        0x00019fd6:    bf1a        ..      ITTE     NE
        0x00019fd8:    6838        8h      LDRNE    r0,[r7,#0]
        0x00019fda:    f80b0b01    ....    STRBNE   r0,[r11],#1
        0x00019fde:    f04f0b00    O...    MOVEQ    r11,#0
        0x00019fe2:    f24038d9    @..8    MOV      r8,#0x3d9
        0x00019fe6:    9e04        ..      LDR      r6,[sp,#0x10]
        0x00019fe8:    f10d0914    ....    ADD      r9,sp,#0x14
        0x00019fec:    f2c10800    ....    MOVT     r8,#0x1000
        0x00019ff0:    240d        .$      MOVS     r4,#0xd
        0x00019ff2:    3704        .7      ADDS     r7,#4
        0x00019ff4:    3501        .5      ADDS     r5,#1
        0x00019ff6:    e26f        o.      B        0x1a4d8 ; am_util_stdio_vsprintf + 1780
        0x00019ff8:    f8570b04    W...    LDR      r0,[r7],#4
        0x00019ffc:    17c4        ..      ASRS     r4,r0,#31
        0x00019ffe:    eb1070e4    ...p    ADDS     r0,r0,r4,ASR #31
        0x0001a002:    9e04        ..      LDR      r6,[sp,#0x10]
        0x0001a004:    ea807ee4    ...~    EOR      lr,r0,r4,ASR #31
        0x0001a008:    eb4470e4    D..p    ADC      r0,r4,r4,ASR #31
        0x0001a00c:    f1b90f00    ....    CMP      r9,#0
        0x0001a010:    ea8071e4    ...q    EOR      r1,r0,r4,ASR #31
        0x0001a014:    e9cdc703    ....    STRD     r12,r7,[sp,#0xc]
        0x0001a018:    d046        F.      BEQ      0x1a0a8 ; am_util_stdio_vsprintf + 708
        0x0001a01a:    ea5e0001    ^...    ORRS     r0,lr,r1
        0x0001a01e:    e9cd1e01    ....    STRD     r1,lr,[sp,#4]
        0x0001a022:    d07b        {.      BEQ      0x1a11c ; am_util_stdio_vsprintf + 824
        0x0001a024:    2700        .'      MOVS     r7,#0
        0x0001a026:    4670        pF      MOV      r0,lr
        0x0001a028:    f000fb2e    ....    BL       divu64_10 ; 0x1a688
        0x0001a02c:    ea500201    P...    ORRS     r2,r0,r1
        0x0001a030:    f1070701    ....    ADD      r7,r7,#1
        0x0001a034:    d1f8        ..      BNE      0x1a028 ; am_util_stdio_vsprintf + 580
        0x0001a036:    e072        r.      B        0x1a11e ; am_util_stdio_vsprintf + 826
        0x0001a038:    f8571b04    W...    LDR      r1,[r7],#4
        0x0001a03c:    2900        .)      CMP      r1,#0
        0x0001a03e:    f0008109    ....    BEQ.W    0x1a254 ; am_util_stdio_vsprintf + 1136
        0x0001a042:    7808        .x      LDRB     r0,[r1,#0]
        0x0001a044:    9e04        ..      LDR      r6,[sp,#0x10]
        0x0001a046:    2800        .(      CMP      r0,#0
        0x0001a048:    f04f040d    O...    MOV      r4,#0xd
        0x0001a04c:    46be        .F      MOV      lr,r7
        0x0001a04e:    f000812b    ..+.    BEQ.W    0x1a2a8 ; am_util_stdio_vsprintf + 1220
        0x0001a052:    1c4a        J.      ADDS     r2,r1,#1
        0x0001a054:    2300        .#      MOVS     r3,#0
        0x0001a056:    bf00        ..      NOP      
        0x0001a058:    5cd7        .\      LDRB     r7,[r2,r3]
        0x0001a05a:    1c58        X.      ADDS     r0,r3,#1
        0x0001a05c:    2f00        ./      CMP      r7,#0
        0x0001a05e:    4603        .F      MOV      r3,r0
        0x0001a060:    d1fa        ..      BNE      0x1a058 ; am_util_stdio_vsprintf + 628
        0x0001a062:    e122        ".      B        0x1a2aa ; am_util_stdio_vsprintf + 1222
        0x0001a064:    2a00        .*      CMP      r2,#0
        0x0001a066:    d03d        =.      BEQ      0x1a0e4 ; am_util_stdio_vsprintf + 768
        0x0001a068:    1df8        ..      ADDS     r0,r7,#7
        0x0001a06a:    f0200707     ...    BIC      r7,r0,#7
        0x0001a06e:    f8d7a004    ....    LDR      r10,[r7,#4]
        0x0001a072:    f8574b08    W..K    LDR      r4,[r7],#8
        0x0001a076:    e039        9.      B        0x1a0ec ; am_util_stdio_vsprintf + 776
        0x0001a078:    f8571b04    W...    LDR      r1,[r7],#4
        0x0001a07c:    2400        .$      MOVS     r4,#0
        0x0001a07e:    f1b90f00    ....    CMP      r9,#0
        0x0001a082:    d027        '.      BEQ      0x1a0d4 ; am_util_stdio_vsprintf + 752
        0x0001a084:    46ba        .F      MOV      r10,r7
        0x0001a086:    ea510204    Q...    ORRS     r2,r1,r4
        0x0001a08a:    f000808d    ....    BEQ.W    0x1a1a8 ; am_util_stdio_vsprintf + 964
        0x0001a08e:    2700        .'      MOVS     r7,#0
        0x0001a090:    460b        .F      MOV      r3,r1
        0x0001a092:    4622        "F      MOV      r2,r4
        0x0001a094:    091b        ..      LSRS     r3,r3,#4
        0x0001a096:    ea437302    C..s    ORR      r3,r3,r2,LSL #28
        0x0001a09a:    ea431612    C...    ORR      r6,r3,r2,LSR #4
        0x0001a09e:    0912        ..      LSRS     r2,r2,#4
        0x0001a0a0:    3701        .7      ADDS     r7,#1
        0x0001a0a2:    2e00        ..      CMP      r6,#0
        0x0001a0a4:    d1f6        ..      BNE      0x1a094 ; am_util_stdio_vsprintf + 688
        0x0001a0a6:    e080        ..      B        0x1a1aa ; am_util_stdio_vsprintf + 966
        0x0001a0a8:    f1b43fff    ...?    CMP      r4,#0xffffffff
        0x0001a0ac:    f34080de    @...    BLE.W    0x1a26c ; am_util_stdio_vsprintf + 1160
        0x0001a0b0:    f24038d9    @..8    MOV      r8,#0x3d9
        0x0001a0b4:    465f        _F      MOV      r7,r11
        0x0001a0b6:    f10d0914    ....    ADD      r9,sp,#0x14
        0x0001a0ba:    f2c10800    ....    MOVT     r8,#0x1000
        0x0001a0be:    e071        q.      B        0x1a1a4 ; am_util_stdio_vsprintf + 960
        0x0001a0c0:    f24038d9    @..8    MOV      r8,#0x3d9
        0x0001a0c4:    9e04        ..      LDR      r6,[sp,#0x10]
        0x0001a0c6:    f04f0b00    O...    MOV      r11,#0
        0x0001a0ca:    f10d0914    ....    ADD      r9,sp,#0x14
        0x0001a0ce:    f2c10800    ....    MOVT     r8,#0x1000
        0x0001a0d2:    e12e        ..      B        0x1a332 ; am_util_stdio_vsprintf + 1358
        0x0001a0d4:    f24038d9    @..8    MOV      r8,#0x3d9
        0x0001a0d8:    a806        ..      ADD      r0,sp,#0x18
        0x0001a0da:    f10d0914    ....    ADD      r9,sp,#0x14
        0x0001a0de:    f2c10800    ....    MOVT     r8,#0x1000
        0x0001a0e2:    e081        ..      B        0x1a1e8 ; am_util_stdio_vsprintf + 1028
        0x0001a0e4:    f8574b04    W..K    LDR      r4,[r7],#4
        0x0001a0e8:    f04f0a00    O...    MOV      r10,#0
        0x0001a0ec:    9e04        ..      LDR      r6,[sp,#0x10]
        0x0001a0ee:    f1b90f00    ....    CMP      r9,#0
        0x0001a0f2:    f8cdc00c    ....    STR      r12,[sp,#0xc]
        0x0001a0f6:    f00080b2    ....    BEQ.W    0x1a25e ; am_util_stdio_vsprintf + 1146
        0x0001a0fa:    ea54000a    T...    ORRS     r0,r4,r10
        0x0001a0fe:    9704        ..      STR      r7,[sp,#0x10]
        0x0001a100:    f00080e8    ....    BEQ.W    0x1a2d4 ; am_util_stdio_vsprintf + 1264
        0x0001a104:    2700        .'      MOVS     r7,#0
        0x0001a106:    4620         F      MOV      r0,r4
        0x0001a108:    4651        QF      MOV      r1,r10
        0x0001a10a:    bf00        ..      NOP      
        0x0001a10c:    f000fabc    ....    BL       divu64_10 ; 0x1a688
        0x0001a110:    ea500201    P...    ORRS     r2,r0,r1
        0x0001a114:    f1070701    ....    ADD      r7,r7,#1
        0x0001a118:    d1f8        ..      BNE      0x1a10c ; am_util_stdio_vsprintf + 808
        0x0001a11a:    e0dc        ..      B        0x1a2d6 ; am_util_stdio_vsprintf + 1266
        0x0001a11c:    2701        .'      MOVS     r7,#1
        0x0001a11e:    f1b43fff    ...?    CMP      r4,#0xffffffff
        0x0001a122:    eba90307    ....    SUB      r3,r9,r7
        0x0001a126:    dd02        ..      BLE      0x1a12e ; am_util_stdio_vsprintf + 842
        0x0001a128:    f10d0914    ....    ADD      r9,sp,#0x14
        0x0001a12c:    e012        ..      B        0x1a154 ; am_util_stdio_vsprintf + 880
        0x0001a12e:    f1ba0f30    ..0.    CMP      r10,#0x30
        0x0001a132:    f1a30301    ....    SUB      r3,r3,#1
        0x0001a136:    f10d0914    ....    ADD      r9,sp,#0x14
        0x0001a13a:    d10b        ..      BNE      0x1a154 ; am_util_stdio_vsprintf + 880
        0x0001a13c:    f1bb0f00    ....    CMP      r11,#0
        0x0001a140:    bf1a        ..      ITTE     NE
        0x0001a142:    212d        -!      MOVNE    r1,#0x2d
        0x0001a144:    f80b1b01    ....    STRBNE   r1,[r11],#1
        0x0001a148:    f04f0b00    O...    MOVEQ    r11,#0
        0x0001a14c:    e9dd1e01    ....    LDRD     r1,lr,[sp,#4]
        0x0001a150:    3501        .5      ADDS     r5,#1
        0x0001a152:    e001        ..      B        0x1a158 ; am_util_stdio_vsprintf + 884
        0x0001a154:    e9dd1e01    ....    LDRD     r1,lr,[sp,#4]
        0x0001a158:    2b01        .+      CMP      r3,#1
        0x0001a15a:    db09        ..      BLT      0x1a170 ; am_util_stdio_vsprintf + 908
        0x0001a15c:    4618        .F      MOV      r0,r3
        0x0001a15e:    465a        ZF      MOV      r2,r11
        0x0001a160:    2a00        .*      CMP      r2,#0
        0x0001a162:    bf14        ..      ITE      NE
        0x0001a164:    f8028b01    ....    STRBNE   r8,[r2],#1
        0x0001a168:    2200        ."      MOVEQ    r2,#0
        0x0001a16a:    3801        .8      SUBS     r0,#1
        0x0001a16c:    d1f8        ..      BNE      0x1a160 ; am_util_stdio_vsprintf + 892
        0x0001a16e:    e000        ..      B        0x1a172 ; am_util_stdio_vsprintf + 910
        0x0001a170:    2300        .#      MOVS     r3,#0
        0x0001a172:    f1bb0f00    ....    CMP      r11,#0
        0x0001a176:    465f        _F      MOV      r7,r11
        0x0001a178:    f24038d9    @..8    MOV      r8,#0x3d9
        0x0001a17c:    bf18        ..      IT       NE
        0x0001a17e:    441f        .D      ADDNE    r7,r3
        0x0001a180:    f1ba0f30    ..0.    CMP      r10,#0x30
        0x0001a184:    441d        .D      ADD      r5,r5,r3
        0x0001a186:    f2c10800    ....    MOVT     r8,#0x1000
        0x0001a18a:    d00b        ..      BEQ      0x1a1a4 ; am_util_stdio_vsprintf + 960
        0x0001a18c:    f1b43fff    ...?    CMP      r4,#0xffffffff
        0x0001a190:    dc08        ..      BGT      0x1a1a4 ; am_util_stdio_vsprintf + 960
        0x0001a192:    f1bb0f00    ....    CMP      r11,#0
        0x0001a196:    f04f040d    O...    MOV      r4,#0xd
        0x0001a19a:    d077        w.      BEQ      0x1a28c ; am_util_stdio_vsprintf + 1192
        0x0001a19c:    202d        -       MOVS     r0,#0x2d
        0x0001a19e:    f8070b01    ....    STRB     r0,[r7],#1
        0x0001a1a2:    e074        t.      B        0x1a28e ; am_util_stdio_vsprintf + 1194
        0x0001a1a4:    240d        .$      MOVS     r4,#0xd
        0x0001a1a6:    e073        s.      B        0x1a290 ; am_util_stdio_vsprintf + 1196
        0x0001a1a8:    2701        .'      MOVS     r7,#1
        0x0001a1aa:    eba90307    ....    SUB      r3,r9,r7
        0x0001a1ae:    2b01        .+      CMP      r3,#1
        0x0001a1b0:    db0c        ..      BLT      0x1a1cc ; am_util_stdio_vsprintf + 1000
        0x0001a1b2:    eba70709    ....    SUB      r7,r7,r9
        0x0001a1b6:    465e        ^F      MOV      r6,r11
        0x0001a1b8:    f10d0914    ....    ADD      r9,sp,#0x14
        0x0001a1bc:    2e00        ..      CMP      r6,#0
        0x0001a1be:    bf14        ..      ITE      NE
        0x0001a1c0:    f8068b01    ....    STRBNE   r8,[r6],#1
        0x0001a1c4:    2600        .&      MOVEQ    r6,#0
        0x0001a1c6:    3701        .7      ADDS     r7,#1
        0x0001a1c8:    d3f8        ..      BCC      0x1a1bc ; am_util_stdio_vsprintf + 984
        0x0001a1ca:    e002        ..      B        0x1a1d2 ; am_util_stdio_vsprintf + 1006
        0x0001a1cc:    2300        .#      MOVS     r3,#0
        0x0001a1ce:    f10d0914    ....    ADD      r9,sp,#0x14
        0x0001a1d2:    f24038d9    @..8    MOV      r8,#0x3d9
        0x0001a1d6:    441d        .D      ADD      r5,r5,r3
        0x0001a1d8:    a806        ..      ADD      r0,sp,#0x18
        0x0001a1da:    f2c10800    ....    MOVT     r8,#0x1000
        0x0001a1de:    4657        WF      MOV      r7,r10
        0x0001a1e0:    f1bb0f00    ....    CMP      r11,#0
        0x0001a1e4:    bf18        ..      IT       NE
        0x0001a1e6:    449b        .D      ADDNE    r11,r11,r3
        0x0001a1e8:    46ba        .F      MOV      r10,r7
        0x0001a1ea:    ea510204    Q...    ORRS     r2,r1,r4
        0x0001a1ee:    d015        ..      BEQ      0x1a21c ; am_util_stdio_vsprintf + 1080
        0x0001a1f0:    2300        .#      MOVS     r3,#0
        0x0001a1f2:    bf00        ..      NOP      
        0x0001a1f4:    f001020f    ....    AND      r2,r1,#0xf
        0x0001a1f8:    0909        ..      LSRS     r1,r1,#4
        0x0001a1fa:    ea417104    A..q    ORR      r1,r1,r4,LSL #28
        0x0001a1fe:    f1020630    ..0.    ADD      r6,r2,#0x30
        0x0001a202:    2a09        .*      CMP      r2,#9
        0x0001a204:    f1030701    ....    ADD      r7,r3,#1
        0x0001a208:    ea411214    A...    ORR      r2,r1,r4,LSR #4
        0x0001a20c:    bf88        ..      IT       HI
        0x0001a20e:    4466        fD      ADDHI    r6,r6,r12
        0x0001a210:    54c6        .T      STRB     r6,[r0,r3]
        0x0001a212:    0924        $.      LSRS     r4,r4,#4
        0x0001a214:    2a00        .*      CMP      r2,#0
        0x0001a216:    463b        ;F      MOV      r3,r7
        0x0001a218:    d1ec        ..      BNE      0x1a1f4 ; am_util_stdio_vsprintf + 1040
        0x0001a21a:    e003        ..      B        0x1a224 ; am_util_stdio_vsprintf + 1088
        0x0001a21c:    2030        0       MOVS     r0,#0x30
        0x0001a21e:    f88d0018    ....    STRB     r0,[sp,#0x18]
        0x0001a222:    2701        .'      MOVS     r7,#1
        0x0001a224:    f8ddc00c    ....    LDR      r12,[sp,#0xc]
        0x0001a228:    f1bb0f00    ....    CMP      r11,#0
        0x0001a22c:    4676        vF      MOV      r6,lr
        0x0001a22e:    f04f040d    O...    MOV      r4,#0xd
        0x0001a232:    d008        ..      BEQ      0x1a246 ; am_util_stdio_vsprintf + 1122
        0x0001a234:    4639        9F      MOV      r1,r7
        0x0001a236:    4658        XF      MOV      r0,r11
        0x0001a238:    5c72        r\      LDRB     r2,[r6,r1]
        0x0001a23a:    3901        .9      SUBS     r1,#1
        0x0001a23c:    f8002b01    ...+    STRB     r2,[r0],#1
        0x0001a240:    d1fa        ..      BNE      0x1a238 ; am_util_stdio_vsprintf + 1108
        0x0001a242:    2100        .!      MOVS     r1,#0
        0x0001a244:    7001        .p      STRB     r1,[r0,#0]
        0x0001a246:    f1bb0f00    ....    CMP      r11,#0
        0x0001a24a:    bf18        ..      IT       NE
        0x0001a24c:    44bb        .D      ADDNE    r11,r11,r7
        0x0001a24e:    443d        =D      ADD      r5,r5,r7
        0x0001a250:    4657        WF      MOV      r7,r10
        0x0001a252:    e141        A.      B        0x1a4d8 ; am_util_stdio_vsprintf + 1780
        0x0001a254:    9e04        ..      LDR      r6,[sp,#0x10]
        0x0001a256:    46be        .F      MOV      lr,r7
        0x0001a258:    2000        .       MOVS     r0,#0
        0x0001a25a:    240d        .$      MOVS     r4,#0xd
        0x0001a25c:    e025        %.      B        0x1a2aa ; am_util_stdio_vsprintf + 1222
        0x0001a25e:    f24038d9    @..8    MOV      r8,#0x3d9
        0x0001a262:    f10d0914    ....    ADD      r9,sp,#0x14
        0x0001a266:    f2c10800    ....    MOVT     r8,#0x1000
        0x0001a26a:    e056        V.      B        0x1a31a ; am_util_stdio_vsprintf + 1334
        0x0001a26c:    f24038d9    @..8    MOV      r8,#0x3d9
        0x0001a270:    f1bb0f00    ....    CMP      r11,#0
        0x0001a274:    f10d0914    ....    ADD      r9,sp,#0x14
        0x0001a278:    f2c10800    ....    MOVT     r8,#0x1000
        0x0001a27c:    f04f040d    O...    MOV      r4,#0xd
        0x0001a280:    d004        ..      BEQ      0x1a28c ; am_util_stdio_vsprintf + 1192
        0x0001a282:    202d        -       MOVS     r0,#0x2d
        0x0001a284:    f80b0b01    ....    STRB     r0,[r11],#1
        0x0001a288:    465f        _F      MOV      r7,r11
        0x0001a28a:    e000        ..      B        0x1a28e ; am_util_stdio_vsprintf + 1194
        0x0001a28c:    2700        .'      MOVS     r7,#0
        0x0001a28e:    3501        .5      ADDS     r5,#1
        0x0001a290:    4670        pF      MOV      r0,lr
        0x0001a292:    463a        :F      MOV      r2,r7
        0x0001a294:    f000fbd4    ....    BL       uint64_to_str ; 0x1aa40
        0x0001a298:    2f00        ./      CMP      r7,#0
        0x0001a29a:    bf18        ..      IT       NE
        0x0001a29c:    4407        .D      ADDNE    r7,r0
        0x0001a29e:    46bb        .F      MOV      r11,r7
        0x0001a2a0:    e9ddc703    ....    LDRD     r12,r7,[sp,#0xc]
        0x0001a2a4:    4405        .D      ADD      r5,r5,r0
        0x0001a2a6:    e117        ..      B        0x1a4d8 ; am_util_stdio_vsprintf + 1780
        0x0001a2a8:    2000        .       MOVS     r0,#0
        0x0001a2aa:    f1b90f01    ....    CMP      r9,#1
        0x0001a2ae:    db4a        J.      BLT      0x1a346 ; am_util_stdio_vsprintf + 1378
        0x0001a2b0:    4581        .E      CMP      r9,r0
        0x0001a2b2:    d948        H.      BLS      0x1a346 ; am_util_stdio_vsprintf + 1378
        0x0001a2b4:    eba90200    ....    SUB      r2,r9,r0
        0x0001a2b8:    2a01        .*      CMP      r2,#1
        0x0001a2ba:    db3c        <.      BLT      0x1a336 ; am_util_stdio_vsprintf + 1362
        0x0001a2bc:    eba00309    ....    SUB      r3,r0,r9
        0x0001a2c0:    465f        _F      MOV      r7,r11
        0x0001a2c2:    bf00        ..      NOP      
        0x0001a2c4:    2f00        ./      CMP      r7,#0
        0x0001a2c6:    bf14        ..      ITE      NE
        0x0001a2c8:    f8078b01    ....    STRBNE   r8,[r7],#1
        0x0001a2cc:    2700        .'      MOVEQ    r7,#0
        0x0001a2ce:    3301        .3      ADDS     r3,#1
        0x0001a2d0:    d3f8        ..      BCC      0x1a2c4 ; am_util_stdio_vsprintf + 1248
        0x0001a2d2:    e031        1.      B        0x1a338 ; am_util_stdio_vsprintf + 1364
        0x0001a2d4:    2701        .'      MOVS     r7,#1
        0x0001a2d6:    eba90007    ....    SUB      r0,r9,r7
        0x0001a2da:    2801        .(      CMP      r0,#1
        0x0001a2dc:    db10        ..      BLT      0x1a300 ; am_util_stdio_vsprintf + 1308
        0x0001a2de:    eba70109    ....    SUB      r1,r7,r9
        0x0001a2e2:    9f04        ..      LDR      r7,[sp,#0x10]
        0x0001a2e4:    465a        ZF      MOV      r2,r11
        0x0001a2e6:    f10d0914    ....    ADD      r9,sp,#0x14
        0x0001a2ea:    bf00        ..      NOP      
        0x0001a2ec:    2a00        .*      CMP      r2,#0
        0x0001a2ee:    bf14        ..      ITE      NE
        0x0001a2f0:    f8028b01    ....    STRBNE   r8,[r2],#1
        0x0001a2f4:    2200        ."      MOVEQ    r2,#0
        0x0001a2f6:    3101        .1      ADDS     r1,#1
        0x0001a2f8:    d3f8        ..      BCC      0x1a2ec ; am_util_stdio_vsprintf + 1288
        0x0001a2fa:    f24038d9    @..8    MOV      r8,#0x3d9
        0x0001a2fe:    e005        ..      B        0x1a30c ; am_util_stdio_vsprintf + 1320
        0x0001a300:    f24038d9    @..8    MOV      r8,#0x3d9
        0x0001a304:    9f04        ..      LDR      r7,[sp,#0x10]
        0x0001a306:    2000        .       MOVS     r0,#0
        0x0001a308:    f10d0914    ....    ADD      r9,sp,#0x14
        0x0001a30c:    f2c10800    ....    MOVT     r8,#0x1000
        0x0001a310:    4405        .D      ADD      r5,r5,r0
        0x0001a312:    f1bb0f00    ....    CMP      r11,#0
        0x0001a316:    bf18        ..      IT       NE
        0x0001a318:    4483        .D      ADDNE    r11,r11,r0
        0x0001a31a:    4620         F      MOV      r0,r4
        0x0001a31c:    4651        QF      MOV      r1,r10
        0x0001a31e:    465a        ZF      MOV      r2,r11
        0x0001a320:    f000fb8e    ....    BL       uint64_to_str ; 0x1aa40
        0x0001a324:    f1bb0f00    ....    CMP      r11,#0
        0x0001a328:    bf18        ..      IT       NE
        0x0001a32a:    4483        .D      ADDNE    r11,r11,r0
        0x0001a32c:    f8ddc00c    ....    LDR      r12,[sp,#0xc]
        0x0001a330:    4405        .D      ADD      r5,r5,r0
        0x0001a332:    240d        .$      MOVS     r4,#0xd
        0x0001a334:    e0d0        ..      B        0x1a4d8 ; am_util_stdio_vsprintf + 1780
        0x0001a336:    2200        ."      MOVS     r2,#0
        0x0001a338:    4415        .D      ADD      r5,r5,r2
        0x0001a33a:    f04f0900    O...    MOV      r9,#0
        0x0001a33e:    f1bb0f00    ....    CMP      r11,#0
        0x0001a342:    bf18        ..      IT       NE
        0x0001a344:    4493        .D      ADDNE    r11,r11,r2
        0x0001a346:    780a        .x      LDRB     r2,[r1,#0]
        0x0001a348:    b17a        z.      CBZ      r2,0x1a36a ; am_util_stdio_vsprintf + 1414
        0x0001a34a:    3101        .1      ADDS     r1,#1
        0x0001a34c:    4677        wF      MOV      r7,lr
        0x0001a34e:    bf00        ..      NOP      
        0x0001a350:    f1bb0f00    ....    CMP      r11,#0
        0x0001a354:    bf14        ..      ITE      NE
        0x0001a356:    f80b2b01    ...+    STRBNE   r2,[r11],#1
        0x0001a35a:    f04f0b00    O...    MOVEQ    r11,#0
        0x0001a35e:    f8112b01    ...+    LDRB     r2,[r1],#1
        0x0001a362:    3501        .5      ADDS     r5,#1
        0x0001a364:    2a00        .*      CMP      r2,#0
        0x0001a366:    d1f3        ..      BNE      0x1a350 ; am_util_stdio_vsprintf + 1388
        0x0001a368:    e000        ..      B        0x1a36c ; am_util_stdio_vsprintf + 1416
        0x0001a36a:    4677        wF      MOV      r7,lr
        0x0001a36c:    f1b90f00    ....    CMP      r9,#0
        0x0001a370:    f00080ac    ....    BEQ.W    0x1a4cc ; am_util_stdio_vsprintf + 1768
        0x0001a374:    f1c90100    ....    RSB      r1,r9,#0
        0x0001a378:    4288        .B      CMP      r0,r1
        0x0001a37a:    f08080a7    ....    BCS.W    0x1a4cc ; am_util_stdio_vsprintf + 1768
        0x0001a37e:    1a09        ..      SUBS     r1,r1,r0
        0x0001a380:    2901        .)      CMP      r1,#1
        0x0001a382:    db0b        ..      BLT      0x1a39c ; am_util_stdio_vsprintf + 1464
        0x0001a384:    4448        HD      ADD      r0,r0,r9
        0x0001a386:    465a        ZF      MOV      r2,r11
        0x0001a388:    f10d0914    ....    ADD      r9,sp,#0x14
        0x0001a38c:    2a00        .*      CMP      r2,#0
        0x0001a38e:    bf14        ..      ITE      NE
        0x0001a390:    f8028b01    ....    STRBNE   r8,[r2],#1
        0x0001a394:    2200        ."      MOVEQ    r2,#0
        0x0001a396:    3001        .0      ADDS     r0,#1
        0x0001a398:    d3f8        ..      BCC      0x1a38c ; am_util_stdio_vsprintf + 1448
        0x0001a39a:    e002        ..      B        0x1a3a2 ; am_util_stdio_vsprintf + 1470
        0x0001a39c:    2100        .!      MOVS     r1,#0
        0x0001a39e:    f10d0914    ....    ADD      r9,sp,#0x14
        0x0001a3a2:    f24038d9    @..8    MOV      r8,#0x3d9
        0x0001a3a6:    f2c10800    ....    MOVT     r8,#0x1000
        0x0001a3aa:    f1bb0f00    ....    CMP      r11,#0
        0x0001a3ae:    bf18        ..      IT       NE
        0x0001a3b0:    448b        .D      ADDNE    r11,r11,r1
        0x0001a3b2:    440d        .D      ADD      r5,r5,r1
        0x0001a3b4:    e090        ..      B        0x1a4d8 ; am_util_stdio_vsprintf + 1780
        0x0001a3b6:    2a7f        .*      CMP      r2,#0x7f
        0x0001a3b8:    d309        ..      BCC      0x1a3ce ; am_util_stdio_vsprintf + 1514
        0x0001a3ba:    f1c20196    ....    RSB      r1,r2,#0x96
        0x0001a3be:    3a7e        ~:      SUBS     r2,r2,#0x7e
        0x0001a3c0:    fa03f202    ....    LSL      r2,r3,r2
        0x0001a3c4:    fa23f101    #...    LSR      r1,r3,r1
        0x0001a3c8:    f0224a7f    "..J    BIC      r10,r2,#0xff000000
        0x0001a3cc:    e004        ..      B        0x1a3d8 ; am_util_stdio_vsprintf + 1524
        0x0001a3ce:    f1c2017e    ..~.    RSB      r1,r2,#0x7e
        0x0001a3d2:    fa23fa01    #...    LSR      r10,r3,r1
        0x0001a3d6:    2100        .!      MOVS     r1,#0
        0x0001a3d8:    f1b03fff    ...?    CMP      r0,#0xffffffff
        0x0001a3dc:    465f        _F      MOV      r7,r11
        0x0001a3de:    dc03        ..      BGT      0x1a3e8 ; am_util_stdio_vsprintf + 1540
        0x0001a3e0:    465f        _F      MOV      r7,r11
        0x0001a3e2:    202d        -       MOVS     r0,#0x2d
        0x0001a3e4:    f8070b01    ....    STRB     r0,[r7],#1
        0x0001a3e8:    b131        1.      CBZ      r1,0x1a3f8 ; am_util_stdio_vsprintf + 1556
        0x0001a3ea:    2901        .)      CMP      r1,#1
        0x0001a3ec:    f8cde008    ....    STR      lr,[sp,#8]
        0x0001a3f0:    db06        ..      BLT      0x1a400 ; am_util_stdio_vsprintf + 1564
        0x0001a3f2:    4608        .F      MOV      r0,r1
        0x0001a3f4:    2100        .!      MOVS     r1,#0
        0x0001a3f6:    e008        ..      B        0x1a40a ; am_util_stdio_vsprintf + 1574
        0x0001a3f8:    2130        0!      MOVS     r1,#0x30
        0x0001a3fa:    f8071b01    ....    STRB     r1,[r7],#1
        0x0001a3fe:    e011        ..      B        0x1a424 ; am_util_stdio_vsprintf + 1600
        0x0001a400:    202d        -       MOVS     r0,#0x2d
        0x0001a402:    f8070b01    ....    STRB     r0,[r7],#1
        0x0001a406:    4248        HB      RSBS     r0,r1,#0
        0x0001a408:    17c1        ..      ASRS     r1,r0,#31
        0x0001a40a:    463a        :F      MOV      r2,r7
        0x0001a40c:    f000fb18    ....    BL       uint64_to_str ; 0x1aa40
        0x0001a410:    f8dde008    ....    LDR      lr,[sp,#8]
        0x0001a414:    46cc        .F      MOV      r12,r9
        0x0001a416:    2130        0!      MOVS     r1,#0x30
        0x0001a418:    3f01        .?      SUBS     r7,#1
        0x0001a41a:    bf00        ..      NOP      
        0x0001a41c:    f8170f01    ....    LDRB     r0,[r7,#1]!
        0x0001a420:    2800        .(      CMP      r0,#0
        0x0001a422:    d1fb        ..      BNE      0x1a41c ; am_util_stdio_vsprintf + 1592
        0x0001a424:    4638        8F      MOV      r0,r7
        0x0001a426:    222e        ."      MOVS     r2,#0x2e
        0x0001a428:    f1ba0f00    ....    CMP      r10,#0
        0x0001a42c:    f8002b01    ...+    STRB     r2,[r0],#1
        0x0001a430:    d014        ..      BEQ      0x1a45c ; am_util_stdio_vsprintf + 1656
        0x0001a432:    ebab0100    ....    SUB      r1,r11,r0
        0x0001a436:    3113        .1      ADDS     r1,r1,#0x13
        0x0001a438:    42a1        .B      CMP      r1,r4
        0x0001a43a:    bfc8        ..      IT       GT
        0x0001a43c:    4621        !F      MOVGT    r1,r4
        0x0001a43e:    2901        .)      CMP      r1,#1
        0x0001a440:    db10        ..      BLT      0x1a464 ; am_util_stdio_vsprintf + 1664
        0x0001a442:    2730        0'      MOVS     r7,#0x30
        0x0001a444:    240d        .$      MOVS     r4,#0xd
        0x0001a446:    eb0a028a    ....    ADD      r2,r10,r10,LSL #2
        0x0001a44a:    eb0753d2    ...S    ADD      r3,r7,r2,LSR #23
        0x0001a44e:    f8003b01    ...;    STRB     r3,[r0],#1
        0x0001a452:    3901        .9      SUBS     r1,#1
        0x0001a454:    ea060a42    ..B.    AND      r10,r6,r2,LSL #1
        0x0001a458:    d1f5        ..      BNE      0x1a446 ; am_util_stdio_vsprintf + 1634
        0x0001a45a:    e004        ..      B        0x1a466 ; am_util_stdio_vsprintf + 1666
        0x0001a45c:    1cb8        ..      ADDS     r0,r7,#2
        0x0001a45e:    7079        yp      STRB     r1,[r7,#1]
        0x0001a460:    240d        .$      MOVS     r4,#0xd
        0x0001a462:    e015        ..      B        0x1a490 ; am_util_stdio_vsprintf + 1708
        0x0001a464:    240d        .$      MOVS     r4,#0xd
        0x0001a466:    1e41        A.      SUBS     r1,r0,#1
        0x0001a468:    4559        YE      CMP      r1,r11
        0x0001a46a:    d311        ..      BCC      0x1a490 ; am_util_stdio_vsprintf + 1708
        0x0001a46c:    eb0a028a    ....    ADD      r2,r10,r10,LSL #2
        0x0001a470:    0052        R.      LSLS     r2,r2,#1
        0x0001a472:    f1b26fa0    ...o    CMP      r2,#0x5000000
        0x0001a476:    db0b        ..      BLT      0x1a490 ; am_util_stdio_vsprintf + 1708
        0x0001a478:    9e04        ..      LDR      r6,[sp,#0x10]
        0x0001a47a:    780a        .x      LDRB     r2,[r1,#0]
        0x0001a47c:    2a2e        .*      CMP      r2,#0x2e
        0x0001a47e:    d003        ..      BEQ      0x1a488 ; am_util_stdio_vsprintf + 1700
        0x0001a480:    2a39        9*      CMP      r2,#0x39
        0x0001a482:    d12c        ,.      BNE      0x1a4de ; am_util_stdio_vsprintf + 1786
        0x0001a484:    2230        0"      MOVS     r2,#0x30
        0x0001a486:    700a        .p      STRB     r2,[r1,#0]
        0x0001a488:    3901        .9      SUBS     r1,#1
        0x0001a48a:    4559        YE      CMP      r1,r11
        0x0001a48c:    d2f5        ..      BCS      0x1a47a ; am_util_stdio_vsprintf + 1686
        0x0001a48e:    e000        ..      B        0x1a492 ; am_util_stdio_vsprintf + 1710
        0x0001a490:    9e04        ..      LDR      r6,[sp,#0x10]
        0x0001a492:    eba0010b    ....    SUB      r1,r0,r11
        0x0001a496:    f1b13fff    ...?    CMP      r1,#0xffffffff
        0x0001a49a:    f04f0200    O...    MOV      r2,#0
        0x0001a49e:    7002        .p      STRB     r2,[r0,#0]
        0x0001a4a0:    dc10        ..      BGT      0x1a4c4 ; am_util_stdio_vsprintf + 1760
        0x0001a4a2:    f6426223    B.#b    MOV      r2,#0x2e23
        0x0001a4a6:    1c48        H.      ADDS     r0,r1,#1
        0x0001a4a8:    f2c00223    ..#.    MOVT     r2,#0x23
        0x0001a4ac:    bf18        ..      IT       NE
        0x0001a4ae:    f1021e1c    ....    ADDNE    lr,r2,#0x1c001c
        0x0001a4b2:    1c88        ..      ADDS     r0,r1,#2
        0x0001a4b4:    bf08        ..      IT       EQ
        0x0001a4b6:    4696        .F      MOVEQ    lr,r2
        0x0001a4b8:    4671        qF      MOV      r1,lr
        0x0001a4ba:    9e04        ..      LDR      r6,[sp,#0x10]
        0x0001a4bc:    f8cb1000    ....    STR      r1,[r11,#0]
        0x0001a4c0:    2103        .!      MOVS     r1,#3
        0x0001a4c2:    240d        .$      MOVS     r4,#0xd
        0x0001a4c4:    f1080708    ....    ADD      r7,r8,#8
        0x0001a4c8:    440d        .D      ADD      r5,r5,r1
        0x0001a4ca:    448b        .D      ADD      r11,r11,r1
        0x0001a4cc:    f24038d9    @..8    MOV      r8,#0x3d9
        0x0001a4d0:    f10d0914    ....    ADD      r9,sp,#0x14
        0x0001a4d4:    f2c10800    ....    MOVT     r8,#0x1000
        0x0001a4d8:    f10c0101    ....    ADD      r1,r12,#1
        0x0001a4dc:    e491        ..      B        0x19e02 ; am_util_stdio_vsprintf + 30
        0x0001a4de:    3201        .2      ADDS     r2,#1
        0x0001a4e0:    700a        .p      STRB     r2,[r1,#0]
        0x0001a4e2:    e7d6        ..      B        0x1a492 ; am_util_stdio_vsprintf + 1710
        0x0001a4e4:    f1bb0f00    ....    CMP      r11,#0
        0x0001a4e8:    bf1c        ..      ITT      NE
        0x0001a4ea:    2000        .       MOVNE    r0,#0
        0x0001a4ec:    f88b0000    ....    STRBNE   r0,[r11,#0]
        0x0001a4f0:    4628        (F      MOV      r0,r5
        0x0001a4f2:    b00b        ..      ADD      sp,sp,#0x2c
        0x0001a4f4:    e8bd8ff0    ....    POP      {r4-r11,pc}
    check_i2s_data
        0x0001a4f8:    b510        ..      PUSH     {r4,lr}
        0x0001a4fa:    f8d1e000    ....    LDR      lr,[r1,#0]
        0x0001a4fe:    2300        .#      MOVS     r3,#0
        0x0001a500:    f8502023    P.#     LDR      r2,[r0,r3,LSL #2]
        0x0001a504:    4572        rE      CMP      r2,lr
        0x0001a506:    d004        ..      BEQ      0x1a512 ; check_i2s_data + 26
        0x0001a508:    3301        .3      ADDS     r3,#1
        0x0001a50a:    f5b37f80    ....    CMP      r3,#0x100
        0x0001a50e:    d1f7        ..      BNE      0x1a500 ; check_i2s_data + 8
        0x0001a510:    2300        .#      MOVS     r3,#0
        0x0001a512:    f5d37c80    ...|    RSBS     r12,r3,#0x100
        0x0001a516:    d01e        ..      BEQ      0x1a556 ; check_i2s_data + 94
        0x0001a518:    f8502023    P.#     LDR      r2,[r0,r3,LSL #2]
        0x0001a51c:    4572        rE      CMP      r2,lr
        0x0001a51e:    bf1c        ..      ITT      NE
        0x0001a520:    2000        .       MOVNE    r0,#0
        0x0001a522:    bd10        ..      POPNE    {r4,pc}
        0x0001a524:    eb000083    ....    ADD      r0,r0,r3,LSL #2
        0x0001a528:    f1000e04    ....    ADD      lr,r0,#4
        0x0001a52c:    f1c302ff    ....    RSB      r2,r3,#0xff
        0x0001a530:    3104        .1      ADDS     r1,#4
        0x0001a532:    2000        .       MOVS     r0,#0
        0x0001a534:    4603        .F      MOV      r3,r0
        0x0001a536:    4282        .B      CMP      r2,r0
        0x0001a538:    d007        ..      BEQ      0x1a54a ; check_i2s_data + 82
        0x0001a53a:    f8510023    Q.#.    LDR      r0,[r1,r3,LSL #2]
        0x0001a53e:    f85e4023    ^.#@    LDR      r4,[lr,r3,LSL #2]
        0x0001a542:    4284        .B      CMP      r4,r0
        0x0001a544:    f1030001    ....    ADD      r0,r3,#1
        0x0001a548:    d0f4        ..      BEQ      0x1a534 ; check_i2s_data + 60
        0x0001a54a:    1c59        Y.      ADDS     r1,r3,#1
        0x0001a54c:    2000        .       MOVS     r0,#0
        0x0001a54e:    4561        aE      CMP      r1,r12
        0x0001a550:    bf28        (.      IT       CS
        0x0001a552:    2001        .       MOVCS    r0,#1
        0x0001a554:    bd10        ..      POP      {r4,pc}
        0x0001a556:    2001        .       MOVS     r0,#1
        0x0001a558:    bd10        ..      POP      {r4,pc}
    crypto_boost_trims
        0x0001a55a:    e92d41f0    -..A    PUSH     {r4-r8,lr}
        0x0001a55e:    b082        ..      SUB      sp,sp,#8
        0x0001a560:    f24036d8    @..6    MOVW     r6,#0x3d8
        0x0001a564:    f2c10600    ....    MOVT     r6,#0x1000
        0x0001a568:    7832        2x      LDRB     r2,[r6,#0]
        0x0001a56a:    4604        .F      MOV      r4,r0
        0x0001a56c:    fab2f082    ....    CLZ      r0,r2
        0x0001a570:    0940        @.      LSRS     r0,r0,#5
        0x0001a572:    4060        `@      EORS     r0,r0,r4
        0x0001a574:    bf1c        ..      ITT      NE
        0x0001a576:    b002        ..      ADDNE    sp,sp,#8
        0x0001a578:    e8bd81f0    ....    POPNE    {r4-r8,pc}
        0x0001a57c:    f2400888    @...    MOVW     r8,#0x88
        0x0001a580:    460d        .F      MOV      r5,r1
        0x0001a582:    f2c40802    ....    MOVT     r8,#0x4002
        0x0001a586:    f7feffa1    ....    BL       am_hal_interrupt_master_disable ; 0x194cc
        0x0001a58a:    9001        ..      STR      r0,[sp,#4]
        0x0001a58c:    f24030e0    @..0    MOVW     r0,#0x3e0
        0x0001a590:    f2c10000    ....    MOVT     r0,#0x1000
        0x0001a594:    6801        .h      LDR      r1,[r0,#0]
        0x0001a596:    7034        4p      STRB     r4,[r6,#0]
        0x0001a598:    2c00        .,      CMP      r4,#0
        0x0001a59a:    bf08        ..      IT       EQ
        0x0001a59c:    426d        mB      RSBEQ    r5,r5,#0
        0x0001a59e:    4429        )D      ADD      r1,r1,r5
        0x0001a5a0:    6001        .`      STR      r1,[r0,#0]
        0x0001a5a2:    f24030dc    @..0    MOVW     r0,#0x3dc
        0x0001a5a6:    293f        ?)      CMP      r1,#0x3f
        0x0001a5a8:    f04f063f    O.?.    MOV      r6,#0x3f
        0x0001a5ac:    f2c10000    ....    MOVT     r0,#0x1000
        0x0001a5b0:    bf38        8.      IT       CC
        0x0001a5b2:    460e        .F      MOVCC    r6,r1
        0x0001a5b4:    2900        .)      CMP      r1,#0
        0x0001a5b6:    6801        .h      LDR      r1,[r0,#0]
        0x0001a5b8:    f04f073f    O.?.    MOV      r7,#0x3f
        0x0001a5bc:    4429        )D      ADD      r1,r1,r5
        0x0001a5be:    bf48        H.      IT       MI
        0x0001a5c0:    2600        .&      MOVMI    r6,#0
        0x0001a5c2:    293f        ?)      CMP      r1,#0x3f
        0x0001a5c4:    bf38        8.      IT       CC
        0x0001a5c6:    460f        .F      MOVCC    r7,r1
        0x0001a5c8:    2900        .)      CMP      r1,#0
        0x0001a5ca:    bf48        H.      IT       MI
        0x0001a5cc:    2700        .'      MOVMI    r7,#0
        0x0001a5ce:    6001        .`      STR      r1,[r0,#0]
        0x0001a5d0:    b194        ..      CBZ      r4,0x1a5f8 ; crypto_boost_trims + 158
        0x0001a5d2:    f8d802e4    ....    LDR      r0,[r8,#0x2e4]
        0x0001a5d6:    f020707c     .|p    BIC      r0,r0,#0x3f00000
        0x0001a5da:    ea405006    @..P    ORR      r0,r0,r6,LSL #20
        0x0001a5de:    f8c802e4    ....    STR      r0,[r8,#0x2e4]
        0x0001a5e2:    2014        .       MOVS     r0,#0x14
        0x0001a5e4:    f7fefb26    ..&.    BL       am_hal_delay_us ; 0x18c34
        0x0001a5e8:    f8d80000    ....    LDR      r0,[r8,#0]
        0x0001a5ec:    f020003f     .?.    BIC      r0,r0,#0x3f
        0x0001a5f0:    4338        8C      ORRS     r0,r0,r7
        0x0001a5f2:    f8c80000    ....    STR      r0,[r8,#0]
        0x0001a5f6:    e011        ..      B        0x1a61c ; crypto_boost_trims + 194
        0x0001a5f8:    f8d80000    ....    LDR      r0,[r8,#0]
        0x0001a5fc:    f020003f     .?.    BIC      r0,r0,#0x3f
        0x0001a600:    4338        8C      ORRS     r0,r0,r7
        0x0001a602:    f8c80000    ....    STR      r0,[r8,#0]
        0x0001a606:    2014        .       MOVS     r0,#0x14
        0x0001a608:    f7fefb14    ....    BL       am_hal_delay_us ; 0x18c34
        0x0001a60c:    f8d802e4    ....    LDR      r0,[r8,#0x2e4]
        0x0001a610:    f020707c     .|p    BIC      r0,r0,#0x3f00000
        0x0001a614:    ea405006    @..P    ORR      r0,r0,r6,LSL #20
        0x0001a618:    f8c802e4    ....    STR      r0,[r8,#0x2e4]
        0x0001a61c:    9801        ..      LDR      r0,[sp,#4]
        0x0001a61e:    f7feff5d    ..].    BL       am_hal_interrupt_master_set ; 0x194dc
        0x0001a622:    2014        .       MOVS     r0,#0x14
        0x0001a624:    b002        ..      ADD      sp,sp,#8
        0x0001a626:    e8bd41f0    ...A    POP      {r4-r8,lr}
        0x0001a62a:    f7febb03    ....    B        am_hal_delay_us ; 0x18c34
        0x0001a62e:    0000        ..      MOVS     r0,r0
    decstr_to_int
        0x0001a630:    b510        ..      PUSH     {r4,lr}
        0x0001a632:    4603        .F      MOV      r3,r0
        0x0001a634:    f813cb01    ....    LDRB     r12,[r3],#1
        0x0001a638:    f1bc0e2d    ..-.    SUBS     lr,r12,#0x2d
        0x0001a63c:    bf18        ..      IT       NE
        0x0001a63e:    4603        .F      MOVNE    r3,r0
        0x0001a640:    781a        .x      LDRB     r2,[r3,#0]
        0x0001a642:    fabefe8e    ....    CLZ      lr,lr
        0x0001a646:    f1a20030    ..0.    SUB      r0,r2,#0x30
        0x0001a64a:    2809        .(      CMP      r0,#9
        0x0001a64c:    ea4f1e5e    O.^.    LSR      lr,lr,#5
        0x0001a650:    d811        ..      BHI      0x1a676 ; decstr_to_int + 70
        0x0001a652:    3301        .3      ADDS     r3,#1
        0x0001a654:    2000        .       MOVS     r0,#0
        0x0001a656:    bf00        ..      NOP      
        0x0001a658:    eb000080    ....    ADD      r0,r0,r0,LSL #2
        0x0001a65c:    eb020040    ..@.    ADD      r0,r2,r0,LSL #1
        0x0001a660:    f8132b01    ...+    LDRB     r2,[r3],#1
        0x0001a664:    f10e0e01    ....    ADD      lr,lr,#1
        0x0001a668:    f1a20430    ..0.    SUB      r4,r2,#0x30
        0x0001a66c:    2c0a        .,      CMP      r4,#0xa
        0x0001a66e:    f1a00030    ..0.    SUB      r0,r0,#0x30
        0x0001a672:    d3f1        ..      BCC      0x1a658 ; decstr_to_int + 40
        0x0001a674:    e000        ..      B        0x1a678 ; decstr_to_int + 72
        0x0001a676:    2000        .       MOVS     r0,#0
        0x0001a678:    b109        ..      CBZ      r1,0x1a67e ; decstr_to_int + 78
        0x0001a67a:    f8c1e000    ....    STR      lr,[r1,#0]
        0x0001a67e:    f1bc0f2d    ..-.    CMP      r12,#0x2d
        0x0001a682:    bf08        ..      IT       EQ
        0x0001a684:    4240        @B      RSBEQ    r0,r0,#0
        0x0001a686:    bd10        ..      POP      {r4,pc}
    divu64_10
        0x0001a688:    b999        ..      CBNZ     r1,0x1a6b2 ; divu64_10 + 42
        0x0001a68a:    0841        A.      LSRS     r1,r0,#1
        0x0001a68c:    eb010190    ....    ADD      r1,r1,r0,LSR #2
        0x0001a690:    eb011111    ....    ADD      r1,r1,r1,LSR #4
        0x0001a694:    eb012111    ...!    ADD      r1,r1,r1,LSR #8
        0x0001a698:    eb014111    ...A    ADD      r1,r1,r1,LSR #16
        0x0001a69c:    08ca        ..      LSRS     r2,r1,#3
        0x0001a69e:    eb020282    ....    ADD      r2,r2,r2,LSL #2
        0x0001a6a2:    eba00042    ..B.    SUB      r0,r0,r2,LSL #1
        0x0001a6a6:    3006        .0      ADDS     r0,#6
        0x0001a6a8:    0900        ..      LSRS     r0,r0,#4
        0x0001a6aa:    eb0000d1    ....    ADD      r0,r0,r1,LSR #3
        0x0001a6ae:    2100        .!      MOVS     r1,#0
        0x0001a6b0:    4770        pG      BX       lr
        0x0001a6b2:    b510        ..      PUSH     {r4,lr}
        0x0001a6b4:    ea5f0c51    _.Q.    LSRS     r12,r1,#1
        0x0001a6b8:    ea4f0290    O...    LSR      r2,r0,#2
        0x0001a6bc:    ea4f0330    O.0.    RRX      r3,r0
        0x0001a6c0:    ea427281    B..r    ORR      r2,r2,r1,LSL #30
        0x0001a6c4:    eb130e02    ....    ADDS     lr,r3,r2
        0x0001a6c8:    eb4c0391    L...    ADC      r3,r12,r1,LSR #2
        0x0001a6cc:    ea4f121e    O...    LSR      r2,lr,#4
        0x0001a6d0:    ea427203    B..r    ORR      r2,r2,r3,LSL #28
        0x0001a6d4:    ea4f1c13    O...    LSR      r12,r3,#4
        0x0001a6d8:    eb1e0e02    ....    ADDS     lr,lr,r2
        0x0001a6dc:    eb43030c    C...    ADC      r3,r3,r12
        0x0001a6e0:    ea4f221e    O.."    LSR      r2,lr,#8
        0x0001a6e4:    ea426203    B..b    ORR      r2,r2,r3,LSL #24
        0x0001a6e8:    ea4f2c13    O..,    LSR      r12,r3,#8
        0x0001a6ec:    eb1e0e02    ....    ADDS     lr,lr,r2
        0x0001a6f0:    eb43030c    C...    ADC      r3,r3,r12
        0x0001a6f4:    ea4f421e    O..B    LSR      r2,lr,#16
        0x0001a6f8:    ea424203    B..B    ORR      r2,r2,r3,LSL #16
        0x0001a6fc:    ea4f4c13    O..L    LSR      r12,r3,#16
        0x0001a700:    eb12020e    ....    ADDS     r2,r2,lr
        0x0001a704:    eb43030c    C...    ADC      r3,r3,r12
        0x0001a708:    18d2        ..      ADDS     r2,r2,r3
        0x0001a70a:    f1430c00    C...    ADC      r12,r3,#0
        0x0001a70e:    08d2        ..      LSRS     r2,r2,#3
        0x0001a710:    ea42724c    B.Lr    ORR      r2,r2,r12,LSL #29
        0x0001a714:    f06f0309    o...    MVN      r3,#9
        0x0001a718:    fba2e303    ....    UMULL    lr,r3,r2,r3
        0x0001a71c:    ea4f04dc    O...    LSR      r4,r12,#3
        0x0001a720:    1a9b        ..      SUBS     r3,r3,r2
        0x0001a722:    eb040484    ....    ADD      r4,r4,r4,LSL #2
        0x0001a726:    eba30344    ..D.    SUB      r3,r3,r4,LSL #1
        0x0001a72a:    eb10000e    ....    ADDS     r0,r0,lr
        0x0001a72e:    4159        YA      ADCS     r1,r1,r3
        0x0001a730:    3006        .0      ADDS     r0,#6
        0x0001a732:    f1410100    A...    ADC      r1,r1,#0
        0x0001a736:    0900        ..      LSRS     r0,r0,#4
        0x0001a738:    ea407001    @..p    ORR      r0,r0,r1,LSL #28
        0x0001a73c:    090b        ..      LSRS     r3,r1,#4
        0x0001a73e:    1880        ..      ADDS     r0,r0,r2
        0x0001a740:    eb4301dc    C...    ADC      r1,r3,r12,LSR #3
        0x0001a744:    bd10        ..      POP      {r4,pc}
    getStackedReg
        0x0001a746:    0080        ..      LSLS     r0,r0,#2
        0x0001a748:    1840        @.      ADDS     r0,r0,r1
        0x0001a74a:    6800        .h      LDR      r0,[r0,#0]
        0x0001a74c:    4770        pG      BX       lr
    i2s_init
        0x0001a74e:    b570        p.      PUSH     {r4-r6,lr}
        0x0001a750:    b082        ..      SUB      sp,sp,#8
        0x0001a752:    2000        .       MOVS     r0,#0
        0x0001a754:    2100        .!      MOVS     r1,#0
        0x0001a756:    f7fdfed5    ....    BL       am_bsp_i2s_pins_enable ; 0x18504
        0x0001a75a:    f6400514    @...    MOV      r5,#0x814
        0x0001a75e:    f2c10500    ....    MOVT     r5,#0x1000
        0x0001a762:    2000        .       MOVS     r0,#0
        0x0001a764:    4629        )F      MOV      r1,r5
        0x0001a766:    f7fefd12    ....    BL       am_hal_i2s_initialize ; 0x1918e
        0x0001a76a:    6828        (h      LDR      r0,[r5,#0]
        0x0001a76c:    2100        .!      MOVS     r1,#0
        0x0001a76e:    2200        ."      MOVS     r2,#0
        0x0001a770:    f7fefe45    ..E.    BL       am_hal_i2s_power_control ; 0x193fe
        0x0001a774:    f2400444    @.D.    MOVW     r4,#0x44
        0x0001a778:    6828        (h      LDR      r0,[r5,#0]
        0x0001a77a:    f2c10400    ....    MOVT     r4,#0x1000
        0x0001a77e:    4621        !F      MOV      r1,r4
        0x0001a780:    f7fefb1a    ....    BL       am_hal_i2s_configure ; 0x18db8
        0x0001a784:    6828        (h      LDR      r0,[r5,#0]
        0x0001a786:    f7fefcef    ....    BL       am_hal_i2s_enable ; 0x19168
        0x0001a78a:    2001        .       MOVS     r0,#1
        0x0001a78c:    2100        .!      MOVS     r1,#0
        0x0001a78e:    f7fdfeb9    ....    BL       am_bsp_i2s_pins_enable ; 0x18504
        0x0001a792:    f6400618    @...    MOV      r6,#0x818
        0x0001a796:    f2c10600    ....    MOVT     r6,#0x1000
        0x0001a79a:    2001        .       MOVS     r0,#1
        0x0001a79c:    4631        1F      MOV      r1,r6
        0x0001a79e:    f7fefcf6    ....    BL       am_hal_i2s_initialize ; 0x1918e
        0x0001a7a2:    6830        0h      LDR      r0,[r6,#0]
        0x0001a7a4:    2100        .!      MOVS     r1,#0
        0x0001a7a6:    2200        ."      MOVS     r2,#0
        0x0001a7a8:    f7fefe29    ..).    BL       am_hal_i2s_power_control ; 0x193fe
        0x0001a7ac:    f240055c    @.\.    MOVW     r5,#0x5c
        0x0001a7b0:    6830        0h      LDR      r0,[r6,#0]
        0x0001a7b2:    f2c10500    ....    MOVT     r5,#0x1000
        0x0001a7b6:    4629        )F      MOV      r1,r5
        0x0001a7b8:    f7fefafe    ....    BL       am_hal_i2s_configure ; 0x18db8
        0x0001a7bc:    6830        0h      LDR      r0,[r6,#0]
        0x0001a7be:    f7fefcd3    ....    BL       am_hal_i2s_enable ; 0x19168
        0x0001a7c2:    2007        .       MOVS     r0,#7
        0x0001a7c4:    2100        .!      MOVS     r1,#0
        0x0001a7c6:    f7fdffa1    ....    BL       am_hal_clkgen_control ; 0x1870c
        0x0001a7ca:    f44f70fa    O..p    MOV      r0,#0x1f4
        0x0001a7ce:    f7fff943    ..C.    BL       am_util_delay_us ; 0x19a58
        0x0001a7d2:    78a0        .x      LDRB     r0,[r4,#2]
        0x0001a7d4:    380f        .8      SUBS     r0,r0,#0xf
        0x0001a7d6:    2807        .(      CMP      r0,#7
        0x0001a7d8:    d303        ..      BCC      0x1a7e2 ; i2s_init + 148
        0x0001a7da:    78a8        .x      LDRB     r0,[r5,#2]
        0x0001a7dc:    380f        .8      SUBS     r0,r0,#0xf
        0x0001a7de:    2806        .(      CMP      r0,#6
        0x0001a7e0:    d80f        ..      BHI      0x1a802 ; i2s_init + 180
        0x0001a7e2:    f64a50d8    J..P    MOV      r0,#0xadd8
        0x0001a7e6:    f2c00001    ....    MOVT     r0,#1
        0x0001a7ea:    6840        @h      LDR      r0,[r0,#4]
        0x0001a7ec:    4669        iF      MOV      r1,sp
        0x0001a7ee:    9001        ..      STR      r0,[sp,#4]
        0x0001a7f0:    f44f5080    O..P    MOV      r0,#0x1000
        0x0001a7f4:    9000        ..      STR      r0,[sp,#0]
        0x0001a7f6:    2003        .       MOVS     r0,#3
        0x0001a7f8:    f7fefeae    ....    BL       am_hal_mcuctrl_control ; 0x19558
        0x0001a7fc:    20c8        .       MOVS     r0,#0xc8
        0x0001a7fe:    f7fff926    ..&.    BL       am_util_delay_ms ; 0x19a4e
        0x0001a802:    b002        ..      ADD      sp,sp,#8
        0x0001a804:    bd70        p.      POP      {r4-r6,pc}
        0x0001a806:    0000        ..      MOVS     r0,r0
    main
        0x0001a808:    f7fdfef5    ....    BL       am_bsp_itm_printf_enable ; 0x185f6
        0x0001a80c:    f7fffadc    ....    BL       am_util_stdio_terminal_clear ; 0x19dc8
        0x0001a810:    a069        i.      ADR      r0,{pc}+0x1a8 ; 0x1a9b8
        0x0001a812:    f7fffaaf    ....    BL       am_util_stdio_printf ; 0x19d74
        0x0001a816:    f640014c    @.L.    MOV      r1,#0x84c
        0x0001a81a:    f6410064    A.d.    MOV      r0,#0x1864
        0x0001a81e:    2200        ."      MOVS     r2,#0
        0x0001a820:    f2c10106    ....    MOVT     r1,#0x1006
        0x0001a824:    f2c10006    ....    MOVT     r0,#0x1006
        0x0001a828:    f442032b    B.+.    ORR      r3,r2,#0xab0000
        0x0001a82c:    eb010782    ....    ADD      r7,r1,r2,LSL #2
        0x0001a830:    f8413022    A."0    STR      r3,[r1,r2,LSL #2]
        0x0001a834:    eb000682    ....    ADD      r6,r0,r2,LSL #2
        0x0001a838:    f8403022    @."0    STR      r3,[r0,r2,LSL #2]
        0x0001a83c:    f442034d    B.M.    ORR      r3,r2,#0xcd0000
        0x0001a840:    3201        .2      ADDS     r2,#1
        0x0001a842:    f5b27f80    ....    CMP      r2,#0x100
        0x0001a846:    f8c73400    ...4    STR      r3,[r7,#0x400]
        0x0001a84a:    f8c63400    ...4    STR      r3,[r6,#0x400]
        0x0001a84e:    d1eb        ..      BNE      0x1a828 ; main + 32
        0x0001a850:    f240059c    @...    MOVW     r5,#0x9c
        0x0001a854:    f2c10500    ....    MOVT     r5,#0x1000
        0x0001a858:    f2400240    @.@.    MOVW     r2,#0x40
        0x0001a85c:    68ab        .h      LDR      r3,[r5,#8]
        0x0001a85e:    f2c10206    ....    MOVT     r2,#0x1006
        0x0001a862:    696f        oi      LDR      r7,[r5,#0x14]
        0x0001a864:    eb020383    ....    ADD      r3,r2,r3,LSL #2
        0x0001a868:    f24006b4    @...    MOVW     r6,#0xb4
        0x0001a86c:    e9c52300    ...#    STRD     r2,r3,[r5,#0]
        0x0001a870:    eb010287    ....    ADD      r2,r1,r7,LSL #2
        0x0001a874:    f2c10600    ....    MOVT     r6,#0x1000
        0x0001a878:    e9c51203    ....    STRD     r1,r2,[r5,#0xc]
        0x0001a87c:    f2410158    A.X.    MOV      r1,#0x1058
        0x0001a880:    68b2        .h      LDR      r2,[r6,#8]
        0x0001a882:    f2c10106    ....    MOVT     r1,#0x1006
        0x0001a886:    6973        si      LDR      r3,[r6,#0x14]
        0x0001a888:    eb010282    ....    ADD      r2,r1,r2,LSL #2
        0x0001a88c:    e9c61200    ....    STRD     r1,r2,[r6,#0]
        0x0001a890:    eb000183    ....    ADD      r1,r0,r3,LSL #2
        0x0001a894:    e9c60103    ....    STRD     r0,r1,[r6,#0xc]
        0x0001a898:    f7ffff59    ..Y.    BL       i2s_init ; 0x1a74e
        0x0001a89c:    f6400714    @...    MOV      r7,#0x814
        0x0001a8a0:    f2c10700    ....    MOVT     r7,#0x1000
        0x0001a8a4:    f2400444    @.D.    MOVW     r4,#0x44
        0x0001a8a8:    6838        8h      LDR      r0,[r7,#0]
        0x0001a8aa:    f2c10400    ....    MOVT     r4,#0x1000
        0x0001a8ae:    4621        !F      MOV      r1,r4
        0x0001a8b0:    462a        *F      MOV      r2,r5
        0x0001a8b2:    f7fefb81    ....    BL       am_hal_i2s_dma_configure ; 0x18fb8
        0x0001a8b6:    f6400b18    @...    MOV      r11,#0x818
        0x0001a8ba:    f2c10b00    ....    MOVT     r11,#0x1000
        0x0001a8be:    f240055c    @.\.    MOVW     r5,#0x5c
        0x0001a8c2:    f8db0000    ....    LDR      r0,[r11,#0]
        0x0001a8c6:    f2c10500    ....    MOVT     r5,#0x1000
        0x0001a8ca:    4629        )F      MOV      r1,r5
        0x0001a8cc:    4632        2F      MOV      r2,r6
        0x0001a8ce:    f7fefb73    ..s.    BL       am_hal_i2s_dma_configure ; 0x18fb8
        0x0001a8d2:    f24e1004    N...    MOV      r0,#0xe104
        0x0001a8d6:    f2ce0000    ....    MOVT     r0,#0xe000
        0x0001a8da:    f44f5180    O..Q    MOV      r1,#0x1000
        0x0001a8de:    6001        .`      STR      r1,[r0,#0]
        0x0001a8e0:    f44f5100    O..Q    MOV      r1,#0x2000
        0x0001a8e4:    6001        .`      STR      r1,[r0,#0]
        0x0001a8e6:    f7fefdf5    ....    BL       am_hal_interrupt_master_enable ; 0x194d4
        0x0001a8ea:    6838        8h      LDR      r0,[r7,#0]
        0x0001a8ec:    4621        !F      MOV      r1,r4
        0x0001a8ee:    f7fefbdb    ....    BL       am_hal_i2s_dma_transfer_start ; 0x190a8
        0x0001a8f2:    f8db0000    ....    LDR      r0,[r11,#0]
        0x0001a8f6:    4629        )F      MOV      r1,r5
        0x0001a8f8:    f7fefbd6    ....    BL       am_hal_i2s_dma_transfer_start ; 0x190a8
        0x0001a8fc:    f24078f8    @..x    MOVW     r8,#0x7f8
        0x0001a900:    f640090c    @...    MOV      r9,#0x80c
        0x0001a904:    f2c10800    ....    MOVT     r8,#0x1000
        0x0001a908:    f2c10900    ....    MOVT     r9,#0x1000
        0x0001a90c:    f04f0a00    O...    MOV      r10,#0
        0x0001a910:    f8d80000    ....    LDR      r0,[r8,#0]
        0x0001a914:    2800        .(      CMP      r0,#0
        0x0001a916:    d0fb        ..      BEQ      0x1a910 ; main + 264
        0x0001a918:    f8d80004    ....    LDR      r0,[r8,#4]
        0x0001a91c:    2800        .(      CMP      r0,#0
        0x0001a91e:    d0f7        ..      BEQ      0x1a910 ; main + 264
        0x0001a920:    f8d80008    ....    LDR      r0,[r8,#8]
        0x0001a924:    2800        .(      CMP      r0,#0
        0x0001a926:    d0f3        ..      BEQ      0x1a910 ; main + 264
        0x0001a928:    f8d8000c    ....    LDR      r0,[r8,#0xc]
        0x0001a92c:    2800        .(      CMP      r0,#0
        0x0001a92e:    d0ef        ..      BEQ      0x1a910 ; main + 264
        0x0001a930:    f8d90000    ....    LDR      r0,[r9,#0]
        0x0001a934:    f6400414    @...    MOV      r4,#0x814
        0x0001a938:    3001        .0      ADDS     r0,#1
        0x0001a93a:    f8c90000    ....    STR      r0,[r9,#0]
        0x0001a93e:    f8c8a00c    ....    STR      r10,[r8,#0xc]
        0x0001a942:    f8c8a008    ....    STR      r10,[r8,#8]
        0x0001a946:    f8c8a004    ....    STR      r10,[r8,#4]
        0x0001a94a:    f8c8a000    ....    STR      r10,[r8,#0]
        0x0001a94e:    f2c10400    ....    MOVT     r4,#0x1000
        0x0001a952:    6820         h      LDR      r0,[r4,#0]
        0x0001a954:    2100        .!      MOVS     r1,#0
        0x0001a956:    f7fefb93    ....    BL       am_hal_i2s_dma_get_buffer ; 0x19080
        0x0001a95a:    f8db1000    ....    LDR      r1,[r11,#0]
        0x0001a95e:    4606        .F      MOV      r6,r0
        0x0001a960:    4608        .F      MOV      r0,r1
        0x0001a962:    2100        .!      MOVS     r1,#0
        0x0001a964:    f7fefb8c    ....    BL       am_hal_i2s_dma_get_buffer ; 0x19080
        0x0001a968:    6821        !h      LDR      r1,[r4,#0]
        0x0001a96a:    4604        .F      MOV      r4,r0
        0x0001a96c:    4608        .F      MOV      r0,r1
        0x0001a96e:    2101        .!      MOVS     r1,#1
        0x0001a970:    f7fefb86    ....    BL       am_hal_i2s_dma_get_buffer ; 0x19080
        0x0001a974:    f8db1000    ....    LDR      r1,[r11,#0]
        0x0001a978:    4605        .F      MOV      r5,r0
        0x0001a97a:    4608        .F      MOV      r0,r1
        0x0001a97c:    2101        .!      MOVS     r1,#1
        0x0001a97e:    f7fefb7f    ....    BL       am_hal_i2s_dma_get_buffer ; 0x19080
        0x0001a982:    4607        .F      MOV      r7,r0
        0x0001a984:    4620         F      MOV      r0,r4
        0x0001a986:    4629        )F      MOV      r1,r5
        0x0001a988:    f7fffdb6    ....    BL       check_i2s_data ; 0x1a4f8
        0x0001a98c:    b168        h.      CBZ      r0,0x1a9aa ; main + 418
        0x0001a98e:    4630        0F      MOV      r0,r6
        0x0001a990:    4639        9F      MOV      r1,r7
        0x0001a992:    f7fffdb1    ....    BL       check_i2s_data ; 0x1a4f8
        0x0001a996:    b140        @.      CBZ      r0,0x1a9aa ; main + 418
        0x0001a998:    2001        .       MOVS     r0,#1
        0x0001a99a:    f8c80010    ....    STR      r0,[r8,#0x10]
        0x0001a99e:    f8d91000    ....    LDR      r1,[r9,#0]
        0x0001a9a2:    a01e        ..      ADR      r0,{pc}+0x7a ; 0x1aa1c
        0x0001a9a4:    f7fff9e6    ....    BL       am_util_stdio_printf ; 0x19d74
        0x0001a9a8:    e7b2        ..      B        0x1a910 ; main + 264
        0x0001a9aa:    f8d91000    ....    LDR      r1,[r9,#0]
        0x0001a9ae:    a012        ..      ADR      r0,{pc}+0x4a ; 0x1a9f8
        0x0001a9b0:    f7fff9e0    ....    BL       am_util_stdio_printf ; 0x19d74
        0x0001a9b4:    e7ac        ..      B        0x1a910 ; main + 264
        0x0001a9b6:    bf00        ..      NOP      
    $d.4
        0x0001a9b8:    20533249    I2S     DCD    542323273
        0x0001a9bc:    6c6c7546    Full    DCD    1819047238
        0x0001a9c0:    70754420     Dup    DCD    1886733344
        0x0001a9c4:    2078656c    lex     DCD    544761196
        0x0001a9c8:    706f6f4c    Loop    DCD    1886351180
        0x0001a9cc:    6b636162    back    DCD    1801675106
        0x0001a9d0:    73655420     Tes    DCD    1936020512
        0x0001a9d4:    4d203a74    t: M    DCD    1293957748
        0x0001a9d8:    65747361    aste    DCD    1702130529
        0x0001a9dc:    203d2072    r =     DCD    540876914
        0x0001a9e0:    31533249    I2S1    DCD    827535945
        0x0001a9e4:    6c53202c    , Sl    DCD    1817387052
        0x0001a9e8:    20657661    ave     DCD    543520353
        0x0001a9ec:    3249203d    = I2    DCD    843653181
        0x0001a9f0:    0a2e3053    S0..    DCD    170799187
        0x0001a9f4:    0000000a    ....    DCD    10
        0x0001a9f8:    20533249    I2S     DCD    542323273
        0x0001a9fc:    706f6f4c    Loop    DCD    1886351180
        0x0001aa00:    6b636162    back    DCD    1801675106
        0x0001aa04:    65744920     Ite    DCD    1702119712
        0x0001aa08:    69746172    rati    DCD    1769234802
        0x0001aa0c:    25206e6f    on %    DCD    622882415
        0x0001aa10:    41462064    d FA    DCD    1095114852
        0x0001aa14:    44454c49    ILED    DCD    1145392201
        0x0001aa18:    00000a21    !...    DCD    2593
        0x0001aa1c:    20533249    I2S     DCD    542323273
        0x0001aa20:    706f6f4c    Loop    DCD    1886351180
        0x0001aa24:    6b636162    back    DCD    1801675106
        0x0001aa28:    65744920     Ite    DCD    1702119712
        0x0001aa2c:    69746172    rati    DCD    1769234802
        0x0001aa30:    25206e6f    on %    DCD    622882415
        0x0001aa34:    41502064    d PA    DCD    1095770212
        0x0001aa38:    44455353    SSED    DCD    1145394003
        0x0001aa3c:    00000a21    !...    DCD    2593
    $t.7
    uint64_to_str
        0x0001aa40:    b5f0        ..      PUSH     {r4-r7,lr}
        0x0001aa42:    b087        ..      SUB      sp,sp,#0x1c
        0x0001aa44:    4614        .F      MOV      r4,r2
        0x0001aa46:    4605        .F      MOV      r5,r0
        0x0001aa48:    2000        .       MOVS     r0,#0
        0x0001aa4a:    f10d0603    ....    ADD      r6,sp,#3
        0x0001aa4e:    bf00        ..      NOP      
        0x0001aa50:    4607        .F      MOV      r7,r0
        0x0001aa52:    4628        (F      MOV      r0,r5
        0x0001aa54:    f7fffe18    ....    BL       divu64_10 ; 0x1a688
        0x0001aa58:    4602        .F      MOV      r2,r0
        0x0001aa5a:    eb000080    ....    ADD      r0,r0,r0,LSL #2
        0x0001aa5e:    eba50040    ..@.    SUB      r0,r5,r0,LSL #1
        0x0001aa62:    f1000330    ..0.    ADD      r3,r0,#0x30
        0x0001aa66:    1c78        x.      ADDS     r0,r7,#1
        0x0001aa68:    55f3        .U      STRB     r3,[r6,r7]
        0x0001aa6a:    ea520701    R...    ORRS     r7,r2,r1
        0x0001aa6e:    4615        .F      MOV      r5,r2
        0x0001aa70:    d1ee        ..      BNE      0x1aa50 ; uint64_to_str + 16
        0x0001aa72:    b16c        l.      CBZ      r4,0x1aa90 ; uint64_to_str + 80
        0x0001aa74:    2801        .(      CMP      r0,#1
        0x0001aa76:    f8043b01    ...;    STRB     r3,[r4],#1
        0x0001aa7a:    d007        ..      BEQ      0x1aa8c ; uint64_to_str + 76
        0x0001aa7c:    1eb1        ..      SUBS     r1,r6,#2
        0x0001aa7e:    4602        .F      MOV      r2,r0
        0x0001aa80:    5c8b        .\      LDRB     r3,[r1,r2]
        0x0001aa82:    3a01        .:      SUBS     r2,#1
        0x0001aa84:    2a01        .*      CMP      r2,#1
        0x0001aa86:    f8043b01    ...;    STRB     r3,[r4],#1
        0x0001aa8a:    d1f9        ..      BNE      0x1aa80 ; uint64_to_str + 64
        0x0001aa8c:    2100        .!      MOVS     r1,#0
        0x0001aa8e:    7021        !p      STRB     r1,[r4,#0]
        0x0001aa90:    b007        ..      ADD      sp,sp,#0x1c
        0x0001aa92:    bdf0        ..      POP      {r4-r7,pc}
    $t
    x$fpl$d2f
    $v0
    __aeabi_d2f
    _d2f
        0x0001aa94:    f0214200    !..B    BIC      r2,r1,#0x80000000
        0x0001aa98:    f0014300    ...C    AND      r3,r1,#0x80000000
        0x0001aa9c:    f1a25260    ..`R    SUB      r2,r2,#0x38000000
        0x0001aaa0:    f5b21f80    ....    CMP      r2,#0x100000
        0x0001aaa4:    bf28        (.      IT       CS
        0x0001aaa6:    f1d26c7f    ...l    RSBSCS   r12,r2,#0xff00000
        0x0001aaaa:    d90b        ..      BLS      0x1aac4 ; __aeabi_d2f + 48
        0x0001aaac:    ea5f1c00    _...    LSLS     r12,r0,#4
        0x0001aab0:    ea4302c2    C...    ORR      r2,r3,r2,LSL #3
        0x0001aab4:    eb427050    B.Pp    ADC      r0,r2,r0,LSR #29
        0x0001aab8:    bf18        ..      IT       NE
        0x0001aaba:    4770        pG      BXNE     lr
        0x0001aabc:    bf28        (.      IT       CS
        0x0001aabe:    f0200001     ...    BICCS    r0,r0,#1
        0x0001aac2:    4770        pG      BX       lr
        0x0001aac4:    f5b21f80    ....    CMP      r2,#0x100000
        0x0001aac8:    bfbc        ..      ITT      LT
        0x0001aaca:    4618        .F      MOVLT    r0,r3
        0x0001aacc:    4770        pG      BXLT     lr
        0x0001aace:    ea4f0c41    O.A.    LSL      r12,r1,#1
        0x0001aad2:    f51c1f00    ....    CMN      r12,#0x200000
        0x0001aad6:    d202        ..      BCS      0x1aade ; __aeabi_d2f + 74
        0x0001aad8:    4608        .F      MOV      r0,r1
        0x0001aada:    f000b867    ..g.    B.W      __fpl_fretinf ; 0x1abac
        0x0001aade:    b570        p.      PUSH     {r4-r6,lr}
        0x0001aae0:    f000f809    ....    BL       __fpl_dnaninf ; 0x1aaf6
    $d
        0x0001aae4:    89000000    ....    DCD    2298478592
    $t
        0x0001aae8:    f7ffbff6    ....    B.W      0x1aad8 ; __aeabi_d2f + 68
        0x0001aaec:    f04f4000    O..@    MOV      r0,#0x80000000
        0x0001aaf0:    f5a00080    ....    SUB      r0,r0,#0x400000
        0x0001aaf4:    4770        pG      BX       lr
    x$fpl$dnaninf
    $v0
    __fpl_dnaninf
        0x0001aaf6:    f10e0e02    ....    ADD      lr,lr,#2
        0x0001aafa:    f02e0e03    ....    BIC      lr,lr,#3
        0x0001aafe:    f85e6b04    ^..k    LDR      r6,[lr],#4
        0x0001ab02:    4236        6B      TST      r6,r6
        0x0001ab04:    d405        ..      BMI      0x1ab12 ; __fpl_dnaninf + 28
        0x0001ab06:    2a01        .*      CMP      r2,#1
        0x0001ab08:    eb430503    C...    ADC      r5,r3,r3
        0x0001ab0c:    f5151f00    ....    CMN      r5,#0x200000
        0x0001ab10:    d812        ..      BHI      0x1ab38 ; __fpl_dnaninf + 66
        0x0001ab12:    2801        .(      CMP      r0,#1
        0x0001ab14:    eb410c01    A...    ADC      r12,r1,r1
        0x0001ab18:    f51c1f00    ....    CMN      r12,#0x200000
        0x0001ab1c:    d80c        ..      BHI      0x1ab38 ; __fpl_dnaninf + 66
        0x0001ab1e:    d10e        ..      BNE      0x1ab3e ; __fpl_dnaninf + 72
        0x0001ab20:    ea4f7cd1    O..|    LSR      r12,r1,#31
        0x0001ab24:    eb0c0c4c    ..L.    ADD      r12,r12,r12,LSL #1
        0x0001ab28:    f10c0c02    ....    ADD      r12,r12,#2
        0x0001ab2c:    f5151f00    ....    CMN      r5,#0x200000
        0x0001ab30:    bf08        ..      IT       EQ
        0x0001ab32:    eb4c7cd3    L..|    ADCEQ    r12,r12,r3,LSR #31
        0x0001ab36:    e004        ..      B        0x1ab42 ; __fpl_dnaninf + 76
        0x0001ab38:    f04f0c08    O...    MOV      r12,#8
        0x0001ab3c:    e001        ..      B        0x1ab42 ; __fpl_dnaninf + 76
        0x0001ab3e:    ea4f7cd3    O..|    LSR      r12,r3,#31
        0x0001ab42:    eb0c054c    ..L.    ADD      r5,r12,r12,LSL #1
        0x0001ab46:    fa26f605    &...    LSR      r6,r6,r5
        0x0001ab4a:    f0060607    ....    AND      r6,r6,#7
        0x0001ab4e:    f1b60c04    ....    SUBS     r12,r6,#4
        0x0001ab52:    d206        ..      BCS      0x1ab62 ; __fpl_dnaninf + 108
        0x0001ab54:    eb0e0c86    ....    ADD      r12,lr,r6,LSL #2
        0x0001ab58:    e8bd4070    ..p@    POP      {r4-r6,lr}
        0x0001ab5c:    f04c0c01    L...    ORR      r12,r12,#1
        0x0001ab60:    4760        `G      BX       r12
        0x0001ab62:    e8dff00c    ....    TBB      [pc,r12]
    $d
        0x0001ab66:    0b09        ..      DCW    2825
        0x0001ab68:    0202        ..      DCW    514
    $t
        0x0001ab6a:    f04f4100    O..A    MOV      r1,#0x80000000
        0x0001ab6e:    f5a12100    ...!    SUB      r1,r1,#0x80000
        0x0001ab72:    f04f0000    O...    MOV      r0,#0
        0x0001ab76:    bd70        p.      POP      {r4-r6,pc}
        0x0001ab78:    4619        .F      MOV      r1,r3
        0x0001ab7a:    4610        .F      MOV      r0,r2
        0x0001ab7c:    2801        .(      CMP      r0,#1
        0x0001ab7e:    eb510401    Q...    ADCS     r4,r1,r1
        0x0001ab82:    bf18        ..      IT       NE
        0x0001ab84:    f5d41400    ....    RSBSNE   r4,r4,#0x200000
        0x0001ab88:    bf84        ..      ITT      HI
        0x0001ab8a:    2000        .       MOVHI    r0,#0
        0x0001ab8c:    f0014100    ...A    ANDHI    r1,r1,#0x80000000
        0x0001ab90:    bd70        p.      POP      {r4-r6,pc}
    x$fpl$fpinit
    $v0
    _fp_init
        0x0001ab92:    eef10a10    ....    VMRS     r0,FPSCR
        0x0001ab96:    f64f71ff    O..q    MOV      r1,#0xffff
        0x0001ab9a:    f2c031c0    ...1    MOVT     r1,#0x3c0
        0x0001ab9e:    ea200001     ...    BIC      r0,r0,r1
        0x0001aba2:    f0407040    @.@p    ORR      r0,r0,#0x3000000
        0x0001aba6:    eee10a10    ....    VMSR     FPSCR,r0
    __fplib_config_fpu_vfp
    __fplib_config_pureend_doubles
        0x0001abaa:    4770        pG      BX       lr
    x$fpl$fretinf
    $v0
    __fpl_fretinf
        0x0001abac:    21ff        .!      MOVS     r1,#0xff
        0x0001abae:    ea4150d0    A..P    ORR      r0,r1,r0,LSR #23
        0x0001abb2:    05c0        ..      LSLS     r0,r0,#23
        0x0001abb4:    4770        pG      BX       lr
    x$fpl$usenofp
    __I$use$fp
        0x0001abb6:    0000        ..      MOVS     r0,r0
    $d.realdata
    am_hal_pwrctrl_peripheral_control
        0x0001abb8:    40021004    ...@    DCD    1073876996
        0x0001abbc:    00000001    ....    DCD    1
        0x0001abc0:    40021008    ...@    DCD    1073877000
        0x0001abc4:    00000001    ....    DCD    1
        0x0001abc8:    40021004    ...@    DCD    1073876996
        0x0001abcc:    00000002    ....    DCD    2
        0x0001abd0:    40021008    ...@    DCD    1073877000
        0x0001abd4:    0000001e    ....    DCD    30
        0x0001abd8:    40021004    ...@    DCD    1073876996
        0x0001abdc:    00000004    ....    DCD    4
        0x0001abe0:    40021008    ...@    DCD    1073877000
        0x0001abe4:    0000001e    ....    DCD    30
        0x0001abe8:    40021004    ...@    DCD    1073876996
        0x0001abec:    00000008    ....    DCD    8
        0x0001abf0:    40021008    ...@    DCD    1073877000
        0x0001abf4:    0000001e    ....    DCD    30
        0x0001abf8:    40021004    ...@    DCD    1073876996
        0x0001abfc:    00000010    ....    DCD    16
        0x0001ac00:    40021008    ...@    DCD    1073877000
        0x0001ac04:    0000001e    ....    DCD    30
        0x0001ac08:    40021004    ...@    DCD    1073876996
        0x0001ac0c:    00000020     ...    DCD    32
        0x0001ac10:    40021008    ...@    DCD    1073877000
        0x0001ac14:    000001e0    ....    DCD    480
        0x0001ac18:    40021004    ...@    DCD    1073876996
        0x0001ac1c:    00000040    @...    DCD    64
        0x0001ac20:    40021008    ...@    DCD    1073877000
        0x0001ac24:    000001e0    ....    DCD    480
        0x0001ac28:    40021004    ...@    DCD    1073876996
        0x0001ac2c:    00000080    ....    DCD    128
        0x0001ac30:    40021008    ...@    DCD    1073877000
        0x0001ac34:    000001e0    ....    DCD    480
        0x0001ac38:    40021004    ...@    DCD    1073876996
        0x0001ac3c:    00000100    ....    DCD    256
        0x0001ac40:    40021008    ...@    DCD    1073877000
        0x0001ac44:    000001e0    ....    DCD    480
        0x0001ac48:    40021004    ...@    DCD    1073876996
        0x0001ac4c:    00000200    ....    DCD    512
        0x0001ac50:    40021008    ...@    DCD    1073877000
        0x0001ac54:    00001e00    ....    DCD    7680
        0x0001ac58:    40021004    ...@    DCD    1073876996
        0x0001ac5c:    00000400    ....    DCD    1024
        0x0001ac60:    40021008    ...@    DCD    1073877000
        0x0001ac64:    00001e00    ....    DCD    7680
        0x0001ac68:    40021004    ...@    DCD    1073876996
        0x0001ac6c:    00000800    ....    DCD    2048
        0x0001ac70:    40021008    ...@    DCD    1073877000
        0x0001ac74:    00001e00    ....    DCD    7680
        0x0001ac78:    40021004    ...@    DCD    1073876996
        0x0001ac7c:    00001000    ....    DCD    4096
        0x0001ac80:    40021008    ...@    DCD    1073877000
        0x0001ac84:    00001e00    ....    DCD    7680
        0x0001ac88:    40021004    ...@    DCD    1073876996
        0x0001ac8c:    00002000    . ..    DCD    8192
        0x0001ac90:    40021008    ...@    DCD    1073877000
        0x0001ac94:    00002000    . ..    DCD    8192
        0x0001ac98:    40021004    ...@    DCD    1073876996
        0x0001ac9c:    00004000    .@..    DCD    16384
        0x0001aca0:    40021008    ...@    DCD    1073877000
        0x0001aca4:    0001c000    ....    DCD    114688
        0x0001aca8:    40021004    ...@    DCD    1073876996
        0x0001acac:    00008000    ....    DCD    32768
        0x0001acb0:    40021008    ...@    DCD    1073877000
        0x0001acb4:    0001c000    ....    DCD    114688
        0x0001acb8:    40021004    ...@    DCD    1073876996
        0x0001acbc:    00010000    ....    DCD    65536
        0x0001acc0:    40021008    ...@    DCD    1073877000
        0x0001acc4:    0001c000    ....    DCD    114688
        0x0001acc8:    40021004    ...@    DCD    1073876996
        0x0001accc:    00020000    ....    DCD    131072
        0x0001acd0:    40021008    ...@    DCD    1073877000
        0x0001acd4:    00020000    ....    DCD    131072
        0x0001acd8:    40021004    ...@    DCD    1073876996
        0x0001acdc:    00040000    ....    DCD    262144
        0x0001ace0:    40021008    ...@    DCD    1073877000
        0x0001ace4:    00040000    ....    DCD    262144
        0x0001ace8:    40021004    ...@    DCD    1073876996
        0x0001acec:    00080000    ....    DCD    524288
        0x0001acf0:    40021008    ...@    DCD    1073877000
        0x0001acf4:    00080000    ....    DCD    524288
        0x0001acf8:    40021004    ...@    DCD    1073876996
        0x0001acfc:    00100000    ....    DCD    1048576
        0x0001ad00:    40021008    ...@    DCD    1073877000
        0x0001ad04:    00100000    ....    DCD    1048576
        0x0001ad08:    40021004    ...@    DCD    1073876996
        0x0001ad0c:    00200000    .. .    DCD    2097152
        0x0001ad10:    40021008    ...@    DCD    1073877000
        0x0001ad14:    00200000    .. .    DCD    2097152
        0x0001ad18:    40021004    ...@    DCD    1073876996
        0x0001ad1c:    00400000    ..@.    DCD    4194304
        0x0001ad20:    40021008    ...@    DCD    1073877000
        0x0001ad24:    00400000    ..@.    DCD    4194304
        0x0001ad28:    40021004    ...@    DCD    1073876996
        0x0001ad2c:    00800000    ....    DCD    8388608
        0x0001ad30:    40021008    ...@    DCD    1073877000
        0x0001ad34:    00800000    ....    DCD    8388608
        0x0001ad38:    40021004    ...@    DCD    1073876996
        0x0001ad3c:    01000000    ....    DCD    16777216
        0x0001ad40:    40021008    ...@    DCD    1073877000
        0x0001ad44:    01000000    ....    DCD    16777216
        0x0001ad48:    4002100c    ...@    DCD    1073877004
        0x0001ad4c:    00000001    ....    DCD    1
        0x0001ad50:    40021010    ...@    DCD    1073877008
        0x0001ad54:    000000ff    ....    DCD    255
        0x0001ad58:    4002100c    ...@    DCD    1073877004
        0x0001ad5c:    00000002    ....    DCD    2
        0x0001ad60:    40021010    ...@    DCD    1073877008
        0x0001ad64:    000000ff    ....    DCD    255
        0x0001ad68:    4002100c    ...@    DCD    1073877004
        0x0001ad6c:    00000004    ....    DCD    4
        0x0001ad70:    40021010    ...@    DCD    1073877008
        0x0001ad74:    000000ff    ....    DCD    255
        0x0001ad78:    4002100c    ...@    DCD    1073877004
        0x0001ad7c:    00000008    ....    DCD    8
        0x0001ad80:    40021010    ...@    DCD    1073877008
        0x0001ad84:    000000ff    ....    DCD    255
        0x0001ad88:    4002100c    ...@    DCD    1073877004
        0x0001ad8c:    00000010    ....    DCD    16
        0x0001ad90:    40021010    ...@    DCD    1073877008
        0x0001ad94:    000000ff    ....    DCD    255
        0x0001ad98:    4002100c    ...@    DCD    1073877004
        0x0001ad9c:    00000020     ...    DCD    32
        0x0001ada0:    40021010    ...@    DCD    1073877008
        0x0001ada4:    000000ff    ....    DCD    255
        0x0001ada8:    4002100c    ...@    DCD    1073877004
        0x0001adac:    00000040    @...    DCD    64
        0x0001adb0:    40021010    ...@    DCD    1073877008
        0x0001adb4:    000000ff    ....    DCD    255
        0x0001adb8:    4002100c    ...@    DCD    1073877004
        0x0001adbc:    00000080    ....    DCD    128
        0x0001adc0:    40021010    ...@    DCD    1073877008
        0x0001adc4:    000000ff    ....    DCD    255
        0x0001adc8:    4002100c    ...@    DCD    1073877004
        0x0001adcc:    00000400    ....    DCD    1024
        0x0001add0:    40021010    ...@    DCD    1073877008
        0x0001add4:    00000400    ....    DCD    1024
    g_amHalMcuctrlArgDefault
        0x0001add8:    00200000    .. .    DCD    2097152
        0x0001addc:    00000001    ....    DCD    1
    g_am_hal_bootrom_helper
        0x0001ade0:    0800004d    M...    DCD    134217805
        0x0001ade4:    08000051    Q...    DCD    134217809
        0x0001ade8:    08000055    U...    DCD    134217813
        0x0001adec:    08000059    Y...    DCD    134217817
        0x0001adf0:    0800006d    m...    DCD    134217837
        0x0001adf4:    08000075    u...    DCD    134217845
        0x0001adf8:    08000079    y...    DCD    134217849
        0x0001adfc:    08000081    ....    DCD    134217857
        0x0001ae00:    08000099    ....    DCD    134217881
        0x0001ae04:    0800009d    ....    DCD    134217885
    __tagsym$$used.7
    sGlobalAccess
        0x0001ae08:    0001b16c    l...    DCD    110956
        0x0001ae0c:    0001b158    X...    DCD    110936
        0x0001ae10:    0001b118    ....    DCD    110872
        0x0001ae14:    0001b12c    ,...    DCD    110892
        0x0001ae18:    10060004    ....    DCD    268828676
        0x0001ae1c:    10060018    ....    DCD    268828696
        0x0001ae20:    1006002c    ,...    DCD    268828716
    .L.str.1
        0x0001ae24:    20202020            DCD    538976288
        0x0001ae28:    61766e49    Inva    DCD    1635151433
        0x0001ae2c:    2064696c    lid     DCD    543451500
        0x0001ae30:    77205053    SP w    DCD    1998606419
        0x0001ae34:    206e6568    hen     DCD    544105832
        0x0001ae38:    64726148    Hard    DCD    1685217608
        0x0001ae3c:    75614620     Fau    DCD    1969309216
        0x0001ae40:    6f20746c    lt o    DCD    1864397932
        0x0001ae44:    72756363    ccur    DCD    1920295779
        0x0001ae48:    203a6465    ed:     DCD    540697701
        0x0001ae4c:    30257830    0x%0    DCD    807761968
        0x0001ae50:    28205838    8X (    DCD    673208376
        0x0001ae54:    53206f6e    no S    DCD    1394634606
        0x0001ae58:    6b636174    tack    DCD    1801675124
        0x0001ae5c:    64206465    ed d    DCD    1679844453
        0x0001ae60:    29617461    ata)    DCD    694252641
        0x0001ae64:    0a0a        ..      DCW    2570
        0x0001ae66:    00          .       DCB    0
    .L.str.29
        0x0001ae67:    0a          .       DCB    10
        0x0001ae68:    6e6f440a    .Don    DCD    1852785674
        0x0001ae6c:    69772065    e wi    DCD    1769414757
        0x0001ae70:    6f206874    th o    DCD    1864394868
        0x0001ae74:    75707475    utpu    DCD    1970304117
        0x0001ae78:    45202e74    t. E    DCD    1159736948
        0x0001ae7c:    7265746e    nter    DCD    1919251566
        0x0001ae80:    20676e69    ing     DCD    543649385
        0x0001ae84:    69666e69    infi    DCD    1768320617
        0x0001ae88:    6574696e    nite    DCD    1702127982
        0x0001ae8c:    6f6f6c20     loo    DCD    1869573152
        0x0001ae90:    0a0a2e70    p...    DCD    168439408
        0x0001ae94:    00          .       DCB    0
    .L.str
        0x0001ae95:    2a2a20      **      DCB    42,42,32
        0x0001ae98:    64726148    Hard    DCD    1685217608
        0x0001ae9c:    75614620     Fau    DCD    1969309216
        0x0001aea0:    4f20746c    lt O    DCD    1327527020
        0x0001aea4:    72756363    ccur    DCD    1920295779
        0x0001aea8:    3a646572    red:    DCD    979658098
        0x0001aeac:    0a0a        ..      DCW    2570
        0x0001aeae:    00          .       DCB    0
    .L.str.2
        0x0001aeaf:    48          H       DCB    72
        0x0001aeb0:    20647261    ard     DCD    543453793
        0x0001aeb4:    6c756146    Faul    DCD    1819631942
        0x0001aeb8:    74732074    t st    DCD    1953702004
        0x0001aebc:    656b6361    acke    DCD    1701536609
        0x0001aec0:    61642064    d da    DCD    1633951844
        0x0001aec4:    0a3a6174    ta:.    DCD    171598196
        0x0001aec8:    00          .       DCB    0
    .L.str.25
        0x0001aec9:    0a4d43      .MC     DCB    10,77,67
        0x0001aecc:    61462055    U Fa    DCD    1631985749
        0x0001aed0:    20746c75    ult     DCD    544500853
        0x0001aed4:    61746164    data    DCD    1635017060
        0x0001aed8:    0a3a        :.      DCW    2618
        0x0001aeda:    00          .       DCB    0
    .L.str.11
        0x0001aedb:    4f          O       DCB    79
        0x0001aedc:    72656874    ther    DCD    1919248500
        0x0001aee0:    72614820     Har    DCD    1918978080
        0x0001aee4:    61462064    d Fa    DCD    1631985764
        0x0001aee8:    20746c75    ult     DCD    544500853
        0x0001aeec:    61746164    data    DCD    1635017060
        0x0001aef0:    0a3a        :.      DCW    2618
        0x0001aef2:    00          .       DCB    0
    .L.str.18
        0x0001aef3:    20                  DCB    32
        0x0001aef4:    20202020            DCD    538976288
        0x0001aef8:    42202020       B    DCD    1109401632
        0x0001aefc:    20525346    FSR     DCD    542266182
        0x0001af00:    36746962    bit6    DCD    913598818
        0x0001af04:    4552203a    : RE    DCD    1163010106
        0x0001af08:    56524553    SERV    DCD    1448232275
        0x0001af0c:    000a4445    ED..    DCD    672837
    .L.str.17
        0x0001af10:    20202020            DCD    538976288
        0x0001af14:    20202020            DCD    538976288
        0x0001af18:    52534642    BFSR    DCD    1381189186
        0x0001af1c:    74696220     bit    DCD    1953063456
        0x0001af20:    42203a37    7: B    DCD    1109408311
        0x0001af24:    56524146    FARV    DCD    1448231238
        0x0001af28:    44494c41    ALID    DCD    1145654337
        0x0001af2c:    000a        ..      DCW    10
    .L.str.23
        0x0001af2e:    2020                DCW    8224
        0x0001af30:    20202020            DCD    538976288
        0x0001af34:    46422020      BF    DCD    1178738720
        0x0001af38:    62205253    SR b    DCD    1646285395
        0x0001af3c:    3a317469    it1:    DCD    976319593
        0x0001af40:    45525020     PRE    DCD    1163022368
        0x0001af44:    45534943    CISE    DCD    1163086147
        0x0001af48:    0a525245    ERR.    DCD    173167173
        0x0001af4c:    00          .       DCB    0
    .L.str.20
        0x0001af4d:    202020              DCB    32,32,32
        0x0001af50:    20202020            DCD    538976288
        0x0001af54:    53464220     BFS    DCD    1397113376
        0x0001af58:    69622052    R bi    DCD    1768038482
        0x0001af5c:    203a3474    t4:     DCD    540685428
        0x0001af60:    454b5453    STKE    DCD    1162564691
        0x0001af64:    000a5252    RR..    DCD    676434
    .L.str.21
        0x0001af68:    20202020            DCD    538976288
        0x0001af6c:    20202020            DCD    538976288
        0x0001af70:    52534642    BFSR    DCD    1381189186
        0x0001af74:    74696220     bit    DCD    1953063456
        0x0001af78:    55203a33    3: U    DCD    1428175411
        0x0001af7c:    4b54534e    NSTK    DCD    1263817550
        0x0001af80:    0a525245    ERR.    DCD    173167173
        0x0001af84:    00          .       DCB    0
    .L.str.19
        0x0001af85:    202020              DCB    32,32,32
        0x0001af88:    20202020            DCD    538976288
        0x0001af8c:    53464220     BFS    DCD    1397113376
        0x0001af90:    69622052    R bi    DCD    1768038482
        0x0001af94:    203a3574    t5:     DCD    540685684
        0x0001af98:    4550534c    LSPE    DCD    1162892108
        0x0001af9c:    000a5252    RR..    DCD    676434
    .L.str.22
        0x0001afa0:    20202020            DCD    538976288
        0x0001afa4:    20202020            DCD    538976288
        0x0001afa8:    52534642    BFSR    DCD    1381189186
        0x0001afac:    74696220     bit    DCD    1953063456
        0x0001afb0:    49203a32    2: I    DCD    1226848818
        0x0001afb4:    4552504d    MPRE    DCD    1163022413
        0x0001afb8:    45534943    CISE    DCD    1163086147
        0x0001afbc:    000a5252    RR..    DCD    676434
    .L.str.24
        0x0001afc0:    20202020            DCD    538976288
        0x0001afc4:    20202020            DCD    538976288
        0x0001afc8:    52534642    BFSR    DCD    1381189186
        0x0001afcc:    74696220     bit    DCD    1953063456
        0x0001afd0:    49203a30    0: I    DCD    1226848816
        0x0001afd4:    45535542    BUSE    DCD    1163089218
        0x0001afd8:    000a5252    RR..    DCD    676434
    .L.str.16
        0x0001afdc:    20202020            DCD    538976288
        0x0001afe0:    52534642    BFSR    DCD    1381189186
        0x0001afe4:    75422820     (Bu    DCD    1967269920
        0x0001afe8:    61462073    s Fa    DCD    1631985779
        0x0001afec:    20746c75    ult     DCD    544500853
        0x0001aff0:    74617453    Stat    DCD    1952543827
        0x0001aff4:    52207375    us R    DCD    1377858421
        0x0001aff8:    20296765    eg)     DCD    539584357
        0x0001affc:    7830203d    = 0x    DCD    2016419901
        0x0001b000:    58323025    %02X    DCD    1479684133
        0x0001b004:    000a        ..      DCW    10
    .L.str.14
        0x0001b006:    2020                DCW    8224
        0x0001b008:    4d4d2020      MM    DCD    1296900128
        0x0001b00c:    28205253    SR (    DCD    673206867
        0x0001b010:    206d654d    Mem     DCD    544040269
        0x0001b014:    746d674d    Mgmt    DCD    1953326925
        0x0001b018:    75614620     Fau    DCD    1969309216
        0x0001b01c:    5320746c    lt S    DCD    1394635884
        0x0001b020:    75746174    tatu    DCD    1970561396
        0x0001b024:    65522073    s Re    DCD    1699881075
        0x0001b028:    3d202967    g) =    DCD    1025517927
        0x0001b02c:    25783020     0x%    DCD    628633632
        0x0001b030:    0a583230    02X.    DCD    173552176
        0x0001b034:    00          .       DCB    0
    .L.str.15
        0x0001b035:    202020              DCB    32,32,32
        0x0001b038:    53465520     UFS    DCD    1397118240
        0x0001b03c:    55282052    R (U    DCD    1428693074
        0x0001b040:    65676173    sage    DCD    1701273971
        0x0001b044:    75614620     Fau    DCD    1969309216
        0x0001b048:    5320746c    lt S    DCD    1394635884
        0x0001b04c:    75746174    tatu    DCD    1970561396
        0x0001b050:    65522073    s Re    DCD    1699881075
        0x0001b054:    3d202967    g) =    DCD    1025517927
        0x0001b058:    25783020     0x%    DCD    628633632
        0x0001b05c:    0a583430    04X.    DCD    173552688
        0x0001b060:    00          .       DCB    0
    .L.str.27
        0x0001b061:    202020              DCB    32,32,32
        0x0001b064:    4f434420     DCO    DCD    1329808416
        0x0001b068:    46204544    DE F    DCD    1176520004
        0x0001b06c:    746c7561    ault    DCD    1953264993
        0x0001b070:    64644120     Add    DCD    1684291872
        0x0001b074:    73736572    ress    DCD    1936942450
        0x0001b078:    7830203a    : 0x    DCD    2016419898
        0x0001b07c:    58383025    %08X    DCD    1480077349
        0x0001b080:    000a        ..      DCW    10
    .L.str.26
        0x0001b082:    2020                DCW    8224
        0x0001b084:    43492020      IC    DCD    1128865824
        0x0001b088:    2045444f    ODE     DCD    541410383
        0x0001b08c:    6c756146    Faul    DCD    1819631942
        0x0001b090:    64412074    t Ad    DCD    1681989748
        0x0001b094:    73657264    dres    DCD    1936028260
        0x0001b098:    30203a73    s: 0    DCD    807418483
        0x0001b09c:    38302578    x%08    DCD    942679416
        0x0001b0a0:    0a58        X.      DCW    2648
        0x0001b0a2:    00          .       DCB    0
    .L.str.28
        0x0001b0a3:    20                  DCB    32
        0x0001b0a4:    53202020       S    DCD    1394614304
        0x0001b0a8:    46205359    YS F    DCD    1176523609
        0x0001b0ac:    746c7561    ault    DCD    1953264993
        0x0001b0b0:    64644120     Add    DCD    1684291872
        0x0001b0b4:    73736572    ress    DCD    1936942450
        0x0001b0b8:    7830203a    : 0x    DCD    2016419898
        0x0001b0bc:    58383025    %08X    DCD    1480077349
        0x0001b0c0:    000a        ..      DCW    10
    .L.str.3
        0x0001b0c2:    2020                DCW    8224
        0x0001b0c4:    30522020      R0    DCD    810688544
        0x0001b0c8:    203d2020      =     DCD    540876832
        0x0001b0cc:    30257830    0x%0    DCD    807761968
        0x0001b0d0:    000a5838    8X..    DCD    677944
    .L.str.13
        0x0001b0d4:    20202020            DCD    538976288
        0x0001b0d8:    52414642    BFAR    DCD    1380009538
        0x0001b0dc:    75422820     (Bu    DCD    1967269920
        0x0001b0e0:    61462073    s Fa    DCD    1631985779
        0x0001b0e4:    20746c75    ult     DCD    544500853
        0x0001b0e8:    72646441    Addr    DCD    1919181889
        0x0001b0ec:    67655220     Reg    DCD    1734693408
        0x0001b0f0:    203d2029    ) =     DCD    540876841
        0x0001b0f4:    30257830    0x%0    DCD    807761968
        0x0001b0f8:    000a5838    8X..    DCD    677944
    .L.str.12
        0x0001b0fc:    20202020            DCD    538976288
        0x0001b100:    6c756146    Faul    DCD    1819631942
        0x0001b104:    64612074    t ad    DCD    1684086900
        0x0001b108:    73657264    dres    DCD    1936028260
        0x0001b10c:    203d2073    s =     DCD    540876915
        0x0001b110:    30257830    0x%0    DCD    807761968
        0x0001b114:    000a5838    8X..    DCD    677944
    __tagsym$$used.1
    ui32DSP0Allowed
        0x0001b118:    00000000    ....    DCD    0
        0x0001b11c:    00000000    ....    DCD    0
        0x0001b120:    00000000    ....    DCD    0
        0x0001b124:    00000000    ....    DCD    0
        0x0001b128:    00000000    ....    DCD    0
    __tagsym$$used.2
    ui32DSP1Allowed
        0x0001b12c:    00000000    ....    DCD    0
        0x0001b130:    00000000    ....    DCD    0
        0x0001b134:    00000000    ....    DCD    0
        0x0001b138:    00000000    ....    DCD    0
        0x0001b13c:    00000000    ....    DCD    0
    ui32I2sWordLength
        0x0001b140:    00000008    ....    DCD    8
        0x0001b144:    00000000    ....    DCD    0
        0x0001b148:    00000010    ....    DCD    16
        0x0001b14c:    00000000    ....    DCD    0
        0x0001b150:    00000018    ....    DCD    24
        0x0001b154:    00000020     ...    DCD    32
    __tagsym$$used.0
    ui32MCUAllowed
        0x0001b158:    00000000    ....    DCD    0
        0x0001b15c:    00000000    ....    DCD    0
        0x0001b160:    00000000    ....    DCD    0
        0x0001b164:    00000000    ....    DCD    0
        0x0001b168:    00000000    ....    DCD    0
    __tagsym$$used.3
    ui32SharedAccess
        0x0001b16c:    00000000    ....    DCD    0
        0x0001b170:    00000000    ....    DCD    0
        0x0001b174:    00000000    ....    DCD    0
        0x0001b178:    00000000    ....    DCD    0
        0x0001b17c:    00000000    ....    DCD    0
    Region$$Table$$Base
        0x0001b180:    0001b1b0    ....    DCD    111024
        0x0001b184:    10000000    ....    DCD    268435456
        0x0001b188:    000000d0    ....    DCD    208
        0x0001b18c:    000182ac    ....    DCD    98988
        0x0001b190:    0001b280    ....    DCD    111232
        0x0001b194:    10060000    ....    DCD    268828672
        0x0001b198:    00002070    p ..    DCD    8304
        0x0001b19c:    00018270    p...    DCD    98928
        0x0001b1a0:    0001b280    ....    DCD    111232
        0x0001b1a4:    100000d0    ....    DCD    268435664
        0x0001b1a8:    00001750    P...    DCD    5968
        0x0001b1ac:    000182c8    ....    DCD    99016
    Region$$Table$$Limit

** Section #2 'MCU_TCM' (SHT_PROGBITS) [SHF_ALLOC + SHF_WRITE]
    Size   : 208 bytes (alignment 8)
    Address: 0x10000000

    0x10000000:   00 01 02 0f 01 00 00 00 92 24 01 80 20 01 00 00    .........$.. ...
    0x10000010:   6d db 02 40 d1 02 00 00 02 04 00 00 02 04 00 00    m..@............
    0x10000020:   0a 04 00 00 0a 04 00 00 02 04 00 00 02 04 00 00    ................
    0x10000030:   02 04 00 00 09 04 00 00 09 04 00 00 02 04 00 00    ................
    0x10000040:   00 04 00 00 00 02 0a 00 00 00 00 00 00 00 00 00    ................
    0x10000050:   74 00 00 10 e8 07 00 10 00 00 00 00 01 02 0a 00    t...............
    0x10000060:   00 00 00 00 00 00 00 00 74 00 00 10 e8 07 00 10    ........t.......
    0x10000070:   00 00 00 00 00 00 00 00 02 00 00 00 02 00 00 00    ................
    0x10000080:   05 05 00 00 01 00 00 00 04 04 00 00 2c 00 00 00    ............,...
    0x10000090:   04 00 00 00 08 1e 0c 40 18 1e 0c 40 00 00 00 00    .......@...@....
    0x100000a0:   00 00 00 00 00 01 00 00 00 00 00 00 00 00 00 00    ................
    0x100000b0:   00 01 00 00 00 00 00 00 00 00 00 00 00 01 00 00    ................
    0x100000c0:   00 00 00 00 00 00 00 00 00 01 00 00 00 00 00 00    ................


** Section #3 'MCU_TCM' (SHT_NOBITS) [SHF_ALLOC + SHF_WRITE]
    Size   : 5968 bytes (alignment 8)
    Address: 0x100000d0


** Section #4 'SHARED_SRAM' (SHT_PROGBITS) [SHF_ALLOC + SHF_WRITE]
    Size   : 72 bytes (alignment 4)
    Address: 0x10060000

    Data section was compressed (Original size: 8304 bytes)

    0x10060000:   08 ae 01 00 00 00 00 00 00 00 00 00 00 00 00 00    ................
    0x10060010:   00 00 00 00 00 00 00 00 00 00 00 00 00 00 00 00    ................
    0x10060020:   00 00 00 00 00 00 00 00 00 00 00 00 00 00 00 00    ................
    0x10060030:   00 00 00 00 00 00 00 00 00 00 00 00 00 00 00 00    ................
    0x10060040:   00 00 00 00 00 00 00 00 00 00 00 00 00 00 00 00    ................
    0x10060050:   00 00 00 00 00 00 00 00 00 00 00 00 00 00 00 00    ................
    0x10060060:   00 00 00 00 00 00 00 00 00 00 00 00 00 00 00 00    ................
    0x10060070:   00 00 00 00 00 00 00 00 00 00 00 00 00 00 00 00    ................
    0x10060080:   00 00 00 00 00 00 00 00 00 00 00 00 00 00 00 00    ................
    0x10060090:   00 00 00 00 00 00 00 00 00 00 00 00 00 00 00 00    ................
    0x100600a0:   00 00 00 00 00 00 00 00 00 00 00 00 00 00 00 00    ................
    0x100600b0:   00 00 00 00 00 00 00 00 00 00 00 00 00 00 00 00    ................
    0x100600c0:   00 00 00 00 00 00 00 00 00 00 00 00 00 00 00 00    ................
    0x100600d0:   00 00 00 00 00 00 00 00 00 00 00 00 00 00 00 00    ................
    0x100600e0:   00 00 00 00 00 00 00 00 00 00 00 00 00 00 00 00    ................
    0x100600f0:   00 00 00 00 00 00 00 00 00 00 00 00 00 00 00 00    ................
    0x10060100:   00 00 00 00 00 00 00 00 00 00 00 00 00 00 00 00    ................
    0x10060110:   00 00 00 00 00 00 00 00 00 00 00 00 00 00 00 00    ................
    0x10060120:   00 00 00 00 00 00 00 00 00 00 00 00 00 00 00 00    ................
    0x10060130:   00 00 00 00 00 00 00 00 00 00 00 00 00 00 00 00    ................
    0x10060140:   00 00 00 00 00 00 00 00 00 00 00 00 00 00 00 00    ................
    0x10060150:   00 00 00 00 00 00 00 00 00 00 00 00 00 00 00 00    ................
    0x10060160:   00 00 00 00 00 00 00 00 00 00 00 00 00 00 00 00    ................
    0x10060170:   00 00 00 00 00 00 00 00 00 00 00 00 00 00 00 00    ................
    0x10060180:   00 00 00 00 00 00 00 00 00 00 00 00 00 00 00 00    ................
    0x10060190:   00 00 00 00 00 00 00 00 00 00 00 00 00 00 00 00    ................
    0x100601a0:   00 00 00 00 00 00 00 00 00 00 00 00 00 00 00 00    ................
    0x100601b0:   00 00 00 00 00 00 00 00 00 00 00 00 00 00 00 00    ................
    0x100601c0:   00 00 00 00 00 00 00 00 00 00 00 00 00 00 00 00    ................
    0x100601d0:   00 00 00 00 00 00 00 00 00 00 00 00 00 00 00 00    ................
    0x100601e0:   00 00 00 00 00 00 00 00 00 00 00 00 00 00 00 00    ................
    0x100601f0:   00 00 00 00 00 00 00 00 00 00 00 00 00 00 00 00    ................
    0x10060200:   00 00 00 00 00 00 00 00 00 00 00 00 00 00 00 00    ................
    0x10060210:   00 00 00 00 00 00 00 00 00 00 00 00 00 00 00 00    ................
    0x10060220:   00 00 00 00 00 00 00 00 00 00 00 00 00 00 00 00    ................
    0x10060230:   00 00 00 00 00 00 00 00 00 00 00 00 00 00 00 00    ................
    0x10060240:   00 00 00 00 00 00 00 00 00 00 00 00 00 00 00 00    ................
    0x10060250:   00 00 00 00 00 00 00 00 00 00 00 00 00 00 00 00    ................
    0x10060260:   00 00 00 00 00 00 00 00 00 00 00 00 00 00 00 00    ................
    0x10060270:   00 00 00 00 00 00 00 00 00 00 00 00 00 00 00 00    ................
    0x10060280:   00 00 00 00 00 00 00 00 00 00 00 00 00 00 00 00    ................
    0x10060290:   00 00 00 00 00 00 00 00 00 00 00 00 00 00 00 00    ................
    0x100602a0:   00 00 00 00 00 00 00 00 00 00 00 00 00 00 00 00    ................
    0x100602b0:   00 00 00 00 00 00 00 00 00 00 00 00 00 00 00 00    ................
    0x100602c0:   00 00 00 00 00 00 00 00 00 00 00 00 00 00 00 00    ................
    0x100602d0:   00 00 00 00 00 00 00 00 00 00 00 00 00 00 00 00    ................
    0x100602e0:   00 00 00 00 00 00 00 00 00 00 00 00 00 00 00 00    ................
    0x100602f0:   00 00 00 00 00 00 00 00 00 00 00 00 00 00 00 00    ................
    0x10060300:   00 00 00 00 00 00 00 00 00 00 00 00 00 00 00 00    ................
    0x10060310:   00 00 00 00 00 00 00 00 00 00 00 00 00 00 00 00    ................
    0x10060320:   00 00 00 00 00 00 00 00 00 00 00 00 00 00 00 00    ................
    0x10060330:   00 00 00 00 00 00 00 00 00 00 00 00 00 00 00 00    ................
    0x10060340:   00 00 00 00 00 00 00 00 00 00 00 00 00 00 00 00    ................
    0x10060350:   00 00 00 00 00 00 00 00 00 00 00 00 00 00 00 00    ................
    0x10060360:   00 00 00 00 00 00 00 00 00 00 00 00 00 00 00 00    ................
    0x10060370:   00 00 00 00 00 00 00 00 00 00 00 00 00 00 00 00    ................
    0x10060380:   00 00 00 00 00 00 00 00 00 00 00 00 00 00 00 00    ................
    0x10060390:   00 00 00 00 00 00 00 00 00 00 00 00 00 00 00 00    ................
    0x100603a0:   00 00 00 00 00 00 00 00 00 00 00 00 00 00 00 00    ................
    0x100603b0:   00 00 00 00 00 00 00 00 00 00 00 00 00 00 00 00    ................
    0x100603c0:   00 00 00 00 00 00 00 00 00 00 00 00 00 00 00 00    ................
    0x100603d0:   00 00 00 00 00 00 00 00 00 00 00 00 00 00 00 00    ................
    0x100603e0:   00 00 00 00 00 00 00 00 00 00 00 00 00 00 00 00    ................
    0x100603f0:   00 00 00 00 00 00 00 00 00 00 00 00 00 00 00 00    ................
    0x10060400:   00 00 00 00 00 00 00 00 00 00 00 00 00 00 00 00    ................
    0x10060410:   00 00 00 00 00 00 00 00 00 00 00 00 00 00 00 00    ................
    0x10060420:   00 00 00 00 00 00 00 00 00 00 00 00 00 00 00 00    ................
    0x10060430:   00 00 00 00 00 00 00 00 00 00 00 00 00 00 00 00    ................
    0x10060440:   00 00 00 00 00 00 00 00 00 00 00 00 00 00 00 00    ................
    0x10060450:   00 00 00 00 00 00 00 00 00 00 00 00 00 00 00 00    ................
    0x10060460:   00 00 00 00 00 00 00 00 00 00 00 00 00 00 00 00    ................
    0x10060470:   00 00 00 00 00 00 00 00 00 00 00 00 00 00 00 00    ................
    0x10060480:   00 00 00 00 00 00 00 00 00 00 00 00 00 00 00 00    ................
    0x10060490:   00 00 00 00 00 00 00 00 00 00 00 00 00 00 00 00    ................
    0x100604a0:   00 00 00 00 00 00 00 00 00 00 00 00 00 00 00 00    ................
    0x100604b0:   00 00 00 00 00 00 00 00 00 00 00 00 00 00 00 00    ................
    0x100604c0:   00 00 00 00 00 00 00 00 00 00 00 00 00 00 00 00    ................
    0x100604d0:   00 00 00 00 00 00 00 00 00 00 00 00 00 00 00 00    ................
    0x100604e0:   00 00 00 00 00 00 00 00 00 00 00 00 00 00 00 00    ................
    0x100604f0:   00 00 00 00 00 00 00 00 00 00 00 00 00 00 00 00    ................
    0x10060500:   00 00 00 00 00 00 00 00 00 00 00 00 00 00 00 00    ................
    0x10060510:   00 00 00 00 00 00 00 00 00 00 00 00 00 00 00 00    ................
    0x10060520:   00 00 00 00 00 00 00 00 00 00 00 00 00 00 00 00    ................
    0x10060530:   00 00 00 00 00 00 00 00 00 00 00 00 00 00 00 00    ................
    0x10060540:   00 00 00 00 00 00 00 00 00 00 00 00 00 00 00 00    ................
    0x10060550:   00 00 00 00 00 00 00 00 00 00 00 00 00 00 00 00    ................
    0x10060560:   00 00 00 00 00 00 00 00 00 00 00 00 00 00 00 00    ................
    0x10060570:   00 00 00 00 00 00 00 00 00 00 00 00 00 00 00 00    ................
    0x10060580:   00 00 00 00 00 00 00 00 00 00 00 00 00 00 00 00    ................
    0x10060590:   00 00 00 00 00 00 00 00 00 00 00 00 00 00 00 00    ................
    0x100605a0:   00 00 00 00 00 00 00 00 00 00 00 00 00 00 00 00    ................
    0x100605b0:   00 00 00 00 00 00 00 00 00 00 00 00 00 00 00 00    ................
    0x100605c0:   00 00 00 00 00 00 00 00 00 00 00 00 00 00 00 00    ................
    0x100605d0:   00 00 00 00 00 00 00 00 00 00 00 00 00 00 00 00    ................
    0x100605e0:   00 00 00 00 00 00 00 00 00 00 00 00 00 00 00 00    ................
    0x100605f0:   00 00 00 00 00 00 00 00 00 00 00 00 00 00 00 00    ................
    0x10060600:   00 00 00 00 00 00 00 00 00 00 00 00 00 00 00 00    ................
    0x10060610:   00 00 00 00 00 00 00 00 00 00 00 00 00 00 00 00    ................
    0x10060620:   00 00 00 00 00 00 00 00 00 00 00 00 00 00 00 00    ................
    0x10060630:   00 00 00 00 00 00 00 00 00 00 00 00 00 00 00 00    ................
    0x10060640:   00 00 00 00 00 00 00 00 00 00 00 00 00 00 00 00    ................
    0x10060650:   00 00 00 00 00 00 00 00 00 00 00 00 00 00 00 00    ................
    0x10060660:   00 00 00 00 00 00 00 00 00 00 00 00 00 00 00 00    ................
    0x10060670:   00 00 00 00 00 00 00 00 00 00 00 00 00 00 00 00    ................
    0x10060680:   00 00 00 00 00 00 00 00 00 00 00 00 00 00 00 00    ................
    0x10060690:   00 00 00 00 00 00 00 00 00 00 00 00 00 00 00 00    ................
    0x100606a0:   00 00 00 00 00 00 00 00 00 00 00 00 00 00 00 00    ................
    0x100606b0:   00 00 00 00 00 00 00 00 00 00 00 00 00 00 00 00    ................
    0x100606c0:   00 00 00 00 00 00 00 00 00 00 00 00 00 00 00 00    ................
    0x100606d0:   00 00 00 00 00 00 00 00 00 00 00 00 00 00 00 00    ................
    0x100606e0:   00 00 00 00 00 00 00 00 00 00 00 00 00 00 00 00    ................
    0x100606f0:   00 00 00 00 00 00 00 00 00 00 00 00 00 00 00 00    ................
    0x10060700:   00 00 00 00 00 00 00 00 00 00 00 00 00 00 00 00    ................
    0x10060710:   00 00 00 00 00 00 00 00 00 00 00 00 00 00 00 00    ................
    0x10060720:   00 00 00 00 00 00 00 00 00 00 00 00 00 00 00 00    ................
    0x10060730:   00 00 00 00 00 00 00 00 00 00 00 00 00 00 00 00    ................
    0x10060740:   00 00 00 00 00 00 00 00 00 00 00 00 00 00 00 00    ................
    0x10060750:   00 00 00 00 00 00 00 00 00 00 00 00 00 00 00 00    ................
    0x10060760:   00 00 00 00 00 00 00 00 00 00 00 00 00 00 00 00    ................
    0x10060770:   00 00 00 00 00 00 00 00 00 00 00 00 00 00 00 00    ................
    0x10060780:   00 00 00 00 00 00 00 00 00 00 00 00 00 00 00 00    ................
    0x10060790:   00 00 00 00 00 00 00 00 00 00 00 00 00 00 00 00    ................
    0x100607a0:   00 00 00 00 00 00 00 00 00 00 00 00 00 00 00 00    ................
    0x100607b0:   00 00 00 00 00 00 00 00 00 00 00 00 00 00 00 00    ................
    0x100607c0:   00 00 00 00 00 00 00 00 00 00 00 00 00 00 00 00    ................
    0x100607d0:   00 00 00 00 00 00 00 00 00 00 00 00 00 00 00 00    ................
    0x100607e0:   00 00 00 00 00 00 00 00 00 00 00 00 00 00 00 00    ................
    0x100607f0:   00 00 00 00 00 00 00 00 00 00 00 00 00 00 00 00    ................
    0x10060800:   00 00 00 00 00 00 00 00 00 00 00 00 00 00 00 00    ................
    0x10060810:   00 00 00 00 00 00 00 00 00 00 00 00 00 00 00 00    ................
    0x10060820:   00 00 00 00 00 00 00 00 00 00 00 00 00 00 00 00    ................
    0x10060830:   00 00 00 00 00 00 00 00 00 00 00 00 00 00 00 00    ................
    0x10060840:   00 00 00 00 00 00 00 00 00 00 00 00 00 00 00 00    ................
    0x10060850:   00 00 00 00 00 00 00 00 00 00 00 00 00 00 00 00    ................
    0x10060860:   00 00 00 00 00 00 00 00 00 00 00 00 00 00 00 00    ................
    0x10060870:   00 00 00 00 00 00 00 00 00 00 00 00 00 00 00 00    ................
    0x10060880:   00 00 00 00 00 00 00 00 00 00 00 00 00 00 00 00    ................
    0x10060890:   00 00 00 00 00 00 00 00 00 00 00 00 00 00 00 00    ................
    0x100608a0:   00 00 00 00 00 00 00 00 00 00 00 00 00 00 00 00    ................
    0x100608b0:   00 00 00 00 00 00 00 00 00 00 00 00 00 00 00 00    ................
    0x100608c0:   00 00 00 00 00 00 00 00 00 00 00 00 00 00 00 00    ................
    0x100608d0:   00 00 00 00 00 00 00 00 00 00 00 00 00 00 00 00    ................
    0x100608e0:   00 00 00 00 00 00 00 00 00 00 00 00 00 00 00 00    ................
    0x100608f0:   00 00 00 00 00 00 00 00 00 00 00 00 00 00 00 00    ................
    0x10060900:   00 00 00 00 00 00 00 00 00 00 00 00 00 00 00 00    ................
    0x10060910:   00 00 00 00 00 00 00 00 00 00 00 00 00 00 00 00    ................
    0x10060920:   00 00 00 00 00 00 00 00 00 00 00 00 00 00 00 00    ................
    0x10060930:   00 00 00 00 00 00 00 00 00 00 00 00 00 00 00 00    ................
    0x10060940:   00 00 00 00 00 00 00 00 00 00 00 00 00 00 00 00    ................
    0x10060950:   00 00 00 00 00 00 00 00 00 00 00 00 00 00 00 00    ................
    0x10060960:   00 00 00 00 00 00 00 00 00 00 00 00 00 00 00 00    ................
    0x10060970:   00 00 00 00 00 00 00 00 00 00 00 00 00 00 00 00    ................
    0x10060980:   00 00 00 00 00 00 00 00 00 00 00 00 00 00 00 00    ................
    0x10060990:   00 00 00 00 00 00 00 00 00 00 00 00 00 00 00 00    ................
    0x100609a0:   00 00 00 00 00 00 00 00 00 00 00 00 00 00 00 00    ................
    0x100609b0:   00 00 00 00 00 00 00 00 00 00 00 00 00 00 00 00    ................
    0x100609c0:   00 00 00 00 00 00 00 00 00 00 00 00 00 00 00 00    ................
    0x100609d0:   00 00 00 00 00 00 00 00 00 00 00 00 00 00 00 00    ................
    0x100609e0:   00 00 00 00 00 00 00 00 00 00 00 00 00 00 00 00    ................
    0x100609f0:   00 00 00 00 00 00 00 00 00 00 00 00 00 00 00 00    ................
    0x10060a00:   00 00 00 00 00 00 00 00 00 00 00 00 00 00 00 00    ................
    0x10060a10:   00 00 00 00 00 00 00 00 00 00 00 00 00 00 00 00    ................
    0x10060a20:   00 00 00 00 00 00 00 00 00 00 00 00 00 00 00 00    ................
    0x10060a30:   00 00 00 00 00 00 00 00 00 00 00 00 00 00 00 00    ................
    0x10060a40:   00 00 00 00 00 00 00 00 00 00 00 00 00 00 00 00    ................
    0x10060a50:   00 00 00 00 00 00 00 00 00 00 00 00 00 00 00 00    ................
    0x10060a60:   00 00 00 00 00 00 00 00 00 00 00 00 00 00 00 00    ................
    0x10060a70:   00 00 00 00 00 00 00 00 00 00 00 00 00 00 00 00    ................
    0x10060a80:   00 00 00 00 00 00 00 00 00 00 00 00 00 00 00 00    ................
    0x10060a90:   00 00 00 00 00 00 00 00 00 00 00 00 00 00 00 00    ................
    0x10060aa0:   00 00 00 00 00 00 00 00 00 00 00 00 00 00 00 00    ................
    0x10060ab0:   00 00 00 00 00 00 00 00 00 00 00 00 00 00 00 00    ................
    0x10060ac0:   00 00 00 00 00 00 00 00 00 00 00 00 00 00 00 00    ................
    0x10060ad0:   00 00 00 00 00 00 00 00 00 00 00 00 00 00 00 00    ................
    0x10060ae0:   00 00 00 00 00 00 00 00 00 00 00 00 00 00 00 00    ................
    0x10060af0:   00 00 00 00 00 00 00 00 00 00 00 00 00 00 00 00    ................
    0x10060b00:   00 00 00 00 00 00 00 00 00 00 00 00 00 00 00 00    ................
    0x10060b10:   00 00 00 00 00 00 00 00 00 00 00 00 00 00 00 00    ................
    0x10060b20:   00 00 00 00 00 00 00 00 00 00 00 00 00 00 00 00    ................
    0x10060b30:   00 00 00 00 00 00 00 00 00 00 00 00 00 00 00 00    ................
    0x10060b40:   00 00 00 00 00 00 00 00 00 00 00 00 00 00 00 00    ................
    0x10060b50:   00 00 00 00 00 00 00 00 00 00 00 00 00 00 00 00    ................
    0x10060b60:   00 00 00 00 00 00 00 00 00 00 00 00 00 00 00 00    ................
    0x10060b70:   00 00 00 00 00 00 00 00 00 00 00 00 00 00 00 00    ................
    0x10060b80:   00 00 00 00 00 00 00 00 00 00 00 00 00 00 00 00    ................
    0x10060b90:   00 00 00 00 00 00 00 00 00 00 00 00 00 00 00 00    ................
    0x10060ba0:   00 00 00 00 00 00 00 00 00 00 00 00 00 00 00 00    ................
    0x10060bb0:   00 00 00 00 00 00 00 00 00 00 00 00 00 00 00 00    ................
    0x10060bc0:   00 00 00 00 00 00 00 00 00 00 00 00 00 00 00 00    ................
    0x10060bd0:   00 00 00 00 00 00 00 00 00 00 00 00 00 00 00 00    ................
    0x10060be0:   00 00 00 00 00 00 00 00 00 00 00 00 00 00 00 00    ................
    0x10060bf0:   00 00 00 00 00 00 00 00 00 00 00 00 00 00 00 00    ................
    0x10060c00:   00 00 00 00 00 00 00 00 00 00 00 00 00 00 00 00    ................
    0x10060c10:   00 00 00 00 00 00 00 00 00 00 00 00 00 00 00 00    ................
    0x10060c20:   00 00 00 00 00 00 00 00 00 00 00 00 00 00 00 00    ................
    0x10060c30:   00 00 00 00 00 00 00 00 00 00 00 00 00 00 00 00    ................
    0x10060c40:   00 00 00 00 00 00 00 00 00 00 00 00 00 00 00 00    ................
    0x10060c50:   00 00 00 00 00 00 00 00 00 00 00 00 00 00 00 00    ................
    0x10060c60:   00 00 00 00 00 00 00 00 00 00 00 00 00 00 00 00    ................
    0x10060c70:   00 00 00 00 00 00 00 00 00 00 00 00 00 00 00 00    ................
    0x10060c80:   00 00 00 00 00 00 00 00 00 00 00 00 00 00 00 00    ................
    0x10060c90:   00 00 00 00 00 00 00 00 00 00 00 00 00 00 00 00    ................
    0x10060ca0:   00 00 00 00 00 00 00 00 00 00 00 00 00 00 00 00    ................
    0x10060cb0:   00 00 00 00 00 00 00 00 00 00 00 00 00 00 00 00    ................
    0x10060cc0:   00 00 00 00 00 00 00 00 00 00 00 00 00 00 00 00    ................
    0x10060cd0:   00 00 00 00 00 00 00 00 00 00 00 00 00 00 00 00    ................
    0x10060ce0:   00 00 00 00 00 00 00 00 00 00 00 00 00 00 00 00    ................
    0x10060cf0:   00 00 00 00 00 00 00 00 00 00 00 00 00 00 00 00    ................
    0x10060d00:   00 00 00 00 00 00 00 00 00 00 00 00 00 00 00 00    ................
    0x10060d10:   00 00 00 00 00 00 00 00 00 00 00 00 00 00 00 00    ................
    0x10060d20:   00 00 00 00 00 00 00 00 00 00 00 00 00 00 00 00    ................
    0x10060d30:   00 00 00 00 00 00 00 00 00 00 00 00 00 00 00 00    ................
    0x10060d40:   00 00 00 00 00 00 00 00 00 00 00 00 00 00 00 00    ................
    0x10060d50:   00 00 00 00 00 00 00 00 00 00 00 00 00 00 00 00    ................
    0x10060d60:   00 00 00 00 00 00 00 00 00 00 00 00 00 00 00 00    ................
    0x10060d70:   00 00 00 00 00 00 00 00 00 00 00 00 00 00 00 00    ................
    0x10060d80:   00 00 00 00 00 00 00 00 00 00 00 00 00 00 00 00    ................
    0x10060d90:   00 00 00 00 00 00 00 00 00 00 00 00 00 00 00 00    ................
    0x10060da0:   00 00 00 00 00 00 00 00 00 00 00 00 00 00 00 00    ................
    0x10060db0:   00 00 00 00 00 00 00 00 00 00 00 00 00 00 00 00    ................
    0x10060dc0:   00 00 00 00 00 00 00 00 00 00 00 00 00 00 00 00    ................
    0x10060dd0:   00 00 00 00 00 00 00 00 00 00 00 00 00 00 00 00    ................
    0x10060de0:   00 00 00 00 00 00 00 00 00 00 00 00 00 00 00 00    ................
    0x10060df0:   00 00 00 00 00 00 00 00 00 00 00 00 00 00 00 00    ................
    0x10060e00:   00 00 00 00 00 00 00 00 00 00 00 00 00 00 00 00    ................
    0x10060e10:   00 00 00 00 00 00 00 00 00 00 00 00 00 00 00 00    ................
    0x10060e20:   00 00 00 00 00 00 00 00 00 00 00 00 00 00 00 00    ................
    0x10060e30:   00 00 00 00 00 00 00 00 00 00 00 00 00 00 00 00    ................
    0x10060e40:   00 00 00 00 00 00 00 00 00 00 00 00 00 00 00 00    ................
    0x10060e50:   00 00 00 00 00 00 00 00 00 00 00 00 00 00 00 00    ................
    0x10060e60:   00 00 00 00 00 00 00 00 00 00 00 00 00 00 00 00    ................
    0x10060e70:   00 00 00 00 00 00 00 00 00 00 00 00 00 00 00 00    ................
    0x10060e80:   00 00 00 00 00 00 00 00 00 00 00 00 00 00 00 00    ................
    0x10060e90:   00 00 00 00 00 00 00 00 00 00 00 00 00 00 00 00    ................
    0x10060ea0:   00 00 00 00 00 00 00 00 00 00 00 00 00 00 00 00    ................
    0x10060eb0:   00 00 00 00 00 00 00 00 00 00 00 00 00 00 00 00    ................
    0x10060ec0:   00 00 00 00 00 00 00 00 00 00 00 00 00 00 00 00    ................
    0x10060ed0:   00 00 00 00 00 00 00 00 00 00 00 00 00 00 00 00    ................
    0x10060ee0:   00 00 00 00 00 00 00 00 00 00 00 00 00 00 00 00    ................
    0x10060ef0:   00 00 00 00 00 00 00 00 00 00 00 00 00 00 00 00    ................
    0x10060f00:   00 00 00 00 00 00 00 00 00 00 00 00 00 00 00 00    ................
    0x10060f10:   00 00 00 00 00 00 00 00 00 00 00 00 00 00 00 00    ................
    0x10060f20:   00 00 00 00 00 00 00 00 00 00 00 00 00 00 00 00    ................
    0x10060f30:   00 00 00 00 00 00 00 00 00 00 00 00 00 00 00 00    ................
    0x10060f40:   00 00 00 00 00 00 00 00 00 00 00 00 00 00 00 00    ................
    0x10060f50:   00 00 00 00 00 00 00 00 00 00 00 00 00 00 00 00    ................
    0x10060f60:   00 00 00 00 00 00 00 00 00 00 00 00 00 00 00 00    ................
    0x10060f70:   00 00 00 00 00 00 00 00 00 00 00 00 00 00 00 00    ................
    0x10060f80:   00 00 00 00 00 00 00 00 00 00 00 00 00 00 00 00    ................
    0x10060f90:   00 00 00 00 00 00 00 00 00 00 00 00 00 00 00 00    ................
    0x10060fa0:   00 00 00 00 00 00 00 00 00 00 00 00 00 00 00 00    ................
    0x10060fb0:   00 00 00 00 00 00 00 00 00 00 00 00 00 00 00 00    ................
    0x10060fc0:   00 00 00 00 00 00 00 00 00 00 00 00 00 00 00 00    ................
    0x10060fd0:   00 00 00 00 00 00 00 00 00 00 00 00 00 00 00 00    ................
    0x10060fe0:   00 00 00 00 00 00 00 00 00 00 00 00 00 00 00 00    ................
    0x10060ff0:   00 00 00 00 00 00 00 00 00 00 00 00 00 00 00 00    ................
    0x10061000:   00 00 00 00 00 00 00 00 00 00 00 00 00 00 00 00    ................
    0x10061010:   00 00 00 00 00 00 00 00 00 00 00 00 00 00 00 00    ................
    0x10061020:   00 00 00 00 00 00 00 00 00 00 00 00 00 00 00 00    ................
    0x10061030:   00 00 00 00 00 00 00 00 00 00 00 00 00 00 00 00    ................
    0x10061040:   00 00 00 00 00 00 00 00 00 00 00 00 00 00 00 00    ................
    0x10061050:   00 00 00 00 00 00 00 00 00 00 00 00 00 00 00 00    ................
    0x10061060:   00 00 00 00 00 00 00 00 00 00 00 00 00 00 00 00    ................
    0x10061070:   00 00 00 00 00 00 00 00 00 00 00 00 00 00 00 00    ................
    0x10061080:   00 00 00 00 00 00 00 00 00 00 00 00 00 00 00 00    ................
    0x10061090:   00 00 00 00 00 00 00 00 00 00 00 00 00 00 00 00    ................
    0x100610a0:   00 00 00 00 00 00 00 00 00 00 00 00 00 00 00 00    ................
    0x100610b0:   00 00 00 00 00 00 00 00 00 00 00 00 00 00 00 00    ................
    0x100610c0:   00 00 00 00 00 00 00 00 00 00 00 00 00 00 00 00    ................
    0x100610d0:   00 00 00 00 00 00 00 00 00 00 00 00 00 00 00 00    ................
    0x100610e0:   00 00 00 00 00 00 00 00 00 00 00 00 00 00 00 00    ................
    0x100610f0:   00 00 00 00 00 00 00 00 00 00 00 00 00 00 00 00    ................
    0x10061100:   00 00 00 00 00 00 00 00 00 00 00 00 00 00 00 00    ................
    0x10061110:   00 00 00 00 00 00 00 00 00 00 00 00 00 00 00 00    ................
    0x10061120:   00 00 00 00 00 00 00 00 00 00 00 00 00 00 00 00    ................
    0x10061130:   00 00 00 00 00 00 00 00 00 00 00 00 00 00 00 00    ................
    0x10061140:   00 00 00 00 00 00 00 00 00 00 00 00 00 00 00 00    ................
    0x10061150:   00 00 00 00 00 00 00 00 00 00 00 00 00 00 00 00    ................
    0x10061160:   00 00 00 00 00 00 00 00 00 00 00 00 00 00 00 00    ................
    0x10061170:   00 00 00 00 00 00 00 00 00 00 00 00 00 00 00 00    ................
    0x10061180:   00 00 00 00 00 00 00 00 00 00 00 00 00 00 00 00    ................
    0x10061190:   00 00 00 00 00 00 00 00 00 00 00 00 00 00 00 00    ................
    0x100611a0:   00 00 00 00 00 00 00 00 00 00 00 00 00 00 00 00    ................
    0x100611b0:   00 00 00 00 00 00 00 00 00 00 00 00 00 00 00 00    ................
    0x100611c0:   00 00 00 00 00 00 00 00 00 00 00 00 00 00 00 00    ................
    0x100611d0:   00 00 00 00 00 00 00 00 00 00 00 00 00 00 00 00    ................
    0x100611e0:   00 00 00 00 00 00 00 00 00 00 00 00 00 00 00 00    ................
    0x100611f0:   00 00 00 00 00 00 00 00 00 00 00 00 00 00 00 00    ................
    0x10061200:   00 00 00 00 00 00 00 00 00 00 00 00 00 00 00 00    ................
    0x10061210:   00 00 00 00 00 00 00 00 00 00 00 00 00 00 00 00    ................
    0x10061220:   00 00 00 00 00 00 00 00 00 00 00 00 00 00 00 00    ................
    0x10061230:   00 00 00 00 00 00 00 00 00 00 00 00 00 00 00 00    ................
    0x10061240:   00 00 00 00 00 00 00 00 00 00 00 00 00 00 00 00    ................
    0x10061250:   00 00 00 00 00 00 00 00 00 00 00 00 00 00 00 00    ................
    0x10061260:   00 00 00 00 00 00 00 00 00 00 00 00 00 00 00 00    ................
    0x10061270:   00 00 00 00 00 00 00 00 00 00 00 00 00 00 00 00    ................
    0x10061280:   00 00 00 00 00 00 00 00 00 00 00 00 00 00 00 00    ................
    0x10061290:   00 00 00 00 00 00 00 00 00 00 00 00 00 00 00 00    ................
    0x100612a0:   00 00 00 00 00 00 00 00 00 00 00 00 00 00 00 00    ................
    0x100612b0:   00 00 00 00 00 00 00 00 00 00 00 00 00 00 00 00    ................
    0x100612c0:   00 00 00 00 00 00 00 00 00 00 00 00 00 00 00 00    ................
    0x100612d0:   00 00 00 00 00 00 00 00 00 00 00 00 00 00 00 00    ................
    0x100612e0:   00 00 00 00 00 00 00 00 00 00 00 00 00 00 00 00    ................
    0x100612f0:   00 00 00 00 00 00 00 00 00 00 00 00 00 00 00 00    ................
    0x10061300:   00 00 00 00 00 00 00 00 00 00 00 00 00 00 00 00    ................
    0x10061310:   00 00 00 00 00 00 00 00 00 00 00 00 00 00 00 00    ................
    0x10061320:   00 00 00 00 00 00 00 00 00 00 00 00 00 00 00 00    ................
    0x10061330:   00 00 00 00 00 00 00 00 00 00 00 00 00 00 00 00    ................
    0x10061340:   00 00 00 00 00 00 00 00 00 00 00 00 00 00 00 00    ................
    0x10061350:   00 00 00 00 00 00 00 00 00 00 00 00 00 00 00 00    ................
    0x10061360:   00 00 00 00 00 00 00 00 00 00 00 00 00 00 00 00    ................
    0x10061370:   00 00 00 00 00 00 00 00 00 00 00 00 00 00 00 00    ................
    0x10061380:   00 00 00 00 00 00 00 00 00 00 00 00 00 00 00 00    ................
    0x10061390:   00 00 00 00 00 00 00 00 00 00 00 00 00 00 00 00    ................
    0x100613a0:   00 00 00 00 00 00 00 00 00 00 00 00 00 00 00 00    ................
    0x100613b0:   00 00 00 00 00 00 00 00 00 00 00 00 00 00 00 00    ................
    0x100613c0:   00 00 00 00 00 00 00 00 00 00 00 00 00 00 00 00    ................
    0x100613d0:   00 00 00 00 00 00 00 00 00 00 00 00 00 00 00 00    ................
    0x100613e0:   00 00 00 00 00 00 00 00 00 00 00 00 00 00 00 00    ................
    0x100613f0:   00 00 00 00 00 00 00 00 00 00 00 00 00 00 00 00    ................
    0x10061400:   00 00 00 00 00 00 00 00 00 00 00 00 00 00 00 00    ................
    0x10061410:   00 00 00 00 00 00 00 00 00 00 00 00 00 00 00 00    ................
    0x10061420:   00 00 00 00 00 00 00 00 00 00 00 00 00 00 00 00    ................
    0x10061430:   00 00 00 00 00 00 00 00 00 00 00 00 00 00 00 00    ................
    0x10061440:   00 00 00 00 00 00 00 00 00 00 00 00 00 00 00 00    ................
    0x10061450:   00 00 00 00 00 00 00 00 00 00 00 00 00 00 00 00    ................
    0x10061460:   00 00 00 00 00 00 00 00 00 00 00 00 00 00 00 00    ................
    0x10061470:   00 00 00 00 00 00 00 00 00 00 00 00 00 00 00 00    ................
    0x10061480:   00 00 00 00 00 00 00 00 00 00 00 00 00 00 00 00    ................
    0x10061490:   00 00 00 00 00 00 00 00 00 00 00 00 00 00 00 00    ................
    0x100614a0:   00 00 00 00 00 00 00 00 00 00 00 00 00 00 00 00    ................
    0x100614b0:   00 00 00 00 00 00 00 00 00 00 00 00 00 00 00 00    ................
    0x100614c0:   00 00 00 00 00 00 00 00 00 00 00 00 00 00 00 00    ................
    0x100614d0:   00 00 00 00 00 00 00 00 00 00 00 00 00 00 00 00    ................
    0x100614e0:   00 00 00 00 00 00 00 00 00 00 00 00 00 00 00 00    ................
    0x100614f0:   00 00 00 00 00 00 00 00 00 00 00 00 00 00 00 00    ................
    0x10061500:   00 00 00 00 00 00 00 00 00 00 00 00 00 00 00 00    ................
    0x10061510:   00 00 00 00 00 00 00 00 00 00 00 00 00 00 00 00    ................
    0x10061520:   00 00 00 00 00 00 00 00 00 00 00 00 00 00 00 00    ................
    0x10061530:   00 00 00 00 00 00 00 00 00 00 00 00 00 00 00 00    ................
    0x10061540:   00 00 00 00 00 00 00 00 00 00 00 00 00 00 00 00    ................
    0x10061550:   00 00 00 00 00 00 00 00 00 00 00 00 00 00 00 00    ................
    0x10061560:   00 00 00 00 00 00 00 00 00 00 00 00 00 00 00 00    ................
    0x10061570:   00 00 00 00 00 00 00 00 00 00 00 00 00 00 00 00    ................
    0x10061580:   00 00 00 00 00 00 00 00 00 00 00 00 00 00 00 00    ................
    0x10061590:   00 00 00 00 00 00 00 00 00 00 00 00 00 00 00 00    ................
    0x100615a0:   00 00 00 00 00 00 00 00 00 00 00 00 00 00 00 00    ................
    0x100615b0:   00 00 00 00 00 00 00 00 00 00 00 00 00 00 00 00    ................
    0x100615c0:   00 00 00 00 00 00 00 00 00 00 00 00 00 00 00 00    ................
    0x100615d0:   00 00 00 00 00 00 00 00 00 00 00 00 00 00 00 00    ................
    0x100615e0:   00 00 00 00 00 00 00 00 00 00 00 00 00 00 00 00    ................
    0x100615f0:   00 00 00 00 00 00 00 00 00 00 00 00 00 00 00 00    ................
    0x10061600:   00 00 00 00 00 00 00 00 00 00 00 00 00 00 00 00    ................
    0x10061610:   00 00 00 00 00 00 00 00 00 00 00 00 00 00 00 00    ................
    0x10061620:   00 00 00 00 00 00 00 00 00 00 00 00 00 00 00 00    ................
    0x10061630:   00 00 00 00 00 00 00 00 00 00 00 00 00 00 00 00    ................
    0x10061640:   00 00 00 00 00 00 00 00 00 00 00 00 00 00 00 00    ................
    0x10061650:   00 00 00 00 00 00 00 00 00 00 00 00 00 00 00 00    ................
    0x10061660:   00 00 00 00 00 00 00 00 00 00 00 00 00 00 00 00    ................
    0x10061670:   00 00 00 00 00 00 00 00 00 00 00 00 00 00 00 00    ................
    0x10061680:   00 00 00 00 00 00 00 00 00 00 00 00 00 00 00 00    ................
    0x10061690:   00 00 00 00 00 00 00 00 00 00 00 00 00 00 00 00    ................
    0x100616a0:   00 00 00 00 00 00 00 00 00 00 00 00 00 00 00 00    ................
    0x100616b0:   00 00 00 00 00 00 00 00 00 00 00 00 00 00 00 00    ................
    0x100616c0:   00 00 00 00 00 00 00 00 00 00 00 00 00 00 00 00    ................
    0x100616d0:   00 00 00 00 00 00 00 00 00 00 00 00 00 00 00 00    ................
    0x100616e0:   00 00 00 00 00 00 00 00 00 00 00 00 00 00 00 00    ................
    0x100616f0:   00 00 00 00 00 00 00 00 00 00 00 00 00 00 00 00    ................
    0x10061700:   00 00 00 00 00 00 00 00 00 00 00 00 00 00 00 00    ................
    0x10061710:   00 00 00 00 00 00 00 00 00 00 00 00 00 00 00 00    ................
    0x10061720:   00 00 00 00 00 00 00 00 00 00 00 00 00 00 00 00    ................
    0x10061730:   00 00 00 00 00 00 00 00 00 00 00 00 00 00 00 00    ................
    0x10061740:   00 00 00 00 00 00 00 00 00 00 00 00 00 00 00 00    ................
    0x10061750:   00 00 00 00 00 00 00 00 00 00 00 00 00 00 00 00    ................
    0x10061760:   00 00 00 00 00 00 00 00 00 00 00 00 00 00 00 00    ................
    0x10061770:   00 00 00 00 00 00 00 00 00 00 00 00 00 00 00 00    ................
    0x10061780:   00 00 00 00 00 00 00 00 00 00 00 00 00 00 00 00    ................
    0x10061790:   00 00 00 00 00 00 00 00 00 00 00 00 00 00 00 00    ................
    0x100617a0:   00 00 00 00 00 00 00 00 00 00 00 00 00 00 00 00    ................
    0x100617b0:   00 00 00 00 00 00 00 00 00 00 00 00 00 00 00 00    ................
    0x100617c0:   00 00 00 00 00 00 00 00 00 00 00 00 00 00 00 00    ................
    0x100617d0:   00 00 00 00 00 00 00 00 00 00 00 00 00 00 00 00    ................
    0x100617e0:   00 00 00 00 00 00 00 00 00 00 00 00 00 00 00 00    ................
    0x100617f0:   00 00 00 00 00 00 00 00 00 00 00 00 00 00 00 00    ................
    0x10061800:   00 00 00 00 00 00 00 00 00 00 00 00 00 00 00 00    ................
    0x10061810:   00 00 00 00 00 00 00 00 00 00 00 00 00 00 00 00    ................
    0x10061820:   00 00 00 00 00 00 00 00 00 00 00 00 00 00 00 00    ................
    0x10061830:   00 00 00 00 00 00 00 00 00 00 00 00 00 00 00 00    ................
    0x10061840:   00 00 00 00 00 00 00 00 00 00 00 00 00 00 00 00    ................
    0x10061850:   00 00 00 00 00 00 00 00 00 00 00 00 00 00 00 00    ................
    0x10061860:   00 00 00 00 00 00 00 00 00 00 00 00 00 00 00 00    ................
    0x10061870:   00 00 00 00 00 00 00 00 00 00 00 00 00 00 00 00    ................
    0x10061880:   00 00 00 00 00 00 00 00 00 00 00 00 00 00 00 00    ................
    0x10061890:   00 00 00 00 00 00 00 00 00 00 00 00 00 00 00 00    ................
    0x100618a0:   00 00 00 00 00 00 00 00 00 00 00 00 00 00 00 00    ................
    0x100618b0:   00 00 00 00 00 00 00 00 00 00 00 00 00 00 00 00    ................
    0x100618c0:   00 00 00 00 00 00 00 00 00 00 00 00 00 00 00 00    ................
    0x100618d0:   00 00 00 00 00 00 00 00 00 00 00 00 00 00 00 00    ................
    0x100618e0:   00 00 00 00 00 00 00 00 00 00 00 00 00 00 00 00    ................
    0x100618f0:   00 00 00 00 00 00 00 00 00 00 00 00 00 00 00 00    ................
    0x10061900:   00 00 00 00 00 00 00 00 00 00 00 00 00 00 00 00    ................
    0x10061910:   00 00 00 00 00 00 00 00 00 00 00 00 00 00 00 00    ................
    0x10061920:   00 00 00 00 00 00 00 00 00 00 00 00 00 00 00 00    ................
    0x10061930:   00 00 00 00 00 00 00 00 00 00 00 00 00 00 00 00    ................
    0x10061940:   00 00 00 00 00 00 00 00 00 00 00 00 00 00 00 00    ................
    0x10061950:   00 00 00 00 00 00 00 00 00 00 00 00 00 00 00 00    ................
    0x10061960:   00 00 00 00 00 00 00 00 00 00 00 00 00 00 00 00    ................
    0x10061970:   00 00 00 00 00 00 00 00 00 00 00 00 00 00 00 00    ................
    0x10061980:   00 00 00 00 00 00 00 00 00 00 00 00 00 00 00 00    ................
    0x10061990:   00 00 00 00 00 00 00 00 00 00 00 00 00 00 00 00    ................
    0x100619a0:   00 00 00 00 00 00 00 00 00 00 00 00 00 00 00 00    ................
    0x100619b0:   00 00 00 00 00 00 00 00 00 00 00 00 00 00 00 00    ................
    0x100619c0:   00 00 00 00 00 00 00 00 00 00 00 00 00 00 00 00    ................
    0x100619d0:   00 00 00 00 00 00 00 00 00 00 00 00 00 00 00 00    ................
    0x100619e0:   00 00 00 00 00 00 00 00 00 00 00 00 00 00 00 00    ................
    0x100619f0:   00 00 00 00 00 00 00 00 00 00 00 00 00 00 00 00    ................
    0x10061a00:   00 00 00 00 00 00 00 00 00 00 00 00 00 00 00 00    ................
    0x10061a10:   00 00 00 00 00 00 00 00 00 00 00 00 00 00 00 00    ................
    0x10061a20:   00 00 00 00 00 00 00 00 00 00 00 00 00 00 00 00    ................
    0x10061a30:   00 00 00 00 00 00 00 00 00 00 00 00 00 00 00 00    ................
    0x10061a40:   00 00 00 00 00 00 00 00 00 00 00 00 00 00 00 00    ................
    0x10061a50:   00 00 00 00 00 00 00 00 00 00 00 00 00 00 00 00    ................
    0x10061a60:   00 00 00 00 00 00 00 00 00 00 00 00 00 00 00 00    ................
    0x10061a70:   00 00 00 00 00 00 00 00 00 00 00 00 00 00 00 00    ................
    0x10061a80:   00 00 00 00 00 00 00 00 00 00 00 00 00 00 00 00    ................
    0x10061a90:   00 00 00 00 00 00 00 00 00 00 00 00 00 00 00 00    ................
    0x10061aa0:   00 00 00 00 00 00 00 00 00 00 00 00 00 00 00 00    ................
    0x10061ab0:   00 00 00 00 00 00 00 00 00 00 00 00 00 00 00 00    ................
    0x10061ac0:   00 00 00 00 00 00 00 00 00 00 00 00 00 00 00 00    ................
    0x10061ad0:   00 00 00 00 00 00 00 00 00 00 00 00 00 00 00 00    ................
    0x10061ae0:   00 00 00 00 00 00 00 00 00 00 00 00 00 00 00 00    ................
    0x10061af0:   00 00 00 00 00 00 00 00 00 00 00 00 00 00 00 00    ................
    0x10061b00:   00 00 00 00 00 00 00 00 00 00 00 00 00 00 00 00    ................
    0x10061b10:   00 00 00 00 00 00 00 00 00 00 00 00 00 00 00 00    ................
    0x10061b20:   00 00 00 00 00 00 00 00 00 00 00 00 00 00 00 00    ................
    0x10061b30:   00 00 00 00 00 00 00 00 00 00 00 00 00 00 00 00    ................
    0x10061b40:   00 00 00 00 00 00 00 00 00 00 00 00 00 00 00 00    ................
    0x10061b50:   00 00 00 00 00 00 00 00 00 00 00 00 00 00 00 00    ................
    0x10061b60:   00 00 00 00 00 00 00 00 00 00 00 00 00 00 00 00    ................
    0x10061b70:   00 00 00 00 00 00 00 00 00 00 00 00 00 00 00 00    ................
    0x10061b80:   00 00 00 00 00 00 00 00 00 00 00 00 00 00 00 00    ................
    0x10061b90:   00 00 00 00 00 00 00 00 00 00 00 00 00 00 00 00    ................
    0x10061ba0:   00 00 00 00 00 00 00 00 00 00 00 00 00 00 00 00    ................
    0x10061bb0:   00 00 00 00 00 00 00 00 00 00 00 00 00 00 00 00    ................
    0x10061bc0:   00 00 00 00 00 00 00 00 00 00 00 00 00 00 00 00    ................
    0x10061bd0:   00 00 00 00 00 00 00 00 00 00 00 00 00 00 00 00    ................
    0x10061be0:   00 00 00 00 00 00 00 00 00 00 00 00 00 00 00 00    ................
    0x10061bf0:   00 00 00 00 00 00 00 00 00 00 00 00 00 00 00 00    ................
    0x10061c00:   00 00 00 00 00 00 00 00 00 00 00 00 00 00 00 00    ................
    0x10061c10:   00 00 00 00 00 00 00 00 00 00 00 00 00 00 00 00    ................
    0x10061c20:   00 00 00 00 00 00 00 00 00 00 00 00 00 00 00 00    ................
    0x10061c30:   00 00 00 00 00 00 00 00 00 00 00 00 00 00 00 00    ................
    0x10061c40:   00 00 00 00 00 00 00 00 00 00 00 00 00 00 00 00    ................
    0x10061c50:   00 00 00 00 00 00 00 00 00 00 00 00 00 00 00 00    ................
    0x10061c60:   00 00 00 00 00 00 00 00 00 00 00 00 00 00 00 00    ................
    0x10061c70:   00 00 00 00 00 00 00 00 00 00 00 00 00 00 00 00    ................
    0x10061c80:   00 00 00 00 00 00 00 00 00 00 00 00 00 00 00 00    ................
    0x10061c90:   00 00 00 00 00 00 00 00 00 00 00 00 00 00 00 00    ................
    0x10061ca0:   00 00 00 00 00 00 00 00 00 00 00 00 00 00 00 00    ................
    0x10061cb0:   00 00 00 00 00 00 00 00 00 00 00 00 00 00 00 00    ................
    0x10061cc0:   00 00 00 00 00 00 00 00 00 00 00 00 00 00 00 00    ................
    0x10061cd0:   00 00 00 00 00 00 00 00 00 00 00 00 00 00 00 00    ................
    0x10061ce0:   00 00 00 00 00 00 00 00 00 00 00 00 00 00 00 00    ................
    0x10061cf0:   00 00 00 00 00 00 00 00 00 00 00 00 00 00 00 00    ................
    0x10061d00:   00 00 00 00 00 00 00 00 00 00 00 00 00 00 00 00    ................
    0x10061d10:   00 00 00 00 00 00 00 00 00 00 00 00 00 00 00 00    ................
    0x10061d20:   00 00 00 00 00 00 00 00 00 00 00 00 00 00 00 00    ................
    0x10061d30:   00 00 00 00 00 00 00 00 00 00 00 00 00 00 00 00    ................
    0x10061d40:   00 00 00 00 00 00 00 00 00 00 00 00 00 00 00 00    ................
    0x10061d50:   00 00 00 00 00 00 00 00 00 00 00 00 00 00 00 00    ................
    0x10061d60:   00 00 00 00 00 00 00 00 00 00 00 00 00 00 00 00    ................
    0x10061d70:   00 00 00 00 00 00 00 00 00 00 00 00 00 00 00 00    ................
    0x10061d80:   00 00 00 00 00 00 00 00 00 00 00 00 00 00 00 00    ................
    0x10061d90:   00 00 00 00 00 00 00 00 00 00 00 00 00 00 00 00    ................
    0x10061da0:   00 00 00 00 00 00 00 00 00 00 00 00 00 00 00 00    ................
    0x10061db0:   00 00 00 00 00 00 00 00 00 00 00 00 00 00 00 00    ................
    0x10061dc0:   00 00 00 00 00 00 00 00 00 00 00 00 00 00 00 00    ................
    0x10061dd0:   00 00 00 00 00 00 00 00 00 00 00 00 00 00 00 00    ................
    0x10061de0:   00 00 00 00 00 00 00 00 00 00 00 00 00 00 00 00    ................
    0x10061df0:   00 00 00 00 00 00 00 00 00 00 00 00 00 00 00 00    ................
    0x10061e00:   00 00 00 00 00 00 00 00 00 00 00 00 00 00 00 00    ................
    0x10061e10:   00 00 00 00 00 00 00 00 00 00 00 00 00 00 00 00    ................
    0x10061e20:   00 00 00 00 00 00 00 00 00 00 00 00 00 00 00 00    ................
    0x10061e30:   00 00 00 00 00 00 00 00 00 00 00 00 00 00 00 00    ................
    0x10061e40:   00 00 00 00 00 00 00 00 00 00 00 00 00 00 00 00    ................
    0x10061e50:   00 00 00 00 00 00 00 00 00 00 00 00 00 00 00 00    ................
    0x10061e60:   00 00 00 00 00 00 00 00 00 00 00 00 00 00 00 00    ................
    0x10061e70:   00 00 00 00 00 00 00 00 00 00 00 00 00 00 00 00    ................
    0x10061e80:   00 00 00 00 00 00 00 00 00 00 00 00 00 00 00 00    ................
    0x10061e90:   00 00 00 00 00 00 00 00 00 00 00 00 00 00 00 00    ................
    0x10061ea0:   00 00 00 00 00 00 00 00 00 00 00 00 00 00 00 00    ................
    0x10061eb0:   00 00 00 00 00 00 00 00 00 00 00 00 00 00 00 00    ................
    0x10061ec0:   00 00 00 00 00 00 00 00 00 00 00 00 00 00 00 00    ................
    0x10061ed0:   00 00 00 00 00 00 00 00 00 00 00 00 00 00 00 00    ................
    0x10061ee0:   00 00 00 00 00 00 00 00 00 00 00 00 00 00 00 00    ................
    0x10061ef0:   00 00 00 00 00 00 00 00 00 00 00 00 00 00 00 00    ................
    0x10061f00:   00 00 00 00 00 00 00 00 00 00 00 00 00 00 00 00    ................
    0x10061f10:   00 00 00 00 00 00 00 00 00 00 00 00 00 00 00 00    ................
    0x10061f20:   00 00 00 00 00 00 00 00 00 00 00 00 00 00 00 00    ................
    0x10061f30:   00 00 00 00 00 00 00 00 00 00 00 00 00 00 00 00    ................
    0x10061f40:   00 00 00 00 00 00 00 00 00 00 00 00 00 00 00 00    ................
    0x10061f50:   00 00 00 00 00 00 00 00 00 00 00 00 00 00 00 00    ................
    0x10061f60:   00 00 00 00 00 00 00 00 00 00 00 00 00 00 00 00    ................
    0x10061f70:   00 00 00 00 00 00 00 00 00 00 00 00 00 00 00 00    ................
    0x10061f80:   00 00 00 00 00 00 00 00 00 00 00 00 00 00 00 00    ................
    0x10061f90:   00 00 00 00 00 00 00 00 00 00 00 00 00 00 00 00    ................
    0x10061fa0:   00 00 00 00 00 00 00 00 00 00 00 00 00 00 00 00    ................
    0x10061fb0:   00 00 00 00 00 00 00 00 00 00 00 00 00 00 00 00    ................
    0x10061fc0:   00 00 00 00 00 00 00 00 00 00 00 00 00 00 00 00    ................
    0x10061fd0:   00 00 00 00 00 00 00 00 00 00 00 00 00 00 00 00    ................
    0x10061fe0:   00 00 00 00 00 00 00 00 00 00 00 00 00 00 00 00    ................
    0x10061ff0:   00 00 00 00 00 00 00 00 00 00 00 00 00 00 00 00    ................
    0x10062000:   00 00 00 00 00 00 00 00 00 00 00 00 00 00 00 00    ................
    0x10062010:   00 00 00 00 00 00 00 00 00 00 00 00 00 00 00 00    ................
    0x10062020:   00 00 00 00 00 00 00 00 00 00 00 00 00 00 00 00    ................
    0x10062030:   00 00 00 00 00 00 00 00 00 00 00 00 00 00 00 00    ................
    0x10062040:   00 00 00 00 00 00 00 00 00 00 00 00 00 00 00 00    ................
    0x10062050:   00 00 00 00 00 00 00 00 00 00 00 00 00 00 00 00    ................
    0x10062060:   00 00 00 00 00 00 00 00 00 00 00 00 00 00 00 00    ................


** Section #5 '.debug_abbrev' (SHT_PROGBITS)
    Size   : 1796 bytes


** Section #6 '.debug_frame' (SHT_PROGBITS)
    Size   : 4620 bytes


** Section #7 '.debug_info' (SHT_PROGBITS)
    Size   : 7893 bytes


** Section #8 '.debug_line' (SHT_PROGBITS)
    Size   : 4908 bytes


** Section #9 '.debug_loc' (SHT_PROGBITS)
    Size   : 6753 bytes


** Section #10 '.debug_str' (SHT_PROGBITS)
    Size   : 8853 bytes


** Section #11 '.debug_ranges' (SHT_PROGBITS)
    Size   : 344 bytes


** Section #12 '.symtab' (SHT_SYMTAB)
    Size   : 8240 bytes (alignment 4)
    String table #13 '.strtab'
    Last local symbol no. 263

    Symbol table .symtab (514 symbols, 263 local)

      #  Symbol Name                Value      Bind  Sec  Type  Vis  Size
    ========================================================================

      1  $d                         0x00018000   Lc    1   --   De 
      2  $t                         0x00018200   Lc    1   --   De 
      3  $d                         0x00018230   Lc    1   --   De 
      4  $t                         0x00018234   Lc    1   --   De 
      5  $d                         0x00018268   Lc    1   --   De 
      6  $t                         0x00018270   Lc    1   --   De 
      7  $d                         0x0001831a   Lc    1   --   De 
      8  $t                         0x00018328   Lc    1   --   De 
      9  $d                         0x000184cc   Lc    1   --   De 
     10  $t                         0x000184d0   Lc    1   --   De 
     11  $d                         0x000184d8   Lc    1   --   De 
     12  $t                         0x000184dc   Lc    1   --   De 
     13  $t.0                       0x000184e0   Lc    1   --   De 
     14  $d.7                       0x00018500   Lc    1   --   De 
     15  $t.25                      0x00018504   Lc    1   --   De 
     16  $d.1                       0x0001871e   Lc    1   --   De 
     17  $t.2                       0x0001875c   Lc    1   --   De 
     18  $d.9                       0x00018a20   Lc    1   --   De 
     19  $t.10                      0x00018a24   Lc    1   --   De 
     20  $d.2                       0x00018da8   Lc    1   --   De 
     21  $t.5                       0x00018db8   Lc    1   --   De 
     22  $d.2                       0x00019568   Lc    1   --   De 
     23  $t.3                       0x00019574   Lc    1   --   De 
     24  $d.3                       0x00019c2a   Lc    1   --   De 
     25  $t.4                       0x00019c32   Lc    1   --   De 
     26  $d.5                       0x00019ce8   Lc    1   --   De 
     27  $t.9                       0x00019d74   Lc    1   --   De 
     28  $d.14                      0x00019dd0   Lc    1   --   De 
     29  $t.3                       0x00019de4   Lc    1   --   De 
     30  $d.4                       0x00019ed2   Lc    1   --   De 
     31  $t.5                       0x00019eda   Lc    1   --   De 
     32  $d.4                       0x0001a9b8   Lc    1   --   De 
     33  $t.7                       0x0001aa40   Lc    1   --   De 
     34  $t                         0x0001aa94   Lc    1   --   De 
     35  $d                         0x0001aae4   Lc    1   --   De 
     36  $t                         0x0001aae8   Lc    1   --   De 
     37  $d                         0x0001ab66   Lc    1   --   De 
     38  $t                         0x0001ab6a   Lc    1   --   De 
     39  $d.realdata                0x0001abb8   Lc    1   --   De 
     40  $d.realdata                0x10000000   Lc    2   --   De 
     41  $d.realdata                0x10060000   Lc    4   --   De 
     42  am_resources.c             0x00000000   Lc  Abs  File  De 
     43  __tagsym$$used.0           0x0001b158   Lc    1   --   De 
     44  __tagsym$$used.1           0x0001b118   Lc    1   --   De 
     45  __tagsym$$used.2           0x0001b12c   Lc    1   --   De 
     46  __tagsym$$used.3           0x0001b16c   Lc    1   --   De 
     47  __tagsym$$used.4           0x10060004   Lc    4   --   De 
     48  __tagsym$$used.5           0x10060018   Lc    4   --   De 
     49  __tagsym$$used.6           0x1006002c   Lc    4   --   De 
     50  __tagsym$$used.7           0x0001ae08   Lc    1   --   De 
     51  __tagsym$$used.8           0x10060000   Lc    4   --   De 
     52  i2s_loopback.c             0x00000000   Lc  Abs  File  De 
     53  check_i2s_data             0x0001a4f9   Lc    1  Code  De   0x62
     54  g_sI2S0Config              0x10000044   Lc    2  Data  De   0x18
     55  g_sI2S1Config              0x1000005c   Lc    2  Data  De   0x18
     56  __tagsym$$used.0           0x10060040   Lc    4   --   De 
     57  __tagsym$$used.1           0x1006084c   Lc    4   --   De 
     58  __tagsym$$used.2           0x10061058   Lc    4   --   De 
     59  __tagsym$$used.3           0x10061864   Lc    4   --   De 
     60  sTransfer0                 0x1000009c   Lc    2  Data  De   0x18
     61  sTransfer1                 0x100000b4   Lc    2  Data  De   0x18
     62  g_ui32TestLoop             0x1000080c   Lc    3  Data  De   0x4
     63  g_sI2SDataConfig           0x10000074   Lc    2  Data  De   0x18
     64  g_sI2SIOConfig             0x100007e8   Lc    3  Data  De   0x10
     65  am_util_delay.c            0x00000000   Lc  Abs  File  De 
     66  am_util_faultisr.c         0x00000000   Lc  Abs  File  De 
     67  .L.str.1                   0x0001ae24   Lc    1  Data  De   0x43
     68  .L.str.29                  0x0001ae67   Lc    1  Data  De   0x2e
     69  .L.str                     0x0001ae95   Lc    1  Data  De   0x1a
     70  .L.str.2                   0x0001aeaf   Lc    1  Data  De   0x1a
     71  .L.str.25                  0x0001aec9   Lc    1  Data  De   0x12
     72  .L.str.11                  0x0001aedb   Lc    1  Data  De   0x18
     73  .L.str.18                  0x0001aef3   Lc    1  Data  De   0x1d
     74  .L.str.17                  0x0001af10   Lc    1  Data  De   0x1e
     75  .L.str.23                  0x0001af2e   Lc    1  Data  De   0x1f
     76  .L.str.20                  0x0001af4d   Lc    1  Data  De   0x1b
     77  .L.str.21                  0x0001af68   Lc    1  Data  De   0x1d
     78  .L.str.19                  0x0001af85   Lc    1  Data  De   0x1b
     79  .L.str.22                  0x0001afa0   Lc    1  Data  De   0x20
     80  .L.str.24                  0x0001afc0   Lc    1  Data  De   0x1c
     81  .L.str.16                  0x0001afdc   Lc    1  Data  De   0x2a
     82  .L.str.14                  0x0001b006   Lc    1  Data  De   0x2f
     83  .L.str.15                  0x0001b035   Lc    1  Data  De   0x2c
     84  .L.str.27                  0x0001b061   Lc    1  Data  De   0x21
     85  .L.str.26                  0x0001b082   Lc    1  Data  De   0x21
     86  .L.str.28                  0x0001b0a3   Lc    1  Data  De   0x1f
     87  .L.str.3                   0x0001b0c2   Lc    1  Data  De   0x12
     88  .L.str.13                  0x0001b0d4   Lc    1  Data  De   0x28
     89  .L.str.12                  0x0001b0fc   Lc    1  Data  De   0x1c
     90  am_util_stdio.c            0x00000000   Lc  Abs  File  De 
     91  decstr_to_int              0x0001a631   Lc    1  Code  De   0x58
     92  uint64_to_str              0x0001aa41   Lc    1  Code  De   0x54
     93  divu64_10                  0x0001a689   Lc    1  Code  De   0xbe
     94  g_bTxtXlate                0x100003d9   Lc    3  Data  De   0x1
     95  g_prfbuf                   0x100003e8   Lc    3  Data  De   0x400
     96  ../keil6/startup_keil6.s   0x00000000   Lc  Abs  File  De 
     97  STACK                      0x10000820   Lc    3  Sect  De   0x1000
     98  StackMem                   0x10000820   Lc    3  Data  De 
     99  HEAP                       0x10000820   Lc    3  Sect  De 
    100  HeapMem                    0x10000820   Lc    3  Data  De 
    101  RESET                      0x00018000   Lc    1  Sect  De   0x234
    102  $v0                        0x00018200   Lc    1   --   De 
    103  am_cryptosec_isr           0x0001822f   Lc    1  Code  De 
    104  am_default_isr             0x0001822f   Lc    1  Code  De   0x2
    105  .text                      0x00018310   Lc    1  Sect  De   0x18
    106  $v0                        0x00018310   Lc    1   --   De 
    107  am_bsp.c                   0x00000000   Lc  Abs  File  De 
    108  g_ePrintInterface          0x100003da   Lc    3  Data  De   0x1
    109  am_hal_clkgen.c            0x00000000   Lc  Abs  File  De 
    110  am_hal_fault.c             0x00000000   Lc  Abs  File  De 
    111  am_hal_interrupt.c         0x00000000   Lc  Abs  File  De 
    112  am_hal_mcuctrl.c           0x00000000   Lc  Abs  File  De 
    113  am_hal_utils.c             0x00000000   Lc  Abs  File  De 
    114  am_hal_i2s.c               0x00000000   Lc  Abs  File  De 
    115  ui32I2sWordLength          0x0001b140   Lc    1  Data  De   0x18
    116  am_bsp_pins.c              0x00000000   Lc  Abs  File  De 
    117  am_hal_bootrom_helper.c    0x00000000   Lc  Abs  File  De 
    118  am_hal_cachectrl.c         0x00000000   Lc  Abs  File  De 
    119  am_hal_itm.c               0x00000000   Lc  Abs  File  De 
    120  am_hal_rtc.c               0x00000000   Lc  Abs  File  De 
    121  am_hal_tpiu.c              0x00000000   Lc  Abs  File  De 
    122  am_hal_uart.c              0x00000000   Lc  Abs  File  De 
    123  am_hal_dcu.c               0x00000000   Lc  Abs  File  De 
    124  am_hal_gpio.c              0x00000000   Lc  Abs  File  De 
    125  g_ui32DSpintbl             0x00018da8   Lc    1   --   De 
    126  am_hal_pwrctrl.c           0x00000000   Lc  Abs  File  De 
    127  g_bBoostForCryptoApplied   0x100003d8   Lc    3  Data  De   0x1
    128  g_i32LatestVddfActTrim     0x100003e0   Lc    3  Data  De   0x4
    129  g_i32LatestLDOActTrim      0x100003dc   Lc    3  Data  De   0x4
    130  g_ui32VDDFAdjustCodes      0x10000810   Lc    3  Data  De   0x4
    131  am_hal_mram.c              0x00000000   Lc  Abs  File  De 
    132  am_hal_adc.c               0x00000000   Lc  Abs  File  De 
    133  am_hal_pin.c               0x00000000   Lc  Abs  File  De 
    134  am_hal_queue.c             0x00000000   Lc  Abs  File  De 
    135  dc.s                       0x00000000   Lc  Abs  File  De 
    136  ../clib/longlong.s         0x00000000   Lc  Abs  File  De 
    137  .text                      0x00018328   Lc    1  Sect  De   0xf0
    138  ../clib/memcpset.s         0x00000000   Lc  Abs  File  De 
    139  .text                      0x00018418   Lc    1  Sect  De   0x4e
    140  ../clib/heapaux.c          0x00000000   Lc  Abs  File  De 
    141  .text                      0x00018466   Lc    1  Sect  De 
    142  ../clib/angel/startup.s    0x00000000   Lc  Abs  File  De 
    143  !!!main                    0x00018234   Lc    1  Sect  De   0x8
    144  ../clib/angel/handlers.s   0x00000000   Lc  Abs  File  De 
    145  !!handler_copy             0x000182ac   Lc    1  Sect  De   0x1a
    146  ../fplib/d2f.s             0x00000000   Lc  Abs  File  De 
    147  x$fpl$d2f                  0x0001aa94   Lc    1  Sect  De   0x62
    148  $v0                        0x0001aa94   Lc    1   --   De 
    149  ../clib/angel/kernel.s     0x00000000   Lc  Abs  File  De 
    150  .ARM.Collect$$rtentry$$00000000
                                    0x000182f0   Lc    1  Sect  De 
    151  ../clib/angel/rt.s         0x00000000   Lc  Abs  File  De 
    152  ../clib/angel/rt.s         0x00000000   Lc  Abs  File  De 
    153  ../fplib/dnaninf.s         0x00000000   Lc  Abs  File  De 
    154  x$fpl$dnaninf              0x0001aaf6   Lc    1  Sect  De   0x9c
    155  $v0                        0x0001aaf6   Lc    1   --   De 
    156  ../fplib/fretinf.s         0x00000000   Lc  Abs  File  De 
    157  x$fpl$fretinf              0x0001abac   Lc    1  Sect  De   0xa
    158  $v0                        0x0001abac   Lc    1   --   De 
    159  ../fplib/usenofp.s         0x00000000   Lc  Abs  File  De 
    160  x$fpl$usenofp              0x0001abb6   Lc    1  Sect  De 
    161  ../clib/angel/kernel.s     0x00000000   Lc  Abs  File  De 
    162  .ARM.Collect$$rtentry$$00000002
                                    0x000182f0   Lc    1  Sect  De 
    163  .ARM.Collect$$rtentry$$00000009
                                    0x000182f6   Lc    1  Sect  De 
    164  .ARM.Collect$$rtentry$$0000000A
                                    0x000182f6   Lc    1  Sect  De   0x4
    165  .ARM.Collect$$rtentry$$0000000C
                                    0x000182fa   Lc    1  Sect  De 
    166  .ARM.Collect$$rtentry$$0000000D
                                    0x000182fa   Lc    1  Sect  De   0x8
    167  ../clib/angel/kernel.s     0x00000000   Lc  Abs  File  De 
    168  .ARM.Collect$$rtentry$$00000004
                                    0x000182f0   Lc    1  Sect  De   0x6
    169  ../clib/angel/rt.s         0x00000000   Lc  Abs  File  De 
    170  ../clib/angel/sys.s        0x00000000   Lc  Abs  File  De 
    171  .text                      0x0001846c   Lc    1  Sect  De   0x4a
    172  ../clib/stdlib.c           0x00000000   Lc  Abs  File  De 
    173  .text                      0x000184b6   Lc    1  Sect  De 
    174  ../clib/signal.c           0x00000000   Lc  Abs  File  De 
    175  ../clib/signal.c           0x00000000   Lc  Abs  File  De 
    176  ../clib/angel/boardlib.s   0x00000000   Lc  Abs  File  De 
    177  ../clib/angel/boardlib.s   0x00000000   Lc  Abs  File  De 
    178  ../clib/angel/boardlib.s   0x00000000   Lc  Abs  File  De 
    179  ../clib/libinit.s          0x00000000   Lc  Abs  File  De 
    180  .ARM.Collect$$libinit$$00000000
                                    0x000182e4   Lc    1  Sect  De   0x2
    181  ../clib/angel/sys.s        0x00000000   Lc  Abs  File  De 
    182  .text                      0x000184c8   Lc    1  Sect  De   0x8
    183  .bss                       0x100000d0   Lc    3  Sect  De   0x60
    184  ../clib/angel/kernel.s     0x00000000   Lc  Abs  File  De 
    185  .ARM.Collect$$rtexit$$00000000
                                    0x00018302   Lc    1  Sect  De   0x2
    186  ../clib/angel/rt.s         0x00000000   Lc  Abs  File  De 
    187  ../clib/signal.c           0x00000000   Lc  Abs  File  De 
    188  ../clib/signal.c           0x00000000   Lc  Abs  File  De 
    189  ../clib/libinit.s          0x00000000   Lc  Abs  File  De 
    190  .ARM.Collect$$libinit$$00000001
                                    0x000182e6   Lc    1  Sect  De   0x4
    191  .ARM.Collect$$libinit$$00000004
                                    0x000182ea   Lc    1  Sect  De 
    192  .ARM.Collect$$libinit$$0000000A
                                    0x000182ea   Lc    1  Sect  De 
    193  .ARM.Collect$$libinit$$0000000C
                                    0x000182ea   Lc    1  Sect  De 
    194  .ARM.Collect$$libinit$$0000000E
                                    0x000182ea   Lc    1  Sect  De 
    195  .ARM.Collect$$libinit$$00000011
                                    0x000182ea   Lc    1  Sect  De 
    196  .ARM.Collect$$libinit$$00000013
                                    0x000182ea   Lc    1  Sect  De 
    197  .ARM.Collect$$libinit$$00000015
                                    0x000182ea   Lc    1  Sect  De 
    198  .ARM.Collect$$libinit$$00000017
                                    0x000182ea   Lc    1  Sect  De 
    199  .ARM.Collect$$libinit$$00000019
                                    0x000182ea   Lc    1  Sect  De 
    200  .ARM.Collect$$libinit$$0000001B
                                    0x000182ea   Lc    1  Sect  De 
    201  .ARM.Collect$$libinit$$0000001D
                                    0x000182ea   Lc    1  Sect  De 
    202  .ARM.Collect$$libinit$$0000001F
                                    0x000182ea   Lc    1  Sect  De 
    203  .ARM.Collect$$libinit$$00000021
                                    0x000182ea   Lc    1  Sect  De 
    204  .ARM.Collect$$libinit$$00000023
                                    0x000182ea   Lc    1  Sect  De 
    205  .ARM.Collect$$libinit$$00000025
                                    0x000182ea   Lc    1  Sect  De 
    206  .ARM.Collect$$libinit$$0000002C
                                    0x000182ea   Lc    1  Sect  De 
    207  .ARM.Collect$$libinit$$0000002E
                                    0x000182ea   Lc    1  Sect  De 
    208  .ARM.Collect$$libinit$$00000030
                                    0x000182ea   Lc    1  Sect  De 
    209  .ARM.Collect$$libinit$$00000032
                                    0x000182ea   Lc    1  Sect  De 
    210  .ARM.Collect$$libinit$$00000033
                                    0x000182ea   Lc    1  Sect  De   0x2
    211  ../clib/angel/sysapp.c     0x00000000   Lc  Abs  File  De 
    212  .text                      0x000184d0   Lc    1  Sect  De 
    213  ../clib/angel/sysapp.c     0x00000000   Lc  Abs  File  De 
    214  ../clib/angel/kernel.s     0x00000000   Lc  Abs  File  De 
    215  .ARM.Collect$$rtexit$$00000002
                                    0x00018304   Lc    1  Sect  De 
    216  .ARM.Collect$$rtexit$$00000003
                                    0x00018304   Lc    1  Sect  De   0x4
    217  .ARM.Collect$$rtexit$$00000004
                                    0x00018308   Lc    1  Sect  De   0x6
    218  ../clib/signal.c           0x00000000   Lc  Abs  File  De 
    219  ../clib/signal.c           0x00000000   Lc  Abs  File  De 
    220  ../clib/armsys.c           0x00000000   Lc  Abs  File  De 
    221  ../clib/armsys.c           0x00000000   Lc  Abs  File  De 
    222  ../fplib/fpinit.s          0x00000000   Lc  Abs  File  De 
    223  x$fpl$fpinit               0x0001ab92   Lc    1  Sect  De   0x1a
    224  $v0                        0x0001ab92   Lc    1   --   De 
    225  ../clib/angel/sysapp.c     0x00000000   Lc  Abs  File  De 
    226  ../clib/angel/sysapp.c     0x00000000   Lc  Abs  File  De 
    227  ../clib/angel/sys.s        0x00000000   Lc  Abs  File  De 
    228  .text                      0x000184dc   Lc    1  Sect  De   0x2
    229  ../clib/angel/sys.s        0x00000000   Lc  Abs  File  De 
    230  .text                      0x000184de   Lc    1  Sect  De 
    231  ../clib/signal.s           0x00000000   Lc  Abs  File  De 
    232  ../clib/angel/boardlib.s   0x00000000   Lc  Abs  File  De 
    233  ../clib/armsys.c           0x00000000   Lc  Abs  File  De 
    234  ../clib/armsys.c           0x00000000   Lc  Abs  File  De 
    235  ../clib/libinit.s          0x00000000   Lc  Abs  File  De 
    236  .ARM.Collect$$libshutdown$$00000000
                                    0x000182ec   Lc    1  Sect  De   0x2
    237  ../clib/angel/sysapp.c     0x00000000   Lc  Abs  File  De 
    238  ../clib/angel/sysapp.c     0x00000000   Lc  Abs  File  De 
    239  ../clib/heapalloc.c        0x00000000   Lc  Abs  File  De 
    240  ../clib/signal.c           0x00000000   Lc  Abs  File  De 
    241  ../clib/signal.c           0x00000000   Lc  Abs  File  De 
    242  ../clib/signal.c           0x00000000   Lc  Abs  File  De 
    243  ../clib/signal.c           0x00000000   Lc  Abs  File  De 
    244  ../clib/signal.c           0x00000000   Lc  Abs  File  De 
    245  ../clib/signal.c           0x00000000   Lc  Abs  File  De 
    246  ../clib/signal.c           0x00000000   Lc  Abs  File  De 
    247  ../clib/signal.c           0x00000000   Lc  Abs  File  De 
    248  ../clib/signal.c           0x00000000   Lc  Abs  File  De 
    249  ../clib/signal.c           0x00000000   Lc  Abs  File  De 
    250  ../clib/libinit.s          0x00000000   Lc  Abs  File  De 
    251  .ARM.Collect$$libshutdown$$00000002
                                    0x000182ee   Lc    1  Sect  De 
    252  .ARM.Collect$$libshutdown$$00000004
                                    0x000182ee   Lc    1  Sect  De 
    253  .ARM.Collect$$libshutdown$$00000007
                                    0x000182ee   Lc    1  Sect  De 
    254  .ARM.Collect$$libshutdown$$0000000A
                                    0x000182ee   Lc    1  Sect  De 
    255  .ARM.Collect$$libshutdown$$0000000C
                                    0x000182ee   Lc    1  Sect  De 
    256  .ARM.Collect$$libshutdown$$0000000F
                                    0x000182ee   Lc    1  Sect  De 
    257  .ARM.Collect$$libshutdown$$00000010
                                    0x000182ee   Lc    1  Sect  De   0x2
    258  ../clib/angel/dczerorl.s   0x00000000   Lc  Abs  File  De 
    259  !!dczerorl                 0x00018270   Lc    1  Sect  De   0x3a
    260  ../clib/angel/scatter.s    0x00000000   Lc  Abs  File  De 
    261  !!!scatter                 0x0001823c   Lc    1  Sect  De   0x34
    262  ../clib/angel/handlers.s   0x00000000   Lc  Abs  File  De 
    263  !!handler_zi               0x000182c8   Lc    1  Sect  De   0x1c
    264  BuildAttributes$$THM_ISAv4$E$P$D$K$B$S$7EM$VFPi3$EXTD16$VFPS$VFMA$PE$A:L22UL41UL21$X:L11$S22US41US21$IEEE1$IW$~IW$USESV6$~STKCKD$USESV7$~SHL$OSPACE$ROPI$EBA8$UX$STANDARDLIB$REQ8$PRES8$EABIv2
                                    0x00000000   Gb  Abs   --   Hi 
    265  __Vectors                  0x00018000   Gb    1  Data  Hi 
    266  __Patchable                0x00018190   Gb    1  Data  Hi 
    267  Reset_Handler              0x00018201   Wk    1  Code  Hi   0x1c
    268  NMI_Handler                0x0001821f   Wk    1  Code  Hi   0x2
    269  MemManage_Handler          0x00018221   Wk    1  Code  Hi   0x2
    270  BusFault_Handler           0x00018223   Wk    1  Code  Hi   0x2
    271  UsageFault_Handler         0x00018225   Wk    1  Code  Hi   0x2
    272  SVC_Handler                0x00018227   Wk    1  Code  Hi   0x2
    273  DebugMon_Handler           0x00018229   Wk    1  Code  Hi   0x2
    274  PendSV_Handler             0x0001822b   Wk    1  Code  Hi   0x2
    275  SysTick_Handler            0x0001822d   Wk    1  Code  Hi   0x2
    276  am_adc_isr                 0x0001822f   Wk    1  Code  Hi 
    277  am_audadc0_isr             0x0001822f   Wk    1  Code  Hi 
    278  am_brownout_isr            0x0001822f   Wk    1  Code  Hi 
    279  am_cachecpu_isr            0x0001822f   Wk    1  Code  Hi 
    280  am_clkgen_isr              0x0001822f   Wk    1  Code  Hi 
    281  am_ctimer_isr              0x0001822f   Wk    1  Code  Hi 
    282  am_disp_isr                0x0001822f   Wk    1  Code  Hi 
    283  am_dsi_isr                 0x0001822f   Wk    1  Code  Hi 
    284  am_dspi2s2_isr             0x0001822f   Wk    1  Code  Hi 
    285  am_dspi2s3_isr             0x0001822f   Wk    1  Code  Hi 
    286  am_gpio0_001f_isr          0x0001822f   Wk    1  Code  Hi 
    287  am_gpio0_203f_isr          0x0001822f   Wk    1  Code  Hi 
    288  am_gpio0_405f_isr          0x0001822f   Wk    1  Code  Hi 
    289  am_gpio0_607f_isr          0x0001822f   Wk    1  Code  Hi 
    290  am_gpio1_001f_isr          0x0001822f   Wk    1  Code  Hi 
    291  am_gpio1_203f_isr          0x0001822f   Wk    1  Code  Hi 
    292  am_gpio1_405f_isr          0x0001822f   Wk    1  Code  Hi 
    293  am_gpio1_607f_isr          0x0001822f   Wk    1  Code  Hi 
    294  am_gpu_isr                 0x0001822f   Wk    1  Code  Hi 
    295  am_iomaster0_isr           0x0001822f   Wk    1  Code  Hi 
    296  am_iomaster1_isr           0x0001822f   Wk    1  Code  Hi 
    297  am_iomaster2_isr           0x0001822f   Wk    1  Code  Hi 
    298  am_iomaster3_isr           0x0001822f   Wk    1  Code  Hi 
    299  am_iomaster4_isr           0x0001822f   Wk    1  Code  Hi 
    300  am_iomaster5_isr           0x0001822f   Wk    1  Code  Hi 
    301  am_iomaster6_isr           0x0001822f   Wk    1  Code  Hi 
    302  am_iomaster7_isr           0x0001822f   Wk    1  Code  Hi 
    303  am_ioslave_acc_isr         0x0001822f   Wk    1  Code  Hi 
    304  am_ioslave_ios_isr         0x0001822f   Wk    1  Code  Hi 
    305  am_mspi0_isr               0x0001822f   Wk    1  Code  Hi 
    306  am_mspi1_isr               0x0001822f   Wk    1  Code  Hi 
    307  am_mspi2_isr               0x0001822f   Wk    1  Code  Hi 
    308  am_pdm0_isr                0x0001822f   Wk    1  Code  Hi 
    309  am_pdm1_isr                0x0001822f   Wk    1  Code  Hi 
    310  am_pdm2_isr                0x0001822f   Wk    1  Code  Hi 
    311  am_pdm3_isr                0x0001822f   Wk    1  Code  Hi 
    312  am_rtc_isr                 0x0001822f   Wk    1  Code  Hi 
    313  am_sdio_isr                0x0001822f   Wk    1  Code  Hi 
    314  am_stimer_cmpr0_isr        0x0001822f   Wk    1  Code  Hi 
    315  am_stimer_cmpr1_isr        0x0001822f   Wk    1  Code  Hi 
    316  am_stimer_cmpr2_isr        0x0001822f   Wk    1  Code  Hi 
    317  am_stimer_cmpr3_isr        0x0001822f   Wk    1  Code  Hi 
    318  am_stimer_cmpr4_isr        0x0001822f   Wk    1  Code  Hi 
    319  am_stimer_cmpr5_isr        0x0001822f   Wk    1  Code  Hi 
    320  am_stimer_cmpr6_isr        0x0001822f   Wk    1  Code  Hi 
    321  am_stimer_cmpr7_isr        0x0001822f   Wk    1  Code  Hi 
    322  am_stimerof_isr            0x0001822f   Wk    1  Code  Hi 
    323  am_timer00_isr             0x0001822f   Wk    1  Code  Hi 
    324  am_timer01_isr             0x0001822f   Wk    1  Code  Hi 
    325  am_timer02_isr             0x0001822f   Wk    1  Code  Hi 
    326  am_timer03_isr             0x0001822f   Wk    1  Code  Hi 
    327  am_timer04_isr             0x0001822f   Wk    1  Code  Hi 
    328  am_timer05_isr             0x0001822f   Wk    1  Code  Hi 
    329  am_timer06_isr             0x0001822f   Wk    1  Code  Hi 
    330  am_timer07_isr             0x0001822f   Wk    1  Code  Hi 
    331  am_timer08_isr             0x0001822f   Wk    1  Code  Hi 
    332  am_timer09_isr             0x0001822f   Wk    1  Code  Hi 
    333  am_timer10_isr             0x0001822f   Wk    1  Code  Hi 
    334  am_timer11_isr             0x0001822f   Wk    1  Code  Hi 
    335  am_timer12_isr             0x0001822f   Wk    1  Code  Hi 
    336  am_timer13_isr             0x0001822f   Wk    1  Code  Hi 
    337  am_timer14_isr             0x0001822f   Wk    1  Code  Hi 
    338  am_timer15_isr             0x0001822f   Wk    1  Code  Hi 
    339  am_uart1_isr               0x0001822f   Wk    1  Code  Hi 
    340  am_uart2_isr               0x0001822f   Wk    1  Code  Hi 
    341  am_uart3_isr               0x0001822f   Wk    1  Code  Hi 
    342  am_uart_isr                0x0001822f   Wk    1  Code  Hi 
    343  am_usb_isr                 0x0001822f   Wk    1  Code  Hi 
    344  am_vcomp_isr               0x0001822f   Wk    1  Code  Hi 
    345  am_watchdog_isr            0x0001822f   Wk    1  Code  Hi 
    346  __main                     0x00018235   Gb    1  Code  Hi   0x8
    347  __scatterload              0x0001823d   Gb    1  Code  Hi 
    348  __scatterload_rt2          0x0001823d   Gb    1  Code  Hi   0x2c
    349  __scatterload_rt2_thumb_only
                                    0x0001823d   Gb    1  Code  Hi 
    350  __scatterload_null         0x0001824b   Gb    1  Code  Hi 
    351  __decompress               0x00018271   Gb    1  Code  Hi   0x3a
    352  __decompress0              0x00018271   Gb    1  Code  Hi 
    353  __scatterload_copy         0x000182ad   Gb    1  Code  Hi   0x1a
    354  __scatterload_zeroinit     0x000182c9   Gb    1  Code  Hi   0x1c
    355  __rt_lib_init              0x000182e5   Gb    1  Code  De 
    356  __rt_lib_init_fp_1         0x000182e7   Gb    1  Code  Hi 
    357  __rt_lib_init_alloca_1     0x000182eb   Gb    1  Code  Hi 
    358  __rt_lib_init_argv_1       0x000182eb   Gb    1  Code  Hi 
    359  __rt_lib_init_atexit_1     0x000182eb   Gb    1  Code  Hi 
    360  __rt_lib_init_clock_1      0x000182eb   Gb    1  Code  Hi 
    361  __rt_lib_init_cpp_1        0x000182eb   Gb    1  Code  Hi 
    362  __rt_lib_init_exceptions_1 0x000182eb   Gb    1  Code  Hi 
    363  __rt_lib_init_fp_trap_1    0x000182eb   Gb    1  Code  Hi 
    364  __rt_lib_init_getenv_1     0x000182eb   Gb    1  Code  Hi 
    365  __rt_lib_init_heap_1       0x000182eb   Gb    1  Code  Hi 
    366  __rt_lib_init_lc_collate_1 0x000182eb   Gb    1  Code  Hi 
    367  __rt_lib_init_lc_ctype_1   0x000182eb   Gb    1  Code  Hi 
    368  __rt_lib_init_lc_monetary_1
                                    0x000182eb   Gb    1  Code  Hi 
    369  __rt_lib_init_lc_numeric_1 0x000182eb   Gb    1  Code  Hi 
    370  __rt_lib_init_lc_time_1    0x000182eb   Gb    1  Code  Hi 
    371  __rt_lib_init_preinit_1    0x000182eb   Gb    1  Code  Hi 
    372  __rt_lib_init_rand_1       0x000182eb   Gb    1  Code  Hi 
    373  __rt_lib_init_return       0x000182eb   Gb    1  Code  Hi 
    374  __rt_lib_init_signal_1     0x000182eb   Gb    1  Code  Hi 
    375  __rt_lib_init_stdio_1      0x000182eb   Gb    1  Code  Hi 
    376  __rt_lib_init_user_alloc_1 0x000182eb   Gb    1  Code  Hi 
    377  __rt_lib_shutdown          0x000182ed   Gb    1  Code  De 
    378  __rt_lib_shutdown_cpp_1    0x000182ef   Gb    1  Code  Hi 
    379  __rt_lib_shutdown_fp_trap_1
                                    0x000182ef   Gb    1  Code  Hi 
    380  __rt_lib_shutdown_heap_1   0x000182ef   Gb    1  Code  Hi 
    381  __rt_lib_shutdown_return   0x000182ef   Gb    1  Code  Hi 
    382  __rt_lib_shutdown_signal_1 0x000182ef   Gb    1  Code  Hi 
    383  __rt_lib_shutdown_stdio_1  0x000182ef   Gb    1  Code  Hi 
    384  __rt_lib_shutdown_user_alloc_1
                                    0x000182ef   Gb    1  Code  Hi 
    385  __rt_entry                 0x000182f1   Gb    1  Code  Hi 
    386  __rt_entry_presh_1         0x000182f1   Gb    1  Code  Hi 
    387  __rt_entry_sh              0x000182f1   Gb    1  Code  Hi 
    388  __rt_entry_li              0x000182f7   Gb    1  Code  Hi 
    389  __rt_entry_postsh_1        0x000182f7   Gb    1  Code  Hi 
    390  __rt_entry_main            0x000182fb   Gb    1  Code  Hi 
    391  __rt_entry_postli_1        0x000182fb   Gb    1  Code  Hi 
    392  __rt_exit                  0x00018303   Gb    1  Code  De 
    393  __rt_exit_ls               0x00018305   Gb    1  Code  Hi 
    394  __rt_exit_prels_1          0x00018305   Gb    1  Code  Hi 
    395  __rt_exit_exit             0x00018309   Gb    1  Code  Hi 
    396  __user_initial_stackheap   0x00018311   Gb    1  Code  Hi   0xa
    397  __aeabi_uldivmod           0x00018329   Gb    1  Code  De 
    398  _ll_udiv                   0x00018329   Gb    1  Code  De   0xf0
    399  __aeabi_memclr4            0x00018419   Gb    1  Code  De 
    400  __aeabi_memclr8            0x00018419   Gb    1  Code  De 
    401  __rt_memclr_w              0x00018419   Gb    1  Code  De 
    402  _memset_w                  0x0001841d   Gb    1  Code  De   0x4a
    403  __use_two_region_memory    0x00018467   Gb    1  Code  Hi   0x2
    404  __rt_heap_escrow$2region   0x00018469   Gb    1  Code  De   0x2
    405  __rt_heap_expand$2region   0x0001846b   Gb    1  Code  De   0x2
    406  __user_setup_stackheap     0x0001846d   Gb    1  Code  De   0x4a
    407  exit                       0x000184b7   Gb    1  Code  De   0x12
    408  __user_libspace            0x000184c9   Wk    1  Code  De   0x8
    409  __user_perproc_libspace    0x000184c9   Wk    1  Code  De 
    410  __user_perthread_libspace  0x000184c9   Wk    1  Code  De 
    411  _sys_exit                  0x000184d1   Gb    1  Code  De   0x8
    412  __I$use$semihosting        0x000184dd   Gb    1  Code  Hi 
    413  __use_no_semihosting_swi   0x000184dd   Gb    1  Code  Hi   0x2
    414  __semihosting_library_function
                                    0x000184df   Gb    1  Code  Hi 
    415  HardFault_Handler          0x000184e1   Gb    1  Code  Hi   0x1e
    416  am_bsp_i2s_pins_enable     0x00018505   Gb    1  Code  Hi   0xf2
    417  am_bsp_itm_printf_enable   0x000185f7   Gb    1  Code  Hi   0x7c
    418  am_dspi2s0_isr             0x00018673   Gb    1  Code  Hi   0x4c
    419  am_dspi2s1_isr             0x000186bf   Gb    1  Code  Hi   0x4c
    420  am_hal_clkgen_control      0x0001870d   Gb    1  Code  Hi   0x2a2
    421  am_hal_daxi_config         0x000189af   Gb    1  Code  Hi   0x66
    422  am_hal_daxi_control        0x00018a15   Gb    1  Code  Hi   0x98
    423  am_hal_dcu_get             0x00018aad   Gb    1  Code  Hi   0x9a
    424  am_hal_dcu_update          0x00018b49   Gb    1  Code  Hi   0xec
    425  am_hal_delay_us            0x00018c35   Gb    1  Code  Hi   0x36
    426  am_hal_delay_us_status_change
                                    0x00018c6d   Gb    1  Code  Hi   0x54
    427  am_hal_delay_us_status_check
                                    0x00018cc1   Gb    1  Code  Hi   0x62
    428  am_hal_fault_status_get    0x00018d23   Gb    1  Code  Hi   0x3a
    429  am_hal_gpio_pinconfig      0x00018d5d   Gb    1  Code  Hi   0x4c
    430  am_hal_i2s_configure       0x00018db9   Gb    1  Code  Hi   0x200
    431  am_hal_i2s_dma_configure   0x00018fb9   Gb    1  Code  Hi   0xc8
    432  am_hal_i2s_dma_get_buffer  0x00019081   Gb    1  Code  Hi   0x28
    433  am_hal_i2s_dma_transfer_start
                                    0x000190a9   Gb    1  Code  Hi   0xc0
    434  am_hal_i2s_enable          0x00019169   Gb    1  Code  Hi   0x26
    435  am_hal_i2s_initialize      0x0001918f   Gb    1  Code  Hi   0x48
    436  am_hal_i2s_interrupt_clear 0x000191d7   Gb    1  Code  Hi   0x28
    437  am_hal_i2s_interrupt_service
                                    0x000191ff   Gb    1  Code  Hi   0x16e
    438  am_hal_i2s_interrupt_status_get
                                    0x0001936d   Gb    1  Code  Hi   0x44
    439  am_hal_i2s_ipb_interrupt_service
                                    0x000193b1   Gb    1  Code  Hi   0x4e
    440  am_hal_i2s_power_control   0x000193ff   Gb    1  Code  Hi   0xce
    441  am_hal_interrupt_master_disable
                                    0x000194cd   Gb    1  Code  Hi   0x8
    442  am_hal_interrupt_master_enable
                                    0x000194d5   Gb    1  Code  Hi   0x8
    443  am_hal_interrupt_master_set
                                    0x000194dd   Gb    1  Code  Hi   0x6
    444  am_hal_itm_enable          0x000194e5   Gb    1  Code  Hi   0x42
    445  am_hal_itm_print           0x00019529   Gb    1  Code  Hi   0x2e
    446  am_hal_mcuctrl_control     0x00019559   Gb    1  Code  Hi   0x2ba
    447  am_hal_pwrctrl_periph_disable
                                    0x00019813   Gb    1  Code  Hi   0x11e
    448  am_hal_pwrctrl_periph_enable
                                    0x00019931   Gb    1  Code  Hi   0xb2
    449  am_hal_tpiu_enable         0x000199e3   Gb    1  Code  Hi   0x6c
    450  am_util_delay_ms           0x00019a4f   Gb    1  Code  Hi   0xa
    451  am_util_delay_us           0x00019a59   Gb    1  Code  Hi   0x4
    452  am_util_faultisr_collect_data
                                    0x00019a5d   Gb    1  Code  Hi   0x28c
    453  am_util_stdio_printf       0x00019d75   Gb    1  Code  Hi   0x46
    454  am_util_stdio_printf_init  0x00019dbb   Gb    1  Code  Hi   0xc
    455  am_util_stdio_terminal_clear
                                    0x00019dc9   Gb    1  Code  Hi   0x8
    456  am_util_stdio_vsprintf     0x00019de5   Gb    1  Code  Hi   0x714
    457  crypto_boost_trims         0x0001a55b   Gb    1  Code  Hi   0xd4
    458  getStackedReg              0x0001a747   Gb    1  Code  Hi   0x8
    459  i2s_init                   0x0001a74f   Gb    1  Code  Hi   0xb8
    460  main                       0x0001a809   Gb    1  Code  Hi   0x1b0
    461  __aeabi_d2f                0x0001aa95   Gb    1  Code  De 
    462  _d2f                       0x0001aa95   Gb    1  Code  De   0x62
    463  __fpl_dnaninf              0x0001aaf7   Gb    1  Code  De   0x9c
    464  _fp_init                   0x0001ab93   Gb    1  Code  De   0x1a
    465  __fplib_config_fpu_vfp     0x0001abab   Gb    1  Code  De 
    466  __fplib_config_pureend_doubles
                                    0x0001abab   Gb    1  Code  De 
    467  __fpl_fretinf              0x0001abad   Gb    1  Code  De   0xa
    468  __I$use$fp                 0x0001abb6   Gb    1   --   De 
    469  am_hal_pwrctrl_peripheral_control
                                    0x0001abb8   Gb    1  Data  Hi   0x220
    470  g_amHalMcuctrlArgDefault   0x0001add8   Gb    1  Data  Hi   0x8
    471  g_am_hal_bootrom_helper    0x0001ade0   Gb    1  Data  Hi   0x28
    472  sGlobalAccess              0x0001ae08   Gb    1  Data  Hi   0x1c
    473  ui32DSP0Allowed            0x0001b118   Gb    1  Data  Hi   0x14
    474  ui32DSP1Allowed            0x0001b12c   Gb    1  Data  Hi   0x14
    475  ui32MCUAllowed             0x0001b158   Gb    1  Data  Hi   0x14
    476  ui32SharedAccess           0x0001b16c   Gb    1  Data  Hi   0x14
    477  Region$$Table$$Base        0x0001b180   Gb    1   --   Hi 
    478  Region$$Table$$Limit       0x0001b1b0   Gb    1   --   Hi 
    479  gDaxiConfig                0x10000000   Gb    2  Data  Hi   0x5
    480  gDcuDisable                0x10000008   Gb    2  Data  Hi   0x8
    481  gDcuEnable                 0x10000010   Gb    2  Data  Hi   0x8
    482  g_AM_BSP_GPIO_I2S0_CLK     0x10000018   Gb    2  Data  Hi   0x4
    483  g_AM_BSP_GPIO_I2S0_DATA    0x1000001c   Gb    2  Data  Hi   0x4
    484  g_AM_BSP_GPIO_I2S0_SDIN    0x10000020   Gb    2  Data  Hi   0x4
    485  g_AM_BSP_GPIO_I2S0_SDOUT   0x10000024   Gb    2  Data  Hi   0x4
    486  g_AM_BSP_GPIO_I2S0_WS      0x10000028   Gb    2  Data  Hi   0x4
    487  g_AM_BSP_GPIO_I2S1_CLK     0x1000002c   Gb    2  Data  Hi   0x4
    488  g_AM_BSP_GPIO_I2S1_DATA    0x10000030   Gb    2  Data  Hi   0x4
    489  g_AM_BSP_GPIO_I2S1_SDIN    0x10000034   Gb    2  Data  Hi   0x4
    490  g_AM_BSP_GPIO_I2S1_SDOUT   0x10000038   Gb    2  Data  Hi   0x4
    491  g_AM_BSP_GPIO_I2S1_WS      0x1000003c   Gb    2  Data  Hi   0x4
    492  g_AM_BSP_GPIO_ITM_SWO      0x10000040   Gb    2  Data  Hi   0x4
    493  g_ui32xtalhscap2trim       0x1000008c   Gb    2  Data  Hi   0x4
    494  g_ui32xtalhscaptrim        0x10000090   Gb    2  Data  Hi   0x4
    495  gpDcuEnable                0x10000094   Gb    2  Data  Hi   0x4
    496  gpDcuLock                  0x10000098   Gb    2  Data  Hi   0x4
    497  __libspace_start           0x100000d0   Gb    3  Data  De   0x60
    498  __temporary_stack_top$libspace
                                    0x10000130   Gb    3  Data  De 
    499  am_hal_xtal_users          0x10000130   Gb    3  Data  Hi   0xc
    500  gFaultStack                0x1000013c   Gb    3  Data  Hi   0x200
    501  gStartOff                  0x1000033c   Gb    3  Data  Hi   0x4
    502  g_I2Shandles               0x10000340   Gb    3  Data  Hi   0x98
    503  g_pfnCharPrint             0x100003e4   Gb    3  Data  Hi   0x4
    504  g_ui32I2SDmaCpl            0x100007f8   Gb    3  Data  Hi   0x14
    505  pI2S0Handle                0x10000814   Gb    3  Data  Hi   0x4
    506  pI2S1Handle                0x10000818   Gb    3  Data  Hi   0x4
    507  psGlobalAccessPtr          0x10060000   Gb    4  Data  Hi   0x4
    508  ui32MCUClaimed             0x10060004   Gb    4  Data  Hi   0x14
    509  ui32DSP0Claimed            0x10060018   Gb    4  Data  Hi   0x14
    510  ui32DSP1Claimed            0x1006002c   Gb    4  Data  Hi   0x14
    511  g_ui32I2S0RxDataBuffer     0x10060040   Gb    4  Data  Hi   0x80c
    512  g_ui32I2S0TxDataBuffer     0x1006084c   Gb    4  Data  Hi   0x80c
    513  g_ui32I2S1RxDataBuffer     0x10061058   Gb    4  Data  Hi   0x80c
    514  g_ui32I2S1TxDataBuffer     0x10061864   Gb    4  Data  Hi   0x80c


** Section #13 '.strtab' (SHT_STRTAB)
    Size   : 8088 bytes

            #  Offset String
        ====================================

            1      1: $d
            2      4: $t
            3      7: $t.0
            4     12: $d.7
            5     17: $t.25
            6     23: $d.1
            7     28: $t.2
            8     33: $d.9
            9     38: $t.10
           10     44: $d.2
           11     49: $t.5
           12     54: $t.3
           13     59: $d.3
           14     64: $t.4
           15     69: $d.5
           16     74: $t.9
           17     79: $d.14
           18     85: $d.4
           19     90: $t.7
           20     95: $d.realdata
           21    107: am_resources.c
           22    122: __tagsym$$used.0
           23    139: __tagsym$$used.1
           24    156: __tagsym$$used.2
           25    173: __tagsym$$used.3
           26    190: __tagsym$$used.4
           27    207: __tagsym$$used.5
           28    224: __tagsym$$used.6
           29    241: __tagsym$$used.7
           30    258: __tagsym$$used.8
           31    275: i2s_loopback.c
           32    290: check_i2s_data
           33    305: g_sI2S0Config
           34    319: g_sI2S1Config
           35    333: sTransfer0
           36    344: sTransfer1
           37    355: g_ui32TestLoop
           38    370: g_sI2SDataConfig
           39    387: g_sI2SIOConfig
           40    402: am_util_delay.c
           41    418: am_util_faultisr.c
           42    437: .L.str.1
           43    446: .L.str.29
           44    456: .L.str
           45    463: .L.str.2
           46    472: .L.str.25
           47    482: .L.str.11
           48    492: .L.str.18
           49    502: .L.str.17
           50    512: .L.str.23
           51    522: .L.str.20
           52    532: .L.str.21
           53    542: .L.str.19
           54    552: .L.str.22
           55    562: .L.str.24
           56    572: .L.str.16
           57    582: .L.str.14
           58    592: .L.str.15
           59    602: .L.str.27
           60    612: .L.str.26
           61    622: .L.str.28
           62    632: .L.str.3
           63    641: .L.str.13
           64    651: .L.str.12
           65    661: am_util_stdio.c
           66    677: decstr_to_int
           67    691: uint64_to_str
           68    705: divu64_10
           69    715: g_bTxtXlate
           70    727: g_prfbuf
           71    736: ../keil6/startup_keil6.s
           72    761: STACK
           73    767: StackMem
           74    776: HEAP
           75    781: HeapMem
           76    789: RESET
           77    795: $v0
           78    799: am_cryptosec_isr
           79    816: am_default_isr
           80    831: .text
           81    837: am_bsp.c
           82    846: g_ePrintInterface
           83    864: am_hal_clkgen.c
           84    880: am_hal_fault.c
           85    895: am_hal_interrupt.c
           86    914: am_hal_mcuctrl.c
           87    931: am_hal_utils.c
           88    946: am_hal_i2s.c
           89    959: ui32I2sWordLength
           90    977: am_bsp_pins.c
           91    991: am_hal_bootrom_helper.c
           92   1015: am_hal_cachectrl.c
           93   1034: am_hal_itm.c
           94   1047: am_hal_rtc.c
           95   1060: am_hal_tpiu.c
           96   1074: am_hal_uart.c
           97   1088: am_hal_dcu.c
           98   1101: am_hal_gpio.c
           99   1115: g_ui32DSpintbl
          100   1130: am_hal_pwrctrl.c
          101   1147: g_bBoostForCryptoApplied
          102   1172: g_i32LatestVddfActTrim
          103   1195: g_i32LatestLDOActTrim
          104   1217: g_ui32VDDFAdjustCodes
          105   1239: am_hal_mram.c
          106   1253: am_hal_adc.c
          107   1266: am_hal_pin.c
          108   1279: am_hal_queue.c
          109   1294: dc.s
          110   1299: ../clib/longlong.s
          111   1318: ../clib/memcpset.s
          112   1337: ../clib/heapaux.c
          113   1355: ../clib/angel/startup.s
          114   1379: !!!main
          115   1387: ../clib/angel/handlers.s
          116   1412: !!handler_copy
          117   1427: ../fplib/d2f.s
          118   1442: x$fpl$d2f
          119   1452: ../clib/angel/kernel.s
          120   1475: .ARM.Collect$$rtentry$$00000000
          121   1507: ../clib/angel/rt.s
          122   1526: ../fplib/dnaninf.s
          123   1545: x$fpl$dnaninf
          124   1559: ../fplib/fretinf.s
          125   1578: x$fpl$fretinf
          126   1592: ../fplib/usenofp.s
          127   1611: x$fpl$usenofp
          128   1625: .ARM.Collect$$rtentry$$00000002
          129   1657: .ARM.Collect$$rtentry$$00000009
          130   1689: .ARM.Collect$$rtentry$$0000000A
          131   1721: .ARM.Collect$$rtentry$$0000000C
          132   1753: .ARM.Collect$$rtentry$$0000000D
          133   1785: .ARM.Collect$$rtentry$$00000004
          134   1817: ../clib/angel/sys.s
          135   1837: ../clib/stdlib.c
          136   1854: ../clib/signal.c
          137   1871: ../clib/angel/boardlib.s
          138   1896: ../clib/libinit.s
          139   1914: .ARM.Collect$$libinit$$00000000
          140   1946: .bss
          141   1951: .ARM.Collect$$rtexit$$00000000
          142   1982: .ARM.Collect$$libinit$$00000001
          143   2014: .ARM.Collect$$libinit$$00000004
          144   2046: .ARM.Collect$$libinit$$0000000A
          145   2078: .ARM.Collect$$libinit$$0000000C
          146   2110: .ARM.Collect$$libinit$$0000000E
          147   2142: .ARM.Collect$$libinit$$00000011
          148   2174: .ARM.Collect$$libinit$$00000013
          149   2206: .ARM.Collect$$libinit$$00000015
          150   2238: .ARM.Collect$$libinit$$00000017
          151   2270: .ARM.Collect$$libinit$$00000019
          152   2302: .ARM.Collect$$libinit$$0000001B
          153   2334: .ARM.Collect$$libinit$$0000001D
          154   2366: .ARM.Collect$$libinit$$0000001F
          155   2398: .ARM.Collect$$libinit$$00000021
          156   2430: .ARM.Collect$$libinit$$00000023
          157   2462: .ARM.Collect$$libinit$$00000025
          158   2494: .ARM.Collect$$libinit$$0000002C
          159   2526: .ARM.Collect$$libinit$$0000002E
          160   2558: .ARM.Collect$$libinit$$00000030
          161   2590: .ARM.Collect$$libinit$$00000032
          162   2622: .ARM.Collect$$libinit$$00000033
          163   2654: ../clib/angel/sysapp.c
          164   2677: .ARM.Collect$$rtexit$$00000002
          165   2708: .ARM.Collect$$rtexit$$00000003
          166   2739: .ARM.Collect$$rtexit$$00000004
          167   2770: ../clib/armsys.c
          168   2787: ../fplib/fpinit.s
          169   2805: x$fpl$fpinit
          170   2818: ../clib/signal.s
          171   2835: .ARM.Collect$$libshutdown$$00000000
          172   2871: ../clib/heapalloc.c
          173   2891: .ARM.Collect$$libshutdown$$00000002
          174   2927: .ARM.Collect$$libshutdown$$00000004
          175   2963: .ARM.Collect$$libshutdown$$00000007
          176   2999: .ARM.Collect$$libshutdown$$0000000A
          177   3035: .ARM.Collect$$libshutdown$$0000000C
          178   3071: .ARM.Collect$$libshutdown$$0000000F
          179   3107: .ARM.Collect$$libshutdown$$00000010
          180   3143: ../clib/angel/dczerorl.s
          181   3168: !!dczerorl
          182   3179: ../clib/angel/scatter.s
          183   3203: !!!scatter
          184   3214: !!handler_zi
          185   3227: BuildAttributes$$THM_ISAv4$E$P$D$K$B$S$7EM$VFPi3$EXTD16$VFPS$VFMA$PE$A:L22UL41UL21$X:L11$S22US41US21$IEEE1$IW$~IW$USESV6$~STKCKD$USESV7$~SHL$OSPACE$ROPI$EBA8$UX$STANDARDLIB$REQ8$PRES8$EABIv2
          186   3418: __Vectors
          187   3428: __Patchable
          188   3440: Reset_Handler
          189   3454: NMI_Handler
          190   3466: MemManage_Handler
          191   3484: BusFault_Handler
          192   3501: UsageFault_Handler
          193   3520: SVC_Handler
          194   3532: DebugMon_Handler
          195   3549: PendSV_Handler
          196   3564: SysTick_Handler
          197   3580: am_adc_isr
          198   3591: am_audadc0_isr
          199   3606: am_brownout_isr
          200   3622: am_cachecpu_isr
          201   3638: am_clkgen_isr
          202   3652: am_ctimer_isr
          203   3666: am_disp_isr
          204   3678: am_dsi_isr
          205   3689: am_dspi2s2_isr
          206   3704: am_dspi2s3_isr
          207   3719: am_gpio0_001f_isr
          208   3737: am_gpio0_203f_isr
          209   3755: am_gpio0_405f_isr
          210   3773: am_gpio0_607f_isr
          211   3791: am_gpio1_001f_isr
          212   3809: am_gpio1_203f_isr
          213   3827: am_gpio1_405f_isr
          214   3845: am_gpio1_607f_isr
          215   3863: am_gpu_isr
          216   3874: am_iomaster0_isr
          217   3891: am_iomaster1_isr
          218   3908: am_iomaster2_isr
          219   3925: am_iomaster3_isr
          220   3942: am_iomaster4_isr
          221   3959: am_iomaster5_isr
          222   3976: am_iomaster6_isr
          223   3993: am_iomaster7_isr
          224   4010: am_ioslave_acc_isr
          225   4029: am_ioslave_ios_isr
          226   4048: am_mspi0_isr
          227   4061: am_mspi1_isr
          228   4074: am_mspi2_isr
          229   4087: am_pdm0_isr
          230   4099: am_pdm1_isr
          231   4111: am_pdm2_isr
          232   4123: am_pdm3_isr
          233   4135: am_rtc_isr
          234   4146: am_sdio_isr
          235   4158: am_stimer_cmpr0_isr
          236   4178: am_stimer_cmpr1_isr
          237   4198: am_stimer_cmpr2_isr
          238   4218: am_stimer_cmpr3_isr
          239   4238: am_stimer_cmpr4_isr
          240   4258: am_stimer_cmpr5_isr
          241   4278: am_stimer_cmpr6_isr
          242   4298: am_stimer_cmpr7_isr
          243   4318: am_stimerof_isr
          244   4334: am_timer00_isr
          245   4349: am_timer01_isr
          246   4364: am_timer02_isr
          247   4379: am_timer03_isr
          248   4394: am_timer04_isr
          249   4409: am_timer05_isr
          250   4424: am_timer06_isr
          251   4439: am_timer07_isr
          252   4454: am_timer08_isr
          253   4469: am_timer09_isr
          254   4484: am_timer10_isr
          255   4499: am_timer11_isr
          256   4514: am_timer12_isr
          257   4529: am_timer13_isr
          258   4544: am_timer14_isr
          259   4559: am_timer15_isr
          260   4574: am_uart1_isr
          261   4587: am_uart2_isr
          262   4600: am_uart3_isr
          263   4613: am_uart_isr
          264   4625: am_usb_isr
          265   4636: am_vcomp_isr
          266   4649: am_watchdog_isr
          267   4665: __main
          268   4672: __scatterload
          269   4686: __scatterload_rt2
          270   4704: __scatterload_rt2_thumb_only
          271   4733: __scatterload_null
          272   4752: __decompress
          273   4765: __decompress0
          274   4779: __scatterload_copy
          275   4798: __scatterload_zeroinit
          276   4821: __rt_lib_init
          277   4835: __rt_lib_init_fp_1
          278   4854: __rt_lib_init_alloca_1
          279   4877: __rt_lib_init_argv_1
          280   4898: __rt_lib_init_atexit_1
          281   4921: __rt_lib_init_clock_1
          282   4943: __rt_lib_init_cpp_1
          283   4963: __rt_lib_init_exceptions_1
          284   4990: __rt_lib_init_fp_trap_1
          285   5014: __rt_lib_init_getenv_1
          286   5037: __rt_lib_init_heap_1
          287   5058: __rt_lib_init_lc_collate_1
          288   5085: __rt_lib_init_lc_ctype_1
          289   5110: __rt_lib_init_lc_monetary_1
          290   5138: __rt_lib_init_lc_numeric_1
          291   5165: __rt_lib_init_lc_time_1
          292   5189: __rt_lib_init_preinit_1
          293   5213: __rt_lib_init_rand_1
          294   5234: __rt_lib_init_return
          295   5255: __rt_lib_init_signal_1
          296   5278: __rt_lib_init_stdio_1
          297   5300: __rt_lib_init_user_alloc_1
          298   5327: __rt_lib_shutdown
          299   5345: __rt_lib_shutdown_cpp_1
          300   5369: __rt_lib_shutdown_fp_trap_1
          301   5397: __rt_lib_shutdown_heap_1
          302   5422: __rt_lib_shutdown_return
          303   5447: __rt_lib_shutdown_signal_1
          304   5474: __rt_lib_shutdown_stdio_1
          305   5500: __rt_lib_shutdown_user_alloc_1
          306   5531: __rt_entry
          307   5542: __rt_entry_presh_1
          308   5561: __rt_entry_sh
          309   5575: __rt_entry_li
          310   5589: __rt_entry_postsh_1
          311   5609: __rt_entry_main
          312   5625: __rt_entry_postli_1
          313   5645: __rt_exit
          314   5655: __rt_exit_ls
          315   5668: __rt_exit_prels_1
          316   5686: __rt_exit_exit
          317   5701: __user_initial_stackheap
          318   5726: __aeabi_uldivmod
          319   5743: _ll_udiv
          320   5752: __aeabi_memclr4
          321   5768: __aeabi_memclr8
          322   5784: __rt_memclr_w
          323   5798: _memset_w
          324   5808: __use_two_region_memory
          325   5832: __rt_heap_escrow$2region
          326   5857: __rt_heap_expand$2region
          327   5882: __user_setup_stackheap
          328   5905: exit
          329   5910: __user_libspace
          330   5926: __user_perproc_libspace
          331   5950: __user_perthread_libspace
          332   5976: _sys_exit
          333   5986: __I$use$semihosting
          334   6006: __use_no_semihosting_swi
          335   6031: __semihosting_library_function
          336   6062: HardFault_Handler
          337   6080: am_bsp_i2s_pins_enable
          338   6103: am_bsp_itm_printf_enable
          339   6128: am_dspi2s0_isr
          340   6143: am_dspi2s1_isr
          341   6158: am_hal_clkgen_control
          342   6180: am_hal_daxi_config
          343   6199: am_hal_daxi_control
          344   6219: am_hal_dcu_get
          345   6234: am_hal_dcu_update
          346   6252: am_hal_delay_us
          347   6268: am_hal_delay_us_status_change
          348   6298: am_hal_delay_us_status_check
          349   6327: am_hal_fault_status_get
          350   6351: am_hal_gpio_pinconfig
          351   6373: am_hal_i2s_configure
          352   6394: am_hal_i2s_dma_configure
          353   6419: am_hal_i2s_dma_get_buffer
          354   6445: am_hal_i2s_dma_transfer_start
          355   6475: am_hal_i2s_enable
          356   6493: am_hal_i2s_initialize
          357   6515: am_hal_i2s_interrupt_clear
          358   6542: am_hal_i2s_interrupt_service
          359   6571: am_hal_i2s_interrupt_status_get
          360   6603: am_hal_i2s_ipb_interrupt_service
          361   6636: am_hal_i2s_power_control
          362   6661: am_hal_interrupt_master_disable
          363   6693: am_hal_interrupt_master_enable
          364   6724: am_hal_interrupt_master_set
          365   6752: am_hal_itm_enable
          366   6770: am_hal_itm_print
          367   6787: am_hal_mcuctrl_control
          368   6810: am_hal_pwrctrl_periph_disable
          369   6840: am_hal_pwrctrl_periph_enable
          370   6869: am_hal_tpiu_enable
          371   6888: am_util_delay_ms
          372   6905: am_util_delay_us
          373   6922: am_util_faultisr_collect_data
          374   6952: am_util_stdio_printf
          375   6973: am_util_stdio_printf_init
          376   6999: am_util_stdio_terminal_clear
          377   7028: am_util_stdio_vsprintf
          378   7051: crypto_boost_trims
          379   7070: getStackedReg
          380   7084: i2s_init
          381   7093: main
          382   7098: __aeabi_d2f
          383   7110: _d2f
          384   7115: __fpl_dnaninf
          385   7129: _fp_init
          386   7138: __fplib_config_fpu_vfp
          387   7161: __fplib_config_pureend_doubles
          388   7192: __fpl_fretinf
          389   7206: __I$use$fp
          390   7217: am_hal_pwrctrl_peripheral_control
          391   7251: g_amHalMcuctrlArgDefault
          392   7276: g_am_hal_bootrom_helper
          393   7300: sGlobalAccess
          394   7314: ui32DSP0Allowed
          395   7330: ui32DSP1Allowed
          396   7346: ui32MCUAllowed
          397   7361: ui32SharedAccess
          398   7378: Region$$Table$$Base
          399   7398: Region$$Table$$Limit
          400   7419: gDaxiConfig
          401   7431: gDcuDisable
          402   7443: gDcuEnable
          403   7454: g_AM_BSP_GPIO_I2S0_CLK
          404   7477: g_AM_BSP_GPIO_I2S0_DATA
          405   7501: g_AM_BSP_GPIO_I2S0_SDIN
          406   7525: g_AM_BSP_GPIO_I2S0_SDOUT
          407   7550: g_AM_BSP_GPIO_I2S0_WS
          408   7572: g_AM_BSP_GPIO_I2S1_CLK
          409   7595: g_AM_BSP_GPIO_I2S1_DATA
          410   7619: g_AM_BSP_GPIO_I2S1_SDIN
          411   7643: g_AM_BSP_GPIO_I2S1_SDOUT
          412   7668: g_AM_BSP_GPIO_I2S1_WS
          413   7690: g_AM_BSP_GPIO_ITM_SWO
          414   7712: g_ui32xtalhscap2trim
          415   7733: g_ui32xtalhscaptrim
          416   7753: gpDcuEnable
          417   7765: gpDcuLock
          418   7775: __libspace_start
          419   7792: __temporary_stack_top$libspace
          420   7823: am_hal_xtal_users
          421   7841: gFaultStack
          422   7853: gStartOff
          423   7863: g_I2Shandles
          424   7876: g_pfnCharPrint
          425   7891: g_ui32I2SDmaCpl
          426   7907: pI2S0Handle
          427   7919: pI2S1Handle
          428   7931: psGlobalAccessPtr
          429   7949: ui32MCUClaimed
          430   7964: ui32DSP0Claimed
          431   7980: ui32DSP1Claimed
          432   7996: g_ui32I2S0RxDataBuffer
          433   8019: g_ui32I2S0TxDataBuffer
          434   8042: g_ui32I2S1RxDataBuffer
          435   8065: g_ui32I2S1TxDataBuffer


** Section #14 '.note' (SHT_NOTE)
    Size   : 32 bytes (alignment 4)


** Section #15 '.comment' (SHT_PROGBITS)
    Size   : 1548 bytes


** Section #16 '.shstrtab' (SHT_STRTAB)
    Size   : 160 bytes

            #  Offset String
        ====================================

            1      1: MCU_MRAM
            2     10: MCU_TCM
            3     18: SHARED_SRAM
            4     30: .debug_abbrev
            5     44: .debug_frame
            6     57: .debug_info
            7     69: .debug_line
            8     81: .debug_loc
            9     92: .debug_str
           10    103: .debug_ranges
           11    117: .symtab
           12    125: .strtab
           13    133: .note
           14    139: .comment
           15    148: .shstrtab
           16    158: 
           17    159: 


