
========================================================================

** ELF Header Information

    File Name: bin\uart_ble_bridge.axf

    Machine class: ELFCLASS32 (32-bit)
    Data encoding: ELFDATA2LSB (Little endian)
    Header version: EV_CURRENT (Current version)
    Operating System ABI: none
    ABI Version: 0
    File Type: ET_EXEC (Executable) (2)
    Machine: EM_ARM (ARM)

    Image Entry point: 0x00018235
    Flags: EF_ARM_HASENTRY + EF_ARM_ABI_FLOAT_HARD (0x05000402)

    ARM ELF revision: 5 (ABI version 2)

    Conforms to Hard float procedure-call standard

    Built with
    Component: ARM Compiler 5.06 update 6 (build 750) Tool: armasm [4d35ec]
    Component: ARM Compiler 5.06 update 6 (build 750) Tool: armlink [4d35ed]

    Header size: 52 bytes (0x34)
    Program header entry size: 32 bytes (0x20)
    Section header entry size: 40 bytes (0x28)

    Program header entries: 1
    Section header entries: 17

    Program header offset: 1975216 (0x001e23b0)
    Section header offset: 1975248 (0x001e23d0)

    Section header string table index: 16

========================================================================

** Program header #0 (PT_LOAD) [PF_X + PF_W + PF_R + PF_ARM_ENTRY]
    Size : 77364 bytes (29568 bytes in file)
    Virtual address: 0x00018000 (Alignment 8)


========================================================================

** Section #1 'MCU_MRAM' (SHT_PROGBITS) [SHF_ALLOC + SHF_EXECINSTR]
    Size   : 29324 bytes (alignment 4)
    Address: 0x00018000

    $d
    RESET
    __Vectors
        0x00018000:    1000bb68    h...    DCD    268483432
        0x00018004:    00018201    ....    DCD    98817
        0x00018008:    0001821f    ....    DCD    98847
        0x0001800c:    00018331    1...    DCD    99121
        0x00018010:    00018221    !...    DCD    98849
        0x00018014:    00018223    #...    DCD    98851
        0x00018018:    00018225    %...    DCD    98853
        0x0001801c:    00000000    ....    DCD    0
        0x00018020:    00000000    ....    DCD    0
        0x00018024:    00000000    ....    DCD    0
        0x00018028:    00000000    ....    DCD    0
        0x0001802c:    00018227    '...    DCD    98855
        0x00018030:    00018229    )...    DCD    98857
        0x00018034:    00000000    ....    DCD    0
        0x00018038:    0001822b    +...    DCD    98859
        0x0001803c:    0001822d    -...    DCD    98861
        0x00018040:    0001822f    /...    DCD    98863
        0x00018044:    0001822f    /...    DCD    98863
        0x00018048:    0001822f    /...    DCD    98863
        0x0001804c:    0001822f    /...    DCD    98863
        0x00018050:    0001822f    /...    DCD    98863
        0x00018054:    0001822f    /...    DCD    98863
        0x00018058:    0001822f    /...    DCD    98863
        0x0001805c:    0001822f    /...    DCD    98863
        0x00018060:    0001822f    /...    DCD    98863
        0x00018064:    0001822f    /...    DCD    98863
        0x00018068:    0001cde1    ....    DCD    118241
        0x0001806c:    0001822f    /...    DCD    98863
        0x00018070:    0001822f    /...    DCD    98863
        0x00018074:    0001822f    /...    DCD    98863
        0x00018078:    0001822f    /...    DCD    98863
        0x0001807c:    0001822f    /...    DCD    98863
        0x00018080:    0001822f    /...    DCD    98863
        0x00018084:    0001ce11    ....    DCD    118289
        0x00018088:    0001822f    /...    DCD    98863
        0x0001808c:    0001822f    /...    DCD    98863
        0x00018090:    0001822f    /...    DCD    98863
        0x00018094:    0001822f    /...    DCD    98863
        0x00018098:    0001822f    /...    DCD    98863
        0x0001809c:    0001822f    /...    DCD    98863
        0x000180a0:    0001822f    /...    DCD    98863
        0x000180a4:    0001822f    /...    DCD    98863
        0x000180a8:    0001822f    /...    DCD    98863
        0x000180ac:    0001822f    /...    DCD    98863
        0x000180b0:    0001822f    /...    DCD    98863
        0x000180b4:    0001822f    /...    DCD    98863
        0x000180b8:    0001822f    /...    DCD    98863
        0x000180bc:    0001822f    /...    DCD    98863
        0x000180c0:    0001822f    /...    DCD    98863
        0x000180c4:    0001822f    /...    DCD    98863
        0x000180c8:    0001822f    /...    DCD    98863
        0x000180cc:    0001822f    /...    DCD    98863
        0x000180d0:    0001822f    /...    DCD    98863
        0x000180d4:    0001822f    /...    DCD    98863
        0x000180d8:    0001822f    /...    DCD    98863
        0x000180dc:    0001822f    /...    DCD    98863
        0x000180e0:    0001822f    /...    DCD    98863
        0x000180e4:    0001822f    /...    DCD    98863
        0x000180e8:    0001822f    /...    DCD    98863
        0x000180ec:    0001822f    /...    DCD    98863
        0x000180f0:    0001822f    /...    DCD    98863
        0x000180f4:    0001822f    /...    DCD    98863
        0x000180f8:    0001822f    /...    DCD    98863
        0x000180fc:    0001822f    /...    DCD    98863
        0x00018100:    0001822f    /...    DCD    98863
        0x00018104:    0001822f    /...    DCD    98863
        0x00018108:    0001822f    /...    DCD    98863
        0x0001810c:    0001822f    /...    DCD    98863
        0x00018110:    0001822f    /...    DCD    98863
        0x00018114:    0001822f    /...    DCD    98863
        0x00018118:    0001822f    /...    DCD    98863
        0x0001811c:    0001822f    /...    DCD    98863
        0x00018120:    0001822f    /...    DCD    98863
        0x00018124:    00019c7d    }...    DCD    105597
        0x00018128:    0001822f    /...    DCD    98863
        0x0001812c:    0001822f    /...    DCD    98863
        0x00018130:    0001822f    /...    DCD    98863
        0x00018134:    0001822f    /...    DCD    98863
        0x00018138:    0001822f    /...    DCD    98863
        0x0001813c:    0001822f    /...    DCD    98863
        0x00018140:    0001822f    /...    DCD    98863
        0x00018144:    0001822f    /...    DCD    98863
        0x00018148:    0001822f    /...    DCD    98863
        0x0001814c:    0001822f    /...    DCD    98863
        0x00018150:    0001822f    /...    DCD    98863
        0x00018154:    0001822f    /...    DCD    98863
        0x00018158:    0001822f    /...    DCD    98863
        0x0001815c:    0001822f    /...    DCD    98863
        0x00018160:    0001822f    /...    DCD    98863
        0x00018164:    0001822f    /...    DCD    98863
        0x00018168:    0001822f    /...    DCD    98863
        0x0001816c:    0001822f    /...    DCD    98863
        0x00018170:    0001822f    /...    DCD    98863
        0x00018174:    0001822f    /...    DCD    98863
        0x00018178:    0001822f    /...    DCD    98863
        0x0001817c:    0001822f    /...    DCD    98863
        0x00018180:    0001822f    /...    DCD    98863
        0x00018184:    0001822f    /...    DCD    98863
        0x00018188:    0001822f    /...    DCD    98863
        0x0001818c:    0001822f    /...    DCD    98863
    __Patchable
        0x00018190:    00000000    ....    DCD    0
        0x00018194:    00000000    ....    DCD    0
        0x00018198:    00000000    ....    DCD    0
        0x0001819c:    00000000    ....    DCD    0
        0x000181a0:    00000000    ....    DCD    0
        0x000181a4:    00000000    ....    DCD    0
        0x000181a8:    00000000    ....    DCD    0
        0x000181ac:    00000000    ....    DCD    0
        0x000181b0:    00000000    ....    DCD    0
        0x000181b4:    00000000    ....    DCD    0
        0x000181b8:    00000000    ....    DCD    0
        0x000181bc:    00000000    ....    DCD    0
        0x000181c0:    00000000    ....    DCD    0
        0x000181c4:    00000000    ....    DCD    0
        0x000181c8:    00000000    ....    DCD    0
        0x000181cc:    00000000    ....    DCD    0
        0x000181d0:    00000000    ....    DCD    0
        0x000181d4:    00000000    ....    DCD    0
        0x000181d8:    00000000    ....    DCD    0
        0x000181dc:    00000000    ....    DCD    0
        0x000181e0:    00000000    ....    DCD    0
        0x000181e4:    00000000    ....    DCD    0
        0x000181e8:    00000000    ....    DCD    0
        0x000181ec:    00000000    ....    DCD    0
        0x000181f0:    00000000    ....    DCD    0
        0x000181f4:    00000000    ....    DCD    0
        0x000181f8:    00000000    ....    DCD    0
        0x000181fc:    00000000    ....    DCD    0
    $t
    $v0
    Reset_Handler
        0x00018200:    f64e5088    N..P    MOV      r0,#0xed88
        0x00018204:    f2ce0000    ....    MOVT     r0,#0xe000
        0x00018208:    6801        .h      LDR      r1,[r0,#0]
        0x0001820a:    f4410170    A.p.    ORR      r1,r1,#0xf00000
        0x0001820e:    6001        .`      STR      r1,[r0,#0]
        0x00018210:    f3bf8f4f    ..O.    DSB      
        0x00018214:    f3bf8f6f    ..o.    ISB      
        0x00018218:    4805        .H      LDR      r0,[pc,#20] ; [0x18230] = 0x18235
        0x0001821a:    4700        .G      BX       r0
        0x0001821c:    e7fe        ..      B        0x1821c ; Reset_Handler + 28
    NMI_Handler
        0x0001821e:    e7fe        ..      B        NMI_Handler ; 0x1821e
    MemManage_Handler
        0x00018220:    e7fe        ..      B        MemManage_Handler ; 0x18220
    BusFault_Handler
        0x00018222:    e7fe        ..      B        BusFault_Handler ; 0x18222
    UsageFault_Handler
        0x00018224:    e7fe        ..      B        UsageFault_Handler ; 0x18224
    SVC_Handler
        0x00018226:    e7fe        ..      B        SVC_Handler ; 0x18226
    DebugMon_Handler
        0x00018228:    e7fe        ..      B        DebugMon_Handler ; 0x18228
    PendSV_Handler
        0x0001822a:    e7fe        ..      B        PendSV_Handler ; 0x1822a
    SysTick_Handler
        0x0001822c:    e7fe        ..      B        SysTick_Handler ; 0x1822c
    am_cryptosec_isr
    am_default_isr
    am_adc_isr
    am_audadc0_isr
    am_brownout_isr
    am_cachecpu_isr
    am_clkgen_isr
    am_ctimer_isr
    am_disp_isr
    am_dsi_isr
    am_dspi2s0_isr
    am_dspi2s1_isr
    am_dspi2s2_isr
    am_dspi2s3_isr
    am_gpio0_001f_isr
    am_gpio0_405f_isr
    am_gpio0_607f_isr
    am_gpio1_001f_isr
    am_gpio1_203f_isr
    am_gpio1_405f_isr
    am_gpio1_607f_isr
    am_gpu_isr
    am_iomaster0_isr
    am_iomaster1_isr
    am_iomaster2_isr
    am_iomaster3_isr
    am_iomaster5_isr
    am_iomaster6_isr
    am_iomaster7_isr
    am_ioslave_acc_isr
    am_ioslave_ios_isr
    am_mspi0_isr
    am_mspi1_isr
    am_mspi2_isr
    am_pdm0_isr
    am_pdm1_isr
    am_pdm2_isr
    am_pdm3_isr
    am_rtc_isr
    am_sdio_isr
    am_stimer_cmpr0_isr
    am_stimer_cmpr1_isr
    am_stimer_cmpr2_isr
    am_stimer_cmpr3_isr
    am_stimer_cmpr4_isr
    am_stimer_cmpr5_isr
    am_stimer_cmpr6_isr
    am_stimer_cmpr7_isr
    am_stimerof_isr
    am_timer00_isr
    am_timer01_isr
    am_timer02_isr
    am_timer03_isr
    am_timer04_isr
    am_timer05_isr
    am_timer06_isr
    am_timer07_isr
    am_timer08_isr
    am_timer09_isr
    am_timer10_isr
    am_timer11_isr
    am_timer12_isr
    am_timer13_isr
    am_timer14_isr
    am_timer15_isr
    am_uart1_isr
    am_uart3_isr
    am_uart_isr
    am_usb_isr
    am_vcomp_isr
    am_watchdog_isr
        0x0001822e:    e7fe        ..      B        am_cryptosec_isr ; 0x1822e
    $d
        0x00018230:    00018235    5...    DCD    98869
    $t
    !!!main
    __main
        0x00018234:    f000f802    ....    BL       __scatterload ; 0x1823c
        0x00018238:    f000f86a    ..j.    BL       __rt_entry ; 0x18310
    !!!scatter
    __scatterload
    __scatterload_rt2
    __scatterload_rt2_thumb_only
        0x0001823c:    a00a        ..      ADR      r0,{pc}+0x2c ; 0x18268
        0x0001823e:    e8900c00    ....    LDM      r0,{r10,r11}
        0x00018242:    4482        .D      ADD      r10,r10,r0
        0x00018244:    4483        .D      ADD      r11,r11,r0
        0x00018246:    f1aa0701    ....    SUB      r7,r10,#1
    __scatterload_null
        0x0001824a:    45da        .E      CMP      r10,r11
        0x0001824c:    d101        ..      BNE      0x18252 ; __scatterload_null + 8
        0x0001824e:    f000f85f    .._.    BL       __rt_entry ; 0x18310
        0x00018252:    f2af0e09    ....    ADR      lr,{pc}-7 ; 0x1824b
        0x00018256:    e8ba000f    ....    LDM      r10!,{r0-r3}
        0x0001825a:    f0130f01    ....    TST      r3,#1
        0x0001825e:    bf18        ..      IT       NE
        0x00018260:    1afb        ..      SUBNE    r3,r7,r3
        0x00018262:    f0430301    C...    ORR      r3,r3,#1
        0x00018266:    4718        .G      BX       r3
    $d
        0x00018268:    00006ff4    .o..    DCD    28660
        0x0001826c:    00007024    $p..    DCD    28708
    $t
    !!dczerorl2
    __decompress
    __decompress1
        0x00018270:    440a        .D      ADD      r2,r2,r1
        0x00018272:    f04f0c00    O...    MOV      r12,#0
        0x00018276:    f8103b01    ...;    LDRB     r3,[r0],#1
        0x0001827a:    f0130407    ....    ANDS     r4,r3,#7
        0x0001827e:    bf08        ..      IT       EQ
        0x00018280:    f8104b01    ...K    LDRBEQ   r4,[r0],#1
        0x00018284:    111d        ..      ASRS     r5,r3,#4
        0x00018286:    bf08        ..      IT       EQ
        0x00018288:    f8105b01    ...[    LDRBEQ   r5,[r0],#1
        0x0001828c:    1e64        d.      SUBS     r4,r4,#1
        0x0001828e:    d005        ..      BEQ      0x1829c ; __decompress + 44
        0x00018290:    f8106b01    ...k    LDRB     r6,[r0],#1
        0x00018294:    1e64        d.      SUBS     r4,r4,#1
        0x00018296:    f8016b01    ...k    STRB     r6,[r1],#1
        0x0001829a:    d1f9        ..      BNE      0x18290 ; __decompress + 32
        0x0001829c:    f0130f08    ....    TST      r3,#8
        0x000182a0:    bf1e        ..      ITTT     NE
        0x000182a2:    f8104b01    ...K    LDRBNE   r4,[r0],#1
        0x000182a6:    1cad        ..      ADDNE    r5,r5,#2
        0x000182a8:    1b0c        ..      SUBNE    r4,r1,r4
        0x000182aa:    d109        ..      BNE      0x182c0 ; __decompress + 80
        0x000182ac:    1e6d        m.      SUBS     r5,r5,#1
        0x000182ae:    bf58        X.      IT       PL
        0x000182b0:    f801cb01    ....    STRBPL   r12,[r1],#1
        0x000182b4:    d5fa        ..      BPL      0x182ac ; __decompress + 60
        0x000182b6:    e005        ..      B        0x182c4 ; __decompress + 84
        0x000182b8:    f8146b01    ...k    LDRB     r6,[r4],#1
        0x000182bc:    f8016b01    ...k    STRB     r6,[r1],#1
        0x000182c0:    1e6d        m.      SUBS     r5,r5,#1
        0x000182c2:    d5f9        ..      BPL      0x182b8 ; __decompress + 72
        0x000182c4:    4291        .B      CMP      r1,r2
        0x000182c6:    d3d6        ..      BCC      0x18276 ; __decompress + 6
        0x000182c8:    4770        pG      BX       lr
        0x000182ca:    0000        ..      MOVS     r0,r0
    !!handler_copy
    __scatterload_copy
        0x000182cc:    3a10        .:      SUBS     r2,r2,#0x10
        0x000182ce:    bf24        $.      ITT      CS
        0x000182d0:    c878        x.      LDMCS    r0!,{r3-r6}
        0x000182d2:    c178        x.      STMCS    r1!,{r3-r6}
        0x000182d4:    d8fa        ..      BHI      __scatterload_copy ; 0x182cc
        0x000182d6:    0752        R.      LSLS     r2,r2,#29
        0x000182d8:    bf24        $.      ITT      CS
        0x000182da:    c830        0.      LDMCS    r0!,{r4,r5}
        0x000182dc:    c130        0.      STMCS    r1!,{r4,r5}
        0x000182de:    bf44        D.      ITT      MI
        0x000182e0:    6804        .h      LDRMI    r4,[r0,#0]
        0x000182e2:    600c        .`      STRMI    r4,[r1,#0]
        0x000182e4:    4770        pG      BX       lr
        0x000182e6:    0000        ..      MOVS     r0,r0
    !!handler_zi
    __scatterload_zeroinit
        0x000182e8:    2300        .#      MOVS     r3,#0
        0x000182ea:    2400        .$      MOVS     r4,#0
        0x000182ec:    2500        .%      MOVS     r5,#0
        0x000182ee:    2600        .&      MOVS     r6,#0
        0x000182f0:    3a10        .:      SUBS     r2,r2,#0x10
        0x000182f2:    bf28        (.      IT       CS
        0x000182f4:    c178        x.      STMCS    r1!,{r3-r6}
        0x000182f6:    d8fb        ..      BHI      0x182f0 ; __scatterload_zeroinit + 8
        0x000182f8:    0752        R.      LSLS     r2,r2,#29
        0x000182fa:    bf28        (.      IT       CS
        0x000182fc:    c130        0.      STMCS    r1!,{r4,r5}
        0x000182fe:    bf48        H.      IT       MI
        0x00018300:    600b        .`      STRMI    r3,[r1,#0]
        0x00018302:    4770        pG      BX       lr
    .ARM.Collect$$libinit$$00000000
    __rt_lib_init
        0x00018304:    b51f        ..      PUSH     {r0-r4,lr}
    .ARM.Collect$$libinit$$00000001
    __rt_lib_init_fp_1
        0x00018306:    f006fc88    ....    BL       _fp_init ; 0x1ec1a
    .ARM.Collect$$libinit$$00000004
    .ARM.Collect$$libinit$$0000000A
    .ARM.Collect$$libinit$$0000000C
    .ARM.Collect$$libinit$$0000000E
    .ARM.Collect$$libinit$$00000011
    .ARM.Collect$$libinit$$00000013
    .ARM.Collect$$libinit$$00000015
    .ARM.Collect$$libinit$$00000017
    .ARM.Collect$$libinit$$00000019
    .ARM.Collect$$libinit$$0000001B
    .ARM.Collect$$libinit$$0000001D
    .ARM.Collect$$libinit$$0000001F
    .ARM.Collect$$libinit$$00000021
    .ARM.Collect$$libinit$$00000023
    .ARM.Collect$$libinit$$00000025
    .ARM.Collect$$libinit$$0000002C
    .ARM.Collect$$libinit$$0000002E
    .ARM.Collect$$libinit$$00000030
    .ARM.Collect$$libinit$$00000032
    .ARM.Collect$$libinit$$00000033
    __rt_lib_init_alloca_1
    __rt_lib_init_argv_1
    __rt_lib_init_atexit_1
    __rt_lib_init_clock_1
    __rt_lib_init_cpp_1
    __rt_lib_init_exceptions_1
    __rt_lib_init_fp_trap_1
    __rt_lib_init_getenv_1
    __rt_lib_init_heap_1
    __rt_lib_init_lc_collate_1
    __rt_lib_init_lc_ctype_1
    __rt_lib_init_lc_monetary_1
    __rt_lib_init_lc_numeric_1
    __rt_lib_init_lc_time_1
    __rt_lib_init_preinit_1
    __rt_lib_init_rand_1
    __rt_lib_init_return
    __rt_lib_init_signal_1
    __rt_lib_init_stdio_1
    __rt_lib_init_user_alloc_1
        0x0001830a:    bd1f        ..      POP      {r0-r4,pc}
    .ARM.Collect$$libshutdown$$00000000
    __rt_lib_shutdown
        0x0001830c:    b510        ..      PUSH     {r4,lr}
    .ARM.Collect$$libshutdown$$00000002
    .ARM.Collect$$libshutdown$$00000004
    .ARM.Collect$$libshutdown$$00000007
    .ARM.Collect$$libshutdown$$0000000A
    .ARM.Collect$$libshutdown$$0000000C
    .ARM.Collect$$libshutdown$$0000000F
    .ARM.Collect$$libshutdown$$00000010
    __rt_lib_shutdown_cpp_1
    __rt_lib_shutdown_fp_trap_1
    __rt_lib_shutdown_heap_1
    __rt_lib_shutdown_return
    __rt_lib_shutdown_signal_1
    __rt_lib_shutdown_stdio_1
    __rt_lib_shutdown_user_alloc_1
        0x0001830e:    bd10        ..      POP      {r4,pc}
    .ARM.Collect$$rtentry$$00000000
    .ARM.Collect$$rtentry$$00000002
    .ARM.Collect$$rtentry$$00000004
    __rt_entry
    __rt_entry_presh_1
    __rt_entry_sh
        0x00018310:    f000f959    ..Y.    BL       __user_setup_stackheap ; 0x185c6
        0x00018314:    4611        .F      MOV      r1,r2
    .ARM.Collect$$rtentry$$00000009
    .ARM.Collect$$rtentry$$0000000A
    __rt_entry_li
    __rt_entry_postsh_1
        0x00018316:    f7fffff5    ....    BL       __rt_lib_init ; 0x18304
    .ARM.Collect$$rtentry$$0000000C
    .ARM.Collect$$rtentry$$0000000D
    __rt_entry_main
    __rt_entry_postli_1
        0x0001831a:    f005fd89    ....    BL       main ; 0x1de30
        0x0001831e:    f000f977    ..w.    BL       exit ; 0x18610
    .ARM.Collect$$rtexit$$00000000
    __rt_exit
        0x00018322:    b403        ..      PUSH     {r0,r1}
    .ARM.Collect$$rtexit$$00000002
    .ARM.Collect$$rtexit$$00000003
    __rt_exit_ls
    __rt_exit_prels_1
        0x00018324:    f7fffff2    ....    BL       __rt_lib_shutdown ; 0x1830c
    .ARM.Collect$$rtexit$$00000004
    __rt_exit_exit
        0x00018328:    bc03        ..      POP      {r0,r1}
        0x0001832a:    f000f97f    ....    BL       _sys_exit ; 0x1862c
        0x0001832e:    0000        ..      MOVS     r0,r0
    .emb_text
    $v0
    HardFault_Handler
        0x00018330:    f01e0f04    ....    TST      lr,#4
        0x00018334:    bf0c        ..      ITE      EQ
        0x00018336:    f3ef8008    ....    MRSEQ    r0,MSP
        0x0001833a:    f3ef8009    ....    MRSNE    r0,PSP
        0x0001833e:    4904        .I      LDR      r1,[pc,#16] ; [0x18350] = 0x10003780
        0x00018340:    f5017100    ...q    ADD      r1,r1,#0x200
        0x00018344:    f0210103    !...    BIC      r1,r1,#3
        0x00018348:    468d        .F      MOV      sp,r1
        0x0001834a:    f004be23    ..#.    B.W      am_util_faultisr_collect_data ; 0x1cf94
        0x0001834e:    bf00        ..      NOP      
    $d
        0x00018350:    10003780    .7..    DCD    268449664
    $t
    getStackedReg
        0x00018354:    0080        ..      LSLS     r0,r0,#2
        0x00018356:    1840        @.      ADDS     r0,r0,r1
        0x00018358:    6800        .h      LDR      r0,[r0,#0]
        0x0001835a:    4770        pG      BX       lr
    .emb_text
    $v0
    am_hal_interrupt_master_enable
        0x0001835c:    f3ef8010    ....    MRS      r0,PRIMASK
        0x00018360:    b662        b.      CPSIE    i
        0x00018362:    4770        pG      BX       lr
    am_hal_interrupt_master_disable
        0x00018364:    f3ef8010    ....    MRS      r0,PRIMASK
        0x00018368:    b672        r.      CPSID    i
        0x0001836a:    4770        pG      BX       lr
    am_hal_interrupt_master_set
        0x0001836c:    f3808810    ....    MSR      PRIMASK,r0
        0x00018370:    4770        pG      BX       lr
        0x00018372:    0000        ..      MOVS     r0,r0
    .text
    $v0
    __user_initial_stackheap
        0x00018374:    4802        .H      LDR      r0,[pc,#8] ; [0x18380] = 0x10009068
        0x00018376:    4903        .I      LDR      r1,[pc,#12] ; [0x18384] = 0x1000bb68
        0x00018378:    4a01        .J      LDR      r2,[pc,#4] ; [0x18380] = 0x10009068
        0x0001837a:    4b03        .K      LDR      r3,[pc,#12] ; [0x18388] = 0x10009068
        0x0001837c:    4770        pG      BX       lr
    $d
        0x0001837e:    0000        ..      DCW    0
        0x00018380:    10009068    h...    DCD    268472424
        0x00018384:    1000bb68    h...    DCD    268483432
        0x00018388:    10009068    h...    DCD    268472424
    $t
    .text
    __aeabi_llsl
    _ll_shift_l
        0x0001838c:    f1b20320    .. .    SUBS     r3,r2,#0x20
        0x00018390:    d50a        ..      BPL      0x183a8 ; __aeabi_llsl + 28
        0x00018392:    f1c20320    .. .    RSB      r3,r2,#0x20
        0x00018396:    fa01f102    ....    LSL      r1,r1,r2
        0x0001839a:    fa20f303     ...    LSR      r3,r0,r3
        0x0001839e:    fa00f002    ....    LSL      r0,r0,r2
        0x000183a2:    ea410103    A...    ORR      r1,r1,r3
        0x000183a6:    4770        pG      BX       lr
        0x000183a8:    fa00f103    ....    LSL      r1,r0,r3
        0x000183ac:    f04f0000    O...    MOV      r0,#0
        0x000183b0:    4770        pG      BX       lr
    .text
    __aeabi_llsr
    _ll_ushift_r
        0x000183b2:    f1b20320    .. .    SUBS     r3,r2,#0x20
        0x000183b6:    d50a        ..      BPL      0x183ce ; __aeabi_llsr + 28
        0x000183b8:    f1c20320    .. .    RSB      r3,r2,#0x20
        0x000183bc:    fa20f002     ...    LSR      r0,r0,r2
        0x000183c0:    fa01f303    ....    LSL      r3,r1,r3
        0x000183c4:    fa21f102    !...    LSR      r1,r1,r2
        0x000183c8:    ea400003    @...    ORR      r0,r0,r3
        0x000183cc:    4770        pG      BX       lr
        0x000183ce:    fa21f003    !...    LSR      r0,r1,r3
        0x000183d2:    f04f0100    O...    MOV      r1,#0
        0x000183d6:    4770        pG      BX       lr
    .text
    memcmp
        0x000183d8:    ea400301    @...    ORR      r3,r0,r1
        0x000183dc:    b510        ..      PUSH     {r4,lr}
        0x000183de:    079b        ..      LSLS     r3,r3,#30
        0x000183e0:    d10f        ..      BNE      0x18402 ; memcmp + 42
        0x000183e2:    2a04        .*      CMP      r2,#4
        0x000183e4:    d30d        ..      BCC      0x18402 ; memcmp + 42
        0x000183e6:    c810        ..      LDM      r0!,{r4}
        0x000183e8:    c908        ..      LDM      r1!,{r3}
        0x000183ea:    1f12        ..      SUBS     r2,r2,#4
        0x000183ec:    429c        .B      CMP      r4,r3
        0x000183ee:    d0f8        ..      BEQ      0x183e2 ; memcmp + 10
        0x000183f0:    ba20         .      REV      r0,r4
        0x000183f2:    ba19        ..      REV      r1,r3
        0x000183f4:    4288        .B      CMP      r0,r1
        0x000183f6:    d901        ..      BLS      0x183fc ; memcmp + 36
        0x000183f8:    2001        .       MOVS     r0,#1
        0x000183fa:    bd10        ..      POP      {r4,pc}
        0x000183fc:    f04f30ff    O..0    MOV      r0,#0xffffffff
        0x00018400:    bd10        ..      POP      {r4,pc}
        0x00018402:    b11a        ..      CBZ      r2,0x1840c ; memcmp + 52
        0x00018404:    07d3        ..      LSLS     r3,r2,#31
        0x00018406:    d003        ..      BEQ      0x18410 ; memcmp + 56
        0x00018408:    1c52        R.      ADDS     r2,r2,#1
        0x0001840a:    e007        ..      B        0x1841c ; memcmp + 68
        0x0001840c:    2000        .       MOVS     r0,#0
        0x0001840e:    bd10        ..      POP      {r4,pc}
        0x00018410:    f8103b01    ...;    LDRB     r3,[r0],#1
        0x00018414:    f8114b01    ...K    LDRB     r4,[r1],#1
        0x00018418:    1b1b        ..      SUBS     r3,r3,r4
        0x0001841a:    d107        ..      BNE      0x1842c ; memcmp + 84
        0x0001841c:    f8103b01    ...;    LDRB     r3,[r0],#1
        0x00018420:    f8114b01    ...K    LDRB     r4,[r1],#1
        0x00018424:    1b1b        ..      SUBS     r3,r3,r4
        0x00018426:    d101        ..      BNE      0x1842c ; memcmp + 84
        0x00018428:    1e92        ..      SUBS     r2,r2,#2
        0x0001842a:    d1f1        ..      BNE      0x18410 ; memcmp + 56
        0x0001842c:    4618        .F      MOV      r0,r3
        0x0001842e:    bd10        ..      POP      {r4,pc}
    .text
    __aeabi_memcpy
    __rt_memcpy
        0x00018430:    2a03        .*      CMP      r2,#3
        0x00018432:    f2408030    @.0.    BLS.W    _memcpy_lastbytes ; 0x18496
        0x00018436:    f0100c03    ....    ANDS     r12,r0,#3
        0x0001843a:    f0008015    ....    BEQ.W    0x18468 ; __aeabi_memcpy + 56
        0x0001843e:    f8113b01    ...;    LDRB     r3,[r1],#1
        0x00018442:    f1bc0f02    ....    CMP      r12,#2
        0x00018446:    4462        bD      ADD      r2,r2,r12
        0x00018448:    bf98        ..      IT       LS
        0x0001844a:    f811cb01    ....    LDRBLS   r12,[r1],#1
        0x0001844e:    f8003b01    ...;    STRB     r3,[r0],#1
        0x00018452:    bf38        8.      IT       CC
        0x00018454:    f8113b01    ...;    LDRBCC   r3,[r1],#1
        0x00018458:    f1a20204    ....    SUB      r2,r2,#4
        0x0001845c:    bf98        ..      IT       LS
        0x0001845e:    f800cb01    ....    STRBLS   r12,[r0],#1
        0x00018462:    bf38        8.      IT       CC
        0x00018464:    f8003b01    ...;    STRBCC   r3,[r0],#1
        0x00018468:    f0110303    ....    ANDS     r3,r1,#3
        0x0001846c:    f0008025    ..%.    BEQ.W    __aeabi_memcpy4 ; 0x184ba
        0x00018470:    3a08        .:      SUBS     r2,r2,#8
        0x00018472:    f0c08008    ....    BCC.W    0x18486 ; __aeabi_memcpy + 86
        0x00018476:    f8513b04    Q..;    LDR      r3,[r1],#4
        0x0001847a:    3a08        .:      SUBS     r2,r2,#8
        0x0001847c:    f851cb04    Q...    LDR      r12,[r1],#4
        0x00018480:    e8a01008    ....    STM      r0!,{r3,r12}
        0x00018484:    e7f5        ..      B        0x18472 ; __aeabi_memcpy + 66
        0x00018486:    1d12        ..      ADDS     r2,r2,#4
        0x00018488:    bf5c        \.      ITT      PL
        0x0001848a:    f8513b04    Q..;    LDRPL    r3,[r1],#4
        0x0001848e:    f8403b04    @..;    STRPL    r3,[r0],#4
        0x00018492:    f3af8000    ....    NOP.W    
    _memcpy_lastbytes
        0x00018496:    07d2        ..      LSLS     r2,r2,#31
        0x00018498:    bf24        $.      ITT      CS
        0x0001849a:    f8113b01    ...;    LDRBCS   r3,[r1],#1
        0x0001849e:    f811cb01    ....    LDRBCS   r12,[r1],#1
        0x000184a2:    bf48        H.      IT       MI
        0x000184a4:    f8112b01    ...+    LDRBMI   r2,[r1],#1
        0x000184a8:    bf24        $.      ITT      CS
        0x000184aa:    f8003b01    ...;    STRBCS   r3,[r0],#1
        0x000184ae:    f800cb01    ....    STRBCS   r12,[r0],#1
        0x000184b2:    bf48        H.      IT       MI
        0x000184b4:    f8002b01    ...+    STRBMI   r2,[r0],#1
        0x000184b8:    4770        pG      BX       lr
    .text
    __aeabi_memcpy4
    __aeabi_memcpy8
    __rt_memcpy_w
        0x000184ba:    b510        ..      PUSH     {r4,lr}
        0x000184bc:    3a20         :      SUBS     r2,r2,#0x20
        0x000184be:    f0c0800b    ....    BCC.W    0x184d8 ; __aeabi_memcpy4 + 30
        0x000184c2:    e8b15018    ...P    LDM      r1!,{r3,r4,r12,lr}
        0x000184c6:    3a20         :      SUBS     r2,r2,#0x20
        0x000184c8:    e8a05018    ...P    STM      r0!,{r3,r4,r12,lr}
        0x000184cc:    e8b15018    ...P    LDM      r1!,{r3,r4,r12,lr}
        0x000184d0:    e8a05018    ...P    STM      r0!,{r3,r4,r12,lr}
        0x000184d4:    f4bfaff5    ....    BCS.W    0x184c2 ; __aeabi_memcpy4 + 8
        0x000184d8:    ea5f7c02    _..|    LSLS     r12,r2,#28
        0x000184dc:    bf24        $.      ITT      CS
        0x000184de:    e8b15018    ...P    LDMCS    r1!,{r3,r4,r12,lr}
        0x000184e2:    e8a05018    ...P    STMCS    r0!,{r3,r4,r12,lr}
        0x000184e6:    bf44        D.      ITT      MI
        0x000184e8:    c918        ..      LDMMI    r1!,{r3,r4}
        0x000184ea:    c018        ..      STMMI    r0!,{r3,r4}
        0x000184ec:    e8bd4010    ...@    POP      {r4,lr}
        0x000184f0:    ea5f7c82    _..|    LSLS     r12,r2,#30
        0x000184f4:    bf24        $.      ITT      CS
        0x000184f6:    f8513b04    Q..;    LDRCS    r3,[r1],#4
        0x000184fa:    f8403b04    @..;    STRCS    r3,[r0],#4
        0x000184fe:    bf08        ..      IT       EQ
        0x00018500:    4770        pG      BXEQ     lr
    _memcpy_lastbytes_aligned
        0x00018502:    07d2        ..      LSLS     r2,r2,#31
        0x00018504:    bf28        (.      IT       CS
        0x00018506:    f8313b02    1..;    LDRHCS   r3,[r1],#2
        0x0001850a:    bf48        H.      IT       MI
        0x0001850c:    f8112b01    ...+    LDRBMI   r2,[r1],#1
        0x00018510:    bf28        (.      IT       CS
        0x00018512:    f8203b02     ..;    STRHCS   r3,[r0],#2
        0x00018516:    bf48        H.      IT       MI
        0x00018518:    f8002b01    ...+    STRBMI   r2,[r0],#1
        0x0001851c:    4770        pG      BX       lr
    .text
    __aeabi_memset
        0x0001851e:    f00203ff    ....    AND      r3,r2,#0xff
        0x00018522:    ea432203    C.."    ORR      r2,r3,r3,LSL #8
        0x00018526:    ea424202    B..B    ORR      r2,r2,r2,LSL #16
        0x0001852a:    f000b82c    ..,.    B.W      _memset ; 0x18586
    .text
    __aeabi_memclr4
    __aeabi_memclr8
    __rt_memclr_w
        0x0001852e:    f04f0200    O...    MOV      r2,#0
    _memset_w
        0x00018532:    b500        ..      PUSH     {lr}
        0x00018534:    4613        .F      MOV      r3,r2
        0x00018536:    4694        .F      MOV      r12,r2
        0x00018538:    4696        .F      MOV      lr,r2
        0x0001853a:    3920         9      SUBS     r1,r1,#0x20
        0x0001853c:    bf22        ".      ITTT     CS
        0x0001853e:    e8a0500c    ...P    STMCS    r0!,{r2,r3,r12,lr}
        0x00018542:    e8a0500c    ...P    STMCS    r0!,{r2,r3,r12,lr}
        0x00018546:    f1b10120    .. .    SUBSCS   r1,r1,#0x20
        0x0001854a:    f4bfaff7    ....    BCS.W    0x1853c ; _memset_w + 10
        0x0001854e:    0709        ..      LSLS     r1,r1,#28
        0x00018550:    bf28        (.      IT       CS
        0x00018552:    e8a0500c    ...P    STMCS    r0!,{r2,r3,r12,lr}
        0x00018556:    bf48        H.      IT       MI
        0x00018558:    c00c        ..      STMMI    r0!,{r2,r3}
        0x0001855a:    f85deb04    ]...    POP      {lr}
        0x0001855e:    0089        ..      LSLS     r1,r1,#2
        0x00018560:    bf28        (.      IT       CS
        0x00018562:    f8402b04    @..+    STRCS    r2,[r0],#4
        0x00018566:    bf08        ..      IT       EQ
        0x00018568:    4770        pG      BXEQ     lr
        0x0001856a:    bf48        H.      IT       MI
        0x0001856c:    f8202b02     ..+    STRHMI   r2,[r0],#2
        0x00018570:    f0114f80    ...O    TST      r1,#0x40000000
        0x00018574:    bf18        ..      IT       NE
        0x00018576:    f8002b01    ...+    STRBNE   r2,[r0],#1
        0x0001857a:    4770        pG      BX       lr
    .text
    __use_two_region_memory
        0x0001857c:    4770        pG      BX       lr
    __rt_heap_escrow$2region
        0x0001857e:    4770        pG      BX       lr
    __rt_heap_expand$2region
        0x00018580:    4770        pG      BX       lr
    .text
    __aeabi_memclr
    __rt_memclr
        0x00018582:    f04f0200    O...    MOV      r2,#0
    _memset
        0x00018586:    2904        .)      CMP      r1,#4
        0x00018588:    f0c08012    ....    BCC.W    0x185b0 ; _memset + 42
        0x0001858c:    f0100c03    ....    ANDS     r12,r0,#3
        0x00018590:    f43fafcf    ?...    BEQ.W    _memset_w ; 0x18532
        0x00018594:    f1cc0c04    ....    RSB      r12,r12,#4
        0x00018598:    f1bc0f02    ....    CMP      r12,#2
        0x0001859c:    bf18        ..      IT       NE
        0x0001859e:    f8002b01    ...+    STRBNE   r2,[r0],#1
        0x000185a2:    bfa8        ..      IT       GE
        0x000185a4:    f8202b02     ..+    STRHGE   r2,[r0],#2
        0x000185a8:    eba1010c    ....    SUB      r1,r1,r12
        0x000185ac:    f7ffbfc1    ....    B.W      _memset_w ; 0x18532
        0x000185b0:    ea5f7cc1    _..|    LSLS     r12,r1,#31
        0x000185b4:    bf24        $.      ITT      CS
        0x000185b6:    f8002b01    ...+    STRBCS   r2,[r0],#1
        0x000185ba:    f8002b01    ...+    STRBCS   r2,[r0],#1
        0x000185be:    bf48        H.      IT       MI
        0x000185c0:    f8002b01    ...+    STRBMI   r2,[r0],#1
        0x000185c4:    4770        pG      BX       lr
    .text
    __user_setup_stackheap
        0x000185c6:    4675        uF      MOV      r5,lr
        0x000185c8:    f000f82c    ..,.    BL       __user_libspace ; 0x18624
        0x000185cc:    46ae        .F      MOV      lr,r5
        0x000185ce:    0005        ..      MOVS     r5,r0
        0x000185d0:    4669        iF      MOV      r1,sp
        0x000185d2:    4653        SF      MOV      r3,r10
        0x000185d4:    f0200007     ...    BIC      r0,r0,#7
        0x000185d8:    4685        .F      MOV      sp,r0
        0x000185da:    b018        ..      ADD      sp,sp,#0x60
        0x000185dc:    b520         .      PUSH     {r5,lr}
        0x000185de:    f7fffec9    ....    BL       __user_initial_stackheap ; 0x18374
        0x000185e2:    e8bd4020    .. @    POP      {r5,lr}
        0x000185e6:    f04f0600    O...    MOV      r6,#0
        0x000185ea:    f04f0700    O...    MOV      r7,#0
        0x000185ee:    f04f0800    O...    MOV      r8,#0
        0x000185f2:    f04f0b00    O...    MOV      r11,#0
        0x000185f6:    f0210107    !...    BIC      r1,r1,#7
        0x000185fa:    46ac        .F      MOV      r12,r5
        0x000185fc:    e8ac09c0    ....    STM      r12!,{r6-r8,r11}
        0x00018600:    e8ac09c0    ....    STM      r12!,{r6-r8,r11}
        0x00018604:    e8ac09c0    ....    STM      r12!,{r6-r8,r11}
        0x00018608:    e8ac09c0    ....    STM      r12!,{r6-r8,r11}
        0x0001860c:    468d        .F      MOV      sp,r1
        0x0001860e:    4770        pG      BX       lr
    .text
    exit
        0x00018610:    b510        ..      PUSH     {r4,lr}
        0x00018612:    4604        .F      MOV      r4,r0
        0x00018614:    f3af8000    ....    NOP.W    
        0x00018618:    4620         F      MOV      r0,r4
        0x0001861a:    e8bd4010    ...@    POP      {r4,lr}
        0x0001861e:    f7ffbe80    ....    B.W      __rt_exit ; 0x18322
        0x00018622:    0000        ..      MOVS     r0,r0
    .text
    __user_libspace
    __user_perproc_libspace
    __user_perthread_libspace
        0x00018624:    4800        .H      LDR      r0,[pc,#0] ; [0x18628] = 0x10009004
        0x00018626:    4770        pG      BX       lr
    $d
        0x00018628:    10009004    ....    DCD    268472324
    $t
    .text
    _sys_exit
        0x0001862c:    4901        .I      LDR      r1,[pc,#4] ; [0x18634] = 0x20026
        0x0001862e:    2018        .       MOVS     r0,#0x18
        0x00018630:    beab        ..      BKPT     #0xab
        0x00018632:    e7fe        ..      B        0x18632 ; _sys_exit + 6
    $d
        0x00018634:    00020026    &...    DCD    131110
    $t
    .text
    __I$use$semihosting
    __use_no_semihosting_swi
        0x00018638:    4770        pG      BX       lr
    .text
    __semihosting_library_function
        0x0001863a:    0000        ..      MOVS     r0,r0
    i.ClkReqIntService
    ClkReqIntService
        0x0001863c:    b538        8.      PUSH     {r3-r5,lr}
        0x0001863e:    4605        .F      MOV      r5,r0
        0x00018640:    480f        .H      LDR      r0,[pc,#60] ; [0x18680] = 0x10000084
        0x00018642:    6800        .h      LDR      r0,[r0,#0]
        0x00018644:    f000fce8    ....    BL       am_devices_cooper_clkreq_read ; 0x19018
        0x00018648:    b120         .      CBZ      r0,0x18654 ; ClkReqIntService + 24
        0x0001864a:    490e        .I      LDR      r1,[pc,#56] ; [0x18684] = 0x1ee18
        0x0001864c:    2002        .       MOVS     r0,#2
        0x0001864e:    f003f935    ..5.    BL       am_hal_mcuctrl_control ; 0x1b8bc
        0x00018652:    e003        ..      B        0x1865c ; ClkReqIntService + 32
        0x00018654:    490b        .I      LDR      r1,[pc,#44] ; [0x18684] = 0x1ee18
        0x00018656:    2004        .       MOVS     r0,#4
        0x00018658:    f003f930    ..0.    BL       am_hal_mcuctrl_control ; 0x1b8bc
        0x0001865c:    4c0a        .L      LDR      r4,[pc,#40] ; [0x18688] = 0x40010000
        0x0001865e:    f7fffe81    ....    BL       am_hal_interrupt_master_disable ; 0x18364
        0x00018662:    9000        ..      STR      r0,[sp,#0]
        0x00018664:    2073        s       MOVS     r0,#0x73
        0x00018666:    4909        .I      LDR      r1,[pc,#36] ; [0x1868c] = 0x40010200
        0x00018668:    6008        .`      STR      r0,[r1,#0]
        0x0001866a:    f8d400d0    ....    LDR      r0,[r4,#0xd0]
        0x0001866e:    f08000c0    ....    EOR      r0,r0,#0xc0
        0x00018672:    f8c400d0    ....    STR      r0,[r4,#0xd0]
        0x00018676:    9800        ..      LDR      r0,[sp,#0]
        0x00018678:    f7fffe78    ..x.    BL       am_hal_interrupt_master_set ; 0x1836c
        0x0001867c:    bd38        8.      POP      {r3-r5,pc}
    $d
        0x0001867e:    0000        ..      DCW    0
        0x00018680:    10000084    ....    DCD    268435588
        0x00018684:    0001ee18    ....    DCD    126488
        0x00018688:    40010000    ...@    DCD    1073807360
        0x0001868c:    40010200    ...@    DCD    1073807872
    $t
    i.__ARM_common_memcpy4_5
    __ARM_common_memcpy4_5
        0x00018690:    680a        .h      LDR      r2,[r1,#0]
        0x00018692:    6002        .`      STR      r2,[r0,#0]
        0x00018694:    790b        .y      LDRB     r3,[r1,#4]
        0x00018696:    7103        .q      STRB     r3,[r0,#4]
        0x00018698:    4770        pG      BX       lr
    i.__NVIC_EnableIRQ
    __NVIC_EnableIRQ
        0x0001869a:    2800        .(      CMP      r0,#0
        0x0001869c:    db0d        ..      BLT      0x186ba ; __NVIC_EnableIRQ + 32
        0x0001869e:    bf00        ..      NOP      
        0x000186a0:    bf00        ..      NOP      
        0x000186a2:    f000021f    ....    AND      r2,r0,#0x1f
        0x000186a6:    2101        .!      MOVS     r1,#1
        0x000186a8:    4091        .@      LSLS     r1,r1,r2
        0x000186aa:    0942        B.      LSRS     r2,r0,#5
        0x000186ac:    0092        ..      LSLS     r2,r2,#2
        0x000186ae:    f10222e0    ..."    ADD      r2,r2,#0xe000e000
        0x000186b2:    f8c21100    ....    STR      r1,[r2,#0x100]
        0x000186b6:    bf00        ..      NOP      
        0x000186b8:    bf00        ..      NOP      
        0x000186ba:    4770        pG      BX       lr
    i.__NVIC_SetPriority
    __NVIC_SetPriority
        0x000186bc:    b510        ..      PUSH     {r4,lr}
        0x000186be:    2800        .(      CMP      r0,#0
        0x000186c0:    db04        ..      BLT      0x186cc ; __NVIC_SetPriority + 16
        0x000186c2:    074a        J.      LSLS     r2,r1,#29
        0x000186c4:    0e13        ..      LSRS     r3,r2,#24
        0x000186c6:    4a05        .J      LDR      r2,[pc,#20] ; [0x186dc] = 0xe000e400
        0x000186c8:    5413        .T      STRB     r3,[r2,r0]
        0x000186ca:    e006        ..      B        0x186da ; __NVIC_SetPriority + 30
        0x000186cc:    074a        J.      LSLS     r2,r1,#29
        0x000186ce:    0e14        ..      LSRS     r4,r2,#24
        0x000186d0:    4a03        .J      LDR      r2,[pc,#12] ; [0x186e0] = 0xe000ed18
        0x000186d2:    f000030f    ....    AND      r3,r0,#0xf
        0x000186d6:    1f1b        ..      SUBS     r3,r3,#4
        0x000186d8:    54d4        .T      STRB     r4,[r2,r3]
        0x000186da:    bd10        ..      POP      {r4,pc}
    $d
        0x000186dc:    e000e400    ....    DCD    3758154752
        0x000186e0:    e000ed18    ....    DCD    3758157080
    $t
    i.am_bsp_iom_pins_disable
    am_bsp_iom_pins_disable
        0x000186e4:    2808        .(      CMP      r0,#8
        0x000186e6:    bf28        (.      IT       CS
        0x000186e8:    4770        pG      BXCS     lr
        0x000186ea:    b538        8.      PUSH     {r3-r5,lr}
        0x000186ec:    ea410080    A...    ORR      r0,r1,r0,LSL #2
        0x000186f0:    281e        .(      CMP      r0,#0x1e
        0x000186f2:    bf28        (.      IT       CS
        0x000186f4:    bd38        8.      POPCS    {r3-r5,pc}
        0x000186f6:    e8dff000    ....    TBB      [pc,r0]
    $d
        0x000186fa:    c70f        ..      DCW    50959
        0x000186fc:    d426fdfd    ..&.    DCD    3559325181
        0x00018700:    e13dfdfd    ..=.    DCD    3778936317
        0x00018704:    ee54fdfd    ..T.    DCD    3998547453
        0x00018708:    fd6bfdfd    ..k.    DCD    4251713021
        0x0001870c:    fc82fdfd    ....    DCD    4236443133
        0x00018710:    fb99fdfd    ....    DCD    4221173245
        0x00018714:    fab0fdfd    ....    DCD    4205903357
    $t
        0x00018718:    4c8c        .L      LDR      r4,[pc,#560] ; [0x1894c] = 0x1ee28
        0x0001871a:    6821        !h      LDR      r1,[r4,#0]
        0x0001871c:    9100        ..      STR      r1,[sp,#0]
        0x0001871e:    2005        .       MOVS     r0,#5
        0x00018720:    f001ffd2    ....    BL       am_hal_gpio_pinconfig ; 0x1a6c8
        0x00018724:    6821        !h      LDR      r1,[r4,#0]
        0x00018726:    9100        ..      STR      r1,[sp,#0]
        0x00018728:    2007        .       MOVS     r0,#7
        0x0001872a:    f001ffcd    ....    BL       am_hal_gpio_pinconfig ; 0x1a6c8
        0x0001872e:    6821        !h      LDR      r1,[r4,#0]
        0x00018730:    9100        ..      STR      r1,[sp,#0]
        0x00018732:    2006        .       MOVS     r0,#6
        0x00018734:    f001ffc8    ....    BL       am_hal_gpio_pinconfig ; 0x1a6c8
        0x00018738:    6821        !h      LDR      r1,[r4,#0]
        0x0001873a:    9100        ..      STR      r1,[sp,#0]
        0x0001873c:    e8bd4038    ..8@    POP      {r3-r5,lr}
        0x00018740:    2048        H       MOVS     r0,#0x48
        0x00018742:    f001bfc1    ....    B.W      am_hal_gpio_pinconfig ; 0x1a6c8
        0x00018746:    4c81        .L      LDR      r4,[pc,#516] ; [0x1894c] = 0x1ee28
        0x00018748:    6821        !h      LDR      r1,[r4,#0]
        0x0001874a:    9100        ..      STR      r1,[sp,#0]
        0x0001874c:    2008        .       MOVS     r0,#8
        0x0001874e:    f001ffbb    ....    BL       am_hal_gpio_pinconfig ; 0x1a6c8
        0x00018752:    6821        !h      LDR      r1,[r4,#0]
        0x00018754:    9100        ..      STR      r1,[sp,#0]
        0x00018756:    200a        .       MOVS     r0,#0xa
        0x00018758:    f001ffb6    ....    BL       am_hal_gpio_pinconfig ; 0x1a6c8
        0x0001875c:    6821        !h      LDR      r1,[r4,#0]
        0x0001875e:    9100        ..      STR      r1,[sp,#0]
        0x00018760:    2009        .       MOVS     r0,#9
        0x00018762:    f001ffb1    ....    BL       am_hal_gpio_pinconfig ; 0x1a6c8
        0x00018766:    6821        !h      LDR      r1,[r4,#0]
        0x00018768:    9100        ..      STR      r1,[sp,#0]
        0x0001876a:    e8bd4038    ..8@    POP      {r3-r5,lr}
        0x0001876e:    200b        .       MOVS     r0,#0xb
        0x00018770:    f001bfaa    ....    B.W      am_hal_gpio_pinconfig ; 0x1a6c8
        0x00018774:    4c75        uL      LDR      r4,[pc,#468] ; [0x1894c] = 0x1ee28
        0x00018776:    6821        !h      LDR      r1,[r4,#0]
        0x00018778:    9100        ..      STR      r1,[sp,#0]
        0x0001877a:    2019        .       MOVS     r0,#0x19
        0x0001877c:    f001ffa4    ....    BL       am_hal_gpio_pinconfig ; 0x1a6c8
        0x00018780:    6821        !h      LDR      r1,[r4,#0]
        0x00018782:    9100        ..      STR      r1,[sp,#0]
        0x00018784:    201b        .       MOVS     r0,#0x1b
        0x00018786:    f001ff9f    ....    BL       am_hal_gpio_pinconfig ; 0x1a6c8
        0x0001878a:    6821        !h      LDR      r1,[r4,#0]
        0x0001878c:    9100        ..      STR      r1,[sp,#0]
        0x0001878e:    201a        .       MOVS     r0,#0x1a
        0x00018790:    f001ff9a    ....    BL       am_hal_gpio_pinconfig ; 0x1a6c8
        0x00018794:    6821        !h      LDR      r1,[r4,#0]
        0x00018796:    9100        ..      STR      r1,[sp,#0]
        0x00018798:    e8bd4038    ..8@    POP      {r3-r5,lr}
        0x0001879c:    2025        %       MOVS     r0,#0x25
        0x0001879e:    f001bf93    ....    B.W      am_hal_gpio_pinconfig ; 0x1a6c8
        0x000187a2:    4c6a        jL      LDR      r4,[pc,#424] ; [0x1894c] = 0x1ee28
        0x000187a4:    6821        !h      LDR      r1,[r4,#0]
        0x000187a6:    9100        ..      STR      r1,[sp,#0]
        0x000187a8:    201f        .       MOVS     r0,#0x1f
        0x000187aa:    f001ff8d    ....    BL       am_hal_gpio_pinconfig ; 0x1a6c8
        0x000187ae:    6821        !h      LDR      r1,[r4,#0]
        0x000187b0:    9100        ..      STR      r1,[sp,#0]
        0x000187b2:    2021        !       MOVS     r0,#0x21
        0x000187b4:    f001ff88    ....    BL       am_hal_gpio_pinconfig ; 0x1a6c8
        0x000187b8:    6821        !h      LDR      r1,[r4,#0]
        0x000187ba:    9100        ..      STR      r1,[sp,#0]
        0x000187bc:    2020                MOVS     r0,#0x20
        0x000187be:    f001ff83    ....    BL       am_hal_gpio_pinconfig ; 0x1a6c8
        0x000187c2:    6821        !h      LDR      r1,[r4,#0]
        0x000187c4:    9100        ..      STR      r1,[sp,#0]
        0x000187c6:    e8bd4038    ..8@    POP      {r3-r5,lr}
        0x000187ca:    2055        U       MOVS     r0,#0x55
        0x000187cc:    f001bf7c    ..|.    B.W      am_hal_gpio_pinconfig ; 0x1a6c8
        0x000187d0:    4c5e        ^L      LDR      r4,[pc,#376] ; [0x1894c] = 0x1ee28
        0x000187d2:    6821        !h      LDR      r1,[r4,#0]
        0x000187d4:    9100        ..      STR      r1,[sp,#0]
        0x000187d6:    2022        "       MOVS     r0,#0x22
        0x000187d8:    f001ff76    ..v.    BL       am_hal_gpio_pinconfig ; 0x1a6c8
        0x000187dc:    6821        !h      LDR      r1,[r4,#0]
        0x000187de:    9100        ..      STR      r1,[sp,#0]
        0x000187e0:    2024        $       MOVS     r0,#0x24
        0x000187e2:    f001ff71    ..q.    BL       am_hal_gpio_pinconfig ; 0x1a6c8
        0x000187e6:    6821        !h      LDR      r1,[r4,#0]
        0x000187e8:    9100        ..      STR      r1,[sp,#0]
        0x000187ea:    2023        #       MOVS     r0,#0x23
        0x000187ec:    f001ff6c    ..l.    BL       am_hal_gpio_pinconfig ; 0x1a6c8
        0x000187f0:    6821        !h      LDR      r1,[r4,#0]
        0x000187f2:    9100        ..      STR      r1,[sp,#0]
        0x000187f4:    e8bd4038    ..8@    POP      {r3-r5,lr}
        0x000187f8:    2036        6       MOVS     r0,#0x36
        0x000187fa:    f001bf65    ..e.    B.W      am_hal_gpio_pinconfig ; 0x1a6c8
        0x000187fe:    4c53        SL      LDR      r4,[pc,#332] ; [0x1894c] = 0x1ee28
        0x00018800:    6821        !h      LDR      r1,[r4,#0]
        0x00018802:    9100        ..      STR      r1,[sp,#0]
        0x00018804:    202f        /       MOVS     r0,#0x2f
        0x00018806:    f001ff5f    .._.    BL       am_hal_gpio_pinconfig ; 0x1a6c8
        0x0001880a:    6821        !h      LDR      r1,[r4,#0]
        0x0001880c:    9100        ..      STR      r1,[sp,#0]
        0x0001880e:    2031        1       MOVS     r0,#0x31
        0x00018810:    f001ff5a    ..Z.    BL       am_hal_gpio_pinconfig ; 0x1a6c8
        0x00018814:    6821        !h      LDR      r1,[r4,#0]
        0x00018816:    9100        ..      STR      r1,[sp,#0]
        0x00018818:    2030        0       MOVS     r0,#0x30
        0x0001881a:    f001ff55    ..U.    BL       am_hal_gpio_pinconfig ; 0x1a6c8
        0x0001881e:    6821        !h      LDR      r1,[r4,#0]
        0x00018820:    9100        ..      STR      r1,[sp,#0]
        0x00018822:    e8bd4038    ..8@    POP      {r3-r5,lr}
        0x00018826:    2049        I       MOVS     r0,#0x49
        0x00018828:    f001bf4e    ..N.    B.W      am_hal_gpio_pinconfig ; 0x1a6c8
        0x0001882c:    4c47        GL      LDR      r4,[pc,#284] ; [0x1894c] = 0x1ee28
        0x0001882e:    6821        !h      LDR      r1,[r4,#0]
        0x00018830:    9100        ..      STR      r1,[sp,#0]
        0x00018832:    203d        =       MOVS     r0,#0x3d
        0x00018834:    f001ff48    ..H.    BL       am_hal_gpio_pinconfig ; 0x1a6c8
        0x00018838:    6821        !h      LDR      r1,[r4,#0]
        0x0001883a:    9100        ..      STR      r1,[sp,#0]
        0x0001883c:    203f        ?       MOVS     r0,#0x3f
        0x0001883e:    f001ff43    ..C.    BL       am_hal_gpio_pinconfig ; 0x1a6c8
        0x00018842:    6821        !h      LDR      r1,[r4,#0]
        0x00018844:    9100        ..      STR      r1,[sp,#0]
        0x00018846:    203e        >       MOVS     r0,#0x3e
        0x00018848:    f001ff3e    ..>.    BL       am_hal_gpio_pinconfig ; 0x1a6c8
        0x0001884c:    6821        !h      LDR      r1,[r4,#0]
        0x0001884e:    9100        ..      STR      r1,[sp,#0]
        0x00018850:    e8bd4038    ..8@    POP      {r3-r5,lr}
        0x00018854:    204a        J       MOVS     r0,#0x4a
        0x00018856:    f001bf37    ..7.    B.W      am_hal_gpio_pinconfig ; 0x1a6c8
        0x0001885a:    4c3c        <L      LDR      r4,[pc,#240] ; [0x1894c] = 0x1ee28
        0x0001885c:    6821        !h      LDR      r1,[r4,#0]
        0x0001885e:    9100        ..      STR      r1,[sp,#0]
        0x00018860:    2016        .       MOVS     r0,#0x16
        0x00018862:    f001ff31    ..1.    BL       am_hal_gpio_pinconfig ; 0x1a6c8
        0x00018866:    6821        !h      LDR      r1,[r4,#0]
        0x00018868:    9100        ..      STR      r1,[sp,#0]
        0x0001886a:    2018        .       MOVS     r0,#0x18
        0x0001886c:    f001ff2c    ..,.    BL       am_hal_gpio_pinconfig ; 0x1a6c8
        0x00018870:    6821        !h      LDR      r1,[r4,#0]
        0x00018872:    9100        ..      STR      r1,[sp,#0]
        0x00018874:    2017        .       MOVS     r0,#0x17
        0x00018876:    f001ff27    ..'.    BL       am_hal_gpio_pinconfig ; 0x1a6c8
        0x0001887a:    6821        !h      LDR      r1,[r4,#0]
        0x0001887c:    9100        ..      STR      r1,[sp,#0]
        0x0001887e:    e8bd4038    ..8@    POP      {r3-r5,lr}
        0x00018882:    2058        X       MOVS     r0,#0x58
        0x00018884:    f001bf20    .. .    B.W      am_hal_gpio_pinconfig ; 0x1a6c8
        0x00018888:    4c30        0L      LDR      r4,[pc,#192] ; [0x1894c] = 0x1ee28
        0x0001888a:    6821        !h      LDR      r1,[r4,#0]
        0x0001888c:    9100        ..      STR      r1,[sp,#0]
        0x0001888e:    2005        .       MOVS     r0,#5
        0x00018890:    f001ff1a    ....    BL       am_hal_gpio_pinconfig ; 0x1a6c8
        0x00018894:    6821        !h      LDR      r1,[r4,#0]
        0x00018896:    9100        ..      STR      r1,[sp,#0]
        0x00018898:    e8bd4038    ..8@    POP      {r3-r5,lr}
        0x0001889c:    2006        .       MOVS     r0,#6
        0x0001889e:    f001bf13    ....    B.W      am_hal_gpio_pinconfig ; 0x1a6c8
        0x000188a2:    4c2a        *L      LDR      r4,[pc,#168] ; [0x1894c] = 0x1ee28
        0x000188a4:    6821        !h      LDR      r1,[r4,#0]
        0x000188a6:    9100        ..      STR      r1,[sp,#0]
        0x000188a8:    2008        .       MOVS     r0,#8
        0x000188aa:    f001ff0d    ....    BL       am_hal_gpio_pinconfig ; 0x1a6c8
        0x000188ae:    6821        !h      LDR      r1,[r4,#0]
        0x000188b0:    9100        ..      STR      r1,[sp,#0]
        0x000188b2:    e8bd4038    ..8@    POP      {r3-r5,lr}
        0x000188b6:    2009        .       MOVS     r0,#9
        0x000188b8:    f001bf06    ....    B.W      am_hal_gpio_pinconfig ; 0x1a6c8
        0x000188bc:    4c23        #L      LDR      r4,[pc,#140] ; [0x1894c] = 0x1ee28
        0x000188be:    6821        !h      LDR      r1,[r4,#0]
        0x000188c0:    9100        ..      STR      r1,[sp,#0]
        0x000188c2:    2019        .       MOVS     r0,#0x19
        0x000188c4:    f001ff00    ....    BL       am_hal_gpio_pinconfig ; 0x1a6c8
        0x000188c8:    6821        !h      LDR      r1,[r4,#0]
        0x000188ca:    9100        ..      STR      r1,[sp,#0]
        0x000188cc:    e8bd4038    ..8@    POP      {r3-r5,lr}
        0x000188d0:    201a        .       MOVS     r0,#0x1a
        0x000188d2:    f001bef9    ....    B.W      am_hal_gpio_pinconfig ; 0x1a6c8
        0x000188d6:    4c1d        .L      LDR      r4,[pc,#116] ; [0x1894c] = 0x1ee28
        0x000188d8:    6821        !h      LDR      r1,[r4,#0]
        0x000188da:    9100        ..      STR      r1,[sp,#0]
        0x000188dc:    201f        .       MOVS     r0,#0x1f
        0x000188de:    f001fef3    ....    BL       am_hal_gpio_pinconfig ; 0x1a6c8
        0x000188e2:    6821        !h      LDR      r1,[r4,#0]
        0x000188e4:    9100        ..      STR      r1,[sp,#0]
        0x000188e6:    e8bd4038    ..8@    POP      {r3-r5,lr}
        0x000188ea:    2020                MOVS     r0,#0x20
        0x000188ec:    e003        ..      B        0x188f6 ; am_bsp_iom_pins_disable + 530
        0x000188ee:    e01e        ..      B        0x1892e ; am_bsp_iom_pins_disable + 586
        0x000188f0:    e010        ..      B        0x18914 ; am_bsp_iom_pins_disable + 560
        0x000188f2:    e002        ..      B        0x188fa ; am_bsp_iom_pins_disable + 534
        0x000188f4:    e028        (.      B        0x18948 ; am_bsp_iom_pins_disable + 612
        0x000188f6:    f001bee7    ....    B.W      am_hal_gpio_pinconfig ; 0x1a6c8
        0x000188fa:    4c14        .L      LDR      r4,[pc,#80] ; [0x1894c] = 0x1ee28
        0x000188fc:    6821        !h      LDR      r1,[r4,#0]
        0x000188fe:    9100        ..      STR      r1,[sp,#0]
        0x00018900:    202f        /       MOVS     r0,#0x2f
        0x00018902:    f001fee1    ....    BL       am_hal_gpio_pinconfig ; 0x1a6c8
        0x00018906:    6821        !h      LDR      r1,[r4,#0]
        0x00018908:    9100        ..      STR      r1,[sp,#0]
        0x0001890a:    e8bd4038    ..8@    POP      {r3-r5,lr}
        0x0001890e:    2030        0       MOVS     r0,#0x30
        0x00018910:    f001beda    ....    B.W      am_hal_gpio_pinconfig ; 0x1a6c8
        0x00018914:    4c0d        .L      LDR      r4,[pc,#52] ; [0x1894c] = 0x1ee28
        0x00018916:    6821        !h      LDR      r1,[r4,#0]
        0x00018918:    9100        ..      STR      r1,[sp,#0]
        0x0001891a:    203d        =       MOVS     r0,#0x3d
        0x0001891c:    f001fed4    ....    BL       am_hal_gpio_pinconfig ; 0x1a6c8
        0x00018920:    6821        !h      LDR      r1,[r4,#0]
        0x00018922:    9100        ..      STR      r1,[sp,#0]
        0x00018924:    e8bd4038    ..8@    POP      {r3-r5,lr}
        0x00018928:    203e        >       MOVS     r0,#0x3e
        0x0001892a:    f001becd    ....    B.W      am_hal_gpio_pinconfig ; 0x1a6c8
        0x0001892e:    4c07        .L      LDR      r4,[pc,#28] ; [0x1894c] = 0x1ee28
        0x00018930:    6821        !h      LDR      r1,[r4,#0]
        0x00018932:    9100        ..      STR      r1,[sp,#0]
        0x00018934:    2016        .       MOVS     r0,#0x16
        0x00018936:    f001fec7    ....    BL       am_hal_gpio_pinconfig ; 0x1a6c8
        0x0001893a:    6821        !h      LDR      r1,[r4,#0]
        0x0001893c:    9100        ..      STR      r1,[sp,#0]
        0x0001893e:    e8bd4038    ..8@    POP      {r3-r5,lr}
        0x00018942:    2017        .       MOVS     r0,#0x17
        0x00018944:    f001bec0    ....    B.W      am_hal_gpio_pinconfig ; 0x1a6c8
        0x00018948:    bd38        8.      POP      {r3-r5,pc}
    $d
        0x0001894a:    0000        ..      DCW    0
        0x0001894c:    0001ee28    (...    DCD    126504
    $t
    i.am_bsp_iom_pins_enable
    am_bsp_iom_pins_enable
        0x00018950:    2808        .(      CMP      r0,#8
        0x00018952:    bf28        (.      IT       CS
        0x00018954:    4770        pG      BXCS     lr
        0x00018956:    b508        ..      PUSH     {r3,lr}
        0x00018958:    ea410080    A...    ORR      r0,r1,r0,LSL #2
        0x0001895c:    281e        .(      CMP      r0,#0x1e
        0x0001895e:    bf28        (.      IT       CS
        0x00018960:    bd08        ..      POPCS    {r3,pc}
        0x00018962:    e8dff000    ....    TBB      [pc,r0]
    $d
        0x00018966:    df0f        ..      DCW    57103
        0x00018968:    ed29fdfd    ..).    DCD    3978952189
        0x0001896c:    fc43fdfd    ..C.    DCD    4232314365
        0x00018970:    fb5dfdfd    ..].    DCD    4217241085
        0x00018974:    fd77fdfd    ..w.    DCD    4252499453
        0x00018978:    fa91fdfd    ....    DCD    4203871741
        0x0001897c:    f9abfdfd    ....    DCD    4188798461
        0x00018980:    f8c5fdfd    ....    DCD    4173725181
    $t
        0x00018984:    489c        .H      LDR      r0,[pc,#624] ; [0x18bf8] = 0x10000128
        0x00018986:    6801        .h      LDR      r1,[r0,#0]
        0x00018988:    9100        ..      STR      r1,[sp,#0]
        0x0001898a:    2005        .       MOVS     r0,#5
        0x0001898c:    f001fe9c    ....    BL       am_hal_gpio_pinconfig ; 0x1a6c8
        0x00018990:    489a        .H      LDR      r0,[pc,#616] ; [0x18bfc] = 0x10000120
        0x00018992:    6801        .h      LDR      r1,[r0,#0]
        0x00018994:    9100        ..      STR      r1,[sp,#0]
        0x00018996:    2007        .       MOVS     r0,#7
        0x00018998:    f001fe96    ....    BL       am_hal_gpio_pinconfig ; 0x1a6c8
        0x0001899c:    4898        .H      LDR      r0,[pc,#608] ; [0x18c00] = 0x10000124
        0x0001899e:    6801        .h      LDR      r1,[r0,#0]
        0x000189a0:    9100        ..      STR      r1,[sp,#0]
        0x000189a2:    2006        .       MOVS     r0,#6
        0x000189a4:    f001fe90    ....    BL       am_hal_gpio_pinconfig ; 0x1a6c8
        0x000189a8:    4896        .H      LDR      r0,[pc,#600] ; [0x18c04] = 0x1000011c
        0x000189aa:    6801        .h      LDR      r1,[r0,#0]
        0x000189ac:    9100        ..      STR      r1,[sp,#0]
        0x000189ae:    e8bd4008    ...@    POP      {r3,lr}
        0x000189b2:    2048        H       MOVS     r0,#0x48
        0x000189b4:    f001be88    ....    B.W      am_hal_gpio_pinconfig ; 0x1a6c8
        0x000189b8:    4893        .H      LDR      r0,[pc,#588] ; [0x18c08] = 0x10000140
        0x000189ba:    6801        .h      LDR      r1,[r0,#0]
        0x000189bc:    9100        ..      STR      r1,[sp,#0]
        0x000189be:    2008        .       MOVS     r0,#8
        0x000189c0:    f001fe82    ....    BL       am_hal_gpio_pinconfig ; 0x1a6c8
        0x000189c4:    4891        .H      LDR      r0,[pc,#580] ; [0x18c0c] = 0x10000138
        0x000189c6:    6801        .h      LDR      r1,[r0,#0]
        0x000189c8:    9100        ..      STR      r1,[sp,#0]
        0x000189ca:    200a        .       MOVS     r0,#0xa
        0x000189cc:    f001fe7c    ..|.    BL       am_hal_gpio_pinconfig ; 0x1a6c8
        0x000189d0:    488f        .H      LDR      r0,[pc,#572] ; [0x18c10] = 0x1000013c
        0x000189d2:    6801        .h      LDR      r1,[r0,#0]
        0x000189d4:    9100        ..      STR      r1,[sp,#0]
        0x000189d6:    2009        .       MOVS     r0,#9
        0x000189d8:    f001fe76    ..v.    BL       am_hal_gpio_pinconfig ; 0x1a6c8
        0x000189dc:    488d        .H      LDR      r0,[pc,#564] ; [0x18c14] = 0x10000134
        0x000189de:    6801        .h      LDR      r1,[r0,#0]
        0x000189e0:    9100        ..      STR      r1,[sp,#0]
        0x000189e2:    e8bd4008    ...@    POP      {r3,lr}
        0x000189e6:    200b        .       MOVS     r0,#0xb
        0x000189e8:    f001be6e    ..n.    B.W      am_hal_gpio_pinconfig ; 0x1a6c8
        0x000189ec:    488a        .H      LDR      r0,[pc,#552] ; [0x18c18] = 0x10000158
        0x000189ee:    6801        .h      LDR      r1,[r0,#0]
        0x000189f0:    9100        ..      STR      r1,[sp,#0]
        0x000189f2:    2019        .       MOVS     r0,#0x19
        0x000189f4:    f001fe68    ..h.    BL       am_hal_gpio_pinconfig ; 0x1a6c8
        0x000189f8:    4888        .H      LDR      r0,[pc,#544] ; [0x18c1c] = 0x10000150
        0x000189fa:    6801        .h      LDR      r1,[r0,#0]
        0x000189fc:    9100        ..      STR      r1,[sp,#0]
        0x000189fe:    201b        .       MOVS     r0,#0x1b
        0x00018a00:    f001fe62    ..b.    BL       am_hal_gpio_pinconfig ; 0x1a6c8
        0x00018a04:    4886        .H      LDR      r0,[pc,#536] ; [0x18c20] = 0x10000154
        0x00018a06:    6801        .h      LDR      r1,[r0,#0]
        0x00018a08:    9100        ..      STR      r1,[sp,#0]
        0x00018a0a:    201a        .       MOVS     r0,#0x1a
        0x00018a0c:    f001fe5c    ..\.    BL       am_hal_gpio_pinconfig ; 0x1a6c8
        0x00018a10:    4884        .H      LDR      r0,[pc,#528] ; [0x18c24] = 0x1000014c
        0x00018a12:    6801        .h      LDR      r1,[r0,#0]
        0x00018a14:    9100        ..      STR      r1,[sp,#0]
        0x00018a16:    e8bd4008    ...@    POP      {r3,lr}
        0x00018a1a:    2025        %       MOVS     r0,#0x25
        0x00018a1c:    f001be54    ..T.    B.W      am_hal_gpio_pinconfig ; 0x1a6c8
        0x00018a20:    4881        .H      LDR      r0,[pc,#516] ; [0x18c28] = 0x10000170
        0x00018a22:    6801        .h      LDR      r1,[r0,#0]
        0x00018a24:    9100        ..      STR      r1,[sp,#0]
        0x00018a26:    201f        .       MOVS     r0,#0x1f
        0x00018a28:    f001fe4e    ..N.    BL       am_hal_gpio_pinconfig ; 0x1a6c8
        0x00018a2c:    487f        .H      LDR      r0,[pc,#508] ; [0x18c2c] = 0x10000168
        0x00018a2e:    6801        .h      LDR      r1,[r0,#0]
        0x00018a30:    9100        ..      STR      r1,[sp,#0]
        0x00018a32:    2021        !       MOVS     r0,#0x21
        0x00018a34:    f001fe48    ..H.    BL       am_hal_gpio_pinconfig ; 0x1a6c8
        0x00018a38:    487d        }H      LDR      r0,[pc,#500] ; [0x18c30] = 0x1000016c
        0x00018a3a:    6801        .h      LDR      r1,[r0,#0]
        0x00018a3c:    9100        ..      STR      r1,[sp,#0]
        0x00018a3e:    2020                MOVS     r0,#0x20
        0x00018a40:    f001fe42    ..B.    BL       am_hal_gpio_pinconfig ; 0x1a6c8
        0x00018a44:    487b        {H      LDR      r0,[pc,#492] ; [0x18c34] = 0x10000164
        0x00018a46:    6801        .h      LDR      r1,[r0,#0]
        0x00018a48:    9100        ..      STR      r1,[sp,#0]
        0x00018a4a:    e8bd4008    ...@    POP      {r3,lr}
        0x00018a4e:    2055        U       MOVS     r0,#0x55
        0x00018a50:    f001be3a    ..:.    B.W      am_hal_gpio_pinconfig ; 0x1a6c8
        0x00018a54:    4878        xH      LDR      r0,[pc,#480] ; [0x18c38] = 0x10000188
        0x00018a56:    6801        .h      LDR      r1,[r0,#0]
        0x00018a58:    9100        ..      STR      r1,[sp,#0]
        0x00018a5a:    2022        "       MOVS     r0,#0x22
        0x00018a5c:    f001fe34    ..4.    BL       am_hal_gpio_pinconfig ; 0x1a6c8
        0x00018a60:    4876        vH      LDR      r0,[pc,#472] ; [0x18c3c] = 0x10000180
        0x00018a62:    6801        .h      LDR      r1,[r0,#0]
        0x00018a64:    9100        ..      STR      r1,[sp,#0]
        0x00018a66:    2024        $       MOVS     r0,#0x24
        0x00018a68:    f001fe2e    ....    BL       am_hal_gpio_pinconfig ; 0x1a6c8
        0x00018a6c:    4874        tH      LDR      r0,[pc,#464] ; [0x18c40] = 0x10000184
        0x00018a6e:    6801        .h      LDR      r1,[r0,#0]
        0x00018a70:    9100        ..      STR      r1,[sp,#0]
        0x00018a72:    2023        #       MOVS     r0,#0x23
        0x00018a74:    f001fe28    ..(.    BL       am_hal_gpio_pinconfig ; 0x1a6c8
        0x00018a78:    4872        rH      LDR      r0,[pc,#456] ; [0x18c44] = 0x1000017c
        0x00018a7a:    6801        .h      LDR      r1,[r0,#0]
        0x00018a7c:    9100        ..      STR      r1,[sp,#0]
        0x00018a7e:    e8bd4008    ...@    POP      {r3,lr}
        0x00018a82:    2036        6       MOVS     r0,#0x36
        0x00018a84:    f001be20    .. .    B.W      am_hal_gpio_pinconfig ; 0x1a6c8
        0x00018a88:    486f        oH      LDR      r0,[pc,#444] ; [0x18c48] = 0x10000198
        0x00018a8a:    6801        .h      LDR      r1,[r0,#0]
        0x00018a8c:    9100        ..      STR      r1,[sp,#0]
        0x00018a8e:    202f        /       MOVS     r0,#0x2f
        0x00018a90:    f001fe1a    ....    BL       am_hal_gpio_pinconfig ; 0x1a6c8
        0x00018a94:    486d        mH      LDR      r0,[pc,#436] ; [0x18c4c] = 0x10000190
        0x00018a96:    6801        .h      LDR      r1,[r0,#0]
        0x00018a98:    9100        ..      STR      r1,[sp,#0]
        0x00018a9a:    2031        1       MOVS     r0,#0x31
        0x00018a9c:    f001fe14    ....    BL       am_hal_gpio_pinconfig ; 0x1a6c8
        0x00018aa0:    486b        kH      LDR      r0,[pc,#428] ; [0x18c50] = 0x10000194
        0x00018aa2:    6801        .h      LDR      r1,[r0,#0]
        0x00018aa4:    9100        ..      STR      r1,[sp,#0]
        0x00018aa6:    2030        0       MOVS     r0,#0x30
        0x00018aa8:    f001fe0e    ....    BL       am_hal_gpio_pinconfig ; 0x1a6c8
        0x00018aac:    4869        iH      LDR      r0,[pc,#420] ; [0x18c54] = 0x1000018c
        0x00018aae:    6801        .h      LDR      r1,[r0,#0]
        0x00018ab0:    9100        ..      STR      r1,[sp,#0]
        0x00018ab2:    e8bd4008    ...@    POP      {r3,lr}
        0x00018ab6:    2049        I       MOVS     r0,#0x49
        0x00018ab8:    f001be06    ....    B.W      am_hal_gpio_pinconfig ; 0x1a6c8
        0x00018abc:    4866        fH      LDR      r0,[pc,#408] ; [0x18c58] = 0x100001b0
        0x00018abe:    6801        .h      LDR      r1,[r0,#0]
        0x00018ac0:    9100        ..      STR      r1,[sp,#0]
        0x00018ac2:    203d        =       MOVS     r0,#0x3d
        0x00018ac4:    f001fe00    ....    BL       am_hal_gpio_pinconfig ; 0x1a6c8
        0x00018ac8:    4864        dH      LDR      r0,[pc,#400] ; [0x18c5c] = 0x100001a8
        0x00018aca:    6801        .h      LDR      r1,[r0,#0]
        0x00018acc:    9100        ..      STR      r1,[sp,#0]
        0x00018ace:    203f        ?       MOVS     r0,#0x3f
        0x00018ad0:    f001fdfa    ....    BL       am_hal_gpio_pinconfig ; 0x1a6c8
        0x00018ad4:    4862        bH      LDR      r0,[pc,#392] ; [0x18c60] = 0x100001ac
        0x00018ad6:    6801        .h      LDR      r1,[r0,#0]
        0x00018ad8:    9100        ..      STR      r1,[sp,#0]
        0x00018ada:    203e        >       MOVS     r0,#0x3e
        0x00018adc:    f001fdf4    ....    BL       am_hal_gpio_pinconfig ; 0x1a6c8
        0x00018ae0:    4860        `H      LDR      r0,[pc,#384] ; [0x18c64] = 0x100001a4
        0x00018ae2:    6801        .h      LDR      r1,[r0,#0]
        0x00018ae4:    9100        ..      STR      r1,[sp,#0]
        0x00018ae6:    e8bd4008    ...@    POP      {r3,lr}
        0x00018aea:    204a        J       MOVS     r0,#0x4a
        0x00018aec:    f001bdec    ....    B.W      am_hal_gpio_pinconfig ; 0x1a6c8
        0x00018af0:    485d        ]H      LDR      r0,[pc,#372] ; [0x18c68] = 0x100001c8
        0x00018af2:    6801        .h      LDR      r1,[r0,#0]
        0x00018af4:    9100        ..      STR      r1,[sp,#0]
        0x00018af6:    2016        .       MOVS     r0,#0x16
        0x00018af8:    f001fde6    ....    BL       am_hal_gpio_pinconfig ; 0x1a6c8
        0x00018afc:    485b        [H      LDR      r0,[pc,#364] ; [0x18c6c] = 0x100001c0
        0x00018afe:    6801        .h      LDR      r1,[r0,#0]
        0x00018b00:    9100        ..      STR      r1,[sp,#0]
        0x00018b02:    2018        .       MOVS     r0,#0x18
        0x00018b04:    f001fde0    ....    BL       am_hal_gpio_pinconfig ; 0x1a6c8
        0x00018b08:    4859        YH      LDR      r0,[pc,#356] ; [0x18c70] = 0x100001c4
        0x00018b0a:    6801        .h      LDR      r1,[r0,#0]
        0x00018b0c:    9100        ..      STR      r1,[sp,#0]
        0x00018b0e:    2017        .       MOVS     r0,#0x17
        0x00018b10:    f001fdda    ....    BL       am_hal_gpio_pinconfig ; 0x1a6c8
        0x00018b14:    4857        WH      LDR      r0,[pc,#348] ; [0x18c74] = 0x100001bc
        0x00018b16:    6801        .h      LDR      r1,[r0,#0]
        0x00018b18:    9100        ..      STR      r1,[sp,#0]
        0x00018b1a:    e8bd4008    ...@    POP      {r3,lr}
        0x00018b1e:    2058        X       MOVS     r0,#0x58
        0x00018b20:    f001bdd2    ....    B.W      am_hal_gpio_pinconfig ; 0x1a6c8
        0x00018b24:    4854        TH      LDR      r0,[pc,#336] ; [0x18c78] = 0x1000012c
        0x00018b26:    6801        .h      LDR      r1,[r0,#0]
        0x00018b28:    9100        ..      STR      r1,[sp,#0]
        0x00018b2a:    2005        .       MOVS     r0,#5
        0x00018b2c:    f001fdcc    ....    BL       am_hal_gpio_pinconfig ; 0x1a6c8
        0x00018b30:    4852        RH      LDR      r0,[pc,#328] ; [0x18c7c] = 0x10000130
        0x00018b32:    6801        .h      LDR      r1,[r0,#0]
        0x00018b34:    9100        ..      STR      r1,[sp,#0]
        0x00018b36:    e8bd4008    ...@    POP      {r3,lr}
        0x00018b3a:    2006        .       MOVS     r0,#6
        0x00018b3c:    f001bdc4    ....    B.W      am_hal_gpio_pinconfig ; 0x1a6c8
        0x00018b40:    484f        OH      LDR      r0,[pc,#316] ; [0x18c80] = 0x10000144
        0x00018b42:    6801        .h      LDR      r1,[r0,#0]
        0x00018b44:    9100        ..      STR      r1,[sp,#0]
        0x00018b46:    2008        .       MOVS     r0,#8
        0x00018b48:    f001fdbe    ....    BL       am_hal_gpio_pinconfig ; 0x1a6c8
        0x00018b4c:    484d        MH      LDR      r0,[pc,#308] ; [0x18c84] = 0x10000148
        0x00018b4e:    6801        .h      LDR      r1,[r0,#0]
        0x00018b50:    9100        ..      STR      r1,[sp,#0]
        0x00018b52:    2009        .       MOVS     r0,#9
        0x00018b54:    e005        ..      B        0x18b62 ; am_bsp_iom_pins_enable + 530
        0x00018b56:    e040        @.      B        0x18bda ; am_bsp_iom_pins_enable + 650
        0x00018b58:    e031        1.      B        0x18bbe ; am_bsp_iom_pins_enable + 622
        0x00018b5a:    e022        ".      B        0x18ba2 ; am_bsp_iom_pins_enable + 594
        0x00018b5c:    e013        ..      B        0x18b86 ; am_bsp_iom_pins_enable + 566
        0x00018b5e:    e004        ..      B        0x18b6a ; am_bsp_iom_pins_enable + 538
        0x00018b60:    e049        I.      B        0x18bf6 ; am_bsp_iom_pins_enable + 678
        0x00018b62:    e8bd4008    ...@    POP      {r3,lr}
        0x00018b66:    f001bdaf    ....    B.W      am_hal_gpio_pinconfig ; 0x1a6c8
        0x00018b6a:    4847        GH      LDR      r0,[pc,#284] ; [0x18c88] = 0x1000015c
        0x00018b6c:    6801        .h      LDR      r1,[r0,#0]
        0x00018b6e:    9100        ..      STR      r1,[sp,#0]
        0x00018b70:    2019        .       MOVS     r0,#0x19
        0x00018b72:    f001fda9    ....    BL       am_hal_gpio_pinconfig ; 0x1a6c8
        0x00018b76:    4845        EH      LDR      r0,[pc,#276] ; [0x18c8c] = 0x10000160
        0x00018b78:    6801        .h      LDR      r1,[r0,#0]
        0x00018b7a:    9100        ..      STR      r1,[sp,#0]
        0x00018b7c:    e8bd4008    ...@    POP      {r3,lr}
        0x00018b80:    201a        .       MOVS     r0,#0x1a
        0x00018b82:    f001bda1    ....    B.W      am_hal_gpio_pinconfig ; 0x1a6c8
        0x00018b86:    4842        BH      LDR      r0,[pc,#264] ; [0x18c90] = 0x10000174
        0x00018b88:    6801        .h      LDR      r1,[r0,#0]
        0x00018b8a:    9100        ..      STR      r1,[sp,#0]
        0x00018b8c:    201f        .       MOVS     r0,#0x1f
        0x00018b8e:    f001fd9b    ....    BL       am_hal_gpio_pinconfig ; 0x1a6c8
        0x00018b92:    4840        @H      LDR      r0,[pc,#256] ; [0x18c94] = 0x10000178
        0x00018b94:    6801        .h      LDR      r1,[r0,#0]
        0x00018b96:    9100        ..      STR      r1,[sp,#0]
        0x00018b98:    e8bd4008    ...@    POP      {r3,lr}
        0x00018b9c:    2020                MOVS     r0,#0x20
        0x00018b9e:    f001bd93    ....    B.W      am_hal_gpio_pinconfig ; 0x1a6c8
        0x00018ba2:    483d        =H      LDR      r0,[pc,#244] ; [0x18c98] = 0x1000019c
        0x00018ba4:    6801        .h      LDR      r1,[r0,#0]
        0x00018ba6:    9100        ..      STR      r1,[sp,#0]
        0x00018ba8:    202f        /       MOVS     r0,#0x2f
        0x00018baa:    f001fd8d    ....    BL       am_hal_gpio_pinconfig ; 0x1a6c8
        0x00018bae:    483b        ;H      LDR      r0,[pc,#236] ; [0x18c9c] = 0x100001a0
        0x00018bb0:    6801        .h      LDR      r1,[r0,#0]
        0x00018bb2:    9100        ..      STR      r1,[sp,#0]
        0x00018bb4:    e8bd4008    ...@    POP      {r3,lr}
        0x00018bb8:    2030        0       MOVS     r0,#0x30
        0x00018bba:    f001bd85    ....    B.W      am_hal_gpio_pinconfig ; 0x1a6c8
        0x00018bbe:    4838        8H      LDR      r0,[pc,#224] ; [0x18ca0] = 0x100001b4
        0x00018bc0:    6801        .h      LDR      r1,[r0,#0]
        0x00018bc2:    9100        ..      STR      r1,[sp,#0]
        0x00018bc4:    203d        =       MOVS     r0,#0x3d
        0x00018bc6:    f001fd7f    ....    BL       am_hal_gpio_pinconfig ; 0x1a6c8
        0x00018bca:    4836        6H      LDR      r0,[pc,#216] ; [0x18ca4] = 0x100001b8
        0x00018bcc:    6801        .h      LDR      r1,[r0,#0]
        0x00018bce:    9100        ..      STR      r1,[sp,#0]
        0x00018bd0:    e8bd4008    ...@    POP      {r3,lr}
        0x00018bd4:    203e        >       MOVS     r0,#0x3e
        0x00018bd6:    f001bd77    ..w.    B.W      am_hal_gpio_pinconfig ; 0x1a6c8
        0x00018bda:    4833        3H      LDR      r0,[pc,#204] ; [0x18ca8] = 0x100001cc
        0x00018bdc:    6801        .h      LDR      r1,[r0,#0]
        0x00018bde:    9100        ..      STR      r1,[sp,#0]
        0x00018be0:    2016        .       MOVS     r0,#0x16
        0x00018be2:    f001fd71    ..q.    BL       am_hal_gpio_pinconfig ; 0x1a6c8
        0x00018be6:    4831        1H      LDR      r0,[pc,#196] ; [0x18cac] = 0x100001d0
        0x00018be8:    6801        .h      LDR      r1,[r0,#0]
        0x00018bea:    9100        ..      STR      r1,[sp,#0]
        0x00018bec:    e8bd4008    ...@    POP      {r3,lr}
        0x00018bf0:    2017        .       MOVS     r0,#0x17
        0x00018bf2:    f001bd69    ..i.    B.W      am_hal_gpio_pinconfig ; 0x1a6c8
        0x00018bf6:    bd08        ..      POP      {r3,pc}
    $d
        0x00018bf8:    10000128    (...    DCD    268435752
        0x00018bfc:    10000120     ...    DCD    268435744
        0x00018c00:    10000124    $...    DCD    268435748
        0x00018c04:    1000011c    ....    DCD    268435740
        0x00018c08:    10000140    @...    DCD    268435776
        0x00018c0c:    10000138    8...    DCD    268435768
        0x00018c10:    1000013c    <...    DCD    268435772
        0x00018c14:    10000134    4...    DCD    268435764
        0x00018c18:    10000158    X...    DCD    268435800
        0x00018c1c:    10000150    P...    DCD    268435792
        0x00018c20:    10000154    T...    DCD    268435796
        0x00018c24:    1000014c    L...    DCD    268435788
        0x00018c28:    10000170    p...    DCD    268435824
        0x00018c2c:    10000168    h...    DCD    268435816
        0x00018c30:    1000016c    l...    DCD    268435820
        0x00018c34:    10000164    d...    DCD    268435812
        0x00018c38:    10000188    ....    DCD    268435848
        0x00018c3c:    10000180    ....    DCD    268435840
        0x00018c40:    10000184    ....    DCD    268435844
        0x00018c44:    1000017c    |...    DCD    268435836
        0x00018c48:    10000198    ....    DCD    268435864
        0x00018c4c:    10000190    ....    DCD    268435856
        0x00018c50:    10000194    ....    DCD    268435860
        0x00018c54:    1000018c    ....    DCD    268435852
        0x00018c58:    100001b0    ....    DCD    268435888
        0x00018c5c:    100001a8    ....    DCD    268435880
        0x00018c60:    100001ac    ....    DCD    268435884
        0x00018c64:    100001a4    ....    DCD    268435876
        0x00018c68:    100001c8    ....    DCD    268435912
        0x00018c6c:    100001c0    ....    DCD    268435904
        0x00018c70:    100001c4    ....    DCD    268435908
        0x00018c74:    100001bc    ....    DCD    268435900
        0x00018c78:    1000012c    ,...    DCD    268435756
        0x00018c7c:    10000130    0...    DCD    268435760
        0x00018c80:    10000144    D...    DCD    268435780
        0x00018c84:    10000148    H...    DCD    268435784
        0x00018c88:    1000015c    \...    DCD    268435804
        0x00018c8c:    10000160    `...    DCD    268435808
        0x00018c90:    10000174    t...    DCD    268435828
        0x00018c94:    10000178    x...    DCD    268435832
        0x00018c98:    1000019c    ....    DCD    268435868
        0x00018c9c:    100001a0    ....    DCD    268435872
        0x00018ca0:    100001b4    ....    DCD    268435892
        0x00018ca4:    100001b8    ....    DCD    268435896
        0x00018ca8:    100001cc    ....    DCD    268435916
        0x00018cac:    100001d0    ....    DCD    268435920
    $t
    i.am_bsp_itm_printf_disable
    am_bsp_itm_printf_disable
        0x00018cb0:    b538        8.      PUSH     {r3-r5,lr}
        0x00018cb2:    4c09        .L      LDR      r4,[pc,#36] ; [0x18cd8] = 0x1000010c
        0x00018cb4:    7820         x      LDRB     r0,[r4,#0]
        0x00018cb6:    2801        .(      CMP      r0,#1
        0x00018cb8:    bf18        ..      IT       NE
        0x00018cba:    bd38        8.      POPNE    {r3-r5,pc}
        0x00018cbc:    f002fd5e    ..^.    BL       am_hal_itm_disable ; 0x1b77c
        0x00018cc0:    2000        .       MOVS     r0,#0
        0x00018cc2:    f004f9e5    ....    BL       am_util_stdio_printf_init ; 0x1d090
        0x00018cc6:    4805        .H      LDR      r0,[pc,#20] ; [0x18cdc] = 0x1ee28
        0x00018cc8:    6801        .h      LDR      r1,[r0,#0]
        0x00018cca:    9100        ..      STR      r1,[sp,#0]
        0x00018ccc:    2018        .       MOVS     r0,#0x18
        0x00018cce:    f001fcfb    ....    BL       am_hal_gpio_pinconfig ; 0x1a6c8
        0x00018cd2:    2000        .       MOVS     r0,#0
        0x00018cd4:    7020         p      STRB     r0,[r4,#0]
        0x00018cd6:    bd38        8.      POP      {r3-r5,pc}
    $d
        0x00018cd8:    1000010c    ....    DCD    268435724
        0x00018cdc:    0001ee28    (...    DCD    126504
    $t
    i.am_bsp_itm_printf_enable
    am_bsp_itm_printf_enable
        0x00018ce0:    b570        p.      PUSH     {r4-r6,lr}
        0x00018ce2:    4e1e        .N      LDR      r6,[pc,#120] ; [0x18d5c] = 0x40021000
        0x00018ce4:    2400        .$      MOVS     r4,#0
        0x00018ce6:    b082        ..      SUB      sp,sp,#8
        0x00018ce8:    68b0        .h      LDR      r0,[r6,#8]
        0x00018cea:    4625        %F      MOV      r5,r4
        0x00018cec:    f4101f80    ....    TST      r0,#0x100000
        0x00018cf0:    d103        ..      BNE      0x18cfa ; am_bsp_itm_printf_enable + 26
        0x00018cf2:    2501        .%      MOVS     r5,#1
        0x00018cf4:    2012        .       MOVS     r0,#0x12
        0x00018cf6:    f003fb13    ....    BL       am_hal_pwrctrl_periph_enable ; 0x1c320
        0x00018cfa:    68b0        .h      LDR      r0,[r6,#8]
        0x00018cfc:    f4101f80    ....    TST      r0,#0x100000
        0x00018d00:    d010        ..      BEQ      0x18d24 ; am_bsp_itm_printf_enable + 68
        0x00018d02:    4817        .H      LDR      r0,[pc,#92] ; [0x18d60] = 0x400c0a7c
        0x00018d04:    6800        .h      LDR      r0,[r0,#0]
        0x00018d06:    f0100f01    ....    TST      r0,#1
        0x00018d0a:    d00b        ..      BEQ      0x18d24 ; am_bsp_itm_printf_enable + 68
        0x00018d0c:    4668        hF      MOV      r0,sp
        0x00018d0e:    f001fa19    ....    BL       am_hal_dcu_get ; 0x1a144
        0x00018d12:    9800        ..      LDR      r0,[sp,#0]
        0x00018d14:    f0100f10    ....    TST      r0,#0x10
        0x00018d18:    d107        ..      BNE      0x18d2a ; am_bsp_itm_printf_enable + 74
        0x00018d1a:    2110        .!      MOVS     r1,#0x10
        0x00018d1c:    2001        .       MOVS     r0,#1
        0x00018d1e:    f001fa59    ..Y.    BL       am_hal_dcu_update ; 0x1a1d4
        0x00018d22:    b110        ..      CBZ      r0,0x18d2a ; am_bsp_itm_printf_enable + 74
        0x00018d24:    f04f34ff    O..4    MOV      r4,#0xffffffff
        0x00018d28:    e010        ..      B        0x18d4c ; am_bsp_itm_printf_enable + 108
        0x00018d2a:    490e        .I      LDR      r1,[pc,#56] ; [0x18d64] = 0x1000010c
        0x00018d2c:    2001        .       MOVS     r0,#1
        0x00018d2e:    7008        .p      STRB     r0,[r1,#0]
        0x00018d30:    f002fd88    ....    BL       am_hal_itm_enable ; 0x1b844
        0x00018d34:    480c        .H      LDR      r0,[pc,#48] ; [0x18d68] = 0xf4240
        0x00018d36:    f003fca5    ....    BL       am_hal_tpiu_enable ; 0x1c684
        0x00018d3a:    480c        .H      LDR      r0,[pc,#48] ; [0x18d6c] = 0x100001d4
        0x00018d3c:    6801        .h      LDR      r1,[r0,#0]
        0x00018d3e:    9101        ..      STR      r1,[sp,#4]
        0x00018d40:    2018        .       MOVS     r0,#0x18
        0x00018d42:    f001fcc1    ....    BL       am_hal_gpio_pinconfig ; 0x1a6c8
        0x00018d46:    480a        .H      LDR      r0,[pc,#40] ; [0x18d70] = 0x1b88d
        0x00018d48:    f004f9a2    ....    BL       am_util_stdio_printf_init ; 0x1d090
        0x00018d4c:    2d00        .-      CMP      r5,#0
        0x00018d4e:    bf1c        ..      ITT      NE
        0x00018d50:    2012        .       MOVNE    r0,#0x12
        0x00018d52:    f003fa4f    ..O.    BLNE     am_hal_pwrctrl_periph_disable ; 0x1c1f4
        0x00018d56:    4620         F      MOV      r0,r4
        0x00018d58:    b002        ..      ADD      sp,sp,#8
        0x00018d5a:    bd70        p.      POP      {r4-r6,pc}
    $d
        0x00018d5c:    40021000    ...@    DCD    1073876992
        0x00018d60:    400c0a7c    |..@    DCD    1074530940
        0x00018d64:    1000010c    ....    DCD    268435724
        0x00018d68:    000f4240    @B..    DCD    1000000
        0x00018d6c:    100001d4    ....    DCD    268435924
        0x00018d70:    0001b88d    ....    DCD    112781
    $t
    i.am_bsp_low_power_init
    am_bsp_low_power_init
        0x00018d74:    b510        ..      PUSH     {r4,lr}
        0x00018d76:    f003f8ed    ....    BL       am_hal_pwrctrl_low_power_init ; 0x1bf54
        0x00018d7a:    2100        .!      MOVS     r1,#0
        0x00018d7c:    4608        .F      MOV      r0,r1
        0x00018d7e:    f002ffed    ....    BL       am_hal_pwrctrl_control ; 0x1bd5c
        0x00018d82:    e8bd4010    ...@    POP      {r4,lr}
        0x00018d86:    f003bbdd    ....    B.W      am_hal_rtc_osc_disable ; 0x1c544
        0x00018d8a:    0000        ..      MOVS     r0,r0
    i.am_devices_cooper_blocking_read
    am_devices_cooper_blocking_read
        0x00018d8c:    e92d41f0    -..A    PUSH     {r4-r8,lr}
        0x00018d90:    b08c        ..      SUB      sp,sp,#0x30
        0x00018d92:    4607        .F      MOV      r7,r0
        0x00018d94:    4688        .F      MOV      r8,r1
        0x00018d96:    4614        .F      MOV      r4,r2
        0x00018d98:    2500        .%      MOVS     r5,#0
        0x00018d9a:    4833        3H      LDR      r0,[pc,#204] ; [0x18e68] = 0x100000a0
        0x00018d9c:    2100        .!      MOVS     r1,#0
        0x00018d9e:    8001        ..      STRH     r1,[r0,#0]
        0x00018da0:    463e        >F      MOV      r6,r7
        0x00018da2:    f000fad3    ....    BL       am_devices_cooper_irq_read ; 0x1934c
        0x00018da6:    b920         .      CBNZ     r0,0x18db2 ; am_devices_cooper_blocking_read + 38
        0x00018da8:    2000        .       MOVS     r0,#0
        0x00018daa:    6020         `      STR      r0,[r4,#0]
        0x00018dac:    b00c        ..      ADD      sp,sp,#0x30
        0x00018dae:    e8bd81f0    ....    POP      {r4-r8,pc}
        0x00018db2:    4638        8F      MOV      r0,r7
        0x00018db4:    f000f916    ....    BL       am_devices_cooper_bus_enable ; 0x18fe4
        0x00018db8:    4605        .F      MOV      r5,r0
        0x00018dba:    b10d        ..      CBZ      r5,0x18dc0 ; am_devices_cooper_blocking_read + 52
        0x00018dbc:    4628        (F      MOV      r0,r5
        0x00018dbe:    e7f5        ..      B        0x18dac ; am_devices_cooper_blocking_read + 32
        0x00018dc0:    bf00        ..      NOP      
        0x00018dc2:    6870        ph      LDR      r0,[r6,#4]
        0x00018dc4:    9000        ..      STR      r0,[sp,#0]
        0x00018dc6:    2104        .!      MOVS     r1,#4
        0x00018dc8:    2000        .       MOVS     r0,#0
        0x00018dca:    e9cd1002    ....    STRD     r1,r0,[sp,#8]
        0x00018dce:    2001        .       MOVS     r0,#1
        0x00018dd0:    9001        ..      STR      r0,[sp,#4]
        0x00018dd2:    f88d0014    ....    STRB     r0,[sp,#0x14]
        0x00018dd6:    2002        .       MOVS     r0,#2
        0x00018dd8:    9004        ..      STR      r0,[sp,#0x10]
        0x00018dda:    4823        #H      LDR      r0,[pc,#140] ; [0x18e68] = 0x100000a0
        0x00018ddc:    9007        ..      STR      r0,[sp,#0x1c]
        0x00018dde:    2001        .       MOVS     r0,#1
        0x00018de0:    f88d0020    .. .    STRB     r0,[sp,#0x20]
        0x00018de4:    2000        .       MOVS     r0,#0
        0x00018de6:    f88d0021    ..!.    STRB     r0,[sp,#0x21]
        0x00018dea:    9009        ..      STR      r0,[sp,#0x24]
        0x00018dec:    900a        ..      STR      r0,[sp,#0x28]
        0x00018dee:    4669        iF      MOV      r1,sp
        0x00018df0:    69b0        .i      LDR      r0,[r6,#0x18]
        0x00018df2:    f001fcf9    ....    BL       am_hal_iom_blocking_transfer ; 0x1a7e8
        0x00018df6:    b108        ..      CBZ      r0,0x18dfc ; am_devices_cooper_blocking_read + 112
        0x00018df8:    2506        .%      MOVS     r5,#6
        0x00018dfa:    e02e        ..      B        0x18e5a ; am_devices_cooper_blocking_read + 206
        0x00018dfc:    481a        .H      LDR      r0,[pc,#104] ; [0x18e68] = 0x100000a0
        0x00018dfe:    7800        .x      LDRB     r0,[r0,#0]
        0x00018e00:    b930        0.      CBNZ     r0,0x18e10 ; am_devices_cooper_blocking_read + 132
        0x00018e02:    4819        .H      LDR      r0,[pc,#100] ; [0x18e68] = 0x100000a0
        0x00018e04:    7840        @x      LDRB     r0,[r0,#1]
        0x00018e06:    b918        ..      CBNZ     r0,0x18e10 ; am_devices_cooper_blocking_read + 132
        0x00018e08:    2000        .       MOVS     r0,#0
        0x00018e0a:    6020         `      STR      r0,[r4,#0]
        0x00018e0c:    2500        .%      MOVS     r5,#0
        0x00018e0e:    e024        $.      B        0x18e5a ; am_devices_cooper_blocking_read + 206
        0x00018e10:    2000        .       MOVS     r0,#0
        0x00018e12:    9002        ..      STR      r0,[sp,#8]
        0x00018e14:    9003        ..      STR      r0,[sp,#0xc]
        0x00018e16:    9001        ..      STR      r0,[sp,#4]
        0x00018e18:    f8cd801c    ....    STR      r8,[sp,#0x1c]
        0x00018e1c:    4812        .H      LDR      r0,[pc,#72] ; [0x18e68] = 0x100000a0
        0x00018e1e:    7800        .x      LDRB     r0,[r0,#0]
        0x00018e20:    4911        .I      LDR      r1,[pc,#68] ; [0x18e68] = 0x100000a0
        0x00018e22:    7849        Ix      LDRB     r1,[r1,#1]
        0x00018e24:    eb002001    ...     ADD      r0,r0,r1,LSL #8
        0x00018e28:    9004        ..      STR      r0,[sp,#0x10]
        0x00018e2a:    2000        .       MOVS     r0,#0
        0x00018e2c:    f88d0020    .. .    STRB     r0,[sp,#0x20]
        0x00018e30:    9804        ..      LDR      r0,[sp,#0x10]
        0x00018e32:    f5b07f81    ....    CMP      r0,#0x102
        0x00018e36:    d903        ..      BLS      0x18e40 ; am_devices_cooper_blocking_read + 180
        0x00018e38:    2504        .%      MOVS     r5,#4
        0x00018e3a:    2000        .       MOVS     r0,#0
        0x00018e3c:    6020         `      STR      r0,[r4,#0]
        0x00018e3e:    e00c        ..      B        0x18e5a ; am_devices_cooper_blocking_read + 206
        0x00018e40:    9804        ..      LDR      r0,[sp,#0x10]
        0x00018e42:    6020         `      STR      r0,[r4,#0]
        0x00018e44:    4669        iF      MOV      r1,sp
        0x00018e46:    69b0        .i      LDR      r0,[r6,#0x18]
        0x00018e48:    f001fcce    ....    BL       am_hal_iom_blocking_transfer ; 0x1a7e8
        0x00018e4c:    4605        .F      MOV      r5,r0
        0x00018e4e:    b11d        ..      CBZ      r5,0x18e58 ; am_devices_cooper_blocking_read + 204
        0x00018e50:    2506        .%      MOVS     r5,#6
        0x00018e52:    2000        .       MOVS     r0,#0
        0x00018e54:    6020         `      STR      r0,[r4,#0]
        0x00018e56:    e000        ..      B        0x18e5a ; am_devices_cooper_blocking_read + 206
        0x00018e58:    bf00        ..      NOP      
        0x00018e5a:    bf00        ..      NOP      
        0x00018e5c:    4638        8F      MOV      r0,r7
        0x00018e5e:    f000f8ad    ....    BL       am_devices_cooper_bus_disable ; 0x18fbc
        0x00018e62:    4628        (F      MOV      r0,r5
        0x00018e64:    e7a2        ..      B        0x18dac ; am_devices_cooper_blocking_read + 32
    $d
        0x00018e66:    0000        ..      DCW    0
        0x00018e68:    100000a0    ....    DCD    268435616
    $t
    i.am_devices_cooper_blocking_write
    am_devices_cooper_blocking_write
        0x00018e6c:    e92d4ff0    -..O    PUSH     {r4-r11,lr}
        0x00018e70:    b08f        ..      SUB      sp,sp,#0x3c
        0x00018e72:    4606        .F      MOV      r6,r0
        0x00018e74:    460d        .F      MOV      r5,r1
        0x00018e76:    4690        .F      MOV      r8,r2
        0x00018e78:    4699        .F      MOV      r9,r3
        0x00018e7a:    f8ddb060    ..`.    LDR      r11,[sp,#0x60]
        0x00018e7e:    2700        .'      MOVS     r7,#0
        0x00018e80:    46ba        .F      MOV      r10,r7
        0x00018e82:    484a        JH      LDR      r0,[pc,#296] ; [0x18fac] = 0x100000a0
        0x00018e84:    2100        .!      MOVS     r1,#0
        0x00018e86:    8001        ..      STRH     r1,[r0,#0]
        0x00018e88:    4634        4F      MOV      r4,r6
        0x00018e8a:    f8940020    .. .    LDRB     r0,[r4,#0x20]
        0x00018e8e:    b120         .      CBZ      r0,0x18e9a ; am_devices_cooper_blocking_write + 46
        0x00018e90:    2703        .'      MOVS     r7,#3
        0x00018e92:    4638        8F      MOV      r0,r7
        0x00018e94:    b00f        ..      ADD      sp,sp,#0x3c
        0x00018e96:    e8bd8ff0    ....    POP      {r4-r11,pc}
        0x00018e9a:    4630        0F      MOV      r0,r6
        0x00018e9c:    f000f8a2    ....    BL       am_devices_cooper_bus_enable ; 0x18fe4
        0x00018ea0:    4607        .F      MOV      r7,r0
        0x00018ea2:    b10f        ..      CBZ      r7,0x18ea8 ; am_devices_cooper_blocking_write + 60
        0x00018ea4:    4638        8F      MOV      r0,r7
        0x00018ea6:    e7f5        ..      B        0x18e94 ; am_devices_cooper_blocking_write + 40
        0x00018ea8:    2180        .!      MOVS     r1,#0x80
        0x00018eaa:    2000        .       MOVS     r0,#0
        0x00018eac:    e9cd1004    ....    STRD     r1,r0,[sp,#0x10]
        0x00018eb0:    2001        .       MOVS     r0,#1
        0x00018eb2:    9003        ..      STR      r0,[sp,#0xc]
        0x00018eb4:    f88d001c    ....    STRB     r0,[sp,#0x1c]
        0x00018eb8:    2002        .       MOVS     r0,#2
        0x00018eba:    9006        ..      STR      r0,[sp,#0x18]
        0x00018ebc:    2001        .       MOVS     r0,#1
        0x00018ebe:    f88d0028    ..(.    STRB     r0,[sp,#0x28]
        0x00018ec2:    6860        `h      LDR      r0,[r4,#4]
        0x00018ec4:    9002        ..      STR      r0,[sp,#8]
        0x00018ec6:    4839        9H      LDR      r0,[pc,#228] ; [0x18fac] = 0x100000a0
        0x00018ec8:    9009        ..      STR      r0,[sp,#0x24]
        0x00018eca:    2000        .       MOVS     r0,#0
        0x00018ecc:    f88d0029    ..).    STRB     r0,[sp,#0x29]
        0x00018ed0:    900b        ..      STR      r0,[sp,#0x2c]
        0x00018ed2:    900c        ..      STR      r0,[sp,#0x30]
        0x00018ed4:    bf00        ..      NOP      
        0x00018ed6:    a902        ..      ADD      r1,sp,#8
        0x00018ed8:    69a0        .i      LDR      r0,[r4,#0x18]
        0x00018eda:    f001fc85    ....    BL       am_hal_iom_blocking_transfer ; 0x1a7e8
        0x00018ede:    b108        ..      CBZ      r0,0x18ee4 ; am_devices_cooper_blocking_write + 120
        0x00018ee0:    2706        .'      MOVS     r7,#6
        0x00018ee2:    e05c        \.      B        0x18f9e ; am_devices_cooper_blocking_write + 306
        0x00018ee4:    4831        1H      LDR      r0,[pc,#196] ; [0x18fac] = 0x100000a0
        0x00018ee6:    7800        .x      LDRB     r0,[r0,#0]
        0x00018ee8:    2868        h(      CMP      r0,#0x68
        0x00018eea:    d103        ..      BNE      0x18ef4 ; am_devices_cooper_blocking_write + 136
        0x00018eec:    482f        /H      LDR      r0,[pc,#188] ; [0x18fac] = 0x100000a0
        0x00018eee:    7840        @x      LDRB     r0,[r0,#1]
        0x00018ef0:    28a8        .(      CMP      r0,#0xa8
        0x00018ef2:    d033        3.      BEQ      0x18f5c ; am_devices_cooper_blocking_write + 240
        0x00018ef4:    2703        .'      MOVS     r7,#3
        0x00018ef6:    68a0        .h      LDR      r0,[r4,#8]
        0x00018ef8:    f004f845    ..E.    BL       am_util_delay_us ; 0x1cf86
        0x00018efc:    f1bb0f00    ....    CMP      r11,#0
        0x00018f00:    d028        (.      BEQ      0x18f54 ; am_devices_cooper_blocking_write + 232
        0x00018f02:    482b        +H      LDR      r0,[pc,#172] ; [0x18fb0] = 0x1ee20
        0x00018f04:    6800        .h      LDR      r0,[r0,#0]
        0x00018f06:    9001        ..      STR      r0,[sp,#4]
        0x00018f08:    2036        6       MOVS     r0,#0x36
        0x00018f0a:    9901        ..      LDR      r1,[sp,#4]
        0x00018f0c:    f001fbdc    ....    BL       am_hal_gpio_pinconfig ; 0x1a6c8
        0x00018f10:    f7fffa28    ..(.    BL       am_hal_interrupt_master_disable ; 0x18364
        0x00018f14:    9001        ..      STR      r0,[sp,#4]
        0x00018f16:    f44f0180    O...    MOV      r1,#0x400000
        0x00018f1a:    4826        &H      LDR      r0,[pc,#152] ; [0x18fb4] = 0x40010228
        0x00018f1c:    6001        .`      STR      r1,[r0,#0]
        0x00018f1e:    9801        ..      LDR      r0,[sp,#4]
        0x00018f20:    f7fffa24    ..$.    BL       am_hal_interrupt_master_set ; 0x1836c
        0x00018f24:    68a0        .h      LDR      r0,[r4,#8]
        0x00018f26:    f004f82e    ....    BL       am_util_delay_us ; 0x1cf86
        0x00018f2a:    4823        #H      LDR      r0,[pc,#140] ; [0x18fb8] = 0x100000c4
        0x00018f2c:    6800        .h      LDR      r0,[r0,#0]
        0x00018f2e:    9001        ..      STR      r0,[sp,#4]
        0x00018f30:    2036        6       MOVS     r0,#0x36
        0x00018f32:    9901        ..      LDR      r1,[sp,#4]
        0x00018f34:    f001fbc8    ....    BL       am_hal_gpio_pinconfig ; 0x1a6c8
        0x00018f38:    f24060a4    @..`    MOV      r0,#0x6a4
        0x00018f3c:    f004f823    ..#.    BL       am_util_delay_us ; 0x1cf86
        0x00018f40:    f5ba7ffa    ....    CMP      r10,#0x1f4
        0x00018f44:    d103        ..      BNE      0x18f4e ; am_devices_cooper_blocking_write + 226
        0x00018f46:    f04f0a00    O...    MOV      r10,#0
        0x00018f4a:    2707        .'      MOVS     r7,#7
        0x00018f4c:    e027        '.      B        0x18f9e ; am_devices_cooper_blocking_write + 306
        0x00018f4e:    f10a0a01    ....    ADD      r10,r10,#1
        0x00018f52:    e023        #.      B        0x18f9c ; am_devices_cooper_blocking_write + 304
        0x00018f54:    2001        .       MOVS     r0,#1
        0x00018f56:    f8840020    .. .    STRB     r0,[r4,#0x20]
        0x00018f5a:    e020         .      B        0x18f9e ; am_devices_cooper_blocking_write + 306
        0x00018f5c:    f04f0a00    O...    MOV      r10,#0
        0x00018f60:    b12d        -.      CBZ      r5,0x18f6e ; am_devices_cooper_blocking_write + 258
        0x00018f62:    2000        .       MOVS     r0,#0
        0x00018f64:    e9cd5004    ...P    STRD     r5,r0,[sp,#0x10]
        0x00018f68:    2001        .       MOVS     r0,#1
        0x00018f6a:    9003        ..      STR      r0,[sp,#0xc]
        0x00018f6c:    e004        ..      B        0x18f78 ; am_devices_cooper_blocking_write + 268
        0x00018f6e:    2100        .!      MOVS     r1,#0
        0x00018f70:    9104        ..      STR      r1,[sp,#0x10]
        0x00018f72:    9105        ..      STR      r1,[sp,#0x14]
        0x00018f74:    2000        .       MOVS     r0,#0
        0x00018f76:    9003        ..      STR      r0,[sp,#0xc]
        0x00018f78:    2000        .       MOVS     r0,#0
        0x00018f7a:    f88d001c    ....    STRB     r0,[sp,#0x1c]
        0x00018f7e:    f8cd9018    ....    STR      r9,[sp,#0x18]
        0x00018f82:    f8cd8020    .. .    STR      r8,[sp,#0x20]
        0x00018f86:    f88d0028    ..(.    STRB     r0,[sp,#0x28]
        0x00018f8a:    a902        ..      ADD      r1,sp,#8
        0x00018f8c:    69a0        .i      LDR      r0,[r4,#0x18]
        0x00018f8e:    f001fc2b    ..+.    BL       am_hal_iom_blocking_transfer ; 0x1a7e8
        0x00018f92:    4607        .F      MOV      r7,r0
        0x00018f94:    b10f        ..      CBZ      r7,0x18f9a ; am_devices_cooper_blocking_write + 302
        0x00018f96:    2706        .'      MOVS     r7,#6
        0x00018f98:    e001        ..      B        0x18f9e ; am_devices_cooper_blocking_write + 306
        0x00018f9a:    e000        ..      B        0x18f9e ; am_devices_cooper_blocking_write + 306
        0x00018f9c:    e79b        ..      B        0x18ed6 ; am_devices_cooper_blocking_write + 106
        0x00018f9e:    bf00        ..      NOP      
        0x00018fa0:    4630        0F      MOV      r0,r6
        0x00018fa2:    f000f80b    ....    BL       am_devices_cooper_bus_disable ; 0x18fbc
        0x00018fa6:    4638        8F      MOV      r0,r7
        0x00018fa8:    e774        t.      B        0x18e94 ; am_devices_cooper_blocking_write + 40
    $d
        0x00018faa:    0000        ..      DCW    0
        0x00018fac:    100000a0    ....    DCD    268435616
        0x00018fb0:    0001ee20     ...    DCD    126496
        0x00018fb4:    40010228    (..@    DCD    1073807912
        0x00018fb8:    100000c4    ....    DCD    268435652
    $t
    i.am_devices_cooper_bus_disable
    am_devices_cooper_bus_disable
        0x00018fbc:    b570        p.      PUSH     {r4-r6,lr}
        0x00018fbe:    4605        .F      MOV      r5,r0
        0x00018fc0:    462c        ,F      MOV      r4,r5
        0x00018fc2:    7f20         .      LDRB     r0,[r4,#0x1c]
        0x00018fc4:    2801        .(      CMP      r0,#1
        0x00018fc6:    d001        ..      BEQ      0x18fcc ; am_devices_cooper_bus_disable + 16
        0x00018fc8:    2008        .       MOVS     r0,#8
        0x00018fca:    bd70        p.      POP      {r4-r6,pc}
        0x00018fcc:    69a0        .i      LDR      r0,[r4,#0x18]
        0x00018fce:    f001ff1b    ....    BL       am_hal_iom_disable ; 0x1ae08
        0x00018fd2:    2201        ."      MOVS     r2,#1
        0x00018fd4:    2102        .!      MOVS     r1,#2
        0x00018fd6:    69a0        .i      LDR      r0,[r4,#0x18]
        0x00018fd8:    f002f9ee    ....    BL       am_hal_iom_power_ctrl ; 0x1b3b8
        0x00018fdc:    2000        .       MOVS     r0,#0
        0x00018fde:    7760        `w      STRB     r0,[r4,#0x1d]
        0x00018fe0:    bf00        ..      NOP      
        0x00018fe2:    e7f2        ..      B        0x18fca ; am_devices_cooper_bus_disable + 14
    i.am_devices_cooper_bus_enable
    am_devices_cooper_bus_enable
        0x00018fe4:    b570        p.      PUSH     {r4-r6,lr}
        0x00018fe6:    4605        .F      MOV      r5,r0
        0x00018fe8:    462c        ,F      MOV      r4,r5
        0x00018fea:    7f20         .      LDRB     r0,[r4,#0x1c]
        0x00018fec:    2801        .(      CMP      r0,#1
        0x00018fee:    d001        ..      BEQ      0x18ff4 ; am_devices_cooper_bus_enable + 16
        0x00018ff0:    2008        .       MOVS     r0,#8
        0x00018ff2:    bd70        p.      POP      {r4-r6,pc}
        0x00018ff4:    7f60        `.      LDRB     r0,[r4,#0x1d]
        0x00018ff6:    b910        ..      CBNZ     r0,0x18ffe ; am_devices_cooper_bus_enable + 26
        0x00018ff8:    2001        .       MOVS     r0,#1
        0x00018ffa:    7760        `w      STRB     r0,[r4,#0x1d]
        0x00018ffc:    e001        ..      B        0x19002 ; am_devices_cooper_bus_enable + 30
        0x00018ffe:    2002        .       MOVS     r0,#2
        0x00019000:    e7f7        ..      B        0x18ff2 ; am_devices_cooper_bus_enable + 14
        0x00019002:    2201        ."      MOVS     r2,#1
        0x00019004:    2100        .!      MOVS     r1,#0
        0x00019006:    69a0        .i      LDR      r0,[r4,#0x18]
        0x00019008:    f002f9d6    ....    BL       am_hal_iom_power_ctrl ; 0x1b3b8
        0x0001900c:    69a0        .i      LDR      r0,[r4,#0x18]
        0x0001900e:    f001ff3d    ..=.    BL       am_hal_iom_enable ; 0x1ae8c
        0x00019012:    2000        .       MOVS     r0,#0
        0x00019014:    e7ed        ..      B        0x18ff2 ; am_devices_cooper_bus_enable + 14
        0x00019016:    0000        ..      MOVS     r0,r0
    i.am_devices_cooper_clkreq_read
    am_devices_cooper_clkreq_read
        0x00019018:    4601        .F      MOV      r1,r0
        0x0001901a:    4802        .H      LDR      r0,[pc,#8] ; [0x19024] = 0x40010208
        0x0001901c:    6800        .h      LDR      r0,[r0,#0]
        0x0001901e:    f3c05000    ...P    UBFX     r0,r0,#20,#1
        0x00019022:    4770        pG      BX       lr
    $d
        0x00019024:    40010208    ...@    DCD    1073807880
    $t
    i.am_devices_cooper_command_write
    am_devices_cooper_command_write
        0x00019028:    e92d4ff8    -..O    PUSH     {r3-r11,lr}
        0x0001902c:    4682        .F      MOV      r10,r0
        0x0001902e:    460c        .F      MOV      r4,r1
        0x00019030:    4617        .F      MOV      r7,r2
        0x00019032:    461d        .F      MOV      r5,r3
        0x00019034:    f8dd8028    ..(.    LDR      r8,[sp,#0x28]
        0x00019038:    2600        .&      MOVS     r6,#0
        0x0001903a:    b11c        ..      CBZ      r4,0x19044 ; am_devices_cooper_command_write + 28
        0x0001903c:    b115        ..      CBZ      r5,0x19044 ; am_devices_cooper_command_write + 28
        0x0001903e:    f1b80f00    ....    CMP      r8,#0
        0x00019042:    d102        ..      BNE      0x1904a ; am_devices_cooper_command_write + 34
        0x00019044:    2008        .       MOVS     r0,#8
        0x00019046:    e8bd8ff8    ....    POP      {r3-r11,pc}
        0x0001904a:    bf00        ..      NOP      
        0x0001904c:    2001        .       MOVS     r0,#1
        0x0001904e:    463b        ;F      MOV      r3,r7
        0x00019050:    4622        "F      MOV      r2,r4
        0x00019052:    2100        .!      MOVS     r1,#0
        0x00019054:    9000        ..      STR      r0,[sp,#0]
        0x00019056:    4650        PF      MOV      r0,r10
        0x00019058:    f7ffff08    ....    BL       am_devices_cooper_blocking_write ; 0x18e6c
        0x0001905c:    4606        .F      MOV      r6,r0
        0x0001905e:    b106        ..      CBZ      r6,0x19062 ; am_devices_cooper_command_write + 58
        0x00019060:    e02e        ..      B        0x190c0 ; am_devices_cooper_command_write + 152
        0x00019062:    f04f0900    O...    MOV      r9,#0
        0x00019066:    e009        ..      B        0x1907c ; am_devices_cooper_command_write + 84
        0x00019068:    4817        .H      LDR      r0,[pc,#92] ; [0x190c8] = 0x4c4b40
        0x0001906a:    4581        .E      CMP      r9,r0
        0x0001906c:    d101        ..      BNE      0x19072 ; am_devices_cooper_command_write + 74
        0x0001906e:    2601        .&      MOVS     r6,#1
        0x00019070:    e008        ..      B        0x19084 ; am_devices_cooper_command_write + 92
        0x00019072:    2001        .       MOVS     r0,#1
        0x00019074:    f003ff87    ....    BL       am_util_delay_us ; 0x1cf86
        0x00019078:    f1090901    ....    ADD      r9,r9,#1
        0x0001907c:    f000f966    ..f.    BL       am_devices_cooper_irq_read ; 0x1934c
        0x00019080:    2800        .(      CMP      r0,#0
        0x00019082:    d0f1        ..      BEQ      0x19068 ; am_devices_cooper_command_write + 64
        0x00019084:    bf00        ..      NOP      
        0x00019086:    b10e        ..      CBZ      r6,0x1908c ; am_devices_cooper_command_write + 100
        0x00019088:    2605        .&      MOVS     r6,#5
        0x0001908a:    e019        ..      B        0x190c0 ; am_devices_cooper_command_write + 152
        0x0001908c:    e015        ..      B        0x190ba ; am_devices_cooper_command_write + 146
        0x0001908e:    4642        BF      MOV      r2,r8
        0x00019090:    4629        )F      MOV      r1,r5
        0x00019092:    4650        PF      MOV      r0,r10
        0x00019094:    f7fffe7a    ..z.    BL       am_devices_cooper_blocking_read ; 0x18d8c
        0x00019098:    4606        .F      MOV      r6,r0
        0x0001909a:    b96e        n.      CBNZ     r6,0x190b8 ; am_devices_cooper_command_write + 144
        0x0001909c:    7928        (y      LDRB     r0,[r5,#4]
        0x0001909e:    8821        !.      LDRH     r1,[r4,#0]
        0x000190a0:    f3c12107    ...!    UBFX     r1,r1,#8,#8
        0x000190a4:    4288        .B      CMP      r0,r1
        0x000190a6:    d108        ..      BNE      0x190ba ; am_devices_cooper_command_write + 146
        0x000190a8:    88a8        ..      LDRH     r0,[r5,#4]
        0x000190aa:    f3c02007    ...     UBFX     r0,r0,#8,#8
        0x000190ae:    6821        !h      LDR      r1,[r4,#0]
        0x000190b0:    f3c14107    ...A    UBFX     r1,r1,#16,#8
        0x000190b4:    4288        .B      CMP      r0,r1
        0x000190b6:    d100        ..      BNE      0x190ba ; am_devices_cooper_command_write + 146
        0x000190b8:    e000        ..      B        0x190bc ; am_devices_cooper_command_write + 148
        0x000190ba:    e7e8        ..      B        0x1908e ; am_devices_cooper_command_write + 102
        0x000190bc:    bf00        ..      NOP      
        0x000190be:    bf00        ..      NOP      
        0x000190c0:    bf00        ..      NOP      
        0x000190c2:    4630        0F      MOV      r0,r6
        0x000190c4:    e7bf        ..      B        0x19046 ; am_devices_cooper_command_write + 30
    $d
        0x000190c6:    0000        ..      DCW    0
        0x000190c8:    004c4b40    @KL.    DCD    5000000
    $t
    i.am_devices_cooper_get_info0_patch
    am_devices_cooper_get_info0_patch
        0x000190cc:    b530        0.      PUSH     {r4,r5,lr}
        0x000190ce:    4601        .F      MOV      r1,r0
        0x000190d0:    b119        ..      CBZ      r1,0x190da ; am_devices_cooper_get_info0_patch + 14
        0x000190d2:    4804        .H      LDR      r0,[pc,#16] ; [0x190e4] = 0x100000a4
        0x000190d4:    e891003c    ..<.    LDM      r1,{r2-r5}
        0x000190d8:    c03c        <.      STM      r0!,{r2-r5}
        0x000190da:    b109        ..      CBZ      r1,0x190e0 ; am_devices_cooper_get_info0_patch + 20
        0x000190dc:    2001        .       MOVS     r0,#1
        0x000190de:    bd30        0.      POP      {r4,r5,pc}
        0x000190e0:    2000        .       MOVS     r0,#0
        0x000190e2:    e7fc        ..      B        0x190de ; am_devices_cooper_get_info0_patch + 18
    $d
        0x000190e4:    100000a4    ....    DCD    268435620
    $t
    i.am_devices_cooper_image_update_init
    am_devices_cooper_image_update_init
        0x000190e8:    4602        .F      MOV      r2,r0
        0x000190ea:    b182        ..      CBZ      r2,0x1910e ; am_devices_cooper_image_update_init + 38
        0x000190ec:    2000        .       MOVS     r0,#0
        0x000190ee:    4b09        .K      LDR      r3,[pc,#36] ; [0x19114] = 0x10003da4
        0x000190f0:    6018        .`      STR      r0,[r3,#0]
        0x000190f2:    6058        X`      STR      r0,[r3,#4]
        0x000190f4:    6098        .`      STR      r0,[r3,#8]
        0x000190f6:    2003        .       MOVS     r0,#3
        0x000190f8:    61d8        .a      STR      r0,[r3,#0x1c]
        0x000190fa:    2000        .       MOVS     r0,#0
        0x000190fc:    6118        .a      STR      r0,[r3,#0x10]
        0x000190fe:    60d8        .`      STR      r0,[r3,#0xc]
        0x00019100:    6198        .a      STR      r0,[r3,#0x18]
        0x00019102:    6158        Xa      STR      r0,[r3,#0x14]
        0x00019104:    4618        .F      MOV      r0,r3
        0x00019106:    6242        Bb      STR      r2,[r0,#0x24]
        0x00019108:    6281        .b      STR      r1,[r0,#0x28]
        0x0001910a:    2000        .       MOVS     r0,#0
        0x0001910c:    4770        pG      BX       lr
        0x0001910e:    2001        .       MOVS     r0,#1
        0x00019110:    e7fc        ..      B        0x1910c ; am_devices_cooper_image_update_init + 36
    $d
        0x00019112:    0000        ..      DCW    0
        0x00019114:    10003da4    .=..    DCD    268451236
    $t
    i.am_devices_cooper_init
    am_devices_cooper_init
        0x00019118:    e92d41f0    -..A    PUSH     {r4-r8,lr}
        0x0001911c:    b08e        ..      SUB      sp,sp,#0x38
        0x0001911e:    4607        .F      MOV      r7,r0
        0x00019120:    460d        .F      MOV      r5,r1
        0x00019122:    4616        .F      MOV      r6,r2
        0x00019124:    4698        .F      MOV      r8,r3
        0x00019126:    2400        .$      MOVS     r4,#0
        0x00019128:    2120         !      MOVS     r1,#0x20
        0x0001912a:    4668        hF      MOV      r0,sp
        0x0001912c:    f7fff9ff    ....    BL       __aeabi_memclr4 ; 0x1852e
        0x00019130:    bf00        ..      NOP      
        0x00019132:    e008        ..      B        0x19146 ; am_devices_cooper_init + 46
        0x00019134:    eb0400c4    ....    ADD      r0,r4,r4,LSL #3
        0x00019138:    4970        pI      LDR      r1,[pc,#448] ; [0x192fc] = 0x10003d80
        0x0001913a:    eb010080    ....    ADD      r0,r1,r0,LSL #2
        0x0001913e:    7f00        ..      LDRB     r0,[r0,#0x1c]
        0x00019140:    b900        ..      CBNZ     r0,0x19144 ; am_devices_cooper_init + 44
        0x00019142:    e002        ..      B        0x1914a ; am_devices_cooper_init + 50
        0x00019144:    1c64        d.      ADDS     r4,r4,#1
        0x00019146:    2c00        .,      CMP      r4,#0
        0x00019148:    d0f4        ..      BEQ      0x19134 ; am_devices_cooper_init + 28
        0x0001914a:    bf00        ..      NOP      
        0x0001914c:    2c01        .,      CMP      r4,#1
        0x0001914e:    d103        ..      BNE      0x19158 ; am_devices_cooper_init + 64
        0x00019150:    2001        .       MOVS     r0,#1
        0x00019152:    b00e        ..      ADD      sp,sp,#0x38
        0x00019154:    e8bd81f0    ....    POP      {r4-r8,pc}
        0x00019158:    2f08        ./      CMP      r7,#8
        0x0001915a:    d800        ..      BHI      0x1915e ; am_devices_cooper_init + 70
        0x0001915c:    b90d        ..      CBNZ     r5,0x19162 ; am_devices_cooper_init + 74
        0x0001915e:    2001        .       MOVS     r0,#1
        0x00019160:    e7f7        ..      B        0x19152 ; am_devices_cooper_init + 58
        0x00019162:    f001f91d    ....    BL       am_hal_fault_capture_enable ; 0x1a3a0
        0x00019166:    4866        fH      LDR      r0,[pc,#408] ; [0x19300] = 0x16e3600
        0x00019168:    9009        ..      STR      r0,[sp,#0x24]
        0x0001916a:    2000        .       MOVS     r0,#0
        0x0001916c:    f88d0020    .. .    STRB     r0,[sp,#0x20]
        0x00019170:    2003        .       MOVS     r0,#3
        0x00019172:    f88d0028    ..(.    STRB     r0,[sp,#0x28]
        0x00019176:    6868        hh      LDR      r0,[r5,#4]
        0x00019178:    900c        ..      STR      r0,[sp,#0x30]
        0x0001917a:    6828        (h      LDR      r0,[r5,#0]
        0x0001917c:    900b        ..      STR      r0,[sp,#0x2c]
        0x0001917e:    a90d        ..      ADD      r1,sp,#0x34
        0x00019180:    4638        8F      MOV      r0,r7
        0x00019182:    f001ff11    ....    BL       am_hal_iom_initialize ; 0x1afa8
        0x00019186:    b970        p.      CBNZ     r0,0x191a6 ; am_devices_cooper_init + 142
        0x00019188:    2200        ."      MOVS     r2,#0
        0x0001918a:    4611        .F      MOV      r1,r2
        0x0001918c:    980d        ..      LDR      r0,[sp,#0x34]
        0x0001918e:    f002f913    ....    BL       am_hal_iom_power_ctrl ; 0x1b3b8
        0x00019192:    b940        @.      CBNZ     r0,0x191a6 ; am_devices_cooper_init + 142
        0x00019194:    a908        ..      ADD      r1,sp,#0x20
        0x00019196:    980d        ..      LDR      r0,[sp,#0x34]
        0x00019198:    f001fcbc    ....    BL       am_hal_iom_configure ; 0x1ab14
        0x0001919c:    b918        ..      CBNZ     r0,0x191a6 ; am_devices_cooper_init + 142
        0x0001919e:    980d        ..      LDR      r0,[sp,#0x34]
        0x000191a0:    f001fe74    ..t.    BL       am_hal_iom_enable ; 0x1ae8c
        0x000191a4:    b108        ..      CBZ      r0,0x191aa ; am_devices_cooper_init + 146
        0x000191a6:    2001        .       MOVS     r0,#1
        0x000191a8:    e7d3        ..      B        0x19152 ; am_devices_cooper_init + 58
        0x000191aa:    2100        .!      MOVS     r1,#0
        0x000191ac:    4638        8F      MOV      r0,r7
        0x000191ae:    f7fffbcf    ....    BL       am_bsp_iom_pins_enable ; 0x18950
        0x000191b2:    f000f8ff    ....    BL       am_devices_cooper_pins_enable ; 0x193b4
        0x000191b6:    2100        .!      MOVS     r1,#0
        0x000191b8:    4608        .F      MOV      r0,r1
        0x000191ba:    f002fb7f    ....    BL       am_hal_mcuctrl_control ; 0x1b8bc
        0x000191be:    4951        QI      LDR      r1,[pc,#324] ; [0x19304] = 0x1ee18
        0x000191c0:    2002        .       MOVS     r0,#2
        0x000191c2:    f002fb7b    ..{.    BL       am_hal_mcuctrl_control ; 0x1b8bc
        0x000191c6:    f000f923    ..#.    BL       am_devices_cooper_reset ; 0x19410
        0x000191ca:    2000        .       MOVS     r0,#0
        0x000191cc:    eb0401c4    ....    ADD      r1,r4,r4,LSL #3
        0x000191d0:    4a4a        JJ      LDR      r2,[pc,#296] ; [0x192fc] = 0x10003d80
        0x000191d2:    eb020181    ....    ADD      r1,r2,r1,LSL #2
        0x000191d6:    6108        .a      STR      r0,[r1,#0x10]
        0x000191d8:    eb0401c4    ....    ADD      r1,r4,r4,LSL #3
        0x000191dc:    eb020181    ....    ADD      r1,r2,r1,LSL #2
        0x000191e0:    6148        Ha      STR      r0,[r1,#0x14]
        0x000191e2:    eb0401c4    ....    ADD      r1,r4,r4,LSL #3
        0x000191e6:    eb020181    ....    ADD      r1,r2,r1,LSL #2
        0x000191ea:    7748        Hw      STRB     r0,[r1,#0x1d]
        0x000191ec:    2001        .       MOVS     r0,#1
        0x000191ee:    eb0401c4    ....    ADD      r1,r4,r4,LSL #3
        0x000191f2:    eb020181    ....    ADD      r1,r2,r1,LSL #2
        0x000191f6:    7708        .w      STRB     r0,[r1,#0x1c]
        0x000191f8:    eb0401c4    ....    ADD      r1,r4,r4,LSL #3
        0x000191fc:    eb020181    ....    ADD      r1,r2,r1,LSL #2
        0x00019200:    7788        .w      STRB     r0,[r1,#0x1e]
        0x00019202:    2000        .       MOVS     r0,#0
        0x00019204:    eb0401c4    ....    ADD      r1,r4,r4,LSL #3
        0x00019208:    eb020181    ....    ADD      r1,r2,r1,LSL #2
        0x0001920c:    77c8        .w      STRB     r0,[r1,#0x1f]
        0x0001920e:    eb0401c4    ....    ADD      r1,r4,r4,LSL #3
        0x00019212:    eb020181    ....    ADD      r1,r2,r1,LSL #2
        0x00019216:    f8810020    .. .    STRB     r0,[r1,#0x20]
        0x0001921a:    f85d0027    ].'.    LDR      r0,[sp,r7,LSL #2]
        0x0001921e:    eb0401c4    ....    ADD      r1,r4,r4,LSL #3
        0x00019222:    eb020181    ....    ADD      r1,r2,r1,LSL #2
        0x00019226:    6048        H`      STR      r0,[r1,#4]
        0x00019228:    eb0400c4    ....    ADD      r0,r4,r4,LSL #3
        0x0001922c:    4611        .F      MOV      r1,r2
        0x0001922e:    f8417020    A. p    STR      r7,[r1,r0,LSL #2]
        0x00019232:    2064        d       MOVS     r0,#0x64
        0x00019234:    eb0401c4    ....    ADD      r1,r4,r4,LSL #3
        0x00019238:    eb020181    ....    ADD      r1,r2,r1,LSL #2
        0x0001923c:    6088        .`      STR      r0,[r1,#8]
        0x0001923e:    eb0401c4    ....    ADD      r1,r4,r4,LSL #3
        0x00019242:    eb020181    ....    ADD      r1,r2,r1,LSL #2
        0x00019246:    980d        ..      LDR      r0,[sp,#0x34]
        0x00019248:    6188        .a      STR      r0,[r1,#0x18]
        0x0001924a:    f8c80000    ....    STR      r0,[r8,#0]
        0x0001924e:    eb0400c4    ....    ADD      r0,r4,r4,LSL #3
        0x00019252:    4611        .F      MOV      r1,r2
        0x00019254:    eb010080    ....    ADD      r0,r1,r0,LSL #2
        0x00019258:    6030        0`      STR      r0,[r6,#0]
        0x0001925a:    6829        )h      LDR      r1,[r5,#0]
        0x0001925c:    6830        0h      LDR      r0,[r6,#0]
        0x0001925e:    f7ffff43    ..C.    BL       am_devices_cooper_image_update_init ; 0x190e8
        0x00019262:    2000        .       MOVS     r0,#0
        0x00019264:    4928        (I      LDR      r1,[pc,#160] ; [0x19308] = 0x100000d4
        0x00019266:    6008        .`      STR      r0,[r1,#0]
        0x00019268:    f000f9cc    ....    BL       am_devices_cooper_update_image ; 0x19604
        0x0001926c:    4926        &I      LDR      r1,[pc,#152] ; [0x19308] = 0x100000d4
        0x0001926e:    6008        .`      STR      r0,[r1,#0]
        0x00019270:    e00b        ..      B        0x1928a ; am_devices_cooper_init + 370
        0x00019272:    e002        ..      B        0x1927a ; am_devices_cooper_init + 354
        0x00019274:    2032        2       MOVS     r0,#0x32
        0x00019276:    f001f81f    ....    BL       am_hal_delay_us ; 0x1a2b8
        0x0001927a:    f000f867    ..g.    BL       am_devices_cooper_irq_read ; 0x1934c
        0x0001927e:    2800        .(      CMP      r0,#0
        0x00019280:    d0f8        ..      BEQ      0x19274 ; am_devices_cooper_init + 348
        0x00019282:    f000f9bf    ....    BL       am_devices_cooper_update_image ; 0x19604
        0x00019286:    4920         I      LDR      r1,[pc,#128] ; [0x19308] = 0x100000d4
        0x00019288:    6008        .`      STR      r0,[r1,#0]
        0x0001928a:    481f        .H      LDR      r0,[pc,#124] ; [0x19308] = 0x100000d4
        0x0001928c:    6800        .h      LDR      r0,[r0,#0]
        0x0001928e:    f1b03fa5    ...?    CMP      r0,#0xa5a5a5a5
        0x00019292:    d004        ..      BEQ      0x1929e ; am_devices_cooper_init + 390
        0x00019294:    481c        .H      LDR      r0,[pc,#112] ; [0x19308] = 0x100000d4
        0x00019296:    6800        .h      LDR      r0,[r0,#0]
        0x00019298:    f1b03fa1    ...?    CMP      r0,#0xa1a1a1a1
        0x0001929c:    d1e9        ..      BNE      0x19272 ; am_devices_cooper_init + 346
        0x0001929e:    481a        .H      LDR      r0,[pc,#104] ; [0x19308] = 0x100000d4
        0x000192a0:    6800        .h      LDR      r0,[r0,#0]
        0x000192a2:    f1b03fa5    ...?    CMP      r0,#0xa5a5a5a5
        0x000192a6:    d11c        ..      BNE      0x192e2 ; am_devices_cooper_init + 458
        0x000192a8:    4818        .H      LDR      r0,[pc,#96] ; [0x1930c] = 0x10003da4
        0x000192aa:    6ac0        .j      LDR      r0,[r0,#0x2c]
        0x000192ac:    f5b07f87    ....    CMP      r0,#0x10e
        0x000192b0:    d207        ..      BCS      0x192c2 ; am_devices_cooper_init + 426
        0x000192b2:    f44f7096    O..p    MOV      r0,#0x12c
        0x000192b6:    eb0401c4    ....    ADD      r1,r4,r4,LSL #3
        0x000192ba:    4a10        .J      LDR      r2,[pc,#64] ; [0x192fc] = 0x10003d80
        0x000192bc:    eb020181    ....    ADD      r1,r2,r1,LSL #2
        0x000192c0:    6088        .`      STR      r0,[r1,#8]
        0x000192c2:    4812        .H      LDR      r0,[pc,#72] ; [0x1930c] = 0x10003da4
        0x000192c4:    6ac0        .j      LDR      r0,[r0,#0x2c]
        0x000192c6:    eb0401c4    ....    ADD      r1,r4,r4,LSL #3
        0x000192ca:    4a0c        .J      LDR      r2,[pc,#48] ; [0x192fc] = 0x10003d80
        0x000192cc:    eb020181    ....    ADD      r1,r2,r1,LSL #2
        0x000192d0:    60c8        .`      STR      r0,[r1,#0xc]
        0x000192d2:    200a        .       MOVS     r0,#0xa
        0x000192d4:    f003fe4e    ..N.    BL       am_util_delay_ms ; 0x1cf74
        0x000192d8:    a00d        ..      ADR      r0,{pc}+0x38 ; 0x19310
        0x000192da:    f003febb    ....    BL       am_util_stdio_printf ; 0x1d054
        0x000192de:    2000        .       MOVS     r0,#0
        0x000192e0:    e737        7.      B        0x19152 ; am_devices_cooper_init + 58
        0x000192e2:    6830        0h      LDR      r0,[r6,#0]
        0x000192e4:    f000f960    ..`.    BL       am_devices_cooper_term ; 0x195a8
        0x000192e8:    2000        .       MOVS     r0,#0
        0x000192ea:    6030        0`      STR      r0,[r6,#0]
        0x000192ec:    4806        .H      LDR      r0,[pc,#24] ; [0x19308] = 0x100000d4
        0x000192ee:    6801        .h      LDR      r1,[r0,#0]
        0x000192f0:    a00e        ..      ADR      r0,{pc}+0x3c ; 0x1932c
        0x000192f2:    f003feaf    ....    BL       am_util_stdio_printf ; 0x1d054
        0x000192f6:    4805        .H      LDR      r0,[pc,#20] ; [0x1930c] = 0x10003da4
        0x000192f8:    6b00        .k      LDR      r0,[r0,#0x30]
        0x000192fa:    e72a        *.      B        0x19152 ; am_devices_cooper_init + 58
    $d
        0x000192fc:    10003d80    .=..    DCD    268451200
        0x00019300:    016e3600    .6n.    DCD    24000000
        0x00019304:    0001ee18    ....    DCD    126488
        0x00019308:    100000d4    ....    DCD    268435668
        0x0001930c:    10003da4    .=..    DCD    268451236
        0x00019310:    20454c42    BLE     DCD    541412418
        0x00019314:    746e6f43    Cont    DCD    1953394499
        0x00019318:    6c6c6f72    roll    DCD    1819045746
        0x0001931c:    49207265    er I    DCD    1226863205
        0x00019320:    2074696e    nit     DCD    544500078
        0x00019324:    656e6f44    Done    DCD    1701736260
        0x00019328:    00000a0d    ....    DCD    2573
        0x0001932c:    20454c42    BLE     DCD    541412418
        0x00019330:    746e6f43    Cont    DCD    1953394499
        0x00019334:    6c6c6f72    roll    DCD    1819045746
        0x00019338:    53207265    er S    DCD    1394635365
        0x0001933c:    45204c42    BL E    DCD    1159744578
        0x00019340:    726f7272    rror    DCD    1919906418
        0x00019344:    25783020     0x%    DCD    628633632
        0x00019348:    000a0d78    x...    DCD    658808
    $t
    i.am_devices_cooper_irq_read
    am_devices_cooper_irq_read
        0x0001934c:    4802        .H      LDR      r0,[pc,#8] ; [0x19358] = 0x40010208
        0x0001934e:    6800        .h      LDR      r0,[r0,#0]
        0x00019350:    f3c05040    ..@P    UBFX     r0,r0,#21,#1
        0x00019354:    4770        pG      BX       lr
    $d
        0x00019356:    0000        ..      DCW    0
        0x00019358:    40010208    ...@    DCD    1073807880
    $t
    i.am_devices_cooper_pins_disable
    am_devices_cooper_pins_disable
        0x0001935c:    b508        ..      PUSH     {r3,lr}
        0x0001935e:    f7fff801    ....    BL       am_hal_interrupt_master_disable ; 0x18364
        0x00019362:    9000        ..      STR      r0,[sp,#0]
        0x00019364:    f44f0100    O...    MOV      r1,#0x800000
        0x00019368:    4810        .H      LDR      r0,[pc,#64] ; [0x193ac] = 0x40010238
        0x0001936a:    6001        .`      STR      r1,[r0,#0]
        0x0001936c:    9800        ..      LDR      r0,[sp,#0]
        0x0001936e:    f7fefffd    ....    BL       am_hal_interrupt_master_set ; 0x1836c
        0x00019372:    480f        .H      LDR      r0,[pc,#60] ; [0x193b0] = 0x1ee28
        0x00019374:    6800        .h      LDR      r0,[r0,#0]
        0x00019376:    9000        ..      STR      r0,[sp,#0]
        0x00019378:    2035        5       MOVS     r0,#0x35
        0x0001937a:    9900        ..      LDR      r1,[sp,#0]
        0x0001937c:    f001f9a4    ....    BL       am_hal_gpio_pinconfig ; 0x1a6c8
        0x00019380:    480b        .H      LDR      r0,[pc,#44] ; [0x193b0] = 0x1ee28
        0x00019382:    6800        .h      LDR      r0,[r0,#0]
        0x00019384:    9000        ..      STR      r0,[sp,#0]
        0x00019386:    2034        4       MOVS     r0,#0x34
        0x00019388:    9900        ..      LDR      r1,[sp,#0]
        0x0001938a:    f001f99d    ....    BL       am_hal_gpio_pinconfig ; 0x1a6c8
        0x0001938e:    4808        .H      LDR      r0,[pc,#32] ; [0x193b0] = 0x1ee28
        0x00019390:    6800        .h      LDR      r0,[r0,#0]
        0x00019392:    9000        ..      STR      r0,[sp,#0]
        0x00019394:    202e        .       MOVS     r0,#0x2e
        0x00019396:    9900        ..      LDR      r1,[sp,#0]
        0x00019398:    f001f996    ....    BL       am_hal_gpio_pinconfig ; 0x1a6c8
        0x0001939c:    4804        .H      LDR      r0,[pc,#16] ; [0x193b0] = 0x1ee28
        0x0001939e:    6800        .h      LDR      r0,[r0,#0]
        0x000193a0:    9000        ..      STR      r0,[sp,#0]
        0x000193a2:    2004        .       MOVS     r0,#4
        0x000193a4:    9900        ..      LDR      r1,[sp,#0]
        0x000193a6:    f001f98f    ....    BL       am_hal_gpio_pinconfig ; 0x1a6c8
        0x000193aa:    bd08        ..      POP      {r3,pc}
    $d
        0x000193ac:    40010238    8..@    DCD    1073807928
        0x000193b0:    0001ee28    (...    DCD    126504
    $t
    i.am_devices_cooper_pins_enable
    am_devices_cooper_pins_enable
        0x000193b4:    b508        ..      PUSH     {r3,lr}
        0x000193b6:    4812        .H      LDR      r0,[pc,#72] ; [0x19400] = 0x1ee20
        0x000193b8:    6800        .h      LDR      r0,[r0,#0]
        0x000193ba:    9000        ..      STR      r0,[sp,#0]
        0x000193bc:    2037        7       MOVS     r0,#0x37
        0x000193be:    9900        ..      LDR      r1,[sp,#0]
        0x000193c0:    f001f982    ....    BL       am_hal_gpio_pinconfig ; 0x1a6c8
        0x000193c4:    480f        .H      LDR      r0,[pc,#60] ; [0x19404] = 0x1ee24
        0x000193c6:    6800        .h      LDR      r0,[r0,#0]
        0x000193c8:    9000        ..      STR      r0,[sp,#0]
        0x000193ca:    2035        5       MOVS     r0,#0x35
        0x000193cc:    9900        ..      LDR      r1,[sp,#0]
        0x000193ce:    f001f97b    ..{.    BL       am_hal_gpio_pinconfig ; 0x1a6c8
        0x000193d2:    480c        .H      LDR      r0,[pc,#48] ; [0x19404] = 0x1ee24
        0x000193d4:    6800        .h      LDR      r0,[r0,#0]
        0x000193d6:    9000        ..      STR      r0,[sp,#0]
        0x000193d8:    2034        4       MOVS     r0,#0x34
        0x000193da:    9900        ..      LDR      r1,[sp,#0]
        0x000193dc:    f001f974    ..t.    BL       am_hal_gpio_pinconfig ; 0x1a6c8
        0x000193e0:    4809        .H      LDR      r0,[pc,#36] ; [0x19408] = 0x100000c8
        0x000193e2:    6800        .h      LDR      r0,[r0,#0]
        0x000193e4:    9000        ..      STR      r0,[sp,#0]
        0x000193e6:    202e        .       MOVS     r0,#0x2e
        0x000193e8:    9900        ..      LDR      r1,[sp,#0]
        0x000193ea:    f001f96d    ..m.    BL       am_hal_gpio_pinconfig ; 0x1a6c8
        0x000193ee:    4807        .H      LDR      r0,[pc,#28] ; [0x1940c] = 0x100000cc
        0x000193f0:    6800        .h      LDR      r0,[r0,#0]
        0x000193f2:    9000        ..      STR      r0,[sp,#0]
        0x000193f4:    2004        .       MOVS     r0,#4
        0x000193f6:    9900        ..      LDR      r1,[sp,#0]
        0x000193f8:    f001f966    ..f.    BL       am_hal_gpio_pinconfig ; 0x1a6c8
        0x000193fc:    bd08        ..      POP      {r3,pc}
    $d
        0x000193fe:    0000        ..      DCW    0
        0x00019400:    0001ee20     ...    DCD    126496
        0x00019404:    0001ee24    $...    DCD    126500
        0x00019408:    100000c8    ....    DCD    268435656
        0x0001940c:    100000cc    ....    DCD    268435660
    $t
    i.am_devices_cooper_reset
    am_devices_cooper_reset
        0x00019410:    b508        ..      PUSH     {r3,lr}
        0x00019412:    f7feffa7    ....    BL       am_hal_interrupt_master_disable ; 0x18364
        0x00019416:    9000        ..      STR      r0,[sp,#0]
        0x00019418:    f44f0100    O...    MOV      r1,#0x800000
        0x0001941c:    4812        .H      LDR      r0,[pc,#72] ; [0x19468] = 0x40010228
        0x0001941e:    6001        .`      STR      r1,[r0,#0]
        0x00019420:    9800        ..      LDR      r0,[sp,#0]
        0x00019422:    f7feffa3    ....    BL       am_hal_interrupt_master_set ; 0x1836c
        0x00019426:    2014        .       MOVS     r0,#0x14
        0x00019428:    f003fda4    ....    BL       am_util_delay_ms ; 0x1cf74
        0x0001942c:    f7feff9a    ....    BL       am_hal_interrupt_master_disable ; 0x18364
        0x00019430:    9000        ..      STR      r0,[sp,#0]
        0x00019432:    f44f0100    O...    MOV      r1,#0x800000
        0x00019436:    480c        .H      LDR      r0,[pc,#48] ; [0x19468] = 0x40010228
        0x00019438:    3010        .0      ADDS     r0,r0,#0x10
        0x0001943a:    6001        .`      STR      r1,[r0,#0]
        0x0001943c:    9800        ..      LDR      r0,[sp,#0]
        0x0001943e:    f7feff95    ....    BL       am_hal_interrupt_master_set ; 0x1836c
        0x00019442:    2014        .       MOVS     r0,#0x14
        0x00019444:    f003fd96    ....    BL       am_util_delay_ms ; 0x1cf74
        0x00019448:    f7feff8c    ....    BL       am_hal_interrupt_master_disable ; 0x18364
        0x0001944c:    9000        ..      STR      r0,[sp,#0]
        0x0001944e:    f44f0100    O...    MOV      r1,#0x800000
        0x00019452:    4805        .H      LDR      r0,[pc,#20] ; [0x19468] = 0x40010228
        0x00019454:    6001        .`      STR      r1,[r0,#0]
        0x00019456:    9800        ..      LDR      r0,[sp,#0]
        0x00019458:    f7feff88    ....    BL       am_hal_interrupt_master_set ; 0x1836c
        0x0001945c:    f44f702f    O./p    MOV      r0,#0x2bc
        0x00019460:    f003fd88    ....    BL       am_util_delay_ms ; 0x1cf74
        0x00019464:    bd08        ..      POP      {r3,pc}
    $d
        0x00019466:    0000        ..      DCW    0
        0x00019468:    40010228    (..@    DCD    1073807912
    $t
    i.am_devices_cooper_reset_with_sbl_check
    am_devices_cooper_reset_with_sbl_check
        0x0001946c:    e92d41f0    -..A    PUSH     {r4-r8,lr}
        0x00019470:    4605        .F      MOV      r5,r0
        0x00019472:    460e        .F      MOV      r6,r1
        0x00019474:    2400        .$      MOVS     r4,#0
        0x00019476:    462f        /F      MOV      r7,r5
        0x00019478:    f7ffffca    ....    BL       am_devices_cooper_reset ; 0x19410
        0x0001947c:    4628        (F      MOV      r0,r5
        0x0001947e:    6831        1h      LDR      r1,[r6,#0]
        0x00019480:    f7fffe32    ..2.    BL       am_devices_cooper_image_update_init ; 0x190e8
        0x00019484:    bf00        ..      NOP      
        0x00019486:    f000f8bd    ....    BL       am_devices_cooper_update_image ; 0x19604
        0x0001948a:    4604        .F      MOV      r4,r0
        0x0001948c:    e00a        ..      B        0x194a4 ; am_devices_cooper_reset_with_sbl_check + 56
        0x0001948e:    e002        ..      B        0x19496 ; am_devices_cooper_reset_with_sbl_check + 42
        0x00019490:    2032        2       MOVS     r0,#0x32
        0x00019492:    f000ff11    ....    BL       am_hal_delay_us ; 0x1a2b8
        0x00019496:    f7ffff59    ..Y.    BL       am_devices_cooper_irq_read ; 0x1934c
        0x0001949a:    2800        .(      CMP      r0,#0
        0x0001949c:    d0f8        ..      BEQ      0x19490 ; am_devices_cooper_reset_with_sbl_check + 36
        0x0001949e:    f000f8b1    ....    BL       am_devices_cooper_update_image ; 0x19604
        0x000194a2:    4604        .F      MOV      r4,r0
        0x000194a4:    f1b43fa5    ...?    CMP      r4,#0xa5a5a5a5
        0x000194a8:    d002        ..      BEQ      0x194b0 ; am_devices_cooper_reset_with_sbl_check + 68
        0x000194aa:    f1b43fa1    ...?    CMP      r4,#0xa1a1a1a1
        0x000194ae:    d1ee        ..      BNE      0x1948e ; am_devices_cooper_reset_with_sbl_check + 34
        0x000194b0:    f1b43fa5    ...?    CMP      r4,#0xa5a5a5a5
        0x000194b4:    d113        ..      BNE      0x194de ; am_devices_cooper_reset_with_sbl_check + 114
        0x000194b6:    480e        .H      LDR      r0,[pc,#56] ; [0x194f0] = 0x10003da4
        0x000194b8:    6ac0        .j      LDR      r0,[r0,#0x2c]
        0x000194ba:    f5b07f87    ....    CMP      r0,#0x10e
        0x000194be:    d202        ..      BCS      0x194c6 ; am_devices_cooper_reset_with_sbl_check + 90
        0x000194c0:    f44f7096    O..p    MOV      r0,#0x12c
        0x000194c4:    60b8        .`      STR      r0,[r7,#8]
        0x000194c6:    480a        .H      LDR      r0,[pc,#40] ; [0x194f0] = 0x10003da4
        0x000194c8:    6ac0        .j      LDR      r0,[r0,#0x2c]
        0x000194ca:    60f8        .`      STR      r0,[r7,#0xc]
        0x000194cc:    200a        .       MOVS     r0,#0xa
        0x000194ce:    f003fd51    ..Q.    BL       am_util_delay_ms ; 0x1cf74
        0x000194d2:    a008        ..      ADR      r0,{pc}+0x22 ; 0x194f4
        0x000194d4:    f003fdbe    ....    BL       am_util_stdio_printf ; 0x1d054
        0x000194d8:    2000        .       MOVS     r0,#0
        0x000194da:    e8bd81f0    ....    POP      {r4-r8,pc}
        0x000194de:    4628        (F      MOV      r0,r5
        0x000194e0:    f000f862    ..b.    BL       am_devices_cooper_term ; 0x195a8
        0x000194e4:    4621        !F      MOV      r1,r4
        0x000194e6:    a007        ..      ADR      r0,{pc}+0x1e ; 0x19504
        0x000194e8:    f003fdb4    ....    BL       am_util_stdio_printf ; 0x1d054
        0x000194ec:    4620         F      MOV      r0,r4
        0x000194ee:    e7f4        ..      B        0x194da ; am_devices_cooper_reset_with_sbl_check + 110
    $d
        0x000194f0:    10003da4    .=..    DCD    268451236
        0x000194f4:    61647055    Upda    DCD    1633972309
        0x000194f8:    44206574    te D    DCD    1142973812
        0x000194fc:    0d656e6f    one.    DCD    224751215
        0x00019500:    0000000a    ....    DCD    10
        0x00019504:    20454c42    BLE     DCD    541412418
        0x00019508:    746e6f43    Cont    DCD    1953394499
        0x0001950c:    6c6c6f72    roll    DCD    1819045746
        0x00019510:    53207265    er S    DCD    1394635365
        0x00019514:    45204c42    BL E    DCD    1159744578
        0x00019518:    726f7272    rror    DCD    1919906418
        0x0001951c:    25783020     0x%    DCD    628633632
        0x00019520:    000a0d78    x...    DCD    658808
    $t
    i.am_devices_cooper_sbl_update_state_data
    am_devices_cooper_sbl_update_state_data
        0x00019524:    4602        .F      MOV      r2,r0
        0x00019526:    2100        .!      MOVS     r1,#0
        0x00019528:    b90a        ..      CBNZ     r2,0x1952e ; am_devices_cooper_sbl_update_state_data + 10
        0x0001952a:    491b        .I      LDR      r1,[pc,#108] ; [0x19598] = 0x10003de4
        0x0001952c:    e009        ..      B        0x19542 ; am_devices_cooper_sbl_update_state_data + 30
        0x0001952e:    2a01        .*      CMP      r2,#1
        0x00019530:    d101        ..      BNE      0x19536 ; am_devices_cooper_sbl_update_state_data + 18
        0x00019532:    491a        .I      LDR      r1,[pc,#104] ; [0x1959c] = 0x100000a4
        0x00019534:    e005        ..      B        0x19542 ; am_devices_cooper_sbl_update_state_data + 30
        0x00019536:    2a02        .*      CMP      r2,#2
        0x00019538:    d101        ..      BNE      0x1953e ; am_devices_cooper_sbl_update_state_data + 26
        0x0001953a:    4919        .I      LDR      r1,[pc,#100] ; [0x195a0] = 0x100000b4
        0x0001953c:    e001        ..      B        0x19542 ; am_devices_cooper_sbl_update_state_data + 30
        0x0001953e:    2000        .       MOVS     r0,#0
        0x00019540:    4770        pG      BX       lr
        0x00019542:    b339        9.      CBZ      r1,0x19594 ; am_devices_cooper_sbl_update_state_data + 112
        0x00019544:    6808        .h      LDR      r0,[r1,#0]
        0x00019546:    b328        (.      CBZ      r0,0x19594 ; am_devices_cooper_sbl_update_state_data + 112
        0x00019548:    6848        Hh      LDR      r0,[r1,#4]
        0x0001954a:    b318        ..      CBZ      r0,0x19594 ; am_devices_cooper_sbl_update_state_data + 112
        0x0001954c:    6888        .h      LDR      r0,[r1,#8]
        0x0001954e:    4290        .B      CMP      r0,r2
        0x00019550:    d120         .      BNE      0x19594 ; am_devices_cooper_sbl_update_state_data + 112
        0x00019552:    4b14        .K      LDR      r3,[pc,#80] ; [0x195a4] = 0x10003da4
        0x00019554:    6808        .h      LDR      r0,[r1,#0]
        0x00019556:    6058        X`      STR      r0,[r3,#4]
        0x00019558:    6848        Hh      LDR      r0,[r1,#4]
        0x0001955a:    6098        .`      STR      r0,[r3,#8]
        0x0001955c:    6888        .h      LDR      r0,[r1,#8]
        0x0001955e:    61d8        .a      STR      r0,[r3,#0x1c]
        0x00019560:    4618        .F      MOV      r0,r3
        0x00019562:    6880        .h      LDR      r0,[r0,#8]
        0x00019564:    3840        @8      SUBS     r0,r0,#0x40
        0x00019566:    6118        .a      STR      r0,[r3,#0x10]
        0x00019568:    4618        .F      MOV      r0,r3
        0x0001956a:    6840        @h      LDR      r0,[r0,#4]
        0x0001956c:    3040        @0      ADDS     r0,r0,#0x40
        0x0001956e:    60d8        .`      STR      r0,[r3,#0xc]
        0x00019570:    4618        .F      MOV      r0,r3
        0x00019572:    6900        .i      LDR      r0,[r0,#0x10]
        0x00019574:    0a40        @.      LSRS     r0,r0,#9
        0x00019576:    6198        .a      STR      r0,[r3,#0x18]
        0x00019578:    4618        .F      MOV      r0,r3
        0x0001957a:    8a00        ..      LDRH     r0,[r0,#0x10]
        0x0001957c:    f3c00008    ....    UBFX     r0,r0,#0,#9
        0x00019580:    b118        ..      CBZ      r0,0x1958a ; am_devices_cooper_sbl_update_state_data + 102
        0x00019582:    4618        .F      MOV      r0,r3
        0x00019584:    6980        .i      LDR      r0,[r0,#0x18]
        0x00019586:    1c40        @.      ADDS     r0,r0,#1
        0x00019588:    6198        .a      STR      r0,[r3,#0x18]
        0x0001958a:    2000        .       MOVS     r0,#0
        0x0001958c:    4b05        .K      LDR      r3,[pc,#20] ; [0x195a4] = 0x10003da4
        0x0001958e:    6158        Xa      STR      r0,[r3,#0x14]
        0x00019590:    2001        .       MOVS     r0,#1
        0x00019592:    e7d5        ..      B        0x19540 ; am_devices_cooper_sbl_update_state_data + 28
        0x00019594:    2000        .       MOVS     r0,#0
        0x00019596:    e7d3        ..      B        0x19540 ; am_devices_cooper_sbl_update_state_data + 28
    $d
        0x00019598:    10003de4    .=..    DCD    268451300
        0x0001959c:    100000a4    ....    DCD    268435620
        0x000195a0:    100000b4    ....    DCD    268435636
        0x000195a4:    10003da4    .=..    DCD    268451236
    $t
    i.am_devices_cooper_term
    am_devices_cooper_term
        0x000195a8:    b570        p.      PUSH     {r4-r6,lr}
        0x000195aa:    4605        .F      MOV      r5,r0
        0x000195ac:    462c        ,F      MOV      r4,r5
        0x000195ae:    6820         h      LDR      r0,[r4,#0]
        0x000195b0:    2808        .(      CMP      r0,#8
        0x000195b2:    d901        ..      BLS      0x195b8 ; am_devices_cooper_term + 16
        0x000195b4:    2001        .       MOVS     r0,#1
        0x000195b6:    bd70        p.      POP      {r4-r6,pc}
        0x000195b8:    2100        .!      MOVS     r1,#0
        0x000195ba:    2001        .       MOVS     r0,#1
        0x000195bc:    f002f97e    ..~.    BL       am_hal_mcuctrl_control ; 0x1b8bc
        0x000195c0:    490f        .I      LDR      r1,[pc,#60] ; [0x19600] = 0x1ee18
        0x000195c2:    2004        .       MOVS     r0,#4
        0x000195c4:    f002f97a    ..z.    BL       am_hal_mcuctrl_control ; 0x1b8bc
        0x000195c8:    2100        .!      MOVS     r1,#0
        0x000195ca:    6820         h      LDR      r0,[r4,#0]
        0x000195cc:    f7fff88a    ....    BL       am_bsp_iom_pins_disable ; 0x186e4
        0x000195d0:    f7fffec4    ....    BL       am_devices_cooper_pins_disable ; 0x1935c
        0x000195d4:    69a0        .i      LDR      r0,[r4,#0x18]
        0x000195d6:    f001fc17    ....    BL       am_hal_iom_disable ; 0x1ae08
        0x000195da:    2201        ."      MOVS     r2,#1
        0x000195dc:    2100        .!      MOVS     r1,#0
        0x000195de:    69a0        .i      LDR      r0,[r4,#0x18]
        0x000195e0:    f001feea    ....    BL       am_hal_iom_power_ctrl ; 0x1b3b8
        0x000195e4:    2200        ."      MOVS     r2,#0
        0x000195e6:    2102        .!      MOVS     r1,#2
        0x000195e8:    69a0        .i      LDR      r0,[r4,#0x18]
        0x000195ea:    f001fee5    ....    BL       am_hal_iom_power_ctrl ; 0x1b3b8
        0x000195ee:    69a0        .i      LDR      r0,[r4,#0x18]
        0x000195f0:    f002f87e    ..~.    BL       am_hal_iom_uninitialize ; 0x1b6f0
        0x000195f4:    2000        .       MOVS     r0,#0
        0x000195f6:    7720         w      STRB     r0,[r4,#0x1c]
        0x000195f8:    f8840020    .. .    STRB     r0,[r4,#0x20]
        0x000195fc:    bf00        ..      NOP      
        0x000195fe:    e7da        ..      B        0x195b6 ; am_devices_cooper_term + 14
    $d
        0x00019600:    0001ee18    ....    DCD    126488
    $t
    i.am_devices_cooper_update_image
    am_devices_cooper_update_image
        0x00019604:    e92d41fc    -..A    PUSH     {r2-r8,lr}
        0x00019608:    2700        .'      MOVS     r7,#0
        0x0001960a:    2000        .       MOVS     r0,#0
        0x0001960c:    9001        ..      STR      r0,[sp,#4]
        0x0001960e:    2600        .&      MOVS     r6,#0
        0x00019610:    48f9        .H      LDR      r0,[pc,#996] ; [0x199f8] = 0x10003da4
        0x00019612:    6800        .h      LDR      r0,[r0,#0]
        0x00019614:    2805        .(      CMP      r0,#5
        0x00019616:    d27d        }.      BCS      0x19714 ; am_devices_cooper_update_image + 272
        0x00019618:    e8dff000    ....    TBB      [pc,r0]
    $d
        0x0001961c:    f1f30c03    ....    DCD    4059237379
        0x00019620:    00f0        ..      DCW    240
    $t
        0x00019622:    49f5        .I      LDR      r1,[pc,#980] ; [0x199f8] = 0x10003da4
        0x00019624:    6a48        Hj      LDR      r0,[r1,#0x24]
        0x00019626:    f004fe11    ....    BL       send_hello ; 0x1e24c
        0x0001962a:    2001        .       MOVS     r0,#1
        0x0001962c:    49f2        .I      LDR      r1,[pc,#968] ; [0x199f8] = 0x10003da4
        0x0001962e:    6008        .`      STR      r0,[r1,#0]
        0x00019630:    4ef2        .N      LDR      r6,[pc,#968] ; [0x199fc] = 0xa78bd32c
        0x00019632:    e31b        ..      B        0x19c6c ; am_devices_cooper_update_image + 1640
        0x00019634:    4af0        .J      LDR      r2,[pc,#960] ; [0x199f8] = 0x10003da4
        0x00019636:    6a91        .j      LDR      r1,[r2,#0x28]
        0x00019638:    6a50        Pj      LDR      r0,[r2,#0x24]
        0x0001963a:    aa01        ..      ADD      r2,sp,#4
        0x0001963c:    f004fbe0    ....    BL       iom_slave_read ; 0x1de00
        0x00019640:    b988        ..      CBNZ     r0,0x19666 ; am_devices_cooper_update_image + 98
        0x00019642:    48ed        .H      LDR      r0,[pc,#948] ; [0x199f8] = 0x10003da4
        0x00019644:    6a00        .j      LDR      r0,[r0,#0x20]
        0x00019646:    1c40        @.      ADDS     r0,r0,#1
        0x00019648:    49eb        .I      LDR      r1,[pc,#940] ; [0x199f8] = 0x10003da4
        0x0001964a:    6208        .b      STR      r0,[r1,#0x20]
        0x0001964c:    4608        .F      MOV      r0,r1
        0x0001964e:    6a00        .j      LDR      r0,[r0,#0x20]
        0x00019650:    2803        .(      CMP      r0,#3
        0x00019652:    d902        ..      BLS      0x1965a ; am_devices_cooper_update_image + 86
        0x00019654:    f04f36a1    O..6    MOV      r6,#0xa1a1a1a1
        0x00019658:    e0bc        ..      B        0x197d4 ; am_devices_cooper_update_image + 464
        0x0001965a:    49e7        .I      LDR      r1,[pc,#924] ; [0x199f8] = 0x10003da4
        0x0001965c:    6a48        Hj      LDR      r0,[r1,#0x24]
        0x0001965e:    f004fdf5    ....    BL       send_hello ; 0x1e24c
        0x00019662:    4ee6        .N      LDR      r6,[pc,#920] ; [0x199fc] = 0xa78bd32c
        0x00019664:    e0b6        ..      B        0x197d4 ; am_devices_cooper_update_image + 464
        0x00019666:    48e4        .H      LDR      r0,[pc,#912] ; [0x199f8] = 0x10003da4
        0x00019668:    6a00        .j      LDR      r0,[r0,#0x20]
        0x0001966a:    b110        ..      CBZ      r0,0x19672 ; am_devices_cooper_update_image + 110
        0x0001966c:    2000        .       MOVS     r0,#0
        0x0001966e:    49e2        .I      LDR      r1,[pc,#904] ; [0x199f8] = 0x10003da4
        0x00019670:    6208        .b      STR      r0,[r1,#0x20]
        0x00019672:    48e1        .H      LDR      r0,[pc,#900] ; [0x199f8] = 0x10003da4
        0x00019674:    6a84        .j      LDR      r4,[r0,#0x28]
        0x00019676:    49e0        .I      LDR      r1,[pc,#896] ; [0x199f8] = 0x10003da4
        0x00019678:    6920         i      LDR      r0,[r4,#0x10]
        0x0001967a:    6308        .c      STR      r0,[r1,#0x30]
        0x0001967c:    68a0        .h      LDR      r0,[r4,#8]
        0x0001967e:    1c40        @.      ADDS     r0,r0,#1
        0x00019680:    b910        ..      CBNZ     r0,0x19688 ; am_devices_cooper_update_image + 132
        0x00019682:    2000        .       MOVS     r0,#0
        0x00019684:    62c8        .b      STR      r0,[r1,#0x2c]
        0x00019686:    e002        ..      B        0x1968e ; am_devices_cooper_update_image + 138
        0x00019688:    49db        .I      LDR      r1,[pc,#876] ; [0x199f8] = 0x10003da4
        0x0001968a:    68a0        .h      LDR      r0,[r4,#8]
        0x0001968c:    62c8        .b      STR      r0,[r1,#0x2c]
        0x0001968e:    a0dc        ..      ADR      r0,{pc}+0x372 ; 0x19a00
        0x00019690:    f003fce0    ....    BL       am_util_stdio_printf ; 0x1d054
        0x00019694:    68a0        .h      LDR      r0,[r4,#8]
        0x00019696:    f36f000f    o...    BFC      r0,#0,#16
        0x0001969a:    b938        8.      CBNZ     r0,0x196ac ; am_devices_cooper_update_image + 168
        0x0001969c:    7a22        "z      LDRB     r2,[r4,#8]
        0x0001969e:    8920         .      LDRH     r0,[r4,#8]
        0x000196a0:    f3c02103    ...!    UBFX     r1,r0,#8,#4
        0x000196a4:    a0dc        ..      ADR      r0,{pc}+0x374 ; 0x19a18
        0x000196a6:    f003fcd5    ....    BL       am_util_stdio_printf ; 0x1d054
        0x000196aa:    e00b        ..      B        0x196c4 ; am_devices_cooper_update_image + 192
        0x000196ac:    7a20         z      LDRB     r0,[r4,#8]
        0x000196ae:    9000        ..      STR      r0,[sp,#0]
        0x000196b0:    8920         .      LDRH     r0,[r4,#8]
        0x000196b2:    f3c02307    ...#    UBFX     r3,r0,#8,#8
        0x000196b6:    68a0        .h      LDR      r0,[r4,#8]
        0x000196b8:    f3c04207    ...B    UBFX     r2,r0,#16,#8
        0x000196bc:    0e01        ..      LSRS     r1,r0,#24
        0x000196be:    a0dc        ..      ADR      r0,{pc}+0x372 ; 0x19a30
        0x000196c0:    f003fcc8    ....    BL       am_util_stdio_printf ; 0x1d054
        0x000196c4:    9801        ..      LDR      r0,[sp,#4]
        0x000196c6:    2820         (      CMP      r0,#0x20
        0x000196c8:    d110        ..      BNE      0x196ec ; am_devices_cooper_update_image + 232
        0x000196ca:    49cb        .I      LDR      r1,[pc,#812] ; [0x199f8] = 0x10003da4
        0x000196cc:    6960        `i      LDR      r0,[r4,#0x14]
        0x000196ce:    6348        Hc      STR      r0,[r1,#0x34]
        0x000196d0:    a0de        ..      ADR      r0,{pc}+0x37c ; 0x19a4c
        0x000196d2:    69a1        .i      LDR      r1,[r4,#0x18]
        0x000196d4:    f003fcbe    ....    BL       am_util_stdio_printf ; 0x1d054
        0x000196d8:    a0e1        ..      ADR      r0,{pc}+0x388 ; 0x19a60
        0x000196da:    69e1        .i      LDR      r1,[r4,#0x1c]
        0x000196dc:    f003fcba    ....    BL       am_util_stdio_printf ; 0x1d054
        0x000196e0:    49c5        .I      LDR      r1,[pc,#788] ; [0x199f8] = 0x10003da4
        0x000196e2:    69a0        .i      LDR      r0,[r4,#0x18]
        0x000196e4:    6388        .c      STR      r0,[r1,#0x38]
        0x000196e6:    69e0        .i      LDR      r0,[r4,#0x1c]
        0x000196e8:    63c8        .c      STR      r0,[r1,#0x3c]
        0x000196ea:    e002        ..      B        0x196f2 ; am_devices_cooper_update_image + 238
        0x000196ec:    2000        .       MOVS     r0,#0
        0x000196ee:    49c2        .I      LDR      r1,[pc,#776] ; [0x199f8] = 0x10003da4
        0x000196f0:    6348        Hc      STR      r0,[r1,#0x34]
        0x000196f2:    6920         i      LDR      r0,[r4,#0x10]
        0x000196f4:    2800        .(      CMP      r0,#0
        0x000196f6:    d13b        ;.      BNE      0x19770 ; am_devices_cooper_update_image + 364
        0x000196f8:    f7ffff14    ....    BL       am_devices_cooper_sbl_update_state_data ; 0x19524
        0x000196fc:    b330        0.      CBZ      r0,0x1974c ; am_devices_cooper_update_image + 328
        0x000196fe:    49de        .I      LDR      r1,[pc,#888] ; [0x19a78] = 0x10003de4
        0x00019700:    68a0        .h      LDR      r0,[r4,#8]
        0x00019702:    68c9        .h      LDR      r1,[r1,#0xc]
        0x00019704:    4288        .B      CMP      r0,r1
        0x00019706:    d221        !.      BCS      0x1974c ; am_devices_cooper_update_image + 328
        0x00019708:    4edc        .N      LDR      r6,[pc,#880] ; [0x19a7c] = 0x4598f231
        0x0001970a:    48db        .H      LDR      r0,[pc,#876] ; [0x19a78] = 0x10003de4
        0x0001970c:    68c0        .h      LDR      r0,[r0,#0xc]
        0x0001970e:    f36f000f    o...    BFC      r0,#0,#16
        0x00019712:    e000        ..      B        0x19716 ; am_devices_cooper_update_image + 274
        0x00019714:    e2a9        ..      B        0x19c6a ; am_devices_cooper_update_image + 1638
        0x00019716:    b940        @.      CBNZ     r0,0x1972a ; am_devices_cooper_update_image + 294
        0x00019718:    48d7        .H      LDR      r0,[pc,#860] ; [0x19a78] = 0x10003de4
        0x0001971a:    7b02        .{      LDRB     r2,[r0,#0xc]
        0x0001971c:    8980        ..      LDRH     r0,[r0,#0xc]
        0x0001971e:    f3c02103    ...!    UBFX     r1,r0,#8,#4
        0x00019722:    48d7        .H      LDR      r0,[pc,#860] ; [0x19a80] = 0x1f1d0
        0x00019724:    f003fc96    ....    BL       am_util_stdio_printf ; 0x1d054
        0x00019728:    e010        ..      B        0x1974c ; am_devices_cooper_update_image + 328
        0x0001972a:    48d3        .H      LDR      r0,[pc,#844] ; [0x19a78] = 0x10003de4
        0x0001972c:    7b00        .{      LDRB     r0,[r0,#0xc]
        0x0001972e:    9000        ..      STR      r0,[sp,#0]
        0x00019730:    48d1        .H      LDR      r0,[pc,#836] ; [0x19a78] = 0x10003de4
        0x00019732:    8980        ..      LDRH     r0,[r0,#0xc]
        0x00019734:    f3c02307    ...#    UBFX     r3,r0,#8,#8
        0x00019738:    48cf        .H      LDR      r0,[pc,#828] ; [0x19a78] = 0x10003de4
        0x0001973a:    68c0        .h      LDR      r0,[r0,#0xc]
        0x0001973c:    f3c04207    ...B    UBFX     r2,r0,#16,#8
        0x00019740:    48cd        .H      LDR      r0,[pc,#820] ; [0x19a78] = 0x10003de4
        0x00019742:    68c0        .h      LDR      r0,[r0,#0xc]
        0x00019744:    0e01        ..      LSRS     r1,r0,#24
        0x00019746:    48cf        .H      LDR      r0,[pc,#828] ; [0x19a84] = 0x1f214
        0x00019748:    f003fc84    ....    BL       am_util_stdio_printf ; 0x1d054
        0x0001974c:    48cb        .H      LDR      r0,[pc,#812] ; [0x19a7c] = 0x4598f231
        0x0001974e:    4286        .B      CMP      r6,r0
        0x00019750:    d040        @.      BEQ      0x197d4 ; am_devices_cooper_update_image + 464
        0x00019752:    2004        .       MOVS     r0,#4
        0x00019754:    49a8        .I      LDR      r1,[pc,#672] ; [0x199f8] = 0x10003da4
        0x00019756:    6008        .`      STR      r0,[r1,#0]
        0x00019758:    4ea8        .N      LDR      r6,[pc,#672] ; [0x199fc] = 0xa78bd32c
        0x0001975a:    a0cb        ..      ADR      r0,{pc}+0x32e ; 0x19a88
        0x0001975c:    f003fc7a    ..z.    BL       am_util_stdio_printf ; 0x1d054
        0x00019760:    49a5        .I      LDR      r1,[pc,#660] ; [0x199f8] = 0x10003da4
        0x00019762:    6a48        Hj      LDR      r0,[r1,#0x24]
        0x00019764:    f004fd5a    ..Z.    BL       send_fwContinue ; 0x1e21c
        0x00019768:    a0ce        ..      ADR      r0,{pc}+0x33c ; 0x19aa4
        0x0001976a:    f003fc73    ..s.    BL       am_util_stdio_printf ; 0x1d054
        0x0001976e:    e031        1.      B        0x197d4 ; am_devices_cooper_update_image + 464
        0x00019770:    6920         i      LDR      r0,[r4,#0x10]
        0x00019772:    2807        .(      CMP      r0,#7
        0x00019774:    d10b        ..      BNE      0x1978e ; am_devices_cooper_update_image + 394
        0x00019776:    a0d8        ..      ADR      r0,{pc}+0x362 ; 0x19ad8
        0x00019778:    f003fc6c    ..l.    BL       am_util_stdio_printf ; 0x1d054
        0x0001977c:    2000        .       MOVS     r0,#0
        0x0001977e:    f7fffed1    ....    BL       am_devices_cooper_sbl_update_state_data ; 0x19524
        0x00019782:    b108        ..      CBZ      r0,0x19788 ; am_devices_cooper_update_image + 388
        0x00019784:    4ebd        .N      LDR      r6,[pc,#756] ; [0x19a7c] = 0x4598f231
        0x00019786:    e025        %.      B        0x197d4 ; am_devices_cooper_update_image + 464
        0x00019788:    f04f36a3    O..6    MOV      r6,#0xa3a3a3a3
        0x0001978c:    e022        ".      B        0x197d4 ; am_devices_cooper_update_image + 464
        0x0001978e:    6920         i      LDR      r0,[r4,#0x10]
        0x00019790:    2808        .(      CMP      r0,#8
        0x00019792:    d10b        ..      BNE      0x197ac ; am_devices_cooper_update_image + 424
        0x00019794:    a0d7        ..      ADR      r0,{pc}+0x360 ; 0x19af4
        0x00019796:    f003fc5d    ..].    BL       am_util_stdio_printf ; 0x1d054
        0x0001979a:    2001        .       MOVS     r0,#1
        0x0001979c:    f7fffec2    ....    BL       am_devices_cooper_sbl_update_state_data ; 0x19524
        0x000197a0:    b108        ..      CBZ      r0,0x197a6 ; am_devices_cooper_update_image + 418
        0x000197a2:    4edc        .N      LDR      r6,[pc,#880] ; [0x19b14] = 0x8730da5b
        0x000197a4:    e016        ..      B        0x197d4 ; am_devices_cooper_update_image + 464
        0x000197a6:    f04f36a3    O..6    MOV      r6,#0xa3a3a3a3
        0x000197aa:    e013        ..      B        0x197d4 ; am_devices_cooper_update_image + 464
        0x000197ac:    6920         i      LDR      r0,[r4,#0x10]
        0x000197ae:    2809        .(      CMP      r0,#9
        0x000197b0:    d10b        ..      BNE      0x197ca ; am_devices_cooper_update_image + 454
        0x000197b2:    a0d9        ..      ADR      r0,{pc}+0x366 ; 0x19b18
        0x000197b4:    f003fc4e    ..N.    BL       am_util_stdio_printf ; 0x1d054
        0x000197b8:    2002        .       MOVS     r0,#2
        0x000197ba:    f7fffeb3    ....    BL       am_devices_cooper_sbl_update_state_data ; 0x19524
        0x000197be:    b108        ..      CBZ      r0,0x197c4 ; am_devices_cooper_update_image + 448
        0x000197c0:    4edd        .N      LDR      r6,[pc,#884] ; [0x19b38] = 0x9fa3725
        0x000197c2:    e007        ..      B        0x197d4 ; am_devices_cooper_update_image + 464
        0x000197c4:    f04f36a3    O..6    MOV      r6,#0xa3a3a3a3
        0x000197c8:    e004        ..      B        0x197d4 ; am_devices_cooper_update_image + 464
        0x000197ca:    a0dc        ..      ADR      r0,{pc}+0x372 ; 0x19b3c
        0x000197cc:    f003fc42    ..B.    BL       am_util_stdio_printf ; 0x1d054
        0x000197d0:    f04f36a1    O..6    MOV      r6,#0xa1a1a1a1
        0x000197d4:    f1b63fa5    ...?    CMP      r6,#0xa5a5a5a5
        0x000197d8:    d00f        ..      BEQ      0x197fa ; am_devices_cooper_update_image + 502
        0x000197da:    f1b63fa1    ...?    CMP      r6,#0xa1a1a1a1
        0x000197de:    d00c        ..      BEQ      0x197fa ; am_devices_cooper_update_image + 502
        0x000197e0:    4885        .H      LDR      r0,[pc,#532] ; [0x199f8] = 0x10003da4
        0x000197e2:    6800        .h      LDR      r0,[r0,#0]
        0x000197e4:    2804        .(      CMP      r0,#4
        0x000197e6:    d008        ..      BEQ      0x197fa ; am_devices_cooper_update_image + 502
        0x000197e8:    2002        .       MOVS     r0,#2
        0x000197ea:    4983        .I      LDR      r1,[pc,#524] ; [0x199f8] = 0x10003da4
        0x000197ec:    6008        .`      STR      r0,[r1,#0]
        0x000197ee:    460a        .F      MOV      r2,r1
        0x000197f0:    6891        .h      LDR      r1,[r2,#8]
        0x000197f2:    6a50        Pj      LDR      r0,[r2,#0x24]
        0x000197f4:    f004fd42    ..B.    BL       send_update ; 0x1e27c
        0x000197f8:    4e80        .N      LDR      r6,[pc,#512] ; [0x199fc] = 0xa78bd32c
        0x000197fa:    e237        7.      B        0x19c6c ; am_devices_cooper_update_image + 1640
        0x000197fc:    e209        ..      B        0x19c12 ; am_devices_cooper_update_image + 1550
        0x000197fe:    e061        a.      B        0x198c4 ; am_devices_cooper_update_image + 704
        0x00019800:    e7ff        ..      B        0x19802 ; am_devices_cooper_update_image + 510
        0x00019802:    4a7d        }J      LDR      r2,[pc,#500] ; [0x199f8] = 0x10003da4
        0x00019804:    6a91        .j      LDR      r1,[r2,#0x28]
        0x00019806:    6a50        Pj      LDR      r0,[r2,#0x24]
        0x00019808:    aa01        ..      ADD      r2,sp,#4
        0x0001980a:    f004faf9    ....    BL       iom_slave_read ; 0x1de00
        0x0001980e:    b990        ..      CBNZ     r0,0x19836 ; am_devices_cooper_update_image + 562
        0x00019810:    4879        yH      LDR      r0,[pc,#484] ; [0x199f8] = 0x10003da4
        0x00019812:    6a00        .j      LDR      r0,[r0,#0x20]
        0x00019814:    1c40        @.      ADDS     r0,r0,#1
        0x00019816:    4978        xI      LDR      r1,[pc,#480] ; [0x199f8] = 0x10003da4
        0x00019818:    6208        .b      STR      r0,[r1,#0x20]
        0x0001981a:    4608        .F      MOV      r0,r1
        0x0001981c:    6a00        .j      LDR      r0,[r0,#0x20]
        0x0001981e:    2803        .(      CMP      r0,#3
        0x00019820:    d902        ..      BLS      0x19828 ; am_devices_cooper_update_image + 548
        0x00019822:    f04f36a1    O..6    MOV      r6,#0xa1a1a1a1
        0x00019826:    e04c        L.      B        0x198c2 ; am_devices_cooper_update_image + 702
        0x00019828:    4a73        sJ      LDR      r2,[pc,#460] ; [0x199f8] = 0x10003da4
        0x0001982a:    6891        .h      LDR      r1,[r2,#8]
        0x0001982c:    6a50        Pj      LDR      r0,[r2,#0x24]
        0x0001982e:    f004fd25    ..%.    BL       send_update ; 0x1e27c
        0x00019832:    4e72        rN      LDR      r6,[pc,#456] ; [0x199fc] = 0xa78bd32c
        0x00019834:    e045        E.      B        0x198c2 ; am_devices_cooper_update_image + 702
        0x00019836:    4870        pH      LDR      r0,[pc,#448] ; [0x199f8] = 0x10003da4
        0x00019838:    6a00        .j      LDR      r0,[r0,#0x20]
        0x0001983a:    b110        ..      CBZ      r0,0x19842 ; am_devices_cooper_update_image + 574
        0x0001983c:    2000        .       MOVS     r0,#0
        0x0001983e:    496e        nI      LDR      r1,[pc,#440] ; [0x199f8] = 0x10003da4
        0x00019840:    6208        .b      STR      r0,[r1,#0x20]
        0x00019842:    486d        mH      LDR      r0,[pc,#436] ; [0x199f8] = 0x10003da4
        0x00019844:    6a85        .j      LDR      r5,[r0,#0x28]
        0x00019846:    88a8        ..      LDRH     r0,[r5,#4]
        0x00019848:    2807        .(      CMP      r0,#7
        0x0001984a:    d113        ..      BNE      0x19874 ; am_devices_cooper_update_image + 624
        0x0001984c:    486a        jH      LDR      r0,[pc,#424] ; [0x199f8] = 0x10003da4
        0x0001984e:    6840        @h      LDR      r0,[r0,#4]
        0x00019850:    b180        ..      CBZ      r0,0x19874 ; am_devices_cooper_update_image + 624
        0x00019852:    4969        iI      LDR      r1,[pc,#420] ; [0x199f8] = 0x10003da4
        0x00019854:    68e8        .h      LDR      r0,[r5,#0xc]
        0x00019856:    6308        .c      STR      r0,[r1,#0x30]
        0x00019858:    2003        .       MOVS     r0,#3
        0x0001985a:    6008        .`      STR      r0,[r1,#0]
        0x0001985c:    460a        .F      MOV      r2,r1
        0x0001985e:    6953        Si      LDR      r3,[r2,#0x14]
        0x00019860:    6851        Qh      LDR      r1,[r2,#4]
        0x00019862:    6a50        Pj      LDR      r0,[r2,#0x24]
        0x00019864:    2240        @"      MOVS     r2,#0x40
        0x00019866:    f004fcb1    ....    BL       send_data ; 0x1e1cc
        0x0001986a:    a0bc        ..      ADR      r0,{pc}+0x2f2 ; 0x19b5c
        0x0001986c:    f003fbf2    ....    BL       am_util_stdio_printf ; 0x1d054
        0x00019870:    4e62        bN      LDR      r6,[pc,#392] ; [0x199fc] = 0xa78bd32c
        0x00019872:    e026        &.      B        0x198c2 ; am_devices_cooper_update_image + 702
        0x00019874:    88a8        ..      LDRH     r0,[r5,#4]
        0x00019876:    2805        .(      CMP      r0,#5
        0x00019878:    d11e        ..      BNE      0x198b8 ; am_devices_cooper_update_image + 692
        0x0001987a:    68e8        .h      LDR      r0,[r5,#0xc]
        0x0001987c:    2809        .(      CMP      r0,#9
        0x0001987e:    d11b        ..      BNE      0x198b8 ; am_devices_cooper_update_image + 692
        0x00019880:    a0c2        ..      ADR      r0,{pc}+0x30c ; 0x19b8c
        0x00019882:    f003fbe7    ....    BL       am_util_stdio_printf ; 0x1d054
        0x00019886:    f44f6096    O..`    MOV      r0,#0x4b0
        0x0001988a:    f003fb73    ..s.    BL       am_util_delay_ms ; 0x1cf74
        0x0001988e:    f7fffdbf    ....    BL       am_devices_cooper_reset ; 0x19410
        0x00019892:    2000        .       MOVS     r0,#0
        0x00019894:    4958        XI      LDR      r1,[pc,#352] ; [0x199f8] = 0x10003da4
        0x00019896:    6048        H`      STR      r0,[r1,#4]
        0x00019898:    6088        .`      STR      r0,[r1,#8]
        0x0001989a:    2003        .       MOVS     r0,#3
        0x0001989c:    61c8        .a      STR      r0,[r1,#0x1c]
        0x0001989e:    2000        .       MOVS     r0,#0
        0x000198a0:    6108        .a      STR      r0,[r1,#0x10]
        0x000198a2:    60c8        .`      STR      r0,[r1,#0xc]
        0x000198a4:    6188        .a      STR      r0,[r1,#0x18]
        0x000198a6:    6148        Ha      STR      r0,[r1,#0x14]
        0x000198a8:    6a48        Hj      LDR      r0,[r1,#0x24]
        0x000198aa:    f004fccf    ....    BL       send_hello ; 0x1e24c
        0x000198ae:    2001        .       MOVS     r0,#1
        0x000198b0:    4951        QI      LDR      r1,[pc,#324] ; [0x199f8] = 0x10003da4
        0x000198b2:    6008        .`      STR      r0,[r1,#0]
        0x000198b4:    4e51        QN      LDR      r6,[pc,#324] ; [0x199fc] = 0xa78bd32c
        0x000198b6:    e004        ..      B        0x198c2 ; am_devices_cooper_update_image + 702
        0x000198b8:    a0c4        ..      ADR      r0,{pc}+0x314 ; 0x19bcc
        0x000198ba:    f003fbcb    ....    BL       am_util_stdio_printf ; 0x1d054
        0x000198be:    f04f36a1    O..6    MOV      r6,#0xa1a1a1a1
        0x000198c2:    e1d3        ..      B        0x19c6c ; am_devices_cooper_update_image + 1640
        0x000198c4:    4a4c        LJ      LDR      r2,[pc,#304] ; [0x199f8] = 0x10003da4
        0x000198c6:    6a91        .j      LDR      r1,[r2,#0x28]
        0x000198c8:    6a50        Pj      LDR      r0,[r2,#0x24]
        0x000198ca:    aa01        ..      ADD      r2,sp,#4
        0x000198cc:    f004fa98    ....    BL       iom_slave_read ; 0x1de00
        0x000198d0:    bba0        ..      CBNZ     r0,0x1993c ; am_devices_cooper_update_image + 824
        0x000198d2:    4849        IH      LDR      r0,[pc,#292] ; [0x199f8] = 0x10003da4
        0x000198d4:    6a00        .j      LDR      r0,[r0,#0x20]
        0x000198d6:    1c40        @.      ADDS     r0,r0,#1
        0x000198d8:    4947        GI      LDR      r1,[pc,#284] ; [0x199f8] = 0x10003da4
        0x000198da:    6208        .b      STR      r0,[r1,#0x20]
        0x000198dc:    4608        .F      MOV      r0,r1
        0x000198de:    6a00        .j      LDR      r0,[r0,#0x20]
        0x000198e0:    2803        .(      CMP      r0,#3
        0x000198e2:    d902        ..      BLS      0x198ea ; am_devices_cooper_update_image + 742
        0x000198e4:    f04f36a1    O..6    MOV      r6,#0xa1a1a1a1
        0x000198e8:    e192        ..      B        0x19c10 ; am_devices_cooper_update_image + 1548
        0x000198ea:    4843        CH      LDR      r0,[pc,#268] ; [0x199f8] = 0x10003da4
        0x000198ec:    6940        @i      LDR      r0,[r0,#0x14]
        0x000198ee:    b938        8.      CBNZ     r0,0x19900 ; am_devices_cooper_update_image + 764
        0x000198f0:    4a41        AJ      LDR      r2,[pc,#260] ; [0x199f8] = 0x10003da4
        0x000198f2:    6953        Si      LDR      r3,[r2,#0x14]
        0x000198f4:    6851        Qh      LDR      r1,[r2,#4]
        0x000198f6:    6a50        Pj      LDR      r0,[r2,#0x24]
        0x000198f8:    2240        @"      MOVS     r2,#0x40
        0x000198fa:    f004fc67    ..g.    BL       send_data ; 0x1e1cc
        0x000198fe:    e01b        ..      B        0x19938 ; am_devices_cooper_update_image + 820
        0x00019900:    483d        =H      LDR      r0,[pc,#244] ; [0x199f8] = 0x10003da4
        0x00019902:    6980        .i      LDR      r0,[r0,#0x18]
        0x00019904:    1c40        @.      ADDS     r0,r0,#1
        0x00019906:    2801        .(      CMP      r0,#1
        0x00019908:    d107        ..      BNE      0x1991a ; am_devices_cooper_update_image + 790
        0x0001990a:    483b        ;H      LDR      r0,[pc,#236] ; [0x199f8] = 0x10003da4
        0x0001990c:    8a00        ..      LDRH     r0,[r0,#0x10]
        0x0001990e:    f3c00708    ....    UBFX     r7,r0,#0,#9
        0x00019912:    b927        '.      CBNZ     r7,0x1991e ; am_devices_cooper_update_image + 794
        0x00019914:    f44f7700    O..w    MOV      r7,#0x200
        0x00019918:    e001        ..      B        0x1991e ; am_devices_cooper_update_image + 794
        0x0001991a:    f44f7700    O..w    MOV      r7,#0x200
        0x0001991e:    4a36        6J      LDR      r2,[pc,#216] ; [0x199f8] = 0x10003da4
        0x00019920:    f8d2c00c    ....    LDR      r12,[r2,#0xc]
        0x00019924:    6952        Ri      LDR      r2,[r2,#0x14]
        0x00019926:    1e52        R.      SUBS     r2,r2,#1
        0x00019928:    eb0c2142    ..B!    ADD      r1,r12,r2,LSL #9
        0x0001992c:    4a32        2J      LDR      r2,[pc,#200] ; [0x199f8] = 0x10003da4
        0x0001992e:    6953        Si      LDR      r3,[r2,#0x14]
        0x00019930:    6a50        Pj      LDR      r0,[r2,#0x24]
        0x00019932:    463a        :F      MOV      r2,r7
        0x00019934:    f004fc4a    ..J.    BL       send_data ; 0x1e1cc
        0x00019938:    4e30        0N      LDR      r6,[pc,#192] ; [0x199fc] = 0xa78bd32c
        0x0001993a:    e169        i.      B        0x19c10 ; am_devices_cooper_update_image + 1548
        0x0001993c:    e7ff        ..      B        0x1993e ; am_devices_cooper_update_image + 826
        0x0001993e:    482e        .H      LDR      r0,[pc,#184] ; [0x199f8] = 0x10003da4
        0x00019940:    6a00        .j      LDR      r0,[r0,#0x20]
        0x00019942:    b110        ..      CBZ      r0,0x1994a ; am_devices_cooper_update_image + 838
        0x00019944:    2000        .       MOVS     r0,#0
        0x00019946:    492c        ,I      LDR      r1,[pc,#176] ; [0x199f8] = 0x10003da4
        0x00019948:    6208        .b      STR      r0,[r1,#0x20]
        0x0001994a:    482b        +H      LDR      r0,[pc,#172] ; [0x199f8] = 0x10003da4
        0x0001994c:    6a85        .j      LDR      r5,[r0,#0x28]
        0x0001994e:    492a        *I      LDR      r1,[pc,#168] ; [0x199f8] = 0x10003da4
        0x00019950:    68e8        .h      LDR      r0,[r5,#0xc]
        0x00019952:    6308        .c      STR      r0,[r1,#0x30]
        0x00019954:    68a8        .h      LDR      r0,[r5,#8]
        0x00019956:    2808        .(      CMP      r0,#8
        0x00019958:    d002        ..      BEQ      0x19960 ; am_devices_cooper_update_image + 860
        0x0001995a:    68a8        .h      LDR      r0,[r5,#8]
        0x0001995c:    2802        .(      CMP      r0,#2
        0x0001995e:    d148        H.      BNE      0x199f2 ; am_devices_cooper_update_image + 1006
        0x00019960:    68e8        .h      LDR      r0,[r5,#0xc]
        0x00019962:    b110        ..      CBZ      r0,0x1996a ; am_devices_cooper_update_image + 870
        0x00019964:    68e8        .h      LDR      r0,[r5,#0xc]
        0x00019966:    280b        .(      CMP      r0,#0xb
        0x00019968:    d144        D.      BNE      0x199f4 ; am_devices_cooper_update_image + 1008
        0x0001996a:    4823        #H      LDR      r0,[pc,#140] ; [0x199f8] = 0x10003da4
        0x0001996c:    6980        .i      LDR      r0,[r0,#0x18]
        0x0001996e:    b330        0.      CBZ      r0,0x199be ; am_devices_cooper_update_image + 954
        0x00019970:    4821        !H      LDR      r0,[pc,#132] ; [0x199f8] = 0x10003da4
        0x00019972:    6980        .i      LDR      r0,[r0,#0x18]
        0x00019974:    2801        .(      CMP      r0,#1
        0x00019976:    d107        ..      BNE      0x19988 ; am_devices_cooper_update_image + 900
        0x00019978:    481f        .H      LDR      r0,[pc,#124] ; [0x199f8] = 0x10003da4
        0x0001997a:    8a00        ..      LDRH     r0,[r0,#0x10]
        0x0001997c:    f3c00708    ....    UBFX     r7,r0,#0,#9
        0x00019980:    b927        '.      CBNZ     r7,0x1998c ; am_devices_cooper_update_image + 904
        0x00019982:    f44f7700    O..w    MOV      r7,#0x200
        0x00019986:    e001        ..      B        0x1998c ; am_devices_cooper_update_image + 904
        0x00019988:    f44f7700    O..w    MOV      r7,#0x200
        0x0001998c:    4a1a        .J      LDR      r2,[pc,#104] ; [0x199f8] = 0x10003da4
        0x0001998e:    f8d2c00c    ....    LDR      r12,[r2,#0xc]
        0x00019992:    6952        Ri      LDR      r2,[r2,#0x14]
        0x00019994:    eb0c2142    ..B!    ADD      r1,r12,r2,LSL #9
        0x00019998:    4a17        .J      LDR      r2,[pc,#92] ; [0x199f8] = 0x10003da4
        0x0001999a:    6952        Ri      LDR      r2,[r2,#0x14]
        0x0001999c:    1c53        S.      ADDS     r3,r2,#1
        0x0001999e:    4a16        .J      LDR      r2,[pc,#88] ; [0x199f8] = 0x10003da4
        0x000199a0:    6a50        Pj      LDR      r0,[r2,#0x24]
        0x000199a2:    463a        :F      MOV      r2,r7
        0x000199a4:    f004fc12    ....    BL       send_data ; 0x1e1cc
        0x000199a8:    4813        .H      LDR      r0,[pc,#76] ; [0x199f8] = 0x10003da4
        0x000199aa:    6980        .i      LDR      r0,[r0,#0x18]
        0x000199ac:    1e40        @.      SUBS     r0,r0,#1
        0x000199ae:    4912        .I      LDR      r1,[pc,#72] ; [0x199f8] = 0x10003da4
        0x000199b0:    6188        .a      STR      r0,[r1,#0x18]
        0x000199b2:    4608        .F      MOV      r0,r1
        0x000199b4:    6940        @i      LDR      r0,[r0,#0x14]
        0x000199b6:    1c40        @.      ADDS     r0,r0,#1
        0x000199b8:    6148        Ha      STR      r0,[r1,#0x14]
        0x000199ba:    4e10        .N      LDR      r6,[pc,#64] ; [0x199fc] = 0xa78bd32c
        0x000199bc:    e128        (.      B        0x19c10 ; am_devices_cooper_update_image + 1548
        0x000199be:    68e8        .h      LDR      r0,[r5,#0xc]
        0x000199c0:    b980        ..      CBNZ     r0,0x199e4 ; am_devices_cooper_update_image + 992
        0x000199c2:    480d        .H      LDR      r0,[pc,#52] ; [0x199f8] = 0x10003da4
        0x000199c4:    69c0        .i      LDR      r0,[r0,#0x1c]
        0x000199c6:    b950        P.      CBNZ     r0,0x199de ; am_devices_cooper_update_image + 986
        0x000199c8:    2004        .       MOVS     r0,#4
        0x000199ca:    490b        .I      LDR      r1,[pc,#44] ; [0x199f8] = 0x10003da4
        0x000199cc:    6008        .`      STR      r0,[r1,#0]
        0x000199ce:    482a        *H      LDR      r0,[pc,#168] ; [0x19a78] = 0x10003de4
        0x000199d0:    68c0        .h      LDR      r0,[r0,#0xc]
        0x000199d2:    62c8        .b      STR      r0,[r1,#0x2c]
        0x000199d4:    4e09        .N      LDR      r6,[pc,#36] ; [0x199fc] = 0xa78bd32c
        0x000199d6:    6a48        Hj      LDR      r0,[r1,#0x24]
        0x000199d8:    f004fc20    .. .    BL       send_fwContinue ; 0x1e21c
        0x000199dc:    e118        ..      B        0x19c10 ; am_devices_cooper_update_image + 1548
        0x000199de:    f04f36a5    O..6    MOV      r6,#0xa5a5a5a5
        0x000199e2:    e115        ..      B        0x19c10 ; am_devices_cooper_update_image + 1548
        0x000199e4:    a07e        ~.      ADR      r0,{pc}+0x1fc ; 0x19be0
        0x000199e6:    68e9        .h      LDR      r1,[r5,#0xc]
        0x000199e8:    f003fb34    ..4.    BL       am_util_stdio_printf ; 0x1d054
        0x000199ec:    f04f36a1    O..6    MOV      r6,#0xa1a1a1a1
        0x000199f0:    e10e        ..      B        0x19c10 ; am_devices_cooper_update_image + 1548
        0x000199f2:    e10b        ..      B        0x19c0c ; am_devices_cooper_update_image + 1544
        0x000199f4:    e102        ..      B        0x19bfc ; am_devices_cooper_update_image + 1528
    $d
        0x000199f6:    0000        ..      DCW    0
        0x000199f8:    10003da4    .=..    DCD    268451236
        0x000199fc:    a78bd32c    ,...    DCD    2810958636
        0x00019a00:    20454c42    BLE     DCD    541412418
        0x00019a04:    746e6f43    Cont    DCD    1953394499
        0x00019a08:    6c6c6f72    roll    DCD    1819045746
        0x00019a0c:    49207265    er I    DCD    1226863205
        0x00019a10:    3a6f666e    nfo:    DCD    980379246
        0x00019a14:    0000000a    ....    DCD    10
        0x00019a18:    20574609    .FW     DCD    542590473
        0x00019a1c:    3a726556    Ver:    DCD    980575574
        0x00019a20:    20202020            DCD    538976288
        0x00019a24:    64252020      %d    DCD    1680154656
        0x00019a28:    0a64252e    .%d.    DCD    174335278
        0x00019a2c:    00000000    ....    DCD    0
        0x00019a30:    20574609    .FW     DCD    542590473
        0x00019a34:    3a726556    Ver:    DCD    980575574
        0x00019a38:    20202020            DCD    538976288
        0x00019a3c:    64252020      %d    DCD    1680154656
        0x00019a40:    2e64252e    .%d.    DCD    778315054
        0x00019a44:    252e6425    %d.%    DCD    623797285
        0x00019a48:    00000a64    d...    DCD    2660
        0x00019a4c:    69684309    .Chi    DCD    1768440585
        0x00019a50:    44492070    p ID    DCD    1145643120
        0x00019a54:    20203a30    0:      DCD    538982960
        0x00019a58:    78302020      0x    DCD    2016419872
        0x00019a5c:    000a7825    %x..    DCD    686117
        0x00019a60:    69684309    .Chi    DCD    1768440585
        0x00019a64:    44492070    p ID    DCD    1145643120
        0x00019a68:    20203a31    1:      DCD    538982961
        0x00019a6c:    78302020      0x    DCD    2016419872
        0x00019a70:    0a0a7825    %x..    DCD    168458277
        0x00019a74:    00000000    ....    DCD    0
        0x00019a78:    10003de4    .=..    DCD    268451300
        0x00019a7c:    4598f231    1..E    DCD    1167651377
        0x00019a80:    0001f1d0    ....    DCD    127440
        0x00019a84:    0001f214    ....    DCD    127508
        0x00019a88:    6e206f4e    No n    DCD    1847619406
        0x00019a8c:    69207765    ew i    DCD    1763735397
        0x00019a90:    6567616d    mage    DCD    1701273965
        0x00019a94:    206f7420     to     DCD    544175136
        0x00019a98:    72677075    upgr    DCD    1919381621
        0x00019a9c:    0a656461    ade.    DCD    174416993
        0x00019aa0:    00000000    ....    DCD    0
        0x00019aa4:    20454c42    BLE     DCD    541412418
        0x00019aa8:    746e6f43    Cont    DCD    1953394499
        0x00019aac:    6c6c6f72    roll    DCD    1819045746
        0x00019ab0:    46207265    er F    DCD    1176531557
        0x00019ab4:    75412057    W Au    DCD    1967202391
        0x00019ab8:    50206874    th P    DCD    1344301172
        0x00019abc:    65737361    asse    DCD    1702064993
        0x00019ac0:    43202c64    d, C    DCD    1126181988
        0x00019ac4:    69746e6f    onti    DCD    1769238127
        0x00019ac8:    2065756e    nue     DCD    543520110
        0x00019acc:    68746977    with    DCD    1752459639
        0x00019ad0:    0a574620     FW.    DCD    173491744
        0x00019ad4:    00000000    ....    DCD    0
        0x00019ad8:    20454c42    BLE     DCD    541412418
        0x00019adc:    746e6f43    Cont    DCD    1953394499
        0x00019ae0:    6c6c6f72    roll    DCD    1819045746
        0x00019ae4:    52207265    er R    DCD    1377858149
        0x00019ae8:    69757165    equi    DCD    1769304421
        0x00019aec:    20736572    res     DCD    544433522
        0x00019af0:    000a5746    FW..    DCD    677702
        0x00019af4:    20454c42    BLE     DCD    541412418
        0x00019af8:    746e6f43    Cont    DCD    1953394499
        0x00019afc:    6c6c6f72    roll    DCD    1819045746
        0x00019b00:    52207265    er R    DCD    1377858149
        0x00019b04:    69757165    equi    DCD    1769304421
        0x00019b08:    20736572    res     DCD    544433522
        0x00019b0c:    4f464e49    INFO    DCD    1330007625
        0x00019b10:    000a3020     0..    DCD    667680
        0x00019b14:    8730da5b    [.0.    DCD    2268125787
        0x00019b18:    20454c42    BLE     DCD    541412418
        0x00019b1c:    746e6f43    Cont    DCD    1953394499
        0x00019b20:    6c6c6f72    roll    DCD    1819045746
        0x00019b24:    52207265    er R    DCD    1377858149
        0x00019b28:    69757165    equi    DCD    1769304421
        0x00019b2c:    20736572    res     DCD    544433522
        0x00019b30:    4f464e49    INFO    DCD    1330007625
        0x00019b34:    000a3120     1..    DCD    667936
        0x00019b38:    09fa3725    %7..    DCD    167393061
        0x00019b3c:    20454c42    BLE     DCD    541412418
        0x00019b40:    746e6f43    Cont    DCD    1953394499
        0x00019b44:    6c6c6f72    roll    DCD    1819045746
        0x00019b48:    57207265    er W    DCD    1461744229
        0x00019b4c:    676e6f72    rong    DCD    1735290738
        0x00019b50:    73655220     Res    DCD    1936020000
        0x00019b54:    736e6f70    pons    DCD    1936617328
        0x00019b58:    00000a65    e...    DCD    2661
        0x00019b5c:    20454c42    BLE     DCD    541412418
        0x00019b60:    746e6f63    cont    DCD    1953394531
        0x00019b64:    6c6c6f72    roll    DCD    1819045746
        0x00019b68:    75207265    er u    DCD    1965060709
        0x00019b6c:    61726770    pgra    DCD    1634887536
        0x00019b70:    69206564    de i    DCD    1763730788
        0x00019b74:    7270206e    n pr    DCD    1919950958
        0x00019b78:    6572676f    ogre    DCD    1701996399
        0x00019b7c:    202c7373    ss,     DCD    539784051
        0x00019b80:    74696177    wait    DCD    1953063287
        0x00019b84:    0a2e2e2e    ....    DCD    170798638
        0x00019b88:    00000000    ....    DCD    0
        0x00019b8c:    61656c43    Clea    DCD    1634036803
        0x00019b90:    6f432072    r Co    DCD    1866670194
        0x00019b94:    7265706f    oper    DCD    1919250543
        0x00019b98:    67695320     Sig    DCD    1734955808
        0x00019b9c:    7574616e    natu    DCD    1970561390
        0x00019ba0:    202c6572    re,     DCD    539780466
        0x00019ba4:    65736572    rese    DCD    1702061426
        0x00019ba8:    6f432074    t Co    DCD    1866670196
        0x00019bac:    7265706f    oper    DCD    1919250543
        0x00019bb0:    646e6120     and    DCD    1684955424
        0x00019bb4:    6c617420     tal    DCD    1818326048
        0x00019bb8:    6977206b    k wi    DCD    1769414763
        0x00019bbc:    53206874    th S    DCD    1394632820
        0x00019bc0:    61204c42    BL a    DCD    1629506626
        0x00019bc4:    6e696167    gain    DCD    1852399975
        0x00019bc8:    0000000a    ....    DCD    10
        0x00019bcc:    61647055    Upda    DCD    1633972309
        0x00019bd0:    46206574    te F    DCD    1176528244
        0x00019bd4:    656c6961    aile    DCD    1701603681
        0x00019bd8:    21212064    d !!    DCD    555819108
        0x00019bdc:    00000a21    !...    DCD    2593
        0x00019be0:    61647055    Upda    DCD    1633972309
        0x00019be4:    66206574    te f    DCD    1713399156
        0x00019be8:    736c6961    ails    DCD    1936484705
        0x00019bec:    61747320     sta    DCD    1635021600
        0x00019bf0:    20737574    tus     DCD    544437620
        0x00019bf4:    7830203d    = 0x    DCD    2016419901
        0x00019bf8:    000a7825    %x..    DCD    686117
    $t
        0x00019bfc:    f2af0020    .. .    ADR      r0,{pc}-0x1c ; 0x19be0
        0x00019c00:    68e9        .h      LDR      r1,[r5,#0xc]
        0x00019c02:    f003fa27    ..'.    BL       am_util_stdio_printf ; 0x1d054
        0x00019c06:    f04f36a1    O..6    MOV      r6,#0xa1a1a1a1
        0x00019c0a:    e001        ..      B        0x19c10 ; am_devices_cooper_update_image + 1548
        0x00019c0c:    f04f36a1    O..6    MOV      r6,#0xa1a1a1a1
        0x00019c10:    e02c        ,.      B        0x19c6c ; am_devices_cooper_update_image + 1640
        0x00019c12:    4a18        .J      LDR      r2,[pc,#96] ; [0x19c74] = 0x10003da4
        0x00019c14:    6a91        .j      LDR      r1,[r2,#0x28]
        0x00019c16:    6a50        Pj      LDR      r0,[r2,#0x24]
        0x00019c18:    aa01        ..      ADD      r2,sp,#4
        0x00019c1a:    f004f8f1    ....    BL       iom_slave_read ; 0x1de00
        0x00019c1e:    b988        ..      CBNZ     r0,0x19c44 ; am_devices_cooper_update_image + 1600
        0x00019c20:    4814        .H      LDR      r0,[pc,#80] ; [0x19c74] = 0x10003da4
        0x00019c22:    6a00        .j      LDR      r0,[r0,#0x20]
        0x00019c24:    1c40        @.      ADDS     r0,r0,#1
        0x00019c26:    4913        .I      LDR      r1,[pc,#76] ; [0x19c74] = 0x10003da4
        0x00019c28:    6208        .b      STR      r0,[r1,#0x20]
        0x00019c2a:    4608        .F      MOV      r0,r1
        0x00019c2c:    6a00        .j      LDR      r0,[r0,#0x20]
        0x00019c2e:    2803        .(      CMP      r0,#3
        0x00019c30:    d902        ..      BLS      0x19c38 ; am_devices_cooper_update_image + 1588
        0x00019c32:    f04f36a1    O..6    MOV      r6,#0xa1a1a1a1
        0x00019c36:    e00b        ..      B        0x19c50 ; am_devices_cooper_update_image + 1612
        0x00019c38:    490e        .I      LDR      r1,[pc,#56] ; [0x19c74] = 0x10003da4
        0x00019c3a:    6a48        Hj      LDR      r0,[r1,#0x24]
        0x00019c3c:    f004faee    ....    BL       send_fwContinue ; 0x1e21c
        0x00019c40:    4e0d        .N      LDR      r6,[pc,#52] ; [0x19c78] = 0xa78bd32c
        0x00019c42:    e005        ..      B        0x19c50 ; am_devices_cooper_update_image + 1612
        0x00019c44:    480b        .H      LDR      r0,[pc,#44] ; [0x19c74] = 0x10003da4
        0x00019c46:    6a00        .j      LDR      r0,[r0,#0x20]
        0x00019c48:    b110        ..      CBZ      r0,0x19c50 ; am_devices_cooper_update_image + 1612
        0x00019c4a:    2000        .       MOVS     r0,#0
        0x00019c4c:    4909        .I      LDR      r1,[pc,#36] ; [0x19c74] = 0x10003da4
        0x00019c4e:    6208        .b      STR      r0,[r1,#0x20]
        0x00019c50:    4808        .H      LDR      r0,[pc,#32] ; [0x19c74] = 0x10003da4
        0x00019c52:    6a85        .j      LDR      r5,[r0,#0x28]
        0x00019c54:    4907        .I      LDR      r1,[pc,#28] ; [0x19c74] = 0x10003da4
        0x00019c56:    68e8        .h      LDR      r0,[r5,#0xc]
        0x00019c58:    6308        .c      STR      r0,[r1,#0x30]
        0x00019c5a:    68e8        .h      LDR      r0,[r5,#0xc]
        0x00019c5c:    b910        ..      CBNZ     r0,0x19c64 ; am_devices_cooper_update_image + 1632
        0x00019c5e:    f04f36a5    O..6    MOV      r6,#0xa5a5a5a5
        0x00019c62:    e001        ..      B        0x19c68 ; am_devices_cooper_update_image + 1636
        0x00019c64:    f04f36a1    O..6    MOV      r6,#0xa1a1a1a1
        0x00019c68:    e000        ..      B        0x19c6c ; am_devices_cooper_update_image + 1640
        0x00019c6a:    bf00        ..      NOP      
        0x00019c6c:    bf00        ..      NOP      
        0x00019c6e:    4630        0F      MOV      r0,r6
        0x00019c70:    e8bd81fc    ....    POP      {r2-r8,pc}
    $d
        0x00019c74:    10003da4    .=..    DCD    268451236
        0x00019c78:    a78bd32c    ,...    DCD    2810958636
    $t
    i.am_gpio0_203f_isr
    am_gpio0_203f_isr
        0x00019c7c:    b508        ..      PUSH     {r3,lr}
        0x00019c7e:    466a        jF      MOV      r2,sp
        0x00019c80:    2100        .!      MOVS     r1,#0
        0x00019c82:    2039        9       MOVS     r0,#0x39
        0x00019c84:    f000fc8a    ....    BL       am_hal_gpio_interrupt_irq_status_get ; 0x1a59c
        0x00019c88:    2039        9       MOVS     r0,#0x39
        0x00019c8a:    9900        ..      LDR      r1,[sp,#0]
        0x00019c8c:    f000fc6e    ..n.    BL       am_hal_gpio_interrupt_irq_clear ; 0x1a56c
        0x00019c90:    2039        9       MOVS     r0,#0x39
        0x00019c92:    9900        ..      LDR      r1,[sp,#0]
        0x00019c94:    f000fcec    ....    BL       am_hal_gpio_interrupt_service ; 0x1a670
        0x00019c98:    bd08        ..      POP      {r3,pc}
    i.am_gpu_power_disable
    am_gpu_power_disable
        0x00019c9a:    4770        pG      BX       lr
    i.am_gpu_power_enable
    am_gpu_power_enable
        0x00019c9c:    4770        pG      BX       lr
        0x00019c9e:    0000        ..      MOVS     r0,r0
    i.am_hal_cmdq_disable
    am_hal_cmdq_disable
        0x00019ca0:    2800        .(      CMP      r0,#0
        0x00019ca2:    bf1c        ..      ITT      NE
        0x00019ca4:    6801        .h      LDRNE    r1,[r0,#0]
        0x00019ca6:    f0117f80    ....    TSTNE    r1,#0x1000000
        0x00019caa:    d004        ..      BEQ      0x19cb6 ; am_hal_cmdq_disable + 22
        0x00019cac:    4b0b        .K      LDR      r3,[pc,#44] ; [0x19cdc] = 0xcdcdcd
        0x00019cae:    f021427f    !..B    BIC      r2,r1,#0xff000000
        0x00019cb2:    429a        .B      CMP      r2,r3
        0x00019cb4:    d001        ..      BEQ      0x19cba ; am_hal_cmdq_disable + 26
        0x00019cb6:    2002        .       MOVS     r0,#2
        0x00019cb8:    4770        pG      BX       lr
        0x00019cba:    f0117f00    ....    TST      r1,#0x2000000
        0x00019cbe:    bf04        ..      ITT      EQ
        0x00019cc0:    2000        .       MOVEQ    r0,#0
        0x00019cc2:    4770        pG      BXEQ     lr
        0x00019cc4:    6a41        Aj      LDR      r1,[r0,#0x24]
        0x00019cc6:    6809        .h      LDR      r1,[r1,#0]
        0x00019cc8:    680a        .h      LDR      r2,[r1,#0]
        0x00019cca:    f0220201    "...    BIC      r2,r2,#1
        0x00019cce:    600a        .`      STR      r2,[r1,#0]
        0x00019cd0:    6801        .h      LDR      r1,[r0,#0]
        0x00019cd2:    f0217100    !..q    BIC      r1,r1,#0x2000000
        0x00019cd6:    6001        .`      STR      r1,[r0,#0]
        0x00019cd8:    2000        .       MOVS     r0,#0
        0x00019cda:    4770        pG      BX       lr
    $d
        0x00019cdc:    00cdcdcd    ....    DCD    13487565
    $t
    i.am_hal_cmdq_enable
    am_hal_cmdq_enable
        0x00019ce0:    b510        ..      PUSH     {r4,lr}
        0x00019ce2:    1e04        ..      SUBS     r4,r0,#0
        0x00019ce4:    bf1c        ..      ITT      NE
        0x00019ce6:    6820         h      LDRNE    r0,[r4,#0]
        0x00019ce8:    f0107f80    ....    TSTNE    r0,#0x1000000
        0x00019cec:    d004        ..      BEQ      0x19cf8 ; am_hal_cmdq_enable + 24
        0x00019cee:    4a10        .J      LDR      r2,[pc,#64] ; [0x19d30] = 0xcdcdcd
        0x00019cf0:    f020417f     ..A    BIC      r1,r0,#0xff000000
        0x00019cf4:    4291        .B      CMP      r1,r2
        0x00019cf6:    d001        ..      BEQ      0x19cfc ; am_hal_cmdq_enable + 28
        0x00019cf8:    2002        .       MOVS     r0,#2
        0x00019cfa:    bd10        ..      POP      {r4,pc}
        0x00019cfc:    f0107f00    ....    TST      r0,#0x2000000
        0x00019d00:    bf1c        ..      ITT      NE
        0x00019d02:    2000        .       MOVNE    r0,#0
        0x00019d04:    bd10        ..      POPNE    {r4,pc}
        0x00019d06:    490b        .I      LDR      r1,[pc,#44] ; [0x19d34] = 0x10060000
        0x00019d08:    68a0        .h      LDR      r0,[r4,#8]
        0x00019d0a:    4288        .B      CMP      r0,r1
        0x00019d0c:    d303        ..      BCC      0x19d16 ; am_hal_cmdq_enable + 54
        0x00019d0e:    2100        .!      MOVS     r1,#0
        0x00019d10:    2001        .       MOVS     r0,#1
        0x00019d12:    f000f9d7    ....    BL       am_hal_daxi_control ; 0x1a0c4
        0x00019d16:    6a60        `j      LDR      r0,[r4,#0x24]
        0x00019d18:    6800        .h      LDR      r0,[r0,#0]
        0x00019d1a:    6801        .h      LDR      r1,[r0,#0]
        0x00019d1c:    f0410101    A...    ORR      r1,r1,#1
        0x00019d20:    6001        .`      STR      r1,[r0,#0]
        0x00019d22:    6820         h      LDR      r0,[r4,#0]
        0x00019d24:    f0407000    @..p    ORR      r0,r0,#0x2000000
        0x00019d28:    6020         `      STR      r0,[r4,#0]
        0x00019d2a:    2000        .       MOVS     r0,#0
        0x00019d2c:    bd10        ..      POP      {r4,pc}
    $d
        0x00019d2e:    0000        ..      DCW    0
        0x00019d30:    00cdcdcd    ....    DCD    13487565
        0x00019d34:    10060000    ....    DCD    268828672
    $t
    i.am_hal_cmdq_error_resume
    am_hal_cmdq_error_resume
        0x00019d38:    2800        .(      CMP      r0,#0
        0x00019d3a:    bf1c        ..      ITT      NE
        0x00019d3c:    6801        .h      LDRNE    r1,[r0,#0]
        0x00019d3e:    f0117f80    ....    TSTNE    r1,#0x1000000
        0x00019d42:    d004        ..      BEQ      0x19d4e ; am_hal_cmdq_error_resume + 22
        0x00019d44:    4b18        .K      LDR      r3,[pc,#96] ; [0x19da8] = 0xcdcdcd
        0x00019d46:    f021427f    !..B    BIC      r2,r1,#0xff000000
        0x00019d4a:    429a        .B      CMP      r2,r3
        0x00019d4c:    d001        ..      BEQ      0x19d52 ; am_hal_cmdq_error_resume + 26
        0x00019d4e:    2002        .       MOVS     r0,#2
        0x00019d50:    4770        pG      BX       lr
        0x00019d52:    f0117f00    ....    TST      r1,#0x2000000
        0x00019d56:    bf04        ..      ITT      EQ
        0x00019d58:    2000        .       MOVEQ    r0,#0
        0x00019d5a:    4770        pG      BXEQ     lr
        0x00019d5c:    6a41        Aj      LDR      r1,[r0,#0x24]
        0x00019d5e:    6809        .h      LDR      r1,[r1,#0]
        0x00019d60:    680a        .h      LDR      r2,[r1,#0]
        0x00019d62:    f0220201    "...    BIC      r2,r2,#1
        0x00019d66:    600a        .`      STR      r2,[r1,#0]
        0x00019d68:    6a42        Bj      LDR      r2,[r0,#0x24]
        0x00019d6a:    6853        Sh      LDR      r3,[r2,#4]
        0x00019d6c:    6819        .h      LDR      r1,[r3,#0]
        0x00019d6e:    6892        .h      LDR      r2,[r2,#8]
        0x00019d70:    f8d1c000    ....    LDR      r12,[r1,#0]
        0x00019d74:    f02c0c01    ,...    BIC      r12,r12,#1
        0x00019d78:    4594        .E      CMP      r12,r2
        0x00019d7a:    d00b        ..      BEQ      0x19d94 ; am_hal_cmdq_error_resume + 92
        0x00019d7c:    f8d1c000    ....    LDR      r12,[r1,#0]
        0x00019d80:    459c        .E      CMP      r12,r3
        0x00019d82:    bf0c        ..      ITE      EQ
        0x00019d84:    6849        Ih      LDREQ    r1,[r1,#4]
        0x00019d86:    3108        .1      ADDNE    r1,r1,#8
        0x00019d88:    f8d1c000    ....    LDR      r12,[r1,#0]
        0x00019d8c:    f02c0c01    ,...    BIC      r12,r12,#1
        0x00019d90:    4594        .E      CMP      r12,r2
        0x00019d92:    d1f3        ..      BNE      0x19d7c ; am_hal_cmdq_error_resume + 68
        0x00019d94:    600a        .`      STR      r2,[r1,#0]
        0x00019d96:    6a42        Bj      LDR      r2,[r0,#0x24]
        0x00019d98:    6852        Rh      LDR      r2,[r2,#4]
        0x00019d9a:    6011        .`      STR      r1,[r2,#0]
        0x00019d9c:    6801        .h      LDR      r1,[r0,#0]
        0x00019d9e:    f0217100    !..q    BIC      r1,r1,#0x2000000
        0x00019da2:    6001        .`      STR      r1,[r0,#0]
        0x00019da4:    2000        .       MOVS     r0,#0
        0x00019da6:    4770        pG      BX       lr
    $d
        0x00019da8:    00cdcdcd    ....    DCD    13487565
    $t
    i.am_hal_cmdq_get_status
    am_hal_cmdq_get_status
        0x00019dac:    b538        8.      PUSH     {r3-r5,lr}
        0x00019dae:    460d        .F      MOV      r5,r1
        0x00019db0:    1e04        ..      SUBS     r4,r0,#0
        0x00019db2:    bf1c        ..      ITT      NE
        0x00019db4:    6820         h      LDRNE    r0,[r4,#0]
        0x00019db6:    f0107f80    ....    TSTNE    r0,#0x1000000
        0x00019dba:    d004        ..      BEQ      0x19dc6 ; am_hal_cmdq_get_status + 26
        0x00019dbc:    4923        #I      LDR      r1,[pc,#140] ; [0x19e4c] = 0xcdcdcd
        0x00019dbe:    f020407f     ..@    BIC      r0,r0,#0xff000000
        0x00019dc2:    4288        .B      CMP      r0,r1
        0x00019dc4:    d001        ..      BEQ      0x19dca ; am_hal_cmdq_get_status + 30
        0x00019dc6:    2002        .       MOVS     r0,#2
        0x00019dc8:    bd38        8.      POP      {r3-r5,pc}
        0x00019dca:    2d00        .-      CMP      r5,#0
        0x00019dcc:    bf04        ..      ITT      EQ
        0x00019dce:    2006        .       MOVEQ    r0,#6
        0x00019dd0:    bd38        8.      POPEQ    {r3-r5,pc}
        0x00019dd2:    f7fefac7    ....    BL       am_hal_interrupt_master_disable ; 0x18364
        0x00019dd6:    9000        ..      STR      r0,[sp,#0]
        0x00019dd8:    6a60        `j      LDR      r0,[r4,#0x24]
        0x00019dda:    6880        .h      LDR      r0,[r0,#8]
        0x00019ddc:    6800        .h      LDR      r0,[r0,#0]
        0x00019dde:    6a21        !j      LDR      r1,[r4,#0x20]
        0x00019de0:    b2c0        ..      UXTB     r0,r0
        0x00019de2:    f02101ff    !...    BIC      r1,r1,#0xff
        0x00019de6:    4308        .C      ORRS     r0,r0,r1
        0x00019de8:    61e0        .a      STR      r0,[r4,#0x1c]
        0x00019dea:    6a21        !j      LDR      r1,[r4,#0x20]
        0x00019dec:    1a09        ..      SUBS     r1,r1,r0
        0x00019dee:    bf44        D.      ITT      MI
        0x00019df0:    f5a07080    ...p    SUBMI    r0,r0,#0x100
        0x00019df4:    61e0        .a      STRMI    r0,[r4,#0x1c]
        0x00019df6:    6a60        `j      LDR      r0,[r4,#0x24]
        0x00019df8:    6840        @h      LDR      r0,[r0,#4]
        0x00019dfa:    6800        .h      LDR      r0,[r0,#0]
        0x00019dfc:    60e0        .`      STR      r0,[r4,#0xc]
        0x00019dfe:    9800        ..      LDR      r0,[sp,#0]
        0x00019e00:    f7fefab4    ....    BL       am_hal_interrupt_master_set ; 0x1836c
        0x00019e04:    69e0        .i      LDR      r0,[r4,#0x1c]
        0x00019e06:    6028        (`      STR      r0,[r5,#0]
        0x00019e08:    6a20         j      LDR      r0,[r4,#0x20]
        0x00019e0a:    60a8        .`      STR      r0,[r5,#8]
        0x00019e0c:    e9d40104    ....    LDRD     r0,r1,[r4,#0x10]
        0x00019e10:    4281        .B      CMP      r1,r0
        0x00019e12:    bf14        ..      ITE      NE
        0x00019e14:    2001        .       MOVNE    r0,#1
        0x00019e16:    2000        .       MOVEQ    r0,#0
        0x00019e18:    6a21        !j      LDR      r1,[r4,#0x20]
        0x00019e1a:    1a08        ..      SUBS     r0,r1,r0
        0x00019e1c:    6068        h`      STR      r0,[r5,#4]
        0x00019e1e:    6a61        aj      LDR      r1,[r4,#0x24]
        0x00019e20:    6988        .i      LDR      r0,[r1,#0x18]
        0x00019e22:    6800        .h      LDR      r0,[r0,#0]
        0x00019e24:    69c9        .i      LDR      r1,[r1,#0x1c]
        0x00019e26:    4001        .@      ANDS     r1,r1,r0
        0x00019e28:    bf18        ..      IT       NE
        0x00019e2a:    2101        .!      MOVNE    r1,#1
        0x00019e2c:    7329        )s      STRB     r1,[r5,#0xc]
        0x00019e2e:    6a61        aj      LDR      r1,[r4,#0x24]
        0x00019e30:    6a49        Ij      LDR      r1,[r1,#0x24]
        0x00019e32:    4001        .@      ANDS     r1,r1,r0
        0x00019e34:    bf18        ..      IT       NE
        0x00019e36:    2101        .!      MOVNE    r1,#1
        0x00019e38:    7369        is      STRB     r1,[r5,#0xd]
        0x00019e3a:    6a61        aj      LDR      r1,[r4,#0x24]
        0x00019e3c:    6a09        .j      LDR      r1,[r1,#0x20]
        0x00019e3e:    4008        .@      ANDS     r0,r0,r1
        0x00019e40:    bf18        ..      IT       NE
        0x00019e42:    2001        .       MOVNE    r0,#1
        0x00019e44:    73a8        .s      STRB     r0,[r5,#0xe]
        0x00019e46:    2000        .       MOVS     r0,#0
        0x00019e48:    bd38        8.      POP      {r3-r5,pc}
    $d
        0x00019e4a:    0000        ..      DCW    0
        0x00019e4c:    00cdcdcd    ....    DCD    13487565
    $t
    i.am_hal_cmdq_init
    am_hal_cmdq_init
        0x00019e50:    280b        .(      CMP      r0,#0xb
        0x00019e52:    bf24        $.      ITT      CS
        0x00019e54:    2005        .       MOVCS    r0,#5
        0x00019e56:    4770        pG      BXCS     lr
        0x00019e58:    2900        .)      CMP      r1,#0
        0x00019e5a:    bf1e        ..      ITTT     NE
        0x00019e5c:    684b        Kh      LDRNE    r3,[r1,#4]
        0x00019e5e:    2b00        .+      CMPNE    r3,#0
        0x00019e60:    2a00        .*      CMPNE    r2,#0
        0x00019e62:    d004        ..      BEQ      0x19e6e ; am_hal_cmdq_init + 30
        0x00019e64:    f8d1c000    ....    LDR      r12,[r1,#0]
        0x00019e68:    f1bc0f02    ....    CMP      r12,#2
        0x00019e6c:    d201        ..      BCS      0x19e72 ; am_hal_cmdq_init + 34
        0x00019e6e:    2006        .       MOVS     r0,#6
        0x00019e70:    4770        pG      BX       lr
        0x00019e72:    b430        0.      PUSH     {r4,r5}
        0x00019e74:    eb000340    ..@.    ADD      r3,r0,r0,LSL #1
        0x00019e78:    4c2e        .L      LDR      r4,[pc,#184] ; [0x19f34] = 0x10008e20
        0x00019e7a:    eb0303c0    ....    ADD      r3,r3,r0,LSL #3
        0x00019e7e:    f8545023    T.#P    LDR      r5,[r4,r3,LSL #2]
        0x00019e82:    f0157f80    ....    TST      r5,#0x1000000
        0x00019e86:    bf1e        ..      ITTT     NE
        0x00019e88:    2007        .       MOVNE    r0,#7
        0x00019e8a:    bc30        0.      POPNE    {r4,r5}
        0x00019e8c:    4770        pG      BXNE     lr
        0x00019e8e:    eb040383    ....    ADD      r3,r4,r3,LSL #2
        0x00019e92:    ea4f0ccc    O...    LSL      r12,r12,#3
        0x00019e96:    f8c3c018    ....    STR      r12,[r3,#0x18]
        0x00019e9a:    f8d1c004    ....    LDR      r12,[r1,#4]
        0x00019e9e:    f8c3c004    ....    STR      r12,[r3,#4]
        0x00019ea2:    f8c3c00c    ....    STR      r12,[r3,#0xc]
        0x00019ea6:    f8c3c014    ....    STR      r12,[r3,#0x14]
        0x00019eaa:    f8c3c010    ....    STR      r12,[r3,#0x10]
        0x00019eae:    e9d14c00    ...L    LDRD     r4,r12,[r1,#0]
        0x00019eb2:    eb0c0cc4    ....    ADD      r12,r12,r4,LSL #3
        0x00019eb6:    f8c3c008    ....    STR      r12,[r3,#8]
        0x00019eba:    f8d3c000    ....    LDR      r12,[r3,#0]
        0x00019ebe:    4c1e        .L      LDR      r4,[pc,#120] ; [0x19f38] = 0xcdcdcd
        0x00019ec0:    f02c7c00    ,..|    BIC      r12,r12,#0x2000000
        0x00019ec4:    f04c7c80    L..|    ORR      r12,r12,#0x1000000
        0x00019ec8:    f3640c17    d...    BFI      r12,r4,#0,#24
        0x00019ecc:    f8c3c000    ....    STR      r12,[r3,#0]
        0x00019ed0:    f8dfc068    ..h.    LDR      r12,[pc,#104] ; [0x19f3c] = 0x1f018
        0x00019ed4:    eb000080    ....    ADD      r0,r0,r0,LSL #2
        0x00019ed8:    eb0c00c0    ....    ADD      r0,r12,r0,LSL #3
        0x00019edc:    6258        Xb      STR      r0,[r3,#0x24]
        0x00019ede:    2000        .       MOVS     r0,#0
        0x00019ee0:    61d8        .a      STR      r0,[r3,#0x1c]
        0x00019ee2:    6218        .b      STR      r0,[r3,#0x20]
        0x00019ee4:    f8d3c024    ..$.    LDR      r12,[r3,#0x24]
        0x00019ee8:    f8dcc008    ....    LDR      r12,[r12,#8]
        0x00019eec:    f8cc0000    ....    STR      r0,[r12,#0]
        0x00019ef0:    f8d3c024    ..$.    LDR      r12,[r3,#0x24]
        0x00019ef4:    f8dcc00c    ....    LDR      r12,[r12,#0xc]
        0x00019ef8:    f8cc0000    ....    STR      r0,[r12,#0]
        0x00019efc:    6a58        Xj      LDR      r0,[r3,#0x24]
        0x00019efe:    f8d0c010    ....    LDR      r12,[r0,#0x10]
        0x00019f02:    f8dc4000    ...@    LDR      r4,[r12,#0]
        0x00019f06:    6940        @i      LDR      r0,[r0,#0x14]
        0x00019f08:    4320         C      ORRS     r0,r0,r4
        0x00019f0a:    f8cc0000    ....    STR      r0,[r12,#0]
        0x00019f0e:    f8d3c024    ..$.    LDR      r12,[r3,#0x24]
        0x00019f12:    6848        Hh      LDR      r0,[r1,#4]
        0x00019f14:    f8dcc004    ....    LDR      r12,[r12,#4]
        0x00019f18:    f8cc0000    ....    STR      r0,[r12,#0]
        0x00019f1c:    7a08        .z      LDRB     r0,[r1,#8]
        0x00019f1e:    2102        .!      MOVS     r1,#2
        0x00019f20:    ea010040    ..@.    AND      r0,r1,r0,LSL #1
        0x00019f24:    6a59        Yj      LDR      r1,[r3,#0x24]
        0x00019f26:    6809        .h      LDR      r1,[r1,#0]
        0x00019f28:    6008        .`      STR      r0,[r1,#0]
        0x00019f2a:    6013        .`      STR      r3,[r2,#0]
        0x00019f2c:    bc30        0.      POP      {r4,r5}
        0x00019f2e:    2000        .       MOVS     r0,#0
        0x00019f30:    4770        pG      BX       lr
    $d
        0x00019f32:    0000        ..      DCW    0
        0x00019f34:    10008e20     ...    DCD    268471840
        0x00019f38:    00cdcdcd    ....    DCD    13487565
        0x00019f3c:    0001f018    ....    DCD    127000
    $t
    i.am_hal_cmdq_term
    am_hal_cmdq_term
        0x00019f40:    b538        8.      PUSH     {r3-r5,lr}
        0x00019f42:    460d        .F      MOV      r5,r1
        0x00019f44:    1e04        ..      SUBS     r4,r0,#0
        0x00019f46:    bf1c        ..      ITT      NE
        0x00019f48:    6820         h      LDRNE    r0,[r4,#0]
        0x00019f4a:    f0107f80    ....    TSTNE    r0,#0x1000000
        0x00019f4e:    d004        ..      BEQ      0x19f5a ; am_hal_cmdq_term + 26
        0x00019f50:    491c        .I      LDR      r1,[pc,#112] ; [0x19fc4] = 0xcdcdcd
        0x00019f52:    f020407f     ..@    BIC      r0,r0,#0xff000000
        0x00019f56:    4288        .B      CMP      r0,r1
        0x00019f58:    d001        ..      BEQ      0x19f5e ; am_hal_cmdq_term + 30
        0x00019f5a:    2002        .       MOVS     r0,#2
        0x00019f5c:    bd38        8.      POP      {r3-r5,pc}
        0x00019f5e:    f7fefa01    ....    BL       am_hal_interrupt_master_disable ; 0x18364
        0x00019f62:    9000        ..      STR      r0,[sp,#0]
        0x00019f64:    6a60        `j      LDR      r0,[r4,#0x24]
        0x00019f66:    6880        .h      LDR      r0,[r0,#8]
        0x00019f68:    6800        .h      LDR      r0,[r0,#0]
        0x00019f6a:    6a21        !j      LDR      r1,[r4,#0x20]
        0x00019f6c:    b2c0        ..      UXTB     r0,r0
        0x00019f6e:    f02101ff    !...    BIC      r1,r1,#0xff
        0x00019f72:    4308        .C      ORRS     r0,r0,r1
        0x00019f74:    61e0        .a      STR      r0,[r4,#0x1c]
        0x00019f76:    6a21        !j      LDR      r1,[r4,#0x20]
        0x00019f78:    1a09        ..      SUBS     r1,r1,r0
        0x00019f7a:    bf44        D.      ITT      MI
        0x00019f7c:    f5a07080    ...p    SUBMI    r0,r0,#0x100
        0x00019f80:    61e0        .a      STRMI    r0,[r4,#0x1c]
        0x00019f82:    6a60        `j      LDR      r0,[r4,#0x24]
        0x00019f84:    6840        @h      LDR      r0,[r0,#4]
        0x00019f86:    6800        .h      LDR      r0,[r0,#0]
        0x00019f88:    60e0        .`      STR      r0,[r4,#0xc]
        0x00019f8a:    9800        ..      LDR      r0,[sp,#0]
        0x00019f8c:    f7fef9ee    ....    BL       am_hal_interrupt_master_set ; 0x1836c
        0x00019f90:    b92d        -.      CBNZ     r5,0x19f9e ; am_hal_cmdq_term + 94
        0x00019f92:    e9d40107    ....    LDRD     r0,r1,[r4,#0x1c]
        0x00019f96:    4288        .B      CMP      r0,r1
        0x00019f98:    bf1c        ..      ITT      NE
        0x00019f9a:    2003        .       MOVNE    r0,#3
        0x00019f9c:    bd38        8.      POPNE    {r3-r5,pc}
        0x00019f9e:    6820         h      LDR      r0,[r4,#0]
        0x00019fa0:    f0207080     ..p    BIC      r0,r0,#0x1000000
        0x00019fa4:    6020         `      STR      r0,[r4,#0]
        0x00019fa6:    6a60        `j      LDR      r0,[r4,#0x24]
        0x00019fa8:    6800        .h      LDR      r0,[r0,#0]
        0x00019faa:    6801        .h      LDR      r1,[r0,#0]
        0x00019fac:    f0210101    !...    BIC      r1,r1,#1
        0x00019fb0:    6001        .`      STR      r1,[r0,#0]
        0x00019fb2:    6a60        `j      LDR      r0,[r4,#0x24]
        0x00019fb4:    6901        .i      LDR      r1,[r0,#0x10]
        0x00019fb6:    680a        .h      LDR      r2,[r1,#0]
        0x00019fb8:    6940        @i      LDR      r0,[r0,#0x14]
        0x00019fba:    ea220000    "...    BIC      r0,r2,r0
        0x00019fbe:    6008        .`      STR      r0,[r1,#0]
        0x00019fc0:    2000        .       MOVS     r0,#0
        0x00019fc2:    bd38        8.      POP      {r3-r5,pc}
    $d
        0x00019fc4:    00cdcdcd    ....    DCD    13487565
    $t
    i.am_hal_crc32
    am_hal_crc32
        0x00019fc8:    2a00        .*      CMP      r2,#0
        0x00019fca:    bf04        ..      ITT      EQ
        0x00019fcc:    2006        .       MOVEQ    r0,#6
        0x00019fce:    4770        pG      BXEQ     lr
        0x00019fd0:    b570        p.      PUSH     {r4-r6,lr}
        0x00019fd2:    4615        .F      MOV      r5,r2
        0x00019fd4:    f0110f03    ....    TST      r1,#3
        0x00019fd8:    bf1c        ..      ITT      NE
        0x00019fda:    2006        .       MOVNE    r0,#6
        0x00019fdc:    bd70        p.      POPNE    {r4-r6,pc}
        0x00019fde:    f04f32ff    O..2    MOV      r2,#0xffffffff
        0x00019fe2:    4c0f        .L      LDR      r4,[pc,#60] ; [0x1a020] = 0x40030000
        0x00019fe4:    6322        "c      STR      r2,[r4,#0x30]
        0x00019fe6:    6120         a      STR      r0,[r4,#0x10]
        0x00019fe8:    6221        !b      STR      r1,[r4,#0x20]
        0x00019fea:    6822        "h      LDR      r2,[r4,#0]
        0x00019fec:    f02202f0    "...    BIC      r2,r2,#0xf0
        0x00019ff0:    6022        "`      STR      r2,[r4,#0]
        0x00019ff2:    4408        .D      ADD      r0,r0,r1
        0x00019ff4:    490b        .I      LDR      r1,[pc,#44] ; [0x1a024] = 0x10060000
        0x00019ff6:    4288        .B      CMP      r0,r1
        0x00019ff8:    d303        ..      BCC      0x1a002 ; am_hal_crc32 + 58
        0x00019ffa:    2100        .!      MOVS     r1,#0
        0x00019ffc:    2001        .       MOVS     r0,#1
        0x00019ffe:    f000f861    ..a.    BL       am_hal_daxi_control ; 0x1a0c4
        0x0001a002:    6820         h      LDR      r0,[r4,#0]
        0x0001a004:    4621        !F      MOV      r1,r4
        0x0001a006:    f0400001    @...    ORR      r0,r0,#1
        0x0001a00a:    6020         `      STR      r0,[r4,#0]
        0x0001a00c:    2300        .#      MOVS     r3,#0
        0x0001a00e:    2201        ."      MOVS     r2,#1
        0x0001a010:    4805        .H      LDR      r0,[pc,#20] ; [0x1a028] = 0x186a0
        0x0001a012:    f000f967    ..g.    BL       am_hal_delay_us_status_change ; 0x1a2e4
        0x0001a016:    2800        .(      CMP      r0,#0
        0x0001a018:    bf04        ..      ITT      EQ
        0x0001a01a:    6b21        !k      LDREQ    r1,[r4,#0x30]
        0x0001a01c:    6029        )`      STREQ    r1,[r5,#0]
        0x0001a01e:    bd70        p.      POP      {r4-r6,pc}
    $d
        0x0001a020:    40030000    ...@    DCD    1073938432
        0x0001a024:    10060000    ....    DCD    268828672
        0x0001a028:    000186a0    ....    DCD    100000
    $t
    i.am_hal_daxi_config
    am_hal_daxi_config
        0x0001a02c:    b570        p.      PUSH     {r4-r6,lr}
        0x0001a02e:    b082        ..      SUB      sp,sp,#8
        0x0001a030:    4605        .F      MOV      r5,r0
        0x0001a032:    f7fef997    ....    BL       am_hal_interrupt_master_disable ; 0x18364
        0x0001a036:    9000        ..      STR      r0,[sp,#0]
        0x0001a038:    f7fef994    ....    BL       am_hal_interrupt_master_disable ; 0x18364
        0x0001a03c:    f04f4490    O..D    MOV      r4,#0x48000000
        0x0001a040:    9001        ..      STR      r0,[sp,#4]
        0x0001a042:    6d20         m      LDR      r0,[r4,#0x50]
        0x0001a044:    4e1d        .N      LDR      r6,[pc,#116] ; [0x1a0bc] = 0x47ff0000
        0x0001a046:    f0100f04    ....    TST      r0,#4
        0x0001a04a:    d10b        ..      BNE      0x1a064 ; am_hal_daxi_config + 56
        0x0001a04c:    f3bf8f4f    ..O.    DSB      
        0x0001a050:    6d60        `m      LDR      r0,[r4,#0x54]
        0x0001a052:    f0400001    @...    ORR      r0,r0,#1
        0x0001a056:    6560        `e      STR      r0,[r4,#0x54]
        0x0001a058:    6830        0h      LDR      r0,[r6,#0]
        0x0001a05a:    6d60        `m      LDR      r0,[r4,#0x54]
        0x0001a05c:    f0400002    @...    ORR      r0,r0,#2
        0x0001a060:    6560        `e      STR      r0,[r4,#0x54]
        0x0001a062:    6830        0h      LDR      r0,[r6,#0]
        0x0001a064:    6d60        `m      LDR      r0,[r4,#0x54]
        0x0001a066:    f0100f04    ....    TST      r0,#4
        0x0001a06a:    d0fb        ..      BEQ      0x1a064 ; am_hal_daxi_config + 56
        0x0001a06c:    9801        ..      LDR      r0,[sp,#4]
        0x0001a06e:    f7fef97d    ..}.    BL       am_hal_interrupt_master_set ; 0x1836c
        0x0001a072:    2d00        .-      CMP      r5,#0
        0x0001a074:    bf04        ..      ITT      EQ
        0x0001a076:    2006        .       MOVEQ    r0,#6
        0x0001a078:    6520         e      STREQ    r0,[r4,#0x50]
        0x0001a07a:    d018        ..      BEQ      0x1a0ae ; am_hal_daxi_config + 130
        0x0001a07c:    7928        (y      LDRB     r0,[r5,#4]
        0x0001a07e:    7869        ix      LDRB     r1,[r5,#1]
        0x0001a080:    2202        ."      MOVS     r2,#2
        0x0001a082:    f0000001    ....    AND      r0,r0,#1
        0x0001a086:    ea020141    ..A.    AND      r1,r2,r1,LSL #1
        0x0001a08a:    4308        .C      ORRS     r0,r0,r1
        0x0001a08c:    78e9        .x      LDRB     r1,[r5,#3]
        0x0001a08e:    f44f6270    O.pb    MOV      r2,#0xf00
        0x0001a092:    ea022101    ...!    AND      r1,r2,r1,LSL #8
        0x0001a096:    4308        .C      ORRS     r0,r0,r1
        0x0001a098:    78a9        .x      LDRB     r1,[r5,#2]
        0x0001a09a:    f44f12f8    O...    MOV      r2,#0x1f0000
        0x0001a09e:    ea024101    ...A    AND      r1,r2,r1,LSL #16
        0x0001a0a2:    4308        .C      ORRS     r0,r0,r1
        0x0001a0a4:    6520         e      STR      r0,[r4,#0x50]
        0x0001a0a6:    4629        )F      MOV      r1,r5
        0x0001a0a8:    4805        .H      LDR      r0,[pc,#20] ; [0x1a0c0] = 0x100001d8
        0x0001a0aa:    f7fefaf1    ....    BL       __ARM_common_memcpy4_5 ; 0x18690
        0x0001a0ae:    6830        0h      LDR      r0,[r6,#0]
        0x0001a0b0:    9800        ..      LDR      r0,[sp,#0]
        0x0001a0b2:    f7fef95b    ..[.    BL       am_hal_interrupt_master_set ; 0x1836c
        0x0001a0b6:    b002        ..      ADD      sp,sp,#8
        0x0001a0b8:    2000        .       MOVS     r0,#0
        0x0001a0ba:    bd70        p.      POP      {r4-r6,pc}
    $d
        0x0001a0bc:    47ff0000    ...G    DCD    1207894016
        0x0001a0c0:    100001d8    ....    DCD    268435928
    $t
    i.am_hal_daxi_control
    am_hal_daxi_control
        0x0001a0c4:    b538        8.      PUSH     {r3-r5,lr}
        0x0001a0c6:    4d1d        .M      LDR      r5,[pc,#116] ; [0x1a13c] = 0x47ff0000
        0x0001a0c8:    f04f4490    O..D    MOV      r4,#0x48000000
        0x0001a0cc:    b348        H.      CBZ      r0,0x1a122 ; am_hal_daxi_control + 94
        0x0001a0ce:    2801        .(      CMP      r0,#1
        0x0001a0d0:    d00c        ..      BEQ      0x1a0ec ; am_hal_daxi_control + 40
        0x0001a0d2:    2802        .(      CMP      r0,#2
        0x0001a0d4:    bf08        ..      IT       EQ
        0x0001a0d6:    2000        .       MOVEQ    r0,#0
        0x0001a0d8:    d004        ..      BEQ      0x1a0e4 ; am_hal_daxi_control + 32
        0x0001a0da:    2803        .(      CMP      r0,#3
        0x0001a0dc:    bf16        ..      ITET     NE
        0x0001a0de:    2006        .       MOVNE    r0,#6
        0x0001a0e0:    4817        .H      LDREQ    r0,[pc,#92] ; [0x1a140] = 0x100001d8
        0x0001a0e2:    bd38        8.      POPNE    {r3-r5,pc}
        0x0001a0e4:    f7ffffa2    ....    BL       am_hal_daxi_config ; 0x1a02c
        0x0001a0e8:    2000        .       MOVS     r0,#0
        0x0001a0ea:    bd38        8.      POP      {r3-r5,pc}
        0x0001a0ec:    f7fef93a    ..:.    BL       am_hal_interrupt_master_disable ; 0x18364
        0x0001a0f0:    9000        ..      STR      r0,[sp,#0]
        0x0001a0f2:    6d20         m      LDR      r0,[r4,#0x50]
        0x0001a0f4:    f0100f04    ....    TST      r0,#4
        0x0001a0f8:    d10b        ..      BNE      0x1a112 ; am_hal_daxi_control + 78
        0x0001a0fa:    f3bf8f4f    ..O.    DSB      
        0x0001a0fe:    6d60        `m      LDR      r0,[r4,#0x54]
        0x0001a100:    f0400001    @...    ORR      r0,r0,#1
        0x0001a104:    6560        `e      STR      r0,[r4,#0x54]
        0x0001a106:    6828        (h      LDR      r0,[r5,#0]
        0x0001a108:    6d60        `m      LDR      r0,[r4,#0x54]
        0x0001a10a:    f0400002    @...    ORR      r0,r0,#2
        0x0001a10e:    6560        `e      STR      r0,[r4,#0x54]
        0x0001a110:    6828        (h      LDR      r0,[r5,#0]
        0x0001a112:    6d60        `m      LDR      r0,[r4,#0x54]
        0x0001a114:    f0100f04    ....    TST      r0,#4
        0x0001a118:    d0fb        ..      BEQ      0x1a112 ; am_hal_daxi_control + 78
        0x0001a11a:    9800        ..      LDR      r0,[sp,#0]
        0x0001a11c:    f7fef926    ..&.    BL       am_hal_interrupt_master_set ; 0x1836c
        0x0001a120:    e7e2        ..      B        0x1a0e8 ; am_hal_daxi_control + 36
        0x0001a122:    6d20         m      LDR      r0,[r4,#0x50]
        0x0001a124:    f0100f04    ....    TST      r0,#4
        0x0001a128:    d1de        ..      BNE      0x1a0e8 ; am_hal_daxi_control + 36
        0x0001a12a:    f3bf8f4f    ..O.    DSB      
        0x0001a12e:    6d60        `m      LDR      r0,[r4,#0x54]
        0x0001a130:    f0400002    @...    ORR      r0,r0,#2
        0x0001a134:    6560        `e      STR      r0,[r4,#0x54]
        0x0001a136:    6828        (h      LDR      r0,[r5,#0]
        0x0001a138:    e7d6        ..      B        0x1a0e8 ; am_hal_daxi_control + 36
    $d
        0x0001a13a:    0000        ..      DCW    0
        0x0001a13c:    47ff0000    ...G    DCD    1207894016
        0x0001a140:    100001d8    ....    DCD    268435928
    $t
    i.am_hal_dcu_get
    am_hal_dcu_get
        0x0001a144:    e92d43f0    -..C    PUSH     {r4-r9,lr}
        0x0001a148:    4680        .F      MOV      r8,r0
        0x0001a14a:    481f        .H      LDR      r0,[pc,#124] ; [0x1a1c8] = 0x40021000
        0x0001a14c:    b083        ..      SUB      sp,sp,#0xc
        0x0001a14e:    6880        .h      LDR      r0,[r0,#8]
        0x0001a150:    f4101f80    ....    TST      r0,#0x100000
        0x0001a154:    d023        #.      BEQ      0x1a19e ; am_hal_dcu_get + 90
        0x0001a156:    481d        .H      LDR      r0,[pc,#116] ; [0x1a1cc] = 0x400c0a7c
        0x0001a158:    6800        .h      LDR      r0,[r0,#0]
        0x0001a15a:    f0100f01    ....    TST      r0,#1
        0x0001a15e:    d01e        ..      BEQ      0x1a19e ; am_hal_dcu_get + 90
        0x0001a160:    f8df906c    ..l.    LDR      r9,[pc,#108] ; [0x1a1d0] = 0x100001e0
        0x0001a164:    4668        hF      MOV      r0,sp
        0x0001a166:    2202        ."      MOVS     r2,#2
        0x0001a168:    f8d91004    ....    LDR      r1,[r9,#4]
        0x0001a16c:    f003fb34    ..4.    BL       copy_words ; 0x1d7d8
        0x0001a170:    e9dd0100    ....    LDRD     r0,r1,[sp,#0]
        0x0001a174:    2400        .$      MOVS     r4,#0
        0x0001a176:    4627        'F      MOV      r7,r4
        0x0001a178:    2605        .&      MOVS     r6,#5
        0x0001a17a:    4625        %F      MOV      r5,r4
        0x0001a17c:    f8d92000    ...     LDR      r2,[r9,#0]
        0x0001a180:    f7fef917    ....    BL       __aeabi_llsr ; 0x183b2
        0x0001a184:    2214        ."      MOVS     r2,#0x14
        0x0001a186:    f04f0c01    O...    MOV      r12,#1
        0x0001a18a:    bf00        ..      NOP      
        0x0001a18c:    f0000307    ....    AND      r3,r0,#7
        0x0001a190:    4073        s@      EORS     r3,r3,r6
        0x0001a192:    ea840904    ....    EOR      r9,r4,r4
        0x0001a196:    ea530309    S...    ORRS     r3,r3,r9
        0x0001a19a:    d109        ..      BNE      0x1a1b0 ; am_hal_dcu_get + 108
        0x0001a19c:    e003        ..      B        0x1a1a6 ; am_hal_dcu_get + 98
        0x0001a19e:    b003        ..      ADD      sp,sp,#0xc
        0x0001a1a0:    2007        .       MOVS     r0,#7
        0x0001a1a2:    e8bd83f0    ....    POP      {r4-r9,pc}
        0x0001a1a6:    f1c20314    ....    RSB      r3,r2,#0x14
        0x0001a1aa:    fa0cf303    ....    LSL      r3,r12,r3
        0x0001a1ae:    431d        .C      ORRS     r5,r5,r3
        0x0001a1b0:    08c0        ..      LSRS     r0,r0,#3
        0x0001a1b2:    ea407041    @.Ap    ORR      r0,r0,r1,LSL #29
        0x0001a1b6:    08c9        ..      LSRS     r1,r1,#3
        0x0001a1b8:    1e52        R.      SUBS     r2,r2,#1
        0x0001a1ba:    d1e7        ..      BNE      0x1a18c ; am_hal_dcu_get + 72
        0x0001a1bc:    f8c85000    ...P    STR      r5,[r8,#0]
        0x0001a1c0:    b003        ..      ADD      sp,sp,#0xc
        0x0001a1c2:    4638        8F      MOV      r0,r7
        0x0001a1c4:    e8bd83f0    ....    POP      {r4-r9,pc}
    $d
        0x0001a1c8:    40021000    ...@    DCD    1073876992
        0x0001a1cc:    400c0a7c    |..@    DCD    1074530940
        0x0001a1d0:    100001e0    ....    DCD    268435936
    $t
    i.am_hal_dcu_update
    am_hal_dcu_update
        0x0001a1d4:    e92d4ff0    -..O    PUSH     {r4-r11,lr}
        0x0001a1d8:    4681        .F      MOV      r9,r0
        0x0001a1da:    4834        4H      LDR      r0,[pc,#208] ; [0x1a2ac] = 0x40021000
        0x0001a1dc:    b085        ..      SUB      sp,sp,#0x14
        0x0001a1de:    6880        .h      LDR      r0,[r0,#8]
        0x0001a1e0:    f4101f80    ....    TST      r0,#0x100000
        0x0001a1e4:    d02a        *.      BEQ      0x1a23c ; am_hal_dcu_update + 104
        0x0001a1e6:    f8dfa0c8    ....    LDR      r10,[pc,#200] ; [0x1a2b0] = 0x400c0a7c
        0x0001a1ea:    f8da0000    ....    LDR      r0,[r10,#0]
        0x0001a1ee:    f0100f01    ....    TST      r0,#1
        0x0001a1f2:    d023        #.      BEQ      0x1a23c ; am_hal_dcu_update + 104
        0x0001a1f4:    f8df80bc    ....    LDR      r8,[pc,#188] ; [0x1a2b4] = 0x100001e0
        0x0001a1f8:    2700        .'      MOVS     r7,#0
        0x0001a1fa:    084d        M.      LSRS     r5,r1,#1
        0x0001a1fc:    f8d8b000    ....    LDR      r11,[r8,#0]
        0x0001a200:    463e        >F      MOV      r6,r7
        0x0001a202:    2414        .$      MOVS     r4,#0x14
        0x0001a204:    f0150f01    ....    TST      r5,#1
        0x0001a208:    d006        ..      BEQ      0x1a218 ; am_hal_dcu_update + 68
        0x0001a20a:    465a        ZF      MOV      r2,r11
        0x0001a20c:    2007        .       MOVS     r0,#7
        0x0001a20e:    2100        .!      MOVS     r1,#0
        0x0001a210:    f7fef8bc    ....    BL       __aeabi_llsl ; 0x1838c
        0x0001a214:    4307        .C      ORRS     r7,r7,r0
        0x0001a216:    430e        .C      ORRS     r6,r6,r1
        0x0001a218:    086d        m.      LSRS     r5,r5,#1
        0x0001a21a:    1e64        d.      SUBS     r4,r4,#1
        0x0001a21c:    f10b0b03    ....    ADD      r11,r11,#3
        0x0001a220:    2c00        .,      CMP      r4,#0
        0x0001a222:    dcef        ..      BGT      0x1a204 ; am_hal_dcu_update + 48
        0x0001a224:    2202        ."      MOVS     r2,#2
        0x0001a226:    a802        ..      ADD      r0,sp,#8
        0x0001a228:    f8d81008    ....    LDR      r1,[r8,#8]
        0x0001a22c:    f003fad4    ....    BL       copy_words ; 0x1d7d8
        0x0001a230:    e9dd1002    ....    LDRD     r1,r0,[sp,#8]
        0x0001a234:    4039        9@      ANDS     r1,r1,r7
        0x0001a236:    4030        0@      ANDS     r0,r0,r6
        0x0001a238:    4308        .C      ORRS     r0,r0,r1
        0x0001a23a:    d003        ..      BEQ      0x1a244 ; am_hal_dcu_update + 112
        0x0001a23c:    b005        ..      ADD      sp,sp,#0x14
        0x0001a23e:    2007        .       MOVS     r0,#7
        0x0001a240:    e8bd8ff0    ....    POP      {r4-r11,pc}
        0x0001a244:    2202        ."      MOVS     r2,#2
        0x0001a246:    4668        hF      MOV      r0,sp
        0x0001a248:    f8d81004    ....    LDR      r1,[r8,#4]
        0x0001a24c:    f003fac4    ....    BL       copy_words ; 0x1d7d8
        0x0001a250:    f1b90f00    ....    CMP      r9,#0
        0x0001a254:    d00d        ..      BEQ      0x1a272 ; am_hal_dcu_update + 158
        0x0001a256:    e9dd1000    ....    LDRD     r1,r0,[sp,#0]
        0x0001a25a:    ea210207    !...    BIC      r2,r1,r7
        0x0001a25e:    e9d83104    ...1    LDRD     r3,r1,[r8,#0x10]
        0x0001a262:    403b        ;@      ANDS     r3,r3,r7
        0x0001a264:    43b0        .C      BICS     r0,r0,r6
        0x0001a266:    4031        1@      ANDS     r1,r1,r6
        0x0001a268:    431a        .C      ORRS     r2,r2,r3
        0x0001a26a:    4308        .C      ORRS     r0,r0,r1
        0x0001a26c:    e9cd2000    ...     STRD     r2,r0,[sp,#0]
        0x0001a270:    e00c        ..      B        0x1a28c ; am_hal_dcu_update + 184
        0x0001a272:    e9dd0100    ....    LDRD     r0,r1,[sp,#0]
        0x0001a276:    ea210206    !...    BIC      r2,r1,r6
        0x0001a27a:    e9d83106    ...1    LDRD     r3,r1,[r8,#0x18]
        0x0001a27e:    43b8        .C      BICS     r0,r0,r7
        0x0001a280:    403b        ;@      ANDS     r3,r3,r7
        0x0001a282:    4031        1@      ANDS     r1,r1,r6
        0x0001a284:    4318        .C      ORRS     r0,r0,r3
        0x0001a286:    4311        .C      ORRS     r1,r1,r2
        0x0001a288:    e9cd0100    ....    STRD     r0,r1,[sp,#0]
        0x0001a28c:    2202        ."      MOVS     r2,#2
        0x0001a28e:    4669        iF      MOV      r1,sp
        0x0001a290:    f8d80004    ....    LDR      r0,[r8,#4]
        0x0001a294:    f003faa0    ....    BL       copy_words ; 0x1d7d8
        0x0001a298:    f8da0000    ....    LDR      r0,[r10,#0]
        0x0001a29c:    f0100f01    ....    TST      r0,#1
        0x0001a2a0:    d0fa        ..      BEQ      0x1a298 ; am_hal_dcu_update + 196
        0x0001a2a2:    b005        ..      ADD      sp,sp,#0x14
        0x0001a2a4:    2000        .       MOVS     r0,#0
        0x0001a2a6:    e8bd8ff0    ....    POP      {r4-r11,pc}
    $d
        0x0001a2aa:    0000        ..      DCW    0
        0x0001a2ac:    40021000    ...@    DCD    1073876992
        0x0001a2b0:    400c0a7c    |..@    DCD    1074530940
        0x0001a2b4:    100001e0    ....    DCD    268435936
    $t
    i.am_hal_delay_us
    am_hal_delay_us
        0x0001a2b8:    4908        .I      LDR      r1,[pc,#32] ; [0x1a2dc] = 0x40021000
        0x0001a2ba:    0140        @.      LSLS     r0,r0,#5
        0x0001a2bc:    6809        .h      LDR      r1,[r1,#0]
        0x0001a2be:    f3c101c1    ....    UBFX     r1,r1,#3,#2
        0x0001a2c2:    2902        .)      CMP      r1,#2
        0x0001a2c4:    bf06        ..      ITTE     EQ
        0x0001a2c6:    0040        @.      LSLEQ    r0,r0,#1
        0x0001a2c8:    2115        .!      MOVEQ    r1,#0x15
        0x0001a2ca:    210f        .!      MOVNE    r1,#0xf
        0x0001a2cc:    4288        .B      CMP      r0,r1
        0x0001a2ce:    bf98        ..      IT       LS
        0x0001a2d0:    4770        pG      BXLS     lr
        0x0001a2d2:    1a40        @.      SUBS     r0,r0,r1
        0x0001a2d4:    4902        .I      LDR      r1,[pc,#8] ; [0x1a2e0] = 0x1efe8
        0x0001a2d6:    6a49        Ij      LDR      r1,[r1,#0x24]
        0x0001a2d8:    4708        .G      BX       r1
    $d
        0x0001a2da:    0000        ..      DCW    0
        0x0001a2dc:    40021000    ...@    DCD    1073876992
        0x0001a2e0:    0001efe8    ....    DCD    126952
    $t
    i.am_hal_delay_us_status_change
    am_hal_delay_us_status_change
        0x0001a2e4:    e92d47f0    -..G    PUSH     {r4-r10,lr}
        0x0001a2e8:    f8df8048    ..H.    LDR      r8,[pc,#72] ; [0x1a334] = 0x40021000
        0x0001a2ec:    f8df9048    ..H.    LDR      r9,[pc,#72] ; [0x1a338] = 0x1efe8
        0x0001a2f0:    461d        .F      MOV      r5,r3
        0x0001a2f2:    4616        .F      MOV      r6,r2
        0x0001a2f4:    460f        .F      MOV      r7,r1
        0x0001a2f6:    4604        .F      MOV      r4,r0
        0x0001a2f8:    6838        8h      LDR      r0,[r7,#0]
        0x0001a2fa:    4030        0@      ANDS     r0,r0,r6
        0x0001a2fc:    42a8        .B      CMP      r0,r5
        0x0001a2fe:    d102        ..      BNE      0x1a306 ; am_hal_delay_us_status_change + 34
        0x0001a300:    2000        .       MOVS     r0,#0
        0x0001a302:    e8bd87f0    ....    POP      {r4-r10,pc}
        0x0001a306:    1e64        d.      SUBS     r4,r4,#1
        0x0001a308:    d311        ..      BCC      0x1a32e ; am_hal_delay_us_status_change + 74
        0x0001a30a:    f8d81000    ....    LDR      r1,[r8,#0]
        0x0001a30e:    2020                MOVS     r0,#0x20
        0x0001a310:    f3c101c1    ....    UBFX     r1,r1,#3,#2
        0x0001a314:    2902        .)      CMP      r1,#2
        0x0001a316:    bf06        ..      ITTE     EQ
        0x0001a318:    2040        @       MOVEQ    r0,#0x40
        0x0001a31a:    f04f0c15    O...    MOVEQ    r12,#0x15
        0x0001a31e:    f04f0c0f    O...    MOVNE    r12,#0xf
        0x0001a322:    eba0000c    ....    SUB      r0,r0,r12
        0x0001a326:    f8d91024    ..$.    LDR      r1,[r9,#0x24]
        0x0001a32a:    4788        .G      BLX      r1
        0x0001a32c:    e7e4        ..      B        0x1a2f8 ; am_hal_delay_us_status_change + 20
        0x0001a32e:    2004        .       MOVS     r0,#4
        0x0001a330:    e8bd87f0    ....    POP      {r4-r10,pc}
    $d
        0x0001a334:    40021000    ...@    DCD    1073876992
        0x0001a338:    0001efe8    ....    DCD    126952
    $t
    i.am_hal_delay_us_status_check
    am_hal_delay_us_status_check
        0x0001a33c:    e92d47f0    -..G    PUSH     {r4-r10,lr}
        0x0001a340:    f8df9054    ..T.    LDR      r9,[pc,#84] ; [0x1a398] = 0x40021000
        0x0001a344:    f8dfa054    ..T.    LDR      r10,[pc,#84] ; [0x1a39c] = 0x1efe8
        0x0001a348:    f8dd8020    .. .    LDR      r8,[sp,#0x20]
        0x0001a34c:    461c        .F      MOV      r4,r3
        0x0001a34e:    4615        .F      MOV      r5,r2
        0x0001a350:    460e        .F      MOV      r6,r1
        0x0001a352:    4607        .F      MOV      r7,r0
        0x0001a354:    6830        0h      LDR      r0,[r6,#0]
        0x0001a356:    f1b80f00    ....    CMP      r8,#0
        0x0001a35a:    ea000005    ....    AND      r0,r0,r5
        0x0001a35e:    d002        ..      BEQ      0x1a366 ; am_hal_delay_us_status_check + 42
        0x0001a360:    42a0        .B      CMP      r0,r4
        0x0001a362:    d002        ..      BEQ      0x1a36a ; am_hal_delay_us_status_check + 46
        0x0001a364:    e004        ..      B        0x1a370 ; am_hal_delay_us_status_check + 52
        0x0001a366:    42a0        .B      CMP      r0,r4
        0x0001a368:    d002        ..      BEQ      0x1a370 ; am_hal_delay_us_status_check + 52
        0x0001a36a:    2000        .       MOVS     r0,#0
        0x0001a36c:    e8bd87f0    ....    POP      {r4-r10,pc}
        0x0001a370:    1e7f        ..      SUBS     r7,r7,#1
        0x0001a372:    d30e        ..      BCC      0x1a392 ; am_hal_delay_us_status_check + 86
        0x0001a374:    f8d91000    ....    LDR      r1,[r9,#0]
        0x0001a378:    2020                MOVS     r0,#0x20
        0x0001a37a:    f3c101c1    ....    UBFX     r1,r1,#3,#2
        0x0001a37e:    2902        .)      CMP      r1,#2
        0x0001a380:    bf06        ..      ITTE     EQ
        0x0001a382:    2040        @       MOVEQ    r0,#0x40
        0x0001a384:    2115        .!      MOVEQ    r1,#0x15
        0x0001a386:    210f        .!      MOVNE    r1,#0xf
        0x0001a388:    1a40        @.      SUBS     r0,r0,r1
        0x0001a38a:    f8da1024    ..$.    LDR      r1,[r10,#0x24]
        0x0001a38e:    4788        .G      BLX      r1
        0x0001a390:    e7e0        ..      B        0x1a354 ; am_hal_delay_us_status_check + 24
        0x0001a392:    2004        .       MOVS     r0,#4
        0x0001a394:    e8bd87f0    ....    POP      {r4-r10,pc}
    $d
        0x0001a398:    40021000    ...@    DCD    1073876992
        0x0001a39c:    0001efe8    ....    DCD    126952
    $t
    i.am_hal_fault_capture_enable
    am_hal_fault_capture_enable
        0x0001a3a0:    f04f4090    O..@    MOV      r0,#0x48000000
        0x0001a3a4:    f8501f90    P...    LDR      r1,[r0,#0x90]!
        0x0001a3a8:    f0410101    A...    ORR      r1,r1,#1
        0x0001a3ac:    6001        .`      STR      r1,[r0,#0]
        0x0001a3ae:    2000        .       MOVS     r0,#0
        0x0001a3b0:    4770        pG      BX       lr
    i.am_hal_fault_status_get
    am_hal_fault_status_get
        0x0001a3b2:    2800        .(      CMP      r0,#0
        0x0001a3b4:    bf04        ..      ITT      EQ
        0x0001a3b6:    2006        .       MOVEQ    r0,#6
        0x0001a3b8:    4770        pG      BXEQ     lr
        0x0001a3ba:    f04f4190    O..A    MOV      r1,#0x48000000
        0x0001a3be:    f8d1208c    ...     LDR      r2,[r1,#0x8c]
        0x0001a3c2:    f0020301    ....    AND      r3,r2,#1
        0x0001a3c6:    7003        .p      STRB     r3,[r0,#0]
        0x0001a3c8:    f3c20340    ..@.    UBFX     r3,r2,#1,#1
        0x0001a3cc:    7203        .r      STRB     r3,[r0,#8]
        0x0001a3ce:    f3c20280    ....    UBFX     r2,r2,#2,#1
        0x0001a3d2:    7402        .t      STRB     r2,[r0,#0x10]
        0x0001a3d4:    f8d12084    ...     LDR      r2,[r1,#0x84]
        0x0001a3d8:    60c2        .`      STR      r2,[r0,#0xc]
        0x0001a3da:    6842        Bh      LDR      r2,[r0,#4]
        0x0001a3dc:    f8513f80    Q..?    LDR      r3,[r1,#0x80]!
        0x0001a3e0:    431a        .C      ORRS     r2,r2,r3
        0x0001a3e2:    6042        B`      STR      r2,[r0,#4]
        0x0001a3e4:    6942        Bi      LDR      r2,[r0,#0x14]
        0x0001a3e6:    6889        .h      LDR      r1,[r1,#8]
        0x0001a3e8:    4311        .C      ORRS     r1,r1,r2
        0x0001a3ea:    6141        Aa      STR      r1,[r0,#0x14]
        0x0001a3ec:    2000        .       MOVS     r0,#0
        0x0001a3ee:    4770        pG      BX       lr
    i.am_hal_gpio_interrupt_control
    am_hal_gpio_interrupt_control
        0x0001a3f0:    e92d43f8    -..C    PUSH     {r3-r9,lr}
        0x0001a3f4:    460f        .F      MOV      r7,r1
        0x0001a3f6:    4606        .F      MOV      r6,r0
        0x0001a3f8:    f04f0800    O...    MOV      r8,#0
        0x0001a3fc:    1e14        ..      SUBS     r4,r2,#0
        0x0001a3fe:    d001        ..      BEQ      0x1a404 ; am_hal_gpio_interrupt_control + 20
        0x0001a400:    2f03        ./      CMP      r7,#3
        0x0001a402:    d902        ..      BLS      0x1a40a ; am_hal_gpio_interrupt_control + 26
        0x0001a404:    2006        .       MOVS     r0,#6
        0x0001a406:    e8bd83f8    ....    POP      {r3-r9,pc}
        0x0001a40a:    2f01        ./      CMP      r7,#1
        0x0001a40c:    d817        ..      BHI      0x1a43e ; am_hal_gpio_interrupt_control + 78
        0x0001a40e:    6821        !h      LDR      r1,[r4,#0]
        0x0001a410:    2980        .)      CMP      r1,#0x80
        0x0001a412:    d20b        ..      BCS      0x1a42c ; am_hal_gpio_interrupt_control + 60
        0x0001a414:    4a52        RJ      LDR      r2,[pc,#328] ; [0x1a560] = 0x1ee2c
        0x0001a416:    0948        H.      LSRS     r0,r1,#5
        0x0001a418:    f001031f    ....    AND      r3,r1,#0x1f
        0x0001a41c:    f8522020    R.      LDR      r2,[r2,r0,LSL #2]
        0x0001a420:    2101        .!      MOVS     r1,#1
        0x0001a422:    fa01f903    ....    LSL      r9,r1,r3
        0x0001a426:    ea120f09    ....    TST      r2,r9
        0x0001a42a:    d002        ..      BEQ      0x1a432 ; am_hal_gpio_interrupt_control + 66
        0x0001a42c:    2005        .       MOVS     r0,#5
        0x0001a42e:    e8bd83f8    ....    POP      {r3-r9,pc}
        0x0001a432:    494c        LI      LDR      r1,[pc,#304] ; [0x1a564] = 0x400102c0
        0x0001a434:    2e01        ..      CMP      r6,#1
        0x0001a436:    eb011500    ....    ADD      r5,r1,r0,LSL #4
        0x0001a43a:    bf08        ..      IT       EQ
        0x0001a43c:    3540        @5      ADDEQ    r5,r5,#0x40
        0x0001a43e:    f7fdff91    ....    BL       am_hal_interrupt_master_disable ; 0x18364
        0x0001a442:    9000        ..      STR      r0,[sp,#0]
        0x0001a444:    b13f        ?.      CBZ      r7,0x1a456 ; am_hal_gpio_interrupt_control + 102
        0x0001a446:    2f01        ./      CMP      r7,#1
        0x0001a448:    d010        ..      BEQ      0x1a46c ; am_hal_gpio_interrupt_control + 124
        0x0001a44a:    4a47        GJ      LDR      r2,[pc,#284] ; [0x1a568] = 0x40010000
        0x0001a44c:    2f02        ./      CMP      r7,#2
        0x0001a44e:    d019        ..      BEQ      0x1a484 ; am_hal_gpio_interrupt_control + 148
        0x0001a450:    2f03        ./      CMP      r7,#3
        0x0001a452:    d049        I.      BEQ      0x1a4e8 ; am_hal_gpio_interrupt_control + 248
        0x0001a454:    e07d        }.      B        0x1a552 ; am_hal_gpio_interrupt_control + 354
        0x0001a456:    6828        (h      LDR      r0,[r5,#0]
        0x0001a458:    2e02        ..      CMP      r6,#2
        0x0001a45a:    ea200009     ...    BIC      r0,r0,r9
        0x0001a45e:    6028        (`      STR      r0,[r5,#0]
        0x0001a460:    bf04        ..      ITT      EQ
        0x0001a462:    6c28        (l      LDREQ    r0,[r5,#0x40]
        0x0001a464:    ea200009     ...    BICEQ    r0,r0,r9
        0x0001a468:    d173        s.      BNE      0x1a552 ; am_hal_gpio_interrupt_control + 354
        0x0001a46a:    e009        ..      B        0x1a480 ; am_hal_gpio_interrupt_control + 144
        0x0001a46c:    6828        (h      LDR      r0,[r5,#0]
        0x0001a46e:    2e02        ..      CMP      r6,#2
        0x0001a470:    ea400009    @...    ORR      r0,r0,r9
        0x0001a474:    6028        (`      STR      r0,[r5,#0]
        0x0001a476:    bf04        ..      ITT      EQ
        0x0001a478:    6c28        (l      LDREQ    r0,[r5,#0x40]
        0x0001a47a:    ea400009    @...    ORREQ    r0,r0,r9
        0x0001a47e:    d168        h.      BNE      0x1a552 ; am_hal_gpio_interrupt_control + 354
        0x0001a480:    6428        (d      STR      r0,[r5,#0x40]
        0x0001a482:    e066        f.      B        0x1a552 ; am_hal_gpio_interrupt_control + 354
        0x0001a484:    2e01        ..      CMP      r6,#1
        0x0001a486:    d018        ..      BEQ      0x1a4ba ; am_hal_gpio_interrupt_control + 202
        0x0001a488:    f8d202c0    ....    LDR      r0,[r2,#0x2c0]
        0x0001a48c:    6821        !h      LDR      r1,[r4,#0]
        0x0001a48e:    4388        .C      BICS     r0,r0,r1
        0x0001a490:    f8c202c0    ....    STR      r0,[r2,#0x2c0]
        0x0001a494:    f8d202d0    ....    LDR      r0,[r2,#0x2d0]
        0x0001a498:    6861        ah      LDR      r1,[r4,#4]
        0x0001a49a:    4388        .C      BICS     r0,r0,r1
        0x0001a49c:    f8c202d0    ....    STR      r0,[r2,#0x2d0]
        0x0001a4a0:    f8d202e0    ....    LDR      r0,[r2,#0x2e0]
        0x0001a4a4:    68a1        .h      LDR      r1,[r4,#8]
        0x0001a4a6:    4388        .C      BICS     r0,r0,r1
        0x0001a4a8:    f8c202e0    ....    STR      r0,[r2,#0x2e0]
        0x0001a4ac:    f8d202f0    ....    LDR      r0,[r2,#0x2f0]
        0x0001a4b0:    68e1        .h      LDR      r1,[r4,#0xc]
        0x0001a4b2:    4388        .C      BICS     r0,r0,r1
        0x0001a4b4:    f8c202f0    ....    STR      r0,[r2,#0x2f0]
        0x0001a4b8:    b3f6        ..      CBZ      r6,0x1a538 ; am_hal_gpio_interrupt_control + 328
        0x0001a4ba:    f8d20300    ....    LDR      r0,[r2,#0x300]
        0x0001a4be:    6821        !h      LDR      r1,[r4,#0]
        0x0001a4c0:    4388        .C      BICS     r0,r0,r1
        0x0001a4c2:    f8c20300    ....    STR      r0,[r2,#0x300]
        0x0001a4c6:    f8d20310    ....    LDR      r0,[r2,#0x310]
        0x0001a4ca:    6861        ah      LDR      r1,[r4,#4]
        0x0001a4cc:    4388        .C      BICS     r0,r0,r1
        0x0001a4ce:    f8c20310    ....    STR      r0,[r2,#0x310]
        0x0001a4d2:    f8d20320    .. .    LDR      r0,[r2,#0x320]
        0x0001a4d6:    68a1        .h      LDR      r1,[r4,#8]
        0x0001a4d8:    4388        .C      BICS     r0,r0,r1
        0x0001a4da:    f8c20320    .. .    STR      r0,[r2,#0x320]
        0x0001a4de:    f8d20330    ..0.    LDR      r0,[r2,#0x330]
        0x0001a4e2:    68e1        .h      LDR      r1,[r4,#0xc]
        0x0001a4e4:    4388        .C      BICS     r0,r0,r1
        0x0001a4e6:    e032        2.      B        0x1a54e ; am_hal_gpio_interrupt_control + 350
        0x0001a4e8:    2e01        ..      CMP      r6,#1
        0x0001a4ea:    d018        ..      BEQ      0x1a51e ; am_hal_gpio_interrupt_control + 302
        0x0001a4ec:    f8d202c0    ....    LDR      r0,[r2,#0x2c0]
        0x0001a4f0:    6821        !h      LDR      r1,[r4,#0]
        0x0001a4f2:    4308        .C      ORRS     r0,r0,r1
        0x0001a4f4:    f8c202c0    ....    STR      r0,[r2,#0x2c0]
        0x0001a4f8:    f8d202d0    ....    LDR      r0,[r2,#0x2d0]
        0x0001a4fc:    6861        ah      LDR      r1,[r4,#4]
        0x0001a4fe:    4308        .C      ORRS     r0,r0,r1
        0x0001a500:    f8c202d0    ....    STR      r0,[r2,#0x2d0]
        0x0001a504:    f8d202e0    ....    LDR      r0,[r2,#0x2e0]
        0x0001a508:    68a1        .h      LDR      r1,[r4,#8]
        0x0001a50a:    4308        .C      ORRS     r0,r0,r1
        0x0001a50c:    f8c202e0    ....    STR      r0,[r2,#0x2e0]
        0x0001a510:    f8d202f0    ....    LDR      r0,[r2,#0x2f0]
        0x0001a514:    68e1        .h      LDR      r1,[r4,#0xc]
        0x0001a516:    4308        .C      ORRS     r0,r0,r1
        0x0001a518:    f8c202f0    ....    STR      r0,[r2,#0x2f0]
        0x0001a51c:    b166        f.      CBZ      r6,0x1a538 ; am_hal_gpio_interrupt_control + 328
        0x0001a51e:    f8d20300    ....    LDR      r0,[r2,#0x300]
        0x0001a522:    6821        !h      LDR      r1,[r4,#0]
        0x0001a524:    4308        .C      ORRS     r0,r0,r1
        0x0001a526:    f8c20300    ....    STR      r0,[r2,#0x300]
        0x0001a52a:    f8d20310    ....    LDR      r0,[r2,#0x310]
        0x0001a52e:    6861        ah      LDR      r1,[r4,#4]
        0x0001a530:    4308        .C      ORRS     r0,r0,r1
        0x0001a532:    f8c20310    ....    STR      r0,[r2,#0x310]
        0x0001a536:    e000        ..      B        0x1a53a ; am_hal_gpio_interrupt_control + 330
        0x0001a538:    e00b        ..      B        0x1a552 ; am_hal_gpio_interrupt_control + 354
        0x0001a53a:    f8d20320    .. .    LDR      r0,[r2,#0x320]
        0x0001a53e:    68a1        .h      LDR      r1,[r4,#8]
        0x0001a540:    4308        .C      ORRS     r0,r0,r1
        0x0001a542:    f8c20320    .. .    STR      r0,[r2,#0x320]
        0x0001a546:    f8d20330    ..0.    LDR      r0,[r2,#0x330]
        0x0001a54a:    68e1        .h      LDR      r1,[r4,#0xc]
        0x0001a54c:    4308        .C      ORRS     r0,r0,r1
        0x0001a54e:    f8c20330    ..0.    STR      r0,[r2,#0x330]
        0x0001a552:    9800        ..      LDR      r0,[sp,#0]
        0x0001a554:    f7fdff0a    ....    BL       am_hal_interrupt_master_set ; 0x1836c
        0x0001a558:    4640        @F      MOV      r0,r8
        0x0001a55a:    e8bd83f8    ....    POP      {r3-r9,pc}
    $d
        0x0001a55e:    0000        ..      DCW    0
        0x0001a560:    0001ee2c    ,...    DCD    126508
        0x0001a564:    400102c0    ...@    DCD    1073808064
        0x0001a568:    40010000    ...@    DCD    1073807360
    $t
    i.am_hal_gpio_interrupt_irq_clear
    am_hal_gpio_interrupt_irq_clear
        0x0001a56c:    f1a00238    ..8.    SUB      r2,r0,#0x38
        0x0001a570:    2a08        .*      CMP      r2,#8
        0x0001a572:    bf24        $.      ITT      CS
        0x0001a574:    2006        .       MOVCS    r0,#6
        0x0001a576:    4770        pG      BXCS     lr
        0x0001a578:    283b        ;(      CMP      r0,#0x3b
        0x0001a57a:    bf8c        ..      ITE      HI
        0x0001a57c:    2201        ."      MOVHI    r2,#1
        0x0001a57e:    2200        ."      MOVLS    r2,#0
        0x0001a580:    4253        SB      RSBS     r3,r2,#0
        0x0001a582:    eb000083    ....    ADD      r0,r0,r3,LSL #2
        0x0001a586:    0192        ..      LSLS     r2,r2,#6
        0x0001a588:    3838        88      SUBS     r0,r0,#0x38
        0x0001a58a:    eb021000    ....    ADD      r0,r2,r0,LSL #4
        0x0001a58e:    4a02        .J      LDR      r2,[pc,#8] ; [0x1a598] = 0x400102c8
        0x0001a590:    5081        .P      STR      r1,[r0,r2]
        0x0001a592:    2000        .       MOVS     r0,#0
        0x0001a594:    4770        pG      BX       lr
    $d
        0x0001a596:    0000        ..      DCW    0
        0x0001a598:    400102c8    ...@    DCD    1073808072
    $t
    i.am_hal_gpio_interrupt_irq_status_get
    am_hal_gpio_interrupt_irq_status_get
        0x0001a59c:    e92d43f8    -..C    PUSH     {r3-r9,lr}
        0x0001a5a0:    0014        ..      MOVS     r4,r2
        0x0001a5a2:    460e        .F      MOV      r6,r1
        0x0001a5a4:    f04f0500    O...    MOV      r5,#0
        0x0001a5a8:    d003        ..      BEQ      0x1a5b2 ; am_hal_gpio_interrupt_irq_status_get + 22
        0x0001a5aa:    2838        8(      CMP      r0,#0x38
        0x0001a5ac:    d301        ..      BCC      0x1a5b2 ; am_hal_gpio_interrupt_irq_status_get + 22
        0x0001a5ae:    283f        ?(      CMP      r0,#0x3f
        0x0001a5b0:    d902        ..      BLS      0x1a5b8 ; am_hal_gpio_interrupt_irq_status_get + 28
        0x0001a5b2:    2006        .       MOVS     r0,#6
        0x0001a5b4:    e8bd83f8    ....    POP      {r3-r9,pc}
        0x0001a5b8:    283b        ;(      CMP      r0,#0x3b
        0x0001a5ba:    bf8c        ..      ITE      HI
        0x0001a5bc:    2201        ."      MOVHI    r2,#1
        0x0001a5be:    2200        ."      MOVLS    r2,#0
        0x0001a5c0:    4251        QB      RSBS     r1,r2,#0
        0x0001a5c2:    eb000081    ....    ADD      r0,r0,r1,LSL #2
        0x0001a5c6:    0191        ..      LSLS     r1,r2,#6
        0x0001a5c8:    3838        88      SUBS     r0,r0,#0x38
        0x0001a5ca:    eb011000    ....    ADD      r0,r1,r0,LSL #4
        0x0001a5ce:    490c        .I      LDR      r1,[pc,#48] ; [0x1a600] = 0x400102c0
        0x0001a5d0:    eb000801    ....    ADD      r8,r0,r1
        0x0001a5d4:    1d09        ..      ADDS     r1,r1,#4
        0x0001a5d6:    1847        G.      ADDS     r7,r0,r1
        0x0001a5d8:    f7fdfec4    ....    BL       am_hal_interrupt_master_disable ; 0x18364
        0x0001a5dc:    9000        ..      STR      r0,[sp,#0]
        0x0001a5de:    2e00        ..      CMP      r6,#0
        0x0001a5e0:    bf14        ..      ITE      NE
        0x0001a5e2:    f8d80000    ....    LDRNE    r0,[r8,#0]
        0x0001a5e6:    f04f30ff    O..0    MOVEQ    r0,#0xffffffff
        0x0001a5ea:    6020         `      STR      r0,[r4,#0]
        0x0001a5ec:    6839        9h      LDR      r1,[r7,#0]
        0x0001a5ee:    4008        .@      ANDS     r0,r0,r1
        0x0001a5f0:    6020         `      STR      r0,[r4,#0]
        0x0001a5f2:    9800        ..      LDR      r0,[sp,#0]
        0x0001a5f4:    f7fdfeba    ....    BL       am_hal_interrupt_master_set ; 0x1836c
        0x0001a5f8:    4628        (F      MOV      r0,r5
        0x0001a5fa:    e8bd83f8    ....    POP      {r3-r9,pc}
    $d
        0x0001a5fe:    0000        ..      DCW    0
        0x0001a600:    400102c0    ...@    DCD    1073808064
    $t
    i.am_hal_gpio_interrupt_register
    am_hal_gpio_interrupt_register
        0x0001a604:    b4f0        ..      PUSH     {r4-r7}
        0x0001a606:    4c18        .L      LDR      r4,[pc,#96] ; [0x1a668] = 0x10008620
        0x0001a608:    ea4f1c51    O.Q.    LSR      r12,r1,#5
        0x0001a60c:    eb0415cc    ....    ADD      r5,r4,r12,LSL #7
        0x0001a610:    f5046480    ...d    ADD      r4,r4,#0x400
        0x0001a614:    eb0414cc    ....    ADD      r4,r4,r12,LSL #7
        0x0001a618:    f0010c1f    ....    AND      r12,r1,#0x1f
        0x0001a61c:    2800        .(      CMP      r0,#0
        0x0001a61e:    bf04        ..      ITT      EQ
        0x0001a620:    f845202c    E.,     STREQ    r2,[r5,r12,LSL #2]
        0x0001a624:    f844302c    D.,0    STREQ    r3,[r4,r12,LSL #2]
        0x0001a628:    d01b        ..      BEQ      0x1a662 ; am_hal_gpio_interrupt_register + 94
        0x0001a62a:    0949        I.      LSRS     r1,r1,#5
        0x0001a62c:    1d0e        ..      ADDS     r6,r1,#4
        0x0001a62e:    490e        .I      LDR      r1,[pc,#56] ; [0x1a668] = 0x10008620
        0x0001a630:    4f0e        .O      LDR      r7,[pc,#56] ; [0x1a66c] = 0x10008a20
        0x0001a632:    eb0111c6    ....    ADD      r1,r1,r6,LSL #7
        0x0001a636:    eb0716c6    ....    ADD      r6,r7,r6,LSL #7
        0x0001a63a:    2801        .(      CMP      r0,#1
        0x0001a63c:    bf04        ..      ITT      EQ
        0x0001a63e:    f841202c    A.,     STREQ    r2,[r1,r12,LSL #2]
        0x0001a642:    f846302c    F.,0    STREQ    r3,[r6,r12,LSL #2]
        0x0001a646:    d00c        ..      BEQ      0x1a662 ; am_hal_gpio_interrupt_register + 94
        0x0001a648:    2802        .(      CMP      r0,#2
        0x0001a64a:    bf1e        ..      ITTT     NE
        0x0001a64c:    2006        .       MOVNE    r0,#6
        0x0001a64e:    bcf0        ..      POPNE    {r4-r7}
        0x0001a650:    4770        pG      BXNE     lr
        0x0001a652:    f845202c    E.,     STR      r2,[r5,r12,LSL #2]
        0x0001a656:    f844302c    D.,0    STR      r3,[r4,r12,LSL #2]
        0x0001a65a:    f841202c    A.,     STR      r2,[r1,r12,LSL #2]
        0x0001a65e:    f846302c    F.,0    STR      r3,[r6,r12,LSL #2]
        0x0001a662:    bcf0        ..      POP      {r4-r7}
        0x0001a664:    2000        .       MOVS     r0,#0
        0x0001a666:    4770        pG      BX       lr
    $d
        0x0001a668:    10008620     ...    DCD    268469792
        0x0001a66c:    10008a20     ...    DCD    268470816
    $t
    i.am_hal_gpio_interrupt_service
    am_hal_gpio_interrupt_service
        0x0001a670:    e92d41f0    -..A    PUSH     {r4-r8,lr}
        0x0001a674:    2500        .%      MOVS     r5,#0
        0x0001a676:    3838        88      SUBS     r0,r0,#0x38
        0x0001a678:    460c        .F      MOV      r4,r1
        0x0001a67a:    2808        .(      CMP      r0,#8
        0x0001a67c:    bf24        $.      ITT      CS
        0x0001a67e:    2005        .       MOVCS    r0,#5
        0x0001a680:    e8bd81f0    ....    POPCS    {r4-r8,pc}
        0x0001a684:    b1d4        ..      CBZ      r4,0x1a6bc ; am_hal_gpio_interrupt_service + 76
        0x0001a686:    2701        .'      MOVS     r7,#1
        0x0001a688:    490e        .I      LDR      r1,[pc,#56] ; [0x1a6c4] = 0x10008620
        0x0001a68a:    eb0116c0    ....    ADD      r6,r1,r0,LSL #7
        0x0001a68e:    f5016180    ...a    ADD      r1,r1,#0x400
        0x0001a692:    eb0118c0    ....    ADD      r8,r1,r0,LSL #7
        0x0001a696:    4260        `B      RSBS     r0,r4,#0
        0x0001a698:    4020         @      ANDS     r0,r0,r4
        0x0001a69a:    fab0f080    ....    CLZ      r0,r0
        0x0001a69e:    f1c0011f    ....    RSB      r1,r0,#0x1f
        0x0001a6a2:    fa07f001    ....    LSL      r0,r7,r1
        0x0001a6a6:    4384        .C      BICS     r4,r4,r0
        0x0001a6a8:    f8562021    V.!     LDR      r2,[r6,r1,LSL #2]
        0x0001a6ac:    f8580021    X.!.    LDR      r0,[r8,r1,LSL #2]
        0x0001a6b0:    2a00        .*      CMP      r2,#0
        0x0001a6b2:    bf0c        ..      ITE      EQ
        0x0001a6b4:    2507        .%      MOVEQ    r5,#7
        0x0001a6b6:    4790        .G      BLXNE    r2
        0x0001a6b8:    2c00        .,      CMP      r4,#0
        0x0001a6ba:    d1ec        ..      BNE      0x1a696 ; am_hal_gpio_interrupt_service + 38
        0x0001a6bc:    4628        (F      MOV      r0,r5
        0x0001a6be:    e8bd81f0    ....    POP      {r4-r8,pc}
    $d
        0x0001a6c2:    0000        ..      DCW    0
        0x0001a6c4:    10008620     ...    DCD    268469792
    $t
    i.am_hal_gpio_pinconfig
    am_hal_gpio_pinconfig
        0x0001a6c8:    b533        3.      PUSH     {r0,r1,r4,r5,lr}
        0x0001a6ca:    4d1b        .M      LDR      r5,[pc,#108] ; [0x1a738] = 0x40010000
        0x0001a6cc:    b081        ..      SUB      sp,sp,#4
        0x0001a6ce:    4604        .F      MOV      r4,r0
        0x0001a6d0:    2880        .(      CMP      r0,#0x80
        0x0001a6d2:    d209        ..      BCS      0x1a6e8 ; am_hal_gpio_pinconfig + 32
        0x0001a6d4:    4819        .H      LDR      r0,[pc,#100] ; [0x1a73c] = 0x1ee2c
        0x0001a6d6:    0961        a.      LSRS     r1,r4,#5
        0x0001a6d8:    f004031f    ....    AND      r3,r4,#0x1f
        0x0001a6dc:    f8502021    P.!     LDR      r2,[r0,r1,LSL #2]
        0x0001a6e0:    2001        .       MOVS     r0,#1
        0x0001a6e2:    4098        .@      LSLS     r0,r0,r3
        0x0001a6e4:    4202        .B      TST      r2,r0
        0x0001a6e6:    d002        ..      BEQ      0x1a6ee ; am_hal_gpio_pinconfig + 38
        0x0001a6e8:    b003        ..      ADD      sp,sp,#0xc
        0x0001a6ea:    2005        .       MOVS     r0,#5
        0x0001a6ec:    bd30        0.      POP      {r4,r5,pc}
        0x0001a6ee:    9a02        ..      LDR      r2,[sp,#8]
        0x0001a6f0:    f3c22281    ..."    UBFX     r2,r2,#10,#2
        0x0001a6f4:    2a01        .*      CMP      r2,#1
        0x0001a6f6:    d907        ..      BLS      0x1a708 ; am_hal_gpio_pinconfig + 64
        0x0001a6f8:    4a11        .J      LDR      r2,[pc,#68] ; [0x1a740] = 0x1ee3c
        0x0001a6fa:    f8521021    R.!.    LDR      r1,[r2,r1,LSL #2]
        0x0001a6fe:    4201        .B      TST      r1,r0
        0x0001a700:    bf02        ..      ITTT     EQ
        0x0001a702:    2007        .       MOVEQ    r0,#7
        0x0001a704:    b003        ..      ADDEQ    sp,sp,#0xc
        0x0001a706:    bd30        0.      POPEQ    {r4,r5,pc}
        0x0001a708:    f7fdfe2c    ..,.    BL       am_hal_interrupt_master_disable ; 0x18364
        0x0001a70c:    9000        ..      STR      r0,[sp,#0]
        0x0001a70e:    2073        s       MOVS     r0,#0x73
        0x0001a710:    f8c50200    ....    STR      r0,[r5,#0x200]
        0x0001a714:    9800        ..      LDR      r0,[sp,#0]
        0x0001a716:    f7fdfe29    ..).    BL       am_hal_interrupt_master_set ; 0x1836c
        0x0001a71a:    9802        ..      LDR      r0,[sp,#8]
        0x0001a71c:    f8450024    E.$.    STR      r0,[r5,r4,LSL #2]
        0x0001a720:    f7fdfe20    .. .    BL       am_hal_interrupt_master_disable ; 0x18364
        0x0001a724:    9000        ..      STR      r0,[sp,#0]
        0x0001a726:    2000        .       MOVS     r0,#0
        0x0001a728:    f8c50200    ....    STR      r0,[r5,#0x200]
        0x0001a72c:    9800        ..      LDR      r0,[sp,#0]
        0x0001a72e:    f7fdfe1d    ....    BL       am_hal_interrupt_master_set ; 0x1836c
        0x0001a732:    b003        ..      ADD      sp,sp,#0xc
        0x0001a734:    2000        .       MOVS     r0,#0
        0x0001a736:    bd30        0.      POP      {r4,r5,pc}
    $d
        0x0001a738:    40010000    ...@    DCD    1073807360
        0x0001a73c:    0001ee2c    ,...    DCD    126508
        0x0001a740:    0001ee3c    <...    DCD    126524
    $t
    i.am_hal_gpio_state_write
    am_hal_gpio_state_write
        0x0001a744:    b538        8.      PUSH     {r3-r5,lr}
        0x0001a746:    f000021f    ....    AND      r2,r0,#0x1f
        0x0001a74a:    2301        .#      MOVS     r3,#1
        0x0001a74c:    fa03f502    ....    LSL      r5,r3,r2
        0x0001a750:    f3c01041    ..A.    UBFX     r0,r0,#5,#2
        0x0001a754:    0080        ..      LSLS     r0,r0,#2
        0x0001a756:    f1004480    ...D    ADD      r4,r0,#0x40000000
        0x0001a75a:    f5043480    ...4    ADD      r4,r4,#0x10000
        0x0001a75e:    2906        .)      CMP      r1,#6
        0x0001a760:    d23f        ?.      BCS      0x1a7e2 ; am_hal_gpio_state_write + 158
        0x0001a762:    e8dff001    ....    TBB      [pc,r1]
    $d
        0x0001a766:    0c03        ..      DCW    3075
        0x0001a768:    332a2115    .!*3    DCD    858398997
    $t
        0x0001a76c:    f7fdfdfa    ....    BL       am_hal_interrupt_master_disable ; 0x18364
        0x0001a770:    9000        ..      STR      r0,[sp,#0]
        0x0001a772:    f8c45234    ..4R    STR      r5,[r4,#0x234]
        0x0001a776:    9800        ..      LDR      r0,[sp,#0]
        0x0001a778:    f7fdfdf8    ....    BL       am_hal_interrupt_master_set ; 0x1836c
        0x0001a77c:    e031        1.      B        0x1a7e2 ; am_hal_gpio_state_write + 158
        0x0001a77e:    f7fdfdf1    ....    BL       am_hal_interrupt_master_disable ; 0x18364
        0x0001a782:    9000        ..      STR      r0,[sp,#0]
        0x0001a784:    f8c45224    ..$R    STR      r5,[r4,#0x224]
        0x0001a788:    9800        ..      LDR      r0,[sp,#0]
        0x0001a78a:    f7fdfdef    ....    BL       am_hal_interrupt_master_set ; 0x1836c
        0x0001a78e:    e028        (.      B        0x1a7e2 ; am_hal_gpio_state_write + 158
        0x0001a790:    f7fdfde8    ....    BL       am_hal_interrupt_master_disable ; 0x18364
        0x0001a794:    9000        ..      STR      r0,[sp,#0]
        0x0001a796:    f8d40214    ....    LDR      r0,[r4,#0x214]
        0x0001a79a:    4068        h@      EORS     r0,r0,r5
        0x0001a79c:    f8c40214    ....    STR      r0,[r4,#0x214]
        0x0001a7a0:    9800        ..      LDR      r0,[sp,#0]
        0x0001a7a2:    f7fdfde3    ....    BL       am_hal_interrupt_master_set ; 0x1836c
        0x0001a7a6:    e01c        ..      B        0x1a7e2 ; am_hal_gpio_state_write + 158
        0x0001a7a8:    f7fdfddc    ....    BL       am_hal_interrupt_master_disable ; 0x18364
        0x0001a7ac:    9000        ..      STR      r0,[sp,#0]
        0x0001a7ae:    f8c45264    ..dR    STR      r5,[r4,#0x264]
        0x0001a7b2:    9800        ..      LDR      r0,[sp,#0]
        0x0001a7b4:    f7fdfdda    ....    BL       am_hal_interrupt_master_set ; 0x1836c
        0x0001a7b8:    e013        ..      B        0x1a7e2 ; am_hal_gpio_state_write + 158
        0x0001a7ba:    f7fdfdd3    ....    BL       am_hal_interrupt_master_disable ; 0x18364
        0x0001a7be:    9000        ..      STR      r0,[sp,#0]
        0x0001a7c0:    f8c45254    ..TR    STR      r5,[r4,#0x254]
        0x0001a7c4:    9800        ..      LDR      r0,[sp,#0]
        0x0001a7c6:    f7fdfdd1    ....    BL       am_hal_interrupt_master_set ; 0x1836c
        0x0001a7ca:    e00a        ..      B        0x1a7e2 ; am_hal_gpio_state_write + 158
        0x0001a7cc:    f7fdfdca    ....    BL       am_hal_interrupt_master_disable ; 0x18364
        0x0001a7d0:    9000        ..      STR      r0,[sp,#0]
        0x0001a7d2:    f8d40244    ..D.    LDR      r0,[r4,#0x244]
        0x0001a7d6:    4068        h@      EORS     r0,r0,r5
        0x0001a7d8:    f8c40244    ..D.    STR      r0,[r4,#0x244]
        0x0001a7dc:    9800        ..      LDR      r0,[sp,#0]
        0x0001a7de:    f7fdfdc5    ....    BL       am_hal_interrupt_master_set ; 0x1836c
        0x0001a7e2:    2000        .       MOVS     r0,#0
        0x0001a7e4:    bd38        8.      POP      {r3-r5,pc}
        0x0001a7e6:    0000        ..      MOVS     r0,r0
    i.am_hal_iom_blocking_transfer
    am_hal_iom_blocking_transfer
        0x0001a7e8:    e92d4ff0    -..O    PUSH     {r4-r11,lr}
        0x0001a7ec:    b087        ..      SUB      sp,sp,#0x1c
        0x0001a7ee:    460c        .F      MOV      r4,r1
        0x0001a7f0:    f1b00800    ....    SUBS     r8,r0,#0
        0x0001a7f4:    f04f0700    O...    MOV      r7,#0
        0x0001a7f8:    bf1c        ..      ITT      NE
        0x0001a7fa:    f8d80000    ....    LDRNE    r0,[r8,#0]
        0x0001a7fe:    f0107f80    ....    TSTNE    r0,#0x1000000
        0x0001a802:    d004        ..      BEQ      0x1a80e ; am_hal_iom_blocking_transfer + 38
        0x0001a804:    49bd        .I      LDR      r1,[pc,#756] ; [0x1aafc] = 0x123456
        0x0001a806:    f020407f     ..@    BIC      r0,r0,#0xff000000
        0x0001a80a:    4288        .B      CMP      r0,r1
        0x0001a80c:    d003        ..      BEQ      0x1a816 ; am_hal_iom_blocking_transfer + 46
        0x0001a80e:    b007        ..      ADD      sp,sp,#0x1c
        0x0001a810:    2002        .       MOVS     r0,#2
        0x0001a812:    e8bd8ff0    ....    POP      {r4-r11,pc}
        0x0001a816:    2c00        .,      CMP      r4,#0
        0x0001a818:    bf02        ..      ITTT     EQ
        0x0001a81a:    2006        .       MOVEQ    r0,#6
        0x0001a81c:    b007        ..      ADDEQ    sp,sp,#0x1c
        0x0001a81e:    e8bd8ff0    ....    POPEQ    {r4-r11,pc}
        0x0001a822:    7d20         }      LDRB     r0,[r4,#0x14]
        0x0001a824:    2801        .(      CMP      r0,#1
        0x0001a826:    d87c        |.      BHI      0x1a922 ; am_hal_iom_blocking_transfer + 314
        0x0001a828:    f8d49010    ....    LDR      r9,[r4,#0x10]
        0x0001a82c:    f1b90f00    ....    CMP      r9,#0
        0x0001a830:    bf04        ..      ITT      EQ
        0x0001a832:    2000        .       MOVEQ    r0,#0
        0x0001a834:    7520         u      STRBEQ   r0,[r4,#0x14]
        0x0001a836:    2201        ."      MOVS     r2,#1
        0x0001a838:    4621        !F      MOV      r1,r4
        0x0001a83a:    4640        @F      MOV      r0,r8
        0x0001a83c:    f004f924    ..$.    BL       validate_transaction ; 0x1ea88
        0x0001a840:    2800        .(      CMP      r0,#0
        0x0001a842:    bf1c        ..      ITT      NE
        0x0001a844:    b007        ..      ADDNE    sp,sp,#0x1c
        0x0001a846:    e8bd8ff0    ....    POPNE    {r4-r11,pc}
        0x0001a84a:    f898082c    ..,.    LDRB     r0,[r8,#0x82c]
        0x0001a84e:    2802        .(      CMP      r0,#2
        0x0001a850:    d067        g.      BEQ      0x1a922 ; am_hal_iom_blocking_transfer + 314
        0x0001a852:    e9d4b002    ....    LDRD     r11,r0,[r4,#8]
        0x0001a856:    f8d85004    ...P    LDR      r5,[r8,#4]
        0x0001a85a:    9004        ..      STR      r0,[sp,#0x10]
        0x0001a85c:    6860        `h      LDR      r0,[r4,#4]
        0x0001a85e:    9002        ..      STR      r0,[sp,#8]
        0x0001a860:    f8940020    .. .    LDRB     r0,[r4,#0x20]
        0x0001a864:    f894a014    ....    LDRB     r10,[r4,#0x14]
        0x0001a868:    2800        .(      CMP      r0,#0
        0x0001a86a:    bf18        ..      IT       NE
        0x0001a86c:    2001        .       MOVNE    r0,#1
        0x0001a86e:    9001        ..      STR      r0,[sp,#4]
        0x0001a870:    f1ba0f00    ....    CMP      r10,#0
        0x0001a874:    bf0c        ..      ITE      EQ
        0x0001a876:    69a6        .i      LDREQ    r6,[r4,#0x18]
        0x0001a878:    69e6        .i      LDRNE    r6,[r4,#0x1c]
        0x0001a87a:    2001        .       MOVS     r0,#1
        0x0001a87c:    9000        ..      STR      r0,[sp,#0]
        0x0001a87e:    2300        .#      MOVS     r3,#0
        0x0001a880:    1e5a        Z.      SUBS     r2,r3,#1
        0x0001a882:    f1080124    ..$.    ADD      r1,r8,#0x24
        0x0001a886:    f8d80860    ..`.    LDR      r0,[r8,#0x860]
        0x0001a88a:    f7fffd57    ..W.    BL       am_hal_delay_us_status_check ; 0x1a33c
        0x0001a88e:    2800        .(      CMP      r0,#0
        0x0001a890:    bf1c        ..      ITT      NE
        0x0001a892:    b007        ..      ADDNE    sp,sp,#0x1c
        0x0001a894:    e8bd8ff0    ....    POPNE    {r4-r11,pc}
        0x0001a898:    2001        .       MOVS     r0,#1
        0x0001a89a:    9000        ..      STR      r0,[sp,#0]
        0x0001a89c:    4898        .H      LDR      r0,[pc,#608] ; [0x1ab00] = 0x40050248
        0x0001a89e:    2304        .#      MOVS     r3,#4
        0x0001a8a0:    eb003105    ...1    ADD      r1,r0,r5,LSL #12
        0x0001a8a4:    9103        ..      STR      r1,[sp,#0xc]
        0x0001a8a6:    2206        ."      MOVS     r2,#6
        0x0001a8a8:    f8d80860    ..`.    LDR      r0,[r8,#0x860]
        0x0001a8ac:    f7fffd46    ..F.    BL       am_hal_delay_us_status_check ; 0x1a33c
        0x0001a8b0:    2800        .(      CMP      r0,#0
        0x0001a8b2:    bf1c        ..      ITT      NE
        0x0001a8b4:    b007        ..      ADDNE    sp,sp,#0x1c
        0x0001a8b6:    e8bd8ff0    ....    POPNE    {r4-r11,pc}
        0x0001a8ba:    0328        (.      LSLS     r0,r5,#12
        0x0001a8bc:    f1004580    ...E    ADD      r5,r0,#0x40000000
        0x0001a8c0:    f50525a0    ...%    ADD      r5,r5,#0x50000
        0x0001a8c4:    f8d50200    ....    LDR      r0,[r5,#0x200]
        0x0001a8c8:    9005        ..      STR      r0,[sp,#0x14]
        0x0001a8ca:    2000        .       MOVS     r0,#0
        0x0001a8cc:    f8c50200    ....    STR      r0,[r5,#0x200]
        0x0001a8d0:    f8d50218    ....    LDR      r0,[r5,#0x218]
        0x0001a8d4:    f0200001     ...    BIC      r0,r0,#1
        0x0001a8d8:    f8c50218    ....    STR      r0,[r5,#0x218]
        0x0001a8dc:    f04f30ff    O..0    MOV      r0,#0xffffffff
        0x0001a8e0:    f8c50208    ....    STR      r0,[r5,#0x208]
        0x0001a8e4:    6820         h      LDR      r0,[r4,#0]
        0x0001a8e6:    f8c502c4    ....    STR      r0,[r5,#0x2c4]
        0x0001a8ea:    f8980008    ....    LDRB     r0,[r8,#8]
        0x0001a8ee:    2800        .(      CMP      r0,#0
        0x0001a8f0:    bf11        ..      ITEEE    NE
        0x0001a8f2:    2000        .       MOVNE    r0,#0
        0x0001a8f4:    6820         h      LDREQ    r0,[r4,#0]
        0x0001a8f6:    f508610a    ...a    ADDEQ    r1,r8,#0x8a0
        0x0001a8fa:    5c40        @\      LDRBEQ   r0,[r0,r1]
        0x0001a8fc:    f8c50124    ..$.    STR      r0,[r5,#0x124]
        0x0001a900:    f8980008    ....    LDRB     r0,[r8,#8]
        0x0001a904:    2800        .(      CMP      r0,#0
        0x0001a906:    bf0c        ..      ITE      EQ
        0x0001a908:    6820         h      LDREQ    r0,[r4,#0]
        0x0001a90a:    2000        .       MOVNE    r0,#0
        0x0001a90c:    f44f1340    O.@.    MOV      r3,#0x300000
        0x0001a910:    ea035000    ...P    AND      r0,r3,r0,LSL #20
        0x0001a914:    4b7b        {K      LDR      r3,[pc,#492] ; [0x1ab04] = 0xfffff
        0x0001a916:    ea032309    ...#    AND      r3,r3,r9,LSL #8
        0x0001a91a:    4318        .C      ORRS     r0,r0,r3
        0x0001a91c:    f8df91e8    ....    LDR      r9,[pc,#488] ; [0x1ab08] = 0x7a120
        0x0001a920:    e000        ..      B        0x1a924 ; am_hal_iom_blocking_transfer + 316
        0x0001a922:    e04f        O.      B        0x1a9c4 ; am_hal_iom_blocking_transfer + 476
        0x0001a924:    e9dd2101    ...!    LDRD     r2,r1,[sp,#4]
        0x0001a928:    f1ba0f01    ....    CMP      r10,#1
        0x0001a92c:    bf0c        ..      ITE      EQ
        0x0001a92e:    f0400002    @...    ORREQ    r0,r0,#2
        0x0001a932:    f0400001    @...    ORRNE    r0,r0,#1
        0x0001a936:    f04f0380    O...    MOV      r3,#0x80
        0x0001a93a:    ea0312c2    ....    AND      r2,r3,r2,LSL #7
        0x0001a93e:    ea420000    B...    ORR      r0,r2,r0
        0x0001a942:    f04f0270    O.p.    MOV      r2,#0x70
        0x0001a946:    ea40600b    @..`    ORR      r0,r0,r11,LSL #24
        0x0001a94a:    ea021101    ....    AND      r1,r2,r1,LSL #4
        0x0001a94e:    ea410000    A...    ORR      r0,r1,r0
        0x0001a952:    9904        ..      LDR      r1,[sp,#0x10]
        0x0001a954:    ea4f221b    O.."    LSR      r2,r11,#8
        0x0001a958:    ea426101    B..a    ORR      r1,r2,r1,LSL #24
        0x0001a95c:    f8c51128    ..(.    STR      r1,[r5,#0x128]
        0x0001a960:    6924        $i      LDR      r4,[r4,#0x10]
        0x0001a962:    d008        ..      BEQ      0x1a976 ; am_hal_iom_blocking_transfer + 398
        0x0001a964:    f1ba0f00    ....    CMP      r10,#0
        0x0001a968:    bf04        ..      ITT      EQ
        0x0001a96a:    f8d51100    ....    LDREQ    r1,[r5,#0x100]
        0x0001a96e:    f3c12107    ...!    UBFXEQ   r1,r1,#8,#8
        0x0001a972:    d05a        Z.      BEQ      0x1aa2a ; am_hal_iom_blocking_transfer + 578
        0x0001a974:    e08d        ..      B        0x1aa92 ; am_hal_iom_blocking_transfer + 682
        0x0001a976:    f8c50120    .. .    STR      r0,[r5,#0x120]
        0x0001a97a:    2c00        .,      CMP      r4,#0
        0x0001a97c:    d047        G.      BEQ      0x1aa0e ; am_hal_iom_blocking_transfer + 550
        0x0001a97e:    bf00        ..      NOP      
        0x0001a980:    f8d50100    ....    LDR      r0,[r5,#0x100]
        0x0001a984:    f3c04307    ...C    UBFX     r3,r0,#16,#8
        0x0001a988:    2b04        .+      CMP      r3,#4
        0x0001a98a:    bf38        8.      IT       CC
        0x0001a98c:    f04f0a01    O...    MOVCC    r10,#1
        0x0001a990:    d23b        ;.      BCS      0x1aa0a ; am_hal_iom_blocking_transfer + 546
        0x0001a992:    2f00        ./      CMP      r7,#0
        0x0001a994:    bf18        ..      IT       NE
        0x0001a996:    429c        .B      CMPNE    r4,r3
        0x0001a998:    d811        ..      BHI      0x1a9be ; am_hal_iom_blocking_transfer + 470
        0x0001a99a:    2001        .       MOVS     r0,#1
        0x0001a99c:    f7fffc8c    ....    BL       am_hal_delay_us ; 0x1a2b8
        0x0001a9a0:    f8d50204    ....    LDR      r0,[r5,#0x204]
        0x0001a9a4:    f0000701    ....    AND      r7,r0,#1
        0x0001a9a8:    f8d50100    ....    LDR      r0,[r5,#0x100]
        0x0001a9ac:    f3c04307    ...C    UBFX     r3,r0,#16,#8
        0x0001a9b0:    2b04        .+      CMP      r3,#4
        0x0001a9b2:    d22a        *.      BCS      0x1aa0a ; am_hal_iom_blocking_transfer + 546
        0x0001a9b4:    4650        PF      MOV      r0,r10
        0x0001a9b6:    f10a0a01    ....    ADD      r10,r10,#1
        0x0001a9ba:    4548        HE      CMP      r0,r9
        0x0001a9bc:    d3e9        ..      BCC      0x1a992 ; am_hal_iom_blocking_transfer + 426
        0x0001a9be:    2b04        .+      CMP      r3,#4
        0x0001a9c0:    d367        g.      BCC      0x1aa92 ; am_hal_iom_blocking_transfer + 682
        0x0001a9c2:    e022        ".      B        0x1aa0a ; am_hal_iom_blocking_transfer + 546
        0x0001a9c4:    b007        ..      ADD      sp,sp,#0x1c
        0x0001a9c6:    2007        .       MOVS     r0,#7
        0x0001a9c8:    e8bd8ff0    ....    POP      {r4-r11,pc}
        0x0001a9cc:    f8d51108    ....    LDR      r1,[r5,#0x108]
        0x0001a9d0:    1f1b        ..      SUBS     r3,r3,#4
        0x0001a9d2:    2c04        .,      CMP      r4,#4
        0x0001a9d4:    d303        ..      BCC      0x1a9de ; am_hal_iom_blocking_transfer + 502
        0x0001a9d6:    f8461b04    F...    STR      r1,[r6],#4
        0x0001a9da:    1f24        $.      SUBS     r4,r4,#4
        0x0001a9dc:    e013        ..      B        0x1aa06 ; am_hal_iom_blocking_transfer + 542
        0x0001a9de:    2c01        .,      CMP      r4,#1
        0x0001a9e0:    bfd8        ..      IT       LE
        0x0001a9e2:    2401        .$      MOVLE    r4,#1
        0x0001a9e4:    1e72        r.      SUBS     r2,r6,#1
        0x0001a9e6:    f0140f01    ....    TST      r4,#1
        0x0001a9ea:    d002        ..      BEQ      0x1a9f2 ; am_hal_iom_blocking_transfer + 522
        0x0001a9ec:    f8021f01    ....    STRB     r1,[r2,#1]!
        0x0001a9f0:    0a09        ..      LSRS     r1,r1,#8
        0x0001a9f2:    1060        `.      ASRS     r0,r4,#1
        0x0001a9f4:    d006        ..      BEQ      0x1aa04 ; am_hal_iom_blocking_transfer + 540
        0x0001a9f6:    7051        Qp      STRB     r1,[r2,#1]
        0x0001a9f8:    0a09        ..      LSRS     r1,r1,#8
        0x0001a9fa:    f8021f02    ....    STRB     r1,[r2,#2]!
        0x0001a9fe:    0a09        ..      LSRS     r1,r1,#8
        0x0001aa00:    1e40        @.      SUBS     r0,r0,#1
        0x0001aa02:    d1f8        ..      BNE      0x1a9f6 ; am_hal_iom_blocking_transfer + 526
        0x0001aa04:    2400        .$      MOVS     r4,#0
        0x0001aa06:    2b04        .+      CMP      r3,#4
        0x0001aa08:    d302        ..      BCC      0x1aa10 ; am_hal_iom_blocking_transfer + 552
        0x0001aa0a:    2c00        .,      CMP      r4,#0
        0x0001aa0c:    d1de        ..      BNE      0x1a9cc ; am_hal_iom_blocking_transfer + 484
        0x0001aa0e:    e040        @.      B        0x1aa92 ; am_hal_iom_blocking_transfer + 682
        0x0001aa10:    2c00        .,      CMP      r4,#0
        0x0001aa12:    d1b5        ..      BNE      0x1a980 ; am_hal_iom_blocking_transfer + 408
        0x0001aa14:    e03d        =.      B        0x1aa92 ; am_hal_iom_blocking_transfer + 682
        0x0001aa16:    bf00        ..      NOP      
        0x0001aa18:    f8562b04    V..+    LDR      r2,[r6],#4
        0x0001aa1c:    f8c5210c    ...!    STR      r2,[r5,#0x10c]
        0x0001aa20:    1f09        ..      SUBS     r1,r1,#4
        0x0001aa22:    2c04        .,      CMP      r4,#4
        0x0001aa24:    bf2c        ,.      ITE      CS
        0x0001aa26:    1f24        $.      SUBCS    r4,r4,#4
        0x0001aa28:    2400        .$      MOVCC    r4,#0
        0x0001aa2a:    2904        .)      CMP      r1,#4
        0x0001aa2c:    d304        ..      BCC      0x1aa38 ; am_hal_iom_blocking_transfer + 592
        0x0001aa2e:    2c00        .,      CMP      r4,#0
        0x0001aa30:    d1f2        ..      BNE      0x1aa18 ; am_hal_iom_blocking_transfer + 560
        0x0001aa32:    f8c50120    .. .    STR      r0,[r5,#0x120]
        0x0001aa36:    e02c        ,.      B        0x1aa92 ; am_hal_iom_blocking_transfer + 682
        0x0001aa38:    f8c50120    .. .    STR      r0,[r5,#0x120]
        0x0001aa3c:    b34c        L.      CBZ      r4,0x1aa92 ; am_hal_iom_blocking_transfer + 682
        0x0001aa3e:    f8d50100    ....    LDR      r0,[r5,#0x100]
        0x0001aa42:    2700        .'      MOVS     r7,#0
        0x0001aa44:    f3c02007    ...     UBFX     r0,r0,#8,#8
        0x0001aa48:    2804        .(      CMP      r0,#4
        0x0001aa4a:    d214        ..      BCS      0x1aa76 ; am_hal_iom_blocking_transfer + 654
        0x0001aa4c:    f8d51204    ....    LDR      r1,[r5,#0x204]
        0x0001aa50:    f0110f01    ....    TST      r1,#1
        0x0001aa54:    d11d        ..      BNE      0x1aa92 ; am_hal_iom_blocking_transfer + 682
        0x0001aa56:    4639        9F      MOV      r1,r7
        0x0001aa58:    1c7f        ..      ADDS     r7,r7,#1
        0x0001aa5a:    4549        IE      CMP      r1,r9
        0x0001aa5c:    d209        ..      BCS      0x1aa72 ; am_hal_iom_blocking_transfer + 650
        0x0001aa5e:    2001        .       MOVS     r0,#1
        0x0001aa60:    f7fffc2a    ..*.    BL       am_hal_delay_us ; 0x1a2b8
        0x0001aa64:    f8d50100    ....    LDR      r0,[r5,#0x100]
        0x0001aa68:    f3c02007    ...     UBFX     r0,r0,#8,#8
        0x0001aa6c:    2804        .(      CMP      r0,#4
        0x0001aa6e:    d3ed        ..      BCC      0x1aa4c ; am_hal_iom_blocking_transfer + 612
        0x0001aa70:    e001        ..      B        0x1aa76 ; am_hal_iom_blocking_transfer + 654
        0x0001aa72:    2804        .(      CMP      r0,#4
        0x0001aa74:    d30d        ..      BCC      0x1aa92 ; am_hal_iom_blocking_transfer + 682
        0x0001aa76:    b164        d.      CBZ      r4,0x1aa92 ; am_hal_iom_blocking_transfer + 682
        0x0001aa78:    f8561b04    V...    LDR      r1,[r6],#4
        0x0001aa7c:    f8c5110c    ....    STR      r1,[r5,#0x10c]
        0x0001aa80:    1f00        ..      SUBS     r0,r0,#4
        0x0001aa82:    2c04        .,      CMP      r4,#4
        0x0001aa84:    bf2c        ,.      ITE      CS
        0x0001aa86:    1f24        $.      SUBCS    r4,r4,#4
        0x0001aa88:    2400        .$      MOVCC    r4,#0
        0x0001aa8a:    2804        .(      CMP      r0,#4
        0x0001aa8c:    d2f3        ..      BCS      0x1aa76 ; am_hal_iom_blocking_transfer + 654
        0x0001aa8e:    2c00        .,      CMP      r4,#0
        0x0001aa90:    d1d5        ..      BNE      0x1aa3e ; am_hal_iom_blocking_transfer + 598
        0x0001aa92:    2001        .       MOVS     r0,#1
        0x0001aa94:    9000        ..      STR      r0,[sp,#0]
        0x0001aa96:    2304        .#      MOVS     r3,#4
        0x0001aa98:    2206        ."      MOVS     r2,#6
        0x0001aa9a:    4648        HF      MOV      r0,r9
        0x0001aa9c:    9903        ..      LDR      r1,[sp,#0xc]
        0x0001aa9e:    f7fffc4d    ..M.    BL       am_hal_delay_us_status_check ; 0x1a33c
        0x0001aaa2:    0006        ..      MOVS     r6,r0
        0x0001aaa4:    d011        ..      BEQ      0x1aaca ; am_hal_iom_blocking_transfer + 738
        0x0001aaa6:    bf00        ..      NOP      
        0x0001aaa8:    f8d51204    ....    LDR      r1,[r5,#0x204]
        0x0001aaac:    4640        @F      MOV      r0,r8
        0x0001aaae:    f003f903    ....    BL       internal_iom_reset_on_error ; 0x1dcb8
        0x0001aab2:    bf00        ..      NOP      
        0x0001aab4:    f04f30ff    O..0    MOV      r0,#0xffffffff
        0x0001aab8:    f8c50208    ....    STR      r0,[r5,#0x208]
        0x0001aabc:    9805        ..      LDR      r0,[sp,#0x14]
        0x0001aabe:    f8c50200    ....    STR      r0,[r5,#0x200]
        0x0001aac2:    b007        ..      ADD      sp,sp,#0x1c
        0x0001aac4:    4630        0F      MOV      r0,r6
        0x0001aac6:    e8bd8ff0    ....    POP      {r4-r11,pc}
        0x0001aaca:    f8d50204    ....    LDR      r0,[r5,#0x204]
        0x0001aace:    f0100f6c    ..l.    TST      r0,#0x6c
        0x0001aad2:    bf18        ..      IT       NE
        0x0001aad4:    f04f6600    O..f    MOVNE    r6,#0x8000000
        0x0001aad8:    d1e6        ..      BNE      0x1aaa8 ; am_hal_iom_blocking_transfer + 704
        0x0001aada:    f4107f00    ....    TST      r0,#0x200
        0x0001aade:    bf18        ..      IT       NE
        0x0001aae0:    4e0a        .N      LDRNE    r6,[pc,#40] ; [0x1ab0c] = 0x8000001
        0x0001aae2:    d1e1        ..      BNE      0x1aaa8 ; am_hal_iom_blocking_transfer + 704
        0x0001aae4:    f0100f10    ....    TST      r0,#0x10
        0x0001aae8:    bf18        ..      IT       NE
        0x0001aaea:    4e09        .N      LDRNE    r6,[pc,#36] ; [0x1ab10] = 0x8000002
        0x0001aaec:    d1dc        ..      BNE      0x1aaa8 ; am_hal_iom_blocking_transfer + 704
        0x0001aaee:    f4104f90    ...O    TST      r0,#0x4800
        0x0001aaf2:    bf0c        ..      ITE      EQ
        0x0001aaf4:    2c00        .,      CMPEQ    r4,#0
        0x0001aaf6:    2601        .&      MOVNE    r6,#1
        0x0001aaf8:    d1d6        ..      BNE      0x1aaa8 ; am_hal_iom_blocking_transfer + 704
        0x0001aafa:    e7db        ..      B        0x1aab4 ; am_hal_iom_blocking_transfer + 716
    $d
        0x0001aafc:    00123456    V4..    DCD    1193046
        0x0001ab00:    40050248    H..@    DCD    1074070088
        0x0001ab04:    000fffff    ....    DCD    1048575
        0x0001ab08:    0007a120     ...    DCD    500000
        0x0001ab0c:    08000001    ....    DCD    134217729
        0x0001ab10:    08000002    ....    DCD    134217730
    $t
    i.am_hal_iom_configure
    am_hal_iom_configure
        0x0001ab14:    e92d4ff0    -..O    PUSH     {r4-r11,lr}
        0x0001ab18:    1e02        ..      SUBS     r2,r0,#0
        0x0001ab1a:    bf1c        ..      ITT      NE
        0x0001ab1c:    6813        .h      LDRNE    r3,[r2,#0]
        0x0001ab1e:    f0137f80    ....    TSTNE    r3,#0x1000000
        0x0001ab22:    d005        ..      BEQ      0x1ab30 ; am_hal_iom_configure + 28
        0x0001ab24:    f8dfc2a4    ....    LDR      r12,[pc,#676] ; [0x1adcc] = 0x123456
        0x0001ab28:    f023407f    #..@    BIC      r0,r3,#0xff000000
        0x0001ab2c:    4560        `E      CMP      r0,r12
        0x0001ab2e:    d002        ..      BEQ      0x1ab36 ; am_hal_iom_configure + 34
        0x0001ab30:    2002        .       MOVS     r0,#2
        0x0001ab32:    e8bd8ff0    ....    POP      {r4-r11,pc}
        0x0001ab36:    2900        .)      CMP      r1,#0
        0x0001ab38:    bf1c        ..      ITT      NE
        0x0001ab3a:    6850        Ph      LDRNE    r0,[r2,#4]
        0x0001ab3c:    2808        .(      CMPNE    r0,#8
        0x0001ab3e:    d22e        ..      BCS      0x1ab9e ; am_hal_iom_configure + 138
        0x0001ab40:    f0137f00    ....    TST      r3,#0x2000000
        0x0001ab44:    bf1c        ..      ITT      NE
        0x0001ab46:    2007        .       MOVNE    r0,#7
        0x0001ab48:    e8bd8ff0    ....    POPNE    {r4-r11,pc}
        0x0001ab4c:    780b        .x      LDRB     r3,[r1,#0]
        0x0001ab4e:    0300        ..      LSLS     r0,r0,#12
        0x0001ab50:    f1004680    ...F    ADD      r6,r0,#0x40000000
        0x0001ab54:    7213        .r      STRB     r3,[r2,#8]
        0x0001ab56:    f50626a0    ...&    ADD      r6,r6,#0x50000
        0x0001ab5a:    f2410310    A...    MOV      r3,#0x1010
        0x0001ab5e:    f8c63104    ...1    STR      r3,[r6,#0x104]
        0x0001ab62:    7808        .x      LDRB     r0,[r1,#0]
        0x0001ab64:    b1f0        ..      CBZ      r0,0x1aba4 ; am_hal_iom_configure + 144
        0x0001ab66:    2801        .(      CMP      r0,#1
        0x0001ab68:    bf1c        ..      ITT      NE
        0x0001ab6a:    2005        .       MOVNE    r0,#5
        0x0001ab6c:    e8bd8ff0    ....    POPNE    {r4-r11,pc}
        0x0001ab70:    6848        Hh      LDR      r0,[r1,#4]
        0x0001ab72:    f5a060d4    ...`    SUB      r0,r0,#0x6a0
        0x0001ab76:    f5b030c0    ...0    SUBS     r0,r0,#0x18000
        0x0001ab7a:    bf04        ..      ITT      EQ
        0x0001ab7c:    4b94        .K      LDREQ    r3,[pc,#592] ; [0x1add0] = 0x773b1301
        0x0001ab7e:    4895        .H      LDREQ    r0,[pc,#596] ; [0x1add4] = 0x3f070
        0x0001ab80:    f00080d6    ....    BEQ.W    0x1ad30 ; am_hal_iom_configure + 540
        0x0001ab84:    f5a0509f    ...P    SUB      r0,r0,#0x13e0
        0x0001ab88:    f5b02090    ...     SUBS     r0,r0,#0x48000
        0x0001ab8c:    bf04        ..      ITT      EQ
        0x0001ab8e:    4b92        .K      LDREQ    r3,[pc,#584] ; [0x1add8] = 0x1d0e1301
        0x0001ab90:    4892        .H      LDREQ    r0,[pc,#584] ; [0x1addc] = 0x3f270
        0x0001ab92:    d07c        |.      BEQ      0x1ac8e ; am_hal_iom_configure + 378
        0x0001ab94:    f5a0501f    ...P    SUB      r0,r0,#0x27c0
        0x0001ab98:    f5b02f10    .../    CMP      r0,#0x90000
        0x0001ab9c:    d078        x.      BEQ      0x1ac90 ; am_hal_iom_configure + 380
        0x0001ab9e:    2006        .       MOVS     r0,#6
        0x0001aba0:    e8bd8ff0    ....    POP      {r4-r11,pc}
        0x0001aba4:    7a0f        .z      LDRB     r7,[r1,#8]
        0x0001aba6:    2f03        ./      CMP      r7,#3
        0x0001aba8:    d8f9        ..      BHI      0x1ab9e ; am_hal_iom_configure + 138
        0x0001abaa:    488d        .H      LDR      r0,[pc,#564] ; [0x1ade0] = 0x2dc6c00
        0x0001abac:    684b        Kh      LDR      r3,[r1,#4]
        0x0001abae:    4283        .B      CMP      r3,r0
        0x0001abb0:    d8f5        ..      BHI      0x1ab9e ; am_hal_iom_configure + 138
        0x0001abb2:    f3c70940    ..@.    UBFX     r9,r7,#1,#1
        0x0001abb6:    2b00        .+      CMP      r3,#0
        0x0001abb8:    d06b        k.      BEQ      0x1ac92 ; am_hal_iom_configure + 382
        0x0001abba:    0040        @.      LSLS     r0,r0,#1
        0x0001abbc:    fbb0fcf3    ....    UDIV     r12,r0,r3
        0x0001abc0:    fbb0f4f3    ....    UDIV     r4,r0,r3
        0x0001abc4:    fb030014    ....    MLS      r0,r3,r4,r0
        0x0001abc8:    2800        .(      CMP      r0,#0
        0x0001abca:    bf18        ..      IT       NE
        0x0001abcc:    2001        .       MOVNE    r0,#1
        0x0001abce:    eb0c0400    ....    ADD      r4,r12,r0
        0x0001abd2:    4260        `B      RSBS     r0,r4,#0
        0x0001abd4:    4020         @      ANDS     r0,r0,r4
        0x0001abd6:    fab0f080    ....    CLZ      r0,r0
        0x0001abda:    f1c00c1f    ....    RSB      r12,r0,#0x1f
        0x0001abde:    f1bc0f06    ....    CMP      r12,#6
        0x0001abe2:    f30080ef    ....    BGT.W    0x1adc4 ; am_hal_iom_configure + 688
        0x0001abe6:    bf00        ..      NOP      
        0x0001abe8:    f24160e3    A..`    MOV      r0,#0x16e3
        0x0001abec:    4283        .B      CMP      r3,r0
        0x0001abee:    d309        ..      BCC      0x1ac04 ; am_hal_iom_configure + 240
        0x0001abf0:    f1a370f4    ...p    SUB      r0,r3,#0x1e80000
        0x0001abf4:    4d7b        {M      LDR      r5,[pc,#492] ; [0x1ade4] = 0xf423ff
        0x0001abf6:    f5a04090    ...@    SUB      r0,r0,#0x4800
        0x0001abfa:    4285        .B      CMP      r5,r0
        0x0001abfc:    bf38        8.      IT       CC
        0x0001abfe:    f04f0a00    O...    MOVCC    r10,#0
        0x0001ac02:    d301        ..      BCC      0x1ac08 ; am_hal_iom_configure + 244
        0x0001ac04:    f04f0a01    O...    MOV      r10,#1
        0x0001ac08:    2001        .       MOVS     r0,#1
        0x0001ac0a:    eb00084a    ..J.    ADD      r8,r0,r10,LSL #1
        0x0001ac0e:    fa08f00c    ....    LSL      r0,r8,r12
        0x0001ac12:    fbb4f5f0    ....    UDIV     r5,r4,r0
        0x0001ac16:    fbb4fbf0    ....    UDIV     r11,r4,r0
        0x0001ac1a:    fb00401b    ...@    MLS      r0,r0,r11,r4
        0x0001ac1e:    2800        .(      CMP      r0,#0
        0x0001ac20:    bf18        ..      IT       NE
        0x0001ac22:    2001        .       MOVNE    r0,#1
        0x0001ac24:    4428        (D      ADD      r0,r0,r5
        0x0001ac26:    fab0f580    ....    CLZ      r5,r0
        0x0001ac2a:    f1c5051f    ....    RSB      r5,r5,#0x1f
        0x0001ac2e:    2d07        .-      CMP      r5,#7
        0x0001ac30:    bf84        ..      ITT      HI
        0x0001ac32:    44ac        .D      ADDHI    r12,r12,r5
        0x0001ac34:    f1ac0c07    ....    SUBHI    r12,r12,#7
        0x0001ac38:    f10c0c01    ....    ADD      r12,r12,#1
        0x0001ac3c:    f1bc0f07    ....    CMP      r12,#7
        0x0001ac40:    bf88        ..      IT       HI
        0x0001ac42:    2300        .#      MOVHI    r3,#0
        0x0001ac44:    d86f        o.      BHI      0x1ad26 ; am_hal_iom_configure + 530
        0x0001ac46:    2d07        .-      CMP      r5,#7
        0x0001ac48:    d90e        ..      BLS      0x1ac68 ; am_hal_iom_configure + 340
        0x0001ac4a:    1fed        ..      SUBS     r5,r5,#7
        0x0001ac4c:    fa20fb05     ...    LSR      r11,r0,r5
        0x0001ac50:    f04f0e01    O...    MOV      lr,#1
        0x0001ac54:    fa0ef505    ....    LSL      r5,lr,r5
        0x0001ac58:    fbb0fef5    ....    UDIV     lr,r0,r5
        0x0001ac5c:    fb05001e    ....    MLS      r0,r5,lr,r0
        0x0001ac60:    2800        .(      CMP      r0,#0
        0x0001ac62:    bf18        ..      IT       NE
        0x0001ac64:    2001        .       MOVNE    r0,#1
        0x0001ac66:    4458        XD      ADD      r0,r0,r11
        0x0001ac68:    4d5f        _M      LDR      r5,[pc,#380] ; [0x1ade8] = 0x16e3600
        0x0001ac6a:    42ab        .B      CMP      r3,r5
        0x0001ac6c:    d207        ..      BCS      0x1ac7e ; am_hal_iom_configure + 362
        0x0001ac6e:    f1ac0501    ....    SUB      r5,r12,#1
        0x0001ac72:    2301        .#      MOVS     r3,#1
        0x0001ac74:    40ab        .@      LSLS     r3,r3,r5
        0x0001ac76:    42a3        .B      CMP      r3,r4
        0x0001ac78:    bf18        ..      IT       NE
        0x0001ac7a:    2401        .$      MOVNE    r4,#1
        0x0001ac7c:    d100        ..      BNE      0x1ac80 ; am_hal_iom_configure + 364
        0x0001ac7e:    2400        .$      MOVS     r4,#0
        0x0001ac80:    f1b90f00    ....    CMP      r9,#0
        0x0001ac84:    bf14        ..      ITE      NE
        0x0001ac86:    1e83        ..      SUBNE    r3,r0,#2
        0x0001ac88:    1e43        C.      SUBEQ    r3,r0,#1
        0x0001ac8a:    085b        [.      LSRS     r3,r3,#1
        0x0001ac8c:    e002        ..      B        0x1ac94 ; am_hal_iom_configure + 384
        0x0001ac8e:    e04f        O.      B        0x1ad30 ; am_hal_iom_configure + 540
        0x0001ac90:    e051        Q.      B        0x1ad36 ; am_hal_iom_configure + 546
        0x0001ac92:    e048        H.      B        0x1ad26 ; am_hal_iom_configure + 530
        0x0001ac94:    f44f65e0    O..e    MOV      r5,#0x700
        0x0001ac98:    ea05290c    ...)    AND      r9,r5,r12,LSL #8
        0x0001ac9c:    f44f6500    O..e    MOV      r5,#0x800
        0x0001aca0:    ea0525ca    ...%    AND      r5,r5,r10,LSL #11
        0x0001aca4:    f44f5a80    O..Z    MOV      r10,#0x1000
        0x0001aca8:    ea490505    I...    ORR      r5,r9,r5
        0x0001acac:    ea0a3a04    ...:    AND      r10,r10,r4,LSL #12
        0x0001acb0:    ea45050a    E...    ORR      r5,r5,r10
        0x0001acb4:    f44f0a7f    O...    MOV      r10,#0xff0000
        0x0001acb8:    ea0a4303    ...C    AND      r3,r10,r3,LSL #16
        0x0001acbc:    432b        +C      ORRS     r3,r3,r5
        0x0001acbe:    f04f457f    O..E    MOV      r5,#0xff000000
        0x0001acc2:    eb056500    ...e    ADD      r5,r5,r0,LSL #24
        0x0001acc6:    f1ac0c01    ....    SUB      r12,r12,#1
        0x0001acca:    fa08f80c    ....    LSL      r8,r8,r12
        0x0001acce:    1e40        @.      SUBS     r0,r0,#1
        0x0001acd0:    432b        +C      ORRS     r3,r3,r5
        0x0001acd2:    4360        `C      MULS     r0,r4,r0
        0x0001acd4:    4d45        EM      LDR      r5,[pc,#276] ; [0x1adec] = 0x5b8d800
        0x0001acd6:    1c40        @.      ADDS     r0,r0,#1
        0x0001acd8:    fb08f000    ....    MUL      r0,r8,r0
        0x0001acdc:    fbb5f8f0    ....    UDIV     r8,r5,r0
        0x0001ace0:    fbb5f4f0    ....    UDIV     r4,r5,r0
        0x0001ace4:    fb005818    ...X    MLS      r8,r0,r8,r5
        0x0001ace8:    ebb80f50    ..P.    CMP      r8,r0,LSR #1
        0x0001acec:    bf8c        ..      ITE      HI
        0x0001acee:    2001        .       MOVHI    r0,#1
        0x0001acf0:    2000        .       MOVLS    r0,#0
        0x0001acf2:    4404        .D      ADD      r4,r4,r0
        0x0001acf4:    483e        >H      LDR      r0,[pc,#248] ; [0x1adf0] = 0x3d090
        0x0001acf6:    fbb4f8f0    ....    UDIV     r8,r4,r0
        0x0001acfa:    fb004818    ...H    MLS      r8,r0,r8,r4
        0x0001acfe:    f1b80f00    ....    CMP      r8,#0
        0x0001ad02:    d110        ..      BNE      0x1ad26 ; am_hal_iom_configure + 530
        0x0001ad04:    fbb4f0f0    ....    UDIV     r0,r4,r0
        0x0001ad08:    b168        h.      CBZ      r0,0x1ad26 ; am_hal_iom_configure + 530
        0x0001ad0a:    f1a00801    ....    SUB      r8,r0,#1
        0x0001ad0e:    ea100f08    ....    TST      r0,r8
        0x0001ad12:    d108        ..      BNE      0x1ad26 ; am_hal_iom_configure + 530
        0x0001ad14:    2003        .       MOVS     r0,#3
        0x0001ad16:    fa00f00c    ....    LSL      r0,r0,r12
        0x0001ad1a:    fbb5f3f0    ....    UDIV     r3,r5,r0
        0x0001ad1e:    fbb5fcf0    ....    UDIV     r12,r5,r0
        0x0001ad22:    f4496300    I..c    ORR      r3,r9,#0x800
        0x0001ad26:    f0070003    ....    AND      r0,r7,#3
        0x0001ad2a:    f8c60280    ....    STR      r0,[r6,#0x280]
        0x0001ad2e:    e006        ..      B        0x1ad3e ; am_hal_iom_configure + 554
        0x0001ad30:    f8c602c0    ....    STR      r0,[r6,#0x2c0]
        0x0001ad34:    e003        ..      B        0x1ad3e ; am_hal_iom_configure + 554
        0x0001ad36:    4b2f        /K      LDR      r3,[pc,#188] ; [0x1adf4] = 0xb051301
        0x0001ad38:    482f        /H      LDR      r0,[pc,#188] ; [0x1adf8] = 0x23040
        0x0001ad3a:    f8c602c0    ....    STR      r0,[r6,#0x2c0]
        0x0001ad3e:    f0430001    C...    ORR      r0,r3,#1
        0x0001ad42:    f8c60118    ....    STR      r0,[r6,#0x118]
        0x0001ad46:    4b2d        -K      LDR      r3,[pc,#180] ; [0x1adfc] = 0xf4240
        0x0001ad48:    6848        Hh      LDR      r0,[r1,#4]
        0x0001ad4a:    fbb3f0f0    ....    UDIV     r0,r3,r0
        0x0001ad4e:    f8c20864    ..d.    STR      r0,[r2,#0x864]
        0x0001ad52:    f44f707a    O.zp    MOV      r0,#0x3e8
        0x0001ad56:    f8c20860    ..`.    STR      r0,[r2,#0x860]
        0x0001ad5a:    68c8        .h      LDR      r0,[r1,#0xc]
        0x0001ad5c:    60d0        .`      STR      r0,[r2,#0xc]
        0x0001ad5e:    6909        .i      LDR      r1,[r1,#0x10]
        0x0001ad60:    6111        .a      STR      r1,[r2,#0x10]
        0x0001ad62:    b348        H.      CBZ      r0,0x1adb8 ; am_hal_iom_configure + 676
        0x0001ad64:    eb000081    ....    ADD      r0,r0,r1,LSL #2
        0x0001ad68:    4925        %I      LDR      r1,[pc,#148] ; [0x1ae00] = 0x10060000
        0x0001ad6a:    4288        .B      CMP      r0,r1
        0x0001ad6c:    bf2c        ,.      ITE      CS
        0x0001ad6e:    2000        .       MOVCS    r0,#0
        0x0001ad70:    2001        .       MOVCC    r0,#1
        0x0001ad72:    f88208a4    ....    STRB     r0,[r2,#0x8a4]
        0x0001ad76:    2800        .(      CMP      r0,#0
        0x0001ad78:    bf18        ..      IT       NE
        0x0001ad7a:    6910        .i      LDRNE    r0,[r2,#0x10]
        0x0001ad7c:    d10d        ..      BNE      0x1ad9a ; am_hal_iom_configure + 646
        0x0001ad7e:    68d1        .h      LDR      r1,[r2,#0xc]
        0x0001ad80:    6913        .i      LDR      r3,[r2,#0x10]
        0x0001ad82:    f101000f    ....    ADD      r0,r1,#0xf
        0x0001ad86:    f020000f     ...    BIC      r0,r0,#0xf
        0x0001ad8a:    f001010f    ....    AND      r1,r1,#0xf
        0x0001ad8e:    ebc10183    ....    RSB      r1,r1,r3,LSL #2
        0x0001ad92:    60d0        .`      STR      r0,[r2,#0xc]
        0x0001ad94:    0908        ..      LSRS     r0,r1,#4
        0x0001ad96:    0080        ..      LSLS     r0,r0,#2
        0x0001ad98:    6110        .a      STR      r0,[r2,#0x10]
        0x0001ad9a:    0080        ..      LSLS     r0,r0,#2
        0x0001ad9c:    4919        .I      LDR      r1,[pc,#100] ; [0x1ae04] = 0xaaaaaaab
        0x0001ad9e:    3820         8      SUBS     r0,r0,#0x20
        0x0001ada0:    fba11000    ....    UMULL    r1,r0,r1,r0
        0x0001ada4:    0980        ..      LSRS     r0,r0,#6
        0x0001ada6:    f8c20858    ..X.    STR      r0,[r2,#0x858]
        0x0001adaa:    f5b07f80    ....    CMP      r0,#0x100
        0x0001adae:    bf88        ..      IT       HI
        0x0001adb0:    f44f7080    O..p    MOVHI    r0,#0x100
        0x0001adb4:    f8c20858    ..X.    STR      r0,[r2,#0x858]
        0x0001adb8:    2000        .       MOVS     r0,#0
        0x0001adba:    f8c208a0    ....    STR      r0,[r2,#0x8a0]
        0x0001adbe:    e8bd8ff0    ....    POP      {r4-r11,pc}
        0x0001adc2:    bf00        ..      NOP      
        0x0001adc4:    f04f0c06    O...    MOV      r12,#6
        0x0001adc8:    e70e        ..      B        0x1abe8 ; am_hal_iom_configure + 212
    $d
        0x0001adca:    0000        ..      DCW    0
        0x0001adcc:    00123456    V4..    DCD    1193046
        0x0001add0:    773b1301    ..;w    DCD    2000360193
        0x0001add4:    0003f070    p...    DCD    258160
        0x0001add8:    1d0e1301    ....    DCD    487461633
        0x0001addc:    0003f270    p...    DCD    258672
        0x0001ade0:    02dc6c00    .l..    DCD    48000000
        0x0001ade4:    00f423ff    .#..    DCD    15999999
        0x0001ade8:    016e3600    .6n.    DCD    24000000
        0x0001adec:    05b8d800    ....    DCD    96000000
        0x0001adf0:    0003d090    ....    DCD    250000
        0x0001adf4:    0b051301    ....    DCD    184881921
        0x0001adf8:    00023040    @0..    DCD    143424
        0x0001adfc:    000f4240    @B..    DCD    1000000
        0x0001ae00:    10060000    ....    DCD    268828672
        0x0001ae04:    aaaaaaab    ....    DCD    2863311531
    $t
    i.am_hal_iom_disable
    am_hal_iom_disable
        0x0001ae08:    b570        p.      PUSH     {r4-r6,lr}
        0x0001ae0a:    1e04        ..      SUBS     r4,r0,#0
        0x0001ae0c:    bf1c        ..      ITT      NE
        0x0001ae0e:    6801        .h      LDRNE    r1,[r0,#0]
        0x0001ae10:    f0117f80    ....    TSTNE    r1,#0x1000000
        0x0001ae14:    d004        ..      BEQ      0x1ae20 ; am_hal_iom_disable + 24
        0x0001ae16:    4b1c        .K      LDR      r3,[pc,#112] ; [0x1ae88] = 0x123456
        0x0001ae18:    f021427f    !..B    BIC      r2,r1,#0xff000000
        0x0001ae1c:    429a        .B      CMP      r2,r3
        0x0001ae1e:    d001        ..      BEQ      0x1ae24 ; am_hal_iom_disable + 28
        0x0001ae20:    2002        .       MOVS     r0,#2
        0x0001ae22:    bd70        p.      POP      {r4-r6,pc}
        0x0001ae24:    f0117f00    ....    TST      r1,#0x2000000
        0x0001ae28:    bf04        ..      ITT      EQ
        0x0001ae2a:    2000        .       MOVEQ    r0,#0
        0x0001ae2c:    bd70        p.      POPEQ    {r4-r6,pc}
        0x0001ae2e:    6a61        aj      LDR      r1,[r4,#0x24]
        0x0001ae30:    2900        .)      CMP      r1,#0
        0x0001ae32:    bf1c        ..      ITT      NE
        0x0001ae34:    2003        .       MOVNE    r0,#3
        0x0001ae36:    bd70        p.      POPNE    {r4-r6,pc}
        0x0001ae38:    6861        ah      LDR      r1,[r4,#4]
        0x0001ae3a:    0309        ..      LSLS     r1,r1,#12
        0x0001ae3c:    f1014180    ...A    ADD      r1,r1,#0x40000000
        0x0001ae40:    f50121a0    ...!    ADD      r1,r1,#0x50000
        0x0001ae44:    f8d1211c    ...!    LDR      r2,[r1,#0x11c]
        0x0001ae48:    f0220201    "...    BIC      r2,r2,#1
        0x0001ae4c:    f8c1211c    ...!    STR      r2,[r1,#0x11c]
        0x0001ae50:    6861        ah      LDR      r1,[r4,#4]
        0x0001ae52:    0309        ..      LSLS     r1,r1,#12
        0x0001ae54:    f1014180    ...A    ADD      r1,r1,#0x40000000
        0x0001ae58:    f50121a0    ...!    ADD      r1,r1,#0x50000
        0x0001ae5c:    f8d1211c    ...!    LDR      r2,[r1,#0x11c]
        0x0001ae60:    f0220210    "...    BIC      r2,r2,#0x10
        0x0001ae64:    f8c1211c    ...!    STR      r2,[r1,#0x11c]
        0x0001ae68:    f8d40828    ..(.    LDR      r0,[r4,#0x828]
        0x0001ae6c:    4625        %F      MOV      r5,r4
        0x0001ae6e:    b128        (.      CBZ      r0,0x1ae7c ; am_hal_iom_disable + 116
        0x0001ae70:    2101        .!      MOVS     r1,#1
        0x0001ae72:    f7fff865    ..e.    BL       am_hal_cmdq_term ; 0x19f40
        0x0001ae76:    2000        .       MOVS     r0,#0
        0x0001ae78:    f8c50828    ..(.    STR      r0,[r5,#0x828]
        0x0001ae7c:    6820         h      LDR      r0,[r4,#0]
        0x0001ae7e:    f0207000     ..p    BIC      r0,r0,#0x2000000
        0x0001ae82:    6020         `      STR      r0,[r4,#0]
        0x0001ae84:    2000        .       MOVS     r0,#0
        0x0001ae86:    bd70        p.      POP      {r4-r6,pc}
    $d
        0x0001ae88:    00123456    V4..    DCD    1193046
    $t
    i.am_hal_iom_enable
    am_hal_iom_enable
        0x0001ae8c:    b530        0.      PUSH     {r4,r5,lr}
        0x0001ae8e:    b083        ..      SUB      sp,sp,#0xc
        0x0001ae90:    1e04        ..      SUBS     r4,r0,#0
        0x0001ae92:    f04f0100    O...    MOV      r1,#0
        0x0001ae96:    bf1c        ..      ITT      NE
        0x0001ae98:    6820         h      LDRNE    r0,[r4,#0]
        0x0001ae9a:    f0107f80    ....    TSTNE    r0,#0x1000000
        0x0001ae9e:    d004        ..      BEQ      0x1aeaa ; am_hal_iom_enable + 30
        0x0001aea0:    4b3f        ?K      LDR      r3,[pc,#252] ; [0x1afa0] = 0x123456
        0x0001aea2:    f020427f     ..B    BIC      r2,r0,#0xff000000
        0x0001aea6:    429a        .B      CMP      r2,r3
        0x0001aea8:    d002        ..      BEQ      0x1aeb0 ; am_hal_iom_enable + 36
        0x0001aeaa:    b003        ..      ADD      sp,sp,#0xc
        0x0001aeac:    2002        .       MOVS     r0,#2
        0x0001aeae:    bd30        0.      POP      {r4,r5,pc}
        0x0001aeb0:    f0107f00    ....    TST      r0,#0x2000000
        0x0001aeb4:    bf1e        ..      ITTT     NE
        0x0001aeb6:    2000        .       MOVNE    r0,#0
        0x0001aeb8:    b003        ..      ADDNE    sp,sp,#0xc
        0x0001aeba:    bd30        0.      POPNE    {r4,r5,pc}
        0x0001aebc:    7a22        "z      LDRB     r2,[r4,#8]
        0x0001aebe:    6860        `h      LDR      r0,[r4,#4]
        0x0001aec0:    2a00        .*      CMP      r2,#0
        0x0001aec2:    bf14        ..      ITE      NE
        0x0001aec4:    f04f0c01    O...    MOVNE    r12,#1
        0x0001aec8:    f04f0c00    O...    MOVEQ    r12,#0
        0x0001aecc:    0300        ..      LSLS     r0,r0,#12
        0x0001aece:    f1004380    ...C    ADD      r3,r0,#0x40000000
        0x0001aed2:    f50323a0    ...#    ADD      r3,r3,#0x50000
        0x0001aed6:    f8d3011c    ....    LDR      r0,[r3,#0x11c]
        0x0001aeda:    2201        ."      MOVS     r2,#1
        0x0001aedc:    f3c00542    ..B.    UBFX     r5,r0,#1,#3
        0x0001aee0:    2000        .       MOVS     r0,#0
        0x0001aee2:    4565        eE      CMP      r5,r12
        0x0001aee4:    bf08        ..      IT       EQ
        0x0001aee6:    f8c3211c    ...!    STREQ    r2,[r3,#0x11c]
        0x0001aeea:    d00d        ..      BEQ      0x1af08 ; am_hal_iom_enable + 124
        0x0001aeec:    f8d3511c    ...Q    LDR      r5,[r3,#0x11c]
        0x0001aef0:    f3c51542    ..B.    UBFX     r5,r5,#5,#3
        0x0001aef4:    4565        eE      CMP      r5,r12
        0x0001aef6:    bf07        ..      ITTEE    EQ
        0x0001aef8:    f04f0c10    O...    MOVEQ    r12,#0x10
        0x0001aefc:    f8c3c11c    ....    STREQ    r12,[r3,#0x11c]
        0x0001af00:    2009        .       MOVNE    r0,#9
        0x0001af02:    b003        ..      ADDNE    sp,sp,#0xc
        0x0001af04:    bf18        ..      IT       NE
        0x0001af06:    bd30        0.      POPNE    {r4,r5,pc}
        0x0001af08:    68e3        .h      LDR      r3,[r4,#0xc]
        0x0001af0a:    2b00        .+      CMP      r3,#0
        0x0001af0c:    d040        @.      BEQ      0x1af90 ; am_hal_iom_enable + 260
        0x0001af0e:    6260        `b      STR      r0,[r4,#0x24]
        0x0001af10:    61e0        .a      STR      r0,[r4,#0x1c]
        0x0001af12:    6863        ch      LDR      r3,[r4,#4]
        0x0001af14:    4923        #I      LDR      r1,[pc,#140] ; [0x1afa4] = 0x800040
        0x0001af16:    031b        ..      LSLS     r3,r3,#12
        0x0001af18:    f1034380    ...C    ADD      r3,r3,#0x40000000
        0x0001af1c:    f50323a0    ...#    ADD      r3,r3,#0x50000
        0x0001af20:    f8c31238    ..8.    STR      r1,[r3,#0x238]
        0x0001af24:    f8c40854    ..T.    STR      r0,[r4,#0x854]
        0x0001af28:    f884083c    ..<.    STRB     r0,[r4,#0x83c]
        0x0001af2c:    f8c40838    ..8.    STR      r0,[r4,#0x838]
        0x0001af30:    f8c40844    ..D.    STR      r0,[r4,#0x844]
        0x0001af34:    f8c40840    ..@.    STR      r0,[r4,#0x840]
        0x0001af38:    f884082c    ..,.    STRB     r0,[r4,#0x82c]
        0x0001af3c:    f8c40830    ..0.    STR      r0,[r4,#0x830]
        0x0001af40:    f884282d    ..-(    STRB     r2,[r4,#0x82d]
        0x0001af44:    e9d41303    ....    LDRD     r1,r3,[r4,#0xc]
        0x0001af48:    f894c004    ....    LDRB     r12,[r4,#4]
        0x0001af4c:    f8c40828    ..(.    STR      r0,[r4,#0x828]
        0x0001af50:    6220         b      STR      r0,[r4,#0x20]
        0x0001af52:    f8c4085c    ..\.    STR      r0,[r4,#0x85c]
        0x0001af56:    0858        X.      LSRS     r0,r3,#1
        0x0001af58:    e9cd0100    ....    STRD     r0,r1,[sp,#0]
        0x0001af5c:    f88d2008    ...     STRB     r2,[sp,#8]
        0x0001af60:    f00c00ff    ....    AND      r0,r12,#0xff
        0x0001af64:    f6040228    ..(.    ADD      r2,r4,#0x828
        0x0001af68:    4669        iF      MOV      r1,sp
        0x0001af6a:    f7feff71    ..q.    BL       am_hal_cmdq_init ; 0x19e50
        0x0001af6e:    1e01        ..      SUBS     r1,r0,#0
        0x0001af70:    bf04        ..      ITT      EQ
        0x0001af72:    f44f7280    O..r    MOVEQ    r2,#0x100
        0x0001af76:    6222        "b      STREQ    r2,[r4,#0x20]
        0x0001af78:    f04f0002    O...    MOV      r0,#2
        0x0001af7c:    6862        bh      LDR      r2,[r4,#4]
        0x0001af7e:    ea4f3202    O..2    LSL      r2,r2,#12
        0x0001af82:    f1024280    ...B    ADD      r2,r2,#0x40000000
        0x0001af86:    f50222a0    ..."    ADD      r2,r2,#0x50000
        0x0001af8a:    f8c20210    ....    STR      r0,[r2,#0x210]
        0x0001af8e:    d103        ..      BNE      0x1af98 ; am_hal_iom_enable + 268
        0x0001af90:    6820         h      LDR      r0,[r4,#0]
        0x0001af92:    f0407000    @..p    ORR      r0,r0,#0x2000000
        0x0001af96:    6020         `      STR      r0,[r4,#0]
        0x0001af98:    b003        ..      ADD      sp,sp,#0xc
        0x0001af9a:    4608        .F      MOV      r0,r1
        0x0001af9c:    bd30        0.      POP      {r4,r5,pc}
    $d
        0x0001af9e:    0000        ..      DCW    0
        0x0001afa0:    00123456    V4..    DCD    1193046
        0x0001afa4:    00800040    @...    DCD    8388672
    $t
    i.am_hal_iom_initialize
    am_hal_iom_initialize
        0x0001afa8:    2808        .(      CMP      r0,#8
        0x0001afaa:    bf24        $.      ITT      CS
        0x0001afac:    2005        .       MOVCS    r0,#5
        0x0001afae:    4770        pG      BXCS     lr
        0x0001afb0:    2900        .)      CMP      r1,#0
        0x0001afb2:    bf04        ..      ITT      EQ
        0x0001afb4:    2006        .       MOVEQ    r0,#6
        0x0001afb6:    4770        pG      BXEQ     lr
        0x0001afb8:    b410        ..      PUSH     {r4}
        0x0001afba:    f2401215    @...    MOV      r2,#0x115
        0x0001afbe:    fb00f302    ....    MUL      r3,r0,r2
        0x0001afc2:    4a0c        .J      LDR      r2,[pc,#48] ; [0x1aff4] = 0x10003df4
        0x0001afc4:    f852c033    R.3.    LDR      r12,[r2,r3,LSL #3]
        0x0001afc8:    f01c7f80    ....    TST      r12,#0x1000000
        0x0001afcc:    bf1e        ..      ITTT     NE
        0x0001afce:    2007        .       MOVNE    r0,#7
        0x0001afd0:    bc10        ..      POPNE    {r4}
        0x0001afd2:    4770        pG      BXNE     lr
        0x0001afd4:    f02c7c00    ,..|    BIC      r12,r12,#0x2000000
        0x0001afd8:    f04c7c80    L..|    ORR      r12,r12,#0x1000000
        0x0001afdc:    4c06        .L      LDR      r4,[pc,#24] ; [0x1aff8] = 0x123456
        0x0001afde:    f3640c17    d...    BFI      r12,r4,#0,#24
        0x0001afe2:    f842c033    B.3.    STR      r12,[r2,r3,LSL #3]
        0x0001afe6:    eb0202c3    ....    ADD      r2,r2,r3,LSL #3
        0x0001afea:    6050        P`      STR      r0,[r2,#4]
        0x0001afec:    600a        .`      STR      r2,[r1,#0]
        0x0001afee:    bc10        ..      POP      {r4}
        0x0001aff0:    2000        .       MOVS     r0,#0
        0x0001aff2:    4770        pG      BX       lr
    $d
        0x0001aff4:    10003df4    .=..    DCD    268451316
        0x0001aff8:    00123456    V4..    DCD    1193046
    $t
    i.am_hal_iom_interrupt_clear
    am_hal_iom_interrupt_clear
        0x0001affc:    2800        .(      CMP      r0,#0
        0x0001affe:    bf1c        ..      ITT      NE
        0x0001b000:    6802        .h      LDRNE    r2,[r0,#0]
        0x0001b002:    f0127f80    ....    TSTNE    r2,#0x1000000
        0x0001b006:    d004        ..      BEQ      0x1b012 ; am_hal_iom_interrupt_clear + 22
        0x0001b008:    4b08        .K      LDR      r3,[pc,#32] ; [0x1b02c] = 0x123456
        0x0001b00a:    f022427f    "..B    BIC      r2,r2,#0xff000000
        0x0001b00e:    429a        .B      CMP      r2,r3
        0x0001b010:    d001        ..      BEQ      0x1b016 ; am_hal_iom_interrupt_clear + 26
        0x0001b012:    2002        .       MOVS     r0,#2
        0x0001b014:    4770        pG      BX       lr
        0x0001b016:    6840        @h      LDR      r0,[r0,#4]
        0x0001b018:    0300        ..      LSLS     r0,r0,#12
        0x0001b01a:    f1004080    ...@    ADD      r0,r0,#0x40000000
        0x0001b01e:    f50020a0    ...     ADD      r0,r0,#0x50000
        0x0001b022:    f8c01208    ....    STR      r1,[r0,#0x208]
        0x0001b026:    2000        .       MOVS     r0,#0
        0x0001b028:    4770        pG      BX       lr
    $d
        0x0001b02a:    0000        ..      DCW    0
        0x0001b02c:    00123456    V4..    DCD    1193046
    $t
    i.am_hal_iom_interrupt_service
    am_hal_iom_interrupt_service
        0x0001b030:    e92d4ff0    -..O    PUSH     {r4-r11,lr}
        0x0001b034:    b085        ..      SUB      sp,sp,#0x14
        0x0001b036:    0004        ..      MOVS     r4,r0
        0x0001b038:    f04f0000    O...    MOV      r0,#0
        0x0001b03c:    4688        .F      MOV      r8,r1
        0x0001b03e:    9004        ..      STR      r0,[sp,#0x10]
        0x0001b040:    bf1c        ..      ITT      NE
        0x0001b042:    6820         h      LDRNE    r0,[r4,#0]
        0x0001b044:    f0107f80    ....    TSTNE    r0,#0x1000000
        0x0001b048:    d004        ..      BEQ      0x1b054 ; am_hal_iom_interrupt_service + 36
        0x0001b04a:    49c6        .I      LDR      r1,[pc,#792] ; [0x1b364] = 0x123456
        0x0001b04c:    f020407f     ..@    BIC      r0,r0,#0xff000000
        0x0001b050:    4288        .B      CMP      r0,r1
        0x0001b052:    d003        ..      BEQ      0x1b05c ; am_hal_iom_interrupt_service + 44
        0x0001b054:    b005        ..      ADD      sp,sp,#0x14
        0x0001b056:    2002        .       MOVS     r0,#2
        0x0001b058:    e8bd8ff0    ....    POP      {r4-r11,pc}
        0x0001b05c:    6867        gh      LDR      r7,[r4,#4]
        0x0001b05e:    f4186f40    ..@o    TST      r8,#0xc00
        0x0001b062:    bf1c        ..      ITT      NE
        0x0001b064:    1cf8        ..      ADDNE    r0,r7,#3
        0x0001b066:    f7fefe18    ....    BLNE     am_gpu_power_disable ; 0x19c9a
        0x0001b06a:    f894083c    ..<.    LDRB     r0,[r4,#0x83c]
        0x0001b06e:    4dbe        .M      LDR      r5,[pc,#760] ; [0x1b368] = 0x8000001
        0x0001b070:    2600        .&      MOVS     r6,#0
        0x0001b072:    f1050a01    ....    ADD      r10,r5,#1
        0x0001b076:    f6442b7c    D.|+    MOV      r11,#0x4a7c
        0x0001b07a:    2800        .(      CMP      r0,#0
        0x0001b07c:    d07d        }.      BEQ      0x1b17a ; am_hal_iom_interrupt_service + 330
        0x0001b07e:    69a0        .i      LDR      r0,[r4,#0x18]
        0x0001b080:    f6400101    @...    MOV      r1,#0x801
        0x0001b084:    ea400008    @...    ORR      r0,r0,r8
        0x0001b088:    4208        .B      TST      r0,r1
        0x0001b08a:    61a0        .a      STR      r0,[r4,#0x18]
        0x0001b08c:    d076        v.      BEQ      0x1b17c ; am_hal_iom_interrupt_service + 332
        0x0001b08e:    0339        9.      LSLS     r1,r7,#12
        0x0001b090:    f1014780    ...G    ADD      r7,r1,#0x40000000
        0x0001b094:    f50727a0    ...'    ADD      r7,r7,#0x50000
        0x0001b098:    f8d71218    ....    LDR      r1,[r7,#0x218]
        0x0001b09c:    f0110f01    ....    TST      r1,#1
        0x0001b0a0:    d003        ..      BEQ      0x1b0aa ; am_hal_iom_interrupt_service + 122
        0x0001b0a2:    f644617c    D.|a    MOV      r1,#0x4e7c
        0x0001b0a6:    4208        .B      TST      r0,r1
        0x0001b0a8:    d068        h.      BEQ      0x1b17c ; am_hal_iom_interrupt_service + 332
        0x0001b0aa:    f8d40850    ..P.    LDR      r0,[r4,#0x850]
        0x0001b0ae:    1c40        @.      ADDS     r0,r0,#1
        0x0001b0b0:    f8c40850    ..P.    STR      r0,[r4,#0x850]
        0x0001b0b4:    f8d40840    ..@.    LDR      r0,[r4,#0x840]
        0x0001b0b8:    1e40        @.      SUBS     r0,r0,#1
        0x0001b0ba:    f8c40840    ..@.    STR      r0,[r4,#0x840]
        0x0001b0be:    f8d41848    ..H.    LDR      r1,[r4,#0x848]
        0x0001b0c2:    f8d40850    ..P.    LDR      r0,[r4,#0x850]
        0x0001b0c6:    fbb0f2f1    ....    UDIV     r2,r0,r1
        0x0001b0ca:    fb010012    ....    MLS      r0,r1,r2,r0
        0x0001b0ce:    f8d41854    ..T.    LDR      r1,[r4,#0x854]
        0x0001b0d2:    eb011840    ..@.    ADD      r8,r1,r0,LSL #5
        0x0001b0d6:    f8d80018    ....    LDR      r0,[r8,#0x18]
        0x0001b0da:    b308        ..      CBZ      r0,0x1b120 ; am_hal_iom_interrupt_service + 240
        0x0001b0dc:    2100        .!      MOVS     r1,#0
        0x0001b0de:    4608        .F      MOV      r0,r1
        0x0001b0e0:    f7fefff0    ....    BL       am_hal_daxi_control ; 0x1a0c4
        0x0001b0e4:    69a0        .i      LDR      r0,[r4,#0x18]
        0x0001b0e6:    f8d72204    ..."    LDR      r2,[r7,#0x204]
        0x0001b0ea:    2100        .!      MOVS     r1,#0
        0x0001b0ec:    4310        .C      ORRS     r0,r0,r2
        0x0001b0ee:    f0100f6c    ..l.    TST      r0,#0x6c
        0x0001b0f2:    bf18        ..      IT       NE
        0x0001b0f4:    f04f6100    O..a    MOVNE    r1,#0x8000000
        0x0001b0f8:    d10d        ..      BNE      0x1b116 ; am_hal_iom_interrupt_service + 230
        0x0001b0fa:    f4107f00    ....    TST      r0,#0x200
        0x0001b0fe:    bf18        ..      IT       NE
        0x0001b100:    4629        )F      MOVNE    r1,r5
        0x0001b102:    d108        ..      BNE      0x1b116 ; am_hal_iom_interrupt_service + 230
        0x0001b104:    f0100f10    ....    TST      r0,#0x10
        0x0001b108:    bf18        ..      IT       NE
        0x0001b10a:    4651        QF      MOVNE    r1,r10
        0x0001b10c:    d103        ..      BNE      0x1b116 ; am_hal_iom_interrupt_service + 230
        0x0001b10e:    f4104f90    ...O    TST      r0,#0x4800
        0x0001b112:    bf18        ..      IT       NE
        0x0001b114:    2101        .!      MOVNE    r1,#1
        0x0001b116:    e9d82006    ...     LDRD     r2,r0,[r8,#0x18]
        0x0001b11a:    4790        .G      BLX      r2
        0x0001b11c:    f8c86018    ...`    STR      r6,[r8,#0x18]
        0x0001b120:    69a0        .i      LDR      r0,[r4,#0x18]
        0x0001b122:    ea100f0b    ....    TST      r0,r11
        0x0001b126:    d00d        ..      BEQ      0x1b144 ; am_hal_iom_interrupt_service + 276
        0x0001b128:    f8d70218    ....    LDR      r0,[r7,#0x218]
        0x0001b12c:    f0200001     ...    BIC      r0,r0,#1
        0x0001b130:    f8c70218    ....    STR      r0,[r7,#0x218]
        0x0001b134:    f8c76224    ..$b    STR      r6,[r7,#0x224]
        0x0001b138:    69a0        .i      LDR      r0,[r4,#0x18]
        0x0001b13a:    ea00010b    ....    AND      r1,r0,r11
        0x0001b13e:    4620         F      MOV      r0,r4
        0x0001b140:    f002fdba    ....    BL       internal_iom_reset_on_error ; 0x1dcb8
        0x0001b144:    f8d40840    ..@.    LDR      r0,[r4,#0x840]
        0x0001b148:    b368        h.      CBZ      r0,0x1b1a6 ; am_hal_iom_interrupt_service + 374
        0x0001b14a:    f8c76224    ..$b    STR      r6,[r7,#0x224]
        0x0001b14e:    61a6        .a      STR      r6,[r4,#0x18]
        0x0001b150:    f8d41850    ..P.    LDR      r1,[r4,#0x850]
        0x0001b154:    f8d42848    ..H(    LDR      r2,[r4,#0x848]
        0x0001b158:    1c49        I.      ADDS     r1,r1,#1
        0x0001b15a:    fbb1f3f2    ....    UDIV     r3,r1,r2
        0x0001b15e:    fb021113    ....    MLS      r1,r2,r3,r1
        0x0001b162:    f8d42854    ..T(    LDR      r2,[r4,#0x854]
        0x0001b166:    6860        `h      LDR      r0,[r4,#4]
        0x0001b168:    eb021141    ..A.    ADD      r1,r2,r1,LSL #5
        0x0001b16c:    0300        ..      LSLS     r0,r0,#12
        0x0001b16e:    f1004080    ...@    ADD      r0,r0,#0x40000000
        0x0001b172:    f50020a0    ...     ADD      r0,r0,#0x50000
        0x0001b176:    680a        .h      LDR      r2,[r1,#0]
        0x0001b178:    e001        ..      B        0x1b17e ; am_hal_iom_interrupt_service + 334
        0x0001b17a:    e026        &.      B        0x1b1ca ; am_hal_iom_interrupt_service + 410
        0x0001b17c:    e021        !.      B        0x1b1c2 ; am_hal_iom_interrupt_service + 402
        0x0001b17e:    f8c02128    ..(!    STR      r2,[r0,#0x128]
        0x0001b182:    684a        Jh      LDR      r2,[r1,#4]
        0x0001b184:    f8c022c4    ..."    STR      r2,[r0,#0x2c4]
        0x0001b188:    f8c06218    ...b    STR      r6,[r0,#0x218]
        0x0001b18c:    688a        .h      LDR      r2,[r1,#8]
        0x0001b18e:    f8c0221c    ..."    STR      r2,[r0,#0x21c]
        0x0001b192:    68ca        .h      LDR      r2,[r1,#0xc]
        0x0001b194:    f8c02220    .. "    STR      r2,[r0,#0x220]
        0x0001b198:    690a        .i      LDR      r2,[r1,#0x10]
        0x0001b19a:    f8c02218    ..."    STR      r2,[r0,#0x218]
        0x0001b19e:    6949        Ii      LDR      r1,[r1,#0x14]
        0x0001b1a0:    f8c01120    .. .    STR      r1,[r0,#0x120]
        0x0001b1a4:    e00d        ..      B        0x1b1c2 ; am_hal_iom_interrupt_service + 402
        0x0001b1a6:    f884683c    ..<h    STRB     r6,[r4,#0x83c]
        0x0001b1aa:    f8d70200    ....    LDR      r0,[r7,#0x200]
        0x0001b1ae:    f0200001     ...    BIC      r0,r0,#1
        0x0001b1b2:    f4206080     ..`    BIC      r0,r0,#0x400
        0x0001b1b6:    f8c70200    ....    STR      r0,[r7,#0x200]
        0x0001b1ba:    f44f0000    O...    MOV      r0,#0x800000
        0x0001b1be:    f8c70238    ..8.    STR      r0,[r7,#0x238]
        0x0001b1c2:    b005        ..      ADD      sp,sp,#0x14
        0x0001b1c4:    2000        .       MOVS     r0,#0
        0x0001b1c6:    e8bd8ff0    ....    POP      {r4-r11,pc}
        0x0001b1ca:    6a60        `j      LDR      r0,[r4,#0x24]
        0x0001b1cc:    2800        .(      CMP      r0,#0
        0x0001b1ce:    d07d        }.      BEQ      0x1b2cc ; am_hal_iom_interrupt_service + 668
        0x0001b1d0:    f8d40828    ..(.    LDR      r0,[r4,#0x828]
        0x0001b1d4:    2800        .(      CMP      r0,#0
        0x0001b1d6:    d07a        z.      BEQ      0x1b2ce ; am_hal_iom_interrupt_service + 670
        0x0001b1d8:    4669        iF      MOV      r1,sp
        0x0001b1da:    f7fefde7    ....    BL       am_hal_cmdq_get_status ; 0x19dac
        0x0001b1de:    9004        ..      STR      r0,[sp,#0x10]
        0x0001b1e0:    2800        .(      CMP      r0,#0
        0x0001b1e2:    bf04        ..      ITT      EQ
        0x0001b1e4:    4620         F      MOVEQ    r0,r4
        0x0001b1e6:    f8846834    ..4h    STRBEQ   r6,[r4,#0x834]
        0x0001b1ea:    d01b        ..      BEQ      0x1b224 ; am_hal_iom_interrupt_service + 500
        0x0001b1ec:    e0a5        ..      B        0x1b33a ; am_hal_iom_interrupt_service + 778
        0x0001b1ee:    1c40        @.      ADDS     r0,r0,#1
        0x0001b1f0:    61e0        .a      STR      r0,[r4,#0x1c]
        0x0001b1f2:    6a61        aj      LDR      r1,[r4,#0x24]
        0x0001b1f4:    1e4a        J.      SUBS     r2,r1,#1
        0x0001b1f6:    6262        bb      STR      r2,[r4,#0x24]
        0x0001b1f8:    b2c0        ..      UXTB     r0,r0
        0x0001b1fa:    eb040980    ....    ADD      r9,r4,r0,LSL #2
        0x0001b1fe:    f8d90028    ..(.    LDR      r0,[r9,#0x28]
        0x0001b202:    b178        x.      CBZ      r0,0x1b224 ; am_hal_iom_interrupt_service + 500
        0x0001b204:    2100        .!      MOVS     r1,#0
        0x0001b206:    4608        .F      MOV      r0,r1
        0x0001b208:    f7feff5c    ..\.    BL       am_hal_daxi_control ; 0x1a0c4
        0x0001b20c:    f8d92028    ..(     LDR      r2,[r9,#0x28]
        0x0001b210:    2100        .!      MOVS     r1,#0
        0x0001b212:    f8d90428    ..(.    LDR      r0,[r9,#0x428]
        0x0001b216:    4790        .G      BLX      r2
        0x0001b218:    f894082c    ..,.    LDRB     r0,[r4,#0x82c]
        0x0001b21c:    2802        .(      CMP      r0,#2
        0x0001b21e:    bf18        ..      IT       NE
        0x0001b220:    f8c96028    ..(`    STRNE    r6,[r9,#0x28]
        0x0001b224:    69e0        .i      LDR      r0,[r4,#0x1c]
        0x0001b226:    9900        ..      LDR      r1,[sp,#0]
        0x0001b228:    4288        .B      CMP      r0,r1
        0x0001b22a:    d003        ..      BEQ      0x1b234 ; am_hal_iom_interrupt_service + 516
        0x0001b22c:    f8941834    ..4.    LDRB     r1,[r4,#0x834]
        0x0001b230:    2900        .)      CMP      r1,#0
        0x0001b232:    d0dc        ..      BEQ      0x1b1ee ; am_hal_iom_interrupt_service + 446
        0x0001b234:    f8940834    ..4.    LDRB     r0,[r4,#0x834]
        0x0001b238:    2800        .(      CMP      r0,#0
        0x0001b23a:    d173        s.      BNE      0x1b324 ; am_hal_iom_interrupt_service + 756
        0x0001b23c:    ea180b0b    ....    ANDS     r11,r8,r11
        0x0001b240:    d070        p.      BEQ      0x1b324 ; am_hal_iom_interrupt_service + 756
        0x0001b242:    69e0        .i      LDR      r0,[r4,#0x1c]
        0x0001b244:    1c40        @.      ADDS     r0,r0,#1
        0x0001b246:    61e0        .a      STR      r0,[r4,#0x1c]
        0x0001b248:    6a61        aj      LDR      r1,[r4,#0x24]
        0x0001b24a:    1e4a        J.      SUBS     r2,r1,#1
        0x0001b24c:    6262        bb      STR      r2,[r4,#0x24]
        0x0001b24e:    b2c0        ..      UXTB     r0,r0
        0x0001b250:    eb040980    ....    ADD      r9,r4,r0,LSL #2
        0x0001b254:    f8d90028    ..(.    LDR      r0,[r9,#0x28]
        0x0001b258:    b360        `.      CBZ      r0,0x1b2b4 ; am_hal_iom_interrupt_service + 644
        0x0001b25a:    2100        .!      MOVS     r1,#0
        0x0001b25c:    4608        .F      MOV      r0,r1
        0x0001b25e:    f7feff31    ..1.    BL       am_hal_daxi_control ; 0x1a0c4
        0x0001b262:    2100        .!      MOVS     r1,#0
        0x0001b264:    0338        8.      LSLS     r0,r7,#12
        0x0001b266:    f1004080    ...@    ADD      r0,r0,#0x40000000
        0x0001b26a:    f50020a0    ...     ADD      r0,r0,#0x50000
        0x0001b26e:    f8d00204    ....    LDR      r0,[r0,#0x204]
        0x0001b272:    ea400008    @...    ORR      r0,r0,r8
        0x0001b276:    f0100f6c    ..l.    TST      r0,#0x6c
        0x0001b27a:    bf18        ..      IT       NE
        0x0001b27c:    f04f6100    O..a    MOVNE    r1,#0x8000000
        0x0001b280:    d10d        ..      BNE      0x1b29e ; am_hal_iom_interrupt_service + 622
        0x0001b282:    f4107f00    ....    TST      r0,#0x200
        0x0001b286:    bf18        ..      IT       NE
        0x0001b288:    4629        )F      MOVNE    r1,r5
        0x0001b28a:    d108        ..      BNE      0x1b29e ; am_hal_iom_interrupt_service + 622
        0x0001b28c:    f0100f10    ....    TST      r0,#0x10
        0x0001b290:    bf18        ..      IT       NE
        0x0001b292:    4651        QF      MOVNE    r1,r10
        0x0001b294:    d103        ..      BNE      0x1b29e ; am_hal_iom_interrupt_service + 622
        0x0001b296:    f4104f90    ...O    TST      r0,#0x4800
        0x0001b29a:    bf18        ..      IT       NE
        0x0001b29c:    2101        .!      MOVNE    r1,#1
        0x0001b29e:    f8d92028    ..(     LDR      r2,[r9,#0x28]
        0x0001b2a2:    f8d90428    ..(.    LDR      r0,[r9,#0x428]
        0x0001b2a6:    4790        .G      BLX      r2
        0x0001b2a8:    f894082c    ..,.    LDRB     r0,[r4,#0x82c]
        0x0001b2ac:    2802        .(      CMP      r0,#2
        0x0001b2ae:    bf18        ..      IT       NE
        0x0001b2b0:    f8c96028    ..(`    STRNE    r6,[r9,#0x28]
        0x0001b2b4:    0338        8.      LSLS     r0,r7,#12
        0x0001b2b6:    f1004080    ...@    ADD      r0,r0,#0x40000000
        0x0001b2ba:    f50020a0    ...     ADD      r0,r0,#0x50000
        0x0001b2be:    f8d01228    ..(.    LDR      r1,[r0,#0x228]
        0x0001b2c2:    f0210101    !...    BIC      r1,r1,#1
        0x0001b2c6:    f8c01228    ..(.    STR      r1,[r0,#0x228]
        0x0001b2ca:    e001        ..      B        0x1b2d0 ; am_hal_iom_interrupt_service + 672
        0x0001b2cc:    e045        E.      B        0x1b35a ; am_hal_iom_interrupt_service + 810
        0x0001b2ce:    e034        4.      B        0x1b33a ; am_hal_iom_interrupt_service + 778
        0x0001b2d0:    f8d01218    ....    LDR      r1,[r0,#0x218]
        0x0001b2d4:    f0210101    !...    BIC      r1,r1,#1
        0x0001b2d8:    f8c01218    ....    STR      r1,[r0,#0x218]
        0x0001b2dc:    f8c06224    ..$b    STR      r6,[r0,#0x224]
        0x0001b2e0:    4659        YF      MOV      r1,r11
        0x0001b2e2:    4620         F      MOV      r0,r4
        0x0001b2e4:    f002fce8    ....    BL       internal_iom_reset_on_error ; 0x1dcb8
        0x0001b2e8:    f8d40828    ..(.    LDR      r0,[r4,#0x828]
        0x0001b2ec:    f7fefd24    ..$.    BL       am_hal_cmdq_error_resume ; 0x19d38
        0x0001b2f0:    6a60        `j      LDR      r0,[r4,#0x24]
        0x0001b2f2:    b1b8        ..      CBZ      r0,0x1b324 ; am_hal_iom_interrupt_service + 756
        0x0001b2f4:    6a60        `j      LDR      r0,[r4,#0x24]
        0x0001b2f6:    4625        %F      MOV      r5,r4
        0x0001b2f8:    b960        `.      CBNZ     r0,0x1b314 ; am_hal_iom_interrupt_service + 740
        0x0001b2fa:    6869        ih      LDR      r1,[r5,#4]
        0x0001b2fc:    0308        ..      LSLS     r0,r1,#12
        0x0001b2fe:    f1004080    ...@    ADD      r0,r0,#0x40000000
        0x0001b302:    f50020a0    ...     ADD      r0,r0,#0x50000
        0x0001b306:    f8d0022c    ..,.    LDR      r0,[r0,#0x22c]
        0x0001b30a:    4a18        .J      LDR      r2,[pc,#96] ; [0x1b36c] = 0x4005022c
        0x0001b30c:    eb023101    ...1    ADD      r1,r2,r1,LSL #12
        0x0001b310:    e9c01000    ....    STRD     r1,r0,[r0,#0]
        0x0001b314:    6868        hh      LDR      r0,[r5,#4]
        0x0001b316:    3013        .0      ADDS     r0,r0,#0x13
        0x0001b318:    f7fefcc0    ....    BL       am_gpu_power_enable ; 0x19c9c
        0x0001b31c:    f8d50828    ..(.    LDR      r0,[r5,#0x828]
        0x0001b320:    f7fefcde    ....    BL       am_hal_cmdq_enable ; 0x19ce0
        0x0001b324:    6a60        `j      LDR      r0,[r4,#0x24]
        0x0001b326:    b940        @.      CBNZ     r0,0x1b33a ; am_hal_iom_interrupt_service + 778
        0x0001b328:    4625        %F      MOV      r5,r4
        0x0001b32a:    f8d40828    ..(.    LDR      r0,[r4,#0x828]
        0x0001b32e:    f7fefcb7    ....    BL       am_hal_cmdq_disable ; 0x19ca0
        0x0001b332:    6868        hh      LDR      r0,[r5,#4]
        0x0001b334:    3013        .0      ADDS     r0,r0,#0x13
        0x0001b336:    f7fefcb0    ....    BL       am_gpu_power_disable ; 0x19c9a
        0x0001b33a:    6a60        `j      LDR      r0,[r4,#0x24]
        0x0001b33c:    b968        h.      CBNZ     r0,0x1b35a ; am_hal_iom_interrupt_service + 810
        0x0001b33e:    0338        8.      LSLS     r0,r7,#12
        0x0001b340:    f1004080    ...@    ADD      r0,r0,#0x40000000
        0x0001b344:    f50020a0    ...     ADD      r0,r0,#0x50000
        0x0001b348:    f8c06200    ...b    STR      r6,[r0,#0x200]
        0x0001b34c:    f04f31ff    O..1    MOV      r1,#0xffffffff
        0x0001b350:    f8c01208    ....    STR      r1,[r0,#0x208]
        0x0001b354:    6961        ai      LDR      r1,[r4,#0x14]
        0x0001b356:    f8c01200    ....    STR      r1,[r0,#0x200]
        0x0001b35a:    9804        ..      LDR      r0,[sp,#0x10]
        0x0001b35c:    b005        ..      ADD      sp,sp,#0x14
        0x0001b35e:    e8bd8ff0    ....    POP      {r4-r11,pc}
    $d
        0x0001b362:    0000        ..      DCW    0
        0x0001b364:    00123456    V4..    DCD    1193046
        0x0001b368:    08000001    ....    DCD    134217729
        0x0001b36c:    4005022c    ,..@    DCD    1074070060
    $t
    i.am_hal_iom_interrupt_status_get
    am_hal_iom_interrupt_status_get
        0x0001b370:    2800        .(      CMP      r0,#0
        0x0001b372:    bf1c        ..      ITT      NE
        0x0001b374:    6803        .h      LDRNE    r3,[r0,#0]
        0x0001b376:    f0137f80    ....    TSTNE    r3,#0x1000000
        0x0001b37a:    d005        ..      BEQ      0x1b388 ; am_hal_iom_interrupt_status_get + 24
        0x0001b37c:    f8dfc034    ..4.    LDR      r12,[pc,#52] ; [0x1b3b4] = 0x123456
        0x0001b380:    f023437f    #..C    BIC      r3,r3,#0xff000000
        0x0001b384:    4563        cE      CMP      r3,r12
        0x0001b386:    d001        ..      BEQ      0x1b38c ; am_hal_iom_interrupt_status_get + 28
        0x0001b388:    2002        .       MOVS     r0,#2
        0x0001b38a:    4770        pG      BX       lr
        0x0001b38c:    2a00        .*      CMP      r2,#0
        0x0001b38e:    bf04        ..      ITT      EQ
        0x0001b390:    2006        .       MOVEQ    r0,#6
        0x0001b392:    4770        pG      BXEQ     lr
        0x0001b394:    6840        @h      LDR      r0,[r0,#4]
        0x0001b396:    0300        ..      LSLS     r0,r0,#12
        0x0001b398:    f1004380    ...C    ADD      r3,r0,#0x40000000
        0x0001b39c:    f50323a0    ...#    ADD      r3,r3,#0x50000
        0x0001b3a0:    f8d30204    ....    LDR      r0,[r3,#0x204]
        0x0001b3a4:    2900        .)      CMP      r1,#0
        0x0001b3a6:    bf1c        ..      ITT      NE
        0x0001b3a8:    f8d31200    ....    LDRNE    r1,[r3,#0x200]
        0x0001b3ac:    4008        .@      ANDNE    r0,r0,r1
        0x0001b3ae:    6010        .`      STR      r0,[r2,#0]
        0x0001b3b0:    2000        .       MOVS     r0,#0
        0x0001b3b2:    4770        pG      BX       lr
    $d
        0x0001b3b4:    00123456    V4..    DCD    1193046
    $t
    i.am_hal_iom_power_ctrl
    am_hal_iom_power_ctrl
        0x0001b3b8:    b570        p.      PUSH     {r4-r6,lr}
        0x0001b3ba:    4615        .F      MOV      r5,r2
        0x0001b3bc:    1e04        ..      SUBS     r4,r0,#0
        0x0001b3be:    bf1c        ..      ITT      NE
        0x0001b3c0:    6820         h      LDRNE    r0,[r4,#0]
        0x0001b3c2:    f0107f80    ....    TSTNE    r0,#0x1000000
        0x0001b3c6:    d004        ..      BEQ      0x1b3d2 ; am_hal_iom_power_ctrl + 26
        0x0001b3c8:    4bc7        .K      LDR      r3,[pc,#796] ; [0x1b6e8] = 0x123456
        0x0001b3ca:    f020427f     ..B    BIC      r2,r0,#0xff000000
        0x0001b3ce:    429a        .B      CMP      r2,r3
        0x0001b3d0:    d001        ..      BEQ      0x1b3d6 ; am_hal_iom_power_ctrl + 30
        0x0001b3d2:    2002        .       MOVS     r0,#2
        0x0001b3d4:    bd70        p.      POP      {r4-r6,pc}
        0x0001b3d6:    2900        .)      CMP      r1,#0
        0x0001b3d8:    f00080d4    ....    BEQ.W    0x1b584 ; am_hal_iom_power_ctrl + 460
        0x0001b3dc:    2901        .)      CMP      r1,#1
        0x0001b3de:    bf1e        ..      ITTT     NE
        0x0001b3e0:    2902        .)      CMPNE    r1,#2
        0x0001b3e2:    2006        .       MOVNE    r0,#6
        0x0001b3e4:    bd70        p.      POPNE    {r4-r6,pc}
        0x0001b3e6:    f0107f00    ....    TST      r0,#0x2000000
        0x0001b3ea:    d010        ..      BEQ      0x1b40e ; am_hal_iom_power_ctrl + 86
        0x0001b3ec:    6860        `h      LDR      r0,[r4,#4]
        0x0001b3ee:    ea4f3000    O..0    LSL      r0,r0,#12
        0x0001b3f2:    f1004080    ...@    ADD      r0,r0,#0x40000000
        0x0001b3f6:    f50020a0    ...     ADD      r0,r0,#0x50000
        0x0001b3fa:    f8d00248    ..H.    LDR      r0,[r0,#0x248]
        0x0001b3fe:    f0000006    ....    AND      r0,r0,#6
        0x0001b402:    2804        .(      CMP      r0,#4
        0x0001b404:    bf07        ..      ITTEE    EQ
        0x0001b406:    6a60        `j      LDREQ    r0,[r4,#0x24]
        0x0001b408:    2800        .(      CMPEQ    r0,#0
        0x0001b40a:    2003        .       MOVNE    r0,#3
        0x0001b40c:    bd70        p.      POPNE    {r4-r6,pc}
        0x0001b40e:    2d00        .-      CMP      r5,#0
        0x0001b410:    d07e        ~.      BEQ      0x1b510 ; am_hal_iom_power_ctrl + 344
        0x0001b412:    6860        `h      LDR      r0,[r4,#4]
        0x0001b414:    0300        ..      LSLS     r0,r0,#12
        0x0001b416:    f1004080    ...@    ADD      r0,r0,#0x40000000
        0x0001b41a:    f50020a0    ...     ADD      r0,r0,#0x50000
        0x0001b41e:    f8d00104    ....    LDR      r0,[r0,#0x104]
        0x0001b422:    f8c4086c    ..l.    STR      r0,[r4,#0x86c]
        0x0001b426:    6860        `h      LDR      r0,[r4,#4]
        0x0001b428:    0300        ..      LSLS     r0,r0,#12
        0x0001b42a:    f1004080    ...@    ADD      r0,r0,#0x40000000
        0x0001b42e:    f50020a0    ...     ADD      r0,r0,#0x50000
        0x0001b432:    f8d00118    ....    LDR      r0,[r0,#0x118]
        0x0001b436:    f8c40874    ..t.    STR      r0,[r4,#0x874]
        0x0001b43a:    6860        `h      LDR      r0,[r4,#4]
        0x0001b43c:    0300        ..      LSLS     r0,r0,#12
        0x0001b43e:    f1004080    ...@    ADD      r0,r0,#0x40000000
        0x0001b442:    f50020a0    ...     ADD      r0,r0,#0x50000
        0x0001b446:    f8d0011c    ....    LDR      r0,[r0,#0x11c]
        0x0001b44a:    f8c40878    ..x.    STR      r0,[r4,#0x878]
        0x0001b44e:    6860        `h      LDR      r0,[r4,#4]
        0x0001b450:    0300        ..      LSLS     r0,r0,#12
        0x0001b452:    f1004080    ...@    ADD      r0,r0,#0x40000000
        0x0001b456:    f50020a0    ...     ADD      r0,r0,#0x50000
        0x0001b45a:    f8d00228    ..(.    LDR      r0,[r0,#0x228]
        0x0001b45e:    f8c4087c    ..|.    STR      r0,[r4,#0x87c]
        0x0001b462:    6860        `h      LDR      r0,[r4,#4]
        0x0001b464:    0300        ..      LSLS     r0,r0,#12
        0x0001b466:    f1004080    ...@    ADD      r0,r0,#0x40000000
        0x0001b46a:    f50020a0    ...     ADD      r0,r0,#0x50000
        0x0001b46e:    f8d0022c    ..,.    LDR      r0,[r0,#0x22c]
        0x0001b472:    f8c40880    ....    STR      r0,[r4,#0x880]
        0x0001b476:    6860        `h      LDR      r0,[r4,#4]
        0x0001b478:    0300        ..      LSLS     r0,r0,#12
        0x0001b47a:    f1004080    ...@    ADD      r0,r0,#0x40000000
        0x0001b47e:    f50020a0    ...     ADD      r0,r0,#0x50000
        0x0001b482:    f8d00234    ..4.    LDR      r0,[r0,#0x234]
        0x0001b486:    f8c40884    ....    STR      r0,[r4,#0x884]
        0x0001b48a:    6860        `h      LDR      r0,[r4,#4]
        0x0001b48c:    0300        ..      LSLS     r0,r0,#12
        0x0001b48e:    f1004080    ...@    ADD      r0,r0,#0x40000000
        0x0001b492:    f50020a0    ...     ADD      r0,r0,#0x50000
        0x0001b496:    f8d0023c    ..<.    LDR      r0,[r0,#0x23c]
        0x0001b49a:    f8c40888    ....    STR      r0,[r4,#0x888]
        0x0001b49e:    6860        `h      LDR      r0,[r4,#4]
        0x0001b4a0:    0300        ..      LSLS     r0,r0,#12
        0x0001b4a2:    f1004080    ...@    ADD      r0,r0,#0x40000000
        0x0001b4a6:    f50020a0    ...     ADD      r0,r0,#0x50000
        0x0001b4aa:    f8d00240    ..@.    LDR      r0,[r0,#0x240]
        0x0001b4ae:    f8c4088c    ....    STR      r0,[r4,#0x88c]
        0x0001b4b2:    6860        `h      LDR      r0,[r4,#4]
        0x0001b4b4:    0300        ..      LSLS     r0,r0,#12
        0x0001b4b6:    f1004080    ...@    ADD      r0,r0,#0x40000000
        0x0001b4ba:    f50020a0    ...     ADD      r0,r0,#0x50000
        0x0001b4be:    f8d00244    ..D.    LDR      r0,[r0,#0x244]
        0x0001b4c2:    f8c40890    ....    STR      r0,[r4,#0x890]
        0x0001b4c6:    6860        `h      LDR      r0,[r4,#4]
        0x0001b4c8:    0300        ..      LSLS     r0,r0,#12
        0x0001b4ca:    f1004080    ...@    ADD      r0,r0,#0x40000000
        0x0001b4ce:    f50020a0    ...     ADD      r0,r0,#0x50000
        0x0001b4d2:    f8d00280    ....    LDR      r0,[r0,#0x280]
        0x0001b4d6:    f8c40894    ....    STR      r0,[r4,#0x894]
        0x0001b4da:    6860        `h      LDR      r0,[r4,#4]
        0x0001b4dc:    0300        ..      LSLS     r0,r0,#12
        0x0001b4de:    f1004080    ...@    ADD      r0,r0,#0x40000000
        0x0001b4e2:    f50020a0    ...     ADD      r0,r0,#0x50000
        0x0001b4e6:    f8d002c0    ....    LDR      r0,[r0,#0x2c0]
        0x0001b4ea:    f8c40898    ....    STR      r0,[r4,#0x898]
        0x0001b4ee:    6860        `h      LDR      r0,[r4,#4]
        0x0001b4f0:    0300        ..      LSLS     r0,r0,#12
        0x0001b4f2:    f1004080    ...@    ADD      r0,r0,#0x40000000
        0x0001b4f6:    f50020a0    ...     ADD      r0,r0,#0x50000
        0x0001b4fa:    f8d00200    ....    LDR      r0,[r0,#0x200]
        0x0001b4fe:    f8c4089c    ....    STR      r0,[r4,#0x89c]
        0x0001b502:    6860        `h      LDR      r0,[r4,#4]
        0x0001b504:    0300        ..      LSLS     r0,r0,#12
        0x0001b506:    f1004080    ...@    ADD      r0,r0,#0x40000000
        0x0001b50a:    f50020a0    ...     ADD      r0,r0,#0x50000
        0x0001b50e:    e000        ..      B        0x1b512 ; am_hal_iom_power_ctrl + 346
        0x0001b510:    e019        ..      B        0x1b546 ; am_hal_iom_power_ctrl + 398
        0x0001b512:    f8d00210    ....    LDR      r0,[r0,#0x210]
        0x0001b516:    f8c40870    ..p.    STR      r0,[r4,#0x870]
        0x0001b51a:    6860        `h      LDR      r0,[r4,#4]
        0x0001b51c:    0300        ..      LSLS     r0,r0,#12
        0x0001b51e:    f1004080    ...@    ADD      r0,r0,#0x40000000
        0x0001b522:    f50020a0    ...     ADD      r0,r0,#0x50000
        0x0001b526:    f8d00228    ..(.    LDR      r0,[r0,#0x228]
        0x0001b52a:    f0100f01    ....    TST      r0,#1
        0x0001b52e:    d007        ..      BEQ      0x1b540 ; am_hal_iom_power_ctrl + 392
        0x0001b530:    f8d40828    ..(.    LDR      r0,[r4,#0x828]
        0x0001b534:    f7fefbb4    ....    BL       am_hal_cmdq_disable ; 0x19ca0
        0x0001b538:    6860        `h      LDR      r0,[r4,#4]
        0x0001b53a:    3013        .0      ADDS     r0,r0,#0x13
        0x0001b53c:    f7fefbad    ....    BL       am_gpu_power_disable ; 0x19c9a
        0x0001b540:    2001        .       MOVS     r0,#1
        0x0001b542:    f8840868    ..h.    STRB     r0,[r4,#0x868]
        0x0001b546:    6860        `h      LDR      r0,[r4,#4]
        0x0001b548:    0300        ..      LSLS     r0,r0,#12
        0x0001b54a:    f1004080    ...@    ADD      r0,r0,#0x40000000
        0x0001b54e:    f50020a0    ...     ADD      r0,r0,#0x50000
        0x0001b552:    f8d0111c    ....    LDR      r1,[r0,#0x11c]
        0x0001b556:    f0210101    !...    BIC      r1,r1,#1
        0x0001b55a:    f8c0111c    ....    STR      r1,[r0,#0x11c]
        0x0001b55e:    6860        `h      LDR      r0,[r4,#4]
        0x0001b560:    0300        ..      LSLS     r0,r0,#12
        0x0001b562:    f1004080    ...@    ADD      r0,r0,#0x40000000
        0x0001b566:    f50020a0    ...     ADD      r0,r0,#0x50000
        0x0001b56a:    f8d0111c    ....    LDR      r1,[r0,#0x11c]
        0x0001b56e:    f0210110    !...    BIC      r1,r1,#0x10
        0x0001b572:    f8c0111c    ....    STR      r1,[r0,#0x11c]
        0x0001b576:    7920         y      LDRB     r0,[r4,#4]
        0x0001b578:    1c40        @.      ADDS     r0,r0,#1
        0x0001b57a:    b2c0        ..      UXTB     r0,r0
        0x0001b57c:    f000fe3a    ..:.    BL       am_hal_pwrctrl_periph_disable ; 0x1c1f4
        0x0001b580:    2000        .       MOVS     r0,#0
        0x0001b582:    bd70        p.      POP      {r4-r6,pc}
        0x0001b584:    b12d        -.      CBZ      r5,0x1b592 ; am_hal_iom_power_ctrl + 474
        0x0001b586:    f8940868    ..h.    LDRB     r0,[r4,#0x868]
        0x0001b58a:    2800        .(      CMP      r0,#0
        0x0001b58c:    bf04        ..      ITT      EQ
        0x0001b58e:    2007        .       MOVEQ    r0,#7
        0x0001b590:    bd70        p.      POPEQ    {r4-r6,pc}
        0x0001b592:    7920         y      LDRB     r0,[r4,#4]
        0x0001b594:    1c40        @.      ADDS     r0,r0,#1
        0x0001b596:    b2c0        ..      UXTB     r0,r0
        0x0001b598:    f000fec2    ....    BL       am_hal_pwrctrl_periph_enable ; 0x1c320
        0x0001b59c:    2d00        .-      CMP      r5,#0
        0x0001b59e:    d0ef        ..      BEQ      0x1b580 ; am_hal_iom_power_ctrl + 456
        0x0001b5a0:    6861        ah      LDR      r1,[r4,#4]
        0x0001b5a2:    f8d4086c    ..l.    LDR      r0,[r4,#0x86c]
        0x0001b5a6:    0309        ..      LSLS     r1,r1,#12
        0x0001b5a8:    f1014180    ...A    ADD      r1,r1,#0x40000000
        0x0001b5ac:    f50121a0    ...!    ADD      r1,r1,#0x50000
        0x0001b5b0:    f8c10104    ....    STR      r0,[r1,#0x104]
        0x0001b5b4:    6861        ah      LDR      r1,[r4,#4]
        0x0001b5b6:    f8d40874    ..t.    LDR      r0,[r4,#0x874]
        0x0001b5ba:    0309        ..      LSLS     r1,r1,#12
        0x0001b5bc:    f1014180    ...A    ADD      r1,r1,#0x40000000
        0x0001b5c0:    f50121a0    ...!    ADD      r1,r1,#0x50000
        0x0001b5c4:    f8c10118    ....    STR      r0,[r1,#0x118]
        0x0001b5c8:    6861        ah      LDR      r1,[r4,#4]
        0x0001b5ca:    f8d40880    ....    LDR      r0,[r4,#0x880]
        0x0001b5ce:    0309        ..      LSLS     r1,r1,#12
        0x0001b5d0:    f1014180    ...A    ADD      r1,r1,#0x40000000
        0x0001b5d4:    f50121a0    ...!    ADD      r1,r1,#0x50000
        0x0001b5d8:    f8c1022c    ..,.    STR      r0,[r1,#0x22c]
        0x0001b5dc:    6861        ah      LDR      r1,[r4,#4]
        0x0001b5de:    f8d40884    ....    LDR      r0,[r4,#0x884]
        0x0001b5e2:    0309        ..      LSLS     r1,r1,#12
        0x0001b5e4:    f1014180    ...A    ADD      r1,r1,#0x40000000
        0x0001b5e8:    f50121a0    ...!    ADD      r1,r1,#0x50000
        0x0001b5ec:    f8c10234    ..4.    STR      r0,[r1,#0x234]
        0x0001b5f0:    6861        ah      LDR      r1,[r4,#4]
        0x0001b5f2:    f8d40888    ....    LDR      r0,[r4,#0x888]
        0x0001b5f6:    0309        ..      LSLS     r1,r1,#12
        0x0001b5f8:    f1014180    ...A    ADD      r1,r1,#0x40000000
        0x0001b5fc:    f50121a0    ...!    ADD      r1,r1,#0x50000
        0x0001b600:    f8c1023c    ..<.    STR      r0,[r1,#0x23c]
        0x0001b604:    6861        ah      LDR      r1,[r4,#4]
        0x0001b606:    f8d4088c    ....    LDR      r0,[r4,#0x88c]
        0x0001b60a:    0309        ..      LSLS     r1,r1,#12
        0x0001b60c:    f1014180    ...A    ADD      r1,r1,#0x40000000
        0x0001b610:    f50121a0    ...!    ADD      r1,r1,#0x50000
        0x0001b614:    f8c10240    ..@.    STR      r0,[r1,#0x240]
        0x0001b618:    6861        ah      LDR      r1,[r4,#4]
        0x0001b61a:    f8d40890    ....    LDR      r0,[r4,#0x890]
        0x0001b61e:    0309        ..      LSLS     r1,r1,#12
        0x0001b620:    f1014180    ...A    ADD      r1,r1,#0x40000000
        0x0001b624:    f50121a0    ...!    ADD      r1,r1,#0x50000
        0x0001b628:    f8c10244    ..D.    STR      r0,[r1,#0x244]
        0x0001b62c:    6861        ah      LDR      r1,[r4,#4]
        0x0001b62e:    f8d40894    ....    LDR      r0,[r4,#0x894]
        0x0001b632:    0309        ..      LSLS     r1,r1,#12
        0x0001b634:    f1014180    ...A    ADD      r1,r1,#0x40000000
        0x0001b638:    f50121a0    ...!    ADD      r1,r1,#0x50000
        0x0001b63c:    f8c10280    ....    STR      r0,[r1,#0x280]
        0x0001b640:    6861        ah      LDR      r1,[r4,#4]
        0x0001b642:    f8d40898    ....    LDR      r0,[r4,#0x898]
        0x0001b646:    0309        ..      LSLS     r1,r1,#12
        0x0001b648:    f1014180    ...A    ADD      r1,r1,#0x40000000
        0x0001b64c:    f50121a0    ...!    ADD      r1,r1,#0x50000
        0x0001b650:    f8c102c0    ....    STR      r0,[r1,#0x2c0]
        0x0001b654:    6861        ah      LDR      r1,[r4,#4]
        0x0001b656:    f8d4089c    ....    LDR      r0,[r4,#0x89c]
        0x0001b65a:    0309        ..      LSLS     r1,r1,#12
        0x0001b65c:    f1014180    ...A    ADD      r1,r1,#0x40000000
        0x0001b660:    f50121a0    ...!    ADD      r1,r1,#0x50000
        0x0001b664:    f8c10200    ....    STR      r0,[r1,#0x200]
        0x0001b668:    6861        ah      LDR      r1,[r4,#4]
        0x0001b66a:    f8d40870    ..p.    LDR      r0,[r4,#0x870]
        0x0001b66e:    0309        ..      LSLS     r1,r1,#12
        0x0001b670:    f1014180    ...A    ADD      r1,r1,#0x40000000
        0x0001b674:    f50121a0    ...!    ADD      r1,r1,#0x50000
        0x0001b678:    f8c10210    ....    STR      r0,[r1,#0x210]
        0x0001b67c:    6861        ah      LDR      r1,[r4,#4]
        0x0001b67e:    f8d4087c    ..|.    LDR      r0,[r4,#0x87c]
        0x0001b682:    0309        ..      LSLS     r1,r1,#12
        0x0001b684:    f1014180    ...A    ADD      r1,r1,#0x40000000
        0x0001b688:    f50121a0    ...!    ADD      r1,r1,#0x50000
        0x0001b68c:    f0200001     ...    BIC      r0,r0,#1
        0x0001b690:    f8c10228    ..(.    STR      r0,[r1,#0x228]
        0x0001b694:    6861        ah      LDR      r1,[r4,#4]
        0x0001b696:    f8d40878    ..x.    LDR      r0,[r4,#0x878]
        0x0001b69a:    0309        ..      LSLS     r1,r1,#12
        0x0001b69c:    f1014180    ...A    ADD      r1,r1,#0x40000000
        0x0001b6a0:    f50121a0    ...!    ADD      r1,r1,#0x50000
        0x0001b6a4:    f8c1011c    ....    STR      r0,[r1,#0x11c]
        0x0001b6a8:    f894087c    ..|.    LDRB     r0,[r4,#0x87c]
        0x0001b6ac:    f0100f01    ....    TST      r0,#1
        0x0001b6b0:    d016        ..      BEQ      0x1b6e0 ; am_hal_iom_power_ctrl + 808
        0x0001b6b2:    6a60        `j      LDR      r0,[r4,#0x24]
        0x0001b6b4:    b960        `.      CBNZ     r0,0x1b6d0 ; am_hal_iom_power_ctrl + 792
        0x0001b6b6:    6861        ah      LDR      r1,[r4,#4]
        0x0001b6b8:    0308        ..      LSLS     r0,r1,#12
        0x0001b6ba:    f1004080    ...@    ADD      r0,r0,#0x40000000
        0x0001b6be:    f50020a0    ...     ADD      r0,r0,#0x50000
        0x0001b6c2:    f8d0022c    ..,.    LDR      r0,[r0,#0x22c]
        0x0001b6c6:    4a09        .J      LDR      r2,[pc,#36] ; [0x1b6ec] = 0x4005022c
        0x0001b6c8:    eb023101    ...1    ADD      r1,r2,r1,LSL #12
        0x0001b6cc:    e9c01000    ....    STRD     r1,r0,[r0,#0]
        0x0001b6d0:    6860        `h      LDR      r0,[r4,#4]
        0x0001b6d2:    3013        .0      ADDS     r0,r0,#0x13
        0x0001b6d4:    f7fefae2    ....    BL       am_gpu_power_enable ; 0x19c9c
        0x0001b6d8:    f8d40828    ..(.    LDR      r0,[r4,#0x828]
        0x0001b6dc:    f7fefb00    ....    BL       am_hal_cmdq_enable ; 0x19ce0
        0x0001b6e0:    2000        .       MOVS     r0,#0
        0x0001b6e2:    f8840868    ..h.    STRB     r0,[r4,#0x868]
        0x0001b6e6:    e74b        K.      B        0x1b580 ; am_hal_iom_power_ctrl + 456
    $d
        0x0001b6e8:    00123456    V4..    DCD    1193046
        0x0001b6ec:    4005022c    ,..@    DCD    1074070060
    $t
    i.am_hal_iom_uninitialize
    am_hal_iom_uninitialize
        0x0001b6f0:    e92d41f0    -..A    PUSH     {r4-r8,lr}
        0x0001b6f4:    2700        .'      MOVS     r7,#0
        0x0001b6f6:    1e06        ..      SUBS     r6,r0,#0
        0x0001b6f8:    bf1c        ..      ITT      NE
        0x0001b6fa:    6801        .h      LDRNE    r1,[r0,#0]
        0x0001b6fc:    f0117f80    ....    TSTNE    r1,#0x1000000
        0x0001b700:    d004        ..      BEQ      0x1b70c ; am_hal_iom_uninitialize + 28
        0x0001b702:    4b1d        .K      LDR      r3,[pc,#116] ; [0x1b778] = 0x123456
        0x0001b704:    f021427f    !..B    BIC      r2,r1,#0xff000000
        0x0001b708:    429a        .B      CMP      r2,r3
        0x0001b70a:    d002        ..      BEQ      0x1b712 ; am_hal_iom_uninitialize + 34
        0x0001b70c:    2002        .       MOVS     r0,#2
        0x0001b70e:    e8bd81f0    ....    POP      {r4-r8,pc}
        0x0001b712:    f0117f00    ....    TST      r1,#0x2000000
        0x0001b716:    d028        (.      BEQ      0x1b76a ; am_hal_iom_uninitialize + 122
        0x0001b718:    6a70        pj      LDR      r0,[r6,#0x24]
        0x0001b71a:    4634        4F      MOV      r4,r6
        0x0001b71c:    bb28        (.      CBNZ     r0,0x1b76a ; am_hal_iom_uninitialize + 122
        0x0001b71e:    6860        `h      LDR      r0,[r4,#4]
        0x0001b720:    0300        ..      LSLS     r0,r0,#12
        0x0001b722:    f1004080    ...@    ADD      r0,r0,#0x40000000
        0x0001b726:    f50020a0    ...     ADD      r0,r0,#0x50000
        0x0001b72a:    f8d0111c    ....    LDR      r1,[r0,#0x11c]
        0x0001b72e:    f0210101    !...    BIC      r1,r1,#1
        0x0001b732:    f8c0111c    ....    STR      r1,[r0,#0x11c]
        0x0001b736:    6860        `h      LDR      r0,[r4,#4]
        0x0001b738:    0300        ..      LSLS     r0,r0,#12
        0x0001b73a:    f1004080    ...@    ADD      r0,r0,#0x40000000
        0x0001b73e:    f50020a0    ...     ADD      r0,r0,#0x50000
        0x0001b742:    f8d0111c    ....    LDR      r1,[r0,#0x11c]
        0x0001b746:    f0210110    !...    BIC      r1,r1,#0x10
        0x0001b74a:    f8c0111c    ....    STR      r1,[r0,#0x11c]
        0x0001b74e:    f8d40828    ..(.    LDR      r0,[r4,#0x828]
        0x0001b752:    4625        %F      MOV      r5,r4
        0x0001b754:    b128        (.      CBZ      r0,0x1b762 ; am_hal_iom_uninitialize + 114
        0x0001b756:    2101        .!      MOVS     r1,#1
        0x0001b758:    f7fefbf2    ....    BL       am_hal_cmdq_term ; 0x19f40
        0x0001b75c:    2000        .       MOVS     r0,#0
        0x0001b75e:    f8c50828    ..(.    STR      r0,[r5,#0x828]
        0x0001b762:    6820         h      LDR      r0,[r4,#0]
        0x0001b764:    f0207000     ..p    BIC      r0,r0,#0x2000000
        0x0001b768:    6020         `      STR      r0,[r4,#0]
        0x0001b76a:    6830        0h      LDR      r0,[r6,#0]
        0x0001b76c:    f0207080     ..p    BIC      r0,r0,#0x1000000
        0x0001b770:    6030        0`      STR      r0,[r6,#0]
        0x0001b772:    4638        8F      MOV      r0,r7
        0x0001b774:    e8bd81f0    ....    POP      {r4-r8,pc}
    $d
        0x0001b778:    00123456    V4..    DCD    1193046
    $t
    i.am_hal_itm_disable
    am_hal_itm_disable
        0x0001b77c:    e92d41f0    -..A    PUSH     {r4-r8,lr}
        0x0001b780:    4e27        'N      LDR      r6,[pc,#156] ; [0x1b820] = 0x40020000
        0x0001b782:    f8d60250    ..P.    LDR      r0,[r6,#0x250]
        0x0001b786:    4f27        'O      LDR      r7,[pc,#156] ; [0x1b824] = 0xc5acce55
        0x0001b788:    f8df809c    ....    LDR      r8,[pc,#156] ; [0x1b828] = 0xe0000fb0
        0x0001b78c:    4c27        'L      LDR      r4,[pc,#156] ; [0x1b82c] = 0xe0000e80
        0x0001b78e:    4d28        (M      LDR      r5,[pc,#160] ; [0x1b830] = 0xe000edfc
        0x0001b790:    b988        ..      CBNZ     r0,0x1b7b6 ; am_hal_itm_disable + 58
        0x0001b792:    6828        (h      LDR      r0,[r5,#0]
        0x0001b794:    f0407080    @..p    ORR      r0,r0,#0x1000000
        0x0001b798:    6028        (`      STR      r0,[r5,#0]
        0x0001b79a:    6828        (h      LDR      r0,[r5,#0]
        0x0001b79c:    f0107f80    ....    TST      r0,#0x1000000
        0x0001b7a0:    d0fb        ..      BEQ      0x1b79a ; am_hal_itm_disable + 30
        0x0001b7a2:    f8c87000    ...p    STR      r7,[r8,#0]
        0x0001b7a6:    4923        #I      LDR      r1,[pc,#140] ; [0x1b834] = 0xe0000e40
        0x0001b7a8:    200f        .       MOVS     r0,#0xf
        0x0001b7aa:    6008        .`      STR      r0,[r1,#0]
        0x0001b7ac:    1748        H.      ASRS     r0,r1,#29
        0x0001b7ae:    4922        "I      LDR      r1,[pc,#136] ; [0x1b838] = 0xe0000e00
        0x0001b7b0:    6008        .`      STR      r0,[r1,#0]
        0x0001b7b2:    4822        "H      LDR      r0,[pc,#136] ; [0x1b83c] = 0x150511
        0x0001b7b4:    6020         `      STR      r0,[r4,#0]
        0x0001b7b6:    6820         h      LDR      r0,[r4,#0]
        0x0001b7b8:    f4100f00    ....    TST      r0,#0x800000
        0x0001b7bc:    d1fb        ..      BNE      0x1b7b6 ; am_hal_itm_disable + 58
        0x0001b7be:    2032        2       MOVS     r0,#0x32
        0x0001b7c0:    f7fefd7a    ..z.    BL       am_hal_delay_us ; 0x1a2b8
        0x0001b7c4:    f8c87000    ...p    STR      r7,[r8,#0]
        0x0001b7c8:    481d        .H      LDR      r0,[pc,#116] ; [0x1b840] = 0x800001
        0x0001b7ca:    2200        ."      MOVS     r2,#0
        0x0001b7cc:    6821        !h      LDR      r1,[r4,#0]
        0x0001b7ce:    f0210101    !...    BIC      r1,r1,#1
        0x0001b7d2:    6021        !`      STR      r1,[r4,#0]
        0x0001b7d4:    6821        !h      LDR      r1,[r4,#0]
        0x0001b7d6:    4201        .B      TST      r1,r0
        0x0001b7d8:    d1fc        ..      BNE      0x1b7d4 ; am_hal_itm_disable + 88
        0x0001b7da:    1c52        R.      ADDS     r2,r2,#1
        0x0001b7dc:    2a64        d*      CMP      r2,#0x64
        0x0001b7de:    dbf5        ..      BLT      0x1b7cc ; am_hal_itm_disable + 80
        0x0001b7e0:    6828        (h      LDR      r0,[r5,#0]
        0x0001b7e2:    f0207080     ..p    BIC      r0,r0,#0x1000000
        0x0001b7e6:    6028        (`      STR      r0,[r5,#0]
        0x0001b7e8:    6828        (h      LDR      r0,[r5,#0]
        0x0001b7ea:    f0107f80    ....    TST      r0,#0x1000000
        0x0001b7ee:    d1fb        ..      BNE      0x1b7e8 ; am_hal_itm_disable + 108
        0x0001b7f0:    f8d60250    ..P.    LDR      r0,[r6,#0x250]
        0x0001b7f4:    f020000e     ...    BIC      r0,r0,#0xe
        0x0001b7f8:    f8c60250    ..P.    STR      r0,[r6,#0x250]
        0x0001b7fc:    f8d60250    ..P.    LDR      r0,[r6,#0x250]
        0x0001b800:    f0200001     ...    BIC      r0,r0,#1
        0x0001b804:    f8c60250    ..P.    STR      r0,[r6,#0x250]
        0x0001b808:    f8d60250    ..P.    LDR      r0,[r6,#0x250]
        0x0001b80c:    f42040e0     ..@    BIC      r0,r0,#0x7000
        0x0001b810:    f8c60250    ..P.    STR      r0,[r6,#0x250]
        0x0001b814:    f8d60250    ..P.    LDR      r0,[r6,#0x250]
        0x0001b818:    2800        .(      CMP      r0,#0
        0x0001b81a:    d1fb        ..      BNE      0x1b814 ; am_hal_itm_disable + 152
        0x0001b81c:    e8bd81f0    ....    POP      {r4-r8,pc}
    $d
        0x0001b820:    40020000    ...@    DCD    1073872896
        0x0001b824:    c5acce55    U...    DCD    3316436565
        0x0001b828:    e0000fb0    ....    DCD    3758100400
        0x0001b82c:    e0000e80    ....    DCD    3758100096
        0x0001b830:    e000edfc    ....    DCD    3758157308
        0x0001b834:    e0000e40    @...    DCD    3758100032
        0x0001b838:    e0000e00    ....    DCD    3758099968
        0x0001b83c:    00150511    ....    DCD    1377553
        0x0001b840:    00800001    ....    DCD    8388609
    $t
    i.am_hal_itm_enable
    am_hal_itm_enable
        0x0001b844:    480a        .H      LDR      r0,[pc,#40] ; [0x1b870] = 0xe000edfc
        0x0001b846:    6801        .h      LDR      r1,[r0,#0]
        0x0001b848:    f0417180    A..q    ORR      r1,r1,#0x1000000
        0x0001b84c:    6001        .`      STR      r1,[r0,#0]
        0x0001b84e:    6801        .h      LDR      r1,[r0,#0]
        0x0001b850:    f0117f80    ....    TST      r1,#0x1000000
        0x0001b854:    d0fb        ..      BEQ      0x1b84e ; am_hal_itm_enable + 10
        0x0001b856:    4908        .I      LDR      r1,[pc,#32] ; [0x1b878] = 0xe0000fb0
        0x0001b858:    4806        .H      LDR      r0,[pc,#24] ; [0x1b874] = 0xc5acce55
        0x0001b85a:    6008        .`      STR      r0,[r1,#0]
        0x0001b85c:    4907        .I      LDR      r1,[pc,#28] ; [0x1b87c] = 0xe0000e40
        0x0001b85e:    200f        .       MOVS     r0,#0xf
        0x0001b860:    6008        .`      STR      r0,[r1,#0]
        0x0001b862:    1748        H.      ASRS     r0,r1,#29
        0x0001b864:    4906        .I      LDR      r1,[pc,#24] ; [0x1b880] = 0xe0000e00
        0x0001b866:    6008        .`      STR      r0,[r1,#0]
        0x0001b868:    4907        .I      LDR      r1,[pc,#28] ; [0x1b888] = 0xe0000e80
        0x0001b86a:    4806        .H      LDR      r0,[pc,#24] ; [0x1b884] = 0x150511
        0x0001b86c:    6008        .`      STR      r0,[r1,#0]
        0x0001b86e:    4770        pG      BX       lr
    $d
        0x0001b870:    e000edfc    ....    DCD    3758157308
        0x0001b874:    c5acce55    U...    DCD    3316436565
        0x0001b878:    e0000fb0    ....    DCD    3758100400
        0x0001b87c:    e0000e40    @...    DCD    3758100032
        0x0001b880:    e0000e00    ....    DCD    3758099968
        0x0001b884:    00150511    ....    DCD    1377553
        0x0001b888:    e0000e80    ....    DCD    3758100096
    $t
    i.am_hal_itm_print
    am_hal_itm_print
        0x0001b88c:    7802        .x      LDRB     r2,[r0,#0]
        0x0001b88e:    2100        .!      MOVS     r1,#0
        0x0001b890:    2a00        .*      CMP      r2,#0
        0x0001b892:    bf08        ..      IT       EQ
        0x0001b894:    4770        pG      BXEQ     lr
        0x0001b896:    1c49        I.      ADDS     r1,r1,#1
        0x0001b898:    5c42        B\      LDRB     r2,[r0,r1]
        0x0001b89a:    2a00        .*      CMP      r2,#0
        0x0001b89c:    d1fb        ..      BNE      0x1b896 ; am_hal_itm_print + 10
        0x0001b89e:    2900        .)      CMP      r1,#0
        0x0001b8a0:    bf08        ..      IT       EQ
        0x0001b8a2:    4770        pG      BXEQ     lr
        0x0001b8a4:    f810cb01    ....    LDRB     r12,[r0],#1
        0x0001b8a8:    f04f4260    O.`B    MOV      r2,#0xe0000000
        0x0001b8ac:    6813        .h      LDR      r3,[r2,#0]
        0x0001b8ae:    2b00        .+      CMP      r3,#0
        0x0001b8b0:    d0fc        ..      BEQ      0x1b8ac ; am_hal_itm_print + 32
        0x0001b8b2:    f882c000    ....    STRB     r12,[r2,#0]
        0x0001b8b6:    1e49        I.      SUBS     r1,r1,#1
        0x0001b8b8:    d1f4        ..      BNE      0x1b8a4 ; am_hal_itm_print + 24
        0x0001b8ba:    4770        pG      BX       lr
    i.am_hal_mcuctrl_control
    am_hal_mcuctrl_control
        0x0001b8bc:    e92d47f0    -..G    PUSH     {r4-r10,lr}
        0x0001b8c0:    4eb2        .N      LDR      r6,[pc,#712] ; [0x1bb8c] = 0x100000d8
        0x0001b8c2:    f8df82cc    ....    LDR      r8,[pc,#716] ; [0x1bb90] = 0xfff8c00
        0x0001b8c6:    4cb3        .L      LDR      r4,[pc,#716] ; [0x1bb94] = 0x40020000
        0x0001b8c8:    4db3        .M      LDR      r5,[pc,#716] ; [0x1bb98] = 0x10008334
        0x0001b8ca:    b082        ..      SUB      sp,sp,#8
        0x0001b8cc:    f04f0901    O...    MOV      r9,#1
        0x0001b8d0:    f44f7770    O.pw    MOV      r7,#0x3c0
        0x0001b8d4:    f04f0a00    O...    MOV      r10,#0
        0x0001b8d8:    2806        .(      CMP      r0,#6
        0x0001b8da:    f0808152    ..R.    BCS.W    0x1bb82 ; am_hal_mcuctrl_control + 710
        0x0001b8de:    e8dff000    ....    TBB      [pc,r0]
    $d
        0x0001b8e2:    1303        ..      DCW    4867
        0x0001b8e4:    26fdac41    A..&    DCD    654158913
    $t
        0x0001b8e8:    f7fcfd3c    ..<.    BL       am_hal_interrupt_master_disable ; 0x18364
        0x0001b8ec:    9001        ..      STR      r0,[sp,#4]
        0x0001b8ee:    f8d40120    .. .    LDR      r0,[r4,#0x120]
        0x0001b8f2:    f020001f     ...    BIC      r0,r0,#0x1f
        0x0001b8f6:    f0400019    @...    ORR      r0,r0,#0x19
        0x0001b8fa:    9000        ..      STR      r0,[sp,#0]
        0x0001b8fc:    f8c40120    .. .    STR      r0,[r4,#0x120]
        0x0001b900:    9801        ..      LDR      r0,[sp,#4]
        0x0001b902:    f7fcfd33    ..3.    BL       am_hal_interrupt_master_set ; 0x1836c
        0x0001b906:    e00e        ..      B        0x1b926 ; am_hal_mcuctrl_control + 106
        0x0001b908:    f7fcfd2c    ..,.    BL       am_hal_interrupt_master_disable ; 0x18364
        0x0001b90c:    9001        ..      STR      r0,[sp,#4]
        0x0001b90e:    f8d40120    .. .    LDR      r0,[r4,#0x120]
        0x0001b912:    f020001f     ...    BIC      r0,r0,#0x1f
        0x0001b916:    f0400018    @...    ORR      r0,r0,#0x18
        0x0001b91a:    9000        ..      STR      r0,[sp,#0]
        0x0001b91c:    f8c40120    .. .    STR      r0,[r4,#0x120]
        0x0001b920:    9801        ..      LDR      r0,[sp,#4]
        0x0001b922:    f7fcfd23    ..#.    BL       am_hal_interrupt_master_set ; 0x1836c
        0x0001b926:    b002        ..      ADD      sp,sp,#8
        0x0001b928:    2000        .       MOVS     r0,#0
        0x0001b92a:    e8bd87f0    ....    POP      {r4-r10,pc}
        0x0001b92e:    2900        .)      CMP      r1,#0
        0x0001b930:    f0008127    ..'.    BEQ.W    0x1bb82 ; am_hal_mcuctrl_control + 710
        0x0001b934:    4898        .H      LDR      r0,[pc,#608] ; [0x1bb98] = 0x10008334
        0x0001b936:    7809        .x      LDRB     r1,[r1,#0]
        0x0001b938:    6840        @h      LDR      r0,[r0,#4]
        0x0001b93a:    2900        .)      CMP      r1,#0
        0x0001b93c:    bf0c        ..      ITE      EQ
        0x0001b93e:    f4203000     ..0    BICEQ    r0,r0,#0x20000
        0x0001b942:    f4403000    @..0    ORRNE    r0,r0,#0x20000
        0x0001b946:    6068        h`      STR      r0,[r5,#4]
        0x0001b948:    2800        .(      CMP      r0,#0
        0x0001b94a:    f8d4012c    ..,.    LDR      r0,[r4,#0x12c]
        0x0001b94e:    bf14        ..      ITE      NE
        0x0001b950:    f0400080    @...    ORRNE    r0,r0,#0x80
        0x0001b954:    f0200080     ...    BICEQ    r0,r0,#0x80
        0x0001b958:    f8c4012c    ..,.    STR      r0,[r4,#0x12c]
        0x0001b95c:    b002        ..      ADD      sp,sp,#8
        0x0001b95e:    4650        PF      MOV      r0,r10
        0x0001b960:    e8bd87f0    ....    POP      {r4-r10,pc}
        0x0001b964:    ea5f0a01    _...    MOVS     r10,r1
        0x0001b968:    f000810b    ....    BEQ.W    0x1bb82 ; am_hal_mcuctrl_control + 710
        0x0001b96c:    f7fcfcfa    ....    BL       am_hal_interrupt_master_disable ; 0x18364
        0x0001b970:    9000        ..      STR      r0,[sp,#0]
        0x0001b972:    6828        (h      LDR      r0,[r5,#0]
        0x0001b974:    1c01        ..      ADDS     r1,r0,#0
        0x0001b976:    bf18        ..      IT       NE
        0x0001b978:    2101        .!      MOVNE    r1,#1
        0x0001b97a:    f89a2004    ...     LDRB     r2,[r10,#4]
        0x0001b97e:    b1c2        ..      CBZ      r2,0x1b9b2 ; am_hal_mcuctrl_control + 246
        0x0001b980:    f8da2000    ...     LDR      r2,[r10,#0]
        0x0001b984:    4310        .C      ORRS     r0,r0,r2
        0x0001b986:    6028        (`      STR      r0,[r5,#0]
        0x0001b988:    f89a2007    ...     LDRB     r2,[r10,#7]
        0x0001b98c:    f8da0000    ....    LDR      r0,[r10,#0]
        0x0001b990:    2a00        .*      CMP      r2,#0
        0x0001b992:    686a        jh      LDR      r2,[r5,#4]
        0x0001b994:    bf0c        ..      ITE      EQ
        0x0001b996:    ea220000    "...    BICEQ    r0,r2,r0
        0x0001b99a:    4310        .C      ORRNE    r0,r0,r2
        0x0001b99c:    6068        h`      STR      r0,[r5,#4]
        0x0001b99e:    2800        .(      CMP      r0,#0
        0x0001b9a0:    f8d4012c    ..,.    LDR      r0,[r4,#0x12c]
        0x0001b9a4:    bf14        ..      ITE      NE
        0x0001b9a6:    f0400080    @...    ORRNE    r0,r0,#0x80
        0x0001b9aa:    f0200080     ...    BICEQ    r0,r0,#0x80
        0x0001b9ae:    f8c4012c    ..,.    STR      r0,[r4,#0x12c]
        0x0001b9b2:    6828        (h      LDR      r0,[r5,#0]
        0x0001b9b4:    2800        .(      CMP      r0,#0
        0x0001b9b6:    bf18        ..      IT       NE
        0x0001b9b8:    2001        .       MOVNE    r0,#1
        0x0001b9ba:    4388        .C      BICS     r0,r0,r1
        0x0001b9bc:    bf04        ..      ITT      EQ
        0x0001b9be:    f89a0006    ....    LDRBEQ   r0,[r10,#6]
        0x0001b9c2:    2800        .(      CMPEQ    r0,#0
        0x0001b9c4:    f00080d6    ....    BEQ.W    0x1bb74 ; am_hal_mcuctrl_control + 696
        0x0001b9c8:    f8859008    ....    STRB     r9,[r5,#8]
        0x0001b9cc:    7830        0x      LDRB     r0,[r6,#0]
        0x0001b9ce:    6871        qh      LDR      r1,[r6,#4]
        0x0001b9d0:    f000003f    ..?.    AND      r0,r0,#0x3f
        0x0001b9d4:    ea071181    ....    AND      r1,r7,r1,LSL #6
        0x0001b9d8:    ea400001    @...    ORR      r0,r0,r1
        0x0001b9dc:    ea400008    @...    ORR      r0,r0,r8
        0x0001b9e0:    f8c40128    ..(.    STR      r0,[r4,#0x128]
        0x0001b9e4:    f8d4012c    ..,.    LDR      r0,[r4,#0x12c]
        0x0001b9e8:    f0200022     .".    BIC      r0,r0,#0x22
        0x0001b9ec:    f0400002    @...    ORR      r0,r0,#2
        0x0001b9f0:    f8c4012c    ..,.    STR      r0,[r4,#0x12c]
        0x0001b9f4:    f0400001    @...    ORR      r0,r0,#1
        0x0001b9f8:    f8c4012c    ..,.    STR      r0,[r4,#0x12c]
        0x0001b9fc:    f0400010    @...    ORR      r0,r0,#0x10
        0x0001ba00:    f8c4012c    ..,.    STR      r0,[r4,#0x12c]
        0x0001ba04:    f0400008    @...    ORR      r0,r0,#8
        0x0001ba08:    f8c4012c    ..,.    STR      r0,[r4,#0x12c]
        0x0001ba0c:    f04f0005    O...    MOV      r0,#5
        0x0001ba10:    f7fefc52    ..R.    BL       am_hal_delay_us ; 0x1a2b8
        0x0001ba14:    f8d4012c    ..,.    LDR      r0,[r4,#0x12c]
        0x0001ba18:    f89a1005    ....    LDRB     r1,[r10,#5]
        0x0001ba1c:    f0200010     ...    BIC      r0,r0,#0x10
        0x0001ba20:    2900        .)      CMP      r1,#0
        0x0001ba22:    bf1c        ..      ITT      NE
        0x0001ba24:    f0200009     ...    BICNE    r0,r0,#9
        0x0001ba28:    f4207080     ..p    BICNE    r0,r0,#0x100
        0x0001ba2c:    d002        ..      BEQ      0x1ba34 ; am_hal_mcuctrl_control + 376
        0x0001ba2e:    bf00        ..      NOP      
        0x0001ba30:    f4407080    @..p    ORR      r0,r0,#0x100
        0x0001ba34:    f8c4012c    ..,.    STR      r0,[r4,#0x12c]
        0x0001ba38:    e09c        ..      B        0x1bb74 ; am_hal_mcuctrl_control + 696
        0x0001ba3a:    ea5f0901    _...    MOVS     r9,r1
        0x0001ba3e:    d07d        }.      BEQ      0x1bb3c ; am_hal_mcuctrl_control + 640
        0x0001ba40:    f7fcfc90    ....    BL       am_hal_interrupt_master_disable ; 0x18364
        0x0001ba44:    9000        ..      STR      r0,[sp,#0]
        0x0001ba46:    6828        (h      LDR      r0,[r5,#0]
        0x0001ba48:    1c01        ..      ADDS     r1,r0,#0
        0x0001ba4a:    bf18        ..      IT       NE
        0x0001ba4c:    2101        .!      MOVNE    r1,#1
        0x0001ba4e:    f8992004    ...     LDRB     r2,[r9,#4]
        0x0001ba52:    b1c2        ..      CBZ      r2,0x1ba86 ; am_hal_mcuctrl_control + 458
        0x0001ba54:    f8d92000    ...     LDR      r2,[r9,#0]
        0x0001ba58:    4310        .C      ORRS     r0,r0,r2
        0x0001ba5a:    6028        (`      STR      r0,[r5,#0]
        0x0001ba5c:    f8992007    ...     LDRB     r2,[r9,#7]
        0x0001ba60:    f8d90000    ....    LDR      r0,[r9,#0]
        0x0001ba64:    2a00        .*      CMP      r2,#0
        0x0001ba66:    686a        jh      LDR      r2,[r5,#4]
        0x0001ba68:    bf0c        ..      ITE      EQ
        0x0001ba6a:    ea220000    "...    BICEQ    r0,r2,r0
        0x0001ba6e:    4310        .C      ORRNE    r0,r0,r2
        0x0001ba70:    6068        h`      STR      r0,[r5,#4]
        0x0001ba72:    2800        .(      CMP      r0,#0
        0x0001ba74:    f8d4012c    ..,.    LDR      r0,[r4,#0x12c]
        0x0001ba78:    bf14        ..      ITE      NE
        0x0001ba7a:    f0400080    @...    ORRNE    r0,r0,#0x80
        0x0001ba7e:    f0200080     ...    BICEQ    r0,r0,#0x80
        0x0001ba82:    f8c4012c    ..,.    STR      r0,[r4,#0x12c]
        0x0001ba86:    6828        (h      LDR      r0,[r5,#0]
        0x0001ba88:    2800        .(      CMP      r0,#0
        0x0001ba8a:    bf18        ..      IT       NE
        0x0001ba8c:    2001        .       MOVNE    r0,#1
        0x0001ba8e:    4388        .C      BICS     r0,r0,r1
        0x0001ba90:    bf04        ..      ITT      EQ
        0x0001ba92:    f8990006    ....    LDRBEQ   r0,[r9,#6]
        0x0001ba96:    2800        .(      CMPEQ    r0,#0
        0x0001ba98:    d06c        l.      BEQ      0x1bb74 ; am_hal_mcuctrl_control + 696
        0x0001ba9a:    7830        0x      LDRB     r0,[r6,#0]
        0x0001ba9c:    6871        qh      LDR      r1,[r6,#4]
        0x0001ba9e:    f000003f    ..?.    AND      r0,r0,#0x3f
        0x0001baa2:    ea071181    ....    AND      r1,r7,r1,LSL #6
        0x0001baa6:    ea400001    @...    ORR      r0,r0,r1
        0x0001baaa:    ea400008    @...    ORR      r0,r0,r8
        0x0001baae:    f8c40128    ..(.    STR      r0,[r4,#0x128]
        0x0001bab2:    f8d4012c    ..,.    LDR      r0,[r4,#0x12c]
        0x0001bab6:    f0400022    @.".    ORR      r0,r0,#0x22
        0x0001baba:    f8c4012c    ..,.    STR      r0,[r4,#0x12c]
        0x0001babe:    f0400001    @...    ORR      r0,r0,#1
        0x0001bac2:    f8c4012c    ..,.    STR      r0,[r4,#0x12c]
        0x0001bac6:    f8991005    ....    LDRB     r1,[r9,#5]
        0x0001baca:    2900        .)      CMP      r1,#0
        0x0001bacc:    bf1a        ..      ITTE     NE
        0x0001bace:    f0200001     ...    BICNE    r0,r0,#1
        0x0001bad2:    f4207080     ..p    BICNE    r0,r0,#0x100
        0x0001bad6:    f0200028     .(.    BICEQ    r0,r0,#0x28
        0x0001bada:    e000        ..      B        0x1bade ; am_hal_mcuctrl_control + 546
        0x0001badc:    e004        ..      B        0x1bae8 ; am_hal_mcuctrl_control + 556
        0x0001bade:    bf08        ..      IT       EQ
        0x0001bae0:    f0400008    @...    ORREQ    r0,r0,#8
        0x0001bae4:    d0a6        ..      BEQ      0x1ba34 ; am_hal_mcuctrl_control + 376
        0x0001bae6:    e7a3        ..      B        0x1ba30 ; am_hal_mcuctrl_control + 372
        0x0001bae8:    ea5f0801    _...    MOVS     r8,r1
        0x0001baec:    d049        I.      BEQ      0x1bb82 ; am_hal_mcuctrl_control + 710
        0x0001baee:    f7fcfc39    ..9.    BL       am_hal_interrupt_master_disable ; 0x18364
        0x0001baf2:    9000        ..      STR      r0,[sp,#0]
        0x0001baf4:    f8980004    ....    LDRB     r0,[r8,#4]
        0x0001baf8:    b1d0        ..      CBZ      r0,0x1bb30 ; am_hal_mcuctrl_control + 628
        0x0001bafa:    f8d80000    ....    LDR      r0,[r8,#0]
        0x0001bafe:    6829        )h      LDR      r1,[r5,#0]
        0x0001bb00:    ea210000    !...    BIC      r0,r1,r0
        0x0001bb04:    6028        (`      STR      r0,[r5,#0]
        0x0001bb06:    f8981007    ....    LDRB     r1,[r8,#7]
        0x0001bb0a:    f8d80000    ....    LDR      r0,[r8,#0]
        0x0001bb0e:    2900        .)      CMP      r1,#0
        0x0001bb10:    6869        ih      LDR      r1,[r5,#4]
        0x0001bb12:    bf0c        ..      ITE      EQ
        0x0001bb14:    ea210000    !...    BICEQ    r0,r1,r0
        0x0001bb18:    4308        .C      ORRNE    r0,r0,r1
        0x0001bb1a:    6068        h`      STR      r0,[r5,#4]
        0x0001bb1c:    2800        .(      CMP      r0,#0
        0x0001bb1e:    f8d4012c    ..,.    LDR      r0,[r4,#0x12c]
        0x0001bb22:    bf14        ..      ITE      NE
        0x0001bb24:    f0400080    @...    ORRNE    r0,r0,#0x80
        0x0001bb28:    f0200080     ...    BICEQ    r0,r0,#0x80
        0x0001bb2c:    f8c4012c    ..,.    STR      r0,[r4,#0x12c]
        0x0001bb30:    6828        (h      LDR      r0,[r5,#0]
        0x0001bb32:    b110        ..      CBZ      r0,0x1bb3a ; am_hal_mcuctrl_control + 638
        0x0001bb34:    f8980006    ....    LDRB     r0,[r8,#6]
        0x0001bb38:    b1e0        ..      CBZ      r0,0x1bb74 ; am_hal_mcuctrl_control + 696
        0x0001bb3a:    e000        ..      B        0x1bb3e ; am_hal_mcuctrl_control + 642
        0x0001bb3c:    e021        !.      B        0x1bb82 ; am_hal_mcuctrl_control + 710
        0x0001bb3e:    f885a008    ....    STRB     r10,[r5,#8]
        0x0001bb42:    f8c5a000    ....    STR      r10,[r5,#0]
        0x0001bb46:    7830        0x      LDRB     r0,[r6,#0]
        0x0001bb48:    6871        qh      LDR      r1,[r6,#4]
        0x0001bb4a:    f000003f    ..?.    AND      r0,r0,#0x3f
        0x0001bb4e:    ea071181    ....    AND      r1,r7,r1,LSL #6
        0x0001bb52:    4308        .C      ORRS     r0,r0,r1
        0x0001bb54:    f44030f8    @..0    ORR      r0,r0,#0x1f000
        0x0001bb58:    f0407044    @.Dp    ORR      r0,r0,#0x3100000
        0x0001bb5c:    f8c40128    ..(.    STR      r0,[r4,#0x128]
        0x0001bb60:    f8d4012c    ..,.    LDR      r0,[r4,#0x12c]
        0x0001bb64:    f020002b     .+.    BIC      r0,r0,#0x2b
        0x0001bb68:    f4207080     ..p    BIC      r0,r0,#0x100
        0x0001bb6c:    f0400002    @...    ORR      r0,r0,#2
        0x0001bb70:    f8c4012c    ..,.    STR      r0,[r4,#0x12c]
        0x0001bb74:    9800        ..      LDR      r0,[sp,#0]
        0x0001bb76:    f7fcfbf9    ....    BL       am_hal_interrupt_master_set ; 0x1836c
        0x0001bb7a:    b002        ..      ADD      sp,sp,#8
        0x0001bb7c:    2000        .       MOVS     r0,#0
        0x0001bb7e:    e8bd87f0    ....    POP      {r4-r10,pc}
        0x0001bb82:    b002        ..      ADD      sp,sp,#8
        0x0001bb84:    2006        .       MOVS     r0,#6
        0x0001bb86:    e8bd87f0    ....    POP      {r4-r10,pc}
    $d
        0x0001bb8a:    0000        ..      DCW    0
        0x0001bb8c:    100000d8    ....    DCD    268435672
        0x0001bb90:    0fff8c00    ....    DCD    268405760
        0x0001bb94:    40020000    ...@    DCD    1073872896
        0x0001bb98:    10008334    4...    DCD    268469044
    $t
    i.am_hal_mcuctrl_info_get
    am_hal_mcuctrl_info_get
        0x0001bb9c:    b119        ..      CBZ      r1,0x1bba6 ; am_hal_mcuctrl_info_get + 10
        0x0001bb9e:    4a49        IJ      LDR      r2,[pc,#292] ; [0x1bcc4] = 0x40020000
        0x0001bba0:    b118        ..      CBZ      r0,0x1bbaa ; am_hal_mcuctrl_info_get + 14
        0x0001bba2:    2801        .(      CMP      r0,#1
        0x0001bba4:    d020         .      BEQ      0x1bbe8 ; am_hal_mcuctrl_info_get + 76
        0x0001bba6:    2006        .       MOVS     r0,#6
        0x0001bba8:    4770        pG      BX       lr
        0x0001bbaa:    2000        .       MOVS     r0,#0
        0x0001bbac:    7008        .p      STRB     r0,[r1,#0]
        0x0001bbae:    6950        Pi      LDR      r0,[r2,#0x14]
        0x0001bbb0:    f0000003    ....    AND      r0,r0,#3
        0x0001bbb4:    7048        Hp      STRB     r0,[r1,#1]
        0x0001bbb6:    6950        Pi      LDR      r0,[r2,#0x14]
        0x0001bbb8:    f3c00081    ....    UBFX     r0,r0,#2,#2
        0x0001bbbc:    7088        .p      STRB     r0,[r1,#2]
        0x0001bbbe:    6950        Pi      LDR      r0,[r2,#0x14]
        0x0001bbc0:    f3c01080    ....    UBFX     r0,r0,#6,#1
        0x0001bbc4:    70c8        .p      STRB     r0,[r1,#3]
        0x0001bbc6:    6950        Pi      LDR      r0,[r2,#0x14]
        0x0001bbc8:    f3c010c0    ....    UBFX     r0,r0,#7,#1
        0x0001bbcc:    7108        .q      STRB     r0,[r1,#4]
        0x0001bbce:    6950        Pi      LDR      r0,[r2,#0x14]
        0x0001bbd0:    f3c02000    ...     UBFX     r0,r0,#8,#1
        0x0001bbd4:    7148        Hq      STRB     r0,[r1,#5]
        0x0001bbd6:    6950        Pi      LDR      r0,[r2,#0x14]
        0x0001bbd8:    f3c02040    ..@     UBFX     r0,r0,#9,#1
        0x0001bbdc:    7188        .q      STRB     r0,[r1,#6]
        0x0001bbde:    6950        Pi      LDR      r0,[r2,#0x14]
        0x0001bbe0:    f3c02080    ...     UBFX     r0,r0,#10,#1
        0x0001bbe4:    71c8        .q      STRB     r0,[r1,#7]
        0x0001bbe6:    e06a        j.      B        0x1bcbe ; am_hal_mcuctrl_info_get + 290
        0x0001bbe8:    6810        .h      LDR      r0,[r2,#0]
        0x0001bbea:    6008        .`      STR      r0,[r1,#0]
        0x0001bbec:    6853        Sh      LDR      r3,[r2,#4]
        0x0001bbee:    604b        K`      STR      r3,[r1,#4]
        0x0001bbf0:    6893        .h      LDR      r3,[r2,#8]
        0x0001bbf2:    608b        .`      STR      r3,[r1,#8]
        0x0001bbf4:    23f0        .#      MOVS     r3,#0xf0
        0x0001bbf6:    ea032310    ...#    AND      r3,r3,r0,LSR #8
        0x0001bbfa:    f3c02003    ...     UBFX     r0,r0,#8,#4
        0x0001bbfe:    1c40        @.      ADDS     r0,r0,#1
        0x0001bc00:    3310        .3      ADDS     r3,r3,#0x10
        0x0001bc02:    4318        .C      ORRS     r0,r0,r3
        0x0001bc04:    68d3        .h      LDR      r3,[r2,#0xc]
        0x0001bc06:    f8dfc0c0    ....    LDR      r12,[pc,#192] ; [0x1bcc8] = 0xfff00
        0x0001bc0a:    ea03030c    ....    AND      r3,r3,r12
        0x0001bc0e:    4318        .C      ORRS     r0,r0,r3
        0x0001bc10:    60c8        .`      STR      r0,[r1,#0xc]
        0x0001bc12:    6910        .i      LDR      r0,[r2,#0x10]
        0x0001bc14:    6108        .a      STR      r0,[r1,#0x10]
        0x0001bc16:    6950        Pi      LDR      r0,[r2,#0x14]
        0x0001bc18:    6148        Ha      STR      r0,[r1,#0x14]
        0x0001bc1a:    2001        .       MOVS     r0,#1
        0x0001bc1c:    6188        .a      STR      r0,[r1,#0x18]
        0x0001bc1e:    6950        Pi      LDR      r0,[r2,#0x14]
        0x0001bc20:    4b2a        *K      LDR      r3,[pc,#168] ; [0x1bccc] = 0x1ee00
        0x0001bc22:    f3c00081    ....    UBFX     r0,r0,#2,#2
        0x0001bc26:    f8330010    3...    LDRH     r0,[r3,r0,LSL #1]
        0x0001bc2a:    0280        ..      LSLS     r0,r0,#10
        0x0001bc2c:    6288        .b      STR      r0,[r1,#0x28]
        0x0001bc2e:    f44f20c0    O..     MOV      r0,#0x60000
        0x0001bc32:    6208        .b      STR      r0,[r1,#0x20]
        0x0001bc34:    6950        Pi      LDR      r0,[r2,#0x14]
        0x0001bc36:    6952        Ri      LDR      r2,[r2,#0x14]
        0x0001bc38:    f0000303    ....    AND      r3,r0,#3
        0x0001bc3c:    4824        $H      LDR      r0,[pc,#144] ; [0x1bcd0] = 0x1ee08
        0x0001bc3e:    f8303023    0.#0    LDRH     r3,[r0,r3,LSL #2]
        0x0001bc42:    f0020203    ....    AND      r2,r2,#3
        0x0001bc46:    eb000082    ....    ADD      r0,r0,r2,LSL #2
        0x0001bc4a:    8840        @.      LDRH     r0,[r0,#2]
        0x0001bc4c:    4418        .D      ADD      r0,r0,r3
        0x0001bc4e:    0280        ..      LSLS     r0,r0,#10
        0x0001bc50:    6248        Hb      STR      r0,[r1,#0x24]
        0x0001bc52:    4820         H      LDR      r0,[pc,#128] ; [0x1bcd4] = 0xf0000fe0
        0x0001bc54:    6800        .h      LDR      r0,[r0,#0]
        0x0001bc56:    4a20         J      LDR      r2,[pc,#128] ; [0x1bcd8] = 0xf0000fe4
        0x0001bc58:    b2c0        ..      UXTB     r0,r0
        0x0001bc5a:    62c8        .b      STR      r0,[r1,#0x2c]
        0x0001bc5c:    6813        .h      LDR      r3,[r2,#0]
        0x0001bc5e:    f003030f    ....    AND      r3,r3,#0xf
        0x0001bc62:    ea402003    @..     ORR      r0,r0,r3,LSL #8
        0x0001bc66:    62c8        .b      STR      r0,[r1,#0x2c]
        0x0001bc68:    6810        .h      LDR      r0,[r2,#0]
        0x0001bc6a:    1d12        ..      ADDS     r2,r2,#4
        0x0001bc6c:    f3c01003    ....    UBFX     r0,r0,#4,#4
        0x0001bc70:    6308        .c      STR      r0,[r1,#0x30]
        0x0001bc72:    6813        .h      LDR      r3,[r2,#0]
        0x0001bc74:    f003030f    ....    AND      r3,r3,#0xf
        0x0001bc78:    ea401003    @...    ORR      r0,r0,r3,LSL #4
        0x0001bc7c:    6308        .c      STR      r0,[r1,#0x30]
        0x0001bc7e:    6810        .h      LDR      r0,[r2,#0]
        0x0001bc80:    f3c01003    ....    UBFX     r0,r0,#4,#4
        0x0001bc84:    0100        ..      LSLS     r0,r0,#4
        0x0001bc86:    1d12        ..      ADDS     r2,r2,#4
        0x0001bc88:    6348        Hc      STR      r0,[r1,#0x34]
        0x0001bc8a:    6812        .h      LDR      r2,[r2,#0]
        0x0001bc8c:    f3c21203    ....    UBFX     r2,r2,#4,#4
        0x0001bc90:    4310        .C      ORRS     r0,r0,r2
        0x0001bc92:    6348        Hc      STR      r0,[r1,#0x34]
        0x0001bc94:    4811        .H      LDR      r0,[pc,#68] ; [0x1bcdc] = 0xf0000ffc
        0x0001bc96:    6800        .h      LDR      r0,[r0,#0]
        0x0001bc98:    4a11        .J      LDR      r2,[pc,#68] ; [0x1bce0] = 0xf0000ff8
        0x0001bc9a:    0600        ..      LSLS     r0,r0,#24
        0x0001bc9c:    6388        .c      STR      r0,[r1,#0x38]
        0x0001bc9e:    6812        .h      LDR      r2,[r2,#0]
        0x0001bca0:    b2d2        ..      UXTB     r2,r2
        0x0001bca2:    ea404002    @..@    ORR      r0,r0,r2,LSL #16
        0x0001bca6:    4a0f        .J      LDR      r2,[pc,#60] ; [0x1bce4] = 0xf0000ff4
        0x0001bca8:    6388        .c      STR      r0,[r1,#0x38]
        0x0001bcaa:    6812        .h      LDR      r2,[r2,#0]
        0x0001bcac:    b2d2        ..      UXTB     r2,r2
        0x0001bcae:    ea402002    @..     ORR      r0,r0,r2,LSL #8
        0x0001bcb2:    4a0d        .J      LDR      r2,[pc,#52] ; [0x1bce8] = 0xf0000ff0
        0x0001bcb4:    6388        .c      STR      r0,[r1,#0x38]
        0x0001bcb6:    6812        .h      LDR      r2,[r2,#0]
        0x0001bcb8:    b2d2        ..      UXTB     r2,r2
        0x0001bcba:    4310        .C      ORRS     r0,r0,r2
        0x0001bcbc:    6388        .c      STR      r0,[r1,#0x38]
        0x0001bcbe:    2000        .       MOVS     r0,#0
        0x0001bcc0:    4770        pG      BX       lr
    $d
        0x0001bcc2:    0000        ..      DCW    0
        0x0001bcc4:    40020000    ...@    DCD    1073872896
        0x0001bcc8:    000fff00    ....    DCD    1048320
        0x0001bccc:    0001ee00    ....    DCD    126464
        0x0001bcd0:    0001ee08    ....    DCD    126472
        0x0001bcd4:    f0000fe0    ....    DCD    4026535904
        0x0001bcd8:    f0000fe4    ....    DCD    4026535908
        0x0001bcdc:    f0000ffc    ....    DCD    4026535932
        0x0001bce0:    f0000ff8    ....    DCD    4026535928
        0x0001bce4:    f0000ff4    ....    DCD    4026535924
        0x0001bce8:    f0000ff0    ....    DCD    4026535920
    $t
    i.am_hal_mram_info_read
    am_hal_mram_info_read
        0x0001bcec:    b410        ..      PUSH     {r4}
        0x0001bcee:    0004        ..      MOVS     r4,r0
        0x0001bcf0:    f04f0000    O...    MOV      r0,#0
        0x0001bcf4:    eb010c02    ....    ADD      r12,r1,r2
        0x0001bcf8:    d012        ..      BEQ      0x1bd20 ; am_hal_mram_info_read + 52
        0x0001bcfa:    2c01        .,      CMP      r4,#1
        0x0001bcfc:    bf1e        ..      ITTT     NE
        0x0001bcfe:    2001        .       MOVNE    r0,#1
        0x0001bd00:    bc10        ..      POPNE    {r4}
        0x0001bd02:    4770        pG      BXNE     lr
        0x0001bd04:    f5a16490    ...d    SUB      r4,r1,#0x480
        0x0001bd08:    f5b47fc0    ....    CMP      r4,#0x180
        0x0001bd0c:    d205        ..      BCS      0x1bd1a ; am_hal_mram_info_read + 46
        0x0001bd0e:    f5bc6fc0    ...o    CMP      r12,#0x600
        0x0001bd12:    bf98        ..      IT       LS
        0x0001bd14:    f8dfc040    ..@.    LDRLS    r12,[pc,#64] ; [0x1bd58] = 0x42002000
        0x0001bd18:    d90b        ..      BLS      0x1bd32 ; am_hal_mram_info_read + 70
        0x0001bd1a:    bc10        ..      POP      {r4}
        0x0001bd1c:    2002        .       MOVS     r0,#2
        0x0001bd1e:    4770        pG      BX       lr
        0x0001bd20:    f5b17f00    ....    CMP      r1,#0x200
        0x0001bd24:    d2f9        ..      BCS      0x1bd1a ; am_hal_mram_info_read + 46
        0x0001bd26:    f5bc7f00    ....    CMP      r12,#0x200
        0x0001bd2a:    bf98        ..      IT       LS
        0x0001bd2c:    f04f4c84    O..L    MOVLS    r12,#0x42000000
        0x0001bd30:    d8f3        ..      BHI      0x1bd1a ; am_hal_mram_info_read + 46
        0x0001bd32:    eb0c0181    ....    ADD      r1,r12,r1,LSL #2
        0x0001bd36:    f04f0c00    O...    MOV      r12,#0
        0x0001bd3a:    2a00        .*      CMP      r2,#0
        0x0001bd3c:    bf9c        ..      ITT      LS
        0x0001bd3e:    bc10        ..      POPLS    {r4}
        0x0001bd40:    4770        pG      BXLS     lr
        0x0001bd42:    bf00        ..      NOP      
        0x0001bd44:    f8514b04    Q..K    LDR      r4,[r1],#4
        0x0001bd48:    f10c0c01    ....    ADD      r12,r12,#1
        0x0001bd4c:    f8434b04    C..K    STR      r4,[r3],#4
        0x0001bd50:    4562        bE      CMP      r2,r12
        0x0001bd52:    d8f7        ..      BHI      0x1bd44 ; am_hal_mram_info_read + 88
        0x0001bd54:    bc10        ..      POP      {r4}
        0x0001bd56:    4770        pG      BX       lr
    $d
        0x0001bd58:    42002000    . .B    DCD    1107304448
    $t
    i.am_hal_pwrctrl_control
    am_hal_pwrctrl_control
        0x0001bd5c:    e92d41f0    -..A    PUSH     {r4-r8,lr}
        0x0001bd60:    2700        .'      MOVS     r7,#0
        0x0001bd62:    4d77        wM      LDR      r5,[pc,#476] ; [0x1bf40] = 0x40021000
        0x0001bd64:    4c77        wL      LDR      r4,[pc,#476] ; [0x1bf44] = 0x40020000
        0x0001bd66:    46b8        .F      MOV      r8,r7
        0x0001bd68:    b158        X.      CBZ      r0,0x1bd82 ; am_hal_pwrctrl_control + 38
        0x0001bd6a:    2801        .(      CMP      r0,#1
        0x0001bd6c:    d07d        }.      BEQ      0x1be6a ; am_hal_pwrctrl_control + 270
        0x0001bd6e:    2802        .(      CMP      r0,#2
        0x0001bd70:    d07c        |.      BEQ      0x1be6c ; am_hal_pwrctrl_control + 272
        0x0001bd72:    2803        .(      CMP      r0,#3
        0x0001bd74:    bf0c        ..      ITE      EQ
        0x0001bd76:    f8c58004    ....    STREQ    r8,[r5,#4]
        0x0001bd7a:    2706        .'      MOVNE    r7,#6
        0x0001bd7c:    4638        8F      MOV      r0,r7
        0x0001bd7e:    e8bd81f0    ....    POP      {r4-r8,pc}
        0x0001bd82:    4e71        qN      LDR      r6,[pc,#452] ; [0x1bf48] = 0x100000e0
        0x0001bd84:    6870        ph      LDR      r0,[r6,#4]
        0x0001bd86:    f1b03fff    ...?    CMP      r0,#0xffffffff
        0x0001bd8a:    d10d        ..      BNE      0x1bda8 ; am_hal_pwrctrl_control + 76
        0x0001bd8c:    2201        ."      MOVS     r2,#1
        0x0001bd8e:    1d33        3.      ADDS     r3,r6,#4
        0x0001bd90:    f24041c4    @..A    MOV      r1,#0x4c4
        0x0001bd94:    4610        .F      MOV      r0,r2
        0x0001bd96:    f7ffffa9    ....    BL       am_hal_mram_info_read ; 0x1bcec
        0x0001bd9a:    b918        ..      CBNZ     r0,0x1bda4 ; am_hal_pwrctrl_control + 72
        0x0001bd9c:    6870        ph      LDR      r0,[r6,#4]
        0x0001bd9e:    f1b03fff    ...?    CMP      r0,#0xffffffff
        0x0001bda2:    d101        ..      BNE      0x1bda8 ; am_hal_pwrctrl_control + 76
        0x0001bda4:    f8c68004    ....    STR      r8,[r6,#4]
        0x0001bda8:    6870        ph      LDR      r0,[r6,#4]
        0x0001bdaa:    2802        .(      CMP      r0,#2
        0x0001bdac:    d238        8.      BCS      0x1be20 ; am_hal_pwrctrl_control + 196
        0x0001bdae:    bf00        ..      NOP      
        0x0001bdb0:    f8d40378    ..x.    LDR      r0,[r4,#0x378]
        0x0001bdb4:    f02050f8     ..P    BIC      r0,r0,#0x1f000000
        0x0001bdb8:    f8c40378    ..x.    STR      r0,[r4,#0x378]
        0x0001bdbc:    f8d40358    ..X.    LDR      r0,[r4,#0x358]
        0x0001bdc0:    f42000f8     ...    BIC      r0,r0,#0x7c0000
        0x0001bdc4:    f8c40358    ..X.    STR      r0,[r4,#0x358]
        0x0001bdc8:    f8d40344    ..D.    LDR      r0,[r4,#0x344]
        0x0001bdcc:    f02050f8     ..P    BIC      r0,r0,#0x1f000000
        0x0001bdd0:    f1006020    .. `    ADD      r0,r0,#0xa000000
        0x0001bdd4:    f8c40344    ..D.    STR      r0,[r4,#0x344]
        0x0001bdd8:    f8d40344    ..D.    LDR      r0,[r4,#0x344]
        0x0001bddc:    f42040f0     ..@    BIC      r0,r0,#0x7800
        0x0001bde0:    f50040a0    ...@    ADD      r0,r0,#0x5000
        0x0001bde4:    f8c40344    ..D.    STR      r0,[r4,#0x344]
        0x0001bde8:    f8d40358    ..X.    LDR      r0,[r4,#0x358]
        0x0001bdec:    f42050f8     ..P    BIC      r0,r0,#0x1f00
        0x0001bdf0:    f5006070    ..p`    ADD      r0,r0,#0xf00
        0x0001bdf4:    f8c40358    ..X.    STR      r0,[r4,#0x358]
        0x0001bdf8:    f8d40354    ..T.    LDR      r0,[r4,#0x354]
        0x0001bdfc:    f44010f0    @...    ORR      r0,r0,#0x1e0000
        0x0001be00:    f8c40354    ..T.    STR      r0,[r4,#0x354]
        0x0001be04:    f8d40360    ..`.    LDR      r0,[r4,#0x360]
        0x0001be08:    f02060f8     ..`    BIC      r0,r0,#0x7c00000
        0x0001be0c:    f1007070    ..pp    ADD      r0,r0,#0x3c00000
        0x0001be10:    f8c40360    ..`.    STR      r0,[r4,#0x360]
        0x0001be14:    f8d40360    ..`.    LDR      r0,[r4,#0x360]
        0x0001be18:    f44010f0    @...    ORR      r0,r0,#0x1e0000
        0x0001be1c:    f8c40360    ..`.    STR      r0,[r4,#0x360]
        0x0001be20:    f8d40348    ..H.    LDR      r0,[r4,#0x348]
        0x0001be24:    f0205070     .pP    BIC      r0,r0,#0x3c000000
        0x0001be28:    f1005020    .. P    ADD      r0,r0,#0x28000000
        0x0001be2c:    f8c40348    ..H.    STR      r0,[r4,#0x348]
        0x0001be30:    f8d40348    ..H.    LDR      r0,[r4,#0x348]
        0x0001be34:    f42030f0     ..0    BIC      r0,r0,#0x1e000
        0x0001be38:    f50030a0    ...0    ADD      r0,r0,#0x14000
        0x0001be3c:    f8c40348    ..H.    STR      r0,[r4,#0x348]
        0x0001be40:    f8d4035c    ..\.    LDR      r0,[r4,#0x35c]
        0x0001be44:    f0407070    @.pp    ORR      r0,r0,#0x3c00000
        0x0001be48:    f8c4035c    ..\.    STR      r0,[r4,#0x35c]
        0x0001be4c:    f8d4035c    ..\.    LDR      r0,[r4,#0x35c]
        0x0001be50:    f44050f0    @..P    ORR      r0,r0,#0x1e00
        0x0001be54:    f8c4035c    ..\.    STR      r0,[r4,#0x35c]
        0x0001be58:    f8d40380    ....    LDR      r0,[r4,#0x380]
        0x0001be5c:    f0404000    @..@    ORR      r0,r0,#0x80000000
        0x0001be60:    f8c40380    ....    STR      r0,[r4,#0x380]
        0x0001be64:    f8d40380    ....    LDR      r0,[r4,#0x380]
        0x0001be68:    e001        ..      B        0x1be6e ; am_hal_pwrctrl_control + 274
        0x0001be6a:    e04c        L.      B        0x1bf06 ; am_hal_pwrctrl_control + 426
        0x0001be6c:    e05d        ].      B        0x1bf2a ; am_hal_pwrctrl_control + 462
        0x0001be6e:    f0404080    @..@    ORR      r0,r0,#0x40000000
        0x0001be72:    f8c40380    ....    STR      r0,[r4,#0x380]
        0x0001be76:    f8d40370    ..p.    LDR      r0,[r4,#0x370]
        0x0001be7a:    f3c05005    ...P    UBFX     r0,r0,#20,#6
        0x0001be7e:    60b0        .`      STR      r0,[r6,#8]
        0x0001be80:    f8d40370    ..p.    LDR      r0,[r4,#0x370]
        0x0001be84:    f020707c     .|p    BIC      r0,r0,#0x3f00000
        0x0001be88:    f8c40370    ..p.    STR      r0,[r4,#0x370]
        0x0001be8c:    f04f0007    O...    MOV      r0,#7
        0x0001be90:    f8c4033c    ..<.    STR      r0,[r4,#0x33c]
        0x0001be94:    d20d        ..      BCS      0x1beb2 ; am_hal_pwrctrl_control + 342
        0x0001be96:    f8d40340    ..@.    LDR      r0,[r4,#0x340]
        0x0001be9a:    f0207070     .pp    BIC      r0,r0,#0x3c00000
        0x0001be9e:    f8c40340    ..@.    STR      r0,[r4,#0x340]
        0x0001bea2:    f8d40340    ..@.    LDR      r0,[r4,#0x340]
        0x0001bea6:    f42060f8     ..`    BIC      r0,r0,#0x7c0
        0x0001beaa:    f1000040    ..@.    ADD      r0,r0,#0x40
        0x0001beae:    f8c40340    ..@.    STR      r0,[r4,#0x340]
        0x0001beb2:    6820         h      LDR      r0,[r4,#0]
        0x0001beb4:    f4104f7f    ...O    TST      r0,#0xff00
        0x0001beb8:    d006        ..      BEQ      0x1bec8 ; am_hal_pwrctrl_control + 364
        0x0001beba:    f8d50100    ....    LDR      r0,[r5,#0x100]
        0x0001bebe:    f0400001    @...    ORR      r0,r0,#1
        0x0001bec2:    f8c50100    ....    STR      r0,[r5,#0x100]
        0x0001bec6:    e011        ..      B        0x1beec ; am_hal_pwrctrl_control + 400
        0x0001bec8:    f001fb80    ....    BL       buck_ldo_override_init ; 0x1d5cc
        0x0001becc:    f8d50100    ....    LDR      r0,[r5,#0x100]
        0x0001bed0:    f0400001    @...    ORR      r0,r0,#1
        0x0001bed4:    f8c50100    ....    STR      r0,[r5,#0x100]
        0x0001bed8:    2330        0#      MOVS     r3,#0x30
        0x0001beda:    461a        .F      MOV      r2,r3
        0x0001bedc:    491b        .I      LDR      r1,[pc,#108] ; [0x1bf4c] = 0x40021108
        0x0001bede:    2005        .       MOVS     r0,#5
        0x0001bee0:    f7fefa00    ....    BL       am_hal_delay_us_status_change ; 0x1a2e4
        0x0001bee4:    0007        ..      MOVS     r7,r0
        0x0001bee6:    bf18        ..      IT       NE
        0x0001bee8:    e8bd81f0    ....    POPNE    {r4-r8,pc}
        0x0001beec:    f8d40378    ..x.    LDR      r0,[r4,#0x378]
        0x0001bef0:    f0404000    @..@    ORR      r0,r0,#0x80000000
        0x0001bef4:    f8c40378    ..x.    STR      r0,[r4,#0x378]
        0x0001bef8:    6820         h      LDR      r0,[r4,#0]
        0x0001befa:    f4104f7f    ...O    TST      r0,#0xff00
        0x0001befe:    bf18        ..      IT       NE
        0x0001bf00:    f001fb64    ..d.    BLNE     buck_ldo_override_init ; 0x1d5cc
        0x0001bf04:    e73a        :.      B        0x1bd7c ; am_hal_pwrctrl_control + 32
        0x0001bf06:    4812        .H      LDR      r0,[pc,#72] ; [0x1bf50] = 0x1ee58
        0x0001bf08:    e9d0104a    ..J.    LDRD     r1,r0,[r0,#0x128]
        0x0001bf0c:    6809        .h      LDR      r1,[r1,#0]
        0x0001bf0e:    4008        .@      ANDS     r0,r0,r1
        0x0001bf10:    bf18        ..      IT       NE
        0x0001bf12:    2001        .       MOVNE    r0,#1
        0x0001bf14:    2800        .(      CMP      r0,#0
        0x0001bf16:    f43faf31    ?.1.    BEQ      0x1bd7c ; am_hal_pwrctrl_control + 32
        0x0001bf1a:    2012        .       MOVS     r0,#0x12
        0x0001bf1c:    f000f96a    ..j.    BL       am_hal_pwrctrl_periph_disable ; 0x1c1f4
        0x0001bf20:    2800        .(      CMP      r0,#0
        0x0001bf22:    f43faf2b    ?.+.    BEQ      0x1bd7c ; am_hal_pwrctrl_control + 32
        0x0001bf26:    e8bd81f0    ....    POP      {r4-r8,pc}
        0x0001bf2a:    f8d40124    ..$.    LDR      r0,[r4,#0x124]
        0x0001bf2e:    f02000fc     ...    BIC      r0,r0,#0xfc
        0x0001bf32:    3080        .0      ADDS     r0,r0,#0x80
        0x0001bf34:    f8c40124    ..$.    STR      r0,[r4,#0x124]
        0x0001bf38:    2001        .       MOVS     r0,#1
        0x0001bf3a:    f8c40120    .. .    STR      r0,[r4,#0x120]
        0x0001bf3e:    e71d        ..      B        0x1bd7c ; am_hal_pwrctrl_control + 32
    $d
        0x0001bf40:    40021000    ...@    DCD    1073876992
        0x0001bf44:    40020000    ...@    DCD    1073872896
        0x0001bf48:    100000e0    ....    DCD    268435680
        0x0001bf4c:    40021108    ...@    DCD    1073877256
        0x0001bf50:    0001ee58    X...    DCD    126552
    $t
    i.am_hal_pwrctrl_low_power_init
    am_hal_pwrctrl_low_power_init
        0x0001bf54:    b538        8.      PUSH     {r3-r5,lr}
        0x0001bf56:    4835        5H      LDR      r0,[pc,#212] ; [0x1c02c] = 0x40021000
        0x0001bf58:    6880        .h      LDR      r0,[r0,#8]
        0x0001bf5a:    4c35        5L      LDR      r4,[pc,#212] ; [0x1c030] = 0x100000e0
        0x0001bf5c:    f3c05000    ...P    UBFX     r0,r0,#20,#1
        0x0001bf60:    70a0        .p      STRB     r0,[r4,#2]
        0x0001bf62:    4834        4H      LDR      r0,[pc,#208] ; [0x1c034] = 0x1ee4c
        0x0001bf64:    f000f870    ..p.    BL       am_hal_pwrctrl_mcu_memory_config ; 0x1c048
        0x0001bf68:    4833        3H      LDR      r0,[pc,#204] ; [0x1c038] = 0x1ee52
        0x0001bf6a:    f000fa33    ..3.    BL       am_hal_pwrctrl_sram_config ; 0x1c3d4
        0x0001bf6e:    f04f2540    O.@%    MOV      r5,#0x40004000
        0x0001bf72:    6c68        hl      LDR      r0,[r5,#0x44]
        0x0001bf74:    f440007c    @.|.    ORR      r0,r0,#0xfc0000
        0x0001bf78:    6468        hd      STR      r0,[r5,#0x44]
        0x0001bf7a:    4830        0H      LDR      r0,[pc,#192] ; [0x1c03c] = 0x1f010
        0x0001bf7c:    f7fef856    ..V.    BL       am_hal_daxi_config ; 0x1a02c
        0x0001bf80:    2064        d       MOVS     r0,#0x64
        0x0001bf82:    f7fef999    ....    BL       am_hal_delay_us ; 0x1a2b8
        0x0001bf86:    6c68        hl      LDR      r0,[r5,#0x44]
        0x0001bf88:    f0400040    @.@.    ORR      r0,r0,#0x40
        0x0001bf8c:    6468        hd      STR      r0,[r5,#0x44]
        0x0001bf8e:    482c        ,H      LDR      r0,[pc,#176] ; [0x1c040] = 0x40020000
        0x0001bf90:    f8d0137c    ..|.    LDR      r1,[r0,#0x37c]
        0x0001bf94:    f44101fd    A...    ORR      r1,r1,#0x7e8000
        0x0001bf98:    f04161b0    A..a    ORR      r1,r1,#0x5800000
        0x0001bf9c:    f8c0137c    ..|.    STR      r1,[r0,#0x37c]
        0x0001bfa0:    4928        (I      LDR      r1,[pc,#160] ; [0x1c044] = 0x40020444
        0x0001bfa2:    680a        .h      LDR      r2,[r1,#0]
        0x0001bfa4:    f422427f    "..B    BIC      r2,r2,#0xff00
        0x0001bfa8:    f5026280    ...b    ADD      r2,r2,#0x400
        0x0001bfac:    600a        .`      STR      r2,[r1,#0]
        0x0001bfae:    7861        ax      LDRB     r1,[r4,#1]
        0x0001bfb0:    b9c1        ..      CBNZ     r1,0x1bfe4 ; am_hal_pwrctrl_low_power_init + 144
        0x0001bfb2:    f8d0136c    ..l.    LDR      r1,[r0,#0x36c]
        0x0001bfb6:    f3c15105    ...Q    UBFX     r1,r1,#20,#6
        0x0001bfba:    60e1        .`      STR      r1,[r4,#0xc]
        0x0001bfbc:    f8d01088    ....    LDR      r1,[r0,#0x88]
        0x0001bfc0:    f001013f    ..?.    AND      r1,r1,#0x3f
        0x0001bfc4:    6121        !a      STR      r1,[r4,#0x10]
        0x0001bfc6:    f8d0136c    ..l.    LDR      r1,[r0,#0x36c]
        0x0001bfca:    0e89        ..      LSRS     r1,r1,#26
        0x0001bfcc:    6161        aa      STR      r1,[r4,#0x14]
        0x0001bfce:    f8d01088    ....    LDR      r1,[r0,#0x88]
        0x0001bfd2:    f3c14185    ...A    UBFX     r1,r1,#18,#6
        0x0001bfd6:    61a1        .a      STR      r1,[r4,#0x18]
        0x0001bfd8:    6c40        @l      LDR      r0,[r0,#0x44]
        0x0001bfda:    f3c010c6    ....    UBFX     r0,r0,#7,#7
        0x0001bfde:    61e0        .a      STR      r0,[r4,#0x1c]
        0x0001bfe0:    2001        .       MOVS     r0,#1
        0x0001bfe2:    7060        `p      STRB     r0,[r4,#1]
        0x0001bfe4:    68e0        .h      LDR      r0,[r4,#0xc]
        0x0001bfe6:    6260        `b      STR      r0,[r4,#0x24]
        0x0001bfe8:    6920         i      LDR      r0,[r4,#0x10]
        0x0001bfea:    2500        .%      MOVS     r5,#0
        0x0001bfec:    6225        %b      STR      r5,[r4,#0x20]
        0x0001bfee:    2201        ."      MOVS     r2,#1
        0x0001bff0:    62a0        .b      STR      r0,[r4,#0x28]
        0x0001bff2:    466b        kF      MOV      r3,sp
        0x0001bff4:    f44f6192    O..a    MOV      r1,#0x490
        0x0001bff8:    4610        .F      MOV      r0,r2
        0x0001bffa:    f7fffe77    ..w.    BL       am_hal_mram_info_read ; 0x1bcec
        0x0001bffe:    b988        ..      CBNZ     r0,0x1c024 ; am_hal_pwrctrl_low_power_init + 208
        0x0001c000:    9800        ..      LDR      r0,[sp,#0]
        0x0001c002:    f0100f06    ....    TST      r0,#6
        0x0001c006:    bf04        ..      ITT      EQ
        0x0001c008:    2003        .       MOVEQ    r0,#3
        0x0001c00a:    6220         b      STREQ    r0,[r4,#0x20]
        0x0001c00c:    d00a        ..      BEQ      0x1c024 ; am_hal_pwrctrl_low_power_init + 208
        0x0001c00e:    f0100f02    ....    TST      r0,#2
        0x0001c012:    bf08        ..      IT       EQ
        0x0001c014:    2006        .       MOVEQ    r0,#6
        0x0001c016:    d007        ..      BEQ      0x1c028 ; am_hal_pwrctrl_low_power_init + 212
        0x0001c018:    f0100f04    ....    TST      r0,#4
        0x0001c01c:    bf0c        ..      ITE      EQ
        0x0001c01e:    2009        .       MOVEQ    r0,#9
        0x0001c020:    6225        %b      STRNE    r5,[r4,#0x20]
        0x0001c022:    d001        ..      BEQ      0x1c028 ; am_hal_pwrctrl_low_power_init + 212
        0x0001c024:    2000        .       MOVS     r0,#0
        0x0001c026:    bd38        8.      POP      {r3-r5,pc}
        0x0001c028:    6220         b      STR      r0,[r4,#0x20]
        0x0001c02a:    e7fb        ..      B        0x1c024 ; am_hal_pwrctrl_low_power_init + 208
    $d
        0x0001c02c:    40021000    ...@    DCD    1073876992
        0x0001c030:    100000e0    ....    DCD    268435680
        0x0001c034:    0001ee4c    L...    DCD    126540
        0x0001c038:    0001ee52    R...    DCD    126546
        0x0001c03c:    0001f010    ....    DCD    126992
        0x0001c040:    40020000    ...@    DCD    1073872896
        0x0001c044:    40020444    D..@    DCD    1073873988
    $t
    i.am_hal_pwrctrl_mcu_memory_config
    am_hal_pwrctrl_mcu_memory_config
        0x0001c048:    b538        8.      PUSH     {r3-r5,lr}
        0x0001c04a:    4605        .F      MOV      r5,r0
        0x0001c04c:    7800        .x      LDRB     r0,[r0,#0]
        0x0001c04e:    4c43        CL      LDR      r4,[pc,#268] ; [0x1c15c] = 0x40021000
        0x0001c050:    b120         .      CBZ      r0,0x1c05c ; am_hal_pwrctrl_mcu_memory_config + 20
        0x0001c052:    2801        .(      CMP      r0,#1
        0x0001c054:    d00a        ..      BEQ      0x1c06c ; am_hal_pwrctrl_mcu_memory_config + 36
        0x0001c056:    2802        .(      CMP      r0,#2
        0x0001c058:    d011        ..      BEQ      0x1c07e ; am_hal_pwrctrl_mcu_memory_config + 54
        0x0001c05a:    e018        ..      B        0x1c08e ; am_hal_pwrctrl_mcu_memory_config + 70
        0x0001c05c:    6960        `i      LDR      r0,[r4,#0x14]
        0x0001c05e:    f0200010     ...    BIC      r0,r0,#0x10
        0x0001c062:    6160        `a      STR      r0,[r4,#0x14]
        0x0001c064:    6960        `i      LDR      r0,[r4,#0x14]
        0x0001c066:    f0200020     . .    BIC      r0,r0,#0x20
        0x0001c06a:    e00f        ..      B        0x1c08c ; am_hal_pwrctrl_mcu_memory_config + 68
        0x0001c06c:    6960        `i      LDR      r0,[r4,#0x14]
        0x0001c06e:    f0400010    @...    ORR      r0,r0,#0x10
        0x0001c072:    6160        `a      STR      r0,[r4,#0x14]
        0x0001c074:    6960        `i      LDR      r0,[r4,#0x14]
        0x0001c076:    f0200020     . .    BIC      r0,r0,#0x20
        0x0001c07a:    6160        `a      STR      r0,[r4,#0x14]
        0x0001c07c:    e007        ..      B        0x1c08e ; am_hal_pwrctrl_mcu_memory_config + 70
        0x0001c07e:    6960        `i      LDR      r0,[r4,#0x14]
        0x0001c080:    f0400010    @...    ORR      r0,r0,#0x10
        0x0001c084:    6160        `a      STR      r0,[r4,#0x14]
        0x0001c086:    6960        `i      LDR      r0,[r4,#0x14]
        0x0001c088:    f0400020    @. .    ORR      r0,r0,#0x20
        0x0001c08c:    6160        `a      STR      r0,[r4,#0x14]
        0x0001c08e:    78a9        .x      LDRB     r1,[r5,#2]
        0x0001c090:    6960        `i      LDR      r0,[r4,#0x14]
        0x0001c092:    f3610002    a...    BFI      r0,r1,#0,#3
        0x0001c096:    6160        `a      STR      r0,[r4,#0x14]
        0x0001c098:    7929        )y      LDRB     r1,[r5,#4]
        0x0001c09a:    6960        `i      LDR      r0,[r4,#0x14]
        0x0001c09c:    f36100c3    a...    BFI      r0,r1,#3,#1
        0x0001c0a0:    6160        `a      STR      r0,[r4,#0x14]
        0x0001c0a2:    2001        .       MOVS     r0,#1
        0x0001c0a4:    9000        ..      STR      r0,[sp,#0]
        0x0001c0a6:    6963        ci      LDR      r3,[r4,#0x14]
        0x0001c0a8:    223f        ?"      MOVS     r2,#0x3f
        0x0001c0aa:    492d        -I      LDR      r1,[pc,#180] ; [0x1c160] = 0x40021018
        0x0001c0ac:    2005        .       MOVS     r0,#5
        0x0001c0ae:    f7fef945    ..E.    BL       am_hal_delay_us_status_check ; 0x1a33c
        0x0001c0b2:    2800        .(      CMP      r0,#0
        0x0001c0b4:    bf18        ..      IT       NE
        0x0001c0b6:    bd38        8.      POPNE    {r3-r5,pc}
        0x0001c0b8:    69a0        .i      LDR      r0,[r4,#0x18]
        0x0001c0ba:    6961        ai      LDR      r1,[r4,#0x14]
        0x0001c0bc:    f3c01000    ....    UBFX     r0,r0,#4,#1
        0x0001c0c0:    f3c11100    ....    UBFX     r1,r1,#4,#1
        0x0001c0c4:    4288        .B      CMP      r0,r1
        0x0001c0c6:    d117        ..      BNE      0x1c0f8 ; am_hal_pwrctrl_mcu_memory_config + 176
        0x0001c0c8:    69a0        .i      LDR      r0,[r4,#0x18]
        0x0001c0ca:    6961        ai      LDR      r1,[r4,#0x14]
        0x0001c0cc:    f3c01040    ..@.    UBFX     r0,r0,#5,#1
        0x0001c0d0:    f3c11140    ..@.    UBFX     r1,r1,#5,#1
        0x0001c0d4:    4288        .B      CMP      r0,r1
        0x0001c0d6:    d10f        ..      BNE      0x1c0f8 ; am_hal_pwrctrl_mcu_memory_config + 176
        0x0001c0d8:    69a0        .i      LDR      r0,[r4,#0x18]
        0x0001c0da:    6961        ai      LDR      r1,[r4,#0x14]
        0x0001c0dc:    f0000007    ....    AND      r0,r0,#7
        0x0001c0e0:    f0010107    ....    AND      r1,r1,#7
        0x0001c0e4:    4288        .B      CMP      r0,r1
        0x0001c0e6:    d107        ..      BNE      0x1c0f8 ; am_hal_pwrctrl_mcu_memory_config + 176
        0x0001c0e8:    69a0        .i      LDR      r0,[r4,#0x18]
        0x0001c0ea:    6961        ai      LDR      r1,[r4,#0x14]
        0x0001c0ec:    f3c000c0    ....    UBFX     r0,r0,#3,#1
        0x0001c0f0:    f3c101c0    ....    UBFX     r1,r1,#3,#1
        0x0001c0f4:    4288        .B      CMP      r0,r1
        0x0001c0f6:    d001        ..      BEQ      0x1c0fc ; am_hal_pwrctrl_mcu_memory_config + 180
        0x0001c0f8:    2001        .       MOVS     r0,#1
        0x0001c0fa:    bd38        8.      POP      {r3-r5,pc}
        0x0001c0fc:    7868        hx      LDRB     r0,[r5,#1]
        0x0001c0fe:    2800        .(      CMP      r0,#0
        0x0001c100:    69e0        .i      LDR      r0,[r4,#0x1c]
        0x0001c102:    bf14        ..      ITE      NE
        0x0001c104:    f0200010     ...    BICNE    r0,r0,#0x10
        0x0001c108:    f0400010    @...    ORREQ    r0,r0,#0x10
        0x0001c10c:    61e0        .a      STR      r0,[r4,#0x1c]
        0x0001c10e:    7968        hy      LDRB     r0,[r5,#5]
        0x0001c110:    2800        .(      CMP      r0,#0
        0x0001c112:    69e0        .i      LDR      r0,[r4,#0x1c]
        0x0001c114:    bf14        ..      ITE      NE
        0x0001c116:    f0200008     ...    BICNE    r0,r0,#8
        0x0001c11a:    f0400008    @...    ORREQ    r0,r0,#8
        0x0001c11e:    61e0        .a      STR      r0,[r4,#0x1c]
        0x0001c120:    78e8        .x      LDRB     r0,[r5,#3]
        0x0001c122:    2800        .(      CMP      r0,#0
        0x0001c124:    bf04        ..      ITT      EQ
        0x0001c126:    69e0        .i      LDREQ    r0,[r4,#0x1c]
        0x0001c128:    f0400007    @...    ORREQ    r0,r0,#7
        0x0001c12c:    d013        ..      BEQ      0x1c156 ; am_hal_pwrctrl_mcu_memory_config + 270
        0x0001c12e:    2801        .(      CMP      r0,#1
        0x0001c130:    d008        ..      BEQ      0x1c144 ; am_hal_pwrctrl_mcu_memory_config + 252
        0x0001c132:    2803        .(      CMP      r0,#3
        0x0001c134:    d00b        ..      BEQ      0x1c14e ; am_hal_pwrctrl_mcu_memory_config + 262
        0x0001c136:    2807        .(      CMP      r0,#7
        0x0001c138:    bf04        ..      ITT      EQ
        0x0001c13a:    69e0        .i      LDREQ    r0,[r4,#0x1c]
        0x0001c13c:    f0200007     ...    BICEQ    r0,r0,#7
        0x0001c140:    d009        ..      BEQ      0x1c156 ; am_hal_pwrctrl_mcu_memory_config + 270
        0x0001c142:    e009        ..      B        0x1c158 ; am_hal_pwrctrl_mcu_memory_config + 272
        0x0001c144:    69e0        .i      LDR      r0,[r4,#0x1c]
        0x0001c146:    f0200007     ...    BIC      r0,r0,#7
        0x0001c14a:    1d80        ..      ADDS     r0,r0,#6
        0x0001c14c:    e003        ..      B        0x1c156 ; am_hal_pwrctrl_mcu_memory_config + 270
        0x0001c14e:    69e0        .i      LDR      r0,[r4,#0x1c]
        0x0001c150:    f0200007     ...    BIC      r0,r0,#7
        0x0001c154:    1d00        ..      ADDS     r0,r0,#4
        0x0001c156:    61e0        .a      STR      r0,[r4,#0x1c]
        0x0001c158:    2000        .       MOVS     r0,#0
        0x0001c15a:    bd38        8.      POP      {r3-r5,pc}
    $d
        0x0001c15c:    40021000    ...@    DCD    1073876992
        0x0001c160:    40021018    ...@    DCD    1073877016
    $t
    i.am_hal_pwrctrl_mcu_mode_select
    am_hal_pwrctrl_mcu_mode_select
        0x0001c164:    e92d41f0    -..A    PUSH     {r4-r8,lr}
        0x0001c168:    4c1a        .L      LDR      r4,[pc,#104] ; [0x1c1d4] = 0x40021000
        0x0001c16a:    4605        .F      MOV      r5,r0
        0x0001c16c:    2801        .(      CMP      r0,#1
        0x0001c16e:    d00d        ..      BEQ      0x1c18c ; am_hal_pwrctrl_mcu_mode_select + 40
        0x0001c170:    2d02        .-      CMP      r5,#2
        0x0001c172:    bf1c        ..      ITT      NE
        0x0001c174:    2006        .       MOVNE    r0,#6
        0x0001c176:    e8bd81f0    ....    POPNE    {r4-r8,pc}
        0x0001c17a:    f8d40108    ....    LDR      r0,[r4,#0x108]
        0x0001c17e:    f3c01001    ....    UBFX     r0,r0,#4,#2
        0x0001c182:    2803        .(      CMP      r0,#3
        0x0001c184:    bf1c        ..      ITT      NE
        0x0001c186:    2007        .       MOVNE    r0,#7
        0x0001c188:    e8bd81f0    ....    POPNE    {r4-r8,pc}
        0x0001c18c:    4812        .H      LDR      r0,[pc,#72] ; [0x1c1d8] = 0x100000e0
        0x0001c18e:    7801        .x      LDRB     r1,[r0,#0]
        0x0001c190:    428d        .B      CMP      r5,r1
        0x0001c192:    d012        ..      BEQ      0x1c1ba ; am_hal_pwrctrl_mcu_mode_select + 86
        0x0001c194:    7005        .p      STRB     r5,[r0,#0]
        0x0001c196:    6820         h      LDR      r0,[r4,#0]
        0x0001c198:    f3650001    e...    BFI      r0,r5,#0,#2
        0x0001c19c:    6020         `      STR      r0,[r4,#0]
        0x0001c19e:    2704        .'      MOVS     r7,#4
        0x0001c1a0:    2600        .&      MOVS     r6,#0
        0x0001c1a2:    6820         h      LDR      r0,[r4,#0]
        0x0001c1a4:    f0100f04    ....    TST      r0,#4
        0x0001c1a8:    d00a        ..      BEQ      0x1c1c0 ; am_hal_pwrctrl_mcu_mode_select + 92
        0x0001c1aa:    6820         h      LDR      r0,[r4,#0]
        0x0001c1ac:    f3c000c1    ....    UBFX     r0,r0,#3,#2
        0x0001c1b0:    42a8        .B      CMP      r0,r5
        0x0001c1b2:    bf1c        ..      ITT      NE
        0x0001c1b4:    2001        .       MOVNE    r0,#1
        0x0001c1b6:    e8bd81f0    ....    POPNE    {r4-r8,pc}
        0x0001c1ba:    2000        .       MOVS     r0,#0
        0x0001c1bc:    e8bd81f0    ....    POP      {r4-r8,pc}
        0x0001c1c0:    2001        .       MOVS     r0,#1
        0x0001c1c2:    f7fef879    ..y.    BL       am_hal_delay_us ; 0x1a2b8
        0x0001c1c6:    1c76        v.      ADDS     r6,r6,#1
        0x0001c1c8:    2e05        ..      CMP      r6,#5
        0x0001c1ca:    d3ea        ..      BCC      0x1c1a2 ; am_hal_pwrctrl_mcu_mode_select + 62
        0x0001c1cc:    4638        8F      MOV      r0,r7
        0x0001c1ce:    e8bd81f0    ....    POP      {r4-r8,pc}
    $d
        0x0001c1d2:    0000        ..      DCW    0
        0x0001c1d4:    40021000    ...@    DCD    1073876992
        0x0001c1d8:    100000e0    ....    DCD    268435680
    $t
    i.am_hal_pwrctrl_mcu_mode_status
    am_hal_pwrctrl_mcu_mode_status
        0x0001c1dc:    2800        .(      CMP      r0,#0
        0x0001c1de:    bf04        ..      ITT      EQ
        0x0001c1e0:    2006        .       MOVEQ    r0,#6
        0x0001c1e2:    4770        pG      BXEQ     lr
        0x0001c1e4:    4902        .I      LDR      r1,[pc,#8] ; [0x1c1f0] = 0x100000e0
        0x0001c1e6:    7809        .x      LDRB     r1,[r1,#0]
        0x0001c1e8:    7001        .p      STRB     r1,[r0,#0]
        0x0001c1ea:    2000        .       MOVS     r0,#0
        0x0001c1ec:    4770        pG      BX       lr
    $d
        0x0001c1ee:    0000        ..      DCW    0
        0x0001c1f0:    100000e0    ....    DCD    268435680
    $t
    i.am_hal_pwrctrl_periph_disable
    am_hal_pwrctrl_periph_disable
        0x0001c1f4:    2819        .(      CMP      r0,#0x19
        0x0001c1f6:    bf24        $.      ITT      CS
        0x0001c1f8:    2006        .       MOVCS    r0,#6
        0x0001c1fa:    4770        pG      BXCS     lr
        0x0001c1fc:    e92d43f8    -..C    PUSH     {r3-r9,lr}
        0x0001c200:    4941        AI      LDR      r1,[pc,#260] ; [0x1c308] = 0x1ee58
        0x0001c202:    4602        .F      MOV      r2,r0
        0x0001c204:    eb011800    ....    ADD      r8,r1,r0,LSL #4
        0x0001c208:    2500        .%      MOVS     r5,#0
        0x0001c20a:    e9d86900    ...i    LDRD     r6,r9,[r8,#0]
        0x0001c20e:    e9d87402    ...t    LDRD     r7,r4,[r8,#8]
        0x0001c212:    6831        1h      LDR      r1,[r6,#0]
        0x0001c214:    ea110f09    ....    TST      r1,r9
        0x0001c218:    bf04        ..      ITT      EQ
        0x0001c21a:    2000        .       MOVEQ    r0,#0
        0x0001c21c:    e8bd83f8    ....    POPEQ    {r3-r9,pc}
        0x0001c220:    2a12        .*      CMP      r2,#0x12
        0x0001c222:    d123        #.      BNE      0x1c26c ; am_hal_pwrctrl_periph_disable + 120
        0x0001c224:    4839        9H      LDR      r0,[pc,#228] ; [0x1c30c] = 0x400c0fe0
        0x0001c226:    6800        .h      LDR      r0,[r0,#0]
        0x0001c228:    28c0        .(      CMP      r0,#0xc0
        0x0001c22a:    d11f        ..      BNE      0x1c26c ; am_hal_pwrctrl_periph_disable + 120
        0x0001c22c:    2301        .#      MOVS     r3,#1
        0x0001c22e:    461a        .F      MOV      r2,r3
        0x0001c230:    4937        7I      LDR      r1,[pc,#220] ; [0x1c310] = 0x400c0a7c
        0x0001c232:    2064        d       MOVS     r0,#0x64
        0x0001c234:    f7fef856    ..V.    BL       am_hal_delay_us_status_change ; 0x1a2e4
        0x0001c238:    2800        .(      CMP      r0,#0
        0x0001c23a:    bf18        ..      IT       NE
        0x0001c23c:    e8bd83f8    ....    POPNE    {r3-r9,pc}
        0x0001c240:    2301        .#      MOVS     r3,#1
        0x0001c242:    461a        .F      MOV      r2,r3
        0x0001c244:    4933        3I      LDR      r1,[pc,#204] ; [0x1c314] = 0x400c1f10
        0x0001c246:    2064        d       MOVS     r0,#0x64
        0x0001c248:    f7fef84c    ..L.    BL       am_hal_delay_us_status_change ; 0x1a2e4
        0x0001c24c:    2800        .(      CMP      r0,#0
        0x0001c24e:    bf18        ..      IT       NE
        0x0001c250:    e8bd83f8    ....    POPNE    {r3-r9,pc}
        0x0001c254:    4830        0H      LDR      r0,[pc,#192] ; [0x1c318] = 0x400c0a80
        0x0001c256:    6801        .h      LDR      r1,[r0,#0]
        0x0001c258:    f0410101    A...    ORR      r1,r1,#1
        0x0001c25c:    6001        .`      STR      r1,[r0,#0]
        0x0001c25e:    482f        /H      LDR      r0,[pc,#188] ; [0x1c31c] = 0x100000e0
        0x0001c260:    6a01        .j      LDR      r1,[r0,#0x20]
        0x0001c262:    2900        .)      CMP      r1,#0
        0x0001c264:    bf1c        ..      ITT      NE
        0x0001c266:    2000        .       MOVNE    r0,#0
        0x0001c268:    f001faca    ....    BLNE     crypto_boost_trims ; 0x1d800
        0x0001c26c:    f7fcf87a    ..z.    BL       am_hal_interrupt_master_disable ; 0x18364
        0x0001c270:    9000        ..      STR      r0,[sp,#0]
        0x0001c272:    6830        0h      LDR      r0,[r6,#0]
        0x0001c274:    ea200009     ...    BIC      r0,r0,r9
        0x0001c278:    6030        0`      STR      r0,[r6,#0]
        0x0001c27a:    9800        ..      LDR      r0,[sp,#0]
        0x0001c27c:    f7fcf876    ..v.    BL       am_hal_interrupt_master_set ; 0x1836c
        0x0001c280:    4623        #F      MOV      r3,r4
        0x0001c282:    461a        .F      MOV      r2,r3
        0x0001c284:    4639        9F      MOV      r1,r7
        0x0001c286:    2005        .       MOVS     r0,#5
        0x0001c288:    9500        ..      STR      r5,[sp,#0]
        0x0001c28a:    f7fef857    ..W.    BL       am_hal_delay_us_status_check ; 0x1a33c
        0x0001c28e:    2800        .(      CMP      r0,#0
        0x0001c290:    bf08        ..      IT       EQ
        0x0001c292:    e8bd83f8    ....    POPEQ    {r3-r9,pc}
        0x0001c296:    4628        (F      MOV      r0,r5
        0x0001c298:    f8d8200c    ...     LDR      r2,[r8,#0xc]
        0x0001c29c:    f8d81000    ....    LDR      r1,[r8,#0]
        0x0001c2a0:    f5b27ff0    ....    CMP      r2,#0x1e0
        0x0001c2a4:    d029        ).      BEQ      0x1c2fa ; am_hal_pwrctrl_periph_disable + 262
        0x0001c2a6:    dc0b        ..      BGT      0x1c2c0 ; am_hal_pwrctrl_periph_disable + 204
        0x0001c2a8:    2a1e        .*      CMP      r2,#0x1e
        0x0001c2aa:    d020         .      BEQ      0x1c2ee ; am_hal_pwrctrl_periph_disable + 250
        0x0001c2ac:    2a47        G*      CMP      r2,#0x47
        0x0001c2ae:    bf18        ..      IT       NE
        0x0001c2b0:    e8bd83f8    ....    POPNE    {r3-r9,pc}
        0x0001c2b4:    680a        .h      LDR      r2,[r1,#0]
        0x0001c2b6:    f0120f47    ..G.    TST      r2,#0x47
        0x0001c2ba:    d115        ..      BNE      0x1c2e8 ; am_hal_pwrctrl_periph_disable + 244
        0x0001c2bc:    e8bd83f8    ....    POP      {r3-r9,pc}
        0x0001c2c0:    f5b25ff0    ..._    CMP      r2,#0x1e00
        0x0001c2c4:    d00a        ..      BEQ      0x1c2dc ; am_hal_pwrctrl_periph_disable + 232
        0x0001c2c6:    f5b23fe0    ...?    CMP      r2,#0x1c000
        0x0001c2ca:    bf18        ..      IT       NE
        0x0001c2cc:    e8bd83f8    ....    POPNE    {r3-r9,pc}
        0x0001c2d0:    680a        .h      LDR      r2,[r1,#0]
        0x0001c2d2:    f4123fe0    ...?    TST      r2,#0x1c000
        0x0001c2d6:    d107        ..      BNE      0x1c2e8 ; am_hal_pwrctrl_periph_disable + 244
        0x0001c2d8:    e8bd83f8    ....    POP      {r3-r9,pc}
        0x0001c2dc:    680a        .h      LDR      r2,[r1,#0]
        0x0001c2de:    f4125ff0    ..._    TST      r2,#0x1e00
        0x0001c2e2:    bf08        ..      IT       EQ
        0x0001c2e4:    e8bd83f8    ....    POPEQ    {r3-r9,pc}
        0x0001c2e8:    6809        .h      LDR      r1,[r1,#0]
        0x0001c2ea:    e8bd83f8    ....    POP      {r3-r9,pc}
        0x0001c2ee:    680a        .h      LDR      r2,[r1,#0]
        0x0001c2f0:    f0120f1e    ....    TST      r2,#0x1e
        0x0001c2f4:    d1f8        ..      BNE      0x1c2e8 ; am_hal_pwrctrl_periph_disable + 244
        0x0001c2f6:    e8bd83f8    ....    POP      {r3-r9,pc}
        0x0001c2fa:    680a        .h      LDR      r2,[r1,#0]
        0x0001c2fc:    f4127ff0    ....    TST      r2,#0x1e0
        0x0001c300:    d1f2        ..      BNE      0x1c2e8 ; am_hal_pwrctrl_periph_disable + 244
        0x0001c302:    e8bd83f8    ....    POP      {r3-r9,pc}
    $d
        0x0001c306:    0000        ..      DCW    0
        0x0001c308:    0001ee58    X...    DCD    126552
        0x0001c30c:    400c0fe0    ...@    DCD    1074532320
        0x0001c310:    400c0a7c    |..@    DCD    1074530940
        0x0001c314:    400c1f10    ...@    DCD    1074536208
        0x0001c318:    400c0a80    ...@    DCD    1074530944
        0x0001c31c:    100000e0    ....    DCD    268435680
    $t
    i.am_hal_pwrctrl_periph_enable
    am_hal_pwrctrl_periph_enable
        0x0001c320:    2819        .(      CMP      r0,#0x19
        0x0001c322:    bf24        $.      ITT      CS
        0x0001c324:    2006        .       MOVCS    r0,#6
        0x0001c326:    4770        pG      BXCS     lr
        0x0001c328:    e92d43f8    -..C    PUSH     {r3-r9,lr}
        0x0001c32c:    4926        &I      LDR      r1,[pc,#152] ; [0x1c3c8] = 0x1ee58
        0x0001c32e:    4604        .F      MOV      r4,r0
        0x0001c330:    eb011004    ....    ADD      r0,r1,r4,LSL #4
        0x0001c334:    e9d06502    ...e    LDRD     r6,r5,[r0,#8]
        0x0001c338:    e9d08900    ....    LDRD     r8,r9,[r0,#0]
        0x0001c33c:    f8d80000    ....    LDR      r0,[r8,#0]
        0x0001c340:    ea100f09    ....    TST      r0,r9
        0x0001c344:    d13c        <.      BNE      0x1c3c0 ; am_hal_pwrctrl_periph_enable + 160
        0x0001c346:    4f21        !O      LDR      r7,[pc,#132] ; [0x1c3cc] = 0x100000e0
        0x0001c348:    2c12        .,      CMP      r4,#0x12
        0x0001c34a:    d105        ..      BNE      0x1c358 ; am_hal_pwrctrl_periph_enable + 56
        0x0001c34c:    6a39        9j      LDR      r1,[r7,#0x20]
        0x0001c34e:    2900        .)      CMP      r1,#0
        0x0001c350:    bf1c        ..      ITT      NE
        0x0001c352:    2001        .       MOVNE    r0,#1
        0x0001c354:    f001fa54    ..T.    BLNE     crypto_boost_trims ; 0x1d800
        0x0001c358:    f7fcf804    ....    BL       am_hal_interrupt_master_disable ; 0x18364
        0x0001c35c:    9000        ..      STR      r0,[sp,#0]
        0x0001c35e:    f8d80000    ....    LDR      r0,[r8,#0]
        0x0001c362:    ea400009    @...    ORR      r0,r0,r9
        0x0001c366:    f8c80000    ....    STR      r0,[r8,#0]
        0x0001c36a:    9800        ..      LDR      r0,[sp,#0]
        0x0001c36c:    f7fbfffe    ....    BL       am_hal_interrupt_master_set ; 0x1836c
        0x0001c370:    2001        .       MOVS     r0,#1
        0x0001c372:    462b        +F      MOV      r3,r5
        0x0001c374:    9000        ..      STR      r0,[sp,#0]
        0x0001c376:    461a        .F      MOV      r2,r3
        0x0001c378:    4631        1F      MOV      r1,r6
        0x0001c37a:    2005        .       MOVS     r0,#5
        0x0001c37c:    f7fdffde    ....    BL       am_hal_delay_us_status_check ; 0x1a33c
        0x0001c380:    ea5f0800    _...    MOVS     r8,r0
        0x0001c384:    d00a        ..      BEQ      0x1c39c ; am_hal_pwrctrl_periph_enable + 124
        0x0001c386:    2c12        .,      CMP      r4,#0x12
        0x0001c388:    d105        ..      BNE      0x1c396 ; am_hal_pwrctrl_periph_enable + 118
        0x0001c38a:    6a39        9j      LDR      r1,[r7,#0x20]
        0x0001c38c:    2900        .)      CMP      r1,#0
        0x0001c38e:    bf1c        ..      ITT      NE
        0x0001c390:    2000        .       MOVNE    r0,#0
        0x0001c392:    f001fa35    ..5.    BLNE     crypto_boost_trims ; 0x1d800
        0x0001c396:    4640        @F      MOV      r0,r8
        0x0001c398:    e8bd83f8    ....    POP      {r3-r9,pc}
        0x0001c39c:    2c12        .,      CMP      r4,#0x12
        0x0001c39e:    d109        ..      BNE      0x1c3b4 ; am_hal_pwrctrl_periph_enable + 148
        0x0001c3a0:    2301        .#      MOVS     r3,#1
        0x0001c3a2:    461a        .F      MOV      r2,r3
        0x0001c3a4:    490a        .I      LDR      r1,[pc,#40] ; [0x1c3d0] = 0x400c1f10
        0x0001c3a6:    2064        d       MOVS     r0,#0x64
        0x0001c3a8:    f7fdff9c    ....    BL       am_hal_delay_us_status_change ; 0x1a2e4
        0x0001c3ac:    2800        .(      CMP      r0,#0
        0x0001c3ae:    bf18        ..      IT       NE
        0x0001c3b0:    e8bd83f8    ....    POPNE    {r3-r9,pc}
        0x0001c3b4:    6830        0h      LDR      r0,[r6,#0]
        0x0001c3b6:    4228        (B      TST      r0,r5
        0x0001c3b8:    bf04        ..      ITT      EQ
        0x0001c3ba:    2001        .       MOVEQ    r0,#1
        0x0001c3bc:    e8bd83f8    ....    POPEQ    {r3-r9,pc}
        0x0001c3c0:    2000        .       MOVS     r0,#0
        0x0001c3c2:    e8bd83f8    ....    POP      {r3-r9,pc}
    $d
        0x0001c3c6:    0000        ..      DCW    0
        0x0001c3c8:    0001ee58    X...    DCD    126552
        0x0001c3cc:    100000e0    ....    DCD    268435680
        0x0001c3d0:    400c1f10    ...@    DCD    1074536208
    $t
    i.am_hal_pwrctrl_sram_config
    am_hal_pwrctrl_sram_config
        0x0001c3d4:    b538        8.      PUSH     {r3-r5,lr}
        0x0001c3d6:    4c29        )L      LDR      r4,[pc,#164] ; [0x1c47c] = 0x40021000
        0x0001c3d8:    4605        .F      MOV      r5,r0
        0x0001c3da:    7801        .x      LDRB     r1,[r0,#0]
        0x0001c3dc:    6a60        `j      LDR      r0,[r4,#0x24]
        0x0001c3de:    f3610001    a...    BFI      r0,r1,#0,#2
        0x0001c3e2:    6260        `b      STR      r0,[r4,#0x24]
        0x0001c3e4:    2001        .       MOVS     r0,#1
        0x0001c3e6:    9000        ..      STR      r0,[sp,#0]
        0x0001c3e8:    6a63        cj      LDR      r3,[r4,#0x24]
        0x0001c3ea:    2203        ."      MOVS     r2,#3
        0x0001c3ec:    4924        $I      LDR      r1,[pc,#144] ; [0x1c480] = 0x40021028
        0x0001c3ee:    2005        .       MOVS     r0,#5
        0x0001c3f0:    f7fdffa4    ....    BL       am_hal_delay_us_status_check ; 0x1a33c
        0x0001c3f4:    2800        .(      CMP      r0,#0
        0x0001c3f6:    bf18        ..      IT       NE
        0x0001c3f8:    bd38        8.      POPNE    {r3-r5,pc}
        0x0001c3fa:    6aa0        .j      LDR      r0,[r4,#0x28]
        0x0001c3fc:    6a61        aj      LDR      r1,[r4,#0x24]
        0x0001c3fe:    f0000003    ....    AND      r0,r0,#3
        0x0001c402:    f0010103    ....    AND      r1,r1,#3
        0x0001c406:    4288        .B      CMP      r0,r1
        0x0001c408:    bf1c        ..      ITT      NE
        0x0001c40a:    2001        .       MOVNE    r0,#1
        0x0001c40c:    bd38        8.      POPNE    {r3-r5,pc}
        0x0001c40e:    7869        ix      LDRB     r1,[r5,#1]
        0x0001c410:    6ae0        .j      LDR      r0,[r4,#0x2c]
        0x0001c412:    f3610083    a...    BFI      r0,r1,#2,#2
        0x0001c416:    62e0        .b      STR      r0,[r4,#0x2c]
        0x0001c418:    78a9        .x      LDRB     r1,[r5,#2]
        0x0001c41a:    6ae0        .j      LDR      r0,[r4,#0x2c]
        0x0001c41c:    f3611087    a...    BFI      r0,r1,#6,#2
        0x0001c420:    62e0        .b      STR      r0,[r4,#0x2c]
        0x0001c422:    78e9        .x      LDRB     r1,[r5,#3]
        0x0001c424:    6ae0        .j      LDR      r0,[r4,#0x2c]
        0x0001c426:    f3612009    a..     BFI      r0,r1,#8,#2
        0x0001c42a:    62e0        .b      STR      r0,[r4,#0x2c]
        0x0001c42c:    7929        )y      LDRB     r1,[r5,#4]
        0x0001c42e:    6ae0        .j      LDR      r0,[r4,#0x2c]
        0x0001c430:    f3611005    a...    BFI      r0,r1,#4,#2
        0x0001c434:    62e0        .b      STR      r0,[r4,#0x2c]
        0x0001c436:    7968        hy      LDRB     r0,[r5,#5]
        0x0001c438:    2800        .(      CMP      r0,#0
        0x0001c43a:    bf04        ..      ITT      EQ
        0x0001c43c:    6ae0        .j      LDREQ    r0,[r4,#0x2c]
        0x0001c43e:    f0400003    @...    ORREQ    r0,r0,#3
        0x0001c442:    d00e        ..      BEQ      0x1c462 ; am_hal_pwrctrl_sram_config + 142
        0x0001c444:    2801        .(      CMP      r0,#1
        0x0001c446:    d008        ..      BEQ      0x1c45a ; am_hal_pwrctrl_sram_config + 134
        0x0001c448:    2802        .(      CMP      r0,#2
        0x0001c44a:    d011        ..      BEQ      0x1c470 ; am_hal_pwrctrl_sram_config + 156
        0x0001c44c:    2803        .(      CMP      r0,#3
        0x0001c44e:    bf04        ..      ITT      EQ
        0x0001c450:    6ae0        .j      LDREQ    r0,[r4,#0x2c]
        0x0001c452:    f0200003     ...    BICEQ    r0,r0,#3
        0x0001c456:    d004        ..      BEQ      0x1c462 ; am_hal_pwrctrl_sram_config + 142
        0x0001c458:    e004        ..      B        0x1c464 ; am_hal_pwrctrl_sram_config + 144
        0x0001c45a:    6ae0        .j      LDR      r0,[r4,#0x2c]
        0x0001c45c:    f0200003     ...    BIC      r0,r0,#3
        0x0001c460:    1c80        ..      ADDS     r0,r0,#2
        0x0001c462:    62e0        .b      STR      r0,[r4,#0x2c]
        0x0001c464:    6c20         l      LDR      r0,[r4,#0x40]
        0x0001c466:    f4206040     .@`    BIC      r0,r0,#0xc00
        0x0001c46a:    6420         d      STR      r0,[r4,#0x40]
        0x0001c46c:    2000        .       MOVS     r0,#0
        0x0001c46e:    bd38        8.      POP      {r3-r5,pc}
        0x0001c470:    6ae0        .j      LDR      r0,[r4,#0x2c]
        0x0001c472:    f0200003     ...    BIC      r0,r0,#3
        0x0001c476:    1c40        @.      ADDS     r0,r0,#1
        0x0001c478:    e7f3        ..      B        0x1c462 ; am_hal_pwrctrl_sram_config + 142
    $d
        0x0001c47a:    0000        ..      DCW    0
        0x0001c47c:    40021000    ...@    DCD    1073876992
        0x0001c480:    40021028    (..@    DCD    1073877032
    $t
    i.am_hal_queue_init
    am_hal_queue_init
        0x0001c484:    f04f0c00    O...    MOV      r12,#0
        0x0001c488:    f8c0c000    ....    STR      r12,[r0,#0]
        0x0001c48c:    f8c0c004    ....    STR      r12,[r0,#4]
        0x0001c490:    f8c0c008    ....    STR      r12,[r0,#8]
        0x0001c494:    60c3        .`      STR      r3,[r0,#0xc]
        0x0001c496:    e9c02104    ...!    STRD     r2,r1,[r0,#0x10]
        0x0001c49a:    4770        pG      BX       lr
    i.am_hal_queue_item_add
    am_hal_queue_item_add
        0x0001c49c:    b5f8        ..      PUSH     {r3-r7,lr}
        0x0001c49e:    4604        .F      MOV      r4,r0
        0x0001c4a0:    6900        .i      LDR      r0,[r0,#0x10]
        0x0001c4a2:    460e        .F      MOV      r6,r1
        0x0001c4a4:    fb00f502    ....    MUL      r5,r0,r2
        0x0001c4a8:    2700        .'      MOVS     r7,#0
        0x0001c4aa:    f7fbff5b    ..[.    BL       am_hal_interrupt_master_disable ; 0x18364
        0x0001c4ae:    9000        ..      STR      r0,[sp,#0]
        0x0001c4b0:    68a1        .h      LDR      r1,[r4,#8]
        0x0001c4b2:    68e0        .h      LDR      r0,[r4,#0xc]
        0x0001c4b4:    1a40        @.      SUBS     r0,r0,r1
        0x0001c4b6:    4285        .B      CMP      r5,r0
        0x0001c4b8:    d816        ..      BHI      0x1c4e8 ; am_hal_queue_item_add + 76
        0x0001c4ba:    2000        .       MOVS     r0,#0
        0x0001c4bc:    2d00        .-      CMP      r5,#0
        0x0001c4be:    d90f        ..      BLS      0x1c4e0 ; am_hal_queue_item_add + 68
        0x0001c4c0:    b11e        ..      CBZ      r6,0x1c4ca ; am_hal_queue_item_add + 46
        0x0001c4c2:    5c31        1\      LDRB     r1,[r6,r0]
        0x0001c4c4:    6823        #h      LDR      r3,[r4,#0]
        0x0001c4c6:    6962        bi      LDR      r2,[r4,#0x14]
        0x0001c4c8:    54d1        .T      STRB     r1,[r2,r3]
        0x0001c4ca:    6821        !h      LDR      r1,[r4,#0]
        0x0001c4cc:    68e2        .h      LDR      r2,[r4,#0xc]
        0x0001c4ce:    1c49        I.      ADDS     r1,r1,#1
        0x0001c4d0:    fbb1f3f2    ....    UDIV     r3,r1,r2
        0x0001c4d4:    fb021113    ....    MLS      r1,r2,r3,r1
        0x0001c4d8:    6021        !`      STR      r1,[r4,#0]
        0x0001c4da:    1c40        @.      ADDS     r0,r0,#1
        0x0001c4dc:    42a8        .B      CMP      r0,r5
        0x0001c4de:    d3ef        ..      BCC      0x1c4c0 ; am_hal_queue_item_add + 36
        0x0001c4e0:    68a0        .h      LDR      r0,[r4,#8]
        0x0001c4e2:    4428        (D      ADD      r0,r0,r5
        0x0001c4e4:    60a0        .`      STR      r0,[r4,#8]
        0x0001c4e6:    2701        .'      MOVS     r7,#1
        0x0001c4e8:    9800        ..      LDR      r0,[sp,#0]
        0x0001c4ea:    f7fbff3f    ..?.    BL       am_hal_interrupt_master_set ; 0x1836c
        0x0001c4ee:    4638        8F      MOV      r0,r7
        0x0001c4f0:    bdf8        ..      POP      {r3-r7,pc}
    i.am_hal_queue_item_get
    am_hal_queue_item_get
        0x0001c4f2:    b5f8        ..      PUSH     {r3-r7,lr}
        0x0001c4f4:    4604        .F      MOV      r4,r0
        0x0001c4f6:    6900        .i      LDR      r0,[r0,#0x10]
        0x0001c4f8:    460e        .F      MOV      r6,r1
        0x0001c4fa:    fb00f502    ....    MUL      r5,r0,r2
        0x0001c4fe:    2700        .'      MOVS     r7,#0
        0x0001c500:    f7fbff30    ..0.    BL       am_hal_interrupt_master_disable ; 0x18364
        0x0001c504:    9000        ..      STR      r0,[sp,#0]
        0x0001c506:    68a0        .h      LDR      r0,[r4,#8]
        0x0001c508:    4285        .B      CMP      r5,r0
        0x0001c50a:    d816        ..      BHI      0x1c53a ; am_hal_queue_item_get + 72
        0x0001c50c:    2000        .       MOVS     r0,#0
        0x0001c50e:    2d00        .-      CMP      r5,#0
        0x0001c510:    d90f        ..      BLS      0x1c532 ; am_hal_queue_item_get + 64
        0x0001c512:    b11e        ..      CBZ      r6,0x1c51c ; am_hal_queue_item_get + 42
        0x0001c514:    6962        bi      LDR      r2,[r4,#0x14]
        0x0001c516:    6861        ah      LDR      r1,[r4,#4]
        0x0001c518:    5c52        R\      LDRB     r2,[r2,r1]
        0x0001c51a:    5432        2T      STRB     r2,[r6,r0]
        0x0001c51c:    6861        ah      LDR      r1,[r4,#4]
        0x0001c51e:    68e2        .h      LDR      r2,[r4,#0xc]
        0x0001c520:    1c49        I.      ADDS     r1,r1,#1
        0x0001c522:    fbb1f3f2    ....    UDIV     r3,r1,r2
        0x0001c526:    fb021113    ....    MLS      r1,r2,r3,r1
        0x0001c52a:    6061        a`      STR      r1,[r4,#4]
        0x0001c52c:    1c40        @.      ADDS     r0,r0,#1
        0x0001c52e:    42a8        .B      CMP      r0,r5
        0x0001c530:    d3ef        ..      BCC      0x1c512 ; am_hal_queue_item_get + 32
        0x0001c532:    68a0        .h      LDR      r0,[r4,#8]
        0x0001c534:    1b40        @.      SUBS     r0,r0,r5
        0x0001c536:    60a0        .`      STR      r0,[r4,#8]
        0x0001c538:    2701        .'      MOVS     r7,#1
        0x0001c53a:    9800        ..      LDR      r0,[sp,#0]
        0x0001c53c:    f7fbff16    ....    BL       am_hal_interrupt_master_set ; 0x1836c
        0x0001c540:    4638        8F      MOV      r0,r7
        0x0001c542:    bdf8        ..      POP      {r3-r7,pc}
    i.am_hal_rtc_osc_disable
    am_hal_rtc_osc_disable
        0x0001c544:    4803        .H      LDR      r0,[pc,#12] ; [0x1c554] = 0x40004800
        0x0001c546:    6801        .h      LDR      r1,[r0,#0]
        0x0001c548:    f0410110    A...    ORR      r1,r1,#0x10
        0x0001c54c:    6001        .`      STR      r1,[r0,#0]
        0x0001c54e:    2000        .       MOVS     r0,#0
        0x0001c550:    4770        pG      BX       lr
    $d
        0x0001c552:    0000        ..      DCW    0
        0x0001c554:    40004800    .H.@    DCD    1073760256
    $t
    i.am_hal_sysctrl_sleep
    am_hal_sysctrl_sleep
        0x0001c558:    e92d43f0    -..C    PUSH     {r4-r9,lr}
        0x0001c55c:    4681        .F      MOV      r9,r0
        0x0001c55e:    4844        DH      LDR      r0,[pc,#272] ; [0x1c670] = 0xf0000008
        0x0001c560:    b083        ..      SUB      sp,sp,#0xc
        0x0001c562:    2600        .&      MOVS     r6,#0
        0x0001c564:    4468        hD      ADD      r0,sp,r0
        0x0001c566:    f5b02fc0    .../    CMP      r0,#0x60000
        0x0001c56a:    d300        ..      BCC      0x1c56e ; am_hal_sysctrl_sleep + 22
        0x0001c56c:    e7fe        ..      B        0x1c56c ; am_hal_sysctrl_sleep + 20
        0x0001c56e:    f04f0800    O...    MOV      r8,#0
        0x0001c572:    f7fbfef7    ....    BL       am_hal_interrupt_master_disable ; 0x18364
        0x0001c576:    4f3f        ?O      LDR      r7,[pc,#252] ; [0x1c674] = 0x40021000
        0x0001c578:    9001        ..      STR      r0,[sp,#4]
        0x0001c57a:    f8d70108    ....    LDR      r0,[r7,#0x108]
        0x0001c57e:    f3c01001    ....    UBFX     r0,r0,#4,#2
        0x0001c582:    2803        .(      CMP      r0,#3
        0x0001c584:    bf0c        ..      ITE      EQ
        0x0001c586:    2001        .       MOVEQ    r0,#1
        0x0001c588:    2000        .       MOVNE    r0,#0
        0x0001c58a:    4d3b        ;M      LDR      r5,[pc,#236] ; [0x1c678] = 0xe000ed10
        0x0001c58c:    4c3b        ;L      LDR      r4,[pc,#236] ; [0x1c67c] = 0x40020000
        0x0001c58e:    f1b90f00    ....    CMP      r9,#0
        0x0001c592:    d004        ..      BEQ      0x1c59e ; am_hal_sysctrl_sleep + 70
        0x0001c594:    f8d41250    ..P.    LDR      r1,[r4,#0x250]
        0x0001c598:    f0110f01    ....    TST      r1,#1
        0x0001c59c:    d003        ..      BEQ      0x1c5a6 ; am_hal_sysctrl_sleep + 78
        0x0001c59e:    6828        (h      LDR      r0,[r5,#0]
        0x0001c5a0:    f0200004     ...    BIC      r0,r0,#4
        0x0001c5a4:    e039        9.      B        0x1c61a ; am_hal_sysctrl_sleep + 194
        0x0001c5a6:    b310        ..      CBZ      r0,0x1c5ee ; am_hal_sysctrl_sleep + 150
        0x0001c5a8:    68b8        .h      LDR      r0,[r7,#8]
        0x0001c5aa:    f0207033     .3p    BIC      r0,r0,#0x2cc0000
        0x0001c5ae:    f030407c    0.|@    BICS     r0,r0,#0xfc000000
        0x0001c5b2:    d11c        ..      BNE      0x1c5ee ; am_hal_sysctrl_sleep + 150
        0x0001c5b4:    4832        2H      LDR      r0,[pc,#200] ; [0x1c680] = 0x100000e8
        0x0001c5b6:    f04f0801    O...    MOV      r8,#1
        0x0001c5ba:    7801        .x      LDRB     r1,[r0,#0]
        0x0001c5bc:    f8d40370    ..p.    LDR      r0,[r4,#0x370]
        0x0001c5c0:    f3615019    a..P    BFI      r0,r1,#20,#6
        0x0001c5c4:    f8c40370    ..p.    STR      r0,[r4,#0x370]
        0x0001c5c8:    f8d40380    ....    LDR      r0,[r4,#0x380]
        0x0001c5cc:    f0204000     ..@    BIC      r0,r0,#0x80000000
        0x0001c5d0:    f8c40380    ....    STR      r0,[r4,#0x380]
        0x0001c5d4:    f8d40380    ....    LDR      r0,[r4,#0x380]
        0x0001c5d8:    f0204080     ..@    BIC      r0,r0,#0x40000000
        0x0001c5dc:    f8c40380    ....    STR      r0,[r4,#0x380]
        0x0001c5e0:    6820         h      LDR      r0,[r4,#0]
        0x0001c5e2:    f4104f7f    ...O    TST      r0,#0xff00
        0x0001c5e6:    bf1c        ..      ITT      NE
        0x0001c5e8:    2000        .       MOVNE    r0,#0
        0x0001c5ea:    f001f843    ..C.    BLNE     buck_ldo_update_override ; 0x1d674
        0x0001c5ee:    6820         h      LDR      r0,[r4,#0]
        0x0001c5f0:    f4104f70    ..pO    TST      r0,#0xf000
        0x0001c5f4:    bf04        ..      ITT      EQ
        0x0001c5f6:    68b8        .h      LDREQ    r0,[r7,#8]
        0x0001c5f8:    f0107f80    ....    TSTEQ    r0,#0x1000000
        0x0001c5fc:    d10a        ..      BNE      0x1c614 ; am_hal_sysctrl_sleep + 188
        0x0001c5fe:    4668        hF      MOV      r0,sp
        0x0001c600:    f7fffdec    ....    BL       am_hal_pwrctrl_mcu_mode_status ; 0x1c1dc
        0x0001c604:    f89d0000    ....    LDRB     r0,[sp,#0]
        0x0001c608:    2802        .(      CMP      r0,#2
        0x0001c60a:    d003        ..      BEQ      0x1c614 ; am_hal_sysctrl_sleep + 188
        0x0001c60c:    2002        .       MOVS     r0,#2
        0x0001c60e:    f7fffda9    ....    BL       am_hal_pwrctrl_mcu_mode_select ; 0x1c164
        0x0001c612:    2601        .&      MOVS     r6,#1
        0x0001c614:    6828        (h      LDR      r0,[r5,#0]
        0x0001c616:    f0400004    @...    ORR      r0,r0,#4
        0x0001c61a:    6028        (`      STR      r0,[r5,#0]
        0x0001c61c:    2100        .!      MOVS     r1,#0
        0x0001c61e:    2001        .       MOVS     r0,#1
        0x0001c620:    f7fdfd50    ..P.    BL       am_hal_daxi_control ; 0x1a0c4
        0x0001c624:    bf30        0.      WFI      
        0x0001c626:    f3bf8f6f    ..o.    ISB      
        0x0001c62a:    2e00        ..      CMP      r6,#0
        0x0001c62c:    bf1c        ..      ITT      NE
        0x0001c62e:    2001        .       MOVNE    r0,#1
        0x0001c630:    f7fffd98    ....    BLNE     am_hal_pwrctrl_mcu_mode_select ; 0x1c164
        0x0001c634:    f1b80f00    ....    CMP      r8,#0
        0x0001c638:    d014        ..      BEQ      0x1c664 ; am_hal_sysctrl_sleep + 268
        0x0001c63a:    2001        .       MOVS     r0,#1
        0x0001c63c:    f001f81a    ....    BL       buck_ldo_update_override ; 0x1d674
        0x0001c640:    f8d40380    ....    LDR      r0,[r4,#0x380]
        0x0001c644:    f0404000    @..@    ORR      r0,r0,#0x80000000
        0x0001c648:    f8c40380    ....    STR      r0,[r4,#0x380]
        0x0001c64c:    f8d40380    ....    LDR      r0,[r4,#0x380]
        0x0001c650:    f0404080    @..@    ORR      r0,r0,#0x40000000
        0x0001c654:    f8c40380    ....    STR      r0,[r4,#0x380]
        0x0001c658:    f8d40370    ..p.    LDR      r0,[r4,#0x370]
        0x0001c65c:    f020707c     .|p    BIC      r0,r0,#0x3f00000
        0x0001c660:    f8c40370    ..p.    STR      r0,[r4,#0x370]
        0x0001c664:    9801        ..      LDR      r0,[sp,#4]
        0x0001c666:    f7fbfe81    ....    BL       am_hal_interrupt_master_set ; 0x1836c
        0x0001c66a:    b003        ..      ADD      sp,sp,#0xc
        0x0001c66c:    e8bd83f0    ....    POP      {r4-r9,pc}
    $d
        0x0001c670:    f0000008    ....    DCD    4026531848
        0x0001c674:    40021000    ...@    DCD    1073876992
        0x0001c678:    e000ed10    ....    DCD    3758157072
        0x0001c67c:    40020000    ...@    DCD    1073872896
        0x0001c680:    100000e8    ....    DCD    268435688
    $t
    i.am_hal_tpiu_enable
    am_hal_tpiu_enable
        0x0001c684:    4914        .I      LDR      r1,[pc,#80] ; [0x1c6d8] = 0xe0040000
        0x0001c686:    2200        ."      MOVS     r2,#0
        0x0001c688:    f8c12304    ...#    STR      r2,[r1,#0x304]
        0x0001c68c:    2301        .#      MOVS     r3,#1
        0x0001c68e:    604b        K`      STR      r3,[r1,#4]
        0x0001c690:    f8dfc048    ..H.    LDR      r12,[pc,#72] ; [0x1c6dc] = 0x1da381
        0x0001c694:    f5a04361    ..aC    SUB      r3,r0,#0xe100
        0x0001c698:    4563        cE      CMP      r3,r12
        0x0001c69a:    bf28        (.      IT       CS
        0x0001c69c:    4810        .H      LDRCS    r0,[pc,#64] ; [0x1c6e0] = 0xf4240
        0x0001c69e:    4b11        .K      LDR      r3,[pc,#68] ; [0x1c6e4] = 0x2dc6c00
        0x0001c6a0:    fbb3f0f0    ....    UDIV     r0,r3,r0
        0x0001c6a4:    1e40        @.      SUBS     r0,r0,#1
        0x0001c6a6:    b280        ..      UXTH     r0,r0
        0x0001c6a8:    6108        .a      STR      r0,[r1,#0x10]
        0x0001c6aa:    2002        .       MOVS     r0,#2
        0x0001c6ac:    f8c100f0    ....    STR      r0,[r1,#0xf0]
        0x0001c6b0:    480d        .H      LDR      r0,[pc,#52] ; [0x1c6e8] = 0xe0040f00
        0x0001c6b2:    6002        .`      STR      r2,[r0,#0]
        0x0001c6b4:    480d        .H      LDR      r0,[pc,#52] ; [0x1c6ec] = 0x40020000
        0x0001c6b6:    f8d01250    ..P.    LDR      r1,[r0,#0x250]
        0x0001c6ba:    f021010e    !...    BIC      r1,r1,#0xe
        0x0001c6be:    1d09        ..      ADDS     r1,r1,#4
        0x0001c6c0:    f8c01250    ..P.    STR      r1,[r0,#0x250]
        0x0001c6c4:    f8d01250    ..P.    LDR      r1,[r0,#0x250]
        0x0001c6c8:    f0410101    A...    ORR      r1,r1,#1
        0x0001c6cc:    f8c01250    ..P.    STR      r1,[r0,#0x250]
        0x0001c6d0:    2064        d       MOVS     r0,#0x64
        0x0001c6d2:    f7fdbdf1    ....    B        am_hal_delay_us ; 0x1a2b8
    $d
        0x0001c6d6:    0000        ..      DCW    0
        0x0001c6d8:    e0040000    ....    DCD    3758358528
        0x0001c6dc:    001da381    ....    DCD    1942401
        0x0001c6e0:    000f4240    @B..    DCD    1000000
        0x0001c6e4:    02dc6c00    .l..    DCD    48000000
        0x0001c6e8:    e0040f00    ....    DCD    3758362368
        0x0001c6ec:    40020000    ...@    DCD    1073872896
    $t
    i.am_hal_uart_buffer_configure
    am_hal_uart_buffer_configure
        0x0001c6f0:    e92d41f0    -..A    PUSH     {r4-r8,lr}
        0x0001c6f4:    461f        .F      MOV      r7,r3
        0x0001c6f6:    f8dd8018    ....    LDR      r8,[sp,#0x18]
        0x0001c6fa:    1e04        ..      SUBS     r4,r0,#0
        0x0001c6fc:    bf1c        ..      ITT      NE
        0x0001c6fe:    6820         h      LDRNE    r0,[r4,#0]
        0x0001c700:    f0107f80    ....    TSTNE    r0,#0x1000000
        0x0001c704:    d004        ..      BEQ      0x1c710 ; am_hal_uart_buffer_configure + 32
        0x0001c706:    4b16        .K      LDR      r3,[pc,#88] ; [0x1c760] = 0xea9e06
        0x0001c708:    f020407f     ..@    BIC      r0,r0,#0xff000000
        0x0001c70c:    4298        .B      CMP      r0,r3
        0x0001c70e:    d002        ..      BEQ      0x1c716 ; am_hal_uart_buffer_configure + 38
        0x0001c710:    2002        .       MOVS     r0,#2
        0x0001c712:    e8bd81f0    ....    POP      {r4-r8,pc}
        0x0001c716:    2501        .%      MOVS     r5,#1
        0x0001c718:    2600        .&      MOVS     r6,#0
        0x0001c71a:    2900        .)      CMP      r1,#0
        0x0001c71c:    bf14        ..      ITE      NE
        0x0001c71e:    2a00        .*      CMPNE    r2,#0
        0x0001c720:    f884607c    ..|`    STRBEQ   r6,[r4,#0x7c]
        0x0001c724:    d008        ..      BEQ      0x1c738 ; am_hal_uart_buffer_configure + 72
        0x0001c726:    4613        .F      MOV      r3,r2
        0x0001c728:    f884507c    ..|P    STRB     r5,[r4,#0x7c]
        0x0001c72c:    f04f0201    O...    MOV      r2,#1
        0x0001c730:    f1040080    ....    ADD      r0,r4,#0x80
        0x0001c734:    f7fffea6    ....    BL       am_hal_queue_init ; 0x1c484
        0x0001c738:    2f00        ./      CMP      r7,#0
        0x0001c73a:    bf14        ..      ITE      NE
        0x0001c73c:    f1b80f00    ....    CMPNE    r8,#0
        0x0001c740:    f8846098    ...`    STRBEQ   r6,[r4,#0x98]
        0x0001c744:    d009        ..      BEQ      0x1c75a ; am_hal_uart_buffer_configure + 106
        0x0001c746:    f8845098    ...P    STRB     r5,[r4,#0x98]
        0x0001c74a:    4643        CF      MOV      r3,r8
        0x0001c74c:    f04f0201    O...    MOV      r2,#1
        0x0001c750:    4639        9F      MOV      r1,r7
        0x0001c752:    f104009c    ....    ADD      r0,r4,#0x9c
        0x0001c756:    f7fffe95    ....    BL       am_hal_queue_init ; 0x1c484
        0x0001c75a:    2000        .       MOVS     r0,#0
        0x0001c75c:    e8bd81f0    ....    POP      {r4-r8,pc}
    $d
        0x0001c760:    00ea9e06    ....    DCD    15375878
    $t
    i.am_hal_uart_configure
    am_hal_uart_configure
        0x0001c764:    6a43        Cj      LDR      r3,[r0,#0x24]
        0x0001c766:    2800        .(      CMP      r0,#0
        0x0001c768:    bf1c        ..      ITT      NE
        0x0001c76a:    6802        .h      LDRNE    r2,[r0,#0]
        0x0001c76c:    f0127f80    ....    TSTNE    r2,#0x1000000
        0x0001c770:    d005        ..      BEQ      0x1c77e ; am_hal_uart_configure + 26
        0x0001c772:    f8dfc178    ..x.    LDR      r12,[pc,#376] ; [0x1c8ec] = 0xea9e06
        0x0001c776:    f022427f    "..B    BIC      r2,r2,#0xff000000
        0x0001c77a:    4562        bE      CMP      r2,r12
        0x0001c77c:    d001        ..      BEQ      0x1c782 ; am_hal_uart_configure + 30
        0x0001c77e:    2002        .       MOVS     r0,#2
        0x0001c780:    4770        pG      BX       lr
        0x0001c782:    b470        p.      PUSH     {r4-r6}
        0x0001c784:    2500        .%      MOVS     r5,#0
        0x0001c786:    031a        ..      LSLS     r2,r3,#12
        0x0001c788:    f1024280    ...B    ADD      r2,r2,#0x40000000
        0x0001c78c:    f50232e0    ...2    ADD      r2,r2,#0x1c000
        0x0001c790:    6315        .c      STR      r5,[r2,#0x30]
        0x0001c792:    f8d2c030    ..0.    LDR      r12,[r2,#0x30]
        0x0001c796:    f04c0c08    L...    ORR      r12,r12,#8
        0x0001c79a:    f8c2c030    ..0.    STR      r12,[r2,#0x30]
        0x0001c79e:    f8dfc150    ..P.    LDR      r12,[pc,#336] ; [0x1c8f0] = 0x16e360
        0x0001c7a2:    2b00        .+      CMP      r3,#0
        0x0001c7a4:    bf1c        ..      ITT      NE
        0x0001c7a6:    680b        .h      LDRNE    r3,[r1,#0]
        0x0001c7a8:    4563        cE      CMPNE    r3,r12
        0x0001c7aa:    bf82        ..      ITTT     HI
        0x0001c7ac:    2005        .       MOVHI    r0,#5
        0x0001c7ae:    bc70        p.      POPHI    {r4-r6}
        0x0001c7b0:    4770        pG      BXHI     lr
        0x0001c7b2:    680b        .h      LDR      r3,[r1,#0]
        0x0001c7b4:    4563        cE      CMP      r3,r12
        0x0001c7b6:    6b13        .k      LDR      r3,[r2,#0x30]
        0x0001c7b8:    f0230370    #.p.    BIC      r3,r3,#0x70
        0x0001c7bc:    bf8c        ..      ITE      HI
        0x0001c7be:    3350        P3      ADDHI    r3,r3,#0x50
        0x0001c7c0:    3310        .3      ADDLS    r3,r3,#0x10
        0x0001c7c2:    6313        .c      STR      r3,[r2,#0x30]
        0x0001c7c4:    6b13        .k      LDR      r3,[r2,#0x30]
        0x0001c7c6:    f0230301    #...    BIC      r3,r3,#1
        0x0001c7ca:    6313        .c      STR      r3,[r2,#0x30]
        0x0001c7cc:    6b13        .k      LDR      r3,[r2,#0x30]
        0x0001c7ce:    f4237300    #..s    BIC      r3,r3,#0x200
        0x0001c7d2:    6313        .c      STR      r3,[r2,#0x30]
        0x0001c7d4:    6b13        .k      LDR      r3,[r2,#0x30]
        0x0001c7d6:    f4237380    #..s    BIC      r3,r3,#0x100
        0x0001c7da:    6313        .c      STR      r3,[r2,#0x30]
        0x0001c7dc:    f8d1c000    ....    LDR      r12,[r1,#0]
        0x0001c7e0:    6b13        .k      LDR      r3,[r2,#0x30]
        0x0001c7e2:    f3c31302    ....    UBFX     r3,r3,#4,#3
        0x0001c7e6:    2b06        .+      CMP      r3,#6
        0x0001c7e8:    d27c        |.      BCS      0x1c8e4 ; am_hal_uart_configure + 384
        0x0001c7ea:    e8dff003    ....    TBB      [pc,r3]
    $d
        0x0001c7ee:    057b        {.      DCW    1403
        0x0001c7f0:    030b0907    ....    DCD    51054855
    $t
        0x0001c7f4:    4b3f        ?K      LDR      r3,[pc,#252] ; [0x1c8f4] = 0x2dc6c00
        0x0001c7f6:    e006        ..      B        0x1c806 ; am_hal_uart_configure + 162
        0x0001c7f8:    4b3f        ?K      LDR      r3,[pc,#252] ; [0x1c8f8] = 0x16e3600
        0x0001c7fa:    e004        ..      B        0x1c806 ; am_hal_uart_configure + 162
        0x0001c7fc:    4b3f        ?K      LDR      r3,[pc,#252] ; [0x1c8fc] = 0xb71b00
        0x0001c7fe:    e002        ..      B        0x1c806 ; am_hal_uart_configure + 162
        0x0001c800:    4b3f        ?K      LDR      r3,[pc,#252] ; [0x1c900] = 0x5b8d80
        0x0001c802:    e000        ..      B        0x1c806 ; am_hal_uart_configure + 162
        0x0001c804:    4b3f        ?K      LDR      r3,[pc,#252] ; [0x1c904] = 0x2dc6c0
        0x0001c806:    ea4f1c0c    O...    LSL      r12,r12,#4
        0x0001c80a:    fbb3f4fc    ....    UDIV     r4,r3,r12
        0x0001c80e:    019e        ..      LSLS     r6,r3,#6
        0x0001c810:    fbb6fcfc    ....    UDIV     r12,r6,r12
        0x0001c814:    01a6        ..      LSLS     r6,r4,#6
        0x0001c816:    ebbc0c06    ....    SUBS     r12,r12,r6
        0x0001c81a:    2c00        .,      CMP      r4,#0
        0x0001c81c:    bf01        ..      ITTTT    EQ
        0x0001c81e:    6285        .b      STREQ    r5,[r0,#0x28]
        0x0001c820:    4839        9H      LDREQ    r0,[pc,#228] ; [0x1c908] = 0x8000003
        0x0001c822:    bc70        p.      POPEQ    {r4-r6}
        0x0001c824:    4770        pG      BXEQ     lr
        0x0001c826:    6254        Tb      STR      r4,[r2,#0x24]
        0x0001c828:    f8c2c028    ..(.    STR      r12,[r2,#0x28]
        0x0001c82c:    0124        $.      LSLS     r4,r4,#4
        0x0001c82e:    eb040c9c    ....    ADD      r12,r4,r12,LSR #2
        0x0001c832:    fbb3f3fc    ....    UDIV     r3,r3,r12
        0x0001c836:    6283        .b      STR      r3,[r0,#0x28]
        0x0001c838:    6b10        .k      LDR      r0,[r2,#0x30]
        0x0001c83a:    f4204080     ..@    BIC      r0,r0,#0x4000
        0x0001c83e:    6310        .c      STR      r0,[r2,#0x30]
        0x0001c840:    6b10        .k      LDR      r0,[r2,#0x30]
        0x0001c842:    f4204000     ..@    BIC      r0,r0,#0x8000
        0x0001c846:    6310        .c      STR      r0,[r2,#0x30]
        0x0001c848:    6b10        .k      LDR      r0,[r2,#0x30]
        0x0001c84a:    890b        ..      LDRH     r3,[r1,#8]
        0x0001c84c:    4318        .C      ORRS     r0,r0,r3
        0x0001c84e:    6310        .c      STR      r0,[r2,#0x30]
        0x0001c850:    2000        .       MOVS     r0,#0
        0x0001c852:    f891c005    ....    LDRB     r12,[r1,#5]
        0x0001c856:    4603        .F      MOV      r3,r0
        0x0001c858:    f1bc0f00    ....    CMP      r12,#0
        0x0001c85c:    bf08        ..      IT       EQ
        0x0001c85e:    2001        .       MOVEQ    r0,#1
        0x0001c860:    d004        ..      BEQ      0x1c86c ; am_hal_uart_configure + 264
        0x0001c862:    f1bc0f01    ....    CMP      r12,#1
        0x0001c866:    bf04        ..      ITT      EQ
        0x0001c868:    2001        .       MOVEQ    r0,#1
        0x0001c86a:    4603        .F      MOVEQ    r3,r0
        0x0001c86c:    f8d2c02c    ..,.    LDR      r12,[r2,#0x2c]
        0x0001c870:    f02c0c01    ,...    BIC      r12,r12,#1
        0x0001c874:    f8c2c02c    ..,.    STR      r12,[r2,#0x2c]
        0x0001c878:    f8d2c02c    ..,.    LDR      r12,[r2,#0x2c]
        0x0001c87c:    f3600c41    `.A.    BFI      r12,r0,#1,#1
        0x0001c880:    f8c2c02c    ..,.    STR      r12,[r2,#0x2c]
        0x0001c884:    6ad0        .j      LDR      r0,[r2,#0x2c]
        0x0001c886:    f3630082    c...    BFI      r0,r3,#2,#1
        0x0001c88a:    62d0        .b      STR      r0,[r2,#0x2c]
        0x0001c88c:    798b        .y      LDRB     r3,[r1,#6]
        0x0001c88e:    6ad0        .j      LDR      r0,[r2,#0x2c]
        0x0001c890:    f36300c3    c...    BFI      r0,r3,#3,#1
        0x0001c894:    62d0        .b      STR      r0,[r2,#0x2c]
        0x0001c896:    6ad0        .j      LDR      r0,[r2,#0x2c]
        0x0001c898:    f0400010    @...    ORR      r0,r0,#0x10
        0x0001c89c:    62d0        .b      STR      r0,[r2,#0x2c]
        0x0001c89e:    790b        .y      LDRB     r3,[r1,#4]
        0x0001c8a0:    6ad0        .j      LDR      r0,[r2,#0x2c]
        0x0001c8a2:    f3631046    c.F.    BFI      r0,r3,#5,#2
        0x0001c8a6:    62d0        .b      STR      r0,[r2,#0x2c]
        0x0001c8a8:    6ad0        .j      LDR      r0,[r2,#0x2c]
        0x0001c8aa:    f0200080     ...    BIC      r0,r0,#0x80
        0x0001c8ae:    62d0        .b      STR      r0,[r2,#0x2c]
        0x0001c8b0:    7a8b        .z      LDRB     r3,[r1,#0xa]
        0x0001c8b2:    6b50        Pk      LDR      r0,[r2,#0x34]
        0x0001c8b4:    f3630002    c...    BFI      r0,r3,#0,#3
        0x0001c8b8:    6350        Pc      STR      r0,[r2,#0x34]
        0x0001c8ba:    7ac9        .z      LDRB     r1,[r1,#0xb]
        0x0001c8bc:    6b50        Pk      LDR      r0,[r2,#0x34]
        0x0001c8be:    f36100c5    a...    BFI      r0,r1,#3,#3
        0x0001c8c2:    6350        Pc      STR      r0,[r2,#0x34]
        0x0001c8c4:    6b10        .k      LDR      r0,[r2,#0x30]
        0x0001c8c6:    f0400001    @...    ORR      r0,r0,#1
        0x0001c8ca:    6310        .c      STR      r0,[r2,#0x30]
        0x0001c8cc:    6b10        .k      LDR      r0,[r2,#0x30]
        0x0001c8ce:    f4407000    @..p    ORR      r0,r0,#0x200
        0x0001c8d2:    6310        .c      STR      r0,[r2,#0x30]
        0x0001c8d4:    6b10        .k      LDR      r0,[r2,#0x30]
        0x0001c8d6:    f4407080    @..p    ORR      r0,r0,#0x100
        0x0001c8da:    6310        .c      STR      r0,[r2,#0x30]
        0x0001c8dc:    bc70        p.      POP      {r4-r6}
        0x0001c8de:    2000        .       MOVS     r0,#0
        0x0001c8e0:    4770        pG      BX       lr
        0x0001c8e2:    e7ff        ..      B        0x1c8e4 ; am_hal_uart_configure + 384
        0x0001c8e4:    6285        .b      STR      r5,[r0,#0x28]
        0x0001c8e6:    bc70        p.      POP      {r4-r6}
        0x0001c8e8:    4808        .H      LDR      r0,[pc,#32] ; [0x1c90c] = 0x8000002
        0x0001c8ea:    4770        pG      BX       lr
    $d
        0x0001c8ec:    00ea9e06    ....    DCD    15375878
        0x0001c8f0:    0016e360    `...    DCD    1500000
        0x0001c8f4:    02dc6c00    .l..    DCD    48000000
        0x0001c8f8:    016e3600    .6n.    DCD    24000000
        0x0001c8fc:    00b71b00    ....    DCD    12000000
        0x0001c900:    005b8d80    ..[.    DCD    6000000
        0x0001c904:    002dc6c0    ..-.    DCD    3000000
        0x0001c908:    08000003    ....    DCD    134217731
        0x0001c90c:    08000002    ....    DCD    134217730
    $t
    i.am_hal_uart_initialize
    am_hal_uart_initialize
        0x0001c910:    2804        .(      CMP      r0,#4
        0x0001c912:    bf24        $.      ITT      CS
        0x0001c914:    2005        .       MOVCS    r0,#5
        0x0001c916:    4770        pG      BXCS     lr
        0x0001c918:    2900        .)      CMP      r1,#0
        0x0001c91a:    bf04        ..      ITT      EQ
        0x0001c91c:    2006        .       MOVEQ    r0,#6
        0x0001c91e:    4770        pG      BXEQ     lr
        0x0001c920:    b410        ..      PUSH     {r4}
        0x0001c922:    680a        .h      LDR      r2,[r1,#0]
        0x0001c924:    4c18        .L      LDR      r4,[pc,#96] ; [0x1c988] = 0xea9e06
        0x0001c926:    2a00        .*      CMP      r2,#0
        0x0001c928:    bf1c        ..      ITT      NE
        0x0001c92a:    6812        .h      LDRNE    r2,[r2,#0]
        0x0001c92c:    f0127f80    ....    TSTNE    r2,#0x1000000
        0x0001c930:    d006        ..      BEQ      0x1c940 ; am_hal_uart_initialize + 48
        0x0001c932:    f022427f    "..B    BIC      r2,r2,#0xff000000
        0x0001c936:    42a2        .B      CMP      r2,r4
        0x0001c938:    bf02        ..      ITTT     EQ
        0x0001c93a:    2007        .       MOVEQ    r0,#7
        0x0001c93c:    bc10        ..      POPEQ    {r4}
        0x0001c93e:    4770        pG      BXEQ     lr
        0x0001c940:    ebc002c0    ....    RSB      r2,r0,r0,LSL #3
        0x0001c944:    eb021c00    ....    ADD      r12,r2,r0,LSL #4
        0x0001c948:    4b10        .K      LDR      r3,[pc,#64] ; [0x1c98c] = 0x10008340
        0x0001c94a:    f853203c    S.<     LDR      r2,[r3,r12,LSL #3]
        0x0001c94e:    f0427280    B..r    ORR      r2,r2,#0x1000000
        0x0001c952:    f3640217    d...    BFI      r2,r4,#0,#24
        0x0001c956:    f843203c    C.<     STR      r2,[r3,r12,LSL #3]
        0x0001c95a:    eb0302cc    ....    ADD      r2,r3,r12,LSL #3
        0x0001c95e:    6250        Pb      STR      r0,[r2,#0x24]
        0x0001c960:    2000        .       MOVS     r0,#0
        0x0001c962:    7110        .q      STRB     r0,[r2,#4]
        0x0001c964:    6290        .b      STR      r0,[r2,#0x28]
        0x0001c966:    f882002c    ..,.    STRB     r0,[r2,#0x2c]
        0x0001c96a:    f8820054    ..T.    STRB     r0,[r2,#0x54]
        0x0001c96e:    f882007c    ..|.    STRB     r0,[r2,#0x7c]
        0x0001c972:    f8820098    ....    STRB     r0,[r2,#0x98]
        0x0001c976:    6790        .g      STR      r0,[r2,#0x78]
        0x0001c978:    6510        .e      STR      r0,[r2,#0x50]
        0x0001c97a:    2001        .       MOVS     r0,#1
        0x0001c97c:    f88200b4    ....    STRB     r0,[r2,#0xb4]
        0x0001c980:    600a        .`      STR      r2,[r1,#0]
        0x0001c982:    bc10        ..      POP      {r4}
        0x0001c984:    2000        .       MOVS     r0,#0
        0x0001c986:    4770        pG      BX       lr
    $d
        0x0001c988:    00ea9e06    ....    DCD    15375878
        0x0001c98c:    10008340    @...    DCD    268469056
    $t
    i.am_hal_uart_interrupt_clear
    am_hal_uart_interrupt_clear
        0x0001c990:    6a42        Bj      LDR      r2,[r0,#0x24]
        0x0001c992:    2800        .(      CMP      r0,#0
        0x0001c994:    bf1c        ..      ITT      NE
        0x0001c996:    6800        .h      LDRNE    r0,[r0,#0]
        0x0001c998:    f0107f80    ....    TSTNE    r0,#0x1000000
        0x0001c99c:    d004        ..      BEQ      0x1c9a8 ; am_hal_uart_interrupt_clear + 24
        0x0001c99e:    4b07        .K      LDR      r3,[pc,#28] ; [0x1c9bc] = 0xea9e06
        0x0001c9a0:    f020407f     ..@    BIC      r0,r0,#0xff000000
        0x0001c9a4:    4298        .B      CMP      r0,r3
        0x0001c9a6:    d001        ..      BEQ      0x1c9ac ; am_hal_uart_interrupt_clear + 28
        0x0001c9a8:    2002        .       MOVS     r0,#2
        0x0001c9aa:    4770        pG      BX       lr
        0x0001c9ac:    0310        ..      LSLS     r0,r2,#12
        0x0001c9ae:    f1004080    ...@    ADD      r0,r0,#0x40000000
        0x0001c9b2:    f50030e0    ...0    ADD      r0,r0,#0x1c000
        0x0001c9b6:    6441        Ad      STR      r1,[r0,#0x44]
        0x0001c9b8:    2000        .       MOVS     r0,#0
        0x0001c9ba:    4770        pG      BX       lr
    $d
        0x0001c9bc:    00ea9e06    ....    DCD    15375878
    $t
    i.am_hal_uart_interrupt_enable
    am_hal_uart_interrupt_enable
        0x0001c9c0:    6a42        Bj      LDR      r2,[r0,#0x24]
        0x0001c9c2:    2800        .(      CMP      r0,#0
        0x0001c9c4:    bf1c        ..      ITT      NE
        0x0001c9c6:    6800        .h      LDRNE    r0,[r0,#0]
        0x0001c9c8:    f0107f80    ....    TSTNE    r0,#0x1000000
        0x0001c9cc:    d004        ..      BEQ      0x1c9d8 ; am_hal_uart_interrupt_enable + 24
        0x0001c9ce:    4b08        .K      LDR      r3,[pc,#32] ; [0x1c9f0] = 0xea9e06
        0x0001c9d0:    f020407f     ..@    BIC      r0,r0,#0xff000000
        0x0001c9d4:    4298        .B      CMP      r0,r3
        0x0001c9d6:    d001        ..      BEQ      0x1c9dc ; am_hal_uart_interrupt_enable + 28
        0x0001c9d8:    2002        .       MOVS     r0,#2
        0x0001c9da:    4770        pG      BX       lr
        0x0001c9dc:    0310        ..      LSLS     r0,r2,#12
        0x0001c9de:    f1004080    ...@    ADD      r0,r0,#0x40000000
        0x0001c9e2:    f50030e0    ...0    ADD      r0,r0,#0x1c000
        0x0001c9e6:    6b82        .k      LDR      r2,[r0,#0x38]
        0x0001c9e8:    4311        .C      ORRS     r1,r1,r2
        0x0001c9ea:    6381        .c      STR      r1,[r0,#0x38]
        0x0001c9ec:    2000        .       MOVS     r0,#0
        0x0001c9ee:    4770        pG      BX       lr
    $d
        0x0001c9f0:    00ea9e06    ....    DCD    15375878
    $t
    i.am_hal_uart_interrupt_service
    am_hal_uart_interrupt_service
        0x0001c9f4:    b570        p.      PUSH     {r4-r6,lr}
        0x0001c9f6:    460d        .F      MOV      r5,r1
        0x0001c9f8:    0004        ..      MOVS     r4,r0
        0x0001c9fa:    bf1c        ..      ITT      NE
        0x0001c9fc:    6820         h      LDRNE    r0,[r4,#0]
        0x0001c9fe:    f0107f80    ....    TSTNE    r0,#0x1000000
        0x0001ca02:    d004        ..      BEQ      0x1ca0e ; am_hal_uart_interrupt_service + 26
        0x0001ca04:    490d        .I      LDR      r1,[pc,#52] ; [0x1ca3c] = 0xea9e06
        0x0001ca06:    f020407f     ..@    BIC      r0,r0,#0xff000000
        0x0001ca0a:    4288        .B      CMP      r0,r1
        0x0001ca0c:    d001        ..      BEQ      0x1ca12 ; am_hal_uart_interrupt_service + 30
        0x0001ca0e:    2002        .       MOVS     r0,#2
        0x0001ca10:    bd70        p.      POP      {r4-r6,pc}
        0x0001ca12:    f0150f50    ..P.    TST      r5,#0x50
        0x0001ca16:    bf1c        ..      ITT      NE
        0x0001ca18:    4620         F      MOVNE    r0,r4
        0x0001ca1a:    f001fa59    ..Y.    BLNE     nonblocking_read_sm ; 0x1ded0
        0x0001ca1e:    f0150f20    .. .    TST      r5,#0x20
        0x0001ca22:    bf1c        ..      ITT      NE
        0x0001ca24:    4620         F      MOVNE    r0,r4
        0x0001ca26:    f001faed    ....    BLNE     nonblocking_write_sm ; 0x1e004
        0x0001ca2a:    f0150f01    ....    TST      r5,#1
        0x0001ca2e:    bf1c        ..      ITT      NE
        0x0001ca30:    2001        .       MOVNE    r0,#1
        0x0001ca32:    f88400b4    ....    STRBNE   r0,[r4,#0xb4]
        0x0001ca36:    2001        .       MOVS     r0,#1
        0x0001ca38:    bd70        p.      POP      {r4-r6,pc}
    $d
        0x0001ca3a:    0000        ..      DCW    0
        0x0001ca3c:    00ea9e06    ....    DCD    15375878
    $t
    i.am_hal_uart_interrupt_status_get
    am_hal_uart_interrupt_status_get
        0x0001ca40:    6a43        Cj      LDR      r3,[r0,#0x24]
        0x0001ca42:    2800        .(      CMP      r0,#0
        0x0001ca44:    bf1c        ..      ITT      NE
        0x0001ca46:    6800        .h      LDRNE    r0,[r0,#0]
        0x0001ca48:    f0107f80    ....    TSTNE    r0,#0x1000000
        0x0001ca4c:    d005        ..      BEQ      0x1ca5a ; am_hal_uart_interrupt_status_get + 26
        0x0001ca4e:    f8dfc028    ..(.    LDR      r12,[pc,#40] ; [0x1ca78] = 0xea9e06
        0x0001ca52:    f020407f     ..@    BIC      r0,r0,#0xff000000
        0x0001ca56:    4560        `E      CMP      r0,r12
        0x0001ca58:    d001        ..      BEQ      0x1ca5e ; am_hal_uart_interrupt_status_get + 30
        0x0001ca5a:    2002        .       MOVS     r0,#2
        0x0001ca5c:    4770        pG      BX       lr
        0x0001ca5e:    ea4f3003    O..0    LSL      r0,r3,#12
        0x0001ca62:    f1004080    ...@    ADD      r0,r0,#0x40000000
        0x0001ca66:    2a00        .*      CMP      r2,#0
        0x0001ca68:    f50030e0    ...0    ADD      r0,r0,#0x1c000
        0x0001ca6c:    bf14        ..      ITE      NE
        0x0001ca6e:    6c00        .l      LDRNE    r0,[r0,#0x40]
        0x0001ca70:    6bc0        .k      LDREQ    r0,[r0,#0x3c]
        0x0001ca72:    6008        .`      STR      r0,[r1,#0]
        0x0001ca74:    2000        .       MOVS     r0,#0
        0x0001ca76:    4770        pG      BX       lr
    $d
        0x0001ca78:    00ea9e06    ....    DCD    15375878
    $t
    i.am_hal_uart_power_control
    am_hal_uart_power_control
        0x0001ca7c:    b570        p.      PUSH     {r4-r6,lr}
        0x0001ca7e:    6a46        Fj      LDR      r6,[r0,#0x24]
        0x0001ca80:    1e04        ..      SUBS     r4,r0,#0
        0x0001ca82:    f1060309    ....    ADD      r3,r6,#9
        0x0001ca86:    b2db        ..      UXTB     r3,r3
        0x0001ca88:    bf1c        ..      ITT      NE
        0x0001ca8a:    6820         h      LDRNE    r0,[r4,#0]
        0x0001ca8c:    f0107f80    ....    TSTNE    r0,#0x1000000
        0x0001ca90:    d005        ..      BEQ      0x1ca9e ; am_hal_uart_power_control + 34
        0x0001ca92:    f8dfc0cc    ....    LDR      r12,[pc,#204] ; [0x1cb60] = 0xea9e06
        0x0001ca96:    f020407f     ..@    BIC      r0,r0,#0xff000000
        0x0001ca9a:    4560        `E      CMP      r0,r12
        0x0001ca9c:    d001        ..      BEQ      0x1caa2 ; am_hal_uart_power_control + 38
        0x0001ca9e:    2002        .       MOVS     r0,#2
        0x0001caa0:    bd70        p.      POP      {r4-r6,pc}
        0x0001caa2:    2500        .%      MOVS     r5,#0
        0x0001caa4:    2900        .)      CMP      r1,#0
        0x0001caa6:    d038        8.      BEQ      0x1cb1a ; am_hal_uart_power_control + 158
        0x0001caa8:    2901        .)      CMP      r1,#1
        0x0001caaa:    bf1e        ..      ITTT     NE
        0x0001caac:    2902        .)      CMPNE    r1,#2
        0x0001caae:    2006        .       MOVNE    r0,#6
        0x0001cab0:    bd70        p.      POPNE    {r4-r6,pc}
        0x0001cab2:    b1b2        ..      CBZ      r2,0x1cae2 ; am_hal_uart_power_control + 102
        0x0001cab4:    ea4f3006    O..0    LSL      r0,r6,#12
        0x0001cab8:    f1004080    ...@    ADD      r0,r0,#0x40000000
        0x0001cabc:    f50030e0    ...0    ADD      r0,r0,#0x1c000
        0x0001cac0:    6a01        .j      LDR      r1,[r0,#0x20]
        0x0001cac2:    60a1        .`      STR      r1,[r4,#8]
        0x0001cac4:    6a41        Aj      LDR      r1,[r0,#0x24]
        0x0001cac6:    60e1        .`      STR      r1,[r4,#0xc]
        0x0001cac8:    6a81        .j      LDR      r1,[r0,#0x28]
        0x0001caca:    6121        !a      STR      r1,[r4,#0x10]
        0x0001cacc:    6ac1        .j      LDR      r1,[r0,#0x2c]
        0x0001cace:    6161        aa      STR      r1,[r4,#0x14]
        0x0001cad0:    6b01        .k      LDR      r1,[r0,#0x30]
        0x0001cad2:    61a1        .a      STR      r1,[r4,#0x18]
        0x0001cad4:    6b41        Ak      LDR      r1,[r0,#0x34]
        0x0001cad6:    61e1        .a      STR      r1,[r4,#0x1c]
        0x0001cad8:    6b80        .k      LDR      r0,[r0,#0x38]
        0x0001cada:    6220         b      STR      r0,[r4,#0x20]
        0x0001cadc:    f04f0001    O...    MOV      r0,#1
        0x0001cae0:    7120         q      STRB     r0,[r4,#4]
        0x0001cae2:    6822        "h      LDR      r2,[r4,#0]
        0x0001cae4:    6a61        aj      LDR      r1,[r4,#0x24]
        0x0001cae6:    f04f30ff    O..0    MOV      r0,#0xffffffff
        0x0001caea:    f0127f80    ....    TST      r2,#0x1000000
        0x0001caee:    d009        ..      BEQ      0x1cb04 ; am_hal_uart_power_control + 136
        0x0001caf0:    f022427f    "..B    BIC      r2,r2,#0xff000000
        0x0001caf4:    4562        bE      CMP      r2,r12
        0x0001caf6:    d105        ..      BNE      0x1cb04 ; am_hal_uart_power_control + 136
        0x0001caf8:    0309        ..      LSLS     r1,r1,#12
        0x0001cafa:    f1014180    ...A    ADD      r1,r1,#0x40000000
        0x0001cafe:    f50131e0    ...1    ADD      r1,r1,#0x1c000
        0x0001cb02:    6448        Hd      STR      r0,[r1,#0x44]
        0x0001cb04:    0330        0.      LSLS     r0,r6,#12
        0x0001cb06:    f1004080    ...@    ADD      r0,r0,#0x40000000
        0x0001cb0a:    f50030e0    ...0    ADD      r0,r0,#0x1c000
        0x0001cb0e:    6305        .c      STR      r5,[r0,#0x30]
        0x0001cb10:    4618        .F      MOV      r0,r3
        0x0001cb12:    f7fffb6f    ..o.    BL       am_hal_pwrctrl_periph_disable ; 0x1c1f4
        0x0001cb16:    2000        .       MOVS     r0,#0
        0x0001cb18:    bd70        p.      POP      {r4-r6,pc}
        0x0001cb1a:    b1e2        ..      CBZ      r2,0x1cb56 ; am_hal_uart_power_control + 218
        0x0001cb1c:    7920         y      LDRB     r0,[r4,#4]
        0x0001cb1e:    2800        .(      CMP      r0,#0
        0x0001cb20:    bf04        ..      ITT      EQ
        0x0001cb22:    2007        .       MOVEQ    r0,#7
        0x0001cb24:    bd70        p.      POPEQ    {r4-r6,pc}
        0x0001cb26:    4618        .F      MOV      r0,r3
        0x0001cb28:    f7fffbfa    ....    BL       am_hal_pwrctrl_periph_enable ; 0x1c320
        0x0001cb2c:    0330        0.      LSLS     r0,r6,#12
        0x0001cb2e:    f1004080    ...@    ADD      r0,r0,#0x40000000
        0x0001cb32:    f50030e0    ...0    ADD      r0,r0,#0x1c000
        0x0001cb36:    68a1        .h      LDR      r1,[r4,#8]
        0x0001cb38:    6201        .b      STR      r1,[r0,#0x20]
        0x0001cb3a:    68e1        .h      LDR      r1,[r4,#0xc]
        0x0001cb3c:    6241        Ab      STR      r1,[r0,#0x24]
        0x0001cb3e:    6921        !i      LDR      r1,[r4,#0x10]
        0x0001cb40:    6281        .b      STR      r1,[r0,#0x28]
        0x0001cb42:    6961        ai      LDR      r1,[r4,#0x14]
        0x0001cb44:    62c1        .b      STR      r1,[r0,#0x2c]
        0x0001cb46:    69a1        .i      LDR      r1,[r4,#0x18]
        0x0001cb48:    6301        .c      STR      r1,[r0,#0x30]
        0x0001cb4a:    69e1        .i      LDR      r1,[r4,#0x1c]
        0x0001cb4c:    6341        Ac      STR      r1,[r0,#0x34]
        0x0001cb4e:    6a21        !j      LDR      r1,[r4,#0x20]
        0x0001cb50:    6381        .c      STR      r1,[r0,#0x38]
        0x0001cb52:    7125        %q      STRB     r5,[r4,#4]
        0x0001cb54:    e7df        ..      B        0x1cb16 ; am_hal_uart_power_control + 154
        0x0001cb56:    4618        .F      MOV      r0,r3
        0x0001cb58:    f7fffbe2    ....    BL       am_hal_pwrctrl_periph_enable ; 0x1c320
        0x0001cb5c:    e7db        ..      B        0x1cb16 ; am_hal_uart_power_control + 154
    $d
        0x0001cb5e:    0000        ..      DCW    0
        0x0001cb60:    00ea9e06    ....    DCD    15375878
    $t
    i.am_hal_uart_transfer
    am_hal_uart_transfer
        0x0001cb64:    e92d4ff8    -..O    PUSH     {r3-r11,lr}
        0x0001cb68:    460d        .F      MOV      r5,r1
        0x0001cb6a:    4604        .F      MOV      r4,r0
        0x0001cb6c:    780a        .x      LDRB     r2,[r1,#0]
        0x0001cb6e:    2002        .       MOVS     r0,#2
        0x0001cb70:    4999        .I      LDR      r1,[pc,#612] ; [0x1cdd8] = 0xea9e06
        0x0001cb72:    4f9a        .O      LDR      r7,[pc,#616] ; [0x1cddc] = 0x8000004
        0x0001cb74:    f04f0901    O...    MOV      r9,#1
        0x0001cb78:    f04f0a04    O...    MOV      r10,#4
        0x0001cb7c:    2600        .&      MOVS     r6,#0
        0x0001cb7e:    b352        R.      CBZ      r2,0x1cbd6 ; am_hal_uart_transfer + 114
        0x0001cb80:    f1070801    ....    ADD      r8,r7,#1
        0x0001cb84:    2a01        .*      CMP      r2,#1
        0x0001cb86:    d07b        {.      BEQ      0x1cc80 ; am_hal_uart_transfer + 284
        0x0001cb88:    2a02        .*      CMP      r2,#2
        0x0001cb8a:    f00080cd    ....    BEQ.W    0x1cd28 ; am_hal_uart_transfer + 452
        0x0001cb8e:    2a03        .*      CMP      r2,#3
        0x0001cb90:    bf1c        ..      ITT      NE
        0x0001cb92:    2001        .       MOVNE    r0,#1
        0x0001cb94:    e8bd8ff8    ....    POPNE    {r3-r11,pc}
        0x0001cb98:    68ea        .h      LDR      r2,[r5,#0xc]
        0x0001cb9a:    2c00        .,      CMP      r4,#0
        0x0001cb9c:    bf1a        ..      ITTE     NE
        0x0001cb9e:    6823        #h      LDRNE    r3,[r4,#0]
        0x0001cba0:    f0137f80    ....    TSTNE    r3,#0x1000000
        0x0001cba4:    e8bd8ff8    ....    POPEQ    {r3-r11,pc}
        0x0001cba8:    f023437f    #..C    BIC      r3,r3,#0xff000000
        0x0001cbac:    428b        .B      CMP      r3,r1
        0x0001cbae:    bf18        ..      IT       NE
        0x0001cbb0:    e8bd8ff8    ....    POPNE    {r3-r11,pc}
        0x0001cbb4:    2a00        .*      CMP      r2,#0
        0x0001cbb6:    bf18        ..      IT       NE
        0x0001cbb8:    6016        .`      STRNE    r6,[r2,#0]
        0x0001cbba:    f7fbfbd3    ....    BL       am_hal_interrupt_master_disable ; 0x18364
        0x0001cbbe:    9000        ..      STR      r0,[sp,#0]
        0x0001cbc0:    f894002c    ..,.    LDRB     r0,[r4,#0x2c]
        0x0001cbc4:    2800        .(      CMP      r0,#0
        0x0001cbc6:    f00080e9    ....    BEQ.W    0x1cd9c ; am_hal_uart_transfer + 568
        0x0001cbca:    9800        ..      LDR      r0,[sp,#0]
        0x0001cbcc:    f7fbfbce    ....    BL       am_hal_interrupt_master_set ; 0x1836c
        0x0001cbd0:    4640        @F      MOV      r0,r8
        0x0001cbd2:    e8bd8ff8    ....    POP      {r3-r11,pc}
        0x0001cbd6:    68ea        .h      LDR      r2,[r5,#0xc]
        0x0001cbd8:    f04f0800    O...    MOV      r8,#0
        0x0001cbdc:    2c00        .,      CMP      r4,#0
        0x0001cbde:    bf1a        ..      ITTE     NE
        0x0001cbe0:    6823        #h      LDRNE    r3,[r4,#0]
        0x0001cbe2:    f0137f80    ....    TSTNE    r3,#0x1000000
        0x0001cbe6:    e8bd8ff8    ....    POPEQ    {r3-r11,pc}
        0x0001cbea:    f023437f    #..C    BIC      r3,r3,#0xff000000
        0x0001cbee:    428b        .B      CMP      r3,r1
        0x0001cbf0:    bf18        ..      IT       NE
        0x0001cbf2:    e8bd8ff8    ....    POPNE    {r3-r11,pc}
        0x0001cbf6:    2a00        .*      CMP      r2,#0
        0x0001cbf8:    bf18        ..      IT       NE
        0x0001cbfa:    6016        .`      STRNE    r6,[r2,#0]
        0x0001cbfc:    f7fbfbb2    ....    BL       am_hal_interrupt_master_disable ; 0x18364
        0x0001cc00:    9000        ..      STR      r0,[sp,#0]
        0x0001cc02:    f8940054    ..T.    LDRB     r0,[r4,#0x54]
        0x0001cc06:    2800        .(      CMP      r0,#0
        0x0001cc08:    d17e        ~.      BNE      0x1cd08 ; am_hal_uart_transfer + 420
        0x0001cc0a:    f8849054    ..T.    STRB     r9,[r4,#0x54]
        0x0001cc0e:    7829        )x      LDRB     r1,[r5,#0]
        0x0001cc10:    f8841058    ..X.    STRB     r1,[r4,#0x58]
        0x0001cc14:    6869        ih      LDR      r1,[r5,#4]
        0x0001cc16:    65e1        .e      STR      r1,[r4,#0x5c]
        0x0001cc18:    68a9        .h      LDR      r1,[r5,#8]
        0x0001cc1a:    6621        !f      STR      r1,[r4,#0x60]
        0x0001cc1c:    68e9        .h      LDR      r1,[r5,#0xc]
        0x0001cc1e:    6661        af      STR      r1,[r4,#0x64]
        0x0001cc20:    6929        )i      LDR      r1,[r5,#0x10]
        0x0001cc22:    66a1        .f      STR      r1,[r4,#0x68]
        0x0001cc24:    6969        ii      LDR      r1,[r5,#0x14]
        0x0001cc26:    66e1        .f      STR      r1,[r4,#0x6c]
        0x0001cc28:    69a9        .i      LDR      r1,[r5,#0x18]
        0x0001cc2a:    6721        !g      STR      r1,[r4,#0x70]
        0x0001cc2c:    4620         F      MOV      r0,r4
        0x0001cc2e:    69e9        .i      LDR      r1,[r5,#0x1c]
        0x0001cc30:    6761        ag      STR      r1,[r4,#0x74]
        0x0001cc32:    6786        .g      STR      r6,[r0,#0x78]
        0x0001cc34:    f88060b4    ...`    STRB     r6,[r0,#0xb4]
        0x0001cc38:    9800        ..      LDR      r0,[sp,#0]
        0x0001cc3a:    f7fbfb97    ....    BL       am_hal_interrupt_master_set ; 0x1836c
        0x0001cc3e:    4620         F      MOV      r0,r4
        0x0001cc40:    f001f9e0    ....    BL       nonblocking_write_sm ; 0x1e004
        0x0001cc44:    f8940054    ..T.    LDRB     r0,[r4,#0x54]
        0x0001cc48:    2800        .(      CMP      r0,#0
        0x0001cc4a:    d067        g.      BEQ      0x1cd1c ; am_hal_uart_transfer + 440
        0x0001cc4c:    4620         F      MOV      r0,r4
        0x0001cc4e:    f001f9d9    ....    BL       nonblocking_write_sm ; 0x1e004
        0x0001cc52:    f44f707a    O.zp    MOV      r0,#0x3e8
        0x0001cc56:    f7fdfb2f    ../.    BL       am_hal_delay_us ; 0x1a2b8
        0x0001cc5a:    6928        (i      LDR      r0,[r5,#0x10]
        0x0001cc5c:    f1b03fff    ...?    CMP      r0,#0xffffffff
        0x0001cc60:    d009        ..      BEQ      0x1cc76 ; am_hal_uart_transfer + 274
        0x0001cc62:    f1080801    ....    ADD      r8,r8,#1
        0x0001cc66:    4540        @E      CMP      r0,r8
        0x0001cc68:    d105        ..      BNE      0x1cc76 ; am_hal_uart_transfer + 274
        0x0001cc6a:    f8846054    ..T`    STRB     r6,[r4,#0x54]
        0x0001cc6e:    4650        PF      MOV      r0,r10
        0x0001cc70:    e8bd8ff8    ....    POP      {r3-r11,pc}
        0x0001cc74:    e004        ..      B        0x1cc80 ; am_hal_uart_transfer + 284
        0x0001cc76:    f8940054    ..T.    LDRB     r0,[r4,#0x54]
        0x0001cc7a:    2800        .(      CMP      r0,#0
        0x0001cc7c:    d1e6        ..      BNE      0x1cc4c ; am_hal_uart_transfer + 232
        0x0001cc7e:    e0a7        ..      B        0x1cdd0 ; am_hal_uart_transfer + 620
        0x0001cc80:    2700        .'      MOVS     r7,#0
        0x0001cc82:    68ea        .h      LDR      r2,[r5,#0xc]
        0x0001cc84:    2c00        .,      CMP      r4,#0
        0x0001cc86:    bf1c        ..      ITT      NE
        0x0001cc88:    6823        #h      LDRNE    r3,[r4,#0]
        0x0001cc8a:    f0137f80    ....    TSTNE    r3,#0x1000000
        0x0001cc8e:    d003        ..      BEQ      0x1cc98 ; am_hal_uart_transfer + 308
        0x0001cc90:    f023437f    #..C    BIC      r3,r3,#0xff000000
        0x0001cc94:    428b        .B      CMP      r3,r1
        0x0001cc96:    d001        ..      BEQ      0x1cc9c ; am_hal_uart_transfer + 312
        0x0001cc98:    4606        .F      MOV      r6,r0
        0x0001cc9a:    e099        ..      B        0x1cdd0 ; am_hal_uart_transfer + 620
        0x0001cc9c:    2a00        .*      CMP      r2,#0
        0x0001cc9e:    bf18        ..      IT       NE
        0x0001cca0:    6016        .`      STRNE    r6,[r2,#0]
        0x0001cca2:    f7fbfb5f    .._.    BL       am_hal_interrupt_master_disable ; 0x18364
        0x0001cca6:    9000        ..      STR      r0,[sp,#0]
        0x0001cca8:    f894002c    ..,.    LDRB     r0,[r4,#0x2c]
        0x0001ccac:    b120         .      CBZ      r0,0x1ccb8 ; am_hal_uart_transfer + 340
        0x0001ccae:    4646        FF      MOV      r6,r8
        0x0001ccb0:    9800        ..      LDR      r0,[sp,#0]
        0x0001ccb2:    f7fbfb5b    ..[.    BL       am_hal_interrupt_master_set ; 0x1836c
        0x0001ccb6:    e08b        ..      B        0x1cdd0 ; am_hal_uart_transfer + 620
        0x0001ccb8:    f884902c    ..,.    STRB     r9,[r4,#0x2c]
        0x0001ccbc:    7829        )x      LDRB     r1,[r5,#0]
        0x0001ccbe:    f8841030    ..0.    STRB     r1,[r4,#0x30]
        0x0001ccc2:    6869        ih      LDR      r1,[r5,#4]
        0x0001ccc4:    6361        ac      STR      r1,[r4,#0x34]
        0x0001ccc6:    68a9        .h      LDR      r1,[r5,#8]
        0x0001ccc8:    63a1        .c      STR      r1,[r4,#0x38]
        0x0001ccca:    68e9        .h      LDR      r1,[r5,#0xc]
        0x0001cccc:    63e1        .c      STR      r1,[r4,#0x3c]
        0x0001ccce:    6929        )i      LDR      r1,[r5,#0x10]
        0x0001ccd0:    6421        !d      STR      r1,[r4,#0x40]
        0x0001ccd2:    6969        ii      LDR      r1,[r5,#0x14]
        0x0001ccd4:    6461        ad      STR      r1,[r4,#0x44]
        0x0001ccd6:    69a9        .i      LDR      r1,[r5,#0x18]
        0x0001ccd8:    64a1        .d      STR      r1,[r4,#0x48]
        0x0001ccda:    4620         F      MOV      r0,r4
        0x0001ccdc:    69e9        .i      LDR      r1,[r5,#0x1c]
        0x0001ccde:    64e1        .d      STR      r1,[r4,#0x4c]
        0x0001cce0:    6506        .e      STR      r6,[r0,#0x50]
        0x0001cce2:    9800        ..      LDR      r0,[sp,#0]
        0x0001cce4:    f7fbfb42    ..B.    BL       am_hal_interrupt_master_set ; 0x1836c
        0x0001cce8:    4620         F      MOV      r0,r4
        0x0001ccea:    f001f8f1    ....    BL       nonblocking_read_sm ; 0x1ded0
        0x0001ccee:    f894002c    ..,.    LDRB     r0,[r4,#0x2c]
        0x0001ccf2:    2800        .(      CMP      r0,#0
        0x0001ccf4:    d06c        l.      BEQ      0x1cdd0 ; am_hal_uart_transfer + 620
        0x0001ccf6:    4620         F      MOV      r0,r4
        0x0001ccf8:    f001f8ea    ....    BL       nonblocking_read_sm ; 0x1ded0
        0x0001ccfc:    f44f707a    O.zp    MOV      r0,#0x3e8
        0x0001cd00:    f7fdfada    ....    BL       am_hal_delay_us ; 0x1a2b8
        0x0001cd04:    6928        (i      LDR      r0,[r5,#0x10]
        0x0001cd06:    e000        ..      B        0x1cd0a ; am_hal_uart_transfer + 422
        0x0001cd08:    e025        %.      B        0x1cd56 ; am_hal_uart_transfer + 498
        0x0001cd0a:    f1b03fff    ...?    CMP      r0,#0xffffffff
        0x0001cd0e:    d006        ..      BEQ      0x1cd1e ; am_hal_uart_transfer + 442
        0x0001cd10:    1c7f        ..      ADDS     r7,r7,#1
        0x0001cd12:    42b8        .B      CMP      r0,r7
        0x0001cd14:    d103        ..      BNE      0x1cd1e ; am_hal_uart_transfer + 442
        0x0001cd16:    f884602c    ..,`    STRB     r6,[r4,#0x2c]
        0x0001cd1a:    4656        VF      MOV      r6,r10
        0x0001cd1c:    e058        X.      B        0x1cdd0 ; am_hal_uart_transfer + 620
        0x0001cd1e:    f894002c    ..,.    LDRB     r0,[r4,#0x2c]
        0x0001cd22:    2800        .(      CMP      r0,#0
        0x0001cd24:    d1e7        ..      BNE      0x1ccf6 ; am_hal_uart_transfer + 402
        0x0001cd26:    e053        S.      B        0x1cdd0 ; am_hal_uart_transfer + 620
        0x0001cd28:    68ea        .h      LDR      r2,[r5,#0xc]
        0x0001cd2a:    2c00        .,      CMP      r4,#0
        0x0001cd2c:    bf1a        ..      ITTE     NE
        0x0001cd2e:    6823        #h      LDRNE    r3,[r4,#0]
        0x0001cd30:    f0137f80    ....    TSTNE    r3,#0x1000000
        0x0001cd34:    e8bd8ff8    ....    POPEQ    {r3-r11,pc}
        0x0001cd38:    f023437f    #..C    BIC      r3,r3,#0xff000000
        0x0001cd3c:    428b        .B      CMP      r3,r1
        0x0001cd3e:    bf18        ..      IT       NE
        0x0001cd40:    e8bd8ff8    ....    POPNE    {r3-r11,pc}
        0x0001cd44:    2a00        .*      CMP      r2,#0
        0x0001cd46:    bf18        ..      IT       NE
        0x0001cd48:    6016        .`      STRNE    r6,[r2,#0]
        0x0001cd4a:    f7fbfb0b    ....    BL       am_hal_interrupt_master_disable ; 0x18364
        0x0001cd4e:    9000        ..      STR      r0,[sp,#0]
        0x0001cd50:    f8940054    ..T.    LDRB     r0,[r4,#0x54]
        0x0001cd54:    b128        (.      CBZ      r0,0x1cd62 ; am_hal_uart_transfer + 510
        0x0001cd56:    9800        ..      LDR      r0,[sp,#0]
        0x0001cd58:    f7fbfb08    ....    BL       am_hal_interrupt_master_set ; 0x1836c
        0x0001cd5c:    4638        8F      MOV      r0,r7
        0x0001cd5e:    e8bd8ff8    ....    POP      {r3-r11,pc}
        0x0001cd62:    f8849054    ..T.    STRB     r9,[r4,#0x54]
        0x0001cd66:    7828        (x      LDRB     r0,[r5,#0]
        0x0001cd68:    f8840058    ..X.    STRB     r0,[r4,#0x58]
        0x0001cd6c:    6868        hh      LDR      r0,[r5,#4]
        0x0001cd6e:    65e0        .e      STR      r0,[r4,#0x5c]
        0x0001cd70:    68a8        .h      LDR      r0,[r5,#8]
        0x0001cd72:    6620         f      STR      r0,[r4,#0x60]
        0x0001cd74:    68e8        .h      LDR      r0,[r5,#0xc]
        0x0001cd76:    6660        `f      STR      r0,[r4,#0x64]
        0x0001cd78:    6928        (i      LDR      r0,[r5,#0x10]
        0x0001cd7a:    66a0        .f      STR      r0,[r4,#0x68]
        0x0001cd7c:    6968        hi      LDR      r0,[r5,#0x14]
        0x0001cd7e:    66e0        .f      STR      r0,[r4,#0x6c]
        0x0001cd80:    69a8        .i      LDR      r0,[r5,#0x18]
        0x0001cd82:    6720         g      STR      r0,[r4,#0x70]
        0x0001cd84:    69e8        .i      LDR      r0,[r5,#0x1c]
        0x0001cd86:    67a6        .g      STR      r6,[r4,#0x78]
        0x0001cd88:    6760        `g      STR      r0,[r4,#0x74]
        0x0001cd8a:    f88460b4    ...`    STRB     r6,[r4,#0xb4]
        0x0001cd8e:    9800        ..      LDR      r0,[sp,#0]
        0x0001cd90:    f7fbfaec    ....    BL       am_hal_interrupt_master_set ; 0x1836c
        0x0001cd94:    4620         F      MOV      r0,r4
        0x0001cd96:    f001f935    ..5.    BL       nonblocking_write_sm ; 0x1e004
        0x0001cd9a:    e019        ..      B        0x1cdd0 ; am_hal_uart_transfer + 620
        0x0001cd9c:    f884902c    ..,.    STRB     r9,[r4,#0x2c]
        0x0001cda0:    7828        (x      LDRB     r0,[r5,#0]
        0x0001cda2:    f8840030    ..0.    STRB     r0,[r4,#0x30]
        0x0001cda6:    6868        hh      LDR      r0,[r5,#4]
        0x0001cda8:    6360        `c      STR      r0,[r4,#0x34]
        0x0001cdaa:    68a8        .h      LDR      r0,[r5,#8]
        0x0001cdac:    63a0        .c      STR      r0,[r4,#0x38]
        0x0001cdae:    68e8        .h      LDR      r0,[r5,#0xc]
        0x0001cdb0:    63e0        .c      STR      r0,[r4,#0x3c]
        0x0001cdb2:    6928        (i      LDR      r0,[r5,#0x10]
        0x0001cdb4:    6420         d      STR      r0,[r4,#0x40]
        0x0001cdb6:    6968        hi      LDR      r0,[r5,#0x14]
        0x0001cdb8:    6460        `d      STR      r0,[r4,#0x44]
        0x0001cdba:    69a8        .i      LDR      r0,[r5,#0x18]
        0x0001cdbc:    64a0        .d      STR      r0,[r4,#0x48]
        0x0001cdbe:    69e8        .i      LDR      r0,[r5,#0x1c]
        0x0001cdc0:    6526        &e      STR      r6,[r4,#0x50]
        0x0001cdc2:    64e0        .d      STR      r0,[r4,#0x4c]
        0x0001cdc4:    9800        ..      LDR      r0,[sp,#0]
        0x0001cdc6:    f7fbfad1    ....    BL       am_hal_interrupt_master_set ; 0x1836c
        0x0001cdca:    4620         F      MOV      r0,r4
        0x0001cdcc:    f001f880    ....    BL       nonblocking_read_sm ; 0x1ded0
        0x0001cdd0:    4630        0F      MOV      r0,r6
        0x0001cdd2:    e8bd8ff8    ....    POP      {r3-r11,pc}
    $d
        0x0001cdd6:    0000        ..      DCW    0
        0x0001cdd8:    00ea9e06    ....    DCD    15375878
        0x0001cddc:    08000004    ....    DCD    134217732
    $t
    i.am_iomaster4_isr
    am_iomaster4_isr
        0x0001cde0:    b508        ..      PUSH     {r3,lr}
        0x0001cde2:    466a        jF      MOV      r2,sp
        0x0001cde4:    2101        .!      MOVS     r1,#1
        0x0001cde6:    4809        .H      LDR      r0,[pc,#36] ; [0x1ce0c] = 0x10000088
        0x0001cde8:    6800        .h      LDR      r0,[r0,#0]
        0x0001cdea:    f7fefac1    ....    BL       am_hal_iom_interrupt_status_get ; 0x1b370
        0x0001cdee:    b958        X.      CBNZ     r0,0x1ce08 ; am_iomaster4_isr + 40
        0x0001cdf0:    9800        ..      LDR      r0,[sp,#0]
        0x0001cdf2:    b148        H.      CBZ      r0,0x1ce08 ; am_iomaster4_isr + 40
        0x0001cdf4:    4805        .H      LDR      r0,[pc,#20] ; [0x1ce0c] = 0x10000088
        0x0001cdf6:    9900        ..      LDR      r1,[sp,#0]
        0x0001cdf8:    6800        .h      LDR      r0,[r0,#0]
        0x0001cdfa:    f7fef8ff    ....    BL       am_hal_iom_interrupt_clear ; 0x1affc
        0x0001cdfe:    4803        .H      LDR      r0,[pc,#12] ; [0x1ce0c] = 0x10000088
        0x0001ce00:    9900        ..      LDR      r1,[sp,#0]
        0x0001ce02:    6800        .h      LDR      r0,[r0,#0]
        0x0001ce04:    f7fef914    ....    BL       am_hal_iom_interrupt_service ; 0x1b030
        0x0001ce08:    bd08        ..      POP      {r3,pc}
    $d
        0x0001ce0a:    0000        ..      DCW    0
        0x0001ce0c:    10000088    ....    DCD    268435592
    $t
    i.am_uart2_isr
    am_uart2_isr
        0x0001ce10:    b51c        ..      PUSH     {r2-r4,lr}
        0x0001ce12:    4814        .H      LDR      r0,[pc,#80] ; [0x1ce64] = 0x10002a00
        0x0001ce14:    4914        .I      LDR      r1,[pc,#80] ; [0x1ce68] = 0x1000006c
        0x0001ce16:    6809        .h      LDR      r1,[r1,#0]
        0x0001ce18:    1844        D.      ADDS     r4,r0,r1
        0x0001ce1a:    2201        ."      MOVS     r2,#1
        0x0001ce1c:    a901        ..      ADD      r1,sp,#4
        0x0001ce1e:    4813        .H      LDR      r0,[pc,#76] ; [0x1ce6c] = 0x10000000
        0x0001ce20:    6800        .h      LDR      r0,[r0,#0]
        0x0001ce22:    f7fffe0d    ....    BL       am_hal_uart_interrupt_status_get ; 0x1ca40
        0x0001ce26:    4811        .H      LDR      r0,[pc,#68] ; [0x1ce6c] = 0x10000000
        0x0001ce28:    9901        ..      LDR      r1,[sp,#4]
        0x0001ce2a:    6800        .h      LDR      r0,[r0,#0]
        0x0001ce2c:    f7fffdb0    ....    BL       am_hal_uart_interrupt_clear ; 0x1c990
        0x0001ce30:    480e        .H      LDR      r0,[pc,#56] ; [0x1ce6c] = 0x10000000
        0x0001ce32:    9901        ..      LDR      r1,[sp,#4]
        0x0001ce34:    6800        .h      LDR      r0,[r0,#0]
        0x0001ce36:    f7fffddd    ....    BL       am_hal_uart_interrupt_service ; 0x1c9f4
        0x0001ce3a:    9801        ..      LDR      r0,[sp,#4]
        0x0001ce3c:    f0000050    ..P.    AND      r0,r0,#0x50
        0x0001ce40:    b178        x.      CBZ      r0,0x1ce62 ; am_uart2_isr + 82
        0x0001ce42:    4669        iF      MOV      r1,sp
        0x0001ce44:    4620         F      MOV      r0,r4
        0x0001ce46:    f001fa59    ..Y.    BL       serial_data_read ; 0x1e2fc
        0x0001ce4a:    9800        ..      LDR      r0,[sp,#0]
        0x0001ce4c:    b281        ..      UXTH     r1,r0
        0x0001ce4e:    4620         F      MOV      r0,r4
        0x0001ce50:    f001faf6    ....    BL       serial_rx_hci_state_machine ; 0x1e440
        0x0001ce54:    4804        .H      LDR      r0,[pc,#16] ; [0x1ce68] = 0x1000006c
        0x0001ce56:    6800        .h      LDR      r0,[r0,#0]
        0x0001ce58:    9900        ..      LDR      r1,[sp,#0]
        0x0001ce5a:    4408        .D      ADD      r0,r0,r1
        0x0001ce5c:    4902        .I      LDR      r1,[pc,#8] ; [0x1ce68] = 0x1000006c
        0x0001ce5e:    6008        .`      STR      r0,[r1,#0]
        0x0001ce60:    bf00        ..      NOP      
        0x0001ce62:    bd1c        ..      POP      {r2-r4,pc}
    $d
        0x0001ce64:    10002a00    .*..    DCD    268446208
        0x0001ce68:    1000006c    l...    DCD    268435564
        0x0001ce6c:    10000000    ....    DCD    268435456
    $t
    i.am_util_ble_hci_reset
    am_util_ble_hci_reset
        0x0001ce70:    b510        ..      PUSH     {r4,lr}
        0x0001ce72:    b088        ..      SUB      sp,sp,#0x20
        0x0001ce74:    4604        .F      MOV      r4,r0
        0x0001ce76:    a009        ..      ADR      r0,{pc}+0x26 ; 0x1ce9c
        0x0001ce78:    6800        .h      LDR      r0,[r0,#0]
        0x0001ce7a:    9007        ..      STR      r0,[sp,#0x1c]
        0x0001ce7c:    2000        .       MOVS     r0,#0
        0x0001ce7e:    9006        ..      STR      r0,[sp,#0x18]
        0x0001ce80:    9002        ..      STR      r0,[sp,#8]
        0x0001ce82:    9003        ..      STR      r0,[sp,#0xc]
        0x0001ce84:    9004        ..      STR      r0,[sp,#0x10]
        0x0001ce86:    9005        ..      STR      r0,[sp,#0x14]
        0x0001ce88:    a806        ..      ADD      r0,sp,#0x18
        0x0001ce8a:    ab02        ..      ADD      r3,sp,#8
        0x0001ce8c:    2204        ."      MOVS     r2,#4
        0x0001ce8e:    a907        ..      ADD      r1,sp,#0x1c
        0x0001ce90:    9000        ..      STR      r0,[sp,#0]
        0x0001ce92:    4620         F      MOV      r0,r4
        0x0001ce94:    f7fcf8c8    ....    BL       am_devices_cooper_command_write ; 0x19028
        0x0001ce98:    b008        ..      ADD      sp,sp,#0x20
        0x0001ce9a:    bd10        ..      POP      {r4,pc}
    $d
        0x0001ce9c:    000c0301    ....    DCD    787201
    $t
    i.am_util_ble_nvds_set
    am_util_ble_nvds_set
        0x0001cea0:    b5f0        ..      PUSH     {r4-r7,lr}
        0x0001cea2:    b0c3        ..      SUB      sp,sp,#0x10c
        0x0001cea4:    4605        .F      MOV      r5,r0
        0x0001cea6:    460e        .F      MOV      r6,r1
        0x0001cea8:    4617        .F      MOV      r7,r2
        0x0001ceaa:    2000        .       MOVS     r0,#0
        0x0001ceac:    9042        B.      STR      r0,[sp,#0x108]
        0x0001ceae:    903e        >.      STR      r0,[sp,#0xf8]
        0x0001ceb0:    903f        ?.      STR      r0,[sp,#0xfc]
        0x0001ceb2:    9040        @.      STR      r0,[sp,#0x100]
        0x0001ceb4:    9041        A.      STR      r0,[sp,#0x104]
        0x0001ceb6:    2400        .$      MOVS     r4,#0
        0x0001ceb8:    21ec        .!      MOVS     r1,#0xec
        0x0001ceba:    a803        ..      ADD      r0,sp,#0xc
        0x0001cebc:    f7fbfb37    ..7.    BL       __aeabi_memclr4 ; 0x1852e
        0x0001cec0:    490e        .I      LDR      r1,[pc,#56] ; [0x1cefc] = 0x1ed68
        0x0001cec2:    c903        ..      LDM      r1,{r0,r1}
        0x0001cec4:    e9cd0101    ....    STRD     r0,r1,[sp,#4]
        0x0001cec8:    463a        :F      MOV      r2,r7
        0x0001ceca:    4631        1F      MOV      r1,r6
        0x0001cecc:    a803        ..      ADD      r0,sp,#0xc
        0x0001cece:    f7fbfaaf    ....    BL       __aeabi_memcpy ; 0x18430
        0x0001ced2:    a842        B.      ADD      r0,sp,#0x108
        0x0001ced4:    ab3e        >.      ADD      r3,sp,#0xf8
        0x0001ced6:    22f4        ."      MOVS     r2,#0xf4
        0x0001ced8:    a901        ..      ADD      r1,sp,#4
        0x0001ceda:    9000        ..      STR      r0,[sp,#0]
        0x0001cedc:    4628        (F      MOV      r0,r5
        0x0001cede:    f7fcf8a3    ....    BL       am_devices_cooper_command_write ; 0x19028
        0x0001cee2:    4604        .F      MOV      r4,r0
        0x0001cee4:    b114        ..      CBZ      r4,0x1ceec ; am_util_ble_nvds_set + 76
        0x0001cee6:    4620         F      MOV      r0,r4
        0x0001cee8:    b043        C.      ADD      sp,sp,#0x10c
        0x0001ceea:    bdf0        ..      POP      {r4-r7,pc}
        0x0001ceec:    2001        .       MOVS     r0,#1
        0x0001ceee:    f000f841    ..A.    BL       am_util_delay_ms ; 0x1cf74
        0x0001cef2:    4628        (F      MOV      r0,r5
        0x0001cef4:    f7ffffbc    ....    BL       am_util_ble_hci_reset ; 0x1ce70
        0x0001cef8:    4620         F      MOV      r0,r4
        0x0001cefa:    e7f5        ..      B        0x1cee8 ; am_util_ble_nvds_set + 72
    $d
        0x0001cefc:    0001ed68    h...    DCD    126312
    $t
    i.am_util_ble_update_sign_set
    am_util_ble_update_sign_set
        0x0001cf00:    b5f0        ..      PUSH     {r4-r7,lr}
        0x0001cf02:    b089        ..      SUB      sp,sp,#0x24
        0x0001cf04:    4605        .F      MOV      r5,r0
        0x0001cf06:    460c        .F      MOV      r4,r1
        0x0001cf08:    462f        /F      MOV      r7,r5
        0x0001cf0a:    2600        .&      MOVS     r6,#0
        0x0001cf0c:    2000        .       MOVS     r0,#0
        0x0001cf0e:    9008        ..      STR      r0,[sp,#0x20]
        0x0001cf10:    9004        ..      STR      r0,[sp,#0x10]
        0x0001cf12:    9005        ..      STR      r0,[sp,#0x14]
        0x0001cf14:    9006        ..      STR      r0,[sp,#0x18]
        0x0001cf16:    9007        ..      STR      r0,[sp,#0x1c]
        0x0001cf18:    a114        ..      ADR      r1,{pc}+0x54 ; 0x1cf6c
        0x0001cf1a:    c903        ..      LDM      r1,{r0,r1}
        0x0001cf1c:    e9cd0102    ....    STRD     r0,r1,[sp,#8]
        0x0001cf20:    b2e0        ..      UXTB     r0,r4
        0x0001cf22:    f88d000c    ....    STRB     r0,[sp,#0xc]
        0x0001cf26:    0a20         .      LSRS     r0,r4,#8
        0x0001cf28:    f88d000d    ....    STRB     r0,[sp,#0xd]
        0x0001cf2c:    0c20         .      LSRS     r0,r4,#16
        0x0001cf2e:    f88d000e    ....    STRB     r0,[sp,#0xe]
        0x0001cf32:    0e20         .      LSRS     r0,r4,#24
        0x0001cf34:    f88d000f    ....    STRB     r0,[sp,#0xf]
        0x0001cf38:    a808        ..      ADD      r0,sp,#0x20
        0x0001cf3a:    ab04        ..      ADD      r3,sp,#0x10
        0x0001cf3c:    2208        ."      MOVS     r2,#8
        0x0001cf3e:    a902        ..      ADD      r1,sp,#8
        0x0001cf40:    9000        ..      STR      r0,[sp,#0]
        0x0001cf42:    4628        (F      MOV      r0,r5
        0x0001cf44:    f7fcf870    ..p.    BL       am_devices_cooper_command_write ; 0x19028
        0x0001cf48:    4606        .F      MOV      r6,r0
        0x0001cf4a:    b116        ..      CBZ      r6,0x1cf52 ; am_util_ble_update_sign_set + 82
        0x0001cf4c:    4630        0F      MOV      r0,r6
        0x0001cf4e:    b009        ..      ADD      sp,sp,#0x24
        0x0001cf50:    bdf0        ..      POP      {r4-r7,pc}
        0x0001cf52:    68f8        .h      LDR      r0,[r7,#0xc]
        0x0001cf54:    f5b07f87    ....    CMP      r0,#0x10e
        0x0001cf58:    d203        ..      BCS      0x1cf62 ; am_util_ble_update_sign_set + 98
        0x0001cf5a:    f44f60fa    O..`    MOV      r0,#0x7d0
        0x0001cf5e:    f000f809    ....    BL       am_util_delay_ms ; 0x1cf74
        0x0001cf62:    9808        ..      LDR      r0,[sp,#0x20]
        0x0001cf64:    1e40        @.      SUBS     r0,r0,#1
        0x0001cf66:    a904        ..      ADD      r1,sp,#0x10
        0x0001cf68:    5c08        .\      LDRB     r0,[r1,r0]
        0x0001cf6a:    e7f0        ..      B        0x1cf4e ; am_util_ble_update_sign_set + 78
    $d
        0x0001cf6c:    04fc7501    .u..    DCD    83653889
        0x0001cf70:    00000000    ....    DCD    0
    $t
    i.am_util_delay_ms
    am_util_delay_ms
        0x0001cf74:    b510        ..      PUSH     {r4,lr}
        0x0001cf76:    4604        .F      MOV      r4,r0
        0x0001cf78:    f44f717a    O.zq    MOV      r1,#0x3e8
        0x0001cf7c:    fb04f001    ....    MUL      r0,r4,r1
        0x0001cf80:    f7fdf99a    ....    BL       am_hal_delay_us ; 0x1a2b8
        0x0001cf84:    bd10        ..      POP      {r4,pc}
    i.am_util_delay_us
    am_util_delay_us
        0x0001cf86:    b510        ..      PUSH     {r4,lr}
        0x0001cf88:    4604        .F      MOV      r4,r0
        0x0001cf8a:    4620         F      MOV      r0,r4
        0x0001cf8c:    f7fdf994    ....    BL       am_hal_delay_us ; 0x1a2b8
        0x0001cf90:    bd10        ..      POP      {r4,pc}
        0x0001cf92:    0000        ..      MOVS     r0,r0
    i.am_util_faultisr_collect_data
    am_util_faultisr_collect_data
        0x0001cf94:    b092        ..      SUB      sp,sp,#0x48
        0x0001cf96:    4604        .F      MOV      r4,r0
        0x0001cf98:    2118        .!      MOVS     r1,#0x18
        0x0001cf9a:    4668        hF      MOV      r0,sp
        0x0001cf9c:    f7fbfac7    ....    BL       __aeabi_memclr4 ; 0x1852e
        0x0001cfa0:    2500        .%      MOVS     r5,#0
        0x0001cfa2:    9510        ..      STR      r5,[sp,#0x40]
        0x0001cfa4:    482a        *H      LDR      r0,[pc,#168] ; [0x1d050] = 0xe000ed28
        0x0001cfa6:    6800        .h      LDR      r0,[r0,#0]
        0x0001cfa8:    9010        ..      STR      r0,[sp,#0x40]
        0x0001cfaa:    9810        ..      LDR      r0,[sp,#0x40]
        0x0001cfac:    b2c0        ..      UXTB     r0,r0
        0x0001cfae:    f88d0044    ..D.    STRB     r0,[sp,#0x44]
        0x0001cfb2:    9810        ..      LDR      r0,[sp,#0x40]
        0x0001cfb4:    0a00        ..      LSRS     r0,r0,#8
        0x0001cfb6:    f88d0045    ..E.    STRB     r0,[sp,#0x45]
        0x0001cfba:    9810        ..      LDR      r0,[sp,#0x40]
        0x0001cfbc:    f64f71ff    O..q    MOV      r1,#0xffff
        0x0001cfc0:    ea014010    ...@    AND      r0,r1,r0,LSR #16
        0x0001cfc4:    f8ad0046    ..F.    STRH     r0,[sp,#0x46]
        0x0001cfc8:    4821        !H      LDR      r0,[pc,#132] ; [0x1d050] = 0xe000ed28
        0x0001cfca:    3010        .0      ADDS     r0,r0,#0x10
        0x0001cfcc:    6800        .h      LDR      r0,[r0,#0]
        0x0001cfce:    900f        ..      STR      r0,[sp,#0x3c]
        0x0001cfd0:    4620         F      MOV      r0,r4
        0x0001cfd2:    f000fa4d    ..M.    BL       am_valid_sp ; 0x1d470
        0x0001cfd6:    b3a0        ..      CBZ      r0,0x1d042 ; am_util_faultisr_collect_data + 174
        0x0001cfd8:    f89d0045    ..E.    LDRB     r0,[sp,#0x45]
        0x0001cfdc:    f0000002    ....    AND      r0,r0,#2
        0x0001cfe0:    b120         .      CBZ      r0,0x1cfec ; am_util_faultisr_collect_data + 88
        0x0001cfe2:    4621        !F      MOV      r1,r4
        0x0001cfe4:    2006        .       MOVS     r0,#6
        0x0001cfe6:    f7fbf9b5    ....    BL       getStackedReg ; 0x18354
        0x0001cfea:    e001        ..      B        0x1cff0 ; am_util_faultisr_collect_data + 92
        0x0001cfec:    f04f30ff    O..0    MOV      r0,#0xffffffff
        0x0001cff0:    900e        ..      STR      r0,[sp,#0x38]
        0x0001cff2:    4621        !F      MOV      r1,r4
        0x0001cff4:    2000        .       MOVS     r0,#0
        0x0001cff6:    f7fbf9ad    ....    BL       getStackedReg ; 0x18354
        0x0001cffa:    9006        ..      STR      r0,[sp,#0x18]
        0x0001cffc:    4621        !F      MOV      r1,r4
        0x0001cffe:    2001        .       MOVS     r0,#1
        0x0001d000:    f7fbf9a8    ....    BL       getStackedReg ; 0x18354
        0x0001d004:    9007        ..      STR      r0,[sp,#0x1c]
        0x0001d006:    4621        !F      MOV      r1,r4
        0x0001d008:    2002        .       MOVS     r0,#2
        0x0001d00a:    f7fbf9a3    ....    BL       getStackedReg ; 0x18354
        0x0001d00e:    9008        ..      STR      r0,[sp,#0x20]
        0x0001d010:    4621        !F      MOV      r1,r4
        0x0001d012:    2003        .       MOVS     r0,#3
        0x0001d014:    f7fbf99e    ....    BL       getStackedReg ; 0x18354
        0x0001d018:    9009        ..      STR      r0,[sp,#0x24]
        0x0001d01a:    4621        !F      MOV      r1,r4
        0x0001d01c:    2004        .       MOVS     r0,#4
        0x0001d01e:    f7fbf999    ....    BL       getStackedReg ; 0x18354
        0x0001d022:    900a        ..      STR      r0,[sp,#0x28]
        0x0001d024:    4621        !F      MOV      r1,r4
        0x0001d026:    2005        .       MOVS     r0,#5
        0x0001d028:    f7fbf994    ....    BL       getStackedReg ; 0x18354
        0x0001d02c:    900b        ..      STR      r0,[sp,#0x2c]
        0x0001d02e:    4621        !F      MOV      r1,r4
        0x0001d030:    2006        .       MOVS     r0,#6
        0x0001d032:    f7fbf98f    ....    BL       getStackedReg ; 0x18354
        0x0001d036:    900c        ..      STR      r0,[sp,#0x30]
        0x0001d038:    4621        !F      MOV      r1,r4
        0x0001d03a:    2007        .       MOVS     r0,#7
        0x0001d03c:    f7fbf98a    ....    BL       getStackedReg ; 0x18354
        0x0001d040:    900d        ..      STR      r0,[sp,#0x34]
        0x0001d042:    4668        hF      MOV      r0,sp
        0x0001d044:    f7fdf9b5    ....    BL       am_hal_fault_status_get ; 0x1a3b2
        0x0001d048:    bf00        ..      NOP      
        0x0001d04a:    bf00        ..      NOP      
        0x0001d04c:    e7fe        ..      B        0x1d04c ; am_util_faultisr_collect_data + 184
    $d
        0x0001d04e:    0000        ..      DCW    0
        0x0001d050:    e000ed28    (...    DCD    3758157096
    $t
    i.am_util_stdio_printf
    am_util_stdio_printf
        0x0001d054:    b40f        ..      PUSH     {r0-r3}
        0x0001d056:    b538        8.      PUSH     {r3-r5,lr}
        0x0001d058:    480b        .H      LDR      r0,[pc,#44] ; [0x1d088] = 0x10000098
        0x0001d05a:    6800        .h      LDR      r0,[r0,#0]
        0x0001d05c:    b918        ..      CBNZ     r0,0x1d066 ; am_util_stdio_printf + 18
        0x0001d05e:    2000        .       MOVS     r0,#0
        0x0001d060:    bc38        8.      POP      {r3-r5}
        0x0001d062:    f85dfb14    ]...    LDR      pc,[sp],#0x14
        0x0001d066:    a805        ..      ADD      r0,sp,#0x14
        0x0001d068:    9000        ..      STR      r0,[sp,#0]
        0x0001d06a:    4808        .H      LDR      r0,[pc,#32] ; [0x1d08c] = 0x10003980
        0x0001d06c:    9a00        ..      LDR      r2,[sp,#0]
        0x0001d06e:    9904        ..      LDR      r1,[sp,#0x10]
        0x0001d070:    f000f824    ..$.    BL       am_util_stdio_vsprintf ; 0x1d0bc
        0x0001d074:    4604        .F      MOV      r4,r0
        0x0001d076:    2000        .       MOVS     r0,#0
        0x0001d078:    9000        ..      STR      r0,[sp,#0]
        0x0001d07a:    4804        .H      LDR      r0,[pc,#16] ; [0x1d08c] = 0x10003980
        0x0001d07c:    4902        .I      LDR      r1,[pc,#8] ; [0x1d088] = 0x10000098
        0x0001d07e:    6809        .h      LDR      r1,[r1,#0]
        0x0001d080:    4788        .G      BLX      r1
        0x0001d082:    4620         F      MOV      r0,r4
        0x0001d084:    e7ec        ..      B        0x1d060 ; am_util_stdio_printf + 12
    $d
        0x0001d086:    0000        ..      DCW    0
        0x0001d088:    10000098    ....    DCD    268435608
        0x0001d08c:    10003980    .9..    DCD    268450176
    $t
    i.am_util_stdio_printf_init
    am_util_stdio_printf_init
        0x0001d090:    4901        .I      LDR      r1,[pc,#4] ; [0x1d098] = 0x10000098
        0x0001d092:    6008        .`      STR      r0,[r1,#0]
        0x0001d094:    4770        pG      BX       lr
    $d
        0x0001d096:    0000        ..      DCW    0
        0x0001d098:    10000098    ....    DCD    268435608
    $t
    i.am_util_stdio_terminal_clear
    am_util_stdio_terminal_clear
        0x0001d09c:    b510        ..      PUSH     {r4,lr}
        0x0001d09e:    a002        ..      ADR      r0,{pc}+0xa ; 0x1d0a8
        0x0001d0a0:    f7ffffd8    ....    BL       am_util_stdio_printf ; 0x1d054
        0x0001d0a4:    bd10        ..      POP      {r4,pc}
    $d
        0x0001d0a6:    0000        ..      DCW    0
        0x0001d0a8:    0a0a0a0a    ....    DCD    168430090
        0x0001d0ac:    0a0a0a0a    ....    DCD    168430090
        0x0001d0b0:    0a0a0a0a    ....    DCD    168430090
        0x0001d0b4:    0a0a0a0a    ....    DCD    168430090
        0x0001d0b8:    00000a0a    ....    DCD    2570
    $t
    i.am_util_stdio_vsprintf
    am_util_stdio_vsprintf
        0x0001d0bc:    e92d4ff7    -..O    PUSH     {r0-r2,r4-r11,lr}
        0x0001d0c0:    ed2d8b02    -...    VPUSH    {d8}
        0x0001d0c4:    b08a        ..      SUB      sp,sp,#0x28
        0x0001d0c6:    4604        .F      MOV      r4,r0
        0x0001d0c8:    460d        .F      MOV      r5,r1
        0x0001d0ca:    f04f0900    O...    MOV      r9,#0
        0x0001d0ce:    2000        .       MOVS     r0,#0
        0x0001d0d0:    9000        ..      STR      r0,[sp,#0]
        0x0001d0d2:    e1b9        ..      B        0x1d448 ; am_util_stdio_vsprintf + 908
        0x0001d0d4:    2006        .       MOVS     r0,#6
        0x0001d0d6:    9006        ..      STR      r0,[sp,#0x18]
        0x0001d0d8:    7828        (x      LDRB     r0,[r5,#0]
        0x0001d0da:    2825        %(      CMP      r0,#0x25
        0x0001d0dc:    d012        ..      BEQ      0x1d104 ; am_util_stdio_vsprintf + 72
        0x0001d0de:    b16c        l.      CBZ      r4,0x1d0fc ; am_util_stdio_vsprintf + 64
        0x0001d0e0:    7828        (x      LDRB     r0,[r5,#0]
        0x0001d0e2:    280a        .(      CMP      r0,#0xa
        0x0001d0e4:    d107        ..      BNE      0x1d0f6 ; am_util_stdio_vsprintf + 58
        0x0001d0e6:    48de        .H      LDR      r0,[pc,#888] ; [0x1d460] = 0x1000009c
        0x0001d0e8:    7800        .x      LDRB     r0,[r0,#0]
        0x0001d0ea:    b120         .      CBZ      r0,0x1d0f6 ; am_util_stdio_vsprintf + 58
        0x0001d0ec:    200d        .       MOVS     r0,#0xd
        0x0001d0ee:    f8040b01    ....    STRB     r0,[r4],#1
        0x0001d0f2:    f1090901    ....    ADD      r9,r9,#1
        0x0001d0f6:    7828        (x      LDRB     r0,[r5,#0]
        0x0001d0f8:    f8040b01    ....    STRB     r0,[r4],#1
        0x0001d0fc:    1c6d        m.      ADDS     r5,r5,#1
        0x0001d0fe:    f1090901    ....    ADD      r9,r9,#1
        0x0001d102:    e1a1        ..      B        0x1d448 ; am_util_stdio_vsprintf + 908
        0x0001d104:    1c6d        m.      ADDS     r5,r5,#1
        0x0001d106:    2000        .       MOVS     r0,#0
        0x0001d108:    9002        ..      STR      r0,[sp,#8]
        0x0001d10a:    9003        ..      STR      r0,[sp,#0xc]
        0x0001d10c:    2020                MOVS     r0,#0x20
        0x0001d10e:    9004        ..      STR      r0,[sp,#0x10]
        0x0001d110:    7828        (x      LDRB     r0,[r5,#0]
        0x0001d112:    2830        0(      CMP      r0,#0x30
        0x0001d114:    d101        ..      BNE      0x1d11a ; am_util_stdio_vsprintf + 94
        0x0001d116:    9004        ..      STR      r0,[sp,#0x10]
        0x0001d118:    1c6d        m.      ADDS     r5,r5,#1
        0x0001d11a:    a907        ..      ADD      r1,sp,#0x1c
        0x0001d11c:    4628        (F      MOV      r0,r5
        0x0001d11e:    f000fbc7    ....    BL       decstr_to_int ; 0x1d8b0
        0x0001d122:    4606        .F      MOV      r6,r0
        0x0001d124:    9807        ..      LDR      r0,[sp,#0x1c]
        0x0001d126:    4405        .D      ADD      r5,r5,r0
        0x0001d128:    7828        (x      LDRB     r0,[r5,#0]
        0x0001d12a:    2873        s(      CMP      r0,#0x73
        0x0001d12c:    d002        ..      BEQ      0x1d134 ; am_util_stdio_vsprintf + 120
        0x0001d12e:    2e00        ..      CMP      r6,#0
        0x0001d130:    da00        ..      BGE      0x1d134 ; am_util_stdio_vsprintf + 120
        0x0001d132:    4276        vB      RSBS     r6,r6,#0
        0x0001d134:    7828        (x      LDRB     r0,[r5,#0]
        0x0001d136:    282e        .(      CMP      r0,#0x2e
        0x0001d138:    d107        ..      BNE      0x1d14a ; am_util_stdio_vsprintf + 142
        0x0001d13a:    1c6d        m.      ADDS     r5,r5,#1
        0x0001d13c:    a907        ..      ADD      r1,sp,#0x1c
        0x0001d13e:    4628        (F      MOV      r0,r5
        0x0001d140:    f000fbb6    ....    BL       decstr_to_int ; 0x1d8b0
        0x0001d144:    9006        ..      STR      r0,[sp,#0x18]
        0x0001d146:    9807        ..      LDR      r0,[sp,#0x1c]
        0x0001d148:    4405        .D      ADD      r5,r5,r0
        0x0001d14a:    7828        (x      LDRB     r0,[r5,#0]
        0x0001d14c:    286c        l(      CMP      r0,#0x6c
        0x0001d14e:    d106        ..      BNE      0x1d15e ; am_util_stdio_vsprintf + 162
        0x0001d150:    1c6d        m.      ADDS     r5,r5,#1
        0x0001d152:    7828        (x      LDRB     r0,[r5,#0]
        0x0001d154:    286c        l(      CMP      r0,#0x6c
        0x0001d156:    d102        ..      BNE      0x1d15e ; am_util_stdio_vsprintf + 162
        0x0001d158:    1c6d        m.      ADDS     r5,r5,#1
        0x0001d15a:    2001        .       MOVS     r0,#1
        0x0001d15c:    9002        ..      STR      r0,[sp,#8]
        0x0001d15e:    7828        (x      LDRB     r0,[r5,#0]
        0x0001d160:    2866        f(      CMP      r0,#0x66
        0x0001d162:    d06f        o.      BEQ      0x1d244 ; am_util_stdio_vsprintf + 392
        0x0001d164:    dc08        ..      BGT      0x1d178 ; am_util_stdio_vsprintf + 188
        0x0001d166:    2846        F(      CMP      r0,#0x46
        0x0001d168:    d06d        m.      BEQ      0x1d246 ; am_util_stdio_vsprintf + 394
        0x0001d16a:    2858        X(      CMP      r0,#0x58
        0x0001d16c:    d05c        \.      BEQ      0x1d228 ; am_util_stdio_vsprintf + 364
        0x0001d16e:    2863        c(      CMP      r0,#0x63
        0x0001d170:    d00b        ..      BEQ      0x1d18a ; am_util_stdio_vsprintf + 206
        0x0001d172:    2864        d(      CMP      r0,#0x64
        0x0001d174:    d168        h.      BNE      0x1d248 ; am_util_stdio_vsprintf + 396
        0x0001d176:    e0c3        ..      B        0x1d300 ; am_util_stdio_vsprintf + 580
        0x0001d178:    2869        i(      CMP      r0,#0x69
        0x0001d17a:    d07d        }.      BEQ      0x1d278 ; am_util_stdio_vsprintf + 444
        0x0001d17c:    2873        s(      CMP      r0,#0x73
        0x0001d17e:    d011        ..      BEQ      0x1d1a4 ; am_util_stdio_vsprintf + 232
        0x0001d180:    2875        u(      CMP      r0,#0x75
        0x0001d182:    d07a        z.      BEQ      0x1d27a ; am_util_stdio_vsprintf + 446
        0x0001d184:    2878        x(      CMP      r0,#0x78
        0x0001d186:    d1f5        ..      BNE      0x1d174 ; am_util_stdio_vsprintf + 184
        0x0001d188:    e04b        K.      B        0x1d222 ; am_util_stdio_vsprintf + 358
        0x0001d18a:    980e        ..      LDR      r0,[sp,#0x38]
        0x0001d18c:    f8101b04    ....    LDRB     r1,[r0],#4
        0x0001d190:    900e        ..      STR      r0,[sp,#0x38]
        0x0001d192:    b2c8        ..      UXTB     r0,r1
        0x0001d194:    9005        ..      STR      r0,[sp,#0x14]
        0x0001d196:    b114        ..      CBZ      r4,0x1d19e ; am_util_stdio_vsprintf + 226
        0x0001d198:    9805        ..      LDR      r0,[sp,#0x14]
        0x0001d19a:    f8040b01    ....    STRB     r0,[r4],#1
        0x0001d19e:    f1090901    ....    ADD      r9,r9,#1
        0x0001d1a2:    e14e        N.      B        0x1d442 ; am_util_stdio_vsprintf + 902
        0x0001d1a4:    980e        ..      LDR      r0,[sp,#0x38]
        0x0001d1a6:    f850bb04    P...    LDR      r11,[r0],#4
        0x0001d1aa:    900e        ..      STR      r0,[sp,#0x38]
        0x0001d1ac:    4658        XF      MOV      r0,r11
        0x0001d1ae:    f001fbe1    ....    BL       simple_strlen ; 0x1e974
        0x0001d1b2:    9000        ..      STR      r0,[sp,#0]
        0x0001d1b4:    2e00        ..      CMP      r6,#0
        0x0001d1b6:    dd11        ..      BLE      0x1d1dc ; am_util_stdio_vsprintf + 288
        0x0001d1b8:    9800        ..      LDR      r0,[sp,#0]
        0x0001d1ba:    42b0        .B      CMP      r0,r6
        0x0001d1bc:    d20e        ..      BCS      0x1d1dc ; am_util_stdio_vsprintf + 288
        0x0001d1be:    9800        ..      LDR      r0,[sp,#0]
        0x0001d1c0:    1a36        6.      SUBS     r6,r6,r0
        0x0001d1c2:    4632        2F      MOV      r2,r6
        0x0001d1c4:    4620         F      MOV      r0,r4
        0x0001d1c6:    9904        ..      LDR      r1,[sp,#0x10]
        0x0001d1c8:    f000ffc9    ....    BL       padbuffer ; 0x1e15e
        0x0001d1cc:    4606        .F      MOV      r6,r0
        0x0001d1ce:    b10c        ..      CBZ      r4,0x1d1d4 ; am_util_stdio_vsprintf + 280
        0x0001d1d0:    4630        0F      MOV      r0,r6
        0x0001d1d2:    e000        ..      B        0x1d1d6 ; am_util_stdio_vsprintf + 282
        0x0001d1d4:    2000        .       MOVS     r0,#0
        0x0001d1d6:    4404        .D      ADD      r4,r4,r0
        0x0001d1d8:    44b1        .D      ADD      r9,r9,r6
        0x0001d1da:    2600        .&      MOVS     r6,#0
        0x0001d1dc:    e008        ..      B        0x1d1f0 ; am_util_stdio_vsprintf + 308
        0x0001d1de:    b11c        ..      CBZ      r4,0x1d1e8 ; am_util_stdio_vsprintf + 300
        0x0001d1e0:    f89b0000    ....    LDRB     r0,[r11,#0]
        0x0001d1e4:    f8040b01    ....    STRB     r0,[r4],#1
        0x0001d1e8:    f10b0b01    ....    ADD      r11,r11,#1
        0x0001d1ec:    f1090901    ....    ADD      r9,r9,#1
        0x0001d1f0:    f89b0000    ....    LDRB     r0,[r11,#0]
        0x0001d1f4:    2800        .(      CMP      r0,#0
        0x0001d1f6:    d1f2        ..      BNE      0x1d1de ; am_util_stdio_vsprintf + 290
        0x0001d1f8:    b196        ..      CBZ      r6,0x1d220 ; am_util_stdio_vsprintf + 356
        0x0001d1fa:    4276        vB      RSBS     r6,r6,#0
        0x0001d1fc:    9800        ..      LDR      r0,[sp,#0]
        0x0001d1fe:    42b0        .B      CMP      r0,r6
        0x0001d200:    d20e        ..      BCS      0x1d220 ; am_util_stdio_vsprintf + 356
        0x0001d202:    9800        ..      LDR      r0,[sp,#0]
        0x0001d204:    1a36        6.      SUBS     r6,r6,r0
        0x0001d206:    4632        2F      MOV      r2,r6
        0x0001d208:    4620         F      MOV      r0,r4
        0x0001d20a:    9904        ..      LDR      r1,[sp,#0x10]
        0x0001d20c:    f000ffa7    ....    BL       padbuffer ; 0x1e15e
        0x0001d210:    4606        .F      MOV      r6,r0
        0x0001d212:    b10c        ..      CBZ      r4,0x1d218 ; am_util_stdio_vsprintf + 348
        0x0001d214:    4630        0F      MOV      r0,r6
        0x0001d216:    e000        ..      B        0x1d21a ; am_util_stdio_vsprintf + 350
        0x0001d218:    2000        .       MOVS     r0,#0
        0x0001d21a:    4404        .D      ADD      r4,r4,r0
        0x0001d21c:    44b1        .D      ADD      r9,r9,r6
        0x0001d21e:    2600        .&      MOVS     r6,#0
        0x0001d220:    e10f        ..      B        0x1d442 ; am_util_stdio_vsprintf + 902
        0x0001d222:    2001        .       MOVS     r0,#1
        0x0001d224:    9003        ..      STR      r0,[sp,#0xc]
        0x0001d226:    bf00        ..      NOP      
        0x0001d228:    9802        ..      LDR      r0,[sp,#8]
        0x0001d22a:    b170        p.      CBZ      r0,0x1d24a ; am_util_stdio_vsprintf + 398
        0x0001d22c:    980e        ..      LDR      r0,[sp,#0x38]
        0x0001d22e:    1dc0        ..      ADDS     r0,r0,#7
        0x0001d230:    f0200007     ...    BIC      r0,r0,#7
        0x0001d234:    4601        .F      MOV      r1,r0
        0x0001d236:    900e        ..      STR      r0,[sp,#0x38]
        0x0001d238:    6800        .h      LDR      r0,[r0,#0]
        0x0001d23a:    6849        Ih      LDR      r1,[r1,#4]
        0x0001d23c:    9a0e        ..      LDR      r2,[sp,#0x38]
        0x0001d23e:    3208        .2      ADDS     r2,r2,#8
        0x0001d240:    920e        ..      STR      r2,[sp,#0x38]
        0x0001d242:    e008        ..      B        0x1d256 ; am_util_stdio_vsprintf + 410
        0x0001d244:    e0c3        ..      B        0x1d3ce ; am_util_stdio_vsprintf + 786
        0x0001d246:    e0c3        ..      B        0x1d3d0 ; am_util_stdio_vsprintf + 788
        0x0001d248:    e0f4        ..      B        0x1d434 ; am_util_stdio_vsprintf + 888
        0x0001d24a:    980e        ..      LDR      r0,[sp,#0x38]
        0x0001d24c:    6800        .h      LDR      r0,[r0,#0]
        0x0001d24e:    990e        ..      LDR      r1,[sp,#0x38]
        0x0001d250:    1d09        ..      ADDS     r1,r1,#4
        0x0001d252:    910e        ..      STR      r1,[sp,#0x38]
        0x0001d254:    2100        .!      MOVS     r1,#0
        0x0001d256:    4607        .F      MOV      r7,r0
        0x0001d258:    4688        .F      MOV      r8,r1
        0x0001d25a:    b19e        ..      CBZ      r6,0x1d284 ; am_util_stdio_vsprintf + 456
        0x0001d25c:    4638        8F      MOV      r0,r7
        0x0001d25e:    4641        AF      MOV      r1,r8
        0x0001d260:    f000fded    ....    BL       ndigits_in_hex ; 0x1de3e
        0x0001d264:    1a36        6.      SUBS     r6,r6,r0
        0x0001d266:    4632        2F      MOV      r2,r6
        0x0001d268:    4620         F      MOV      r0,r4
        0x0001d26a:    9904        ..      LDR      r1,[sp,#0x10]
        0x0001d26c:    f000ff77    ..w.    BL       padbuffer ; 0x1e15e
        0x0001d270:    4606        .F      MOV      r6,r0
        0x0001d272:    b11c        ..      CBZ      r4,0x1d27c ; am_util_stdio_vsprintf + 448
        0x0001d274:    4630        0F      MOV      r0,r6
        0x0001d276:    e002        ..      B        0x1d27e ; am_util_stdio_vsprintf + 450
        0x0001d278:    e043        C.      B        0x1d302 ; am_util_stdio_vsprintf + 582
        0x0001d27a:    e00e        ..      B        0x1d29a ; am_util_stdio_vsprintf + 478
        0x0001d27c:    2000        .       MOVS     r0,#0
        0x0001d27e:    4404        .D      ADD      r4,r4,r0
        0x0001d280:    44b1        .D      ADD      r9,r9,r6
        0x0001d282:    2600        .&      MOVS     r6,#0
        0x0001d284:    4622        "F      MOV      r2,r4
        0x0001d286:    4638        8F      MOV      r0,r7
        0x0001d288:    4641        AF      MOV      r1,r8
        0x0001d28a:    9b03        ..      LDR      r3,[sp,#0xc]
        0x0001d28c:    f001fb7e    ..~.    BL       uint64_to_hexstr ; 0x1e98c
        0x0001d290:    4682        .F      MOV      r10,r0
        0x0001d292:    b104        ..      CBZ      r4,0x1d296 ; am_util_stdio_vsprintf + 474
        0x0001d294:    4454        TD      ADD      r4,r4,r10
        0x0001d296:    44d1        .D      ADD      r9,r9,r10
        0x0001d298:    e0d3        ..      B        0x1d442 ; am_util_stdio_vsprintf + 902
        0x0001d29a:    9802        ..      LDR      r0,[sp,#8]
        0x0001d29c:    b158        X.      CBZ      r0,0x1d2b6 ; am_util_stdio_vsprintf + 506
        0x0001d29e:    980e        ..      LDR      r0,[sp,#0x38]
        0x0001d2a0:    1dc0        ..      ADDS     r0,r0,#7
        0x0001d2a2:    f0200007     ...    BIC      r0,r0,#7
        0x0001d2a6:    4601        .F      MOV      r1,r0
        0x0001d2a8:    900e        ..      STR      r0,[sp,#0x38]
        0x0001d2aa:    6800        .h      LDR      r0,[r0,#0]
        0x0001d2ac:    6849        Ih      LDR      r1,[r1,#4]
        0x0001d2ae:    9a0e        ..      LDR      r2,[sp,#0x38]
        0x0001d2b0:    3208        .2      ADDS     r2,r2,#8
        0x0001d2b2:    920e        ..      STR      r2,[sp,#0x38]
        0x0001d2b4:    e005        ..      B        0x1d2c2 ; am_util_stdio_vsprintf + 518
        0x0001d2b6:    980e        ..      LDR      r0,[sp,#0x38]
        0x0001d2b8:    6800        .h      LDR      r0,[r0,#0]
        0x0001d2ba:    990e        ..      LDR      r1,[sp,#0x38]
        0x0001d2bc:    1d09        ..      ADDS     r1,r1,#4
        0x0001d2be:    910e        ..      STR      r1,[sp,#0x38]
        0x0001d2c0:    2100        .!      MOVS     r1,#0
        0x0001d2c2:    4607        .F      MOV      r7,r0
        0x0001d2c4:    4688        .F      MOV      r8,r1
        0x0001d2c6:    b18e        ..      CBZ      r6,0x1d2ec ; am_util_stdio_vsprintf + 560
        0x0001d2c8:    4638        8F      MOV      r0,r7
        0x0001d2ca:    4641        AF      MOV      r1,r8
        0x0001d2cc:    f000fde3    ....    BL       ndigits_in_u64 ; 0x1de96
        0x0001d2d0:    1a36        6.      SUBS     r6,r6,r0
        0x0001d2d2:    4632        2F      MOV      r2,r6
        0x0001d2d4:    4620         F      MOV      r0,r4
        0x0001d2d6:    9904        ..      LDR      r1,[sp,#0x10]
        0x0001d2d8:    f000ff41    ..A.    BL       padbuffer ; 0x1e15e
        0x0001d2dc:    4606        .F      MOV      r6,r0
        0x0001d2de:    b10c        ..      CBZ      r4,0x1d2e4 ; am_util_stdio_vsprintf + 552
        0x0001d2e0:    4630        0F      MOV      r0,r6
        0x0001d2e2:    e000        ..      B        0x1d2e6 ; am_util_stdio_vsprintf + 554
        0x0001d2e4:    2000        .       MOVS     r0,#0
        0x0001d2e6:    4404        .D      ADD      r4,r4,r0
        0x0001d2e8:    44b1        .D      ADD      r9,r9,r6
        0x0001d2ea:    2600        .&      MOVS     r6,#0
        0x0001d2ec:    4622        "F      MOV      r2,r4
        0x0001d2ee:    4638        8F      MOV      r0,r7
        0x0001d2f0:    4641        AF      MOV      r1,r8
        0x0001d2f2:    f001fb90    ....    BL       uint64_to_str ; 0x1ea16
        0x0001d2f6:    4682        .F      MOV      r10,r0
        0x0001d2f8:    b104        ..      CBZ      r4,0x1d2fc ; am_util_stdio_vsprintf + 576
        0x0001d2fa:    4454        TD      ADD      r4,r4,r10
        0x0001d2fc:    44d1        .D      ADD      r9,r9,r10
        0x0001d2fe:    e0a0        ..      B        0x1d442 ; am_util_stdio_vsprintf + 902
        0x0001d300:    bf00        ..      NOP      
        0x0001d302:    9802        ..      LDR      r0,[sp,#8]
        0x0001d304:    b158        X.      CBZ      r0,0x1d31e ; am_util_stdio_vsprintf + 610
        0x0001d306:    980e        ..      LDR      r0,[sp,#0x38]
        0x0001d308:    1dc0        ..      ADDS     r0,r0,#7
        0x0001d30a:    f0200007     ...    BIC      r0,r0,#7
        0x0001d30e:    4601        .F      MOV      r1,r0
        0x0001d310:    900e        ..      STR      r0,[sp,#0x38]
        0x0001d312:    6800        .h      LDR      r0,[r0,#0]
        0x0001d314:    6849        Ih      LDR      r1,[r1,#4]
        0x0001d316:    9a0e        ..      LDR      r2,[sp,#0x38]
        0x0001d318:    3208        .2      ADDS     r2,r2,#8
        0x0001d31a:    920e        ..      STR      r2,[sp,#0x38]
        0x0001d31c:    e005        ..      B        0x1d32a ; am_util_stdio_vsprintf + 622
        0x0001d31e:    980e        ..      LDR      r0,[sp,#0x38]
        0x0001d320:    6800        .h      LDR      r0,[r0,#0]
        0x0001d322:    990e        ..      LDR      r1,[sp,#0x38]
        0x0001d324:    1d09        ..      ADDS     r1,r1,#4
        0x0001d326:    910e        ..      STR      r1,[sp,#0x38]
        0x0001d328:    17c1        ..      ASRS     r1,r0,#31
        0x0001d32a:    e9cd0108    ....    STRD     r0,r1,[sp,#0x20]
        0x0001d32e:    2300        .#      MOVS     r3,#0
        0x0001d330:    e9dd0108    ....    LDRD     r0,r1,[sp,#0x20]
        0x0001d334:    1ac0        ..      SUBS     r0,r0,r3
        0x0001d336:    4199        .A      SBCS     r1,r1,r3
        0x0001d338:    da08        ..      BGE      0x1d34c ; am_util_stdio_vsprintf + 656
        0x0001d33a:    2200        ."      MOVS     r2,#0
        0x0001d33c:    e9dd1008    ....    LDRD     r1,r0,[sp,#0x20]
        0x0001d340:    424f        OB      RSBS     r7,r1,#0
        0x0001d342:    eb620800    b...    SBC      r8,r2,r0
        0x0001d346:    2001        .       MOVS     r0,#1
        0x0001d348:    9001        ..      STR      r0,[sp,#4]
        0x0001d34a:    e003        ..      B        0x1d354 ; am_util_stdio_vsprintf + 664
        0x0001d34c:    e9dd7808    ...x    LDRD     r7,r8,[sp,#0x20]
        0x0001d350:    2000        .       MOVS     r0,#0
        0x0001d352:    9001        ..      STR      r0,[sp,#4]
        0x0001d354:    b34e        N.      CBZ      r6,0x1d3aa ; am_util_stdio_vsprintf + 750
        0x0001d356:    4638        8F      MOV      r0,r7
        0x0001d358:    4641        AF      MOV      r1,r8
        0x0001d35a:    f000fd8a    ....    BL       ndigits_in_i64 ; 0x1de72
        0x0001d35e:    1a36        6.      SUBS     r6,r6,r0
        0x0001d360:    9801        ..      LDR      r0,[sp,#4]
        0x0001d362:    b148        H.      CBZ      r0,0x1d378 ; am_util_stdio_vsprintf + 700
        0x0001d364:    1e76        v.      SUBS     r6,r6,#1
        0x0001d366:    9804        ..      LDR      r0,[sp,#0x10]
        0x0001d368:    2830        0(      CMP      r0,#0x30
        0x0001d36a:    d105        ..      BNE      0x1d378 ; am_util_stdio_vsprintf + 700
        0x0001d36c:    b114        ..      CBZ      r4,0x1d374 ; am_util_stdio_vsprintf + 696
        0x0001d36e:    202d        -       MOVS     r0,#0x2d
        0x0001d370:    f8040b01    ....    STRB     r0,[r4],#1
        0x0001d374:    f1090901    ....    ADD      r9,r9,#1
        0x0001d378:    4632        2F      MOV      r2,r6
        0x0001d37a:    4620         F      MOV      r0,r4
        0x0001d37c:    9904        ..      LDR      r1,[sp,#0x10]
        0x0001d37e:    f000feee    ....    BL       padbuffer ; 0x1e15e
        0x0001d382:    4606        .F      MOV      r6,r0
        0x0001d384:    b10c        ..      CBZ      r4,0x1d38a ; am_util_stdio_vsprintf + 718
        0x0001d386:    4630        0F      MOV      r0,r6
        0x0001d388:    e000        ..      B        0x1d38c ; am_util_stdio_vsprintf + 720
        0x0001d38a:    2000        .       MOVS     r0,#0
        0x0001d38c:    4404        .D      ADD      r4,r4,r0
        0x0001d38e:    44b1        .D      ADD      r9,r9,r6
        0x0001d390:    2600        .&      MOVS     r6,#0
        0x0001d392:    9801        ..      LDR      r0,[sp,#4]
        0x0001d394:    b188        ..      CBZ      r0,0x1d3ba ; am_util_stdio_vsprintf + 766
        0x0001d396:    9804        ..      LDR      r0,[sp,#0x10]
        0x0001d398:    2820         (      CMP      r0,#0x20
        0x0001d39a:    d10e        ..      BNE      0x1d3ba ; am_util_stdio_vsprintf + 766
        0x0001d39c:    b114        ..      CBZ      r4,0x1d3a4 ; am_util_stdio_vsprintf + 744
        0x0001d39e:    202d        -       MOVS     r0,#0x2d
        0x0001d3a0:    f8040b01    ....    STRB     r0,[r4],#1
        0x0001d3a4:    f1090901    ....    ADD      r9,r9,#1
        0x0001d3a8:    e007        ..      B        0x1d3ba ; am_util_stdio_vsprintf + 766
        0x0001d3aa:    9801        ..      LDR      r0,[sp,#4]
        0x0001d3ac:    b128        (.      CBZ      r0,0x1d3ba ; am_util_stdio_vsprintf + 766
        0x0001d3ae:    b114        ..      CBZ      r4,0x1d3b6 ; am_util_stdio_vsprintf + 762
        0x0001d3b0:    202d        -       MOVS     r0,#0x2d
        0x0001d3b2:    f8040b01    ....    STRB     r0,[r4],#1
        0x0001d3b6:    f1090901    ....    ADD      r9,r9,#1
        0x0001d3ba:    4622        "F      MOV      r2,r4
        0x0001d3bc:    4638        8F      MOV      r0,r7
        0x0001d3be:    4641        AF      MOV      r1,r8
        0x0001d3c0:    f001fb29    ..).    BL       uint64_to_str ; 0x1ea16
        0x0001d3c4:    4682        .F      MOV      r10,r0
        0x0001d3c6:    b104        ..      CBZ      r4,0x1d3ca ; am_util_stdio_vsprintf + 782
        0x0001d3c8:    4454        TD      ADD      r4,r4,r10
        0x0001d3ca:    44d1        .D      ADD      r9,r9,r10
        0x0001d3cc:    e039        9.      B        0x1d442 ; am_util_stdio_vsprintf + 902
        0x0001d3ce:    bf00        ..      NOP      
        0x0001d3d0:    b37c        |.      CBZ      r4,0x1d432 ; am_util_stdio_vsprintf + 886
        0x0001d3d2:    980e        ..      LDR      r0,[sp,#0x38]
        0x0001d3d4:    1dc0        ..      ADDS     r0,r0,#7
        0x0001d3d6:    f0200007     ...    BIC      r0,r0,#7
        0x0001d3da:    900e        ..      STR      r0,[sp,#0x38]
        0x0001d3dc:    ecb01b02    ....    VLDM     r0!,{d1}
        0x0001d3e0:    eeb00a41    ..A.    VMOV.F32 s0,s2
        0x0001d3e4:    eef00a61    ..a.    VMOV.F32 s1,s3
        0x0001d3e8:    900e        ..      STR      r0,[sp,#0x38]
        0x0001d3ea:    ec510b10    Q...    VMOV     r0,r1,d0
        0x0001d3ee:    f001fb95    ....    BL       __aeabi_d2f ; 0x1eb1c
        0x0001d3f2:    ee080a10    ....    VMOV     s16,r0
        0x0001d3f6:    2014        .       MOVS     r0,#0x14
        0x0001d3f8:    6020         `      STR      r0,[r4,#0]
        0x0001d3fa:    4620         F      MOV      r0,r4
        0x0001d3fc:    eeb00a48    ..H.    VMOV.F32 s0,s16
        0x0001d400:    9906        ..      LDR      r1,[sp,#0x18]
        0x0001d402:    f000fb4b    ..K.    BL       ftoa ; 0x1da9c
        0x0001d406:    4682        .F      MOV      r10,r0
        0x0001d408:    f1ba0f00    ....    CMP      r10,#0
        0x0001d40c:    da0e        ..      BGE      0x1d42c ; am_util_stdio_vsprintf + 880
        0x0001d40e:    f10a0101    ....    ADD      r1,r10,#1
        0x0001d412:    b909        ..      CBNZ     r1,0x1d418 ; am_util_stdio_vsprintf + 860
        0x0001d414:    4813        .H      LDR      r0,[pc,#76] ; [0x1d464] = 0x302e30
        0x0001d416:    e005        ..      B        0x1d424 ; am_util_stdio_vsprintf + 872
        0x0001d418:    f10a0102    ....    ADD      r1,r10,#2
        0x0001d41c:    b909        ..      CBNZ     r1,0x1d422 ; am_util_stdio_vsprintf + 870
        0x0001d41e:    4812        .H      LDR      r0,[pc,#72] ; [0x1d468] = 0x232e23
        0x0001d420:    e000        ..      B        0x1d424 ; am_util_stdio_vsprintf + 872
        0x0001d422:    4812        .H      LDR      r0,[pc,#72] ; [0x1d46c] = 0x3f2e3f
        0x0001d424:    6020         `      STR      r0,[r4,#0]
        0x0001d426:    f04f0a03    O...    MOV      r10,#3
        0x0001d42a:    bf00        ..      NOP      
        0x0001d42c:    44d1        .D      ADD      r9,r9,r10
        0x0001d42e:    4454        TD      ADD      r4,r4,r10
        0x0001d430:    bf00        ..      NOP      
        0x0001d432:    e006        ..      B        0x1d442 ; am_util_stdio_vsprintf + 902
        0x0001d434:    b114        ..      CBZ      r4,0x1d43c ; am_util_stdio_vsprintf + 896
        0x0001d436:    7828        (x      LDRB     r0,[r5,#0]
        0x0001d438:    f8040b01    ....    STRB     r0,[r4],#1
        0x0001d43c:    f1090901    ....    ADD      r9,r9,#1
        0x0001d440:    bf00        ..      NOP      
        0x0001d442:    bf00        ..      NOP      
        0x0001d444:    1c6d        m.      ADDS     r5,r5,#1
        0x0001d446:    bf00        ..      NOP      
        0x0001d448:    7828        (x      LDRB     r0,[r5,#0]
        0x0001d44a:    2800        .(      CMP      r0,#0
        0x0001d44c:    f47fae42    ..B.    BNE      0x1d0d4 ; am_util_stdio_vsprintf + 24
        0x0001d450:    b104        ..      CBZ      r4,0x1d454 ; am_util_stdio_vsprintf + 920
        0x0001d452:    7020         p      STRB     r0,[r4,#0]
        0x0001d454:    4648        HF      MOV      r0,r9
        0x0001d456:    b00a        ..      ADD      sp,sp,#0x28
        0x0001d458:    ecbd8b02    ....    VPOP     {d8}
        0x0001d45c:    e8bd8ffe    ....    POP      {r1-r11,pc}
    $d
        0x0001d460:    1000009c    ....    DCD    268435612
        0x0001d464:    00302e30    0.0.    DCD    3157552
        0x0001d468:    00232e23    #.#.    DCD    2305571
        0x0001d46c:    003f2e3f    ?.?.    DCD    4140607
    $t
    i.am_valid_sp
    am_valid_sp
        0x0001d470:    4601        .F      MOV      r1,r0
        0x0001d472:    f1b15f80    ..._    CMP      r1,#0x10000000
        0x0001d476:    d304        ..      BCC      0x1d482 ; am_valid_sp + 18
        0x0001d478:    4803        .H      LDR      r0,[pc,#12] ; [0x1d488] = 0x10160000
        0x0001d47a:    4281        .B      CMP      r1,r0
        0x0001d47c:    d201        ..      BCS      0x1d482 ; am_valid_sp + 18
        0x0001d47e:    2001        .       MOVS     r0,#1
        0x0001d480:    4770        pG      BX       lr
        0x0001d482:    2000        .       MOVS     r0,#0
        0x0001d484:    e7fc        ..      B        0x1d480 ; am_valid_sp + 16
    $d
        0x0001d486:    0000        ..      DCW    0
        0x0001d488:    10160000    ....    DCD    269877248
    $t
    i.apollo4_mcu_ble_enter_sleep
    apollo4_mcu_ble_enter_sleep
        0x0001d48c:    b086        ..      SUB      sp,sp,#0x18
        0x0001d48e:    2211        ."      MOVS     r2,#0x11
        0x0001d490:    4946        FI      LDR      r1,[pc,#280] ; [0x1d5ac] = 0x10000015
        0x0001d492:    4847        GH      LDR      r0,[pc,#284] ; [0x1d5b0] = 0x10000084
        0x0001d494:    6800        .h      LDR      r0,[r0,#0]
        0x0001d496:    f7fffd03    ....    BL       am_util_ble_nvds_set ; 0x1cea0
        0x0001d49a:    4946        FI      LDR      r1,[pc,#280] ; [0x1d5b4] = 0x1ed30
        0x0001d49c:    c903        ..      LDM      r1,{r0,r1}
        0x0001d49e:    e9cd0104    ....    STRD     r0,r1,[sp,#0x10]
        0x0001d4a2:    2000        .       MOVS     r0,#0
        0x0001d4a4:    9002        ..      STR      r0,[sp,#8]
        0x0001d4a6:    9003        ..      STR      r0,[sp,#0xc]
        0x0001d4a8:    a804        ..      ADD      r0,sp,#0x10
        0x0001d4aa:    f7fefdcd    ....    BL       am_hal_pwrctrl_mcu_memory_config ; 0x1c048
        0x0001d4ae:    a802        ..      ADD      r0,sp,#8
        0x0001d4b0:    f7feff90    ....    BL       am_hal_pwrctrl_sram_config ; 0x1c3d4
        0x0001d4b4:    4840        @H      LDR      r0,[pc,#256] ; [0x1d5b8] = 0x1ee24
        0x0001d4b6:    6800        .h      LDR      r0,[r0,#0]
        0x0001d4b8:    9001        ..      STR      r0,[sp,#4]
        0x0001d4ba:    2034        4       MOVS     r0,#0x34
        0x0001d4bc:    9901        ..      LDR      r1,[sp,#4]
        0x0001d4be:    f7fdf903    ....    BL       am_hal_gpio_pinconfig ; 0x1a6c8
        0x0001d4c2:    bf00        ..      NOP      
        0x0001d4c4:    483a        :H      LDR      r0,[pc,#232] ; [0x1d5b0] = 0x10000084
        0x0001d4c6:    6800        .h      LDR      r0,[r0,#0]
        0x0001d4c8:    f7fbfda6    ....    BL       am_devices_cooper_clkreq_read ; 0x19018
        0x0001d4cc:    2800        .(      CMP      r0,#0
        0x0001d4ce:    d1f9        ..      BNE      0x1d4c4 ; apollo4_mcu_ble_enter_sleep + 56
        0x0001d4d0:    f7fbfbee    ....    BL       am_bsp_itm_printf_disable ; 0x18cb0
        0x0001d4d4:    200a        .       MOVS     r0,#0xa
        0x0001d4d6:    f7fffd4d    ..M.    BL       am_util_delay_ms ; 0x1cf74
        0x0001d4da:    bf00        ..      NOP      
        0x0001d4dc:    4834        4H      LDR      r0,[pc,#208] ; [0x1d5b0] = 0x10000084
        0x0001d4de:    6800        .h      LDR      r0,[r0,#0]
        0x0001d4e0:    f7fbfd9a    ....    BL       am_devices_cooper_clkreq_read ; 0x19018
        0x0001d4e4:    2800        .(      CMP      r0,#0
        0x0001d4e6:    d1f9        ..      BNE      0x1d4dc ; apollo4_mcu_ble_enter_sleep + 80
        0x0001d4e8:    2100        .!      MOVS     r1,#0
        0x0001d4ea:    2001        .       MOVS     r0,#1
        0x0001d4ec:    f7fef9e6    ....    BL       am_hal_mcuctrl_control ; 0x1b8bc
        0x0001d4f0:    4932        2I      LDR      r1,[pc,#200] ; [0x1d5bc] = 0x1ee18
        0x0001d4f2:    2004        .       MOVS     r0,#4
        0x0001d4f4:    f7fef9e2    ....    BL       am_hal_mcuctrl_control ; 0x1b8bc
        0x0001d4f8:    2012        .       MOVS     r0,#0x12
        0x0001d4fa:    f7fefe7b    ..{.    BL       am_hal_pwrctrl_periph_disable ; 0x1c1f4
        0x0001d4fe:    2100        .!      MOVS     r1,#0
        0x0001d500:    2003        .       MOVS     r0,#3
        0x0001d502:    f7fefc2b    ..+.    BL       am_hal_pwrctrl_control ; 0x1bd5c
        0x0001d506:    2100        .!      MOVS     r1,#0
        0x0001d508:    2002        .       MOVS     r0,#2
        0x0001d50a:    f7fefc27    ..'.    BL       am_hal_pwrctrl_control ; 0x1bd5c
        0x0001d50e:    200a        .       MOVS     r0,#0xa
        0x0001d510:    f7fffd30    ..0.    BL       am_util_delay_ms ; 0x1cf74
        0x0001d514:    482a        *H      LDR      r0,[pc,#168] ; [0x1d5c0] = 0x1ee20
        0x0001d516:    6800        .h      LDR      r0,[r0,#0]
        0x0001d518:    9001        ..      STR      r0,[sp,#4]
        0x0001d51a:    200d        .       MOVS     r0,#0xd
        0x0001d51c:    9901        ..      LDR      r1,[sp,#4]
        0x0001d51e:    f7fdf8d3    ....    BL       am_hal_gpio_pinconfig ; 0x1a6c8
        0x0001d522:    f7faff1f    ....    BL       am_hal_interrupt_master_disable ; 0x18364
        0x0001d526:    9001        ..      STR      r0,[sp,#4]
        0x0001d528:    f44f5000    O..P    MOV      r0,#0x2000
        0x0001d52c:    4925        %I      LDR      r1,[pc,#148] ; [0x1d5c4] = 0x40010234
        0x0001d52e:    6008        .`      STR      r0,[r1,#0]
        0x0001d530:    9801        ..      LDR      r0,[sp,#4]
        0x0001d532:    f7faff1b    ....    BL       am_hal_interrupt_master_set ; 0x1836c
        0x0001d536:    4822        "H      LDR      r0,[pc,#136] ; [0x1d5c0] = 0x1ee20
        0x0001d538:    6800        .h      LDR      r0,[r0,#0]
        0x0001d53a:    9001        ..      STR      r0,[sp,#4]
        0x0001d53c:    200b        .       MOVS     r0,#0xb
        0x0001d53e:    9901        ..      LDR      r1,[sp,#4]
        0x0001d540:    f7fdf8c2    ....    BL       am_hal_gpio_pinconfig ; 0x1a6c8
        0x0001d544:    f7faff0e    ....    BL       am_hal_interrupt_master_disable ; 0x18364
        0x0001d548:    9001        ..      STR      r0,[sp,#4]
        0x0001d54a:    f44f6000    O..`    MOV      r0,#0x800
        0x0001d54e:    491e        .I      LDR      r1,[pc,#120] ; [0x1d5c8] = 0x40010000
        0x0001d550:    f8c10234    ..4.    STR      r0,[r1,#0x234]
        0x0001d554:    9801        ..      LDR      r0,[sp,#4]
        0x0001d556:    f7faff09    ....    BL       am_hal_interrupt_master_set ; 0x1836c
        0x0001d55a:    4819        .H      LDR      r0,[pc,#100] ; [0x1d5c0] = 0x1ee20
        0x0001d55c:    6800        .h      LDR      r0,[r0,#0]
        0x0001d55e:    9001        ..      STR      r0,[sp,#4]
        0x0001d560:    2036        6       MOVS     r0,#0x36
        0x0001d562:    9901        ..      LDR      r1,[sp,#4]
        0x0001d564:    f7fdf8b0    ....    BL       am_hal_gpio_pinconfig ; 0x1a6c8
        0x0001d568:    f7fafefc    ....    BL       am_hal_interrupt_master_disable ; 0x18364
        0x0001d56c:    9001        ..      STR      r0,[sp,#4]
        0x0001d56e:    f44f0180    O...    MOV      r1,#0x400000
        0x0001d572:    4814        .H      LDR      r0,[pc,#80] ; [0x1d5c4] = 0x40010234
        0x0001d574:    380c        .8      SUBS     r0,r0,#0xc
        0x0001d576:    6001        .`      STR      r1,[r0,#0]
        0x0001d578:    9801        ..      LDR      r0,[sp,#4]
        0x0001d57a:    f7fafef7    ....    BL       am_hal_interrupt_master_set ; 0x1836c
        0x0001d57e:    4810        .H      LDR      r0,[pc,#64] ; [0x1d5c0] = 0x1ee20
        0x0001d580:    6800        .h      LDR      r0,[r0,#0]
        0x0001d582:    9001        ..      STR      r0,[sp,#4]
        0x0001d584:    2037        7       MOVS     r0,#0x37
        0x0001d586:    9901        ..      LDR      r1,[sp,#4]
        0x0001d588:    f7fdf89e    ....    BL       am_hal_gpio_pinconfig ; 0x1a6c8
        0x0001d58c:    f7fafeea    ....    BL       am_hal_interrupt_master_disable ; 0x18364
        0x0001d590:    9001        ..      STR      r0,[sp,#4]
        0x0001d592:    f44f0100    O...    MOV      r1,#0x800000
        0x0001d596:    480b        .H      LDR      r0,[pc,#44] ; [0x1d5c4] = 0x40010234
        0x0001d598:    380c        .8      SUBS     r0,r0,#0xc
        0x0001d59a:    6001        .`      STR      r1,[r0,#0]
        0x0001d59c:    9801        ..      LDR      r0,[sp,#4]
        0x0001d59e:    f7fafee5    ....    BL       am_hal_interrupt_master_set ; 0x1836c
        0x0001d5a2:    e002        ..      B        0x1d5aa ; apollo4_mcu_ble_enter_sleep + 286
        0x0001d5a4:    2001        .       MOVS     r0,#1
        0x0001d5a6:    f7feffd7    ....    BL       am_hal_sysctrl_sleep ; 0x1c558
        0x0001d5aa:    e7fb        ..      B        0x1d5a4 ; apollo4_mcu_ble_enter_sleep + 280
    $d
        0x0001d5ac:    10000015    ....    DCD    268435477
        0x0001d5b0:    10000084    ....    DCD    268435588
        0x0001d5b4:    0001ed30    0...    DCD    126256
        0x0001d5b8:    0001ee24    $...    DCD    126500
        0x0001d5bc:    0001ee18    ....    DCD    126488
        0x0001d5c0:    0001ee20     ...    DCD    126496
        0x0001d5c4:    40010234    4..@    DCD    1073807924
        0x0001d5c8:    40010000    ...@    DCD    1073807360
    $t
    i.buck_ldo_override_init
    buck_ldo_override_init
        0x0001d5cc:    b570        p.      PUSH     {r4-r6,lr}
        0x0001d5ce:    4c27        'L      LDR      r4,[pc,#156] ; [0x1d66c] = 0x40020000
        0x0001d5d0:    2600        .&      MOVS     r6,#0
        0x0001d5d2:    6e20         n      LDR      r0,[r4,#0x60]
        0x0001d5d4:    f4403000    @..0    ORR      r0,r0,#0x20000
        0x0001d5d8:    6620         f      STR      r0,[r4,#0x60]
        0x0001d5da:    6e20         n      LDR      r0,[r4,#0x60]
        0x0001d5dc:    f4402080    @..     ORR      r0,r0,#0x40000
        0x0001d5e0:    6620         f      STR      r0,[r4,#0x60]
        0x0001d5e2:    6e20         n      LDR      r0,[r4,#0x60]
        0x0001d5e4:    f4402000    @..     ORR      r0,r0,#0x80000
        0x0001d5e8:    6620         f      STR      r0,[r4,#0x60]
        0x0001d5ea:    6e20         n      LDR      r0,[r4,#0x60]
        0x0001d5ec:    f4403080    @..0    ORR      r0,r0,#0x10000
        0x0001d5f0:    6620         f      STR      r0,[r4,#0x60]
        0x0001d5f2:    4d1f        .M      LDR      r5,[pc,#124] ; [0x1d670] = 0x100000e0
        0x0001d5f4:    6868        hh      LDR      r0,[r5,#4]
        0x0001d5f6:    f1b03fff    ...?    CMP      r0,#0xffffffff
        0x0001d5fa:    d10c        ..      BNE      0x1d616 ; buck_ldo_override_init + 74
        0x0001d5fc:    2201        ."      MOVS     r2,#1
        0x0001d5fe:    1d2b        +.      ADDS     r3,r5,#4
        0x0001d600:    f24041c4    @..A    MOV      r1,#0x4c4
        0x0001d604:    4610        .F      MOV      r0,r2
        0x0001d606:    f7fefb71    ..q.    BL       am_hal_mram_info_read ; 0x1bcec
        0x0001d60a:    b918        ..      CBNZ     r0,0x1d614 ; buck_ldo_override_init + 72
        0x0001d60c:    6868        hh      LDR      r0,[r5,#4]
        0x0001d60e:    f1b03fff    ...?    CMP      r0,#0xffffffff
        0x0001d612:    d100        ..      BNE      0x1d616 ; buck_ldo_override_init + 74
        0x0001d614:    606e        n`      STR      r6,[r5,#4]
        0x0001d616:    6868        hh      LDR      r0,[r5,#4]
        0x0001d618:    2802        .(      CMP      r0,#2
        0x0001d61a:    d20e        ..      BCS      0x1d63a ; buck_ldo_override_init + 110
        0x0001d61c:    f8d40080    ....    LDR      r0,[r4,#0x80]
        0x0001d620:    f3c00009    ....    UBFX     r0,r0,#0,#10
        0x0001d624:    2806        .(      CMP      r0,#6
        0x0001d626:    d908        ..      BLS      0x1d63a ; buck_ldo_override_init + 110
        0x0001d628:    f8d40080    ....    LDR      r0,[r4,#0x80]
        0x0001d62c:    1f81        ..      SUBS     r1,r0,#6
        0x0001d62e:    f8d40080    ....    LDR      r0,[r4,#0x80]
        0x0001d632:    f3610009    a...    BFI      r0,r1,#0,#10
        0x0001d636:    f8c40080    ....    STR      r0,[r4,#0x80]
        0x0001d63a:    6e20         n      LDR      r0,[r4,#0x60]
        0x0001d63c:    f0200010     ...    BIC      r0,r0,#0x10
        0x0001d640:    6620         f      STR      r0,[r4,#0x60]
        0x0001d642:    6e20         n      LDR      r0,[r4,#0x60]
        0x0001d644:    f040000e    @...    ORR      r0,r0,#0xe
        0x0001d648:    6620         f      STR      r0,[r4,#0x60]
        0x0001d64a:    6e20         n      LDR      r0,[r4,#0x60]
        0x0001d64c:    f0400001    @...    ORR      r0,r0,#1
        0x0001d650:    6620         f      STR      r0,[r4,#0x60]
        0x0001d652:    6e20         n      LDR      r0,[r4,#0x60]
        0x0001d654:    f4207000     ..p    BIC      r0,r0,#0x200
        0x0001d658:    6620         f      STR      r0,[r4,#0x60]
        0x0001d65a:    6e20         n      LDR      r0,[r4,#0x60]
        0x0001d65c:    f44070e0    @..p    ORR      r0,r0,#0x1c0
        0x0001d660:    6620         f      STR      r0,[r4,#0x60]
        0x0001d662:    6e20         n      LDR      r0,[r4,#0x60]
        0x0001d664:    f0400020    @. .    ORR      r0,r0,#0x20
        0x0001d668:    6620         f      STR      r0,[r4,#0x60]
        0x0001d66a:    bd70        p.      POP      {r4-r6,pc}
    $d
        0x0001d66c:    40020000    ...@    DCD    1073872896
        0x0001d670:    100000e0    ....    DCD    268435680
    $t
    i.buck_ldo_update_override
    buck_ldo_update_override
        0x0001d674:    4906        .I      LDR      r1,[pc,#24] ; [0x1d690] = 0x40020000
        0x0001d676:    6e0a        .n      LDR      r2,[r1,#0x60]
        0x0001d678:    f3604210    `..B    BFI      r2,r0,#16,#1
        0x0001d67c:    660a        .f      STR      r2,[r1,#0x60]
        0x0001d67e:    6e0a        .n      LDR      r2,[r1,#0x60]
        0x0001d680:    f3600200    `...    BFI      r2,r0,#0,#1
        0x0001d684:    660a        .f      STR      r2,[r1,#0x60]
        0x0001d686:    6e0a        .n      LDR      r2,[r1,#0x60]
        0x0001d688:    f3601245    `.E.    BFI      r2,r0,#5,#1
        0x0001d68c:    660a        .f      STR      r2,[r1,#0x60]
        0x0001d68e:    4770        pG      BX       lr
    $d
        0x0001d690:    40020000    ...@    DCD    1073872896
    $t
    i.build_info0_patch
    build_info0_patch
        0x0001d694:    e92d47f0    -..G    PUSH     {r4-r10,lr}
        0x0001d698:    4604        .F      MOV      r4,r0
        0x0001d69a:    460f        .F      MOV      r7,r1
        0x0001d69c:    4616        .F      MOV      r6,r2
        0x0001d69e:    f04f0a00    O...    MOV      r10,#0
        0x0001d6a2:    2f40        @/      CMP      r7,#0x40
        0x0001d6a4:    d836        6.      BHI      0x1d714 ; build_info0_patch + 128
        0x0001d6a6:    b37c        |.      CBZ      r4,0x1d708 ; build_info0_patch + 116
        0x0001d6a8:    b376        v.      CBZ      r6,0x1d708 ; build_info0_patch + 116
        0x0001d6aa:    f44f71c0    O..q    MOV      r1,#0x180
        0x0001d6ae:    4620         F      MOV      r0,r4
        0x0001d6b0:    f7faff3d    ..=.    BL       __aeabi_memclr4 ; 0x1852e
        0x0001d6b4:    22ff        ."      MOVS     r2,#0xff
        0x0001d6b6:    1c51        Q.      ADDS     r1,r2,#1
        0x0001d6b8:    f104007c    ..|.    ADD      r0,r4,#0x7c
        0x0001d6bc:    f7faff2f    ../.    BL       __aeabi_memset ; 0x1851e
        0x0001d6c0:    4815        .H      LDR      r0,[pc,#84] ; [0x1d718] = 0xa500180
        0x0001d6c2:    6020         `      STR      r0,[r4,#0]
        0x0001d6c4:    2100        .!      MOVS     r1,#0
        0x0001d6c6:    e021        !.      B        0x1d70c ; build_info0_patch + 120
        0x0001d6c8:    f8565031    V.1P    LDR      r5,[r6,r1,LSL #3]
        0x0001d6cc:    2d40        @-      CMP      r5,#0x40
        0x0001d6ce:    d218        ..      BCS      0x1d702 ; build_info0_patch + 110
        0x0001d6d0:    ea4f1815    O...    LSR      r8,r5,#4
        0x0001d6d4:    f005090f    ....    AND      r9,r5,#0xf
        0x0001d6d8:    f1040068    ..h.    ADD      r0,r4,#0x68
        0x0001d6dc:    f8500028    P.(.    LDR      r0,[r0,r8,LSL #2]
        0x0001d6e0:    ea4f0349    O.I.    LSL      r3,r9,#1
        0x0001d6e4:    2203        ."      MOVS     r2,#3
        0x0001d6e6:    409a        .@      LSLS     r2,r2,r3
        0x0001d6e8:    4310        .C      ORRS     r0,r0,r2
        0x0001d6ea:    f1040268    ..h.    ADD      r2,r4,#0x68
        0x0001d6ee:    f8420028    B.(.    STR      r0,[r2,r8,LSL #2]
        0x0001d6f2:    eb0600c1    ....    ADD      r0,r6,r1,LSL #3
        0x0001d6f6:    6842        Bh      LDR      r2,[r0,#4]
        0x0001d6f8:    f104007c    ..|.    ADD      r0,r4,#0x7c
        0x0001d6fc:    f8402025    @.%     STR      r2,[r0,r5,LSL #2]
        0x0001d700:    e003        ..      B        0x1d70a ; build_info0_patch + 118
        0x0001d702:    4650        PF      MOV      r0,r10
        0x0001d704:    e8bd87f0    ....    POP      {r4-r10,pc}
        0x0001d708:    e004        ..      B        0x1d714 ; build_info0_patch + 128
        0x0001d70a:    1c49        I.      ADDS     r1,r1,#1
        0x0001d70c:    42b9        .B      CMP      r1,r7
        0x0001d70e:    d3db        ..      BCC      0x1d6c8 ; build_info0_patch + 52
        0x0001d710:    f04f0a01    O...    MOV      r10,#1
        0x0001d714:    4650        PF      MOV      r0,r10
        0x0001d716:    e7f5        ..      B        0x1d704 ; build_info0_patch + 112
    $d
        0x0001d718:    0a500180    ..P.    DCD    173015424
    $t
    i.clkreq_interrupt_init
    clkreq_interrupt_init
        0x0001d71c:    b51c        ..      PUSH     {r2-r4,lr}
        0x0001d71e:    4813        .H      LDR      r0,[pc,#76] ; [0x1d76c] = 0x1ee24
        0x0001d720:    6800        .h      LDR      r0,[r0,#0]
        0x0001d722:    9000        ..      STR      r0,[sp,#0]
        0x0001d724:    2034        4       MOVS     r0,#0x34
        0x0001d726:    9900        ..      LDR      r1,[sp,#0]
        0x0001d728:    f7fcffce    ....    BL       am_hal_gpio_pinconfig ; 0x1a6c8
        0x0001d72c:    2034        4       MOVS     r0,#0x34
        0x0001d72e:    9001        ..      STR      r0,[sp,#4]
        0x0001d730:    2300        .#      MOVS     r3,#0
        0x0001d732:    4a0f        .J      LDR      r2,[pc,#60] ; [0x1d770] = 0x1863d
        0x0001d734:    4618        .F      MOV      r0,r3
        0x0001d736:    9901        ..      LDR      r1,[sp,#4]
        0x0001d738:    f7fcff64    ..d.    BL       am_hal_gpio_interrupt_register ; 0x1a604
        0x0001d73c:    aa01        ..      ADD      r2,sp,#4
        0x0001d73e:    2101        .!      MOVS     r1,#1
        0x0001d740:    2000        .       MOVS     r0,#0
        0x0001d742:    f7fcfe55    ..U.    BL       am_hal_gpio_interrupt_control ; 0x1a3f0
        0x0001d746:    2039        9       MOVS     r0,#0x39
        0x0001d748:    2800        .(      CMP      r0,#0
        0x0001d74a:    db0d        ..      BLT      0x1d768 ; clkreq_interrupt_init + 76
        0x0001d74c:    bf00        ..      NOP      
        0x0001d74e:    bf00        ..      NOP      
        0x0001d750:    f000021f    ....    AND      r2,r0,#0x1f
        0x0001d754:    2101        .!      MOVS     r1,#1
        0x0001d756:    4091        .@      LSLS     r1,r1,r2
        0x0001d758:    0942        B.      LSRS     r2,r0,#5
        0x0001d75a:    0092        ..      LSLS     r2,r2,#2
        0x0001d75c:    f10222e0    ..."    ADD      r2,r2,#0xe000e000
        0x0001d760:    f8c21100    ....    STR      r1,[r2,#0x100]
        0x0001d764:    bf00        ..      NOP      
        0x0001d766:    bf00        ..      NOP      
        0x0001d768:    bf00        ..      NOP      
        0x0001d76a:    bd1c        ..      POP      {r2-r4,pc}
    $d
        0x0001d76c:    0001ee24    $...    DCD    126500
        0x0001d770:    0001863d    =...    DCD    99901
    $t
    i.cooper_spi_init
    cooper_spi_init
        0x0001d774:    b510        ..      PUSH     {r4,lr}
        0x0001d776:    f000fd03    ....    BL       running_done_gpio_init ; 0x1e180
        0x0001d77a:    2100        .!      MOVS     r1,#0
        0x0001d77c:    2001        .       MOVS     r0,#1
        0x0001d77e:    f000fd19    ....    BL       running_done_gpio_set ; 0x1e1b4
        0x0001d782:    4810        .H      LDR      r0,[pc,#64] ; [0x1d7c4] = 0x10000a00
        0x0001d784:    4910        .I      LDR      r1,[pc,#64] ; [0x1d7c8] = 0x10000064
        0x0001d786:    6008        .`      STR      r0,[r1,#0]
        0x0001d788:    f44f6000    O..`    MOV      r0,#0x800
        0x0001d78c:    6048        H`      STR      r0,[r1,#4]
        0x0001d78e:    4b0f        .K      LDR      r3,[pc,#60] ; [0x1d7cc] = 0x10000088
        0x0001d790:    4a0f        .J      LDR      r2,[pc,#60] ; [0x1d7d0] = 0x10000084
        0x0001d792:    2004        .       MOVS     r0,#4
        0x0001d794:    f7fbfcc0    ....    BL       am_devices_cooper_init ; 0x19118
        0x0001d798:    4604        .F      MOV      r4,r0
        0x0001d79a:    b124        $.      CBZ      r4,0x1d7a6 ; cooper_spi_init + 50
        0x0001d79c:    2100        .!      MOVS     r1,#0
        0x0001d79e:    4608        .F      MOV      r0,r1
        0x0001d7a0:    f000fd08    ....    BL       running_done_gpio_set ; 0x1e1b4
        0x0001d7a4:    bd10        ..      POP      {r4,pc}
        0x0001d7a6:    f001f8a9    ....    BL       set_bd_address ; 0x1e8fc
        0x0001d7aa:    2211        ."      MOVS     r2,#0x11
        0x0001d7ac:    4909        .I      LDR      r1,[pc,#36] ; [0x1d7d4] = 0x10000026
        0x0001d7ae:    4808        .H      LDR      r0,[pc,#32] ; [0x1d7d0] = 0x10000084
        0x0001d7b0:    6800        .h      LDR      r0,[r0,#0]
        0x0001d7b2:    f7fffb75    ..u.    BL       am_util_ble_nvds_set ; 0x1cea0
        0x0001d7b6:    2101        .!      MOVS     r1,#1
        0x0001d7b8:    2000        .       MOVS     r0,#0
        0x0001d7ba:    f000fcfb    ....    BL       running_done_gpio_set ; 0x1e1b4
        0x0001d7be:    bf00        ..      NOP      
        0x0001d7c0:    e7f0        ..      B        0x1d7a4 ; cooper_spi_init + 48
    $d
        0x0001d7c2:    0000        ..      DCW    0
        0x0001d7c4:    10000a00    ....    DCD    268438016
        0x0001d7c8:    10000064    d...    DCD    268435556
        0x0001d7cc:    10000088    ....    DCD    268435592
        0x0001d7d0:    10000084    ....    DCD    268435588
        0x0001d7d4:    10000026    &...    DCD    268435494
    $t
    i.copy_words
    copy_words
        0x0001d7d8:    b430        0.      PUSH     {r4,r5}
        0x0001d7da:    2301        .#      MOVS     r3,#1
        0x0001d7dc:    f05f0403    _...    MOVS.W   r4,#3
        0x0001d7e0:    f1a20c01    ....    SUB      r12,r2,#1
        0x0001d7e4:    f851502c    Q.,P    LDR      r5,[r1,r12,LSL #2]
        0x0001d7e8:    f840502c    @.,P    STR      r5,[r0,r12,LSL #2]
        0x0001d7ec:    1e92        ..      SUBS     r2,r2,#2
        0x0001d7ee:    f851c022    Q.".    LDR      r12,[r1,r2,LSL #2]
        0x0001d7f2:    f840c022    @.".    STR      r12,[r0,r2,LSL #2]
        0x0001d7f6:    1c9b        ..      ADDS     r3,r3,#2
        0x0001d7f8:    42a3        .B      CMP      r3,r4
        0x0001d7fa:    dbf1        ..      BLT      0x1d7e0 ; copy_words + 8
        0x0001d7fc:    bc30        0.      POP      {r4,r5}
        0x0001d7fe:    4770        pG      BX       lr
    i.crypto_boost_trims
    crypto_boost_trims
        0x0001d800:    b5f8        ..      PUSH     {r3-r7,lr}
        0x0001d802:    4f29        )O      LDR      r7,[pc,#164] ; [0x1d8a8] = 0x100000e0
        0x0001d804:    4606        .F      MOV      r6,r0
        0x0001d806:    460c        .F      MOV      r4,r1
        0x0001d808:    78b8        .x      LDRB     r0,[r7,#2]
        0x0001d80a:    ea460100    F...    ORR      r1,r6,r0
        0x0001d80e:    4030        0@      ANDS     r0,r0,r6
        0x0001d810:    ea310000    1...    BICS     r0,r1,r0
        0x0001d814:    bf08        ..      IT       EQ
        0x0001d816:    bdf8        ..      POPEQ    {r3-r7,pc}
        0x0001d818:    f7fafda4    ....    BL       am_hal_interrupt_master_disable ; 0x18364
        0x0001d81c:    9000        ..      STR      r0,[sp,#0]
        0x0001d81e:    70be        .p      STRB     r6,[r7,#2]
        0x0001d820:    6a78        xj      LDR      r0,[r7,#0x24]
        0x0001d822:    2e00        ..      CMP      r6,#0
        0x0001d824:    bf0c        ..      ITE      EQ
        0x0001d826:    1b05        ..      SUBEQ    r5,r0,r4
        0x0001d828:    1905        ..      ADDNE    r5,r0,r4
        0x0001d82a:    627d        }b      STR      r5,[r7,#0x24]
        0x0001d82c:    2d00        .-      CMP      r5,#0
        0x0001d82e:    bfb8        ..      IT       LT
        0x0001d830:    2500        .%      MOVLT    r5,#0
        0x0001d832:    db02        ..      BLT      0x1d83a ; crypto_boost_trims + 58
        0x0001d834:    2d3f        ?-      CMP      r5,#0x3f
        0x0001d836:    bf88        ..      IT       HI
        0x0001d838:    253f        ?%      MOVHI    r5,#0x3f
        0x0001d83a:    2e00        ..      CMP      r6,#0
        0x0001d83c:    6ab8        .j      LDR      r0,[r7,#0x28]
        0x0001d83e:    bf14        ..      ITE      NE
        0x0001d840:    4404        .D      ADDNE    r4,r0
        0x0001d842:    1b04        ..      SUBEQ    r4,r0,r4
        0x0001d844:    62bc        .b      STR      r4,[r7,#0x28]
        0x0001d846:    2c00        .,      CMP      r4,#0
        0x0001d848:    bfb8        ..      IT       LT
        0x0001d84a:    2400        .$      MOVLT    r4,#0
        0x0001d84c:    db02        ..      BLT      0x1d854 ; crypto_boost_trims + 84
        0x0001d84e:    2c3f        ?,      CMP      r4,#0x3f
        0x0001d850:    bf88        ..      IT       HI
        0x0001d852:    243f        ?$      MOVHI    r4,#0x3f
        0x0001d854:    4f15        .O      LDR      r7,[pc,#84] ; [0x1d8ac] = 0x40020000
        0x0001d856:    b17e        ~.      CBZ      r6,0x1d878 ; crypto_boost_trims + 120
        0x0001d858:    f8d7036c    ..l.    LDR      r0,[r7,#0x36c]
        0x0001d85c:    f3655019    e..P    BFI      r0,r5,#20,#6
        0x0001d860:    f8c7036c    ..l.    STR      r0,[r7,#0x36c]
        0x0001d864:    2014        .       MOVS     r0,#0x14
        0x0001d866:    f7fcfd27    ..'.    BL       am_hal_delay_us ; 0x1a2b8
        0x0001d86a:    f8d70088    ....    LDR      r0,[r7,#0x88]
        0x0001d86e:    f3640005    d...    BFI      r0,r4,#0,#6
        0x0001d872:    f8c70088    ....    STR      r0,[r7,#0x88]
        0x0001d876:    e00e        ..      B        0x1d896 ; crypto_boost_trims + 150
        0x0001d878:    f8d70088    ....    LDR      r0,[r7,#0x88]
        0x0001d87c:    f3640005    d...    BFI      r0,r4,#0,#6
        0x0001d880:    f8c70088    ....    STR      r0,[r7,#0x88]
        0x0001d884:    2014        .       MOVS     r0,#0x14
        0x0001d886:    f7fcfd17    ....    BL       am_hal_delay_us ; 0x1a2b8
        0x0001d88a:    f8d7036c    ..l.    LDR      r0,[r7,#0x36c]
        0x0001d88e:    f3655019    e..P    BFI      r0,r5,#20,#6
        0x0001d892:    f8c7036c    ..l.    STR      r0,[r7,#0x36c]
        0x0001d896:    9800        ..      LDR      r0,[sp,#0]
        0x0001d898:    f7fafd68    ..h.    BL       am_hal_interrupt_master_set ; 0x1836c
        0x0001d89c:    e8bd40f8    ...@    POP      {r3-r7,lr}
        0x0001d8a0:    2014        .       MOVS     r0,#0x14
        0x0001d8a2:    f7fcbd09    ....    B        am_hal_delay_us ; 0x1a2b8
    $d
        0x0001d8a6:    0000        ..      DCW    0
        0x0001d8a8:    100000e0    ....    DCD    268435680
        0x0001d8ac:    40020000    ...@    DCD    1073872896
    $t
    i.decstr_to_int
    decstr_to_int
        0x0001d8b0:    b530        0.      PUSH     {r4,r5,lr}
        0x0001d8b2:    4602        .F      MOV      r2,r0
        0x0001d8b4:    2500        .%      MOVS     r5,#0
        0x0001d8b6:    2300        .#      MOVS     r3,#0
        0x0001d8b8:    2400        .$      MOVS     r4,#0
        0x0001d8ba:    7810        .x      LDRB     r0,[r2,#0]
        0x0001d8bc:    282d        -(      CMP      r0,#0x2d
        0x0001d8be:    d102        ..      BNE      0x1d8c6 ; decstr_to_int + 22
        0x0001d8c0:    2501        .%      MOVS     r5,#1
        0x0001d8c2:    1c52        R.      ADDS     r2,r2,#1
        0x0001d8c4:    1c64        d.      ADDS     r4,r4,#1
        0x0001d8c6:    e007        ..      B        0x1d8d8 ; decstr_to_int + 40
        0x0001d8c8:    1c64        d.      ADDS     r4,r4,#1
        0x0001d8ca:    eb030083    ....    ADD      r0,r3,r3,LSL #2
        0x0001d8ce:    0043        C.      LSLS     r3,r0,#1
        0x0001d8d0:    7810        .x      LDRB     r0,[r2,#0]
        0x0001d8d2:    3830        08      SUBS     r0,r0,#0x30
        0x0001d8d4:    4403        .D      ADD      r3,r3,r0
        0x0001d8d6:    1c52        R.      ADDS     r2,r2,#1
        0x0001d8d8:    7810        .x      LDRB     r0,[r2,#0]
        0x0001d8da:    2830        0(      CMP      r0,#0x30
        0x0001d8dc:    db02        ..      BLT      0x1d8e4 ; decstr_to_int + 52
        0x0001d8de:    7810        .x      LDRB     r0,[r2,#0]
        0x0001d8e0:    2839        9(      CMP      r0,#0x39
        0x0001d8e2:    ddf1        ..      BLE      0x1d8c8 ; decstr_to_int + 24
        0x0001d8e4:    b101        ..      CBZ      r1,0x1d8e8 ; decstr_to_int + 56
        0x0001d8e6:    600c        .`      STR      r4,[r1,#0]
        0x0001d8e8:    b10d        ..      CBZ      r5,0x1d8ee ; decstr_to_int + 62
        0x0001d8ea:    4258        XB      RSBS     r0,r3,#0
        0x0001d8ec:    bd30        0.      POP      {r4,r5,pc}
        0x0001d8ee:    4618        .F      MOV      r0,r3
        0x0001d8f0:    e7fc        ..      B        0x1d8ec ; decstr_to_int + 60
    i.divu64_10
    divu64_10
        0x0001d8f2:    e92d4ff0    -..O    PUSH     {r4-r11,lr}
        0x0001d8f6:    4604        .F      MOV      r4,r0
        0x0001d8f8:    460d        .F      MOV      r5,r1
        0x0001d8fa:    2000        .       MOVS     r0,#0
        0x0001d8fc:    ea850100    ....    EOR      r1,r5,r0
        0x0001d900:    4040        @@      EORS     r0,r0,r0
        0x0001d902:    4301        .C      ORRS     r1,r1,r0
        0x0001d904:    d044        D.      BEQ      0x1d990 ; divu64_10 + 158
        0x0001d906:    ea5f0a55    _.U.    LSRS     r10,r5,#1
        0x0001d90a:    ea4f0134    O.4.    RRX      r1,r4
        0x0001d90e:    ea4f0b94    O...    LSR      r11,r4,#2
        0x0001d912:    ea4b7085    K..p    ORR      r0,r11,r5,LSL #30
        0x0001d916:    180a        ..      ADDS     r2,r1,r0
        0x0001d918:    eb4a0395    J...    ADC      r3,r10,r5,LSR #2
        0x0001d91c:    ea4f1012    O...    LSR      r0,r2,#4
        0x0001d920:    ea407a03    @..z    ORR      r10,r0,r3,LSL #28
        0x0001d924:    eb1a0202    ....    ADDS     r2,r10,r2
        0x0001d928:    eb431313    C...    ADC      r3,r3,r3,LSR #4
        0x0001d92c:    ea4f2012    O..     LSR      r0,r2,#8
        0x0001d930:    ea406a03    @..j    ORR      r10,r0,r3,LSL #24
        0x0001d934:    eb1a0202    ....    ADDS     r2,r10,r2
        0x0001d938:    eb432313    C..#    ADC      r3,r3,r3,LSR #8
        0x0001d93c:    ea4f4012    O..@    LSR      r0,r2,#16
        0x0001d940:    ea404a03    @..J    ORR      r10,r0,r3,LSL #16
        0x0001d944:    eb1a0202    ....    ADDS     r2,r10,r2
        0x0001d948:    eb434313    C..C    ADC      r3,r3,r3,LSR #16
        0x0001d94c:    189a        ..      ADDS     r2,r3,r2
        0x0001d94e:    f1430300    C...    ADC      r3,r3,#0
        0x0001d952:    08d0        ..      LSRS     r0,r2,#3
        0x0001d954:    ea407243    @.Cr    ORR      r2,r0,r3,LSL #29
        0x0001d958:    08db        ..      LSRS     r3,r3,#3
        0x0001d95a:    210a        .!      MOVS     r1,#0xa
        0x0001d95c:    f04f0a00    O...    MOV      r10,#0
        0x0001d960:    fba20b01    ....    UMULL    r0,r11,r2,r1
        0x0001d964:    fb03b101    ....    MLA      r1,r3,r1,r11
        0x0001d968:    fb02110a    ....    MLA      r1,r2,r10,r1
        0x0001d96c:    1a26        &.      SUBS     r6,r4,r0
        0x0001d96e:    eb650701    e...    SBC      r7,r5,r1
        0x0001d972:    2106        .!      MOVS     r1,#6
        0x0001d974:    eb160a01    ....    ADDS     r10,r6,r1
        0x0001d978:    f1470100    G...    ADC      r1,r7,#0
        0x0001d97c:    ea4f101a    O...    LSR      r0,r10,#4
        0x0001d980:    ea407a01    @..z    ORR      r10,r0,r1,LSL #28
        0x0001d984:    eb1a0002    ....    ADDS     r0,r10,r2
        0x0001d988:    eb431111    C...    ADC      r1,r3,r1,LSR #4
        0x0001d98c:    e8bd8ff0    ....    POP      {r4-r11,pc}
        0x0001d990:    46a0        .F      MOV      r8,r4
        0x0001d992:    ea4f0058    O.X.    LSR      r0,r8,#1
        0x0001d996:    eb000c98    ....    ADD      r12,r0,r8,LSR #2
        0x0001d99a:    eb0c1c1c    ....    ADD      r12,r12,r12,LSR #4
        0x0001d99e:    eb0c2c1c    ...,    ADD      r12,r12,r12,LSR #8
        0x0001d9a2:    eb0c4c1c    ...L    ADD      r12,r12,r12,LSR #16
        0x0001d9a6:    ea4f0cdc    O...    LSR      r12,r12,#3
        0x0001d9aa:    eb0c008c    ....    ADD      r0,r12,r12,LSL #2
        0x0001d9ae:    eba80940    ..@.    SUB      r9,r8,r0,LSL #1
        0x0001d9b2:    f1090006    ....    ADD      r0,r9,#6
        0x0001d9b6:    eb0c1010    ....    ADD      r0,r12,r0,LSR #4
        0x0001d9ba:    2100        .!      MOVS     r1,#0
        0x0001d9bc:    e7e6        ..      B        0x1d98c ; divu64_10 + 154
    i.dtm_data_callback
    dtm_data_callback
        0x0001d9be:    b570        p.      PUSH     {r4-r6,lr}
        0x0001d9c0:    4606        .F      MOV      r6,r0
        0x0001d9c2:    460c        .F      MOV      r4,r1
        0x0001d9c4:    4615        .F      MOV      r5,r2
        0x0001d9c6:    b116        ..      CBZ      r6,0x1d9ce ; dtm_data_callback + 16
        0x0001d9c8:    2e01        ..      CMP      r6,#1
        0x0001d9ca:    d10a        ..      BNE      0x1d9e2 ; dtm_data_callback + 36
        0x0001d9cc:    e004        ..      B        0x1d9d8 ; dtm_data_callback + 26
        0x0001d9ce:    4629        )F      MOV      r1,r5
        0x0001d9d0:    4620         F      MOV      r0,r4
        0x0001d9d2:    f000f93b    ..;.    BL       hci_rx_process ; 0x1dc4c
        0x0001d9d6:    e005        ..      B        0x1d9e4 ; dtm_data_callback + 38
        0x0001d9d8:    4629        )F      MOV      r1,r5
        0x0001d9da:    4620         F      MOV      r0,r4
        0x0001d9dc:    f000fdf0    ....    BL       serial_rx_process ; 0x1e5c0
        0x0001d9e0:    e000        ..      B        0x1d9e4 ; dtm_data_callback + 38
        0x0001d9e2:    bf00        ..      NOP      
        0x0001d9e4:    bf00        ..      NOP      
        0x0001d9e6:    bd70        p.      POP      {r4-r6,pc}
    i.dtm_init
    dtm_init
        0x0001d9e8:    b510        ..      PUSH     {r4,lr}
        0x0001d9ea:    f7fbf9c3    ....    BL       am_bsp_low_power_init ; 0x18d74
        0x0001d9ee:    f7fbf977    ..w.    BL       am_bsp_itm_printf_enable ; 0x18ce0
        0x0001d9f2:    f7fffb53    ..S.    BL       am_util_stdio_terminal_clear ; 0x1d09c
        0x0001d9f6:    f000fcb1    ....    BL       serial_interface_init ; 0x1e35c
        0x0001d9fa:    f7fafcaf    ....    BL       am_hal_interrupt_master_enable ; 0x1835c
        0x0001d9fe:    f7fffeb9    ....    BL       cooper_spi_init ; 0x1d774
        0x0001da02:    f7fffe8b    ....    BL       clkreq_interrupt_init ; 0x1d71c
        0x0001da06:    bd10        ..      POP      {r4,pc}
    i.dtm_process
    dtm_process
        0x0001da08:    b508        ..      PUSH     {r3,lr}
        0x0001da0a:    e029        ).      B        0x1da60 ; dtm_process + 88
        0x0001da0c:    f000ff74    ..t.    BL       serial_task ; 0x1e8f8
        0x0001da10:    f7fbfc9c    ....    BL       am_devices_cooper_irq_read ; 0x1934c
        0x0001da14:    4605        .F      MOV      r5,r0
        0x0001da16:    b185        ..      CBZ      r5,0x1da3a ; dtm_process + 50
        0x0001da18:    4669        iF      MOV      r1,sp
        0x0001da1a:    4812        .H      LDR      r0,[pc,#72] ; [0x1da64] = 0x10002e00
        0x0001da1c:    f000f8fa    ....    BL       hci_data_read ; 0x1dc14
        0x0001da20:    4604        .F      MOV      r4,r0
        0x0001da22:    b92c        ,.      CBNZ     r4,0x1da30 ; dtm_process + 40
        0x0001da24:    490f        .I      LDR      r1,[pc,#60] ; [0x1da64] = 0x10002e00
        0x0001da26:    2000        .       MOVS     r0,#0
        0x0001da28:    9a00        ..      LDR      r2,[sp,#0]
        0x0001da2a:    f7ffffc8    ....    BL       dtm_data_callback ; 0x1d9be
        0x0001da2e:    e017        ..      B        0x1da60 ; dtm_process + 88
        0x0001da30:    a00d        ..      ADR      r0,{pc}+0x38 ; 0x1da68
        0x0001da32:    f7fffb0f    ....    BL       am_util_stdio_printf ; 0x1d054
        0x0001da36:    bf00        ..      NOP      
        0x0001da38:    e7fe        ..      B        0x1da38 ; dtm_process + 48
        0x0001da3a:    4814        .H      LDR      r0,[pc,#80] ; [0x1da8c] = 0x10000070
        0x0001da3c:    7800        .x      LDRB     r0,[r0,#0]
        0x0001da3e:    b178        x.      CBZ      r0,0x1da60 ; dtm_process + 88
        0x0001da40:    4813        .H      LDR      r0,[pc,#76] ; [0x1da90] = 0x10000071
        0x0001da42:    7800        .x      LDRB     r0,[r0,#0]
        0x0001da44:    b928        (.      CBNZ     r0,0x1da52 ; dtm_process + 74
        0x0001da46:    4813        .H      LDR      r0,[pc,#76] ; [0x1da94] = 0x1000006c
        0x0001da48:    6802        .h      LDR      r2,[r0,#0]
        0x0001da4a:    4913        .I      LDR      r1,[pc,#76] ; [0x1da98] = 0x10002a00
        0x0001da4c:    2001        .       MOVS     r0,#1
        0x0001da4e:    f7ffffb6    ....    BL       dtm_data_callback ; 0x1d9be
        0x0001da52:    2000        .       MOVS     r0,#0
        0x0001da54:    490f        .I      LDR      r1,[pc,#60] ; [0x1da94] = 0x1000006c
        0x0001da56:    6008        .`      STR      r0,[r1,#0]
        0x0001da58:    490c        .I      LDR      r1,[pc,#48] ; [0x1da8c] = 0x10000070
        0x0001da5a:    7008        .p      STRB     r0,[r1,#0]
        0x0001da5c:    f000fce6    ....    BL       serial_irq_enable ; 0x1e42c
        0x0001da60:    e7d4        ..      B        0x1da0c ; dtm_process + 4
    $d
        0x0001da62:    0000        ..      DCW    0
        0x0001da64:    10002e00    ....    DCD    268447232
        0x0001da68:    64616552    Read    DCD    1684104530
        0x0001da6c:    6f726620     fro    DCD    1869768224
        0x0001da70:    4c42206d    m BL    DCD    1279402093
        0x0001da74:    6f432045    E Co    DCD    1866670149
        0x0001da78:    6f72746e    ntro    DCD    1869771886
        0x0001da7c:    72656c6c    ller    DCD    1919249516
        0x0001da80:    69616620     fai    DCD    1767990816
        0x0001da84:    0a64656c    led.    DCD    174351724
        0x0001da88:    00000000    ....    DCD    0
        0x0001da8c:    10000070    p...    DCD    268435568
        0x0001da90:    10000071    q...    DCD    268435569
        0x0001da94:    1000006c    l...    DCD    268435564
        0x0001da98:    10002a00    .*..    DCD    268446208
    $t
    i.ftoa
    ftoa
        0x0001da9c:    e92d4ff3    -..O    PUSH     {r0,r1,r4-r11,lr}
        0x0001daa0:    ed2d0b02    -...    VPUSH    {d0}
        0x0001daa4:    ed2d8b02    -...    VPUSH    {d8}
        0x0001daa8:    b081        ..      SUB      sp,sp,#4
        0x0001daaa:    eeb08a40    ..@.    VMOV.F32 s16,s0
        0x0001daae:    4604        .F      MOV      r4,r0
        0x0001dab0:    f8d4b000    ....    LDR      r11,[r4,#0]
        0x0001dab4:    f1bb0f04    ....    CMP      r11,#4
        0x0001dab8:    da07        ..      BGE      0x1daca ; ftoa + 46
        0x0001daba:    f06f0002    o...    MVN      r0,#2
        0x0001dabe:    b001        ..      ADD      sp,sp,#4
        0x0001dac0:    ecbd8b02    ....    VPOP     {d8}
        0x0001dac4:    b004        ..      ADD      sp,sp,#0x10
        0x0001dac6:    e8bd8ff0    ....    POP      {r4-r11,pc}
        0x0001daca:    eeb58ac0    ....    VCMPE.F32 s16,#0.0
        0x0001dace:    eef1fa10    ....    VMRS     APSR_nzcv,FPSCR
        0x0001dad2:    d103        ..      BNE      0x1dadc ; ftoa + 64
        0x0001dad4:    484e        NH      LDR      r0,[pc,#312] ; [0x1dc10] = 0x302e30
        0x0001dad6:    6020         `      STR      r0,[r4,#0]
        0x0001dad8:    2003        .       MOVS     r0,#3
        0x0001dada:    e7f0        ..      B        0x1dabe ; ftoa + 34
        0x0001dadc:    46a2        .F      MOV      r10,r4
        0x0001dade:    ed8d8a00    ....    VSTR     s16,[sp,#0]
        0x0001dae2:    9800        ..      LDR      r0,[sp,#0]
        0x0001dae4:    f3c050c7    ...P    UBFX     r0,r0,#23,#8
        0x0001dae8:    f1a0057f    ....    SUB      r5,r0,#0x7f
        0x0001daec:    9800        ..      LDR      r0,[sp,#0]
        0x0001daee:    f020407f     ..@    BIC      r0,r0,#0xff000000
        0x0001daf2:    f4400900    @...    ORR      r9,r0,#0x800000
        0x0001daf6:    f04f0800    O...    MOV      r8,#0
        0x0001dafa:    2700        .'      MOVS     r7,#0
        0x0001dafc:    2d1f        .-      CMP      r5,#0x1f
        0x0001dafe:    db01        ..      BLT      0x1db04 ; ftoa + 104
        0x0001db00:    1eb8        ..      SUBS     r0,r7,#2
        0x0001db02:    e7dc        ..      B        0x1dabe ; ftoa + 34
        0x0001db04:    f1150f17    ....    CMN      r5,#0x17
        0x0001db08:    da02        ..      BGE      0x1db10 ; ftoa + 116
        0x0001db0a:    f04f30ff    O..0    MOV      r0,#0xffffffff
        0x0001db0e:    e7d6        ..      B        0x1dabe ; ftoa + 34
        0x0001db10:    2d17        .-      CMP      r5,#0x17
        0x0001db12:    db04        ..      BLT      0x1db1e ; ftoa + 130
        0x0001db14:    f1a50017    ....    SUB      r0,r5,#0x17
        0x0001db18:    fa09f700    ....    LSL      r7,r9,r0
        0x0001db1c:    e011        ..      B        0x1db42 ; ftoa + 166
        0x0001db1e:    2d00        .-      CMP      r5,#0
        0x0001db20:    db09        ..      BLT      0x1db36 ; ftoa + 154
        0x0001db22:    f1c50017    ....    RSB      r0,r5,#0x17
        0x0001db26:    fa49f700    I...    ASR      r7,r9,r0
        0x0001db2a:    1c68        h.      ADDS     r0,r5,#1
        0x0001db2c:    fa09f000    ....    LSL      r0,r9,r0
        0x0001db30:    f020487f     ..H    BIC      r8,r0,#0xff000000
        0x0001db34:    e005        ..      B        0x1db42 ; ftoa + 166
        0x0001db36:    f029407f    )..@    BIC      r0,r9,#0xff000000
        0x0001db3a:    1c69        i.      ADDS     r1,r5,#1
        0x0001db3c:    4249        IB      RSBS     r1,r1,#0
        0x0001db3e:    fa40f801    @...    ASR      r8,r0,r1
        0x0001db42:    9800        ..      LDR      r0,[sp,#0]
        0x0001db44:    2800        .(      CMP      r0,#0
        0x0001db46:    da02        ..      BGE      0x1db4e ; ftoa + 178
        0x0001db48:    202d        -       MOVS     r0,#0x2d
        0x0001db4a:    f8040b01    ....    STRB     r0,[r4],#1
        0x0001db4e:    b91f        ..      CBNZ     r7,0x1db58 ; ftoa + 188
        0x0001db50:    2030        0       MOVS     r0,#0x30
        0x0001db52:    f8040b01    ....    STRB     r0,[r4],#1
        0x0001db56:    e014        ..      B        0x1db82 ; ftoa + 230
        0x0001db58:    2f00        ./      CMP      r7,#0
        0x0001db5a:    dd05        ..      BLE      0x1db68 ; ftoa + 204
        0x0001db5c:    4622        "F      MOV      r2,r4
        0x0001db5e:    4638        8F      MOV      r0,r7
        0x0001db60:    17f9        ..      ASRS     r1,r7,#31
        0x0001db62:    f000ff58    ..X.    BL       uint64_to_str ; 0x1ea16
        0x0001db66:    e007        ..      B        0x1db78 ; ftoa + 220
        0x0001db68:    202d        -       MOVS     r0,#0x2d
        0x0001db6a:    f8040b01    ....    STRB     r0,[r4],#1
        0x0001db6e:    4622        "F      MOV      r2,r4
        0x0001db70:    4278        xB      RSBS     r0,r7,#0
        0x0001db72:    17c1        ..      ASRS     r1,r0,#31
        0x0001db74:    f000ff4f    ..O.    BL       uint64_to_str ; 0x1ea16
        0x0001db78:    e000        ..      B        0x1db7c ; ftoa + 224
        0x0001db7a:    1c64        d.      ADDS     r4,r4,#1
        0x0001db7c:    7820         x      LDRB     r0,[r4,#0]
        0x0001db7e:    2800        .(      CMP      r0,#0
        0x0001db80:    d1fb        ..      BNE      0x1db7a ; ftoa + 222
        0x0001db82:    202e        .       MOVS     r0,#0x2e
        0x0001db84:    f8040b01    ....    STRB     r0,[r4],#1
        0x0001db88:    f1b80f00    ....    CMP      r8,#0
        0x0001db8c:    d103        ..      BNE      0x1db96 ; ftoa + 250
        0x0001db8e:    2030        0       MOVS     r0,#0x30
        0x0001db90:    f8040b01    ....    STRB     r0,[r4],#1
        0x0001db94:    e036        6.      B        0x1dc04 ; ftoa + 360
        0x0001db96:    eba4020a    ....    SUB      r2,r4,r10
        0x0001db9a:    ebab0202    ....    SUB      r2,r11,r2
        0x0001db9e:    1e51        Q.      SUBS     r1,r2,#1
        0x0001dba0:    9a06        ..      LDR      r2,[sp,#0x18]
        0x0001dba2:    4291        .B      CMP      r1,r2
        0x0001dba4:    dd01        ..      BLE      0x1dbaa ; ftoa + 270
        0x0001dba6:    9a06        ..      LDR      r2,[sp,#0x18]
        0x0001dba8:    e000        ..      B        0x1dbac ; ftoa + 272
        0x0001dbaa:    460a        .F      MOV      r2,r1
        0x0001dbac:    4611        .F      MOV      r1,r2
        0x0001dbae:    2000        .       MOVS     r0,#0
        0x0001dbb0:    e00b        ..      B        0x1dbca ; ftoa + 302
        0x0001dbb2:    eb080288    ....    ADD      r2,r8,r8,LSL #2
        0x0001dbb6:    ea4f0842    O.B.    LSL      r8,r2,#1
        0x0001dbba:    2230        0"      MOVS     r2,#0x30
        0x0001dbbc:    eb026228    ..(b    ADD      r2,r2,r8,ASR #24
        0x0001dbc0:    f8042b01    ...+    STRB     r2,[r4],#1
        0x0001dbc4:    f028487f    (..H    BIC      r8,r8,#0xff000000
        0x0001dbc8:    1c40        @.      ADDS     r0,r0,#1
        0x0001dbca:    4288        .B      CMP      r0,r1
        0x0001dbcc:    dbf1        ..      BLT      0x1dbb2 ; ftoa + 278
        0x0001dbce:    eb080288    ....    ADD      r2,r8,r8,LSL #2
        0x0001dbd2:    0052        R.      LSLS     r2,r2,#1
        0x0001dbd4:    2305        .#      MOVS     r3,#5
        0x0001dbd6:    ebb36f22    .."o    CMP      r3,r2,ASR #24
        0x0001dbda:    dc12        ..      BGT      0x1dc02 ; ftoa + 358
        0x0001dbdc:    1e66        f.      SUBS     r6,r4,#1
        0x0001dbde:    e00d        ..      B        0x1dbfc ; ftoa + 352
        0x0001dbe0:    7832        2x      LDRB     r2,[r6,#0]
        0x0001dbe2:    2a2e        .*      CMP      r2,#0x2e
        0x0001dbe4:    d009        ..      BEQ      0x1dbfa ; ftoa + 350
        0x0001dbe6:    7832        2x      LDRB     r2,[r6,#0]
        0x0001dbe8:    2a39        9*      CMP      r2,#0x39
        0x0001dbea:    d102        ..      BNE      0x1dbf2 ; ftoa + 342
        0x0001dbec:    2230        0"      MOVS     r2,#0x30
        0x0001dbee:    7032        2p      STRB     r2,[r6,#0]
        0x0001dbf0:    e003        ..      B        0x1dbfa ; ftoa + 350
        0x0001dbf2:    7832        2x      LDRB     r2,[r6,#0]
        0x0001dbf4:    1c52        R.      ADDS     r2,r2,#1
        0x0001dbf6:    7032        2p      STRB     r2,[r6,#0]
        0x0001dbf8:    e002        ..      B        0x1dc00 ; ftoa + 356
        0x0001dbfa:    1e76        v.      SUBS     r6,r6,#1
        0x0001dbfc:    4556        VE      CMP      r6,r10
        0x0001dbfe:    d2ef        ..      BCS      0x1dbe0 ; ftoa + 324
        0x0001dc00:    bf00        ..      NOP      
        0x0001dc02:    bf00        ..      NOP      
        0x0001dc04:    2000        .       MOVS     r0,#0
        0x0001dc06:    7020         p      STRB     r0,[r4,#0]
        0x0001dc08:    eba4000a    ....    SUB      r0,r4,r10
        0x0001dc0c:    e757        W.      B        0x1dabe ; ftoa + 34
    $d
        0x0001dc0e:    0000        ..      DCW    0
        0x0001dc10:    00302e30    0.0.    DCD    3157552
    $t
    i.hci_data_read
    hci_data_read
        0x0001dc14:    b570        p.      PUSH     {r4-r6,lr}
        0x0001dc16:    4604        .F      MOV      r4,r0
        0x0001dc18:    460d        .F      MOV      r5,r1
        0x0001dc1a:    462a        *F      MOV      r2,r5
        0x0001dc1c:    4621        !F      MOV      r1,r4
        0x0001dc1e:    4802        .H      LDR      r0,[pc,#8] ; [0x1dc28] = 0x10000084
        0x0001dc20:    6800        .h      LDR      r0,[r0,#0]
        0x0001dc22:    f7fbf8b3    ....    BL       am_devices_cooper_blocking_read ; 0x18d8c
        0x0001dc26:    bd70        p.      POP      {r4-r6,pc}
    $d
        0x0001dc28:    10000084    ....    DCD    268435588
    $t
    i.hci_data_write
    hci_data_write
        0x0001dc2c:    b538        8.      PUSH     {r3-r5,lr}
        0x0001dc2e:    4604        .F      MOV      r4,r0
        0x0001dc30:    460d        .F      MOV      r5,r1
        0x0001dc32:    2001        .       MOVS     r0,#1
        0x0001dc34:    462b        +F      MOV      r3,r5
        0x0001dc36:    4622        "F      MOV      r2,r4
        0x0001dc38:    2100        .!      MOVS     r1,#0
        0x0001dc3a:    9000        ..      STR      r0,[sp,#0]
        0x0001dc3c:    4802        .H      LDR      r0,[pc,#8] ; [0x1dc48] = 0x10000084
        0x0001dc3e:    6800        .h      LDR      r0,[r0,#0]
        0x0001dc40:    f7fbf914    ....    BL       am_devices_cooper_blocking_write ; 0x18e6c
        0x0001dc44:    bd38        8.      POP      {r3-r5,pc}
    $d
        0x0001dc46:    0000        ..      DCW    0
        0x0001dc48:    10000084    ....    DCD    268435588
    $t
    i.hci_rx_process
    hci_rx_process
        0x0001dc4c:    b530        0.      PUSH     {r4,r5,lr}
        0x0001dc4e:    f2ad4d04    ...M    SUB      sp,sp,#0x404
        0x0001dc52:    4605        .F      MOV      r5,r0
        0x0001dc54:    460c        .F      MOV      r4,r1
        0x0001dc56:    b105        ..      CBZ      r5,0x1dc5a ; hci_rx_process + 14
        0x0001dc58:    b92c        ,.      CBNZ     r4,0x1dc66 ; hci_rx_process + 26
        0x0001dc5a:    a011        ..      ADR      r0,{pc}+0x46 ; 0x1dca0
        0x0001dc5c:    f7fff9fa    ....    BL       am_util_stdio_printf ; 0x1d054
        0x0001dc60:    f20d4d04    ...M    ADD      sp,sp,#0x404
        0x0001dc64:    bd30        0.      POP      {r4,r5,pc}
        0x0001dc66:    4622        "F      MOV      r2,r4
        0x0001dc68:    4629        )F      MOV      r1,r5
        0x0001dc6a:    a801        ..      ADD      r0,sp,#4
        0x0001dc6c:    f7fafc25    ..%.    BL       __aeabi_memcpy4 ; 0x184ba
        0x0001dc70:    2207        ."      MOVS     r2,#7
        0x0001dc72:    4910        .I      LDR      r1,[pc,#64] ; [0x1dcb4] = 0x10000057
        0x0001dc74:    a801        ..      ADD      r0,sp,#4
        0x0001dc76:    f7fafbaf    ....    BL       memcmp ; 0x183d8
        0x0001dc7a:    b120         .      CBZ      r0,0x1dc86 ; hci_rx_process + 58
        0x0001dc7c:    4621        !F      MOV      r1,r4
        0x0001dc7e:    a801        ..      ADD      r0,sp,#4
        0x0001dc80:    f000fb52    ..R.    BL       serial_data_write ; 0x1e328
        0x0001dc84:    e006        ..      B        0x1dc94 ; hci_rx_process + 72
        0x0001dc86:    1fe0        ..      SUBS     r0,r4,#7
        0x0001dc88:    b120         .      CBZ      r0,0x1dc94 ; hci_rx_process + 72
        0x0001dc8a:    1fe1        ..      SUBS     r1,r4,#7
        0x0001dc8c:    f10d000b    ....    ADD      r0,sp,#0xb
        0x0001dc90:    f000fb4a    ..J.    BL       serial_data_write ; 0x1e328
        0x0001dc94:    2001        .       MOVS     r0,#1
        0x0001dc96:    f7fff96d    ..m.    BL       am_util_delay_ms ; 0x1cf74
        0x0001dc9a:    bf00        ..      NOP      
        0x0001dc9c:    e7e0        ..      B        0x1dc60 ; hci_rx_process + 20
    $d
        0x0001dc9e:    0000        ..      DCW    0
        0x0001dca0:    61766e69    inva    DCD    1635151465
        0x0001dca4:    2064696c    lid     DCD    543451500
        0x0001dca8:    61726170    para    DCD    1634886000
        0x0001dcac:    6574656d    mete    DCD    1702126957
        0x0001dcb0:    00000a72    r...    DCD    2674
        0x0001dcb4:    10000057    W...    DCD    268435543
    $t
    i.internal_iom_reset_on_error
    internal_iom_reset_on_error
        0x0001dcb8:    b570        p.      PUSH     {r4-r6,lr}
        0x0001dcba:    4602        .F      MOV      r2,r0
        0x0001dcbc:    f8d00864    ..d.    LDR      r0,[r0,#0x864]
        0x0001dcc0:    6852        Rh      LDR      r2,[r2,#4]
        0x0001dcc2:    eb000040    ..@.    ADD      r0,r0,r0,LSL #1
        0x0001dcc6:    0040        @.      LSLS     r0,r0,#1
        0x0001dcc8:    0312        ..      LSLS     r2,r2,#12
        0x0001dcca:    f1024480    ...D    ADD      r4,r2,#0x40000000
        0x0001dcce:    f50424a0    ...$    ADD      r4,r4,#0x50000
        0x0001dcd2:    f8d45200    ...R    LDR      r5,[r4,#0x200]
        0x0001dcd6:    2200        ."      MOVS     r2,#0
        0x0001dcd8:    f8c42200    ..."    STR      r2,[r4,#0x200]
        0x0001dcdc:    f4116f00    ...o    TST      r1,#0x800
        0x0001dce0:    d055        U.      BEQ      0x1dd8e ; internal_iom_reset_on_error + 214
        0x0001dce2:    f8d42218    ..."    LDR      r2,[r4,#0x218]
        0x0001dce6:    f0120f02    ....    TST      r2,#2
        0x0001dcea:    d019        ..      BEQ      0x1dd20 ; internal_iom_reset_on_error + 104
        0x0001dcec:    4b43        CK      LDR      r3,[pc,#268] ; [0x1ddfc] = 0xdeadbeef
        0x0001dcee:    f8d4221c    ..."    LDR      r2,[r4,#0x21c]
        0x0001dcf2:    b172        r.      CBZ      r2,0x1dd12 ; internal_iom_reset_on_error + 90
        0x0001dcf4:    f8d4c100    ....    LDR      r12,[r4,#0x100]
        0x0001dcf8:    f3cc2c07    ...,    UBFX     r12,r12,#8,#8
        0x0001dcfc:    f1bc0f04    ....    CMP      r12,#4
        0x0001dd00:    d305        ..      BCC      0x1dd0e ; internal_iom_reset_on_error + 86
        0x0001dd02:    f8c4310c    ...1    STR      r3,[r4,#0x10c]
        0x0001dd06:    2a04        .*      CMP      r2,#4
        0x0001dd08:    bf88        ..      IT       HI
        0x0001dd0a:    1f12        ..      SUBHI    r2,r2,#4
        0x0001dd0c:    d901        ..      BLS      0x1dd12 ; internal_iom_reset_on_error + 90
        0x0001dd0e:    2a00        .*      CMP      r2,#0
        0x0001dd10:    d1f0        ..      BNE      0x1dcf4 ; internal_iom_reset_on_error + 60
        0x0001dd12:    f8d42248    ..H"    LDR      r2,[r4,#0x248]
        0x0001dd16:    f0020206    ....    AND      r2,r2,#6
        0x0001dd1a:    2a04        .*      CMP      r2,#4
        0x0001dd1c:    d1f9        ..      BNE      0x1dd12 ; internal_iom_reset_on_error + 90
        0x0001dd1e:    e036        6.      B        0x1dd8e ; internal_iom_reset_on_error + 214
        0x0001dd20:    f8d42248    ..H"    LDR      r2,[r4,#0x248]
        0x0001dd24:    f0120f02    ....    TST      r2,#2
        0x0001dd28:    d013        ..      BEQ      0x1dd52 ; internal_iom_reset_on_error + 154
        0x0001dd2a:    bf00        ..      NOP      
        0x0001dd2c:    f8d42100    ...!    LDR      r2,[r4,#0x100]
        0x0001dd30:    f3c24207    ...B    UBFX     r2,r2,#16,#8
        0x0001dd34:    2a04        .*      CMP      r2,#4
        0x0001dd36:    d307        ..      BCC      0x1dd48 ; internal_iom_reset_on_error + 144
        0x0001dd38:    f8d42108    ...!    LDR      r2,[r4,#0x108]
        0x0001dd3c:    f8d42100    ...!    LDR      r2,[r4,#0x100]
        0x0001dd40:    f3c24207    ...B    UBFX     r2,r2,#16,#8
        0x0001dd44:    2a04        .*      CMP      r2,#4
        0x0001dd46:    d2f7        ..      BCS      0x1dd38 ; internal_iom_reset_on_error + 128
        0x0001dd48:    f8d42248    ..H"    LDR      r2,[r4,#0x248]
        0x0001dd4c:    f0120f02    ....    TST      r2,#2
        0x0001dd50:    d1ec        ..      BNE      0x1dd2c ; internal_iom_reset_on_error + 116
        0x0001dd52:    f8d42248    ..H"    LDR      r2,[r4,#0x248]
        0x0001dd56:    f0020206    ....    AND      r2,r2,#6
        0x0001dd5a:    2a04        .*      CMP      r2,#4
        0x0001dd5c:    d1f9        ..      BNE      0x1dd52 ; internal_iom_reset_on_error + 154
        0x0001dd5e:    f8d42100    ...!    LDR      r2,[r4,#0x100]
        0x0001dd62:    f4120f7f    ....    TST      r2,#0xff0000
        0x0001dd66:    d012        ..      BEQ      0x1dd8e ; internal_iom_reset_on_error + 214
        0x0001dd68:    f8d42100    ...!    LDR      r2,[r4,#0x100]
        0x0001dd6c:    f3c24207    ...B    UBFX     r2,r2,#16,#8
        0x0001dd70:    2a04        .*      CMP      r2,#4
        0x0001dd72:    d307        ..      BCC      0x1dd84 ; internal_iom_reset_on_error + 204
        0x0001dd74:    f8d42108    ...!    LDR      r2,[r4,#0x108]
        0x0001dd78:    f8d42100    ...!    LDR      r2,[r4,#0x100]
        0x0001dd7c:    f3c24207    ...B    UBFX     r2,r2,#16,#8
        0x0001dd80:    2a04        .*      CMP      r2,#4
        0x0001dd82:    d2f7        ..      BCS      0x1dd74 ; internal_iom_reset_on_error + 188
        0x0001dd84:    f8d42100    ...!    LDR      r2,[r4,#0x100]
        0x0001dd88:    f4120f7f    ....    TST      r2,#0xff0000
        0x0001dd8c:    d1ec        ..      BNE      0x1dd68 ; internal_iom_reset_on_error + 176
        0x0001dd8e:    f4117f04    ....    TST      r1,#0x210
        0x0001dd92:    bf18        ..      IT       NE
        0x0001dd94:    f8d46388    ...c    LDRNE    r6,[r4,#0x388]
        0x0001dd98:    d028        (.      BEQ      0x1ddec ; internal_iom_reset_on_error + 308
        0x0001dd9a:    bf00        ..      NOP      
        0x0001dd9c:    f8d41248    ..H.    LDR      r1,[r4,#0x248]
        0x0001dda0:    f0010106    ....    AND      r1,r1,#6
        0x0001dda4:    2904        .)      CMP      r1,#4
        0x0001dda6:    d1f9        ..      BNE      0x1dd9c ; internal_iom_reset_on_error + 228
        0x0001dda8:    f8d4111c    ....    LDR      r1,[r4,#0x11c]
        0x0001ddac:    f0210110    !...    BIC      r1,r1,#0x10
        0x0001ddb0:    f8c4111c    ....    STR      r1,[r4,#0x11c]
        0x0001ddb4:    f8d41110    ....    LDR      r1,[r4,#0x110]
        0x0001ddb8:    f0210102    !...    BIC      r1,r1,#2
        0x0001ddbc:    f8c41110    ....    STR      r1,[r4,#0x110]
        0x0001ddc0:    f8d41388    ....    LDR      r1,[r4,#0x388]
        0x0001ddc4:    f0410102    A...    ORR      r1,r1,#2
        0x0001ddc8:    f8c41388    ....    STR      r1,[r4,#0x388]
        0x0001ddcc:    f7fcfa74    ..t.    BL       am_hal_delay_us ; 0x1a2b8
        0x0001ddd0:    f8c46388    ...c    STR      r6,[r4,#0x388]
        0x0001ddd4:    f8d40110    ....    LDR      r0,[r4,#0x110]
        0x0001ddd8:    f0400002    @...    ORR      r0,r0,#2
        0x0001dddc:    f8c40110    ....    STR      r0,[r4,#0x110]
        0x0001dde0:    f8d4011c    ....    LDR      r0,[r4,#0x11c]
        0x0001dde4:    f0400010    @...    ORR      r0,r0,#0x10
        0x0001dde8:    f8c4011c    ....    STR      r0,[r4,#0x11c]
        0x0001ddec:    f04f30ff    O..0    MOV      r0,#0xffffffff
        0x0001ddf0:    f8c40208    ....    STR      r0,[r4,#0x208]
        0x0001ddf4:    f8c45200    ...R    STR      r5,[r4,#0x200]
        0x0001ddf8:    bd70        p.      POP      {r4-r6,pc}
    $d
        0x0001ddfa:    0000        ..      DCW    0
        0x0001ddfc:    deadbeef    ....    DCD    3735928559
    $t
    i.iom_slave_read
    iom_slave_read
        0x0001de00:    b5f8        ..      PUSH     {r3-r7,lr}
        0x0001de02:    4606        .F      MOV      r6,r0
        0x0001de04:    460c        .F      MOV      r4,r1
        0x0001de06:    4617        .F      MOV      r7,r2
        0x0001de08:    463a        :F      MOV      r2,r7
        0x0001de0a:    4621        !F      MOV      r1,r4
        0x0001de0c:    4630        0F      MOV      r0,r6
        0x0001de0e:    f7faffbd    ....    BL       am_devices_cooper_blocking_read ; 0x18d8c
        0x0001de12:    4625        %F      MOV      r5,r4
        0x0001de14:    88e8        ..      LDRH     r0,[r5,#6]
        0x0001de16:    1f01        ..      SUBS     r1,r0,#4
        0x0001de18:    466a        jF      MOV      r2,sp
        0x0001de1a:    1d28        (.      ADDS     r0,r5,#4
        0x0001de1c:    f7fcf8d4    ....    BL       am_hal_crc32 ; 0x19fc8
        0x0001de20:    6828        (h      LDR      r0,[r5,#0]
        0x0001de22:    9900        ..      LDR      r1,[sp,#0]
        0x0001de24:    4288        .B      CMP      r0,r1
        0x0001de26:    d101        ..      BNE      0x1de2c ; iom_slave_read + 44
        0x0001de28:    2001        .       MOVS     r0,#1
        0x0001de2a:    bdf8        ..      POP      {r3-r7,pc}
        0x0001de2c:    2000        .       MOVS     r0,#0
        0x0001de2e:    e7fc        ..      B        0x1de2a ; iom_slave_read + 42
    i.main
    main
        0x0001de30:    b510        ..      PUSH     {r4,lr}
        0x0001de32:    f7fffdd9    ....    BL       dtm_init ; 0x1d9e8
        0x0001de36:    f7fffde7    ....    BL       dtm_process ; 0x1da08
        0x0001de3a:    2000        .       MOVS     r0,#0
        0x0001de3c:    bd10        ..      POP      {r4,pc}
    i.ndigits_in_hex
    ndigits_in_hex
        0x0001de3e:    b530        0.      PUSH     {r4,r5,lr}
        0x0001de40:    4602        .F      MOV      r2,r0
        0x0001de42:    460b        .F      MOV      r3,r1
        0x0001de44:    2400        .$      MOVS     r4,#0
        0x0001de46:    ea820104    ....    EOR      r1,r2,r4
        0x0001de4a:    405c        \@      EORS     r4,r4,r3
        0x0001de4c:    4321        !C      ORRS     r1,r1,r4
        0x0001de4e:    d101        ..      BNE      0x1de54 ; ndigits_in_hex + 22
        0x0001de50:    2101        .!      MOVS     r1,#1
        0x0001de52:    e000        ..      B        0x1de56 ; ndigits_in_hex + 24
        0x0001de54:    2100        .!      MOVS     r1,#0
        0x0001de56:    4608        .F      MOV      r0,r1
        0x0001de58:    e004        ..      B        0x1de64 ; ndigits_in_hex + 38
        0x0001de5a:    0911        ..      LSRS     r1,r2,#4
        0x0001de5c:    ea417203    A..r    ORR      r2,r1,r3,LSL #28
        0x0001de60:    091b        ..      LSRS     r3,r3,#4
        0x0001de62:    1c40        @.      ADDS     r0,r0,#1
        0x0001de64:    2400        .$      MOVS     r4,#0
        0x0001de66:    ea820104    ....    EOR      r1,r2,r4
        0x0001de6a:    405c        \@      EORS     r4,r4,r3
        0x0001de6c:    4321        !C      ORRS     r1,r1,r4
        0x0001de6e:    d1f4        ..      BNE      0x1de5a ; ndigits_in_hex + 28
        0x0001de70:    bd30        0.      POP      {r4,r5,pc}
    i.ndigits_in_i64
    ndigits_in_i64
        0x0001de72:    b570        p.      PUSH     {r4-r6,lr}
        0x0001de74:    4604        .F      MOV      r4,r0
        0x0001de76:    460d        .F      MOV      r5,r1
        0x0001de78:    2100        .!      MOVS     r1,#0
        0x0001de7a:    4608        .F      MOV      r0,r1
        0x0001de7c:    1a61        a.      SUBS     r1,r4,r1
        0x0001de7e:    eb750000    u...    SBCS     r0,r5,r0
        0x0001de82:    da03        ..      BGE      0x1de8c ; ndigits_in_i64 + 26
        0x0001de84:    2200        ."      MOVS     r2,#0
        0x0001de86:    4264        dB      RSBS     r4,r4,#0
        0x0001de88:    eb620505    b...    SBC      r5,r2,r5
        0x0001de8c:    4620         F      MOV      r0,r4
        0x0001de8e:    4629        )F      MOV      r1,r5
        0x0001de90:    f000f801    ....    BL       ndigits_in_u64 ; 0x1de96
        0x0001de94:    bd70        p.      POP      {r4-r6,pc}
    i.ndigits_in_u64
    ndigits_in_u64
        0x0001de96:    b570        p.      PUSH     {r4-r6,lr}
        0x0001de98:    4604        .F      MOV      r4,r0
        0x0001de9a:    460d        .F      MOV      r5,r1
        0x0001de9c:    2100        .!      MOVS     r1,#0
        0x0001de9e:    ea840001    ....    EOR      r0,r4,r1
        0x0001dea2:    4069        i@      EORS     r1,r1,r5
        0x0001dea4:    4308        .C      ORRS     r0,r0,r1
        0x0001dea6:    d101        ..      BNE      0x1deac ; ndigits_in_u64 + 22
        0x0001dea8:    2001        .       MOVS     r0,#1
        0x0001deaa:    e000        ..      B        0x1deae ; ndigits_in_u64 + 24
        0x0001deac:    2000        .       MOVS     r0,#0
        0x0001deae:    4606        .F      MOV      r6,r0
        0x0001deb0:    e006        ..      B        0x1dec0 ; ndigits_in_u64 + 42
        0x0001deb2:    4620         F      MOV      r0,r4
        0x0001deb4:    4629        )F      MOV      r1,r5
        0x0001deb6:    f7fffd1c    ....    BL       divu64_10 ; 0x1d8f2
        0x0001deba:    4604        .F      MOV      r4,r0
        0x0001debc:    460d        .F      MOV      r5,r1
        0x0001debe:    1c76        v.      ADDS     r6,r6,#1
        0x0001dec0:    2100        .!      MOVS     r1,#0
        0x0001dec2:    ea840001    ....    EOR      r0,r4,r1
        0x0001dec6:    4069        i@      EORS     r1,r1,r5
        0x0001dec8:    4308        .C      ORRS     r0,r0,r1
        0x0001deca:    d1f2        ..      BNE      0x1deb2 ; ndigits_in_u64 + 28
        0x0001decc:    4630        0F      MOV      r0,r6
        0x0001dece:    bd70        p.      POP      {r4-r6,pc}
    i.nonblocking_read_sm
    nonblocking_read_sm
        0x0001ded0:    e92d41f0    -..A    PUSH     {r4-r8,lr}
        0x0001ded4:    4604        .F      MOV      r4,r0
        0x0001ded6:    f8900098    ....    LDRB     r0,[r0,#0x98]
        0x0001deda:    b08a        ..      SUB      sp,sp,#0x28
        0x0001dedc:    b370        p.      CBZ      r0,0x1df3c ; nonblocking_read_sm + 108
        0x0001dede:    4625        %F      MOV      r5,r4
        0x0001dee0:    f7fafa40    ..@.    BL       am_hal_interrupt_master_disable ; 0x18364
        0x0001dee4:    9009        ..      STR      r0,[sp,#0x24]
        0x0001dee6:    2100        .!      MOVS     r1,#0
        0x0001dee8:    6a6a        jj      LDR      r2,[r5,#0x24]
        0x0001deea:    2620         &      MOVS     r6,#0x20
        0x0001deec:    0310        ..      LSLS     r0,r2,#12
        0x0001deee:    f1004380    ...C    ADD      r3,r0,#0x40000000
        0x0001def2:    466f        oF      MOV      r7,sp
        0x0001def4:    f10d0820    .. .    ADD      r8,sp,#0x20
        0x0001def8:    468c        .F      MOV      r12,r1
        0x0001defa:    f50333e0    ...3    ADD      r3,r3,#0x1c000
        0x0001defe:    6998        .i      LDR      r0,[r3,#0x18]
        0x0001df00:    f0100f10    ....    TST      r0,#0x10
        0x0001df04:    d10a        ..      BNE      0x1df1c ; nonblocking_read_sm + 76
        0x0001df06:    681a        .h      LDR      r2,[r3,#0]
        0x0001df08:    f4126f70    ..po    TST      r2,#0xf00
        0x0001df0c:    d002        ..      BEQ      0x1df14 ; nonblocking_read_sm + 68
        0x0001df0e:    f04f6c00    O..l    MOV      r12,#0x8000000
        0x0001df12:    e003        ..      B        0x1df1c ; nonblocking_read_sm + 76
        0x0001df14:    547a        zT      STRB     r2,[r7,r1]
        0x0001df16:    1c49        I.      ADDS     r1,r1,#1
        0x0001df18:    42b1        .B      CMP      r1,r6
        0x0001df1a:    d3f0        ..      BCC      0x1defe ; nonblocking_read_sm + 46
        0x0001df1c:    f1b80f00    ....    CMP      r8,#0
        0x0001df20:    bf18        ..      IT       NE
        0x0001df22:    9108        ..      STRNE    r1,[sp,#0x20]
        0x0001df24:    f1bc0f00    ....    CMP      r12,#0
        0x0001df28:    d105        ..      BNE      0x1df36 ; nonblocking_read_sm + 102
        0x0001df2a:    4639        9F      MOV      r1,r7
        0x0001df2c:    f105009c    ....    ADD      r0,r5,#0x9c
        0x0001df30:    9a08        ..      LDR      r2,[sp,#0x20]
        0x0001df32:    f7fefab3    ....    BL       am_hal_queue_item_add ; 0x1c49c
        0x0001df36:    9809        ..      LDR      r0,[sp,#0x24]
        0x0001df38:    f7fafa18    ....    BL       am_hal_interrupt_master_set ; 0x1836c
        0x0001df3c:    f894002c    ..,.    LDRB     r0,[r4,#0x2c]
        0x0001df40:    2800        .(      CMP      r0,#0
        0x0001df42:    bf04        ..      ITT      EQ
        0x0001df44:    b00a        ..      ADDEQ    sp,sp,#0x28
        0x0001df46:    e8bd81f0    ....    POPEQ    {r4-r8,pc}
        0x0001df4a:    f7fafa0b    ....    BL       am_hal_interrupt_master_disable ; 0x18364
        0x0001df4e:    9001        ..      STR      r0,[sp,#4]
        0x0001df50:    6d20         m      LDR      r0,[r4,#0x50]
        0x0001df52:    6ba1        .k      LDR      r1,[r4,#0x38]
        0x0001df54:    1a0a        ..      SUBS     r2,r1,r0
        0x0001df56:    6b61        ak      LDR      r1,[r4,#0x34]
        0x0001df58:    2500        .%      MOVS     r5,#0
        0x0001df5a:    4401        .D      ADD      r1,r1,r0
        0x0001df5c:    9500        ..      STR      r5,[sp,#0]
        0x0001df5e:    f8940098    ....    LDRB     r0,[r4,#0x98]
        0x0001df62:    b1a0        ..      CBZ      r0,0x1df8e ; nonblocking_read_sm + 190
        0x0001df64:    f8d400a4    ....    LDR      r0,[r4,#0xa4]
        0x0001df68:    4282        .B      CMP      r2,r0
        0x0001df6a:    bf28        (.      IT       CS
        0x0001df6c:    4602        .F      MOVCS    r2,r0
        0x0001df6e:    f104009c    ....    ADD      r0,r4,#0x9c
        0x0001df72:    9200        ..      STR      r2,[sp,#0]
        0x0001df74:    f7fefabd    ....    BL       am_hal_queue_item_get ; 0x1c4f2
        0x0001df78:    bb28        (.      CBNZ     r0,0x1dfc6 ; nonblocking_read_sm + 246
        0x0001df7a:    f884502c    ..,P    STRB     r5,[r4,#0x2c]
        0x0001df7e:    6c62        bl      LDR      r2,[r4,#0x44]
        0x0001df80:    b30a        ..      CBZ      r2,0x1dfc6 ; nonblocking_read_sm + 246
        0x0001df82:    2001        .       MOVS     r0,#1
        0x0001df84:    6ca1        .l      LDR      r1,[r4,#0x48]
        0x0001df86:    4790        .G      BLX      r2
        0x0001df88:    b00a        ..      ADD      sp,sp,#0x28
        0x0001df8a:    e8bd81f0    ....    POP      {r4-r8,pc}
        0x0001df8e:    2000        .       MOVS     r0,#0
        0x0001df90:    6a63        cj      LDR      r3,[r4,#0x24]
        0x0001df92:    466e        nF      MOV      r6,sp
        0x0001df94:    2a00        .*      CMP      r2,#0
        0x0001df96:    bf82        ..      ITTT     HI
        0x0001df98:    031b        ..      LSLHI    r3,r3,#12
        0x0001df9a:    f1034c80    ...L    ADDHI    r12,r3,#0x40000000
        0x0001df9e:    f50c3ce0    ...<    ADDHI    r12,r12,#0x1c000
        0x0001dfa2:    d90d        ..      BLS      0x1dfc0 ; nonblocking_read_sm + 240
        0x0001dfa4:    f8dc3018    ...0    LDR      r3,[r12,#0x18]
        0x0001dfa8:    f0130f10    ....    TST      r3,#0x10
        0x0001dfac:    bf04        ..      ITT      EQ
        0x0001dfae:    f8dc3000    ...0    LDREQ    r3,[r12,#0]
        0x0001dfb2:    f4136f70    ..po    TSTEQ    r3,#0xf00
        0x0001dfb6:    d103        ..      BNE      0x1dfc0 ; nonblocking_read_sm + 240
        0x0001dfb8:    540b        .T      STRB     r3,[r1,r0]
        0x0001dfba:    1c40        @.      ADDS     r0,r0,#1
        0x0001dfbc:    4290        .B      CMP      r0,r2
        0x0001dfbe:    d3f1        ..      BCC      0x1dfa4 ; nonblocking_read_sm + 212
        0x0001dfc0:    2e00        ..      CMP      r6,#0
        0x0001dfc2:    bf18        ..      IT       NE
        0x0001dfc4:    9000        ..      STRNE    r0,[sp,#0]
        0x0001dfc6:    6d20         m      LDR      r0,[r4,#0x50]
        0x0001dfc8:    9900        ..      LDR      r1,[sp,#0]
        0x0001dfca:    4408        .D      ADD      r0,r0,r1
        0x0001dfcc:    6520         e      STR      r0,[r4,#0x50]
        0x0001dfce:    9801        ..      LDR      r0,[sp,#4]
        0x0001dfd0:    f7faf9cc    ....    BL       am_hal_interrupt_master_set ; 0x1836c
        0x0001dfd4:    6d20         m      LDR      r0,[r4,#0x50]
        0x0001dfd6:    6be1        .k      LDR      r1,[r4,#0x3c]
        0x0001dfd8:    6008        .`      STR      r0,[r1,#0]
        0x0001dfda:    6d20         m      LDR      r0,[r4,#0x50]
        0x0001dfdc:    6ba1        .k      LDR      r1,[r4,#0x38]
        0x0001dfde:    4288        .B      CMP      r0,r1
        0x0001dfe0:    bf1c        ..      ITT      NE
        0x0001dfe2:    b00a        ..      ADDNE    sp,sp,#0x28
        0x0001dfe4:    e8bd81f0    ....    POPNE    {r4-r8,pc}
        0x0001dfe8:    f884502c    ..,P    STRB     r5,[r4,#0x2c]
        0x0001dfec:    6c62        bl      LDR      r2,[r4,#0x44]
        0x0001dfee:    2a00        .*      CMP      r2,#0
        0x0001dff0:    bf04        ..      ITT      EQ
        0x0001dff2:    b00a        ..      ADDEQ    sp,sp,#0x28
        0x0001dff4:    e8bd81f0    ....    POPEQ    {r4-r8,pc}
        0x0001dff8:    2000        .       MOVS     r0,#0
        0x0001dffa:    6ca1        .l      LDR      r1,[r4,#0x48]
        0x0001dffc:    b00a        ..      ADD      sp,sp,#0x28
        0x0001dffe:    e8bd41f0    ...A    POP      {r4-r8,lr}
        0x0001e002:    4710        .G      BX       r2
    i.nonblocking_write_sm
    nonblocking_write_sm
        0x0001e004:    b5f0        ..      PUSH     {r4-r7,lr}
        0x0001e006:    4604        .F      MOV      r4,r0
        0x0001e008:    f8900054    ..T.    LDRB     r0,[r0,#0x54]
        0x0001e00c:    2600        .&      MOVS     r6,#0
        0x0001e00e:    b083        ..      SUB      sp,sp,#0xc
        0x0001e010:    2800        .(      CMP      r0,#0
        0x0001e012:    d049        I.      BEQ      0x1e0a8 ; nonblocking_write_sm + 164
        0x0001e014:    f7faf9a6    ....    BL       am_hal_interrupt_master_disable ; 0x18364
        0x0001e018:    9001        ..      STR      r0,[sp,#4]
        0x0001e01a:    6fa0        .o      LDR      r0,[r4,#0x78]
        0x0001e01c:    6e21        !n      LDR      r1,[r4,#0x60]
        0x0001e01e:    1a0a        ..      SUBS     r2,r1,r0
        0x0001e020:    6de1        .m      LDR      r1,[r4,#0x5c]
        0x0001e022:    4401        .D      ADD      r1,r1,r0
        0x0001e024:    f894007c    ..|.    LDRB     r0,[r4,#0x7c]
        0x0001e028:    b1b8        ..      CBZ      r0,0x1e05a ; nonblocking_write_sm + 86
        0x0001e02a:    f8d4308c    ...0    LDR      r3,[r4,#0x8c]
        0x0001e02e:    f8d40088    ....    LDR      r0,[r4,#0x88]
        0x0001e032:    1a18        ..      SUBS     r0,r3,r0
        0x0001e034:    4282        .B      CMP      r2,r0
        0x0001e036:    bf28        (.      IT       CS
        0x0001e038:    4602        .F      MOVCS    r2,r0
        0x0001e03a:    f1040080    ....    ADD      r0,r4,#0x80
        0x0001e03e:    9200        ..      STR      r2,[sp,#0]
        0x0001e040:    f7fefa2c    ..,.    BL       am_hal_queue_item_add ; 0x1c49c
        0x0001e044:    bb48        H.      CBNZ     r0,0x1e09a ; nonblocking_write_sm + 150
        0x0001e046:    f8846054    ..T`    STRB     r6,[r4,#0x54]
        0x0001e04a:    6ee2        .n      LDR      r2,[r4,#0x6c]
        0x0001e04c:    4620         F      MOV      r0,r4
        0x0001e04e:    b322        ".      CBZ      r2,0x1e09a ; nonblocking_write_sm + 150
        0x0001e050:    6f01        .o      LDR      r1,[r0,#0x70]
        0x0001e052:    2001        .       MOVS     r0,#1
        0x0001e054:    4790        .G      BLX      r2
        0x0001e056:    b003        ..      ADD      sp,sp,#0xc
        0x0001e058:    bdf0        ..      POP      {r4-r7,pc}
        0x0001e05a:    f8d4c024    ..$.    LDR      r12,[r4,#0x24]
        0x0001e05e:    466d        mF      MOV      r5,sp
        0x0001e060:    2300        .#      MOVS     r3,#0
        0x0001e062:    b1ba        ..      CBZ      r2,0x1e094 ; nonblocking_write_sm + 144
        0x0001e064:    f1b24f00    ...O    CMP      r2,#0x80000000
        0x0001e068:    d266        f.      BCS      0x1e138 ; nonblocking_write_sm + 308
        0x0001e06a:    2001        .       MOVS     r0,#1
        0x0001e06c:    2a01        .*      CMP      r2,#1
        0x0001e06e:    db11        ..      BLT      0x1e094 ; nonblocking_write_sm + 144
        0x0001e070:    ea4f3c0c    O..<    LSL      r12,r12,#12
        0x0001e074:    f10c4c80    ...L    ADD      r12,r12,#0x40000000
        0x0001e078:    f50c3ce0    ...<    ADD      r12,r12,#0x1c000
        0x0001e07c:    f8dc7018    ...p    LDR      r7,[r12,#0x18]
        0x0001e080:    f0170f20    .. .    TST      r7,#0x20
        0x0001e084:    d106        ..      BNE      0x1e094 ; nonblocking_write_sm + 144
        0x0001e086:    5ccf        .\      LDRB     r7,[r1,r3]
        0x0001e088:    f8cc7000    ...p    STR      r7,[r12,#0]
        0x0001e08c:    1c40        @.      ADDS     r0,r0,#1
        0x0001e08e:    1c5b        [.      ADDS     r3,r3,#1
        0x0001e090:    4290        .B      CMP      r0,r2
        0x0001e092:    ddf3        ..      BLE      0x1e07c ; nonblocking_write_sm + 120
        0x0001e094:    2d00        .-      CMP      r5,#0
        0x0001e096:    bf18        ..      IT       NE
        0x0001e098:    9300        ..      STRNE    r3,[sp,#0]
        0x0001e09a:    6fa0        .o      LDR      r0,[r4,#0x78]
        0x0001e09c:    9900        ..      LDR      r1,[sp,#0]
        0x0001e09e:    4401        .D      ADD      r1,r1,r0
        0x0001e0a0:    67a1        .g      STR      r1,[r4,#0x78]
        0x0001e0a2:    9801        ..      LDR      r0,[sp,#4]
        0x0001e0a4:    f7faf962    ..b.    BL       am_hal_interrupt_master_set ; 0x1836c
        0x0001e0a8:    f894007c    ..|.    LDRB     r0,[r4,#0x7c]
        0x0001e0ac:    b340        @.      CBZ      r0,0x1e100 ; nonblocking_write_sm + 252
        0x0001e0ae:    4625        %F      MOV      r5,r4
        0x0001e0b0:    6a67        gj      LDR      r7,[r4,#0x24]
        0x0001e0b2:    f7faf957    ..W.    BL       am_hal_interrupt_master_disable ; 0x18364
        0x0001e0b6:    9001        ..      STR      r0,[sp,#4]
        0x0001e0b8:    0338        8.      LSLS     r0,r7,#12
        0x0001e0ba:    f1004780    ...G    ADD      r7,r0,#0x40000000
        0x0001e0be:    f50737e0    ...7    ADD      r7,r7,#0x1c000
        0x0001e0c2:    69b8        .i      LDR      r0,[r7,#0x18]
        0x0001e0c4:    f0100f20    .. .    TST      r0,#0x20
        0x0001e0c8:    d117        ..      BNE      0x1e0fa ; nonblocking_write_sm + 246
        0x0001e0ca:    2201        ."      MOVS     r2,#1
        0x0001e0cc:    4669        iF      MOV      r1,sp
        0x0001e0ce:    f1050080    ....    ADD      r0,r5,#0x80
        0x0001e0d2:    f7fefa0e    ....    BL       am_hal_queue_item_get ; 0x1c4f2
        0x0001e0d6:    b180        ..      CBZ      r0,0x1e0fa ; nonblocking_write_sm + 246
        0x0001e0d8:    6a68        hj      LDR      r0,[r5,#0x24]
        0x0001e0da:    0300        ..      LSLS     r0,r0,#12
        0x0001e0dc:    f1004080    ...@    ADD      r0,r0,#0x40000000
        0x0001e0e0:    f50030e0    ...0    ADD      r0,r0,#0x1c000
        0x0001e0e4:    6981        .i      LDR      r1,[r0,#0x18]
        0x0001e0e6:    f0110f20    .. .    TST      r1,#0x20
        0x0001e0ea:    bf04        ..      ITT      EQ
        0x0001e0ec:    f89d1000    ....    LDRBEQ   r1,[sp,#0]
        0x0001e0f0:    6001        .`      STREQ    r1,[r0,#0]
        0x0001e0f2:    69b8        .i      LDR      r0,[r7,#0x18]
        0x0001e0f4:    f0100f20    .. .    TST      r0,#0x20
        0x0001e0f8:    d0e7        ..      BEQ      0x1e0ca ; nonblocking_write_sm + 198
        0x0001e0fa:    9801        ..      LDR      r0,[sp,#4]
        0x0001e0fc:    f7faf936    ..6.    BL       am_hal_interrupt_master_set ; 0x1836c
        0x0001e100:    6fa0        .o      LDR      r0,[r4,#0x78]
        0x0001e102:    6e61        an      LDR      r1,[r4,#0x64]
        0x0001e104:    6008        .`      STR      r0,[r1,#0]
        0x0001e106:    6fa0        .o      LDR      r0,[r4,#0x78]
        0x0001e108:    6e21        !n      LDR      r1,[r4,#0x60]
        0x0001e10a:    4288        .B      CMP      r0,r1
        0x0001e10c:    bf1c        ..      ITT      NE
        0x0001e10e:    b003        ..      ADDNE    sp,sp,#0xc
        0x0001e110:    bdf0        ..      POPNE    {r4-r7,pc}
        0x0001e112:    f8940054    ..T.    LDRB     r0,[r4,#0x54]
        0x0001e116:    2800        .(      CMP      r0,#0
        0x0001e118:    bf04        ..      ITT      EQ
        0x0001e11a:    b003        ..      ADDEQ    sp,sp,#0xc
        0x0001e11c:    bdf0        ..      POPEQ    {r4-r7,pc}
        0x0001e11e:    f8846054    ..T`    STRB     r6,[r4,#0x54]
        0x0001e122:    6ee2        .n      LDR      r2,[r4,#0x6c]
        0x0001e124:    2a00        .*      CMP      r2,#0
        0x0001e126:    bf04        ..      ITT      EQ
        0x0001e128:    b003        ..      ADDEQ    sp,sp,#0xc
        0x0001e12a:    bdf0        ..      POPEQ    {r4-r7,pc}
        0x0001e12c:    2000        .       MOVS     r0,#0
        0x0001e12e:    6f21        !o      LDR      r1,[r4,#0x70]
        0x0001e130:    b003        ..      ADD      sp,sp,#0xc
        0x0001e132:    e8bd40f0    ...@    POP      {r4-r7,lr}
        0x0001e136:    4710        .G      BX       r2
        0x0001e138:    ea4f300c    O..0    LSL      r0,r12,#12
        0x0001e13c:    f1004080    ...@    ADD      r0,r0,#0x40000000
        0x0001e140:    f50030e0    ...0    ADD      r0,r0,#0x1c000
        0x0001e144:    f8d0c018    ....    LDR      r12,[r0,#0x18]
        0x0001e148:    f01c0f20    .. .    TST      r12,#0x20
        0x0001e14c:    d1a2        ..      BNE      0x1e094 ; nonblocking_write_sm + 144
        0x0001e14e:    f811c003    ....    LDRB     r12,[r1,r3]
        0x0001e152:    f8c0c000    ....    STR      r12,[r0,#0]
        0x0001e156:    1c5b        [.      ADDS     r3,r3,#1
        0x0001e158:    4293        .B      CMP      r3,r2
        0x0001e15a:    d3f3        ..      BCC      0x1e144 ; nonblocking_write_sm + 320
        0x0001e15c:    e79a        ..      B        0x1e094 ; nonblocking_write_sm + 144
    i.padbuffer
    padbuffer
        0x0001e15e:    b530        0.      PUSH     {r4,r5,lr}
        0x0001e160:    4603        .F      MOV      r3,r0
        0x0001e162:    2000        .       MOVS     r0,#0
        0x0001e164:    2a00        .*      CMP      r2,#0
        0x0001e166:    dc00        ..      BGT      0x1e16a ; padbuffer + 12
        0x0001e168:    bd30        0.      POP      {r4,r5,pc}
        0x0001e16a:    e003        ..      B        0x1e174 ; padbuffer + 22
        0x0001e16c:    b10b        ..      CBZ      r3,0x1e172 ; padbuffer + 20
        0x0001e16e:    f8031b01    ....    STRB     r1,[r3],#1
        0x0001e172:    1c40        @.      ADDS     r0,r0,#1
        0x0001e174:    1e14        ..      SUBS     r4,r2,#0
        0x0001e176:    f1a20201    ....    SUB      r2,r2,#1
        0x0001e17a:    d1f7        ..      BNE      0x1e16c ; padbuffer + 14
        0x0001e17c:    bf00        ..      NOP      
        0x0001e17e:    e7f3        ..      B        0x1e168 ; padbuffer + 10
    i.running_done_gpio_init
    running_done_gpio_init
        0x0001e180:    b508        ..      PUSH     {r3,lr}
        0x0001e182:    480b        .H      LDR      r0,[pc,#44] ; [0x1e1b0] = 0x1ee20
        0x0001e184:    6800        .h      LDR      r0,[r0,#0]
        0x0001e186:    9000        ..      STR      r0,[sp,#0]
        0x0001e188:    201f        .       MOVS     r0,#0x1f
        0x0001e18a:    9900        ..      LDR      r1,[sp,#0]
        0x0001e18c:    f7fcfa9c    ....    BL       am_hal_gpio_pinconfig ; 0x1a6c8
        0x0001e190:    2100        .!      MOVS     r1,#0
        0x0001e192:    201f        .       MOVS     r0,#0x1f
        0x0001e194:    f7fcfad6    ....    BL       am_hal_gpio_state_write ; 0x1a744
        0x0001e198:    4805        .H      LDR      r0,[pc,#20] ; [0x1e1b0] = 0x1ee20
        0x0001e19a:    6800        .h      LDR      r0,[r0,#0]
        0x0001e19c:    9000        ..      STR      r0,[sp,#0]
        0x0001e19e:    2020                MOVS     r0,#0x20
        0x0001e1a0:    9900        ..      LDR      r1,[sp,#0]
        0x0001e1a2:    f7fcfa91    ....    BL       am_hal_gpio_pinconfig ; 0x1a6c8
        0x0001e1a6:    2100        .!      MOVS     r1,#0
        0x0001e1a8:    2020                MOVS     r0,#0x20
        0x0001e1aa:    f7fcfacb    ....    BL       am_hal_gpio_state_write ; 0x1a744
        0x0001e1ae:    bd08        ..      POP      {r3,pc}
    $d
        0x0001e1b0:    0001ee20     ...    DCD    126496
    $t
    i.running_done_gpio_set
    running_done_gpio_set
        0x0001e1b4:    b570        p.      PUSH     {r4-r6,lr}
        0x0001e1b6:    4604        .F      MOV      r4,r0
        0x0001e1b8:    460d        .F      MOV      r5,r1
        0x0001e1ba:    4621        !F      MOV      r1,r4
        0x0001e1bc:    201f        .       MOVS     r0,#0x1f
        0x0001e1be:    f7fcfac1    ....    BL       am_hal_gpio_state_write ; 0x1a744
        0x0001e1c2:    4629        )F      MOV      r1,r5
        0x0001e1c4:    2020                MOVS     r0,#0x20
        0x0001e1c6:    f7fcfabd    ....    BL       am_hal_gpio_state_write ; 0x1a744
        0x0001e1ca:    bd70        p.      POP      {r4-r6,pc}
    i.send_data
    send_data
        0x0001e1cc:    e92d43f8    -..C    PUSH     {r3-r9,lr}
        0x0001e1d0:    4607        .F      MOV      r7,r0
        0x0001e1d2:    4688        .F      MOV      r8,r1
        0x0001e1d4:    4615        .F      MOV      r5,r2
        0x0001e1d6:    461e        .F      MOV      r6,r3
        0x0001e1d8:    480f        .H      LDR      r0,[pc,#60] ; [0x1e218] = 0x10003da4
        0x0001e1da:    6a84        .j      LDR      r4,[r0,#0x28]
        0x0001e1dc:    2008        .       MOVS     r0,#8
        0x0001e1de:    80a0        ..      STRH     r0,[r4,#4]
        0x0001e1e0:    f105000c    ....    ADD      r0,r5,#0xc
        0x0001e1e4:    80e0        ..      STRH     r0,[r4,#6]
        0x0001e1e6:    60a6        .`      STR      r6,[r4,#8]
        0x0001e1e8:    462a        *F      MOV      r2,r5
        0x0001e1ea:    4641        AF      MOV      r1,r8
        0x0001e1ec:    f104000c    ....    ADD      r0,r4,#0xc
        0x0001e1f0:    f7faf91e    ....    BL       __aeabi_memcpy ; 0x18430
        0x0001e1f4:    88e0        ..      LDRH     r0,[r4,#6]
        0x0001e1f6:    1f01        ..      SUBS     r1,r0,#4
        0x0001e1f8:    4622        "F      MOV      r2,r4
        0x0001e1fa:    1d20         .      ADDS     r0,r4,#4
        0x0001e1fc:    f7fbfee4    ....    BL       am_hal_crc32 ; 0x19fc8
        0x0001e200:    2001        .       MOVS     r0,#1
        0x0001e202:    f105030c    ....    ADD      r3,r5,#0xc
        0x0001e206:    4622        "F      MOV      r2,r4
        0x0001e208:    2100        .!      MOVS     r1,#0
        0x0001e20a:    9000        ..      STR      r0,[sp,#0]
        0x0001e20c:    4638        8F      MOV      r0,r7
        0x0001e20e:    f7fafe2d    ..-.    BL       am_devices_cooper_blocking_write ; 0x18e6c
        0x0001e212:    e8bd83f8    ....    POP      {r3-r9,pc}
    $d
        0x0001e216:    0000        ..      DCW    0
        0x0001e218:    10003da4    .=..    DCD    268451236
    $t
    i.send_fwContinue
    send_fwContinue
        0x0001e21c:    b51f        ..      PUSH     {r0-r4,lr}
        0x0001e21e:    4604        .F      MOV      r4,r0
        0x0001e220:    2004        .       MOVS     r0,#4
        0x0001e222:    f8ad0008    ....    STRH     r0,[sp,#8]
        0x0001e226:    200c        .       MOVS     r0,#0xc
        0x0001e228:    f8ad000a    ....    STRH     r0,[sp,#0xa]
        0x0001e22c:    f8bd000a    ....    LDRH     r0,[sp,#0xa]
        0x0001e230:    1f01        ..      SUBS     r1,r0,#4
        0x0001e232:    aa01        ..      ADD      r2,sp,#4
        0x0001e234:    a802        ..      ADD      r0,sp,#8
        0x0001e236:    f7fbfec7    ....    BL       am_hal_crc32 ; 0x19fc8
        0x0001e23a:    2001        .       MOVS     r0,#1
        0x0001e23c:    230c        .#      MOVS     r3,#0xc
        0x0001e23e:    aa01        ..      ADD      r2,sp,#4
        0x0001e240:    2100        .!      MOVS     r1,#0
        0x0001e242:    9000        ..      STR      r0,[sp,#0]
        0x0001e244:    4620         F      MOV      r0,r4
        0x0001e246:    f7fafe11    ....    BL       am_devices_cooper_blocking_write ; 0x18e6c
        0x0001e24a:    bd1f        ..      POP      {r0-r4,pc}
    i.send_hello
    send_hello
        0x0001e24c:    b53e        >.      PUSH     {r1-r5,lr}
        0x0001e24e:    4604        .F      MOV      r4,r0
        0x0001e250:    2000        .       MOVS     r0,#0
        0x0001e252:    f8ad0008    ....    STRH     r0,[sp,#8]
        0x0001e256:    2008        .       MOVS     r0,#8
        0x0001e258:    f8ad000a    ....    STRH     r0,[sp,#0xa]
        0x0001e25c:    f8bd000a    ....    LDRH     r0,[sp,#0xa]
        0x0001e260:    1f01        ..      SUBS     r1,r0,#4
        0x0001e262:    aa01        ..      ADD      r2,sp,#4
        0x0001e264:    a802        ..      ADD      r0,sp,#8
        0x0001e266:    f7fbfeaf    ....    BL       am_hal_crc32 ; 0x19fc8
        0x0001e26a:    2001        .       MOVS     r0,#1
        0x0001e26c:    2308        .#      MOVS     r3,#8
        0x0001e26e:    aa01        ..      ADD      r2,sp,#4
        0x0001e270:    2100        .!      MOVS     r1,#0
        0x0001e272:    9000        ..      STR      r0,[sp,#0]
        0x0001e274:    4620         F      MOV      r0,r4
        0x0001e276:    f7fafdf9    ....    BL       am_devices_cooper_blocking_write ; 0x18e6c
        0x0001e27a:    bd3e        >.      POP      {r1-r5,pc}
    i.send_update
    send_update
        0x0001e27c:    b530        0.      PUSH     {r4,r5,lr}
        0x0001e27e:    b087        ..      SUB      sp,sp,#0x1c
        0x0001e280:    4605        .F      MOV      r5,r0
        0x0001e282:    460c        .F      MOV      r4,r1
        0x0001e284:    2003        .       MOVS     r0,#3
        0x0001e286:    f8ad0008    ....    STRH     r0,[sp,#8]
        0x0001e28a:    2018        .       MOVS     r0,#0x18
        0x0001e28c:    f8ad000a    ....    STRH     r0,[sp,#0xa]
        0x0001e290:    9403        ..      STR      r4,[sp,#0xc]
        0x0001e292:    4818        .H      LDR      r0,[pc,#96] ; [0x1e2f4] = 0x10003da4
        0x0001e294:    6ac0        .j      LDR      r0,[r0,#0x2c]
        0x0001e296:    4918        .I      LDR      r1,[pc,#96] ; [0x1e2f8] = 0x10003de4
        0x0001e298:    68c9        .h      LDR      r1,[r1,#0xc]
        0x0001e29a:    4288        .B      CMP      r0,r1
        0x0001e29c:    d305        ..      BCC      0x1e2aa ; send_update + 46
        0x0001e29e:    4815        .H      LDR      r0,[pc,#84] ; [0x1e2f4] = 0x10003da4
        0x0001e2a0:    f8900034    ..4.    LDRB     r0,[r0,#0x34]
        0x0001e2a4:    f0000001    ....    AND      r0,r0,#1
        0x0001e2a8:    b118        ..      CBZ      r0,0x1e2b2 ; send_update + 54
        0x0001e2aa:    4813        .H      LDR      r0,[pc,#76] ; [0x1e2f8] = 0x10003de4
        0x0001e2ac:    68c0        .h      LDR      r0,[r0,#0xc]
        0x0001e2ae:    9006        ..      STR      r0,[sp,#0x18]
        0x0001e2b0:    e002        ..      B        0x1e2b8 ; send_update + 60
        0x0001e2b2:    4810        .H      LDR      r0,[pc,#64] ; [0x1e2f4] = 0x10003da4
        0x0001e2b4:    6ac0        .j      LDR      r0,[r0,#0x2c]
        0x0001e2b6:    9006        ..      STR      r0,[sp,#0x18]
        0x0001e2b8:    480e        .H      LDR      r0,[pc,#56] ; [0x1e2f4] = 0x10003da4
        0x0001e2ba:    6980        .i      LDR      r0,[r0,#0x18]
        0x0001e2bc:    1c40        @.      ADDS     r0,r0,#1
        0x0001e2be:    9005        ..      STR      r0,[sp,#0x14]
        0x0001e2c0:    9803        ..      LDR      r0,[sp,#0xc]
        0x0001e2c2:    b918        ..      CBNZ     r0,0x1e2cc ; send_update + 80
        0x0001e2c4:    f04f30ff    O..0    MOV      r0,#0xffffffff
        0x0001e2c8:    9004        ..      STR      r0,[sp,#0x10]
        0x0001e2ca:    e002        ..      B        0x1e2d2 ; send_update + 86
        0x0001e2cc:    f44f7000    O..p    MOV      r0,#0x200
        0x0001e2d0:    9004        ..      STR      r0,[sp,#0x10]
        0x0001e2d2:    f8bd000a    ....    LDRH     r0,[sp,#0xa]
        0x0001e2d6:    1f01        ..      SUBS     r1,r0,#4
        0x0001e2d8:    aa01        ..      ADD      r2,sp,#4
        0x0001e2da:    a802        ..      ADD      r0,sp,#8
        0x0001e2dc:    f7fbfe74    ..t.    BL       am_hal_crc32 ; 0x19fc8
        0x0001e2e0:    2001        .       MOVS     r0,#1
        0x0001e2e2:    2318        .#      MOVS     r3,#0x18
        0x0001e2e4:    aa01        ..      ADD      r2,sp,#4
        0x0001e2e6:    2100        .!      MOVS     r1,#0
        0x0001e2e8:    9000        ..      STR      r0,[sp,#0]
        0x0001e2ea:    4628        (F      MOV      r0,r5
        0x0001e2ec:    f7fafdbe    ....    BL       am_devices_cooper_blocking_write ; 0x18e6c
        0x0001e2f0:    b007        ..      ADD      sp,sp,#0x1c
        0x0001e2f2:    bd30        0.      POP      {r4,r5,pc}
    $d
        0x0001e2f4:    10003da4    .=..    DCD    268451236
        0x0001e2f8:    10003de4    .=..    DCD    268451300
    $t
    i.serial_data_read
    serial_data_read
        0x0001e2fc:    b530        0.      PUSH     {r4,r5,lr}
        0x0001e2fe:    b089        ..      SUB      sp,sp,#0x24
        0x0001e300:    4605        .F      MOV      r5,r0
        0x0001e302:    460c        .F      MOV      r4,r1
        0x0001e304:    2220         "      MOVS     r2,#0x20
        0x0001e306:    4906        .I      LDR      r1,[pc,#24] ; [0x1e320] = 0x1ecd8
        0x0001e308:    a801        ..      ADD      r0,sp,#4
        0x0001e30a:    f7faf8d6    ....    BL       __aeabi_memcpy4 ; 0x184ba
        0x0001e30e:    9502        ..      STR      r5,[sp,#8]
        0x0001e310:    9404        ..      STR      r4,[sp,#0x10]
        0x0001e312:    a901        ..      ADD      r1,sp,#4
        0x0001e314:    4803        .H      LDR      r0,[pc,#12] ; [0x1e324] = 0x10000000
        0x0001e316:    6800        .h      LDR      r0,[r0,#0]
        0x0001e318:    f7fefc24    ..$.    BL       am_hal_uart_transfer ; 0x1cb64
        0x0001e31c:    b009        ..      ADD      sp,sp,#0x24
        0x0001e31e:    bd30        0.      POP      {r4,r5,pc}
    $d
        0x0001e320:    0001ecd8    ....    DCD    126168
        0x0001e324:    10000000    ....    DCD    268435456
    $t
    i.serial_data_write
    serial_data_write
        0x0001e328:    b530        0.      PUSH     {r4,r5,lr}
        0x0001e32a:    b089        ..      SUB      sp,sp,#0x24
        0x0001e32c:    4605        .F      MOV      r5,r0
        0x0001e32e:    460c        .F      MOV      r4,r1
        0x0001e330:    2000        .       MOVS     r0,#0
        0x0001e332:    9008        ..      STR      r0,[sp,#0x20]
        0x0001e334:    2220         "      MOVS     r2,#0x20
        0x0001e336:    4907        .I      LDR      r1,[pc,#28] ; [0x1e354] = 0x1ecf8
        0x0001e338:    4668        hF      MOV      r0,sp
        0x0001e33a:    f7faf8be    ....    BL       __aeabi_memcpy4 ; 0x184ba
        0x0001e33e:    9501        ..      STR      r5,[sp,#4]
        0x0001e340:    9402        ..      STR      r4,[sp,#8]
        0x0001e342:    a808        ..      ADD      r0,sp,#0x20
        0x0001e344:    9003        ..      STR      r0,[sp,#0xc]
        0x0001e346:    4669        iF      MOV      r1,sp
        0x0001e348:    4803        .H      LDR      r0,[pc,#12] ; [0x1e358] = 0x10000000
        0x0001e34a:    6800        .h      LDR      r0,[r0,#0]
        0x0001e34c:    f7fefc0a    ....    BL       am_hal_uart_transfer ; 0x1cb64
        0x0001e350:    b009        ..      ADD      sp,sp,#0x24
        0x0001e352:    bd30        0.      POP      {r4,r5,pc}
    $d
        0x0001e354:    0001ecf8    ....    DCD    126200
        0x0001e358:    10000000    ....    DCD    268435456
    $t
    i.serial_interface_init
    serial_interface_init
        0x0001e35c:    b51f        ..      PUSH     {r0-r4,lr}
        0x0001e35e:    a01d        ..      ADR      r0,{pc}+0x76 ; 0x1e3d4
        0x0001e360:    f7fefe78    ..x.    BL       am_util_stdio_printf ; 0x1d054
        0x0001e364:    4a22        "J      LDR      r2,[pc,#136] ; [0x1e3f0] = 0x1eccc
        0x0001e366:    ca07        ..      LDM      r2,{r0-r2}
        0x0001e368:    ab01        ..      ADD      r3,sp,#4
        0x0001e36a:    c307        ..      STM      r3!,{r0-r2}
        0x0001e36c:    4921        !I      LDR      r1,[pc,#132] ; [0x1e3f4] = 0x10000000
        0x0001e36e:    2002        .       MOVS     r0,#2
        0x0001e370:    f7feface    ....    BL       am_hal_uart_initialize ; 0x1c910
        0x0001e374:    2200        ."      MOVS     r2,#0
        0x0001e376:    4611        .F      MOV      r1,r2
        0x0001e378:    481e        .H      LDR      r0,[pc,#120] ; [0x1e3f4] = 0x10000000
        0x0001e37a:    6800        .h      LDR      r0,[r0,#0]
        0x0001e37c:    f7fefb7e    ..~.    BL       am_hal_uart_power_control ; 0x1ca7c
        0x0001e380:    a901        ..      ADD      r1,sp,#4
        0x0001e382:    481c        .H      LDR      r0,[pc,#112] ; [0x1e3f4] = 0x10000000
        0x0001e384:    6800        .h      LDR      r0,[r0,#0]
        0x0001e386:    f7fef9ed    ....    BL       am_hal_uart_configure ; 0x1c764
        0x0001e38a:    2000        .       MOVS     r0,#0
        0x0001e38c:    4603        .F      MOV      r3,r0
        0x0001e38e:    f44f6200    O..b    MOV      r2,#0x800
        0x0001e392:    4919        .I      LDR      r1,[pc,#100] ; [0x1e3f8] = 0x10000200
        0x0001e394:    9000        ..      STR      r0,[sp,#0]
        0x0001e396:    4817        .H      LDR      r0,[pc,#92] ; [0x1e3f4] = 0x10000000
        0x0001e398:    6800        .h      LDR      r0,[r0,#0]
        0x0001e39a:    f7fef9a9    ....    BL       am_hal_uart_buffer_configure ; 0x1c6f0
        0x0001e39e:    4817        .H      LDR      r0,[pc,#92] ; [0x1e3fc] = 0x10000114
        0x0001e3a0:    6800        .h      LDR      r0,[r0,#0]
        0x0001e3a2:    9000        ..      STR      r0,[sp,#0]
        0x0001e3a4:    200d        .       MOVS     r0,#0xd
        0x0001e3a6:    9900        ..      LDR      r1,[sp,#0]
        0x0001e3a8:    f7fcf98e    ....    BL       am_hal_gpio_pinconfig ; 0x1a6c8
        0x0001e3ac:    4814        .H      LDR      r0,[pc,#80] ; [0x1e400] = 0x10000118
        0x0001e3ae:    6800        .h      LDR      r0,[r0,#0]
        0x0001e3b0:    9000        ..      STR      r0,[sp,#0]
        0x0001e3b2:    200b        .       MOVS     r0,#0xb
        0x0001e3b4:    9900        ..      LDR      r1,[sp,#0]
        0x0001e3b6:    f7fcf987    ....    BL       am_hal_gpio_pinconfig ; 0x1a6c8
        0x0001e3ba:    2104        .!      MOVS     r1,#4
        0x0001e3bc:    2011        .       MOVS     r0,#0x11
        0x0001e3be:    f7faf97d    ..}.    BL       __NVIC_SetPriority ; 0x186bc
        0x0001e3c2:    2011        .       MOVS     r0,#0x11
        0x0001e3c4:    f7faf969    ..i.    BL       __NVIC_EnableIRQ ; 0x1869a
        0x0001e3c8:    2150        P!      MOVS     r1,#0x50
        0x0001e3ca:    480a        .H      LDR      r0,[pc,#40] ; [0x1e3f4] = 0x10000000
        0x0001e3cc:    6800        .h      LDR      r0,[r0,#0]
        0x0001e3ce:    f7fefaf7    ....    BL       am_hal_uart_interrupt_enable ; 0x1c9c0
        0x0001e3d2:    bd1f        ..      POP      {r0-r4,pc}
    $d
        0x0001e3d4:    6c6f7041    Apol    DCD    1819242561
        0x0001e3d8:    20346f6c    lo4     DCD    540307308
        0x0001e3dc:    54524155    UART    DCD    1414676821
        0x0001e3e0:    206f7420     to     DCD    544175136
        0x0001e3e4:    20495053    SPI     DCD    541675603
        0x0001e3e8:    64697242    Brid    DCD    1684632130
        0x0001e3ec:    000a6567    ge..    DCD    681319
        0x0001e3f0:    0001eccc    ....    DCD    126156
        0x0001e3f4:    10000000    ....    DCD    268435456
        0x0001e3f8:    10000200    ....    DCD    268435968
        0x0001e3fc:    10000114    ....    DCD    268435732
        0x0001e400:    10000118    ....    DCD    268435736
    $t
    i.serial_irq_disable
    serial_irq_disable
        0x0001e404:    2011        .       MOVS     r0,#0x11
        0x0001e406:    2800        .(      CMP      r0,#0
        0x0001e408:    db0b        ..      BLT      0x1e422 ; serial_irq_disable + 30
        0x0001e40a:    f000021f    ....    AND      r2,r0,#0x1f
        0x0001e40e:    2101        .!      MOVS     r1,#1
        0x0001e410:    4091        .@      LSLS     r1,r1,r2
        0x0001e412:    4a05        .J      LDR      r2,[pc,#20] ; [0x1e428] = 0xe000e180
        0x0001e414:    0943        C.      LSRS     r3,r0,#5
        0x0001e416:    f8421023    B.#.    STR      r1,[r2,r3,LSL #2]
        0x0001e41a:    f3bf8f4f    ..O.    DSB      
        0x0001e41e:    f3bf8f6f    ..o.    ISB      
        0x0001e422:    bf00        ..      NOP      
        0x0001e424:    4770        pG      BX       lr
    $d
        0x0001e426:    0000        ..      DCW    0
        0x0001e428:    e000e180    ....    DCD    3758154112
    $t
    i.serial_irq_enable
    serial_irq_enable
        0x0001e42c:    b510        ..      PUSH     {r4,lr}
        0x0001e42e:    2104        .!      MOVS     r1,#4
        0x0001e430:    2011        .       MOVS     r0,#0x11
        0x0001e432:    f7faf943    ..C.    BL       __NVIC_SetPriority ; 0x186bc
        0x0001e436:    2011        .       MOVS     r0,#0x11
        0x0001e438:    f7faf92f    ../.    BL       __NVIC_EnableIRQ ; 0x1869a
        0x0001e43c:    bd10        ..      POP      {r4,pc}
        0x0001e43e:    0000        ..      MOVS     r0,r0
    i.serial_rx_hci_state_machine
    serial_rx_hci_state_machine
        0x0001e440:    e92d41f0    -..A    PUSH     {r4-r8,lr}
        0x0001e444:    4604        .F      MOV      r4,r0
        0x0001e446:    460d        .F      MOV      r5,r1
        0x0001e448:    2700        .'      MOVS     r7,#0
        0x0001e44a:    e0a6        ..      B        0x1e59a ; serial_rx_hci_state_machine + 346
        0x0001e44c:    7826        &x      LDRB     r6,[r4,#0]
        0x0001e44e:    4855        UH      LDR      r0,[pc,#340] ; [0x1e5a4] = 0x1000008c
        0x0001e450:    7800        .x      LDRB     r0,[r0,#0]
        0x0001e452:    b968        h.      CBNZ     r0,0x1e470 ; serial_rx_hci_state_machine + 48
        0x0001e454:    4854        TH      LDR      r0,[pc,#336] ; [0x1e5a8] = 0x1000008d
        0x0001e456:    7006        .p      STRB     r6,[r0,#0]
        0x0001e458:    2000        .       MOVS     r0,#0
        0x0001e45a:    4954        TI      LDR      r1,[pc,#336] ; [0x1e5ac] = 0x1000008e
        0x0001e45c:    8008        ..      STRH     r0,[r1,#0]
        0x0001e45e:    2001        .       MOVS     r0,#1
        0x0001e460:    4950        PI      LDR      r1,[pc,#320] ; [0x1e5a4] = 0x1000008c
        0x0001e462:    7008        .p      STRB     r0,[r1,#0]
        0x0001e464:    1c64        d.      ADDS     r4,r4,#1
        0x0001e466:    1c78        x.      ADDS     r0,r7,#1
        0x0001e468:    b287        ..      UXTH     r7,r0
        0x0001e46a:    1e68        h.      SUBS     r0,r5,#1
        0x0001e46c:    b285        ..      UXTH     r5,r0
        0x0001e46e:    e088        ..      B        0x1e582 ; serial_rx_hci_state_machine + 322
        0x0001e470:    484c        LH      LDR      r0,[pc,#304] ; [0x1e5a4] = 0x1000008c
        0x0001e472:    7800        .x      LDRB     r0,[r0,#0]
        0x0001e474:    2801        .(      CMP      r0,#1
        0x0001e476:    d168        h.      BNE      0x1e54a ; serial_rx_hci_state_machine + 266
        0x0001e478:    2100        .!      MOVS     r1,#0
        0x0001e47a:    2200        ."      MOVS     r2,#0
        0x0001e47c:    484a        JH      LDR      r0,[pc,#296] ; [0x1e5a8] = 0x1000008d
        0x0001e47e:    7800        .x      LDRB     r0,[r0,#0]
        0x0001e480:    2801        .(      CMP      r0,#1
        0x0001e482:    d101        ..      BNE      0x1e488 ; serial_rx_hci_state_machine + 72
        0x0001e484:    2103        .!      MOVS     r1,#3
        0x0001e486:    e00b        ..      B        0x1e4a0 ; serial_rx_hci_state_machine + 96
        0x0001e488:    4847        GH      LDR      r0,[pc,#284] ; [0x1e5a8] = 0x1000008d
        0x0001e48a:    7800        .x      LDRB     r0,[r0,#0]
        0x0001e48c:    2802        .(      CMP      r0,#2
        0x0001e48e:    d101        ..      BNE      0x1e494 ; serial_rx_hci_state_machine + 84
        0x0001e490:    2104        .!      MOVS     r1,#4
        0x0001e492:    e005        ..      B        0x1e4a0 ; serial_rx_hci_state_machine + 96
        0x0001e494:    2000        .       MOVS     r0,#0
        0x0001e496:    4b43        CK      LDR      r3,[pc,#268] ; [0x1e5a4] = 0x1000008c
        0x0001e498:    7018        .p      STRB     r0,[r3,#0]
        0x0001e49a:    4638        8F      MOV      r0,r7
        0x0001e49c:    e8bd81f0    ....    POP      {r4-r8,pc}
        0x0001e4a0:    4842        BH      LDR      r0,[pc,#264] ; [0x1e5ac] = 0x1000008e
        0x0001e4a2:    8800        ..      LDRH     r0,[r0,#0]
        0x0001e4a4:    4288        .B      CMP      r0,r1
        0x0001e4a6:    d00e        ..      BEQ      0x1e4c6 ; serial_rx_hci_state_machine + 134
        0x0001e4a8:    4840        @H      LDR      r0,[pc,#256] ; [0x1e5ac] = 0x1000008e
        0x0001e4aa:    8803        ..      LDRH     r3,[r0,#0]
        0x0001e4ac:    8800        ..      LDRH     r0,[r0,#0]
        0x0001e4ae:    1c40        @.      ADDS     r0,r0,#1
        0x0001e4b0:    f8dfc0f8    ....    LDR      r12,[pc,#248] ; [0x1e5ac] = 0x1000008e
        0x0001e4b4:    f8ac0000    ....    STRH     r0,[r12,#0]
        0x0001e4b8:    483d        =H      LDR      r0,[pc,#244] ; [0x1e5b0] = 0x10000090
        0x0001e4ba:    54c6        .T      STRB     r6,[r0,r3]
        0x0001e4bc:    1c64        d.      ADDS     r4,r4,#1
        0x0001e4be:    1c78        x.      ADDS     r0,r7,#1
        0x0001e4c0:    b287        ..      UXTH     r7,r0
        0x0001e4c2:    1e68        h.      SUBS     r0,r5,#1
        0x0001e4c4:    b285        ..      UXTH     r5,r0
        0x0001e4c6:    4839        9H      LDR      r0,[pc,#228] ; [0x1e5ac] = 0x1000008e
        0x0001e4c8:    8800        ..      LDRH     r0,[r0,#0]
        0x0001e4ca:    4288        .B      CMP      r0,r1
        0x0001e4cc:    d13c        <.      BNE      0x1e548 ; serial_rx_hci_state_machine + 264
        0x0001e4ce:    2000        .       MOVS     r0,#0
        0x0001e4d0:    4b35        5K      LDR      r3,[pc,#212] ; [0x1e5a8] = 0x1000008d
        0x0001e4d2:    781b        .x      LDRB     r3,[r3,#0]
        0x0001e4d4:    2b01        .+      CMP      r3,#1
        0x0001e4d6:    d102        ..      BNE      0x1e4de ; serial_rx_hci_state_machine + 158
        0x0001e4d8:    4b35        5K      LDR      r3,[pc,#212] ; [0x1e5b0] = 0x10000090
        0x0001e4da:    789a        .x      LDRB     r2,[r3,#2]
        0x0001e4dc:    e00a        ..      B        0x1e4f4 ; serial_rx_hci_state_machine + 180
        0x0001e4de:    4b32        2K      LDR      r3,[pc,#200] ; [0x1e5a8] = 0x1000008d
        0x0001e4e0:    781b        .x      LDRB     r3,[r3,#0]
        0x0001e4e2:    2b02        .+      CMP      r3,#2
        0x0001e4e4:    d106        ..      BNE      0x1e4f4 ; serial_rx_hci_state_machine + 180
        0x0001e4e6:    4b32        2K      LDR      r3,[pc,#200] ; [0x1e5b0] = 0x10000090
        0x0001e4e8:    f893c002    ....    LDRB     r12,[r3,#2]
        0x0001e4ec:    78db        .x      LDRB     r3,[r3,#3]
        0x0001e4ee:    eb0c2303    ...#    ADD      r3,r12,r3,LSL #8
        0x0001e4f2:    b29a        ..      UXTH     r2,r3
        0x0001e4f4:    4b2f        /K      LDR      r3,[pc,#188] ; [0x1e5b4] = 0x10003580
        0x0001e4f6:    f8dfc0c0    ....    LDR      r12,[pc,#192] ; [0x1e5b8] = 0x10000094
        0x0001e4fa:    f8cc3000    ...0    STR      r3,[r12,#0]
        0x0001e4fe:    2000        .       MOVS     r0,#0
        0x0001e500:    e010        ..      B        0x1e524 ; serial_rx_hci_state_machine + 228
        0x0001e502:    4b2b        +K      LDR      r3,[pc,#172] ; [0x1e5b0] = 0x10000090
        0x0001e504:    5c1b        .\      LDRB     r3,[r3,r0]
        0x0001e506:    f8dfc0b0    ....    LDR      r12,[pc,#176] ; [0x1e5b8] = 0x10000094
        0x0001e50a:    f8dcc000    ....    LDR      r12,[r12,#0]
        0x0001e50e:    f88c3000    ...0    STRB     r3,[r12,#0]
        0x0001e512:    4b29        )K      LDR      r3,[pc,#164] ; [0x1e5b8] = 0x10000094
        0x0001e514:    681b        .h      LDR      r3,[r3,#0]
        0x0001e516:    1c5b        [.      ADDS     r3,r3,#1
        0x0001e518:    f8dfc09c    ....    LDR      r12,[pc,#156] ; [0x1e5b8] = 0x10000094
        0x0001e51c:    f8cc3000    ...0    STR      r3,[r12,#0]
        0x0001e520:    1c43        C.      ADDS     r3,r0,#1
        0x0001e522:    b2d8        ..      UXTB     r0,r3
        0x0001e524:    4288        .B      CMP      r0,r1
        0x0001e526:    dbec        ..      BLT      0x1e502 ; serial_rx_hci_state_machine + 194
        0x0001e528:    4b20         K      LDR      r3,[pc,#128] ; [0x1e5ac] = 0x1000008e
        0x0001e52a:    801a        ..      STRH     r2,[r3,#0]
        0x0001e52c:    881b        ..      LDRH     r3,[r3,#0]
        0x0001e52e:    b92b        +.      CBNZ     r3,0x1e53c ; serial_rx_hci_state_machine + 252
        0x0001e530:    2303        .#      MOVS     r3,#3
        0x0001e532:    f8dfc070    ..p.    LDR      r12,[pc,#112] ; [0x1e5a4] = 0x1000008c
        0x0001e536:    f88c3000    ...0    STRB     r3,[r12,#0]
        0x0001e53a:    e004        ..      B        0x1e546 ; serial_rx_hci_state_machine + 262
        0x0001e53c:    2302        .#      MOVS     r3,#2
        0x0001e53e:    f8dfc064    ..d.    LDR      r12,[pc,#100] ; [0x1e5a4] = 0x1000008c
        0x0001e542:    f88c3000    ...0    STRB     r3,[r12,#0]
        0x0001e546:    bf00        ..      NOP      
        0x0001e548:    e01b        ..      B        0x1e582 ; serial_rx_hci_state_machine + 322
        0x0001e54a:    4816        .H      LDR      r0,[pc,#88] ; [0x1e5a4] = 0x1000008c
        0x0001e54c:    7800        .x      LDRB     r0,[r0,#0]
        0x0001e54e:    2802        .(      CMP      r0,#2
        0x0001e550:    d117        ..      BNE      0x1e582 ; serial_rx_hci_state_machine + 322
        0x0001e552:    4819        .H      LDR      r0,[pc,#100] ; [0x1e5b8] = 0x10000094
        0x0001e554:    6800        .h      LDR      r0,[r0,#0]
        0x0001e556:    7006        .p      STRB     r6,[r0,#0]
        0x0001e558:    4817        .H      LDR      r0,[pc,#92] ; [0x1e5b8] = 0x10000094
        0x0001e55a:    6800        .h      LDR      r0,[r0,#0]
        0x0001e55c:    1c40        @.      ADDS     r0,r0,#1
        0x0001e55e:    4916        .I      LDR      r1,[pc,#88] ; [0x1e5b8] = 0x10000094
        0x0001e560:    6008        .`      STR      r0,[r1,#0]
        0x0001e562:    4812        .H      LDR      r0,[pc,#72] ; [0x1e5ac] = 0x1000008e
        0x0001e564:    8800        ..      LDRH     r0,[r0,#0]
        0x0001e566:    1e40        @.      SUBS     r0,r0,#1
        0x0001e568:    4910        .I      LDR      r1,[pc,#64] ; [0x1e5ac] = 0x1000008e
        0x0001e56a:    8008        ..      STRH     r0,[r1,#0]
        0x0001e56c:    4608        .F      MOV      r0,r1
        0x0001e56e:    8800        ..      LDRH     r0,[r0,#0]
        0x0001e570:    b910        ..      CBNZ     r0,0x1e578 ; serial_rx_hci_state_machine + 312
        0x0001e572:    2003        .       MOVS     r0,#3
        0x0001e574:    490b        .I      LDR      r1,[pc,#44] ; [0x1e5a4] = 0x1000008c
        0x0001e576:    7008        .p      STRB     r0,[r1,#0]
        0x0001e578:    1c64        d.      ADDS     r4,r4,#1
        0x0001e57a:    1c78        x.      ADDS     r0,r7,#1
        0x0001e57c:    b287        ..      UXTH     r7,r0
        0x0001e57e:    1e68        h.      SUBS     r0,r5,#1
        0x0001e580:    b285        ..      UXTH     r5,r0
        0x0001e582:    4808        .H      LDR      r0,[pc,#32] ; [0x1e5a4] = 0x1000008c
        0x0001e584:    7800        .x      LDRB     r0,[r0,#0]
        0x0001e586:    2803        .(      CMP      r0,#3
        0x0001e588:    d107        ..      BNE      0x1e59a ; serial_rx_hci_state_machine + 346
        0x0001e58a:    f7ffff3b    ..;.    BL       serial_irq_disable ; 0x1e404
        0x0001e58e:    2001        .       MOVS     r0,#1
        0x0001e590:    490a        .I      LDR      r1,[pc,#40] ; [0x1e5bc] = 0x10000070
        0x0001e592:    7008        .p      STRB     r0,[r1,#0]
        0x0001e594:    2000        .       MOVS     r0,#0
        0x0001e596:    4903        .I      LDR      r1,[pc,#12] ; [0x1e5a4] = 0x1000008c
        0x0001e598:    7008        .p      STRB     r0,[r1,#0]
        0x0001e59a:    2d00        .-      CMP      r5,#0
        0x0001e59c:    f47faf56    ..V.    BNE      0x1e44c ; serial_rx_hci_state_machine + 12
        0x0001e5a0:    4638        8F      MOV      r0,r7
        0x0001e5a2:    e77b        {.      B        0x1e49c ; serial_rx_hci_state_machine + 92
    $d
        0x0001e5a4:    1000008c    ....    DCD    268435596
        0x0001e5a8:    1000008d    ....    DCD    268435597
        0x0001e5ac:    1000008e    ....    DCD    268435598
        0x0001e5b0:    10000090    ....    DCD    268435600
        0x0001e5b4:    10003580    .5..    DCD    268449152
        0x0001e5b8:    10000094    ....    DCD    268435604
        0x0001e5bc:    10000070    p...    DCD    268435568
    $t
    i.serial_rx_process
    serial_rx_process
        0x0001e5c0:    e92d43f0    -..C    PUSH     {r4-r9,lr}
        0x0001e5c4:    f2ad4d04    ...M    SUB      sp,sp,#0x404
        0x0001e5c8:    4605        .F      MOV      r5,r0
        0x0001e5ca:    460e        .F      MOV      r6,r1
        0x0001e5cc:    b105        ..      CBZ      r5,0x1e5d0 ; serial_rx_process + 16
        0x0001e5ce:    b936        6.      CBNZ     r6,0x1e5de ; serial_rx_process + 30
        0x0001e5d0:    a06c        l.      ADR      r0,{pc}+0x1b4 ; 0x1e784
        0x0001e5d2:    f7fefd3f    ..?.    BL       am_util_stdio_printf ; 0x1d054
        0x0001e5d6:    f20d4d04    ...M    ADD      sp,sp,#0x404
        0x0001e5da:    e8bd83f0    ....    POP      {r4-r9,pc}
        0x0001e5de:    4632        2F      MOV      r2,r6
        0x0001e5e0:    4629        )F      MOV      r1,r5
        0x0001e5e2:    a801        ..      ADD      r0,sp,#4
        0x0001e5e4:    f7f9ff69    ..i.    BL       __aeabi_memcpy4 ; 0x184ba
        0x0001e5e8:    2203        ."      MOVS     r2,#3
        0x0001e5ea:    496b        kI      LDR      r1,[pc,#428] ; [0x1e798] = 0x10000037
        0x0001e5ec:    a801        ..      ADD      r0,sp,#4
        0x0001e5ee:    f7f9fef3    ....    BL       memcmp ; 0x183d8
        0x0001e5f2:    2800        .(      CMP      r0,#0
        0x0001e5f4:    d13b        ;.      BNE      0x1e66e ; serial_rx_process + 174
        0x0001e5f6:    f89d0008    ....    LDRB     r0,[sp,#8]
        0x0001e5fa:    f89d1009    ....    LDRB     r1,[sp,#9]
        0x0001e5fe:    eb002801    ...(    ADD      r8,r0,r1,LSL #8
        0x0001e602:    ea4f0898    O...    LSR      r8,r8,#2
        0x0001e606:    f89d000a    ....    LDRB     r0,[sp,#0xa]
        0x0001e60a:    f89d100b    ....    LDRB     r1,[sp,#0xb]
        0x0001e60e:    eb002901    ...)    ADD      r9,r0,r1,LSL #8
        0x0001e612:    f89d000c    ....    LDRB     r0,[sp,#0xc]
        0x0001e616:    0400        ..      LSLS     r0,r0,#16
        0x0001e618:    f89d100d    ....    LDRB     r1,[sp,#0xd]
        0x0001e61c:    eb006001    ...`    ADD      r0,r0,r1,LSL #24
        0x0001e620:    4481        .D      ADD      r9,r9,r0
        0x0001e622:    485e        ^H      LDR      r0,[pc,#376] ; [0x1e79c] = 0x10003200
        0x0001e624:    495e        ^I      LDR      r1,[pc,#376] ; [0x1e7a0] = 0x10000060
        0x0001e626:    6809        .h      LDR      r1,[r1,#0]
        0x0001e628:    f8408031    @.1.    STR      r8,[r0,r1,LSL #3]
        0x0001e62c:    495c        \I      LDR      r1,[pc,#368] ; [0x1e7a0] = 0x10000060
        0x0001e62e:    6809        .h      LDR      r1,[r1,#0]
        0x0001e630:    eb0000c1    ....    ADD      r0,r0,r1,LSL #3
        0x0001e634:    f8c09004    ....    STR      r9,[r0,#4]
        0x0001e638:    4859        YH      LDR      r0,[pc,#356] ; [0x1e7a0] = 0x10000060
        0x0001e63a:    6800        .h      LDR      r0,[r0,#0]
        0x0001e63c:    1c40        @.      ADDS     r0,r0,#1
        0x0001e63e:    4958        XI      LDR      r1,[pc,#352] ; [0x1e7a0] = 0x10000060
        0x0001e640:    6008        .`      STR      r0,[r1,#0]
        0x0001e642:    464a        JF      MOV      r2,r9
        0x0001e644:    4641        AF      MOV      r1,r8
        0x0001e646:    a057        W.      ADR      r0,{pc}+0x15e ; 0x1e7a4
        0x0001e648:    f7fefd04    ....    BL       am_util_stdio_printf ; 0x1d054
        0x0001e64c:    4960        `I      LDR      r1,[pc,#384] ; [0x1e7d0] = 0x10002e00
        0x0001e64e:    4861        aH      LDR      r0,[pc,#388] ; [0x1e7d4] = 0x10000041
        0x0001e650:    6802        .h      LDR      r2,[r0,#0]
        0x0001e652:    600a        .`      STR      r2,[r1,#0]
        0x0001e654:    8882        ..      LDRH     r2,[r0,#4]
        0x0001e656:    808a        ..      STRH     r2,[r1,#4]
        0x0001e658:    7980        .y      LDRB     r0,[r0,#6]
        0x0001e65a:    7188        .q      STRB     r0,[r1,#6]
        0x0001e65c:    2707        .'      MOVS     r7,#7
        0x0001e65e:    4639        9F      MOV      r1,r7
        0x0001e660:    485b        [H      LDR      r0,[pc,#364] ; [0x1e7d0] = 0x10002e00
        0x0001e662:    f7fffe61    ..a.    BL       serial_data_write ; 0x1e328
        0x0001e666:    2001        .       MOVS     r0,#1
        0x0001e668:    f7fefc84    ....    BL       am_util_delay_ms ; 0x1cf74
        0x0001e66c:    e087        ..      B        0x1e77e ; serial_rx_process + 446
        0x0001e66e:    2203        ."      MOVS     r2,#3
        0x0001e670:    4959        YI      LDR      r1,[pc,#356] ; [0x1e7d8] = 0x10000048
        0x0001e672:    a801        ..      ADD      r0,sp,#4
        0x0001e674:    f7f9feb0    ....    BL       memcmp ; 0x183d8
        0x0001e678:    2800        .(      CMP      r0,#0
        0x0001e67a:    d174        t.      BNE      0x1e766 ; serial_rx_process + 422
        0x0001e67c:    4848        HH      LDR      r0,[pc,#288] ; [0x1e7a0] = 0x10000060
        0x0001e67e:    6800        .h      LDR      r0,[r0,#0]
        0x0001e680:    2800        .(      CMP      r0,#0
        0x0001e682:    d05f        _.      BEQ      0x1e744 ; serial_rx_process + 388
        0x0001e684:    2100        .!      MOVS     r1,#0
        0x0001e686:    2001        .       MOVS     r0,#1
        0x0001e688:    f7fffd94    ....    BL       running_done_gpio_set ; 0x1e1b4
        0x0001e68c:    4a43        CJ      LDR      r2,[pc,#268] ; [0x1e79c] = 0x10003200
        0x0001e68e:    4844        DH      LDR      r0,[pc,#272] ; [0x1e7a0] = 0x10000060
        0x0001e690:    6801        .h      LDR      r1,[r0,#0]
        0x0001e692:    4852        RH      LDR      r0,[pc,#328] ; [0x1e7dc] = 0x10003400
        0x0001e694:    f7fefffe    ....    BL       build_info0_patch ; 0x1d694
        0x0001e698:    4604        .F      MOV      r4,r0
        0x0001e69a:    b93c        <.      CBNZ     r4,0x1e6ac ; serial_rx_process + 236
        0x0001e69c:    a050        P.      ADR      r0,{pc}+0x144 ; 0x1e7e0
        0x0001e69e:    f7fefcd9    ....    BL       am_util_stdio_printf ; 0x1d054
        0x0001e6a2:    2100        .!      MOVS     r1,#0
        0x0001e6a4:    4608        .F      MOV      r0,r1
        0x0001e6a6:    f7fffd85    ....    BL       running_done_gpio_set ; 0x1e1b4
        0x0001e6aa:    e794        ..      B        0x1e5d6 ; serial_rx_process + 22
        0x0001e6ac:    4854        TH      LDR      r0,[pc,#336] ; [0x1e800] = 0x10000074
        0x0001e6ae:    f7fafd0d    ....    BL       am_devices_cooper_get_info0_patch ; 0x190cc
        0x0001e6b2:    2000        .       MOVS     r0,#0
        0x0001e6b4:    493a        :I      LDR      r1,[pc,#232] ; [0x1e7a0] = 0x10000060
        0x0001e6b6:    6008        .`      STR      r0,[r1,#0]
        0x0001e6b8:    f44f7100    O..q    MOV      r1,#0x200
        0x0001e6bc:    4837        7H      LDR      r0,[pc,#220] ; [0x1e79c] = 0x10003200
        0x0001e6be:    f7f9ff36    ..6.    BL       __aeabi_memclr4 ; 0x1852e
        0x0001e6c2:    4950        PI      LDR      r1,[pc,#320] ; [0x1e804] = 0xb35d18c9
        0x0001e6c4:    4850        PH      LDR      r0,[pc,#320] ; [0x1e808] = 0x10000084
        0x0001e6c6:    6800        .h      LDR      r0,[r0,#0]
        0x0001e6c8:    f7fefc1a    ....    BL       am_util_ble_update_sign_set ; 0x1cf00
        0x0001e6cc:    4604        .F      MOV      r4,r0
        0x0001e6ce:    b11c        ..      CBZ      r4,0x1e6d8 ; serial_rx_process + 280
        0x0001e6d0:    a04e        N.      ADR      r0,{pc}+0x13c ; 0x1e80c
        0x0001e6d2:    f7fefcbf    ....    BL       am_util_stdio_printf ; 0x1d054
        0x0001e6d6:    e77e        ~.      B        0x1e5d6 ; serial_rx_process + 22
        0x0001e6d8:    a057        W.      ADR      r0,{pc}+0x160 ; 0x1e838
        0x0001e6da:    f7fefcbb    ....    BL       am_util_stdio_printf ; 0x1d054
        0x0001e6de:    495f        _I      LDR      r1,[pc,#380] ; [0x1e85c] = 0x10000064
        0x0001e6e0:    4849        IH      LDR      r0,[pc,#292] ; [0x1e808] = 0x10000084
        0x0001e6e2:    6800        .h      LDR      r0,[r0,#0]
        0x0001e6e4:    f7fafec2    ....    BL       am_devices_cooper_reset_with_sbl_check ; 0x1946c
        0x0001e6e8:    4604        .F      MOV      r4,r0
        0x0001e6ea:    b164        d.      CBZ      r4,0x1e706 ; serial_rx_process + 326
        0x0001e6ec:    2000        .       MOVS     r0,#0
        0x0001e6ee:    4946        FI      LDR      r1,[pc,#280] ; [0x1e808] = 0x10000084
        0x0001e6f0:    6008        .`      STR      r0,[r1,#0]
        0x0001e6f2:    495b        [I      LDR      r1,[pc,#364] ; [0x1e860] = 0x10000088
        0x0001e6f4:    6008        .`      STR      r0,[r1,#0]
        0x0001e6f6:    a05b        [.      ADR      r0,{pc}+0x16e ; 0x1e864
        0x0001e6f8:    f7fefcac    ....    BL       am_util_stdio_printf ; 0x1d054
        0x0001e6fc:    2100        .!      MOVS     r1,#0
        0x0001e6fe:    4608        .F      MOV      r0,r1
        0x0001e700:    f7fffd58    ..X.    BL       running_done_gpio_set ; 0x1e1b4
        0x0001e704:    e767        g.      B        0x1e5d6 ; serial_rx_process + 22
        0x0001e706:    a062        b.      ADR      r0,{pc}+0x18a ; 0x1e890
        0x0001e708:    f7fefca4    ....    BL       am_util_stdio_printf ; 0x1d054
        0x0001e70c:    4953        SI      LDR      r1,[pc,#332] ; [0x1e85c] = 0x10000064
        0x0001e70e:    483e        >H      LDR      r0,[pc,#248] ; [0x1e808] = 0x10000084
        0x0001e710:    6800        .h      LDR      r0,[r0,#0]
        0x0001e712:    f7fafeab    ....    BL       am_devices_cooper_reset_with_sbl_check ; 0x1946c
        0x0001e716:    4604        .F      MOV      r4,r0
        0x0001e718:    b164        d.      CBZ      r4,0x1e734 ; serial_rx_process + 372
        0x0001e71a:    2000        .       MOVS     r0,#0
        0x0001e71c:    493a        :I      LDR      r1,[pc,#232] ; [0x1e808] = 0x10000084
        0x0001e71e:    6008        .`      STR      r0,[r1,#0]
        0x0001e720:    494f        OI      LDR      r1,[pc,#316] ; [0x1e860] = 0x10000088
        0x0001e722:    6008        .`      STR      r0,[r1,#0]
        0x0001e724:    a065        e.      ADR      r0,{pc}+0x198 ; 0x1e8bc
        0x0001e726:    f7fefc95    ....    BL       am_util_stdio_printf ; 0x1d054
        0x0001e72a:    2100        .!      MOVS     r1,#0
        0x0001e72c:    4608        .F      MOV      r0,r1
        0x0001e72e:    f7fffd41    ..A.    BL       running_done_gpio_set ; 0x1e1b4
        0x0001e732:    e750        P.      B        0x1e5d6 ; serial_rx_process + 22
        0x0001e734:    4834        4H      LDR      r0,[pc,#208] ; [0x1e808] = 0x10000084
        0x0001e736:    6800        .h      LDR      r0,[r0,#0]
        0x0001e738:    f7fefb9a    ....    BL       am_util_ble_hci_reset ; 0x1ce70
        0x0001e73c:    2101        .!      MOVS     r1,#1
        0x0001e73e:    2000        .       MOVS     r0,#0
        0x0001e740:    f7fffd38    ..8.    BL       running_done_gpio_set ; 0x1e1b4
        0x0001e744:    4822        "H      LDR      r0,[pc,#136] ; [0x1e7d0] = 0x10002e00
        0x0001e746:    496a        jI      LDR      r1,[pc,#424] ; [0x1e8f0] = 0x1000004c
        0x0001e748:    680a        .h      LDR      r2,[r1,#0]
        0x0001e74a:    6002        .`      STR      r2,[r0,#0]
        0x0001e74c:    888a        ..      LDRH     r2,[r1,#4]
        0x0001e74e:    8082        ..      STRH     r2,[r0,#4]
        0x0001e750:    7989        .y      LDRB     r1,[r1,#6]
        0x0001e752:    7181        .q      STRB     r1,[r0,#6]
        0x0001e754:    2707        .'      MOVS     r7,#7
        0x0001e756:    4639        9F      MOV      r1,r7
        0x0001e758:    f7fffde6    ....    BL       serial_data_write ; 0x1e328
        0x0001e75c:    2001        .       MOVS     r0,#1
        0x0001e75e:    f7fefc09    ....    BL       am_util_delay_ms ; 0x1cf74
        0x0001e762:    e00c        ..      B        0x1e77e ; serial_rx_process + 446
        0x0001e764:    e7ff        ..      B        0x1e766 ; serial_rx_process + 422
        0x0001e766:    2203        ."      MOVS     r2,#3
        0x0001e768:    4962        bI      LDR      r1,[pc,#392] ; [0x1e8f4] = 0x10000053
        0x0001e76a:    a801        ..      ADD      r0,sp,#4
        0x0001e76c:    f7f9fe34    ..4.    BL       memcmp ; 0x183d8
        0x0001e770:    b908        ..      CBNZ     r0,0x1e776 ; serial_rx_process + 438
        0x0001e772:    f7fefe8b    ....    BL       apollo4_mcu_ble_enter_sleep ; 0x1d48c
        0x0001e776:    4631        1F      MOV      r1,r6
        0x0001e778:    a801        ..      ADD      r0,sp,#4
        0x0001e77a:    f7fffa57    ..W.    BL       hci_data_write ; 0x1dc2c
        0x0001e77e:    bf00        ..      NOP      
        0x0001e780:    e729        ).      B        0x1e5d6 ; serial_rx_process + 22
    $d
        0x0001e782:    0000        ..      DCW    0
        0x0001e784:    61766e69    inva    DCD    1635151465
        0x0001e788:    2064696c    lid     DCD    543451500
        0x0001e78c:    61726170    para    DCD    1634886000
        0x0001e790:    6574656d    mete    DCD    1702126957
        0x0001e794:    00000a72    r...    DCD    2674
        0x0001e798:    10000037    7...    DCD    268435511
        0x0001e79c:    10003200    .2..    DCD    268448256
        0x0001e7a0:    10000060    `...    DCD    268435552
        0x0001e7a4:    64726f77    word    DCD    1685221239
        0x0001e7a8:    7366664f    Offs    DCD    1936090703
        0x0001e7ac:    3d207465    et =    DCD    1025537125
        0x0001e7b0:    78257830    0x%x    DCD    2015721520
        0x0001e7b4:    7274202c    , tr    DCD    1920213036
        0x0001e7b8:    656d6d69    imme    DCD    1701670249
        0x0001e7bc:    6c617664    dval    DCD    1818326628
        0x0001e7c0:    3d206575    ue =    DCD    1025533301
        0x0001e7c4:    25783020     0x%    DCD    628633632
        0x0001e7c8:    0a0d7830    0x..    DCD    168654896
        0x0001e7cc:    00000000    ....    DCD    0
        0x0001e7d0:    10002e00    ....    DCD    268447232
        0x0001e7d4:    10000041    A...    DCD    268435521
        0x0001e7d8:    10000048    H...    DCD    268435528
        0x0001e7dc:    10003400    .4..    DCD    268448768
        0x0001e7e0:    6f666e69    info    DCD    1868983913
        0x0001e7e4:    61702030    0 pa    DCD    1634738224
        0x0001e7e8:    20686374    tch     DCD    543712116
        0x0001e7ec:    6c697562    buil    DCD    1818850658
        0x0001e7f0:    676e6964    ding    DCD    1735289188
        0x0001e7f4:    69616620     fai    DCD    1767990816
        0x0001e7f8:    0a0d736c    ls..    DCD    168653676
        0x0001e7fc:    00000000    ....    DCD    0
        0x0001e800:    10000074    t...    DCD    268435572
        0x0001e804:    b35d18c9    ..].    DCD    3009222857
        0x0001e808:    10000084    ....    DCD    268435588
        0x0001e80c:    74697257    Writ    DCD    1953067607
        0x0001e810:    69732065    e si    DCD    1769152613
        0x0001e814:    74616e67    gnat    DCD    1952542311
        0x0001e818:    20657275    ure     DCD    543519349
        0x0001e81c:    42206f74    to B    DCD    1109421940
        0x0001e820:    4320454c    LE C    DCD    1126188364
        0x0001e824:    72746e6f    ontr    DCD    1920233071
        0x0001e828:    656c6c6f    olle    DCD    1701604463
        0x0001e82c:    61662072    r fa    DCD    1634082930
        0x0001e830:    64656c69    iled    DCD    1684368489
        0x0001e834:    0000000a    ....    DCD    10
        0x0001e838:    65736552    Rese    DCD    1702061394
        0x0001e83c:    6f432074    t Co    DCD    1866670196
        0x0001e840:    7265706f    oper    DCD    1919250543
        0x0001e844:    726f6620     for    DCD    1919903264
        0x0001e848:    666e6920     inf    DCD    1718511904
        0x0001e84c:    7520306f    o0 u    DCD    1965043823
        0x0001e850:    74616470    pdat    DCD    1952539760
        0x0001e854:    0d676e69    ing.    DCD    224882281
        0x0001e858:    0000000a    ....    DCD    10
        0x0001e85c:    10000064    d...    DCD    268435556
        0x0001e860:    10000088    ....    DCD    268435592
        0x0001e864:    645f6d61    am_d    DCD    1683975521
        0x0001e868:    63697665    evic    DCD    1667855973
        0x0001e86c:    635f7365    es_c    DCD    1667199845
        0x0001e870:    65706f6f    oope    DCD    1701867375
        0x0001e874:    6e695f72    r_in    DCD    1852399474
        0x0001e878:    66207469    it f    DCD    1713402985
        0x0001e87c:    736c6961    ails    DCD    1936484705
        0x0001e880:    206e6f20     on     DCD    544108320
        0x0001e884:    61647075    upda    DCD    1633972341
        0x0001e888:    0a0d6574    te..    DCD    168650100
        0x0001e88c:    00000000    ....    DCD    0
        0x0001e890:    65736552    Rese    DCD    1702061394
        0x0001e894:    6f432074    t Co    DCD    1866670196
        0x0001e898:    7265706f    oper    DCD    1919250543
        0x0001e89c:    726f6620     for    DCD    1919903264
        0x0001e8a0:    666e6920     inf    DCD    1718511904
        0x0001e8a4:    7420306f    o0 t    DCD    1948266607
        0x0001e8a8:    6e696b61    akin    DCD    1852402529
        0x0001e8ac:    66652067    g ef    DCD    1717903463
        0x0001e8b0:    74636566    fect    DCD    1952671078
        0x0001e8b4:    0d657669    ive.    DCD    224753257
        0x0001e8b8:    0000000a    ....    DCD    10
        0x0001e8bc:    645f6d61    am_d    DCD    1683975521
        0x0001e8c0:    63697665    evic    DCD    1667855973
        0x0001e8c4:    635f7365    es_c    DCD    1667199845
        0x0001e8c8:    65706f6f    oope    DCD    1701867375
        0x0001e8cc:    6e695f72    r_in    DCD    1852399474
        0x0001e8d0:    66207469    it f    DCD    1713402985
        0x0001e8d4:    736c6961    ails    DCD    1936484705
        0x0001e8d8:    74666120     aft    DCD    1952866592
        0x0001e8dc:    69207265    er i    DCD    1763734117
        0x0001e8e0:    306f666e    nfo0    DCD    812607086
        0x0001e8e4:    64707520     upd    DCD    1685091616
        0x0001e8e8:    0d657461    ate.    DCD    224752737
        0x0001e8ec:    0000000a    ....    DCD    10
        0x0001e8f0:    1000004c    L...    DCD    268435532
        0x0001e8f4:    10000053    S...    DCD    268435539
    $t
    i.serial_task
    serial_task
        0x0001e8f8:    4770        pG      BX       lr
        0x0001e8fa:    0000        ..      MOVS     r0,r0
    i.set_bd_address
    set_bd_address
        0x0001e8fc:    b510        ..      PUSH     {r4,lr}
        0x0001e8fe:    b092        ..      SUB      sp,sp,#0x48
        0x0001e900:    2400        .$      MOVS     r4,#0
        0x0001e902:    2000        .       MOVS     r0,#0
        0x0001e904:    9010        ..      STR      r0,[sp,#0x40]
        0x0001e906:    9011        ..      STR      r0,[sp,#0x44]
        0x0001e908:    a901        ..      ADD      r1,sp,#4
        0x0001e90a:    2001        .       MOVS     r0,#1
        0x0001e90c:    f7fdf946    ..F.    BL       am_hal_mcuctrl_info_get ; 0x1bb9c
        0x0001e910:    9803        ..      LDR      r0,[sp,#0xc]
        0x0001e912:    9010        ..      STR      r0,[sp,#0x40]
        0x0001e914:    9802        ..      LDR      r0,[sp,#8]
        0x0001e916:    0a00        ..      LSRS     r0,r0,#8
        0x0001e918:    f88d0044    ..D.    STRB     r0,[sp,#0x44]
        0x0001e91c:    9802        ..      LDR      r0,[sp,#8]
        0x0001e91e:    0c00        ..      LSRS     r0,r0,#16
        0x0001e920:    f88d0045    ..E.    STRB     r0,[sp,#0x45]
        0x0001e924:    bf00        ..      NOP      
        0x0001e926:    4812        .H      LDR      r0,[pc,#72] ; [0x1e970] = 0x10000026
        0x0001e928:    5d00        .]      LDRB     r0,[r0,r4]
        0x0001e92a:    2801        .(      CMP      r0,#1
        0x0001e92c:    d109        ..      BNE      0x1e942 ; set_bd_address + 70
        0x0001e92e:    1c64        d.      ADDS     r4,r4,#1
        0x0001e930:    1c64        d.      ADDS     r4,r4,#1
        0x0001e932:    480f        .H      LDR      r0,[pc,#60] ; [0x1e970] = 0x10000026
        0x0001e934:    5d00        .]      LDRB     r0,[r0,r4]
        0x0001e936:    2806        .(      CMP      r0,#6
        0x0001e938:    d101        ..      BNE      0x1e93e ; set_bd_address + 66
        0x0001e93a:    1c64        d.      ADDS     r4,r4,#1
        0x0001e93c:    e00a        ..      B        0x1e954 ; set_bd_address + 88
        0x0001e93e:    b012        ..      ADD      sp,sp,#0x48
        0x0001e940:    bd10        ..      POP      {r4,pc}
        0x0001e942:    1c64        d.      ADDS     r4,r4,#1
        0x0001e944:    1c64        d.      ADDS     r4,r4,#1
        0x0001e946:    480a        .H      LDR      r0,[pc,#40] ; [0x1e970] = 0x10000026
        0x0001e948:    5d00        .]      LDRB     r0,[r0,r4]
        0x0001e94a:    4404        .D      ADD      r4,r4,r0
        0x0001e94c:    1c64        d.      ADDS     r4,r4,#1
        0x0001e94e:    bf00        ..      NOP      
        0x0001e950:    2c11        .,      CMP      r4,#0x11
        0x0001e952:    d3e8        ..      BCC      0x1e926 ; set_bd_address + 42
        0x0001e954:    bf00        ..      NOP      
        0x0001e956:    1da0        ..      ADDS     r0,r4,#6
        0x0001e958:    2811        .(      CMP      r0,#0x11
        0x0001e95a:    d806        ..      BHI      0x1e96a ; set_bd_address + 110
        0x0001e95c:    4804        .H      LDR      r0,[pc,#16] ; [0x1e970] = 0x10000026
        0x0001e95e:    4420         D      ADD      r0,r0,r4
        0x0001e960:    9910        ..      LDR      r1,[sp,#0x40]
        0x0001e962:    6001        .`      STR      r1,[r0,#0]
        0x0001e964:    f8bd1044    ..D.    LDRH     r1,[sp,#0x44]
        0x0001e968:    8081        ..      STRH     r1,[r0,#4]
        0x0001e96a:    bf00        ..      NOP      
        0x0001e96c:    e7e7        ..      B        0x1e93e ; set_bd_address + 66
    $d
        0x0001e96e:    0000        ..      DCW    0
        0x0001e970:    10000026    &...    DCD    268435494
    $t
    i.simple_strlen
    simple_strlen
        0x0001e974:    4601        .F      MOV      r1,r0
        0x0001e976:    2000        .       MOVS     r0,#0
        0x0001e978:    b901        ..      CBNZ     r1,0x1e97c ; simple_strlen + 8
        0x0001e97a:    4770        pG      BX       lr
        0x0001e97c:    e000        ..      B        0x1e980 ; simple_strlen + 12
        0x0001e97e:    1c40        @.      ADDS     r0,r0,#1
        0x0001e980:    f8113b01    ...;    LDRB     r3,[r1],#1
        0x0001e984:    2b00        .+      CMP      r3,#0
        0x0001e986:    d1fa        ..      BNE      0x1e97e ; simple_strlen + 10
        0x0001e988:    bf00        ..      NOP      
        0x0001e98a:    e7f6        ..      B        0x1e97a ; simple_strlen + 6
    i.uint64_to_hexstr
    uint64_to_hexstr
        0x0001e98c:    e92d41f0    -..A    PUSH     {r4-r8,lr}
        0x0001e990:    b085        ..      SUB      sp,sp,#0x14
        0x0001e992:    4604        .F      MOV      r4,r0
        0x0001e994:    460d        .F      MOV      r5,r1
        0x0001e996:    461e        .F      MOV      r6,r3
        0x0001e998:    2100        .!      MOVS     r1,#0
        0x0001e99a:    468c        .F      MOV      r12,r1
        0x0001e99c:    ea84070c    ....    EOR      r7,r4,r12
        0x0001e9a0:    ea850c0c    ....    EOR      r12,r5,r12
        0x0001e9a4:    ea57070c    W...    ORRS     r7,r7,r12
        0x0001e9a8:    d105        ..      BNE      0x1e9b6 ; uint64_to_hexstr + 42
        0x0001e9aa:    f04f0830    O.0.    MOV      r8,#0x30
        0x0001e9ae:    460f        .F      MOV      r7,r1
        0x0001e9b0:    1c49        I.      ADDS     r1,r1,#1
        0x0001e9b2:    f80d8007    ....    STRB     r8,[sp,r7]
        0x0001e9b6:    e016        ..      B        0x1e9e6 ; uint64_to_hexstr + 90
        0x0001e9b8:    270f        .'      MOVS     r7,#0xf
        0x0001e9ba:    4027        '@      ANDS     r7,r7,r4
        0x0001e9bc:    b2fb        ..      UXTB     r3,r7
        0x0001e9be:    2b09        .+      CMP      r3,#9
        0x0001e9c0:    dd05        ..      BLE      0x1e9ce ; uint64_to_hexstr + 66
        0x0001e9c2:    b10e        ..      CBZ      r6,0x1e9c8 ; uint64_to_hexstr + 60
        0x0001e9c4:    2727        ''      MOVS     r7,#0x27
        0x0001e9c6:    e000        ..      B        0x1e9ca ; uint64_to_hexstr + 62
        0x0001e9c8:    2707        .'      MOVS     r7,#7
        0x0001e9ca:    441f        .D      ADD      r7,r7,r3
        0x0001e9cc:    b2fb        ..      UXTB     r3,r7
        0x0001e9ce:    f1030730    ..0.    ADD      r7,r3,#0x30
        0x0001e9d2:    f00708ff    ....    AND      r8,r7,#0xff
        0x0001e9d6:    460f        .F      MOV      r7,r1
        0x0001e9d8:    1c49        I.      ADDS     r1,r1,#1
        0x0001e9da:    f80d8007    ....    STRB     r8,[sp,r7]
        0x0001e9de:    0927        '.      LSRS     r7,r4,#4
        0x0001e9e0:    ea477405    G..t    ORR      r4,r7,r5,LSL #28
        0x0001e9e4:    092d        -.      LSRS     r5,r5,#4
        0x0001e9e6:    f04f0c00    O...    MOV      r12,#0
        0x0001e9ea:    ea84070c    ....    EOR      r7,r4,r12
        0x0001e9ee:    ea850c0c    ....    EOR      r12,r5,r12
        0x0001e9f2:    ea57070c    W...    ORRS     r7,r7,r12
        0x0001e9f6:    d1df        ..      BNE      0x1e9b8 ; uint64_to_hexstr + 44
        0x0001e9f8:    4608        .F      MOV      r0,r1
        0x0001e9fa:    b14a        J.      CBZ      r2,0x1ea10 ; uint64_to_hexstr + 132
        0x0001e9fc:    e003        ..      B        0x1ea06 ; uint64_to_hexstr + 122
        0x0001e9fe:    f81d7001    ...p    LDRB     r7,[sp,r1]
        0x0001ea02:    f8027b01    ...{    STRB     r7,[r2],#1
        0x0001ea06:    1e0f        ..      SUBS     r7,r1,#0
        0x0001ea08:    f1a10101    ....    SUB      r1,r1,#1
        0x0001ea0c:    d1f7        ..      BNE      0x1e9fe ; uint64_to_hexstr + 114
        0x0001ea0e:    7017        .p      STRB     r7,[r2,#0]
        0x0001ea10:    b005        ..      ADD      sp,sp,#0x14
        0x0001ea12:    e8bd81f0    ....    POP      {r4-r8,pc}
    i.uint64_to_str
    uint64_to_str
        0x0001ea16:    e92d4ff0    -..O    PUSH     {r4-r11,lr}
        0x0001ea1a:    b087        ..      SUB      sp,sp,#0x1c
        0x0001ea1c:    4607        .F      MOV      r7,r0
        0x0001ea1e:    4688        .F      MOV      r8,r1
        0x0001ea20:    4616        .F      MOV      r6,r2
        0x0001ea22:    f04f0900    O...    MOV      r9,#0
        0x0001ea26:    46cb        .F      MOV      r11,r9
        0x0001ea28:    bf00        ..      NOP      
        0x0001ea2a:    4638        8F      MOV      r0,r7
        0x0001ea2c:    4641        AF      MOV      r1,r8
        0x0001ea2e:    f7feff60    ..`.    BL       divu64_10 ; 0x1d8f2
        0x0001ea32:    4604        .F      MOV      r4,r0
        0x0001ea34:    460d        .F      MOV      r5,r1
        0x0001ea36:    210a        .!      MOVS     r1,#0xa
        0x0001ea38:    fba40101    ....    UMULL    r0,r1,r4,r1
        0x0001ea3c:    ebb70a00    ....    SUBS     r10,r7,r0
        0x0001ea40:    f10a0030    ..0.    ADD      r0,r10,#0x30
        0x0001ea44:    b2c2        ..      UXTB     r2,r0
        0x0001ea46:    4648        HF      MOV      r0,r9
        0x0001ea48:    f1090901    ....    ADD      r9,r9,#1
        0x0001ea4c:    f80d2000    ...     STRB     r2,[sp,r0]
        0x0001ea50:    4627        'F      MOV      r7,r4
        0x0001ea52:    46a8        .F      MOV      r8,r5
        0x0001ea54:    f04f0200    O...    MOV      r2,#0
        0x0001ea58:    ea870002    ....    EOR      r0,r7,r2
        0x0001ea5c:    ea880102    ....    EOR      r1,r8,r2
        0x0001ea60:    4308        .C      ORRS     r0,r0,r1
        0x0001ea62:    d1e2        ..      BNE      0x1ea2a ; uint64_to_str + 20
        0x0001ea64:    46cb        .F      MOV      r11,r9
        0x0001ea66:    b156        V.      CBZ      r6,0x1ea7e ; uint64_to_str + 104
        0x0001ea68:    e003        ..      B        0x1ea72 ; uint64_to_str + 92
        0x0001ea6a:    f81d0009    ....    LDRB     r0,[sp,r9]
        0x0001ea6e:    f8060b01    ....    STRB     r0,[r6],#1
        0x0001ea72:    f1b90000    ....    SUBS     r0,r9,#0
        0x0001ea76:    f1a90901    ....    SUB      r9,r9,#1
        0x0001ea7a:    d1f6        ..      BNE      0x1ea6a ; uint64_to_str + 84
        0x0001ea7c:    7030        0p      STRB     r0,[r6,#0]
        0x0001ea7e:    4658        XF      MOV      r0,r11
        0x0001ea80:    b007        ..      ADD      sp,sp,#0x1c
        0x0001ea82:    e8bd8ff0    ....    POP      {r4-r11,pc}
        0x0001ea86:    0000        ..      MOVS     r0,r0
    i.validate_transaction
    validate_transaction
        0x0001ea88:    e92d47f0    -..G    PUSH     {r4-r10,lr}
        0x0001ea8c:    460c        .F      MOV      r4,r1
        0x0001ea8e:    4682        .F      MOV      r10,r0
        0x0001ea90:    e9d40601    ....    LDRD     r0,r6,[r4,#4]
        0x0001ea94:    f8918014    ....    LDRB     r8,[r1,#0x14]
        0x0001ea98:    68cf        .h      LDR      r7,[r1,#0xc]
        0x0001ea9a:    690d        .i      LDR      r5,[r1,#0x10]
        0x0001ea9c:    4691        .F      MOV      r9,r2
        0x0001ea9e:    2805        .(      CMP      r0,#5
        0x0001eaa0:    d834        4.      BHI      0x1eb0c ; validate_transaction + 132
        0x0001eaa2:    00c2        ..      LSLS     r2,r0,#3
        0x0001eaa4:    f04f30ff    O..0    MOV      r0,#0xffffffff
        0x0001eaa8:    4601        .F      MOV      r1,r0
        0x0001eaaa:    f7f9fc6f    ..o.    BL       __aeabi_llsl ; 0x1838c
        0x0001eaae:    460a        .F      MOV      r2,r1
        0x0001eab0:    ea000106    ....    AND      r1,r0,r6
        0x0001eab4:    ea020007    ....    AND      r0,r2,r7
        0x0001eab8:    4308        .C      ORRS     r0,r0,r1
        0x0001eaba:    d127        '.      BNE      0x1eb0c ; validate_transaction + 132
        0x0001eabc:    b14d        M.      CBZ      r5,0x1ead2 ; validate_transaction + 74
        0x0001eabe:    f1b80f00    ....    CMP      r8,#0
        0x0001eac2:    d004        ..      BEQ      0x1eace ; validate_transaction + 70
        0x0001eac4:    69e0        .i      LDR      r0,[r4,#0x1c]
        0x0001eac6:    b308        ..      CBZ      r0,0x1eb0c ; validate_transaction + 132
        0x0001eac8:    f1b80f01    ....    CMP      r8,#1
        0x0001eacc:    d001        ..      BEQ      0x1ead2 ; validate_transaction + 74
        0x0001eace:    69a0        .i      LDR      r0,[r4,#0x18]
        0x0001ead0:    b1e0        ..      CBZ      r0,0x1eb0c ; validate_transaction + 132
        0x0001ead2:    f89a0008    ....    LDRB     r0,[r10,#8]
        0x0001ead6:    2801        .(      CMP      r0,#1
        0x0001ead8:    d001        ..      BEQ      0x1eade ; validate_transaction + 86
        0x0001eada:    b138        8.      CBZ      r0,0x1eaec ; validate_transaction + 100
        0x0001eadc:    e002        ..      B        0x1eae4 ; validate_transaction + 92
        0x0001eade:    f5b55f80    ..._    CMP      r5,#0x1000
        0x0001eae2:    d213        ..      BCS      0x1eb0c ; validate_transaction + 132
        0x0001eae4:    f1b90f00    ....    CMP      r9,#0
        0x0001eae8:    d007        ..      BEQ      0x1eafa ; validate_transaction + 114
        0x0001eaea:    e012        ..      B        0x1eb12 ; validate_transaction + 138
        0x0001eaec:    6820         h      LDR      r0,[r4,#0]
        0x0001eaee:    2804        .(      CMP      r0,#4
        0x0001eaf0:    bf98        ..      IT       LS
        0x0001eaf2:    f5b55f80    ..._    CMPLS    r5,#0x1000
        0x0001eaf6:    d3f5        ..      BCC      0x1eae4 ; validate_transaction + 92
        0x0001eaf8:    e008        ..      B        0x1eb0c ; validate_transaction + 132
        0x0001eafa:    f8940024    ..$.    LDRB     r0,[r4,#0x24]
        0x0001eafe:    f0100fe0    ....    TST      r0,#0xe0
        0x0001eb02:    d103        ..      BNE      0x1eb0c ; validate_transaction + 132
        0x0001eb04:    4904        .I      LDR      r1,[pc,#16] ; [0x1eb18] = 0xe0e0e0
        0x0001eb06:    6aa0        .j      LDR      r0,[r4,#0x28]
        0x0001eb08:    4208        .B      TST      r0,r1
        0x0001eb0a:    d002        ..      BEQ      0x1eb12 ; validate_transaction + 138
        0x0001eb0c:    2006        .       MOVS     r0,#6
        0x0001eb0e:    e8bd87f0    ....    POP      {r4-r10,pc}
        0x0001eb12:    2000        .       MOVS     r0,#0
        0x0001eb14:    e8bd87f0    ....    POP      {r4-r10,pc}
    $d
        0x0001eb18:    00e0e0e0    ....    DCD    14737632
    $t
    x$fpl$d2f
    $v0
    __aeabi_d2f
    _d2f
        0x0001eb1c:    f0214200    !..B    BIC      r2,r1,#0x80000000
        0x0001eb20:    f1a25260    ..`R    SUB      r2,r2,#0x38000000
        0x0001eb24:    f5b21f80    ....    CMP      r2,#0x100000
        0x0001eb28:    f0014300    ...C    AND      r3,r1,#0x80000000
        0x0001eb2c:    bf28        (.      IT       CS
        0x0001eb2e:    f1d26c7f    ...l    RSBSCS   r12,r2,#0xff00000
        0x0001eb32:    d90b        ..      BLS      0x1eb4c ; __aeabi_d2f + 48
        0x0001eb34:    ea5f1c00    _...    LSLS     r12,r0,#4
        0x0001eb38:    ea4302c2    C...    ORR      r2,r3,r2,LSL #3
        0x0001eb3c:    eb427050    B.Pp    ADC      r0,r2,r0,LSR #29
        0x0001eb40:    bf18        ..      IT       NE
        0x0001eb42:    4770        pG      BXNE     lr
        0x0001eb44:    bf28        (.      IT       CS
        0x0001eb46:    f0200001     ...    BICCS    r0,r0,#1
        0x0001eb4a:    4770        pG      BX       lr
        0x0001eb4c:    f5b21f80    ....    CMP      r2,#0x100000
        0x0001eb50:    bfbc        ..      ITT      LT
        0x0001eb52:    4618        .F      MOVLT    r0,r3
        0x0001eb54:    4770        pG      BXLT     lr
        0x0001eb56:    ea4f0c41    O.A.    LSL      r12,r1,#1
        0x0001eb5a:    f51c1f00    ....    CMN      r12,#0x200000
        0x0001eb5e:    d202        ..      BCS      0x1eb66 ; __aeabi_d2f + 74
        0x0001eb60:    4608        .F      MOV      r0,r1
        0x0001eb62:    f000b85f    .._.    B.W      __fpl_fretinf ; 0x1ec24
        0x0001eb66:    b570        p.      PUSH     {r4-r6,lr}
        0x0001eb68:    f000f809    ....    BL       __fpl_dnaninf ; 0x1eb7e
    $d
        0x0001eb6c:    89000000    ....    DCD    2298478592
    $t
        0x0001eb70:    f7ffbff6    ....    B.W      0x1eb60 ; __aeabi_d2f + 68
        0x0001eb74:    f04f4000    O..@    MOV      r0,#0x80000000
        0x0001eb78:    f5a00080    ....    SUB      r0,r0,#0x400000
        0x0001eb7c:    4770        pG      BX       lr
    x$fpl$dnaninf
    $v0
    __fpl_dnaninf
        0x0001eb7e:    f10e0e02    ....    ADD      lr,lr,#2
        0x0001eb82:    f02e0e03    ....    BIC      lr,lr,#3
        0x0001eb86:    f85e6b04    ^..k    LDR      r6,[lr],#4
        0x0001eb8a:    4236        6B      TST      r6,r6
        0x0001eb8c:    d405        ..      BMI      0x1eb9a ; __fpl_dnaninf + 28
        0x0001eb8e:    2a01        .*      CMP      r2,#1
        0x0001eb90:    eb430503    C...    ADC      r5,r3,r3
        0x0001eb94:    f5151f00    ....    CMN      r5,#0x200000
        0x0001eb98:    d812        ..      BHI      0x1ebc0 ; __fpl_dnaninf + 66
        0x0001eb9a:    2801        .(      CMP      r0,#1
        0x0001eb9c:    eb410c01    A...    ADC      r12,r1,r1
        0x0001eba0:    f51c1f00    ....    CMN      r12,#0x200000
        0x0001eba4:    d80c        ..      BHI      0x1ebc0 ; __fpl_dnaninf + 66
        0x0001eba6:    d10e        ..      BNE      0x1ebc6 ; __fpl_dnaninf + 72
        0x0001eba8:    ea4f7cd1    O..|    LSR      r12,r1,#31
        0x0001ebac:    f5151f00    ....    CMN      r5,#0x200000
        0x0001ebb0:    eb0c0c4c    ..L.    ADD      r12,r12,r12,LSL #1
        0x0001ebb4:    f10c0c02    ....    ADD      r12,r12,#2
        0x0001ebb8:    bf08        ..      IT       EQ
        0x0001ebba:    eb4c7cd3    L..|    ADCEQ    r12,r12,r3,LSR #31
        0x0001ebbe:    e004        ..      B        0x1ebca ; __fpl_dnaninf + 76
        0x0001ebc0:    f04f0c08    O...    MOV      r12,#8
        0x0001ebc4:    e001        ..      B        0x1ebca ; __fpl_dnaninf + 76
        0x0001ebc6:    ea4f7cd3    O..|    LSR      r12,r3,#31
        0x0001ebca:    eb0c054c    ..L.    ADD      r5,r12,r12,LSL #1
        0x0001ebce:    fa26f605    &...    LSR      r6,r6,r5
        0x0001ebd2:    f0060607    ....    AND      r6,r6,#7
        0x0001ebd6:    f1b60c04    ....    SUBS     r12,r6,#4
        0x0001ebda:    d206        ..      BCS      0x1ebea ; __fpl_dnaninf + 108
        0x0001ebdc:    eb0e0c86    ....    ADD      r12,lr,r6,LSL #2
        0x0001ebe0:    e8bd4070    ..p@    POP      {r4-r6,lr}
        0x0001ebe4:    f04c0c01    L...    ORR      r12,r12,#1
        0x0001ebe8:    4760        `G      BX       r12
        0x0001ebea:    e8dff00c    ....    TBB      [pc,r12]
    $d
        0x0001ebee:    0b09        ..      DCW    2825
        0x0001ebf0:    0202        ..      DCW    514
    $t
        0x0001ebf2:    f04f4100    O..A    MOV      r1,#0x80000000
        0x0001ebf6:    f04f0000    O...    MOV      r0,#0
        0x0001ebfa:    f5a12100    ...!    SUB      r1,r1,#0x80000
        0x0001ebfe:    bd70        p.      POP      {r4-r6,pc}
        0x0001ec00:    4619        .F      MOV      r1,r3
        0x0001ec02:    4610        .F      MOV      r0,r2
        0x0001ec04:    2801        .(      CMP      r0,#1
        0x0001ec06:    eb510401    Q...    ADCS     r4,r1,r1
        0x0001ec0a:    bf18        ..      IT       NE
        0x0001ec0c:    f5d41400    ....    RSBSNE   r4,r4,#0x200000
        0x0001ec10:    bf84        ..      ITT      HI
        0x0001ec12:    2000        .       MOVHI    r0,#0
        0x0001ec14:    f0014100    ...A    ANDHI    r1,r1,#0x80000000
        0x0001ec18:    bd70        p.      POP      {r4-r6,pc}
    x$fpl$fpinit
    $v0
    _fp_init
        0x0001ec1a:    f04f7040    O.@p    MOV      r0,#0x3000000
        0x0001ec1e:    eee10a10    ....    VMSR     FPSCR,r0
    __fplib_config_fpu_vfp
    __fplib_config_pureend_doubles
        0x0001ec22:    4770        pG      BX       lr
    x$fpl$fretinf
    $v0
    __fpl_fretinf
        0x0001ec24:    21ff        .!      MOVS     r1,#0xff
        0x0001ec26:    ea4150d0    A..P    ORR      r0,r1,r0,LSR #23
        0x0001ec2a:    05c0        ..      LSLS     r0,r0,#23
        0x0001ec2c:    4770        pG      BX       lr
    x$fpl$usenofp
    __I$use$fp
        0x0001ec2e:    0000        ..      MOVS     r0,r0
    $d.realdata
    .constdata
    ui32I2sWordLength
        0x0001ec30:    00000008    ....    DCD    8
        0x0001ec34:    00000000    ....    DCD    0
        0x0001ec38:    00000010    ....    DCD    16
        0x0001ec3c:    00000000    ....    DCD    0
        0x0001ec40:    00000018    ....    DCD    24
        0x0001ec44:    00000020     ...    DCD    32
    __tagsym$$used
    ui32MCUAllowed
        0x0001ec48:    00000000    ....    DCD    0
        0x0001ec4c:    00000000    ....    DCD    0
        0x0001ec50:    00000000    ....    DCD    0
        0x0001ec54:    00000000    ....    DCD    0
        0x0001ec58:    00000000    ....    DCD    0
    __tagsym$$used
    ui32DSP0Allowed
        0x0001ec5c:    00000000    ....    DCD    0
        0x0001ec60:    00000000    ....    DCD    0
        0x0001ec64:    00000000    ....    DCD    0
        0x0001ec68:    00000000    ....    DCD    0
        0x0001ec6c:    00000000    ....    DCD    0
    __tagsym$$used
    ui32DSP1Allowed
        0x0001ec70:    00000000    ....    DCD    0
        0x0001ec74:    00000000    ....    DCD    0
        0x0001ec78:    00000000    ....    DCD    0
        0x0001ec7c:    00000000    ....    DCD    0
        0x0001ec80:    00000000    ....    DCD    0
    __tagsym$$used
    ui32SharedAccess
        0x0001ec84:    00000000    ....    DCD    0
        0x0001ec88:    00000000    ....    DCD    0
        0x0001ec8c:    00000000    ....    DCD    0
        0x0001ec90:    00000000    ....    DCD    0
        0x0001ec94:    00000000    ....    DCD    0
    __tagsym$$used
    sGlobalAccess
        0x0001ec98:    0001ec84    ....    DCD    126084
        0x0001ec9c:    0001ec48    H...    DCD    126024
        0x0001eca0:    0001ec5c    \...    DCD    126044
        0x0001eca4:    0001ec70    p...    DCD    126064
        0x0001eca8:    10060004    ....    DCD    268828676
        0x0001ecac:    10060018    ....    DCD    268828696
        0x0001ecb0:    1006002c    ,...    DCD    268828716
    .constdata
    ui32I2sWordLength
        0x0001ecb4:    00000008    ....    DCD    8
        0x0001ecb8:    00000000    ....    DCD    0
        0x0001ecbc:    00000010    ....    DCD    16
        0x0001ecc0:    00000000    ....    DCD    0
        0x0001ecc4:    00000018    ....    DCD    24
        0x0001ecc8:    00000020     ...    DCD    32
        0x0001eccc:    0001c200    ....    DCD    115200
        0x0001ecd0:    00000203    ....    DCD    515
        0x0001ecd4:    04040000    ....    DCD    67371008
        0x0001ecd8:    00000001    ....    DCD    1
        0x0001ecdc:    00000000    ....    DCD    0
        0x0001ece0:    00000017    ....    DCD    23
        0x0001ece4:    00000000    ....    DCD    0
        0x0001ece8:    00000001    ....    DCD    1
        0x0001ecec:    00000000    ....    DCD    0
        0x0001ecf0:    00000000    ....    DCD    0
        0x0001ecf4:    00000000    ....    DCD    0
        0x0001ecf8:    00000000    ....    DCD    0
        0x0001ecfc:    00000000    ....    DCD    0
        0x0001ed00:    00000000    ....    DCD    0
        0x0001ed04:    00000000    ....    DCD    0
        0x0001ed08:    ffffffff    ....    DCD    4294967295
        0x0001ed0c:    00000000    ....    DCD    0
        0x0001ed10:    00000000    ....    DCD    0
        0x0001ed14:    00000000    ....    DCD    0
    .constdata
    ui32I2sWordLength
        0x0001ed18:    00000008    ....    DCD    8
        0x0001ed1c:    00000000    ....    DCD    0
        0x0001ed20:    00000010    ....    DCD    16
        0x0001ed24:    00000000    ....    DCD    0
        0x0001ed28:    00000018    ....    DCD    24
        0x0001ed2c:    00000020     ...    DCD    32
        0x0001ed30:    03030000    ....    DCD    50528256
        0x0001ed34:    00000001    ....    DCD    1
    .constdata
    ui32I2sWordLength
        0x0001ed38:    00000008    ....    DCD    8
        0x0001ed3c:    00000000    ....    DCD    0
        0x0001ed40:    00000010    ....    DCD    16
        0x0001ed44:    00000000    ....    DCD    0
        0x0001ed48:    00000018    ....    DCD    24
        0x0001ed4c:    00000020     ...    DCD    32
        0x0001ed50:    f0fc7701    .w..    DCD    4043077377
        0x0001ed54:    5344564e    NVDS    DCD    1396987470
        0x0001ed58:    01010611    ....    DCD    16844305
        0x0001ed5c:    f0fc7701    .w..    DCD    4043077377
        0x0001ed60:    5344564e    NVDS    DCD    1396987470
        0x0001ed64:    00010611    ....    DCD    67089
        0x0001ed68:    f0fc7701    .w..    DCD    4043077377
        0x0001ed6c:    5344564e    NVDS    DCD    1396987470
        0x0001ed70:    00000000    ....    DCD    0
        0x0001ed74:    00000080    ....    DCD    128
        0x0001ed78:    00000002    ....    DCD    2
        0x0001ed7c:    00000000    ....    DCD    0
        0x0001ed80:    2a300080    ..0*    DCD    707788928
        0x0001ed84:    00000000    ....    DCD    0
        0x0001ed88:    6c5cfd94    ..\l    DCD    1818033556
        0x0001ed8c:    1836833b    ;.6.    DCD    406225723
        0x0001ed90:    95a00873    s...    DCD    2510293107
        0x0001ed94:    cdb40bf5    ....    DCD    3451128821
        0x0001ed98:    00000000    ....    DCD    0
        0x0001ed9c:    00000000    ....    DCD    0
        0x0001eda0:    00000000    ....    DCD    0
        0x0001eda4:    00000000    ....    DCD    0
        0x0001eda8:    00000000    ....    DCD    0
        0x0001edac:    00000000    ....    DCD    0
        0x0001edb0:    0f474c35    5LG.    DCD    256330805
        0x0001edb4:    b74da316    ..M.    DCD    3075318550
        0x0001edb8:    8d6cf771    q.l.    DCD    2372728689
        0x0001edbc:    ac206392    .c .    DCD    2887803794
        0x0001edc0:    d6fd3ef5    .>..    DCD    3606920949
        0x0001edc4:    4dcc3fea    .?.M    DCD    1305231338
        0x0001edc8:    d64ef68a    ..N.    DCD    3595499146
        0x0001edcc:    ce74017f    ..t.    DCD    3463709055
        0x0001edd0:    359a950d    ...5    DCD    899323149
        0x0001edd4:    3c41f2cc    ..A<    DCD    1010954956
        0x0001edd8:    2d784642    BFx-    DCD    762857026
        0x0001eddc:    cb87aa61    a...    DCD    3414665825
        0x0001ede0:    54225e1e    .^"T    DCD    1411538462
        0x0001ede4:    49eecd5a    Z..I    DCD    1240386906
        0x0001ede8:    9eb9f6ab    ....    DCD    2662987435
        0x0001edec:    0809b416    ....    DCD    134853654
        0x0001edf0:    0541e693    ..A.    DCD    88204947
        0x0001edf4:    1dd47a41    Az..    DCD    500464193
        0x0001edf8:    b2729cf1    ..r.    DCD    2993855729
        0x0001edfc:    b725fc57    W.%.    DCD    3072719959
    .constdata
    g_am_hal_mcuctrl_sku_mram_size
        0x0001ee00:    04000200    ....    DCD    67109376
        0x0001ee04:    08000600    ....    DCD    134219264
    g_am_hal_mcuctrl_sku_ssram_size
        0x0001ee08:    00000200    ....    DCD    512
        0x0001ee0c:    00000400    ....    DCD    1024
        0x0001ee10:    00000200    ....    DCD    512
        0x0001ee14:    00000400    ....    DCD    1024
    .constdata
    g_amHalMcuctrlArgBLEDefault
        0x0001ee18:    00000001    ....    DCD    1
        0x0001ee1c:    01000001    ....    DCD    16777217
    .constdata
    am_hal_gpio_pincfg_output
        0x0001ee20:    00000183    ....    DCD    387
    .constdata
    am_hal_gpio_pincfg_input
        0x0001ee24:    00000093    ....    DCD    147
    .constdata
    am_hal_gpio_pincfg_disabled
        0x0001ee28:    00000003    ....    DCD    3
    .constdata
    g_ui32RMpintbl
        0x0001ee2c:    00000000    ....    DCD    0
        0x0001ee30:    00000000    ....    DCD    0
        0x0001ee34:    00000000    ....    DCD    0
        0x0001ee38:    00000000    ....    DCD    0
    g_ui32DSpintbl
        0x0001ee3c:    8fc007e0    ....    DCD    2411726816
        0x0001ee40:    e3fbffff    ....    DCD    3824943103
        0x0001ee44:    01ffffff    ....    DCD    33554431
        0x0001ee48:    00000000    ....    DCD    0
    .constdata
    g_DefaultMcuMemCfg
        0x0001ee4c:    07070102    ....    DCD    117899522
        0x0001ee50:    0001        ..      DCW    1
    g_DefaultSRAMCfg
        0x0001ee52:    0003        ..      DCW    3
        0x0001ee54:    03000000    ....    DCD    50331648
    am_hal_pwrctrl_peripheral_control
        0x0001ee58:    40021004    ...@    DCD    1073876996
        0x0001ee5c:    00000001    ....    DCD    1
        0x0001ee60:    40021008    ...@    DCD    1073877000
        0x0001ee64:    00000001    ....    DCD    1
        0x0001ee68:    40021004    ...@    DCD    1073876996
        0x0001ee6c:    00000002    ....    DCD    2
        0x0001ee70:    40021008    ...@    DCD    1073877000
        0x0001ee74:    0000001e    ....    DCD    30
        0x0001ee78:    40021004    ...@    DCD    1073876996
        0x0001ee7c:    00000004    ....    DCD    4
        0x0001ee80:    40021008    ...@    DCD    1073877000
        0x0001ee84:    0000001e    ....    DCD    30
        0x0001ee88:    40021004    ...@    DCD    1073876996
        0x0001ee8c:    00000008    ....    DCD    8
        0x0001ee90:    40021008    ...@    DCD    1073877000
        0x0001ee94:    0000001e    ....    DCD    30
        0x0001ee98:    40021004    ...@    DCD    1073876996
        0x0001ee9c:    00000010    ....    DCD    16
        0x0001eea0:    40021008    ...@    DCD    1073877000
        0x0001eea4:    0000001e    ....    DCD    30
        0x0001eea8:    40021004    ...@    DCD    1073876996
        0x0001eeac:    00000020     ...    DCD    32
        0x0001eeb0:    40021008    ...@    DCD    1073877000
        0x0001eeb4:    000001e0    ....    DCD    480
        0x0001eeb8:    40021004    ...@    DCD    1073876996
        0x0001eebc:    00000040    @...    DCD    64
        0x0001eec0:    40021008    ...@    DCD    1073877000
        0x0001eec4:    000001e0    ....    DCD    480
        0x0001eec8:    40021004    ...@    DCD    1073876996
        0x0001eecc:    00000080    ....    DCD    128
        0x0001eed0:    40021008    ...@    DCD    1073877000
        0x0001eed4:    000001e0    ....    DCD    480
        0x0001eed8:    40021004    ...@    DCD    1073876996
        0x0001eedc:    00000100    ....    DCD    256
        0x0001eee0:    40021008    ...@    DCD    1073877000
        0x0001eee4:    000001e0    ....    DCD    480
        0x0001eee8:    40021004    ...@    DCD    1073876996
        0x0001eeec:    00000200    ....    DCD    512
        0x0001eef0:    40021008    ...@    DCD    1073877000
        0x0001eef4:    00001e00    ....    DCD    7680
        0x0001eef8:    40021004    ...@    DCD    1073876996
        0x0001eefc:    00000400    ....    DCD    1024
        0x0001ef00:    40021008    ...@    DCD    1073877000
        0x0001ef04:    00001e00    ....    DCD    7680
        0x0001ef08:    40021004    ...@    DCD    1073876996
        0x0001ef0c:    00000800    ....    DCD    2048
        0x0001ef10:    40021008    ...@    DCD    1073877000
        0x0001ef14:    00001e00    ....    DCD    7680
        0x0001ef18:    40021004    ...@    DCD    1073876996
        0x0001ef1c:    00001000    ....    DCD    4096
        0x0001ef20:    40021008    ...@    DCD    1073877000
        0x0001ef24:    00001e00    ....    DCD    7680
        0x0001ef28:    40021004    ...@    DCD    1073876996
        0x0001ef2c:    00002000    . ..    DCD    8192
        0x0001ef30:    40021008    ...@    DCD    1073877000
        0x0001ef34:    00002000    . ..    DCD    8192
        0x0001ef38:    40021004    ...@    DCD    1073876996
        0x0001ef3c:    00004000    .@..    DCD    16384
        0x0001ef40:    40021008    ...@    DCD    1073877000
        0x0001ef44:    0001c000    ....    DCD    114688
        0x0001ef48:    40021004    ...@    DCD    1073876996
        0x0001ef4c:    00008000    ....    DCD    32768
        0x0001ef50:    40021008    ...@    DCD    1073877000
        0x0001ef54:    0001c000    ....    DCD    114688
        0x0001ef58:    40021004    ...@    DCD    1073876996
        0x0001ef5c:    00010000    ....    DCD    65536
        0x0001ef60:    40021008    ...@    DCD    1073877000
        0x0001ef64:    0001c000    ....    DCD    114688
        0x0001ef68:    40021004    ...@    DCD    1073876996
        0x0001ef6c:    00020000    ....    DCD    131072
        0x0001ef70:    40021008    ...@    DCD    1073877000
        0x0001ef74:    00020000    ....    DCD    131072
        0x0001ef78:    40021004    ...@    DCD    1073876996
        0x0001ef7c:    00100000    ....    DCD    1048576
        0x0001ef80:    40021008    ...@    DCD    1073877000
        0x0001ef84:    00100000    ....    DCD    1048576
        0x0001ef88:    40021004    ...@    DCD    1073876996
        0x0001ef8c:    00200000    .. .    DCD    2097152
        0x0001ef90:    40021008    ...@    DCD    1073877000
        0x0001ef94:    00200000    .. .    DCD    2097152
        0x0001ef98:    40021004    ...@    DCD    1073876996
        0x0001ef9c:    01000000    ....    DCD    16777216
        0x0001efa0:    40021008    ...@    DCD    1073877000
        0x0001efa4:    01000000    ....    DCD    16777216
        0x0001efa8:    4002100c    ...@    DCD    1073877004
        0x0001efac:    00000001    ....    DCD    1
        0x0001efb0:    40021010    ...@    DCD    1073877008
        0x0001efb4:    00000047    G...    DCD    71
        0x0001efb8:    4002100c    ...@    DCD    1073877004
        0x0001efbc:    00000002    ....    DCD    2
        0x0001efc0:    40021010    ...@    DCD    1073877008
        0x0001efc4:    00000047    G...    DCD    71
        0x0001efc8:    4002100c    ...@    DCD    1073877004
        0x0001efcc:    00000004    ....    DCD    4
        0x0001efd0:    40021010    ...@    DCD    1073877008
        0x0001efd4:    00000047    G...    DCD    71
        0x0001efd8:    4002100c    ...@    DCD    1073877004
        0x0001efdc:    00000040    @...    DCD    64
        0x0001efe0:    40021010    ...@    DCD    1073877008
        0x0001efe4:    00000047    G...    DCD    71
    .constdata
    g_am_hal_bootrom_helper
        0x0001efe8:    0800004d    M...    DCD    134217805
        0x0001efec:    08000051    Q...    DCD    134217809
        0x0001eff0:    08000055    U...    DCD    134217813
        0x0001eff4:    08000059    Y...    DCD    134217817
        0x0001eff8:    0800006d    m...    DCD    134217837
        0x0001effc:    08000075    u...    DCD    134217845
        0x0001f000:    08000079    y...    DCD    134217849
        0x0001f004:    08000081    ....    DCD    134217857
        0x0001f008:    08000099    ....    DCD    134217881
        0x0001f00c:    0800009d    ....    DCD    134217885
    .constdata
    am_hal_daxi_defaults
        0x0001f010:    00020100    ....    DCD    131328
        0x0001f014:    00000001    ....    DCD    1
    .constdata
    gAmHalCmdQReg
        0x0001f018:    40050228    (..@    DCD    1074070056
        0x0001f01c:    4005022c    ,..@    DCD    1074070060
        0x0001f020:    40050240    @..@    DCD    1074070080
        0x0001f024:    40050244    D..@    DCD    1074070084
        0x0001f028:    4005023c    <..@    DCD    1074070076
        0x0001f02c:    00008000    ....    DCD    32768
        0x0001f030:    40050230    0..@    DCD    1074070064
        0x0001f034:    00000001    ....    DCD    1
        0x0001f038:    00000004    ....    DCD    4
        0x0001f03c:    00000002    ....    DCD    2
        0x0001f040:    40051228    (..@    DCD    1074074152
        0x0001f044:    4005122c    ,..@    DCD    1074074156
        0x0001f048:    40051240    @..@    DCD    1074074176
        0x0001f04c:    40051244    D..@    DCD    1074074180
        0x0001f050:    4005123c    <..@    DCD    1074074172
        0x0001f054:    00008000    ....    DCD    32768
        0x0001f058:    40051230    0..@    DCD    1074074160
        0x0001f05c:    00000001    ....    DCD    1
        0x0001f060:    00000004    ....    DCD    4
        0x0001f064:    00000002    ....    DCD    2
        0x0001f068:    40052228    (".@    DCD    1074078248
        0x0001f06c:    4005222c    ,".@    DCD    1074078252
        0x0001f070:    40052240    @".@    DCD    1074078272
        0x0001f074:    40052244    D".@    DCD    1074078276
        0x0001f078:    4005223c    <".@    DCD    1074078268
        0x0001f07c:    00008000    ....    DCD    32768
        0x0001f080:    40052230    0".@    DCD    1074078256
        0x0001f084:    00000001    ....    DCD    1
        0x0001f088:    00000004    ....    DCD    4
        0x0001f08c:    00000002    ....    DCD    2
        0x0001f090:    40053228    (2.@    DCD    1074082344
        0x0001f094:    4005322c    ,2.@    DCD    1074082348
        0x0001f098:    40053240    @2.@    DCD    1074082368
        0x0001f09c:    40053244    D2.@    DCD    1074082372
        0x0001f0a0:    4005323c    <2.@    DCD    1074082364
        0x0001f0a4:    00008000    ....    DCD    32768
        0x0001f0a8:    40053230    02.@    DCD    1074082352
        0x0001f0ac:    00000001    ....    DCD    1
        0x0001f0b0:    00000004    ....    DCD    4
        0x0001f0b4:    00000002    ....    DCD    2
        0x0001f0b8:    40054228    (B.@    DCD    1074086440
        0x0001f0bc:    4005422c    ,B.@    DCD    1074086444
        0x0001f0c0:    40054240    @B.@    DCD    1074086464
        0x0001f0c4:    40054244    DB.@    DCD    1074086468
        0x0001f0c8:    4005423c    <B.@    DCD    1074086460
        0x0001f0cc:    00008000    ....    DCD    32768
        0x0001f0d0:    40054230    0B.@    DCD    1074086448
        0x0001f0d4:    00000001    ....    DCD    1
        0x0001f0d8:    00000004    ....    DCD    4
        0x0001f0dc:    00000002    ....    DCD    2
        0x0001f0e0:    40055228    (R.@    DCD    1074090536
        0x0001f0e4:    4005522c    ,R.@    DCD    1074090540
        0x0001f0e8:    40055240    @R.@    DCD    1074090560
        0x0001f0ec:    40055244    DR.@    DCD    1074090564
        0x0001f0f0:    4005523c    <R.@    DCD    1074090556
        0x0001f0f4:    00008000    ....    DCD    32768
        0x0001f0f8:    40055230    0R.@    DCD    1074090544
        0x0001f0fc:    00000001    ....    DCD    1
        0x0001f100:    00000004    ....    DCD    4
        0x0001f104:    00000002    ....    DCD    2
        0x0001f108:    40056228    (b.@    DCD    1074094632
        0x0001f10c:    4005622c    ,b.@    DCD    1074094636
        0x0001f110:    40056240    @b.@    DCD    1074094656
        0x0001f114:    40056244    Db.@    DCD    1074094660
        0x0001f118:    4005623c    <b.@    DCD    1074094652
        0x0001f11c:    00008000    ....    DCD    32768
        0x0001f120:    40056230    0b.@    DCD    1074094640
        0x0001f124:    00000001    ....    DCD    1
        0x0001f128:    00000004    ....    DCD    4
        0x0001f12c:    00000002    ....    DCD    2
        0x0001f130:    40057228    (r.@    DCD    1074098728
        0x0001f134:    4005722c    ,r.@    DCD    1074098732
        0x0001f138:    40057240    @r.@    DCD    1074098752
        0x0001f13c:    40057244    Dr.@    DCD    1074098756
        0x0001f140:    4005723c    <r.@    DCD    1074098748
        0x0001f144:    00008000    ....    DCD    32768
        0x0001f148:    40057230    0r.@    DCD    1074098736
        0x0001f14c:    00000001    ....    DCD    1
        0x0001f150:    00000004    ....    DCD    4
        0x0001f154:    00000002    ....    DCD    2
        0x0001f158:    400602a0    ...@    DCD    1074135712
        0x0001f15c:    400602a8    ...@    DCD    1074135720
        0x0001f160:    400602c0    ...@    DCD    1074135744
        0x0001f164:    400602c4    ...@    DCD    1074135748
        0x0001f168:    400602b8    ...@    DCD    1074135736
        0x0001f16c:    00004000    .@..    DCD    16384
        0x0001f170:    400602ac    ...@    DCD    1074135724
        0x0001f174:    00000001    ....    DCD    1
        0x0001f178:    00000004    ....    DCD    4
        0x0001f17c:    00000008    ....    DCD    8
        0x0001f180:    400612a0    ...@    DCD    1074139808
        0x0001f184:    400612a8    ...@    DCD    1074139816
        0x0001f188:    400612c0    ...@    DCD    1074139840
        0x0001f18c:    400612c4    ...@    DCD    1074139844
        0x0001f190:    400612b8    ...@    DCD    1074139832
        0x0001f194:    00004000    .@..    DCD    16384
        0x0001f198:    400612ac    ...@    DCD    1074139820
        0x0001f19c:    00000001    ....    DCD    1
        0x0001f1a0:    00000004    ....    DCD    4
        0x0001f1a4:    00000008    ....    DCD    8
        0x0001f1a8:    400622a0    .".@    DCD    1074143904
        0x0001f1ac:    400622a8    .".@    DCD    1074143912
        0x0001f1b0:    400622c0    .".@    DCD    1074143936
        0x0001f1b4:    400622c4    .".@    DCD    1074143940
        0x0001f1b8:    400622b8    .".@    DCD    1074143928
        0x0001f1bc:    00004000    .@..    DCD    16384
        0x0001f1c0:    400622ac    .".@    DCD    1074143916
        0x0001f1c4:    00000001    ....    DCD    1
        0x0001f1c8:    00000004    ....    DCD    4
        0x0001f1cc:    00000008    ....    DCD    8
    .conststring
        0x0001f1d0:    65636552    Rece    DCD    1701012818
        0x0001f1d4:    64657669    ived    DCD    1684371049
        0x0001f1d8:    77656e20     new    DCD    2003136032
        0x0001f1dc:    454c4220     BLE    DCD    1162625568
        0x0001f1e0:    6e6f4320     Con    DCD    1852785440
        0x0001f1e4:    6c6f7274    trol    DCD    1819243124
        0x0001f1e8:    2072656c    ler     DCD    544367980
        0x0001f1ec:    76205746    FW v    DCD    1981830982
        0x0001f1f0:    69737265    ersi    DCD    1769173605
        0x0001f1f4:    3d206e6f    on =    DCD    1025535599
        0x0001f1f8:    2e642520     %d.    DCD    778315040
        0x0001f1fc:    47206425    %d G    DCD    1193305125
        0x0001f200:    676e696f    oing    DCD    1735289199
        0x0001f204:    726f6620     for    DCD    1919903264
        0x0001f208:    67707520     upg    DCD    1735423264
        0x0001f20c:    65646172    rade    DCD    1701077362
        0x0001f210:    0000000a    ....    DCD    10
        0x0001f214:    65636552    Rece    DCD    1701012818
        0x0001f218:    64657669    ived    DCD    1684371049
        0x0001f21c:    77656e20     new    DCD    2003136032
        0x0001f220:    454c4220     BLE    DCD    1162625568
        0x0001f224:    6e6f4320     Con    DCD    1852785440
        0x0001f228:    6c6f7274    trol    DCD    1819243124
        0x0001f22c:    2072656c    ler     DCD    544367980
        0x0001f230:    76205746    FW v    DCD    1981830982
        0x0001f234:    69737265    ersi    DCD    1769173605
        0x0001f238:    3d206e6f    on =    DCD    1025535599
        0x0001f23c:    2e642520     %d.    DCD    778315040
        0x0001f240:    252e6425    %d.%    DCD    623797285
        0x0001f244:    64252e64    d.%d    DCD    1680158308
        0x0001f248:    696f4720     Goi    DCD    1768900384
        0x0001f24c:    6620676e    ng f    DCD    1713399662
        0x0001f250:    7520726f    or u    DCD    1965060719
        0x0001f254:    61726770    pgra    DCD    1634887536
        0x0001f258:    000a6564    de..    DCD    681316
    Region$$Table$$Base
        0x0001f25c:    0001f28c    ....    DCD    127628
        0x0001f260:    10000000    ....    DCD    268435456
        0x0001f264:    00000200    ....    DCD    512
        0x0001f268:    00018270    p...    DCD    98928
        0x0001f26c:    0001f340    @...    DCD    127808
        0x0001f270:    10060000    ....    DCD    268828672
        0x0001f274:    00000040    @...    DCD    64
        0x0001f278:    000182cc    ....    DCD    99020
        0x0001f27c:    0001f340    @...    DCD    127808
        0x0001f280:    10000200    ....    DCD    268435968
        0x0001f284:    0000b968    h...    DCD    47464
        0x0001f288:    000182e8    ....    DCD    99048
    Region$$Table$$Limit

** Section #2 'MCU_TCM' (SHT_PROGBITS) [SHF_ALLOC + SHF_WRITE]
    Size   : 180 bytes (alignment 8)
    Address: 0x10000000

    Data section was compressed (Original size: 512 bytes)

    0x10000000:   00 00 00 00 11 06 01 00 03 06 01 01 01 06 06 22    ..............."
    0x10000010:   44 66 88 48 59 11 06 01 01 03 06 01 01 01 06 06    Df.HY...........
    0x10000020:   22 44 66 88 48 59 11 06 01 00 03 06 01 01 01 06    "Df.HY..........
    0x10000030:   06 22 44 66 88 48 59 01 c0 fc 06 04 00 99 88 77    ."Df.HY........w
    0x10000040:   36 04 0e 04 05 c0 fc 00 01 c1 fc 00 04 0e 04 05    6...............
    0x10000050:   c1 fc 00 01 c2 fc 00 04 0e 04 05 00 00 00 00 00    ................
    0x10000060:   00 00 00 00 00 00 00 00 00 00 00 00 00 00 00 00    ................
    0x10000070:   00 00 00 00 00 34 00 10 80 01 00 00 01 00 00 00    .....4..........
    0x10000080:   00 00 00 00 00 00 00 00 00 00 00 00 00 00 00 00    ................
    0x10000090:   00 00 00 00 00 00 00 00 00 00 00 00 00 00 00 00    ................
    0x100000a0:   00 00 00 00 00 00 00 00 80 01 00 00 01 00 00 00    ................
    0x100000b0:   00 00 00 00 00 00 00 00 00 00 00 00 02 00 00 00    ................
    0x100000c0:   00 00 00 00 87 05 10 00 02 00 00 00 02 00 00 00    ................
    0x100000d0:   93 00 00 00 00 00 00 00 2c 00 00 00 04 00 00 00    ........,.......
    0x100000e0:   01 00 00 00 ff ff ff ff ff ff ff ff 00 00 00 00    ................
    0x100000f0:   00 00 00 00 00 00 00 00 00 00 00 00 00 00 00 00    ................
    0x10000100:   00 00 00 00 00 00 00 00 00 00 00 00 00 00 00 00    ................
    0x10000110:   00 00 00 00 04 04 00 00 04 00 00 00 87 05 00 00    ................
    0x10000120:   00 00 00 00 01 04 00 00 01 04 00 00 00 46 00 00    .............F..
    0x10000130:   00 46 00 00 87 05 04 00 04 00 00 00 05 04 00 00    .F..............
    0x10000140:   05 04 00 00 04 46 00 00 04 46 00 00 87 05 08 00    .....F...F......
    0x10000150:   00 00 00 00 01 04 00 00 01 04 00 00 00 46 00 00    .............F..
    0x10000160:   00 46 00 00 87 05 0c 00 00 00 00 00 01 04 00 00    .F..............
    0x10000170:   01 04 00 00 00 46 00 00 00 46 00 00 87 05 10 00    .....F...F......
    0x10000180:   00 00 00 00 01 04 00 00 01 04 00 00 87 05 14 00    ................
    0x10000190:   00 00 00 00 01 04 00 00 01 04 00 00 00 46 00 00    .............F..
    0x100001a0:   00 46 00 00 87 05 18 00 00 00 00 00 01 04 00 00    .F..............
    0x100001b0:   01 04 00 00 00 46 00 00 00 46 00 00 87 05 1c 00    .....F...F......
    0x100001c0:   00 00 00 00 01 04 00 00 01 04 00 00 00 46 00 00    .............F..
    0x100001d0:   00 46 00 00 02 04 00 00 00 01 02 00 01 00 00 00    .F..............
    0x100001e0:   00 00 00 00 08 1e 0c 40 18 1e 0c 40 00 00 00 00    .......@...@....
    0x100001f0:   6d db 02 40 d1 02 00 00 92 24 01 80 20 01 00 00    m..@.....$.. ...


** Section #3 'MCU_TCM' (SHT_NOBITS) [SHF_ALLOC + SHF_WRITE]
    Size   : 47464 bytes (alignment 8)
    Address: 0x10000200


** Section #4 'SHARED_SRAM' (SHT_PROGBITS) [SHF_ALLOC + SHF_WRITE]
    Size   : 64 bytes (alignment 4)
    Address: 0x10060000

    0x10060000:   98 ec 01 00 00 00 00 00 00 00 00 00 00 00 00 00    ................
    0x10060010:   00 00 00 00 00 00 00 00 00 00 00 00 00 00 00 00    ................
    0x10060020:   00 00 00 00 00 00 00 00 00 00 00 00 00 00 00 00    ................
    0x10060030:   00 00 00 00 00 00 00 00 00 00 00 00 00 00 00 00    ................


** Section #5 '.debug_abbrev' (SHT_PROGBITS)
    Size   : 1476 bytes


** Section #6 '.debug_frame' (SHT_PROGBITS)
    Size   : 6776 bytes


** Section #7 '.debug_info' (SHT_PROGBITS)
    Size   : 1063228 bytes


** Section #8 '.debug_line' (SHT_PROGBITS)
    Size   : 17484 bytes


** Section #9 '.debug_loc' (SHT_PROGBITS)
    Size   : 7400 bytes


** Section #10 '.debug_macinfo' (SHT_PROGBITS)
    Size   : 766000 bytes


** Section #11 '.debug_pubnames' (SHT_PROGBITS)
    Size   : 3729 bytes


** Section #12 '.symtab' (SHT_SYMTAB)
    Size   : 19072 bytes (alignment 4)
    String table #13 '.strtab'
    Last local symbol no. 776

    Symbol table .symtab (1191 symbols, 776 local)

      #  Symbol Name                Value      Bind  Sec  Type  Vis  Size
    ========================================================================

      1  $d                         0x00018000   Lc    1   --   De 
      2  $t                         0x00018200   Lc    1   --   De 
      3  $d                         0x00018230   Lc    1   --   De 
      4  $t                         0x00018234   Lc    1   --   De 
      5  $d                         0x00018268   Lc    1   --   De 
      6  $t                         0x00018270   Lc    1   --   De 
      7  $d                         0x00018350   Lc    1   --   De 
      8  $t                         0x00018354   Lc    1   --   De 
      9  $d                         0x0001837e   Lc    1   --   De 
     10  $t                         0x0001838c   Lc    1   --   De 
     11  $d                         0x00018628   Lc    1   --   De 
     12  $t                         0x0001862c   Lc    1   --   De 
     13  $d                         0x00018634   Lc    1   --   De 
     14  $t                         0x00018638   Lc    1   --   De 
     15  $d                         0x0001867e   Lc    1   --   De 
     16  $t                         0x00018690   Lc    1   --   De 
     17  $d                         0x000186dc   Lc    1   --   De 
     18  $t                         0x000186e4   Lc    1   --   De 
     19  $d                         0x000186fa   Lc    1   --   De 
     20  $t                         0x00018718   Lc    1   --   De 
     21  $d                         0x0001894a   Lc    1   --   De 
     22  $t                         0x00018950   Lc    1   --   De 
     23  $d                         0x00018966   Lc    1   --   De 
     24  $t                         0x00018984   Lc    1   --   De 
     25  $d                         0x00018bf8   Lc    1   --   De 
     26  $t                         0x00018cb0   Lc    1   --   De 
     27  $d                         0x00018cd8   Lc    1   --   De 
     28  $t                         0x00018ce0   Lc    1   --   De 
     29  $d                         0x00018d5c   Lc    1   --   De 
     30  $t                         0x00018d74   Lc    1   --   De 
     31  $d                         0x00018e66   Lc    1   --   De 
     32  $t                         0x00018e6c   Lc    1   --   De 
     33  $d                         0x00018faa   Lc    1   --   De 
     34  $t                         0x00018fbc   Lc    1   --   De 
     35  $d                         0x00019024   Lc    1   --   De 
     36  $t                         0x00019028   Lc    1   --   De 
     37  $d                         0x000190c6   Lc    1   --   De 
     38  $t                         0x000190cc   Lc    1   --   De 
     39  $d                         0x000190e4   Lc    1   --   De 
     40  $t                         0x000190e8   Lc    1   --   De 
     41  $d                         0x00019112   Lc    1   --   De 
     42  $t                         0x00019118   Lc    1   --   De 
     43  $d                         0x000192fc   Lc    1   --   De 
     44  $t                         0x0001934c   Lc    1   --   De 
     45  $d                         0x00019356   Lc    1   --   De 
     46  $t                         0x0001935c   Lc    1   --   De 
     47  $d                         0x000193ac   Lc    1   --   De 
     48  $t                         0x000193b4   Lc    1   --   De 
     49  $d                         0x000193fe   Lc    1   --   De 
     50  $t                         0x00019410   Lc    1   --   De 
     51  $d                         0x00019466   Lc    1   --   De 
     52  $t                         0x0001946c   Lc    1   --   De 
     53  $d                         0x000194f0   Lc    1   --   De 
     54  $t                         0x00019524   Lc    1   --   De 
     55  $d                         0x00019598   Lc    1   --   De 
     56  $t                         0x000195a8   Lc    1   --   De 
     57  $d                         0x00019600   Lc    1   --   De 
     58  $t                         0x00019604   Lc    1   --   De 
     59  $d                         0x0001961c   Lc    1   --   De 
     60  $t                         0x00019622   Lc    1   --   De 
     61  $d                         0x000199f6   Lc    1   --   De 
     62  $t                         0x00019bfc   Lc    1   --   De 
     63  $d                         0x00019c74   Lc    1   --   De 
     64  $t                         0x00019c7c   Lc    1   --   De 
     65  $d                         0x00019cdc   Lc    1   --   De 
     66  $t                         0x00019ce0   Lc    1   --   De 
     67  $d                         0x00019d2e   Lc    1   --   De 
     68  $t                         0x00019d38   Lc    1   --   De 
     69  $d                         0x00019da8   Lc    1   --   De 
     70  $t                         0x00019dac   Lc    1   --   De 
     71  $d                         0x00019e4a   Lc    1   --   De 
     72  $t                         0x00019e50   Lc    1   --   De 
     73  $d                         0x00019f32   Lc    1   --   De 
     74  $t                         0x00019f40   Lc    1   --   De 
     75  $d                         0x00019fc4   Lc    1   --   De 
     76  $t                         0x00019fc8   Lc    1   --   De 
     77  $d                         0x0001a020   Lc    1   --   De 
     78  $t                         0x0001a02c   Lc    1   --   De 
     79  $d                         0x0001a0bc   Lc    1   --   De 
     80  $t                         0x0001a0c4   Lc    1   --   De 
     81  $d                         0x0001a13a   Lc    1   --   De 
     82  $t                         0x0001a144   Lc    1   --   De 
     83  $d                         0x0001a1c8   Lc    1   --   De 
     84  $t                         0x0001a1d4   Lc    1   --   De 
     85  $d                         0x0001a2aa   Lc    1   --   De 
     86  $t                         0x0001a2b8   Lc    1   --   De 
     87  $d                         0x0001a2da   Lc    1   --   De 
     88  $t                         0x0001a2e4   Lc    1   --   De 
     89  $d                         0x0001a334   Lc    1   --   De 
     90  $t                         0x0001a33c   Lc    1   --   De 
     91  $d                         0x0001a398   Lc    1   --   De 
     92  $t                         0x0001a3a0   Lc    1   --   De 
     93  $d                         0x0001a55e   Lc    1   --   De 
     94  $t                         0x0001a56c   Lc    1   --   De 
     95  $d                         0x0001a596   Lc    1   --   De 
     96  $t                         0x0001a59c   Lc    1   --   De 
     97  $d                         0x0001a5fe   Lc    1   --   De 
     98  $t                         0x0001a604   Lc    1   --   De 
     99  $d                         0x0001a668   Lc    1   --   De 
    100  $t                         0x0001a670   Lc    1   --   De 
    101  $d                         0x0001a6c2   Lc    1   --   De 
    102  $t                         0x0001a6c8   Lc    1   --   De 
    103  $d                         0x0001a738   Lc    1   --   De 
    104  $t                         0x0001a744   Lc    1   --   De 
    105  $d                         0x0001a766   Lc    1   --   De 
    106  $t                         0x0001a76c   Lc    1   --   De 
    107  $d                         0x0001aafc   Lc    1   --   De 
    108  $t                         0x0001ab14   Lc    1   --   De 
    109  $d                         0x0001adca   Lc    1   --   De 
    110  $t                         0x0001ae08   Lc    1   --   De 
    111  $d                         0x0001ae88   Lc    1   --   De 
    112  $t                         0x0001ae8c   Lc    1   --   De 
    113  $d                         0x0001af9e   Lc    1   --   De 
    114  $t                         0x0001afa8   Lc    1   --   De 
    115  $d                         0x0001aff4   Lc    1   --   De 
    116  $t                         0x0001affc   Lc    1   --   De 
    117  $d                         0x0001b02a   Lc    1   --   De 
    118  $t                         0x0001b030   Lc    1   --   De 
    119  $d                         0x0001b362   Lc    1   --   De 
    120  $t                         0x0001b370   Lc    1   --   De 
    121  $d                         0x0001b3b4   Lc    1   --   De 
    122  $t                         0x0001b3b8   Lc    1   --   De 
    123  $d                         0x0001b6e8   Lc    1   --   De 
    124  $t                         0x0001b6f0   Lc    1   --   De 
    125  $d                         0x0001b778   Lc    1   --   De 
    126  $t                         0x0001b77c   Lc    1   --   De 
    127  $d                         0x0001b820   Lc    1   --   De 
    128  $t                         0x0001b844   Lc    1   --   De 
    129  $d                         0x0001b870   Lc    1   --   De 
    130  $t                         0x0001b88c   Lc    1   --   De 
    131  $d                         0x0001b8e2   Lc    1   --   De 
    132  $t                         0x0001b8e8   Lc    1   --   De 
    133  $d                         0x0001bb8a   Lc    1   --   De 
    134  $t                         0x0001bb9c   Lc    1   --   De 
    135  $d                         0x0001bcc2   Lc    1   --   De 
    136  $t                         0x0001bcec   Lc    1   --   De 
    137  $d                         0x0001bd58   Lc    1   --   De 
    138  $t                         0x0001bd5c   Lc    1   --   De 
    139  $d                         0x0001bf40   Lc    1   --   De 
    140  $t                         0x0001bf54   Lc    1   --   De 
    141  $d                         0x0001c02c   Lc    1   --   De 
    142  $t                         0x0001c048   Lc    1   --   De 
    143  $d                         0x0001c15c   Lc    1   --   De 
    144  $t                         0x0001c164   Lc    1   --   De 
    145  $d                         0x0001c1d2   Lc    1   --   De 
    146  $t                         0x0001c1dc   Lc    1   --   De 
    147  $d                         0x0001c1ee   Lc    1   --   De 
    148  $t                         0x0001c1f4   Lc    1   --   De 
    149  $d                         0x0001c306   Lc    1   --   De 
    150  $t                         0x0001c320   Lc    1   --   De 
    151  $d                         0x0001c3c6   Lc    1   --   De 
    152  $t                         0x0001c3d4   Lc    1   --   De 
    153  $d                         0x0001c47a   Lc    1   --   De 
    154  $t                         0x0001c484   Lc    1   --   De 
    155  $d                         0x0001c552   Lc    1   --   De 
    156  $t                         0x0001c558   Lc    1   --   De 
    157  $d                         0x0001c670   Lc    1   --   De 
    158  $t                         0x0001c684   Lc    1   --   De 
    159  $d                         0x0001c6d6   Lc    1   --   De 
    160  $t                         0x0001c6f0   Lc    1   --   De 
    161  $d                         0x0001c760   Lc    1   --   De 
    162  $t                         0x0001c764   Lc    1   --   De 
    163  $d                         0x0001c7ee   Lc    1   --   De 
    164  $t                         0x0001c7f4   Lc    1   --   De 
    165  $d                         0x0001c8ec   Lc    1   --   De 
    166  $t                         0x0001c910   Lc    1   --   De 
    167  $d                         0x0001c988   Lc    1   --   De 
    168  $t                         0x0001c990   Lc    1   --   De 
    169  $d                         0x0001c9bc   Lc    1   --   De 
    170  $t                         0x0001c9c0   Lc    1   --   De 
    171  $d                         0x0001c9f0   Lc    1   --   De 
    172  $t                         0x0001c9f4   Lc    1   --   De 
    173  $d                         0x0001ca3a   Lc    1   --   De 
    174  $t                         0x0001ca40   Lc    1   --   De 
    175  $d                         0x0001ca78   Lc    1   --   De 
    176  $t                         0x0001ca7c   Lc    1   --   De 
    177  $d                         0x0001cb5e   Lc    1   --   De 
    178  $t                         0x0001cb64   Lc    1   --   De 
    179  $d                         0x0001cdd6   Lc    1   --   De 
    180  $t                         0x0001cde0   Lc    1   --   De 
    181  $d                         0x0001ce0a   Lc    1   --   De 
    182  $t                         0x0001ce10   Lc    1   --   De 
    183  $d                         0x0001ce64   Lc    1   --   De 
    184  $t                         0x0001ce70   Lc    1   --   De 
    185  $d                         0x0001ce9c   Lc    1   --   De 
    186  $t                         0x0001cea0   Lc    1   --   De 
    187  $d                         0x0001cefc   Lc    1   --   De 
    188  $t                         0x0001cf00   Lc    1   --   De 
    189  $d                         0x0001cf6c   Lc    1   --   De 
    190  $t                         0x0001cf74   Lc    1   --   De 
    191  $d                         0x0001d04e   Lc    1   --   De 
    192  $t                         0x0001d054   Lc    1   --   De 
    193  $d                         0x0001d086   Lc    1   --   De 
    194  $t                         0x0001d090   Lc    1   --   De 
    195  $d                         0x0001d096   Lc    1   --   De 
    196  $t                         0x0001d09c   Lc    1   --   De 
    197  $d                         0x0001d0a6   Lc    1   --   De 
    198  $t                         0x0001d0bc   Lc    1   --   De 
    199  $d                         0x0001d460   Lc    1   --   De 
    200  $t                         0x0001d470   Lc    1   --   De 
    201  $d                         0x0001d486   Lc    1   --   De 
    202  $t                         0x0001d48c   Lc    1   --   De 
    203  $d                         0x0001d5ac   Lc    1   --   De 
    204  $t                         0x0001d5cc   Lc    1   --   De 
    205  $d                         0x0001d66c   Lc    1   --   De 
    206  $t                         0x0001d674   Lc    1   --   De 
    207  $d                         0x0001d690   Lc    1   --   De 
    208  $t                         0x0001d694   Lc    1   --   De 
    209  $d                         0x0001d718   Lc    1   --   De 
    210  $t                         0x0001d71c   Lc    1   --   De 
    211  $d                         0x0001d76c   Lc    1   --   De 
    212  $t                         0x0001d774   Lc    1   --   De 
    213  $d                         0x0001d7c2   Lc    1   --   De 
    214  $t                         0x0001d7d8   Lc    1   --   De 
    215  $d                         0x0001d8a6   Lc    1   --   De 
    216  $t                         0x0001d8b0   Lc    1   --   De 
    217  $d                         0x0001da62   Lc    1   --   De 
    218  $t                         0x0001da9c   Lc    1   --   De 
    219  $d                         0x0001dc0e   Lc    1   --   De 
    220  $t                         0x0001dc14   Lc    1   --   De 
    221  $d                         0x0001dc28   Lc    1   --   De 
    222  $t                         0x0001dc2c   Lc    1   --   De 
    223  $d                         0x0001dc46   Lc    1   --   De 
    224  $t                         0x0001dc4c   Lc    1   --   De 
    225  $d                         0x0001dc9e   Lc    1   --   De 
    226  $t                         0x0001dcb8   Lc    1   --   De 
    227  $d                         0x0001ddfa   Lc    1   --   De 
    228  $t                         0x0001de00   Lc    1   --   De 
    229  $d                         0x0001e1b0   Lc    1   --   De 
    230  $t                         0x0001e1b4   Lc    1   --   De 
    231  $d                         0x0001e216   Lc    1   --   De 
    232  $t                         0x0001e21c   Lc    1   --   De 
    233  $d                         0x0001e2f4   Lc    1   --   De 
    234  $t                         0x0001e2fc   Lc    1   --   De 
    235  $d                         0x0001e320   Lc    1   --   De 
    236  $t                         0x0001e328   Lc    1   --   De 
    237  $d                         0x0001e354   Lc    1   --   De 
    238  $t                         0x0001e35c   Lc    1   --   De 
    239  $d                         0x0001e3d4   Lc    1   --   De 
    240  $t                         0x0001e404   Lc    1   --   De 
    241  $d                         0x0001e426   Lc    1   --   De 
    242  $t                         0x0001e42c   Lc    1   --   De 
    243  $d                         0x0001e5a4   Lc    1   --   De 
    244  $t                         0x0001e5c0   Lc    1   --   De 
    245  $d                         0x0001e782   Lc    1   --   De 
    246  $t                         0x0001e8f8   Lc    1   --   De 
    247  $d                         0x0001e96e   Lc    1   --   De 
    248  $t                         0x0001e974   Lc    1   --   De 
    249  $d                         0x0001eb18   Lc    1   --   De 
    250  $t                         0x0001eb1c   Lc    1   --   De 
    251  $d                         0x0001eb6c   Lc    1   --   De 
    252  $t                         0x0001eb70   Lc    1   --   De 
    253  $d                         0x0001ebee   Lc    1   --   De 
    254  $t                         0x0001ebf2   Lc    1   --   De 
    255  $d.realdata                0x0001ec30   Lc    1   --   De 
    256  $d.realdata                0x10000000   Lc    2   --   De 
    257  $d.realdata                0x10060000   Lc    4   --   De 
    258  ..\src\am_resources.c      0x00000000   Lc  Abs  File  De 
    259  ../src/am_resources.c      0x00000000   Lc  Abs  File  De 
    260  .constdata                 0x0001ec30   Lc    1  Sect  De   0x84
    261  ui32I2sWordLength          0x0001ec30   Lc    1  Data  De   0x18
    262  __tagsym$$used             0x0001ec48   Lc    1   --   De 
    263  __tagsym$$used             0x0001ec5c   Lc    1   --   De 
    264  __tagsym$$used             0x0001ec70   Lc    1   --   De 
    265  __tagsym$$used             0x0001ec84   Lc    1   --   De 
    266  __tagsym$$used             0x0001ec98   Lc    1   --   De 
    267  RESOURCE_TABLE             0x10060000   Lc    4  Sect  De   0x4
    268  __tagsym$$used             0x10060000   Lc    4   --   De 
    269  SHARED_RW                  0x10060004   Lc    4  Sect  De   0x3c
    270  __tagsym$$used             0x10060004   Lc    4   --   De 
    271  __tagsym$$used             0x10060018   Lc    4   --   De 
    272  __tagsym$$used             0x1006002c   Lc    4   --   De 
    273  ..\src\uart_ble_bridge.c   0x00000000   Lc  Abs  File  De 
    274  ../src/uart_ble_bridge.c   0x00000000   Lc  Abs  File  De 
    275  i.__NVIC_EnableIRQ         0x0001869a   Lc    1  Sect  De 
    276  __NVIC_EnableIRQ           0x0001869b   Lc    1  Code  De   0x22
    277  i.__NVIC_SetPriority       0x000186bc   Lc    1  Sect  De 
    278  __NVIC_SetPriority         0x000186bd   Lc    1  Code  De   0x20
    279  i.am_uart2_isr             0x0001ce10   Lc    1  Sect  De 
    280  i.main                     0x0001de30   Lc    1  Sect  De 
    281  i.serial_data_read         0x0001e2fc   Lc    1  Sect  De 
    282  i.serial_data_write        0x0001e328   Lc    1  Sect  De 
    283  i.serial_interface_init    0x0001e35c   Lc    1  Sect  De 
    284  i.serial_irq_disable       0x0001e404   Lc    1  Sect  De 
    285  i.serial_irq_enable        0x0001e42c   Lc    1  Sect  De 
    286  i.serial_task              0x0001e8f8   Lc    1  Sect  De 
    287  .bss                       0x10000200   Lc    3  Sect  De   0x800
    288  .constdata                 0x0001ecb4   Lc    1  Sect  De   0x64
    289  ui32I2sWordLength          0x0001ecb4   Lc    1  Data  De   0x18
    290  .data                      0x10000000   Lc    2  Sect  De   0x4
    291  ..\..\..\..\..\..\ambiq_ble\apps\dtm_module\dtm_main.c
                                    0x00000000   Lc  Abs  File  De 
    292  ../../../../../../ambiq_ble/apps/dtm_module/dtm_main.c
                                    0x00000000   Lc  Abs  File  De 
    293  i.ClkReqIntService         0x0001863c   Lc    1  Sect  De 
    294  ClkReqIntService           0x0001863d   Lc    1  Code  De   0x42
    295  i.am_gpio0_203f_isr        0x00019c7c   Lc    1  Sect  De 
    296  i.am_iomaster4_isr         0x0001cde0   Lc    1  Sect  De 
    297  i.apollo4_mcu_ble_enter_sleep
                                    0x0001d48c   Lc    1  Sect  De 
    298  apollo4_mcu_ble_enter_sleep
                                    0x0001d48d   Lc    1  Code  De   0x120
    299  i.build_info0_patch        0x0001d694   Lc    1  Sect  De 
    300  build_info0_patch          0x0001d695   Lc    1  Code  De   0x84
    301  i.clkreq_interrupt_init    0x0001d71c   Lc    1  Sect  De 
    302  clkreq_interrupt_init      0x0001d71d   Lc    1  Code  De   0x50
    303  i.cooper_spi_init          0x0001d774   Lc    1  Sect  De 
    304  i.dtm_data_callback        0x0001d9be   Lc    1  Sect  De 
    305  dtm_data_callback          0x0001d9bf   Lc    1  Code  De   0x2a
    306  i.dtm_init                 0x0001d9e8   Lc    1  Sect  De 
    307  i.dtm_process              0x0001da08   Lc    1  Sect  De 
    308  i.hci_data_read            0x0001dc14   Lc    1  Sect  De 
    309  hci_data_read              0x0001dc15   Lc    1  Code  De   0x14
    310  i.hci_data_write           0x0001dc2c   Lc    1  Sect  De 
    311  hci_data_write             0x0001dc2d   Lc    1  Code  De   0x1a
    312  i.hci_rx_process           0x0001dc4c   Lc    1  Sect  De 
    313  hci_rx_process             0x0001dc4d   Lc    1  Code  De   0x52
    314  i.running_done_gpio_init   0x0001e180   Lc    1  Sect  De 
    315  running_done_gpio_init     0x0001e181   Lc    1  Code  De   0x30
    316  i.running_done_gpio_set    0x0001e1b4   Lc    1  Sect  De 
    317  running_done_gpio_set      0x0001e1b5   Lc    1  Code  De   0x18
    318  i.serial_rx_hci_state_machine
                                    0x0001e440   Lc    1  Sect  De 
    319  i.serial_rx_process        0x0001e5c0   Lc    1  Sect  De 
    320  serial_rx_process          0x0001e5c1   Lc    1  Code  De   0x1c2
    321  i.set_bd_address           0x0001e8fc   Lc    1  Sect  De 
    322  set_bd_address             0x0001e8fd   Lc    1  Code  De   0x72
    323  .bss                       0x10000a00   Lc    3  Sect  De   0x2d80
    324  pPktRx                     0x10003580   Lc    3  Data  De   0x200
    325  .constdata                 0x0001ed18   Lc    1  Sect  De   0x1e
    326  ui32I2sWordLength          0x0001ed18   Lc    1  Data  De   0x18
    327  .data                      0x10000004   Lc    2  Sect  De   0x94
    328  g_sBLEInfo0PatchImage      0x10000074   Lc    2  Data  De   0x10
    329  stateRx                    0x1000008c   Lc    2  Data  De   0x1
    330  pktIndRx                   0x1000008d   Lc    2  Data  De   0x1
    331  iRx                        0x1000008e   Lc    2  Data  De   0x2
    332  hdrRx                      0x10000090   Lc    2  Data  De   0x4
    333  pDataRx                    0x10000094   Lc    2  Data  De   0x4
    334  ..\..\..\..\..\..\utils\am_util_ble_cooper.c
                                    0x00000000   Lc  Abs  File  De 
    335  ../../../../../../utils/am_util_ble_cooper.c
                                    0x00000000   Lc  Abs  File  De 
    336  i.am_util_ble_hci_reset    0x0001ce70   Lc    1  Sect  De 
    337  i.am_util_ble_nvds_set     0x0001cea0   Lc    1  Sect  De 
    338  i.am_util_ble_update_sign_set
                                    0x0001cf00   Lc    1  Sect  De 
    339  .constdata                 0x0001ed38   Lc    1  Sect  De   0xc8
    340  ui32I2sWordLength          0x0001ed38   Lc    1  Data  De   0x18
    341  ..\..\..\..\..\..\utils\am_util_delay.c
                                    0x00000000   Lc  Abs  File  De 
    342  ../../../../../../utils/am_util_delay.c
                                    0x00000000   Lc  Abs  File  De 
    343  i.am_util_delay_ms         0x0001cf74   Lc    1  Sect  De 
    344  i.am_util_delay_us         0x0001cf86   Lc    1  Sect  De 
    345  ..\..\..\..\..\..\utils\am_util_faultisr.c
                                    0x00000000   Lc  Abs  File  De 
    346  .emb_text                  0x00018330   Lc    1  Sect  De   0x2c
    347  $v0                        0x00018330   Lc    1   --   De 
    348  ../../../../../../utils/am_util_faultisr.c
                                    0x00000000   Lc  Abs  File  De 
    349  i.am_util_faultisr_collect_data
                                    0x0001cf94   Lc    1  Sect  De 
    350  i.am_valid_sp              0x0001d470   Lc    1  Sect  De 
    351  .bss                       0x10003780   Lc    3  Sect  De   0x200
    352  ../../../../../../utils/am_util_stdio.c
                                    0x00000000   Lc  Abs  File  De 
    353  i.am_util_stdio_printf     0x0001d054   Lc    1  Sect  De 
    354  i.am_util_stdio_printf_init
                                    0x0001d090   Lc    1  Sect  De 
    355  i.am_util_stdio_terminal_clear
                                    0x0001d09c   Lc    1  Sect  De 
    356  i.am_util_stdio_vsprintf   0x0001d0bc   Lc    1  Sect  De 
    357  i.decstr_to_int            0x0001d8b0   Lc    1  Sect  De 
    358  decstr_to_int              0x0001d8b1   Lc    1  Code  De   0x42
    359  i.divu64_10                0x0001d8f2   Lc    1  Sect  De 
    360  divu64_10                  0x0001d8f3   Lc    1  Code  De   0xcc
    361  i.ftoa                     0x0001da9c   Lc    1  Sect  De 
    362  ftoa                       0x0001da9d   Lc    1  Code  De   0x172
    363  i.ndigits_in_hex           0x0001de3e   Lc    1  Sect  De 
    364  ndigits_in_hex             0x0001de3f   Lc    1  Code  De   0x34
    365  i.ndigits_in_i64           0x0001de72   Lc    1  Sect  De 
    366  ndigits_in_i64             0x0001de73   Lc    1  Code  De   0x24
    367  i.ndigits_in_u64           0x0001de96   Lc    1  Sect  De 
    368  ndigits_in_u64             0x0001de97   Lc    1  Code  De   0x3a
    369  i.padbuffer                0x0001e15e   Lc    1  Sect  De 
    370  padbuffer                  0x0001e15f   Lc    1  Code  De   0x22
    371  i.simple_strlen            0x0001e974   Lc    1  Sect  De 
    372  simple_strlen              0x0001e975   Lc    1  Code  De   0x18
    373  i.uint64_to_hexstr         0x0001e98c   Lc    1  Sect  De 
    374  uint64_to_hexstr           0x0001e98d   Lc    1  Code  De   0x8a
    375  i.uint64_to_str            0x0001ea16   Lc    1  Sect  De 
    376  uint64_to_str              0x0001ea17   Lc    1  Code  De   0x70
    377  .bss                       0x10003980   Lc    3  Sect  De   0x400
    378  g_prfbuf                   0x10003980   Lc    3  Data  De   0x400
    379  .data                      0x10000098   Lc    2  Sect  De   0x5
    380  g_bTxtXlate                0x1000009c   Lc    2  Data  De   0x1
    381  ..\..\..\..\..\..\devices\am_devices_cooper.c
                                    0x00000000   Lc  Abs  File  De 
    382  ../../../../../../devices/am_devices_cooper.c
                                    0x00000000   Lc  Abs  File  De 
    383  i.am_devices_cooper_blocking_read
                                    0x00018d8c   Lc    1  Sect  De 
    384  i.am_devices_cooper_blocking_write
                                    0x00018e6c   Lc    1  Sect  De 
    385  i.am_devices_cooper_bus_disable
                                    0x00018fbc   Lc    1  Sect  De 
    386  i.am_devices_cooper_bus_enable
                                    0x00018fe4   Lc    1  Sect  De 
    387  i.am_devices_cooper_clkreq_read
                                    0x00019018   Lc    1  Sect  De 
    388  i.am_devices_cooper_command_write
                                    0x00019028   Lc    1  Sect  De 
    389  i.am_devices_cooper_get_info0_patch
                                    0x000190cc   Lc    1  Sect  De 
    390  i.am_devices_cooper_image_update_init
                                    0x000190e8   Lc    1  Sect  De 
    391  i.am_devices_cooper_init   0x00019118   Lc    1  Sect  De 
    392  i.am_devices_cooper_irq_read
                                    0x0001934c   Lc    1  Sect  De 
    393  i.am_devices_cooper_pins_disable
                                    0x0001935c   Lc    1  Sect  De 
    394  i.am_devices_cooper_pins_enable
                                    0x000193b4   Lc    1  Sect  De 
    395  i.am_devices_cooper_reset  0x00019410   Lc    1  Sect  De 
    396  i.am_devices_cooper_reset_with_sbl_check
                                    0x0001946c   Lc    1  Sect  De 
    397  i.am_devices_cooper_sbl_update_state_data
                                    0x00019524   Lc    1  Sect  De 
    398  am_devices_cooper_sbl_update_state_data
                                    0x00019525   Lc    1  Code  De   0x74
    399  i.am_devices_cooper_term   0x000195a8   Lc    1  Sect  De 
    400  i.am_devices_cooper_update_image
                                    0x00019604   Lc    1  Sect  De 
    401  i.iom_slave_read           0x0001de00   Lc    1  Sect  De 
    402  i.send_data                0x0001e1cc   Lc    1  Sect  De 
    403  i.send_fwContinue          0x0001e21c   Lc    1  Sect  De 
    404  i.send_hello               0x0001e24c   Lc    1  Sect  De 
    405  i.send_update              0x0001e27c   Lc    1  Sect  De 
    406  .bss                       0x10003d80   Lc    3  Sect  De   0x74
    407  gsSblUpdateState           0x10003da4   Lc    3  Data  De   0x40
    408  g_sFwImage                 0x10003de4   Lc    3  Data  De   0x10
    409  .conststring               0x0001f1d0   Lc    1  Sect  De   0x8c
    410  .data                      0x100000a0   Lc    2  Sect  De   0x38
    411  g_sInfo0PatchImage         0x100000a4   Lc    2  Data  De   0x10
    412  g_sInfo1PatchImage         0x100000b4   Lc    2  Data  De   0x10
    413  sbl_status                 0x100000d4   Lc    2  Data  De   0x4
    414  ../keil/startup_keil.s     0x00000000   Lc  Abs  File  De 
    415  STACK                      0x10009068   Lc    3  Sect  De   0x2b00
    416  StackMem                   0x10009068   Lc    3  Data  De 
    417  HEAP                       0x10009068   Lc    3  Sect  De 
    418  HeapMem                    0x10009068   Lc    3  Data  De 
    419  RESET                      0x00018000   Lc    1  Sect  De   0x234
    420  $v0                        0x00018200   Lc    1   --   De 
    421  am_cryptosec_isr           0x0001822f   Lc    1  Code  De 
    422  am_default_isr             0x0001822f   Lc    1  Code  De   0x2
    423  .text                      0x00018374   Lc    1  Sect  De   0x18
    424  $v0                        0x00018374   Lc    1   --   De 
    425  ..\..\..\..\..\mcu\apollo4l\hal\mcu\am_hal_fault.c
                                    0x00000000   Lc  Abs  File  De 
    426  ../../../../../mcu/apollo4l/hal/mcu/am_hal_fault.c
                                    0x00000000   Lc  Abs  File  De 
    427  i.am_hal_fault_capture_enable
                                    0x0001a3a0   Lc    1  Sect  De 
    428  i.am_hal_fault_status_get  0x0001a3b2   Lc    1  Sect  De 
    429  ..\..\..\..\..\mcu\apollo4l\hal\mcu\am_hal_interrupt.c
                                    0x00000000   Lc  Abs  File  De 
    430  .emb_text                  0x0001835c   Lc    1  Sect  De   0x16
    431  $v0                        0x0001835c   Lc    1   --   De 
    432  ../../../../../mcu/apollo4l/hal/mcu/am_hal_interrupt.c
                                    0x00000000   Lc  Abs  File  De 
    433  ..\..\..\..\..\mcu\apollo4l\hal\mcu\am_hal_iom.c
                                    0x00000000   Lc  Abs  File  De 
    434  ../../../../../mcu/apollo4l/hal/mcu/am_hal_iom.c
                                    0x00000000   Lc  Abs  File  De 
    435  i.am_hal_iom_blocking_transfer
                                    0x0001a7e8   Lc    1  Sect  De 
    436  i.am_hal_iom_configure     0x0001ab14   Lc    1  Sect  De 
    437  i.am_hal_iom_disable       0x0001ae08   Lc    1  Sect  De 
    438  i.am_hal_iom_enable        0x0001ae8c   Lc    1  Sect  De 
    439  i.am_hal_iom_initialize    0x0001afa8   Lc    1  Sect  De 
    440  i.am_hal_iom_interrupt_clear
                                    0x0001affc   Lc    1  Sect  De 
    441  i.am_hal_iom_interrupt_service
                                    0x0001b030   Lc    1  Sect  De 
    442  i.am_hal_iom_interrupt_status_get
                                    0x0001b370   Lc    1  Sect  De 
    443  i.am_hal_iom_power_ctrl    0x0001b3b8   Lc    1  Sect  De 
    444  i.am_hal_iom_uninitialize  0x0001b6f0   Lc    1  Sect  De 
    445  i.internal_iom_reset_on_error
                                    0x0001dcb8   Lc    1  Sect  De 
    446  internal_iom_reset_on_error
                                    0x0001dcb9   Lc    1  Code  De   0x142
    447  i.validate_transaction     0x0001ea88   Lc    1  Sect  De 
    448  .bss                       0x10003df4   Lc    3  Sect  De   0x4540
    449  ..\..\..\..\..\mcu\apollo4l\hal\mcu\am_hal_mcuctrl.c
                                    0x00000000   Lc  Abs  File  De 
    450  ../../../../../mcu/apollo4l/hal/mcu/am_hal_mcuctrl.c
                                    0x00000000   Lc  Abs  File  De 
    451  i.am_hal_mcuctrl_control   0x0001b8bc   Lc    1  Sect  De 
    452  i.am_hal_mcuctrl_info_get  0x0001bb9c   Lc    1  Sect  De 
    453  .bss                       0x10008334   Lc    3  Sect  De   0xc
    454  .constdata                 0x0001ee00   Lc    1  Sect  De   0x18
    455  g_am_hal_mcuctrl_sku_mram_size
                                    0x0001ee00   Lc    1  Data  De   0x8
    456  g_am_hal_mcuctrl_sku_ssram_size
                                    0x0001ee08   Lc    1  Data  De   0x10
    457  .constdata                 0x0001ee18   Lc    1  Sect  De   0x8
    458  .data                      0x100000d8   Lc    2  Sect  De   0x8
    459  ..\..\..\..\..\mcu\apollo4l\hal\mcu\am_hal_sysctrl.c
                                    0x00000000   Lc  Abs  File  De 
    460  ../../../../../mcu/apollo4l/hal/mcu/am_hal_sysctrl.c
                                    0x00000000   Lc  Abs  File  De 
    461  i.am_hal_sysctrl_sleep     0x0001c558   Lc    1  Sect  De 
    462  ..\..\..\..\..\mcu\apollo4l\hal\mcu\am_hal_uart.c
                                    0x00000000   Lc  Abs  File  De 
    463  ../../../../../mcu/apollo4l/hal/mcu/am_hal_uart.c
                                    0x00000000   Lc  Abs  File  De 
    464  i.am_hal_uart_buffer_configure
                                    0x0001c6f0   Lc    1  Sect  De 
    465  i.am_hal_uart_configure    0x0001c764   Lc    1  Sect  De 
    466  i.am_hal_uart_initialize   0x0001c910   Lc    1  Sect  De 
    467  i.am_hal_uart_interrupt_clear
                                    0x0001c990   Lc    1  Sect  De 
    468  i.am_hal_uart_interrupt_enable
                                    0x0001c9c0   Lc    1  Sect  De 
    469  i.am_hal_uart_interrupt_service
                                    0x0001c9f4   Lc    1  Sect  De 
    470  i.am_hal_uart_interrupt_status_get
                                    0x0001ca40   Lc    1  Sect  De 
    471  i.am_hal_uart_power_control
                                    0x0001ca7c   Lc    1  Sect  De 
    472  i.am_hal_uart_transfer     0x0001cb64   Lc    1  Sect  De 
    473  i.nonblocking_read_sm      0x0001ded0   Lc    1  Sect  De 
    474  nonblocking_read_sm        0x0001ded1   Lc    1  Code  De   0x134
    475  i.nonblocking_write_sm     0x0001e004   Lc    1  Sect  De 
    476  nonblocking_write_sm       0x0001e005   Lc    1  Code  De   0x15a
    477  .bss                       0x10008340   Lc    3  Sect  De   0x2e0
    478  ..\..\..\..\..\mcu\apollo4l\hal\mcu\am_hal_utils.c
                                    0x00000000   Lc  Abs  File  De 
    479  ../../../../../mcu/apollo4l/hal/mcu/am_hal_utils.c
                                    0x00000000   Lc  Abs  File  De 
    480  i.am_hal_delay_us          0x0001a2b8   Lc    1  Sect  De 
    481  i.am_hal_delay_us_status_change
                                    0x0001a2e4   Lc    1  Sect  De 
    482  i.am_hal_delay_us_status_check
                                    0x0001a33c   Lc    1  Sect  De 
    483  ..\..\..\..\..\mcu\apollo4l\hal\am_hal_gpio.c
                                    0x00000000   Lc  Abs  File  De 
    484  ../../../../../mcu/apollo4l/hal/am_hal_gpio.c
                                    0x00000000   Lc  Abs  File  De 
    485  i.am_hal_gpio_interrupt_control
                                    0x0001a3f0   Lc    1  Sect  De 
    486  i.am_hal_gpio_interrupt_irq_clear
                                    0x0001a56c   Lc    1  Sect  De 
    487  i.am_hal_gpio_interrupt_irq_status_get
                                    0x0001a59c   Lc    1  Sect  De 
    488  i.am_hal_gpio_interrupt_register
                                    0x0001a604   Lc    1  Sect  De 
    489  i.am_hal_gpio_interrupt_service
                                    0x0001a670   Lc    1  Sect  De 
    490  i.am_hal_gpio_pinconfig    0x0001a6c8   Lc    1  Sect  De 
    491  i.am_hal_gpio_state_write  0x0001a744   Lc    1  Sect  De 
    492  .bss                       0x10008620   Lc    3  Sect  De   0x800
    493  gpio_ppfnHandlers          0x10008620   Lc    3  Data  De   0x400
    494  gpio_pppvIrqArgs           0x10008a20   Lc    3  Data  De   0x400
    495  .constdata                 0x0001ee20   Lc    1  Sect  De   0x4
    496  .constdata                 0x0001ee24   Lc    1  Sect  De   0x4
    497  .constdata                 0x0001ee28   Lc    1  Sect  De   0x4
    498  .constdata                 0x0001ee2c   Lc    1  Sect  De   0x20
    499  g_ui32RMpintbl             0x0001ee2c   Lc    1  Data  De   0x10
    500  g_ui32DSpintbl             0x0001ee3c   Lc    1  Data  De   0x10
    501  ..\..\..\..\..\mcu\apollo4l\hal\am_hal_pwrctrl.c
                                    0x00000000   Lc  Abs  File  De 
    502  ../../../../../mcu/apollo4l/hal/am_hal_pwrctrl.c
                                    0x00000000   Lc  Abs  File  De 
    503  i.am_hal_pwrctrl_control   0x0001bd5c   Lc    1  Sect  De 
    504  i.am_hal_pwrctrl_low_power_init
                                    0x0001bf54   Lc    1  Sect  De 
    505  i.am_hal_pwrctrl_mcu_memory_config
                                    0x0001c048   Lc    1  Sect  De 
    506  i.am_hal_pwrctrl_mcu_mode_select
                                    0x0001c164   Lc    1  Sect  De 
    507  i.am_hal_pwrctrl_mcu_mode_status
                                    0x0001c1dc   Lc    1  Sect  De 
    508  i.am_hal_pwrctrl_periph_disable
                                    0x0001c1f4   Lc    1  Sect  De 
    509  i.am_hal_pwrctrl_periph_enable
                                    0x0001c320   Lc    1  Sect  De 
    510  i.am_hal_pwrctrl_sram_config
                                    0x0001c3d4   Lc    1  Sect  De 
    511  i.buck_ldo_override_init   0x0001d5cc   Lc    1  Sect  De 
    512  i.buck_ldo_update_override 0x0001d674   Lc    1  Sect  De 
    513  i.crypto_boost_trims       0x0001d800   Lc    1  Sect  De 
    514  .constdata                 0x0001ee4c   Lc    1  Sect  De   0x19c
    515  .data                      0x100000e0   Lc    2  Sect  De   0x2c
    516  g_bOrigTrimsStored         0x100000e1   Lc    2  Data  De   0x1
    517  g_bBoostForCryptoApplied   0x100000e2   Lc    2  Data  De   0x1
    518  g_orig_ACTTRIMVDDF         0x100000ec   Lc    2  Data  De   0x4
    519  g_orig_MEMLDOACTIVETRIM    0x100000f0   Lc    2  Data  De   0x4
    520  g_orig_LPTRIMVDDF          0x100000f4   Lc    2  Data  De   0x4
    521  g_orig_MEMLPLDOTRIM        0x100000f8   Lc    2  Data  De   0x4
    522  g_orig_TVRGVREFTRIM        0x100000fc   Lc    2  Data  De   0x4
    523  g_ui32VDDFAdjustCodes      0x10000100   Lc    2  Data  De   0x4
    524  g_i32LatestVddfActTrim     0x10000104   Lc    2  Data  De   0x4
    525  g_i32LatestLDOActTrim      0x10000108   Lc    2  Data  De   0x4
    526  ..\..\..\..\..\mcu\apollo4l\hal\am_hal_security.c
                                    0x00000000   Lc  Abs  File  De 
    527  ../../../../../mcu/apollo4l/hal/am_hal_security.c
                                    0x00000000   Lc  Abs  File  De 
    528  i.am_hal_crc32             0x00019fc8   Lc    1  Sect  De 
    529  ..\am_bsp.c                0x00000000   Lc  Abs  File  De 
    530  ../am_bsp.c                0x00000000   Lc  Abs  File  De 
    531  i.am_bsp_iom_pins_disable  0x000186e4   Lc    1  Sect  De 
    532  i.am_bsp_iom_pins_enable   0x00018950   Lc    1  Sect  De 
    533  i.am_bsp_itm_printf_disable
                                    0x00018cb0   Lc    1  Sect  De 
    534  i.am_bsp_itm_printf_enable 0x00018ce0   Lc    1  Sect  De 
    535  i.am_bsp_low_power_init    0x00018d74   Lc    1  Sect  De 
    536  .data                      0x1000010c   Lc    2  Sect  De   0x8
    537  g_ePrintInterface          0x1000010c   Lc    2  Data  De   0x1
    538  g_sCOMUART                 0x10000110   Lc    2  Data  De   0x4
    539  ..\am_bsp_pins.c           0x00000000   Lc  Abs  File  De 
    540  ../am_bsp_pins.c           0x00000000   Lc  Abs  File  De 
    541  .data                      0x10000114   Lc    2  Sect  De   0x4
    542  .data                      0x10000118   Lc    2  Sect  De   0x4
    543  .data                      0x1000011c   Lc    2  Sect  De   0x4
    544  .data                      0x10000120   Lc    2  Sect  De   0x4
    545  .data                      0x10000124   Lc    2  Sect  De   0x4
    546  .data                      0x10000128   Lc    2  Sect  De   0x4
    547  .data                      0x1000012c   Lc    2  Sect  De   0x4
    548  .data                      0x10000130   Lc    2  Sect  De   0x4
    549  .data                      0x10000134   Lc    2  Sect  De   0x4
    550  .data                      0x10000138   Lc    2  Sect  De   0x4
    551  .data                      0x1000013c   Lc    2  Sect  De   0x4
    552  .data                      0x10000140   Lc    2  Sect  De   0x4
    553  .data                      0x10000144   Lc    2  Sect  De   0x4
    554  .data                      0x10000148   Lc    2  Sect  De   0x4
    555  .data                      0x1000014c   Lc    2  Sect  De   0x4
    556  .data                      0x10000150   Lc    2  Sect  De   0x4
    557  .data                      0x10000154   Lc    2  Sect  De   0x4
    558  .data                      0x10000158   Lc    2  Sect  De   0x4
    559  .data                      0x1000015c   Lc    2  Sect  De   0x4
    560  .data                      0x10000160   Lc    2  Sect  De   0x4
    561  .data                      0x10000164   Lc    2  Sect  De   0x4
    562  .data                      0x10000168   Lc    2  Sect  De   0x4
    563  .data                      0x1000016c   Lc    2  Sect  De   0x4
    564  .data                      0x10000170   Lc    2  Sect  De   0x4
    565  .data                      0x10000174   Lc    2  Sect  De   0x4
    566  .data                      0x10000178   Lc    2  Sect  De   0x4
    567  .data                      0x1000017c   Lc    2  Sect  De   0x4
    568  .data                      0x10000180   Lc    2  Sect  De   0x4
    569  .data                      0x10000184   Lc    2  Sect  De   0x4
    570  .data                      0x10000188   Lc    2  Sect  De   0x4
    571  .data                      0x1000018c   Lc    2  Sect  De   0x4
    572  .data                      0x10000190   Lc    2  Sect  De   0x4
    573  .data                      0x10000194   Lc    2  Sect  De   0x4
    574  .data                      0x10000198   Lc    2  Sect  De   0x4
    575  .data                      0x1000019c   Lc    2  Sect  De   0x4
    576  .data                      0x100001a0   Lc    2  Sect  De   0x4
    577  .data                      0x100001a4   Lc    2  Sect  De   0x4
    578  .data                      0x100001a8   Lc    2  Sect  De   0x4
    579  .data                      0x100001ac   Lc    2  Sect  De   0x4
    580  .data                      0x100001b0   Lc    2  Sect  De   0x4
    581  .data                      0x100001b4   Lc    2  Sect  De   0x4
    582  .data                      0x100001b8   Lc    2  Sect  De   0x4
    583  .data                      0x100001bc   Lc    2  Sect  De   0x4
    584  .data                      0x100001c0   Lc    2  Sect  De   0x4
    585  .data                      0x100001c4   Lc    2  Sect  De   0x4
    586  .data                      0x100001c8   Lc    2  Sect  De   0x4
    587  .data                      0x100001cc   Lc    2  Sect  De   0x4
    588  .data                      0x100001d0   Lc    2  Sect  De   0x4
    589  .data                      0x100001d4   Lc    2  Sect  De   0x4
    590  ..\..\..\..\..\mcu\apollo4l\hal\mcu\am_hal_bootrom_helper.c
                                    0x00000000   Lc  Abs  File  De 
    591  ../../../../../mcu/apollo4l/hal/mcu/am_hal_bootrom_helper.c
                                    0x00000000   Lc  Abs  File  De 
    592  .constdata                 0x0001efe8   Lc    1  Sect  De   0x28
    593  ..\..\..\..\..\mcu\apollo4l\hal\mcu\am_hal_cachectrl.c
                                    0x00000000   Lc  Abs  File  De 
    594  ../../../../../mcu/apollo4l/hal/mcu/am_hal_cachectrl.c
                                    0x00000000   Lc  Abs  File  De 
    595  i.am_hal_daxi_config       0x0001a02c   Lc    1  Sect  De 
    596  i.am_hal_daxi_control      0x0001a0c4   Lc    1  Sect  De 
    597  .constdata                 0x0001f010   Lc    1  Sect  De   0x5
    598  .data                      0x100001d8   Lc    2  Sect  De   0x5
    599  i.__ARM_common_memcpy4_5   0x00018690   Lc    1  Sect  De 
    600  ..\..\..\..\..\mcu\apollo4l\hal\mcu\am_hal_cmdq.c
                                    0x00000000   Lc  Abs  File  De 
    601  ../../../../../mcu/apollo4l/hal/mcu/am_hal_cmdq.c
                                    0x00000000   Lc  Abs  File  De 
    602  i.am_hal_cmdq_disable      0x00019ca0   Lc    1  Sect  De 
    603  i.am_hal_cmdq_enable       0x00019ce0   Lc    1  Sect  De 
    604  i.am_hal_cmdq_error_resume 0x00019d38   Lc    1  Sect  De 
    605  i.am_hal_cmdq_get_status   0x00019dac   Lc    1  Sect  De 
    606  i.am_hal_cmdq_init         0x00019e50   Lc    1  Sect  De 
    607  i.am_hal_cmdq_term         0x00019f40   Lc    1  Sect  De 
    608  .bss                       0x10008e20   Lc    3  Sect  De   0x1e4
    609  gAmHalCmdq                 0x10008e20   Lc    3  Data  De   0x1e4
    610  .constdata                 0x0001f018   Lc    1  Sect  De   0x1b8
    611  gAmHalCmdQReg              0x0001f018   Lc    1  Data  De   0x1b8
    612  ..\..\..\..\..\mcu\apollo4l\hal\mcu\am_hal_itm.c
                                    0x00000000   Lc  Abs  File  De 
    613  ../../../../../mcu/apollo4l/hal/mcu/am_hal_itm.c
                                    0x00000000   Lc  Abs  File  De 
    614  i.am_hal_itm_disable       0x0001b77c   Lc    1  Sect  De 
    615  i.am_hal_itm_enable        0x0001b844   Lc    1  Sect  De 
    616  i.am_hal_itm_print         0x0001b88c   Lc    1  Sect  De 
    617  ..\..\..\..\..\mcu\apollo4l\hal\mcu\am_hal_mram.c
                                    0x00000000   Lc  Abs  File  De 
    618  ../../../../../mcu/apollo4l/hal/mcu/am_hal_mram.c
                                    0x00000000   Lc  Abs  File  De 
    619  i.am_hal_mram_info_read    0x0001bcec   Lc    1  Sect  De 
    620  ..\..\..\..\..\mcu\apollo4l\hal\mcu\am_hal_rtc.c
                                    0x00000000   Lc  Abs  File  De 
    621  ../../../../../mcu/apollo4l/hal/mcu/am_hal_rtc.c
                                    0x00000000   Lc  Abs  File  De 
    622  i.am_hal_rtc_osc_disable   0x0001c544   Lc    1  Sect  De 
    623  ..\..\..\..\..\mcu\apollo4l\hal\mcu\am_hal_tpiu.c
                                    0x00000000   Lc  Abs  File  De 
    624  ../../../../../mcu/apollo4l/hal/mcu/am_hal_tpiu.c
                                    0x00000000   Lc  Abs  File  De 
    625  i.am_hal_tpiu_enable       0x0001c684   Lc    1  Sect  De 
    626  ..\..\..\..\..\mcu\apollo4l\hal\am_hal_dcu.c
                                    0x00000000   Lc  Abs  File  De 
    627  ../../../../../mcu/apollo4l/hal/am_hal_dcu.c
                                    0x00000000   Lc  Abs  File  De 
    628  i.am_hal_dcu_get           0x0001a144   Lc    1  Sect  De 
    629  i.am_hal_dcu_update        0x0001a1d4   Lc    1  Sect  De 
    630  i.copy_words               0x0001d7d8   Lc    1  Sect  De 
    631  copy_words                 0x0001d7d9   Lc    1  Code  De   0x28
    632  .data                      0x100001e0   Lc    2  Sect  De   0x20
    633  ..\..\..\..\..\mcu\apollo4l\hal\am_hal_global.c
                                    0x00000000   Lc  Abs  File  De 
    634  ../../../../../mcu/apollo4l/hal/am_hal_global.c
                                    0x00000000   Lc  Abs  File  De 
    635  i.am_gpu_power_disable     0x00019c9a   Lc    1  Sect  De 
    636  i.am_gpu_power_enable      0x00019c9c   Lc    1  Sect  De 
    637  ..\..\..\..\..\mcu\apollo4l\hal\am_hal_pin.c
                                    0x00000000   Lc  Abs  File  De 
    638  ../../../../../mcu/apollo4l/hal/am_hal_pin.c
                                    0x00000000   Lc  Abs  File  De 
    639  ..\..\..\..\..\mcu\apollo4l\hal\am_hal_queue.c
                                    0x00000000   Lc  Abs  File  De 
    640  ../../../../../mcu/apollo4l/hal/am_hal_queue.c
                                    0x00000000   Lc  Abs  File  De 
    641  i.am_hal_queue_init        0x0001c484   Lc    1  Sect  De 
    642  i.am_hal_queue_item_add    0x0001c49c   Lc    1  Sect  De 
    643  i.am_hal_queue_item_get    0x0001c4f2   Lc    1  Sect  De 
    644  dc.s                       0x00000000   Lc  Abs  File  De 
    645  ../clib/longlong.s         0x00000000   Lc  Abs  File  De 
    646  .text                      0x0001838c   Lc    1  Sect  De   0x26
    647  ../clib/longlong.s         0x00000000   Lc  Abs  File  De 
    648  .text                      0x000183b2   Lc    1  Sect  De   0x26
    649  ../clib/string.c           0x00000000   Lc  Abs  File  De 
    650  .text                      0x000183d8   Lc    1  Sect  De 
    651  ../clib/memcpset.s         0x00000000   Lc  Abs  File  De 
    652  .text                      0x00018430   Lc    1  Sect  De   0x8a
    653  ../clib/memcpset.s         0x00000000   Lc  Abs  File  De 
    654  .text                      0x000184ba   Lc    1  Sect  De   0x64
    655  ../clib/memcpset.s         0x00000000   Lc  Abs  File  De 
    656  .text                      0x0001851e   Lc    1  Sect  De   0x10
    657  ../clib/memcpset.s         0x00000000   Lc  Abs  File  De 
    658  .text                      0x0001852e   Lc    1  Sect  De   0x4e
    659  ../clib/heapaux.c          0x00000000   Lc  Abs  File  De 
    660  .text                      0x0001857c   Lc    1  Sect  De 
    661  ../clib/angel/startup.s    0x00000000   Lc  Abs  File  De 
    662  !!!main                    0x00018234   Lc    1  Sect  De   0x8
    663  ../clib/angel/handlers.s   0x00000000   Lc  Abs  File  De 
    664  !!handler_copy             0x000182cc   Lc    1  Sect  De   0x1a
    665  ../fplib/d2f.s             0x00000000   Lc  Abs  File  De 
    666  x$fpl$d2f                  0x0001eb1c   Lc    1  Sect  De   0x62
    667  $v0                        0x0001eb1c   Lc    1   --   De 
    668  ../clib/angel/kernel.s     0x00000000   Lc  Abs  File  De 
    669  .ARM.Collect$$rtentry$$00000000
                                    0x00018310   Lc    1  Sect  De 
    670  ../clib/memcpset.s         0x00000000   Lc  Abs  File  De 
    671  .text                      0x00018582   Lc    1  Sect  De   0x44
    672  ../fplib/dnaninf.s         0x00000000   Lc  Abs  File  De 
    673  x$fpl$dnaninf              0x0001eb7e   Lc    1  Sect  De   0x9c
    674  $v0                        0x0001eb7e   Lc    1   --   De 
    675  ../fplib/fretinf.s         0x00000000   Lc  Abs  File  De 
    676  x$fpl$fretinf              0x0001ec24   Lc    1  Sect  De   0xa
    677  $v0                        0x0001ec24   Lc    1   --   De 
    678  ../fplib/usenofp.s         0x00000000   Lc  Abs  File  De 
    679  x$fpl$usenofp              0x0001ec2e   Lc    1  Sect  De 
    680  ../clib/angel/kernel.s     0x00000000   Lc  Abs  File  De 
    681  .ARM.Collect$$rtentry$$00000002
                                    0x00018310   Lc    1  Sect  De 
    682  .ARM.Collect$$rtentry$$00000009
                                    0x00018316   Lc    1  Sect  De 
    683  .ARM.Collect$$rtentry$$0000000A
                                    0x00018316   Lc    1  Sect  De   0x4
    684  .ARM.Collect$$rtentry$$0000000C
                                    0x0001831a   Lc    1  Sect  De 
    685  .ARM.Collect$$rtentry$$0000000D
                                    0x0001831a   Lc    1  Sect  De   0x8
    686  ../clib/angel/kernel.s     0x00000000   Lc  Abs  File  De 
    687  .ARM.Collect$$rtentry$$00000004
                                    0x00018310   Lc    1  Sect  De   0x6
    688  ../clib/angel/sys.s        0x00000000   Lc  Abs  File  De 
    689  .text                      0x000185c6   Lc    1  Sect  De   0x4a
    690  ../clib/stdlib.c           0x00000000   Lc  Abs  File  De 
    691  .text                      0x00018610   Lc    1  Sect  De 
    692  ../clib/angel/boardlib.s   0x00000000   Lc  Abs  File  De 
    693  ../clib/angel/boardlib.s   0x00000000   Lc  Abs  File  De 
    694  ../clib/angel/boardlib.s   0x00000000   Lc  Abs  File  De 
    695  ../clib/libinit.s          0x00000000   Lc  Abs  File  De 
    696  .ARM.Collect$$libinit$$00000000
                                    0x00018304   Lc    1  Sect  De   0x2
    697  ../clib/angel/sys.s        0x00000000   Lc  Abs  File  De 
    698  .text                      0x00018624   Lc    1  Sect  De   0x8
    699  .bss                       0x10009004   Lc    3  Sect  De   0x60
    700  ../clib/angel/kernel.s     0x00000000   Lc  Abs  File  De 
    701  .ARM.Collect$$rtexit$$00000000
                                    0x00018322   Lc    1  Sect  De   0x2
    702  ../clib/libinit.s          0x00000000   Lc  Abs  File  De 
    703  .ARM.Collect$$libinit$$00000001
                                    0x00018306   Lc    1  Sect  De   0x4
    704  .ARM.Collect$$libinit$$00000004
                                    0x0001830a   Lc    1  Sect  De 
    705  .ARM.Collect$$libinit$$0000000A
                                    0x0001830a   Lc    1  Sect  De 
    706  .ARM.Collect$$libinit$$0000000C
                                    0x0001830a   Lc    1  Sect  De 
    707  .ARM.Collect$$libinit$$0000000E
                                    0x0001830a   Lc    1  Sect  De 
    708  .ARM.Collect$$libinit$$00000011
                                    0x0001830a   Lc    1  Sect  De 
    709  .ARM.Collect$$libinit$$00000013
                                    0x0001830a   Lc    1  Sect  De 
    710  .ARM.Collect$$libinit$$00000015
                                    0x0001830a   Lc    1  Sect  De 
    711  .ARM.Collect$$libinit$$00000017
                                    0x0001830a   Lc    1  Sect  De 
    712  .ARM.Collect$$libinit$$00000019
                                    0x0001830a   Lc    1  Sect  De 
    713  .ARM.Collect$$libinit$$0000001B
                                    0x0001830a   Lc    1  Sect  De 
    714  .ARM.Collect$$libinit$$0000001D
                                    0x0001830a   Lc    1  Sect  De 
    715  .ARM.Collect$$libinit$$0000001F
                                    0x0001830a   Lc    1  Sect  De 
    716  .ARM.Collect$$libinit$$00000021
                                    0x0001830a   Lc    1  Sect  De 
    717  .ARM.Collect$$libinit$$00000023
                                    0x0001830a   Lc    1  Sect  De 
    718  .ARM.Collect$$libinit$$00000025
                                    0x0001830a   Lc    1  Sect  De 
    719  .ARM.Collect$$libinit$$0000002C
                                    0x0001830a   Lc    1  Sect  De 
    720  .ARM.Collect$$libinit$$0000002E
                                    0x0001830a   Lc    1  Sect  De 
    721  .ARM.Collect$$libinit$$00000030
                                    0x0001830a   Lc    1  Sect  De 
    722  .ARM.Collect$$libinit$$00000032
                                    0x0001830a   Lc    1  Sect  De 
    723  .ARM.Collect$$libinit$$00000033
                                    0x0001830a   Lc    1  Sect  De   0x2
    724  ../clib/angel/kernel.s     0x00000000   Lc  Abs  File  De 
    725  .ARM.Collect$$rtexit$$00000002
                                    0x00018324   Lc    1  Sect  De 
    726  .ARM.Collect$$rtexit$$00000003
                                    0x00018324   Lc    1  Sect  De   0x4
    727  .ARM.Collect$$rtexit$$00000004
                                    0x00018328   Lc    1  Sect  De   0x6
    728  ../clib/armsys.c           0x00000000   Lc  Abs  File  De 
    729  ../clib/armsys.c           0x00000000   Lc  Abs  File  De 
    730  ../fplib/fpinit.s          0x00000000   Lc  Abs  File  De 
    731  x$fpl$fpinit               0x0001ec1a   Lc    1  Sect  De   0xa
    732  $v0                        0x0001ec1a   Lc    1   --   De 
    733  ../clib/angel/sysapp.c     0x00000000   Lc  Abs  File  De 
    734  .text                      0x0001862c   Lc    1  Sect  De 
    735  ../clib/angel/boardlib.s   0x00000000   Lc  Abs  File  De 
    736  ../clib/armsys.c           0x00000000   Lc  Abs  File  De 
    737  ../clib/armsys.c           0x00000000   Lc  Abs  File  De 
    738  ../clib/libinit.s          0x00000000   Lc  Abs  File  De 
    739  .ARM.Collect$$libshutdown$$00000000
                                    0x0001830c   Lc    1  Sect  De   0x2
    740  ../clib/angel/sysapp.c     0x00000000   Lc  Abs  File  De 
    741  ../clib/angel/sys.s        0x00000000   Lc  Abs  File  De 
    742  .text                      0x00018638   Lc    1  Sect  De   0x2
    743  ../clib/angel/sys.s        0x00000000   Lc  Abs  File  De 
    744  .text                      0x0001863a   Lc    1  Sect  De 
    745  ../clib/heapalloc.c        0x00000000   Lc  Abs  File  De 
    746  ../clib/signal.c           0x00000000   Lc  Abs  File  De 
    747  ../clib/signal.c           0x00000000   Lc  Abs  File  De 
    748  ../clib/libinit.s          0x00000000   Lc  Abs  File  De 
    749  .ARM.Collect$$libshutdown$$00000002
                                    0x0001830e   Lc    1  Sect  De 
    750  .ARM.Collect$$libshutdown$$00000004
                                    0x0001830e   Lc    1  Sect  De 
    751  .ARM.Collect$$libshutdown$$00000007
                                    0x0001830e   Lc    1  Sect  De 
    752  .ARM.Collect$$libshutdown$$0000000A
                                    0x0001830e   Lc    1  Sect  De 
    753  .ARM.Collect$$libshutdown$$0000000C
                                    0x0001830e   Lc    1  Sect  De 
    754  .ARM.Collect$$libshutdown$$0000000F
                                    0x0001830e   Lc    1  Sect  De 
    755  .ARM.Collect$$libshutdown$$00000010
                                    0x0001830e   Lc    1  Sect  De   0x2
    756  ../clib/angel/rt.s         0x00000000   Lc  Abs  File  De 
    757  ../clib/signal.c           0x00000000   Lc  Abs  File  De 
    758  ../clib/signal.c           0x00000000   Lc  Abs  File  De 
    759  ../clib/signal.c           0x00000000   Lc  Abs  File  De 
    760  ../clib/signal.c           0x00000000   Lc  Abs  File  De 
    761  ../clib/angel/sysapp.c     0x00000000   Lc  Abs  File  De 
    762  ../clib/signal.s           0x00000000   Lc  Abs  File  De 
    763  ../clib/signal.c           0x00000000   Lc  Abs  File  De 
    764  ../clib/signal.c           0x00000000   Lc  Abs  File  De 
    765  ../clib/signal.c           0x00000000   Lc  Abs  File  De 
    766  ../clib/signal.c           0x00000000   Lc  Abs  File  De 
    767  ../clib/signal.c           0x00000000   Lc  Abs  File  De 
    768  ../clib/signal.c           0x00000000   Lc  Abs  File  De 
    769  ../clib/signal.c           0x00000000   Lc  Abs  File  De 
    770  ../clib/signal.c           0x00000000   Lc  Abs  File  De 
    771  ../clib/angel/dczerorl2.s  0x00000000   Lc  Abs  File  De 
    772  !!dczerorl2                0x00018270   Lc    1  Sect  De   0x5a
    773  ../clib/angel/scatter.s    0x00000000   Lc  Abs  File  De 
    774  !!!scatter                 0x0001823c   Lc    1  Sect  De   0x34
    775  ../clib/angel/handlers.s   0x00000000   Lc  Abs  File  De 
    776  !!handler_zi               0x000182e8   Lc    1  Sect  De   0x1c
    777  BuildAttributes$$THM_ISAv4$E$P$D$K$B$S$7EM$VFPi3$EXTD16$VFPS$VFMA$PE$A:L22UL41UL21$X:L11$S22US41US21$IEEE1$IW$USESV6$~STKCKD$USESV7$~SHL$OTIME$ROPI$EBA8$UX$STANDARDLIB$REQ8$PRES8$EABIv2
                                    0x00000000   Gb  Abs   --   Hi 
    778  __ARM_use_no_argv          0x00000000   Gb  Abs   --   Hi 
    779  __Vectors                  0x00018000   Gb    1  Data  Hi 
    780  __Patchable                0x00018190   Gb    1  Data  Hi 
    781  Reset_Handler              0x00018201   Wk    1  Code  Hi   0x1c
    782  NMI_Handler                0x0001821f   Wk    1  Code  Hi   0x2
    783  MemManage_Handler          0x00018221   Wk    1  Code  Hi   0x2
    784  BusFault_Handler           0x00018223   Wk    1  Code  Hi   0x2
    785  UsageFault_Handler         0x00018225   Wk    1  Code  Hi   0x2
    786  SVC_Handler                0x00018227   Wk    1  Code  Hi   0x2
    787  DebugMon_Handler           0x00018229   Wk    1  Code  Hi   0x2
    788  PendSV_Handler             0x0001822b   Wk    1  Code  Hi   0x2
    789  SysTick_Handler            0x0001822d   Wk    1  Code  Hi   0x2
    790  am_adc_isr                 0x0001822f   Wk    1  Code  Hi 
    791  am_audadc0_isr             0x0001822f   Wk    1  Code  Hi 
    792  am_brownout_isr            0x0001822f   Wk    1  Code  Hi 
    793  am_cachecpu_isr            0x0001822f   Wk    1  Code  Hi 
    794  am_clkgen_isr              0x0001822f   Wk    1  Code  Hi 
    795  am_ctimer_isr              0x0001822f   Wk    1  Code  Hi 
    796  am_disp_isr                0x0001822f   Wk    1  Code  Hi 
    797  am_dsi_isr                 0x0001822f   Wk    1  Code  Hi 
    798  am_dspi2s0_isr             0x0001822f   Wk    1  Code  Hi 
    799  am_dspi2s1_isr             0x0001822f   Wk    1  Code  Hi 
    800  am_dspi2s2_isr             0x0001822f   Wk    1  Code  Hi 
    801  am_dspi2s3_isr             0x0001822f   Wk    1  Code  Hi 
    802  am_gpio0_001f_isr          0x0001822f   Wk    1  Code  Hi 
    803  am_gpio0_405f_isr          0x0001822f   Wk    1  Code  Hi 
    804  am_gpio0_607f_isr          0x0001822f   Wk    1  Code  Hi 
    805  am_gpio1_001f_isr          0x0001822f   Wk    1  Code  Hi 
    806  am_gpio1_203f_isr          0x0001822f   Wk    1  Code  Hi 
    807  am_gpio1_405f_isr          0x0001822f   Wk    1  Code  Hi 
    808  am_gpio1_607f_isr          0x0001822f   Wk    1  Code  Hi 
    809  am_gpu_isr                 0x0001822f   Wk    1  Code  Hi 
    810  am_iomaster0_isr           0x0001822f   Wk    1  Code  Hi 
    811  am_iomaster1_isr           0x0001822f   Wk    1  Code  Hi 
    812  am_iomaster2_isr           0x0001822f   Wk    1  Code  Hi 
    813  am_iomaster3_isr           0x0001822f   Wk    1  Code  Hi 
    814  am_iomaster5_isr           0x0001822f   Wk    1  Code  Hi 
    815  am_iomaster6_isr           0x0001822f   Wk    1  Code  Hi 
    816  am_iomaster7_isr           0x0001822f   Wk    1  Code  Hi 
    817  am_ioslave_acc_isr         0x0001822f   Wk    1  Code  Hi 
    818  am_ioslave_ios_isr         0x0001822f   Wk    1  Code  Hi 
    819  am_mspi0_isr               0x0001822f   Wk    1  Code  Hi 
    820  am_mspi1_isr               0x0001822f   Wk    1  Code  Hi 
    821  am_mspi2_isr               0x0001822f   Wk    1  Code  Hi 
    822  am_pdm0_isr                0x0001822f   Wk    1  Code  Hi 
    823  am_pdm1_isr                0x0001822f   Wk    1  Code  Hi 
    824  am_pdm2_isr                0x0001822f   Wk    1  Code  Hi 
    825  am_pdm3_isr                0x0001822f   Wk    1  Code  Hi 
    826  am_rtc_isr                 0x0001822f   Wk    1  Code  Hi 
    827  am_sdio_isr                0x0001822f   Wk    1  Code  Hi 
    828  am_stimer_cmpr0_isr        0x0001822f   Wk    1  Code  Hi 
    829  am_stimer_cmpr1_isr        0x0001822f   Wk    1  Code  Hi 
    830  am_stimer_cmpr2_isr        0x0001822f   Wk    1  Code  Hi 
    831  am_stimer_cmpr3_isr        0x0001822f   Wk    1  Code  Hi 
    832  am_stimer_cmpr4_isr        0x0001822f   Wk    1  Code  Hi 
    833  am_stimer_cmpr5_isr        0x0001822f   Wk    1  Code  Hi 
    834  am_stimer_cmpr6_isr        0x0001822f   Wk    1  Code  Hi 
    835  am_stimer_cmpr7_isr        0x0001822f   Wk    1  Code  Hi 
    836  am_stimerof_isr            0x0001822f   Wk    1  Code  Hi 
    837  am_timer00_isr             0x0001822f   Wk    1  Code  Hi 
    838  am_timer01_isr             0x0001822f   Wk    1  Code  Hi 
    839  am_timer02_isr             0x0001822f   Wk    1  Code  Hi 
    840  am_timer03_isr             0x0001822f   Wk    1  Code  Hi 
    841  am_timer04_isr             0x0001822f   Wk    1  Code  Hi 
    842  am_timer05_isr             0x0001822f   Wk    1  Code  Hi 
    843  am_timer06_isr             0x0001822f   Wk    1  Code  Hi 
    844  am_timer07_isr             0x0001822f   Wk    1  Code  Hi 
    845  am_timer08_isr             0x0001822f   Wk    1  Code  Hi 
    846  am_timer09_isr             0x0001822f   Wk    1  Code  Hi 
    847  am_timer10_isr             0x0001822f   Wk    1  Code  Hi 
    848  am_timer11_isr             0x0001822f   Wk    1  Code  Hi 
    849  am_timer12_isr             0x0001822f   Wk    1  Code  Hi 
    850  am_timer13_isr             0x0001822f   Wk    1  Code  Hi 
    851  am_timer14_isr             0x0001822f   Wk    1  Code  Hi 
    852  am_timer15_isr             0x0001822f   Wk    1  Code  Hi 
    853  am_uart1_isr               0x0001822f   Wk    1  Code  Hi 
    854  am_uart3_isr               0x0001822f   Wk    1  Code  Hi 
    855  am_uart_isr                0x0001822f   Wk    1  Code  Hi 
    856  am_usb_isr                 0x0001822f   Wk    1  Code  Hi 
    857  am_vcomp_isr               0x0001822f   Wk    1  Code  Hi 
    858  am_watchdog_isr            0x0001822f   Wk    1  Code  Hi 
    859  __main                     0x00018235   Gb    1  Code  Hi   0x8
    860  __scatterload              0x0001823d   Gb    1  Code  Hi 
    861  __scatterload_rt2          0x0001823d   Gb    1  Code  Hi   0x2c
    862  __scatterload_rt2_thumb_only
                                    0x0001823d   Gb    1  Code  Hi 
    863  __scatterload_null         0x0001824b   Gb    1  Code  Hi 
    864  __decompress               0x00018271   Gb    1  Code  Hi   0x5a
    865  __decompress1              0x00018271   Gb    1  Code  Hi 
    866  __scatterload_copy         0x000182cd   Gb    1  Code  Hi   0x1a
    867  __scatterload_zeroinit     0x000182e9   Gb    1  Code  Hi   0x1c
    868  __rt_lib_init              0x00018305   Gb    1  Code  De 
    869  __rt_lib_init_fp_1         0x00018307   Gb    1  Code  Hi 
    870  __rt_lib_init_alloca_1     0x0001830b   Gb    1  Code  Hi 
    871  __rt_lib_init_argv_1       0x0001830b   Gb    1  Code  Hi 
    872  __rt_lib_init_atexit_1     0x0001830b   Gb    1  Code  Hi 
    873  __rt_lib_init_clock_1      0x0001830b   Gb    1  Code  Hi 
    874  __rt_lib_init_cpp_1        0x0001830b   Gb    1  Code  Hi 
    875  __rt_lib_init_exceptions_1 0x0001830b   Gb    1  Code  Hi 
    876  __rt_lib_init_fp_trap_1    0x0001830b   Gb    1  Code  Hi 
    877  __rt_lib_init_getenv_1     0x0001830b   Gb    1  Code  Hi 
    878  __rt_lib_init_heap_1       0x0001830b   Gb    1  Code  Hi 
    879  __rt_lib_init_lc_collate_1 0x0001830b   Gb    1  Code  Hi 
    880  __rt_lib_init_lc_ctype_1   0x0001830b   Gb    1  Code  Hi 
    881  __rt_lib_init_lc_monetary_1
                                    0x0001830b   Gb    1  Code  Hi 
    882  __rt_lib_init_lc_numeric_1 0x0001830b   Gb    1  Code  Hi 
    883  __rt_lib_init_lc_time_1    0x0001830b   Gb    1  Code  Hi 
    884  __rt_lib_init_preinit_1    0x0001830b   Gb    1  Code  Hi 
    885  __rt_lib_init_rand_1       0x0001830b   Gb    1  Code  Hi 
    886  __rt_lib_init_return       0x0001830b   Gb    1  Code  Hi 
    887  __rt_lib_init_signal_1     0x0001830b   Gb    1  Code  Hi 
    888  __rt_lib_init_stdio_1      0x0001830b   Gb    1  Code  Hi 
    889  __rt_lib_init_user_alloc_1 0x0001830b   Gb    1  Code  Hi 
    890  __rt_lib_shutdown          0x0001830d   Gb    1  Code  De 
    891  __rt_lib_shutdown_cpp_1    0x0001830f   Gb    1  Code  Hi 
    892  __rt_lib_shutdown_fp_trap_1
                                    0x0001830f   Gb    1  Code  Hi 
    893  __rt_lib_shutdown_heap_1   0x0001830f   Gb    1  Code  Hi 
    894  __rt_lib_shutdown_return   0x0001830f   Gb    1  Code  Hi 
    895  __rt_lib_shutdown_signal_1 0x0001830f   Gb    1  Code  Hi 
    896  __rt_lib_shutdown_stdio_1  0x0001830f   Gb    1  Code  Hi 
    897  __rt_lib_shutdown_user_alloc_1
                                    0x0001830f   Gb    1  Code  Hi 
    898  __rt_entry                 0x00018311   Gb    1  Code  Hi 
    899  __rt_entry_presh_1         0x00018311   Gb    1  Code  Hi 
    900  __rt_entry_sh              0x00018311   Gb    1  Code  Hi 
    901  __rt_entry_li              0x00018317   Gb    1  Code  Hi 
    902  __rt_entry_postsh_1        0x00018317   Gb    1  Code  Hi 
    903  __rt_entry_main            0x0001831b   Gb    1  Code  Hi 
    904  __rt_entry_postli_1        0x0001831b   Gb    1  Code  Hi 
    905  __rt_exit                  0x00018323   Gb    1  Code  De 
    906  __rt_exit_ls               0x00018325   Gb    1  Code  Hi 
    907  __rt_exit_prels_1          0x00018325   Gb    1  Code  Hi 
    908  __rt_exit_exit             0x00018329   Gb    1  Code  Hi 
    909  HardFault_Handler          0x00018331   Gb    1  Code  Hi   0x20
    910  getStackedReg              0x00018355   Gb    1  Code  Hi   0x8
    911  am_hal_interrupt_master_enable
                                    0x0001835d   Gb    1  Code  Hi   0x8
    912  am_hal_interrupt_master_disable
                                    0x00018365   Gb    1  Code  Hi   0x8
    913  am_hal_interrupt_master_set
                                    0x0001836d   Gb    1  Code  Hi   0x6
    914  __user_initial_stackheap   0x00018375   Gb    1  Code  Hi   0xa
    915  __aeabi_llsl               0x0001838d   Gb    1  Code  Hi 
    916  _ll_shift_l                0x0001838d   Gb    1  Code  De   0x26
    917  __aeabi_llsr               0x000183b3   Gb    1  Code  Hi 
    918  _ll_ushift_r               0x000183b3   Gb    1  Code  De   0x26
    919  memcmp                     0x000183d9   Gb    1  Code  Hi   0x58
    920  __aeabi_memcpy             0x00018431   Gb    1  Code  Hi 
    921  __rt_memcpy                0x00018431   Gb    1  Code  De   0x8a
    922  _memcpy_lastbytes          0x00018497   Gb    1  Code  De 
    923  __aeabi_memcpy4            0x000184bb   Gb    1  Code  Hi 
    924  __aeabi_memcpy8            0x000184bb   Gb    1  Code  De 
    925  __rt_memcpy_w              0x000184bb   Gb    1  Code  De   0x64
    926  _memcpy_lastbytes_aligned  0x00018503   Gb    1  Code  De 
    927  __aeabi_memset             0x0001851f   Gb    1  Code  Hi   0x10
    928  __aeabi_memclr4            0x0001852f   Gb    1  Code  Hi 
    929  __aeabi_memclr8            0x0001852f   Gb    1  Code  De 
    930  __rt_memclr_w              0x0001852f   Gb    1  Code  De   0x4e
    931  _memset_w                  0x00018533   Gb    1  Code  De 
    932  __use_two_region_memory    0x0001857d   Gb    1  Code  Hi   0x2
    933  __rt_heap_escrow$2region   0x0001857f   Gb    1  Code  De   0x2
    934  __rt_heap_expand$2region   0x00018581   Gb    1  Code  De   0x2
    935  __aeabi_memclr             0x00018583   Gb    1  Code  De 
    936  __rt_memclr                0x00018583   Gb    1  Code  De   0x44
    937  _memset                    0x00018587   Gb    1  Code  De 
    938  __user_setup_stackheap     0x000185c7   Gb    1  Code  De   0x4a
    939  exit                       0x00018611   Gb    1  Code  De   0x12
    940  __user_libspace            0x00018625   Wk    1  Code  De   0x8
    941  __user_perproc_libspace    0x00018625   Wk    1  Code  De 
    942  __user_perthread_libspace  0x00018625   Wk    1  Code  De 
    943  _sys_exit                  0x0001862d   Gb    1  Code  De   0x8
    944  __I$use$semihosting        0x00018639   Gb    1  Code  Hi 
    945  __use_no_semihosting_swi   0x00018639   Gb    1  Code  Hi   0x2
    946  __semihosting_library_function
                                    0x0001863b   Gb    1  Code  Hi 
    947  __ARM_common_memcpy4_5     0x00018691   Gb    1  Code  Hi   0xa
    948  am_bsp_iom_pins_disable    0x000186e5   Gb    1  Code  Hi   0x266
    949  am_bsp_iom_pins_enable     0x00018951   Gb    1  Code  Hi   0x2a8
    950  am_bsp_itm_printf_disable  0x00018cb1   Gb    1  Code  Hi   0x28
    951  am_bsp_itm_printf_enable   0x00018ce1   Gb    1  Code  Hi   0x7c
    952  am_bsp_low_power_init      0x00018d75   Gb    1  Code  Hi   0x16
    953  am_devices_cooper_blocking_read
                                    0x00018d8d   Gb    1  Code  Hi   0xda
    954  am_devices_cooper_blocking_write
                                    0x00018e6d   Gb    1  Code  Hi   0x13e
    955  am_devices_cooper_bus_disable
                                    0x00018fbd   Gb    1  Code  Hi   0x28
    956  am_devices_cooper_bus_enable
                                    0x00018fe5   Gb    1  Code  Hi   0x32
    957  am_devices_cooper_clkreq_read
                                    0x00019019   Gb    1  Code  Hi   0xc
    958  am_devices_cooper_command_write
                                    0x00019029   Gb    1  Code  Hi   0x9e
    959  am_devices_cooper_get_info0_patch
                                    0x000190cd   Gb    1  Code  Hi   0x18
    960  am_devices_cooper_image_update_init
                                    0x000190e9   Gb    1  Code  Hi   0x2a
    961  am_devices_cooper_init     0x00019119   Gb    1  Code  Hi   0x1e4
    962  am_devices_cooper_irq_read 0x0001934d   Gb    1  Code  Hi   0xa
    963  am_devices_cooper_pins_disable
                                    0x0001935d   Gb    1  Code  Hi   0x50
    964  am_devices_cooper_pins_enable
                                    0x000193b5   Gb    1  Code  Hi   0x4a
    965  am_devices_cooper_reset    0x00019411   Gb    1  Code  Hi   0x56
    966  am_devices_cooper_reset_with_sbl_check
                                    0x0001946d   Gb    1  Code  Hi   0x84
    967  am_devices_cooper_term     0x000195a9   Gb    1  Code  Hi   0x58
    968  am_devices_cooper_update_image
                                    0x00019605   Gb    1  Code  Hi   0x670
    969  am_gpio0_203f_isr          0x00019c7d   Gb    1  Code  Hi   0x1e
    970  am_gpu_power_disable       0x00019c9b   Wk    1  Code  Hi   0x2
    971  am_gpu_power_enable        0x00019c9d   Wk    1  Code  Hi   0x2
    972  am_hal_cmdq_disable        0x00019ca1   Gb    1  Code  Hi   0x3c
    973  am_hal_cmdq_enable         0x00019ce1   Gb    1  Code  Hi   0x4e
    974  am_hal_cmdq_error_resume   0x00019d39   Gb    1  Code  Hi   0x70
    975  am_hal_cmdq_get_status     0x00019dad   Gb    1  Code  Hi   0x9e
    976  am_hal_cmdq_init           0x00019e51   Gb    1  Code  Hi   0xe2
    977  am_hal_cmdq_term           0x00019f41   Gb    1  Code  Hi   0x84
    978  am_hal_crc32               0x00019fc9   Gb    1  Code  Hi   0x58
    979  am_hal_daxi_config         0x0001a02d   Gb    1  Code  Hi   0x90
    980  am_hal_daxi_control        0x0001a0c5   Gb    1  Code  Hi   0x76
    981  am_hal_dcu_get             0x0001a145   Gb    1  Code  Hi   0x84
    982  am_hal_dcu_update          0x0001a1d5   Gb    1  Code  Hi   0xd6
    983  am_hal_delay_us            0x0001a2b9   Gb    1  Code  Hi   0x22
    984  am_hal_delay_us_status_change
                                    0x0001a2e5   Gb    1  Code  Hi   0x50
    985  am_hal_delay_us_status_check
                                    0x0001a33d   Gb    1  Code  Hi   0x5c
    986  am_hal_fault_capture_enable
                                    0x0001a3a1   Gb    1  Code  Hi   0x12
    987  am_hal_fault_status_get    0x0001a3b3   Gb    1  Code  Hi   0x3e
    988  am_hal_gpio_interrupt_control
                                    0x0001a3f1   Gb    1  Code  Hi   0x16e
    989  am_hal_gpio_interrupt_irq_clear
                                    0x0001a56d   Gb    1  Code  Hi   0x2a
    990  am_hal_gpio_interrupt_irq_status_get
                                    0x0001a59d   Gb    1  Code  Hi   0x62
    991  am_hal_gpio_interrupt_register
                                    0x0001a605   Gb    1  Code  Hi   0x64
    992  am_hal_gpio_interrupt_service
                                    0x0001a671   Gb    1  Code  Hi   0x52
    993  am_hal_gpio_pinconfig      0x0001a6c9   Gb    1  Code  Hi   0x70
    994  am_hal_gpio_state_write    0x0001a745   Gb    1  Code  Hi   0xa2
    995  am_hal_iom_blocking_transfer
                                    0x0001a7e9   Gb    1  Code  Hi   0x314
    996  am_hal_iom_configure       0x0001ab15   Gb    1  Code  Hi   0x2b6
    997  am_hal_iom_disable         0x0001ae09   Gb    1  Code  Hi   0x80
    998  am_hal_iom_enable          0x0001ae8d   Gb    1  Code  Hi   0x112
    999  am_hal_iom_initialize      0x0001afa9   Gb    1  Code  Hi   0x4c
    1000  am_hal_iom_interrupt_clear 0x0001affd   Gb    1  Code  Hi   0x2e
    1001  am_hal_iom_interrupt_service
                                    0x0001b031   Gb    1  Code  Hi   0x332
    1002  am_hal_iom_interrupt_status_get
                                    0x0001b371   Gb    1  Code  Hi   0x44
    1003  am_hal_iom_power_ctrl      0x0001b3b9   Gb    1  Code  Hi   0x330
    1004  am_hal_iom_uninitialize    0x0001b6f1   Gb    1  Code  Hi   0x88
    1005  am_hal_itm_disable         0x0001b77d   Gb    1  Code  Hi   0xa4
    1006  am_hal_itm_enable          0x0001b845   Gb    1  Code  Hi   0x2c
    1007  am_hal_itm_print           0x0001b88d   Gb    1  Code  Hi   0x30
    1008  am_hal_mcuctrl_control     0x0001b8bd   Gb    1  Code  Hi   0x2ce
    1009  am_hal_mcuctrl_info_get    0x0001bb9d   Gb    1  Code  Hi   0x126
    1010  am_hal_mram_info_read      0x0001bced   Gb    1  Code  Hi   0x6c
    1011  am_hal_pwrctrl_control     0x0001bd5d   Gb    1  Code  Hi   0x1e4
    1012  am_hal_pwrctrl_low_power_init
                                    0x0001bf55   Gb    1  Code  Hi   0xd8
    1013  am_hal_pwrctrl_mcu_memory_config
                                    0x0001c049   Gb    1  Code  Hi   0x114
    1014  am_hal_pwrctrl_mcu_mode_select
                                    0x0001c165   Gb    1  Code  Hi   0x6e
    1015  am_hal_pwrctrl_mcu_mode_status
                                    0x0001c1dd   Gb    1  Code  Hi   0x12
    1016  am_hal_pwrctrl_periph_disable
                                    0x0001c1f5   Gb    1  Code  Hi   0x112
    1017  am_hal_pwrctrl_periph_enable
                                    0x0001c321   Gb    1  Code  Hi   0xa6
    1018  am_hal_pwrctrl_sram_config 0x0001c3d5   Gb    1  Code  Hi   0xa6
    1019  am_hal_queue_init          0x0001c485   Gb    1  Code  Hi   0x18
    1020  am_hal_queue_item_add      0x0001c49d   Gb    1  Code  Hi   0x56
    1021  am_hal_queue_item_get      0x0001c4f3   Gb    1  Code  Hi   0x52
    1022  am_hal_rtc_osc_disable     0x0001c545   Gb    1  Code  Hi   0xe
    1023  am_hal_sysctrl_sleep       0x0001c559   Gb    1  Code  Hi   0x118
    1024  am_hal_tpiu_enable         0x0001c685   Gb    1  Code  Hi   0x52
    1025  am_hal_uart_buffer_configure
                                    0x0001c6f1   Gb    1  Code  Hi   0x70
    1026  am_hal_uart_configure      0x0001c765   Gb    1  Code  Hi   0x188
    1027  am_hal_uart_initialize     0x0001c911   Gb    1  Code  Hi   0x78
    1028  am_hal_uart_interrupt_clear
                                    0x0001c991   Gb    1  Code  Hi   0x2c
    1029  am_hal_uart_interrupt_enable
                                    0x0001c9c1   Gb    1  Code  Hi   0x30
    1030  am_hal_uart_interrupt_service
                                    0x0001c9f5   Gb    1  Code  Hi   0x46
    1031  am_hal_uart_interrupt_status_get
                                    0x0001ca41   Gb    1  Code  Hi   0x38
    1032  am_hal_uart_power_control  0x0001ca7d   Gb    1  Code  Hi   0xe2
    1033  am_hal_uart_transfer       0x0001cb65   Gb    1  Code  Hi   0x272
    1034  am_iomaster4_isr           0x0001cde1   Gb    1  Code  Hi   0x2a
    1035  am_uart2_isr               0x0001ce11   Gb    1  Code  Hi   0x54
    1036  am_util_ble_hci_reset      0x0001ce71   Gb    1  Code  Hi   0x2c
    1037  am_util_ble_nvds_set       0x0001cea1   Gb    1  Code  Hi   0x5c
    1038  am_util_ble_update_sign_set
                                    0x0001cf01   Gb    1  Code  Hi   0x6c
    1039  am_util_delay_ms           0x0001cf75   Gb    1  Code  Hi   0x12
    1040  am_util_delay_us           0x0001cf87   Gb    1  Code  Hi   0xc
    1041  am_util_faultisr_collect_data
                                    0x0001cf95   Gb    1  Code  Hi   0xba
    1042  am_util_stdio_printf       0x0001d055   Gb    1  Code  Hi   0x32
    1043  am_util_stdio_printf_init  0x0001d091   Gb    1  Code  Hi   0x6
    1044  am_util_stdio_terminal_clear
                                    0x0001d09d   Gb    1  Code  Hi   0xa
    1045  am_util_stdio_vsprintf     0x0001d0bd   Gb    1  Code  Hi   0x3a4
    1046  am_valid_sp                0x0001d471   Gb    1  Code  Hi   0x16
    1047  buck_ldo_override_init     0x0001d5cd   Gb    1  Code  Hi   0xa0
    1048  buck_ldo_update_override   0x0001d675   Gb    1  Code  Hi   0x1c
    1049  cooper_spi_init            0x0001d775   Gb    1  Code  Hi   0x4e
    1050  crypto_boost_trims         0x0001d801   Gb    1  Code  Hi   0xa6
    1051  dtm_init                   0x0001d9e9   Gb    1  Code  Hi   0x20
    1052  dtm_process                0x0001da09   Gb    1  Code  Hi   0x5a
    1053  iom_slave_read             0x0001de01   Gb    1  Code  Hi   0x30
    1054  main                       0x0001de31   Gb    1  Code  Hi   0xe
    1055  send_data                  0x0001e1cd   Gb    1  Code  Hi   0x4a
    1056  send_fwContinue            0x0001e21d   Gb    1  Code  Hi   0x30
    1057  send_hello                 0x0001e24d   Gb    1  Code  Hi   0x30
    1058  send_update                0x0001e27d   Gb    1  Code  Hi   0x78
    1059  serial_data_read           0x0001e2fd   Gb    1  Code  Hi   0x24
    1060  serial_data_write          0x0001e329   Gb    1  Code  Hi   0x2c
    1061  serial_interface_init      0x0001e35d   Gb    1  Code  Hi   0x78
    1062  serial_irq_disable         0x0001e405   Gb    1  Code  Hi   0x22
    1063  serial_irq_enable          0x0001e42d   Gb    1  Code  Hi   0x12
    1064  serial_rx_hci_state_machine
                                    0x0001e441   Gb    1  Code  Hi   0x164
    1065  serial_task                0x0001e8f9   Gb    1  Code  Hi   0x2
    1066  validate_transaction       0x0001ea89   Gb    1  Code  Hi   0x90
    1067  __aeabi_d2f                0x0001eb1d   Gb    1  Code  Hi 
    1068  _d2f                       0x0001eb1d   Gb    1  Code  De   0x62
    1069  __fpl_dnaninf              0x0001eb7f   Gb    1  Code  De   0x9c
    1070  _fp_init                   0x0001ec1b   Gb    1  Code  De   0xa
    1071  __fplib_config_fpu_vfp     0x0001ec23   Gb    1  Code  De 
    1072  __fplib_config_pureend_doubles
                                    0x0001ec23   Gb    1  Code  De 
    1073  __fpl_fretinf              0x0001ec25   Gb    1  Code  De   0xa
    1074  __I$use$fp                 0x0001ec2e   Gb    1   --   De 
    1075  ui32MCUAllowed             0x0001ec48   Gb    1  Data  Hi   0x14
    1076  ui32DSP0Allowed            0x0001ec5c   Gb    1  Data  Hi   0x14
    1077  ui32DSP1Allowed            0x0001ec70   Gb    1  Data  Hi   0x14
    1078  ui32SharedAccess           0x0001ec84   Gb    1  Data  Hi   0x14
    1079  sGlobalAccess              0x0001ec98   Gb    1  Data  Hi   0x1c
    1080  g_amHalMcuctrlArgBLEDefault
                                    0x0001ee18   Gb    1  Data  Hi   0x8
    1081  am_hal_gpio_pincfg_output  0x0001ee20   Gb    1  Data  Hi   0x4
    1082  am_hal_gpio_pincfg_input   0x0001ee24   Gb    1  Data  Hi   0x4
    1083  am_hal_gpio_pincfg_disabled
                                    0x0001ee28   Gb    1  Data  Hi   0x4
    1084  g_DefaultMcuMemCfg         0x0001ee4c   Gb    1  Data  Hi   0x6
    1085  g_DefaultSRAMCfg           0x0001ee52   Gb    1  Data  Hi   0x6
    1086  am_hal_pwrctrl_peripheral_control
                                    0x0001ee58   Gb    1  Data  Hi   0x190
    1087  g_am_hal_bootrom_helper    0x0001efe8   Gb    1  Data  Hi   0x28
    1088  am_hal_daxi_defaults       0x0001f010   Gb    1  Data  Hi   0x5
    1089  Region$$Table$$Base        0x0001f25c   Gb    1   --   Hi 
    1090  Region$$Table$$Limit       0x0001f28c   Gb    1   --   Hi 
    1091  g_pvUART                   0x10000000   Gb    2  Data  Hi   0x4
    1092  nvds_cmd_sleep_disable     0x10000004   Gb    2  Data  Hi   0x11
    1093  nvds_cmd_sleep_enable      0x10000015   Gb    2  Data  Hi   0x11
    1094  nvds_cmd                   0x10000026   Gb    2  Data  Hi   0x11
    1095  store_info0_trim_virtual_cmd
                                    0x10000037   Gb    2  Data  Hi   0xa
    1096  store_info0_trim_virtual_cmd_complete
                                    0x10000041   Gb    2  Data  Hi   0x7
    1097  trigger_flash_info0_virtual_cmd
                                    0x10000048   Gb    2  Data  Hi   0x4
    1098  trigger_flash_info0_virtual_cmd_complete
                                    0x1000004c   Gb    2  Data  Hi   0x7
    1099  trigger_enter_sleep_cmd    0x10000053   Gb    2  Data  Hi   0x4
    1100  hci_nop_opcode_event       0x10000057   Gb    2  Data  Hi   0x7
    1101  info0_trimmedData_index    0x10000060   Gb    2  Data  Hi   0x4
    1102  stCooperConfig             0x10000064   Gb    2  Data  Hi   0x8
    1103  g_ui32SerialRxIndex        0x1000006c   Gb    2  Data  Hi   0x4
    1104  g_bRxTimeoutFlag           0x10000070   Gb    2  Data  Hi   0x1
    1105  g_bCmdProcessedFlag        0x10000071   Gb    2  Data  Hi   0x1
    1106  g_bDtmModeRunning          0x10000072   Gb    2  Data  Hi   0x1
    1107  g_IomDevHdl                0x10000084   Gb    2  Data  Hi   0x4
    1108  g_pvHciSpiHandle           0x10000088   Gb    2  Data  Hi   0x4
    1109  g_pfnCharPrint             0x10000098   Gb    2  Data  Hi   0x4
    1110  sLengthBytes               0x100000a0   Gb    2  Data  Hi   0x4
    1111  g_AM_DEVICES_COOPER_SPI_CS 0x100000c4   Gb    2  Data  Hi   0x4
    1112  g_AM_DEVICES_COOPER_32M_CLK
                                    0x100000c8   Gb    2  Data  Hi   0x4
    1113  g_AM_DEVICES_COOPER_32K_CLK
                                    0x100000cc   Gb    2  Data  Hi   0x4
    1114  g_AM_DEVICES_COOPER_CLKREQ 0x100000d0   Gb    2  Data  Hi   0x4
    1115  g_ui32xtalhscap2trim       0x100000d8   Gb    2  Data  Hi   0x4
    1116  g_ui32xtalhscaptrim        0x100000dc   Gb    2  Data  Hi   0x4
    1117  g_eCurrPwrMode             0x100000e0   Gb    2  Data  Hi   0x1
    1118  g_ui32TrimVer              0x100000e4   Gb    2  Data  Hi   0x4
    1119  g_ui32origSimobuckVDDStrim 0x100000e8   Gb    2  Data  Hi   0x4
    1120  g_AM_BSP_GPIO_COM_UART_TX  0x10000114   Gb    2  Data  Hi   0x4
    1121  g_AM_BSP_GPIO_COM_UART_RX  0x10000118   Gb    2  Data  Hi   0x4
    1122  g_AM_BSP_GPIO_IOM0_CS      0x1000011c   Gb    2  Data  Hi   0x4
    1123  g_AM_BSP_GPIO_IOM0_MISO    0x10000120   Gb    2  Data  Hi   0x4
    1124  g_AM_BSP_GPIO_IOM0_MOSI    0x10000124   Gb    2  Data  Hi   0x4
    1125  g_AM_BSP_GPIO_IOM0_SCK     0x10000128   Gb    2  Data  Hi   0x4
    1126  g_AM_BSP_GPIO_IOM0_SCL     0x1000012c   Gb    2  Data  Hi   0x4
    1127  g_AM_BSP_GPIO_IOM0_SDA     0x10000130   Gb    2  Data  Hi   0x4
    1128  g_AM_BSP_GPIO_IOM1_CS      0x10000134   Gb    2  Data  Hi   0x4
    1129  g_AM_BSP_GPIO_IOM1_MISO    0x10000138   Gb    2  Data  Hi   0x4
    1130  g_AM_BSP_GPIO_IOM1_MOSI    0x1000013c   Gb    2  Data  Hi   0x4
    1131  g_AM_BSP_GPIO_IOM1_SCK     0x10000140   Gb    2  Data  Hi   0x4
    1132  g_AM_BSP_GPIO_IOM1_SCL     0x10000144   Gb    2  Data  Hi   0x4
    1133  g_AM_BSP_GPIO_IOM1_SDA     0x10000148   Gb    2  Data  Hi   0x4
    1134  g_AM_BSP_GPIO_IOM2_CS      0x1000014c   Gb    2  Data  Hi   0x4
    1135  g_AM_BSP_GPIO_IOM2_MISO    0x10000150   Gb    2  Data  Hi   0x4
    1136  g_AM_BSP_GPIO_IOM2_MOSI    0x10000154   Gb    2  Data  Hi   0x4
    1137  g_AM_BSP_GPIO_IOM2_SCK     0x10000158   Gb    2  Data  Hi   0x4
    1138  g_AM_BSP_GPIO_IOM2_SCL     0x1000015c   Gb    2  Data  Hi   0x4
    1139  g_AM_BSP_GPIO_IOM2_SDA     0x10000160   Gb    2  Data  Hi   0x4
    1140  g_AM_BSP_GPIO_IOM3_CS      0x10000164   Gb    2  Data  Hi   0x4
    1141  g_AM_BSP_GPIO_IOM3_MISO    0x10000168   Gb    2  Data  Hi   0x4
    1142  g_AM_BSP_GPIO_IOM3_MOSI    0x1000016c   Gb    2  Data  Hi   0x4
    1143  g_AM_BSP_GPIO_IOM3_SCK     0x10000170   Gb    2  Data  Hi   0x4
    1144  g_AM_BSP_GPIO_IOM3_SCL     0x10000174   Gb    2  Data  Hi   0x4
    1145  g_AM_BSP_GPIO_IOM3_SDA     0x10000178   Gb    2  Data  Hi   0x4
    1146  g_AM_BSP_GPIO_IOM4_CS      0x1000017c   Gb    2  Data  Hi   0x4
    1147  g_AM_BSP_GPIO_IOM4_MISO    0x10000180   Gb    2  Data  Hi   0x4
    1148  g_AM_BSP_GPIO_IOM4_MOSI    0x10000184   Gb    2  Data  Hi   0x4
    1149  g_AM_BSP_GPIO_IOM4_SCK     0x10000188   Gb    2  Data  Hi   0x4
    1150  g_AM_BSP_GPIO_IOM5_CS      0x1000018c   Gb    2  Data  Hi   0x4
    1151  g_AM_BSP_GPIO_IOM5_MISO    0x10000190   Gb    2  Data  Hi   0x4
    1152  g_AM_BSP_GPIO_IOM5_MOSI    0x10000194   Gb    2  Data  Hi   0x4
    1153  g_AM_BSP_GPIO_IOM5_SCK     0x10000198   Gb    2  Data  Hi   0x4
    1154  g_AM_BSP_GPIO_IOM5_SCL     0x1000019c   Gb    2  Data  Hi   0x4
    1155  g_AM_BSP_GPIO_IOM5_SDA     0x100001a0   Gb    2  Data  Hi   0x4
    1156  g_AM_BSP_GPIO_IOM6_CS      0x100001a4   Gb    2  Data  Hi   0x4
    1157  g_AM_BSP_GPIO_IOM6_MISO    0x100001a8   Gb    2  Data  Hi   0x4
    1158  g_AM_BSP_GPIO_IOM6_MOSI    0x100001ac   Gb    2  Data  Hi   0x4
    1159  g_AM_BSP_GPIO_IOM6_SCK     0x100001b0   Gb    2  Data  Hi   0x4
    1160  g_AM_BSP_GPIO_IOM6_SCL     0x100001b4   Gb    2  Data  Hi   0x4
    1161  g_AM_BSP_GPIO_IOM6_SDA     0x100001b8   Gb    2  Data  Hi   0x4
    1162  g_AM_BSP_GPIO_IOM7_CS      0x100001bc   Gb    2  Data  Hi   0x4
    1163  g_AM_BSP_GPIO_IOM7_MISO    0x100001c0   Gb    2  Data  Hi   0x4
    1164  g_AM_BSP_GPIO_IOM7_MOSI    0x100001c4   Gb    2  Data  Hi   0x4
    1165  g_AM_BSP_GPIO_IOM7_SCK     0x100001c8   Gb    2  Data  Hi   0x4
    1166  g_AM_BSP_GPIO_IOM7_SCL     0x100001cc   Gb    2  Data  Hi   0x4
    1167  g_AM_BSP_GPIO_IOM7_SDA     0x100001d0   Gb    2  Data  Hi   0x4
    1168  g_AM_BSP_GPIO_ITM_SWO      0x100001d4   Gb    2  Data  Hi   0x4
    1169  gDaxiConfig                0x100001d8   Gb    2  Data  Hi   0x5
    1170  gStartOff                  0x100001e0   Gb    2  Data  Hi   0x4
    1171  gpDcuEnable                0x100001e4   Gb    2  Data  Hi   0x4
    1172  gpDcuLock                  0x100001e8   Gb    2  Data  Hi   0x4
    1173  gDcuEnable                 0x100001f0   Gb    2  Data  Hi   0x8
    1174  gDcuDisable                0x100001f8   Gb    2  Data  Hi   0x8
    1175  g_pui8UARTTXBuffer         0x10000200   Gb    3  Data  Hi   0x800
    1176  DMATCBBuf                  0x10000a00   Gb    3  Data  Hi   0x2000
    1177  g_psWriteData              0x10002a00   Gb    3  Data  Hi   0x400
    1178  g_psReadData               0x10002e00   Gb    3  Data  Hi   0x400
    1179  info0_trimmedData          0x10003200   Gb    3  Data  Hi   0x200
    1180  info0dataBuf               0x10003400   Gb    3  Data  Hi   0x180
    1181  gFaultStack                0x10003780   Gb    3  Data  Hi   0x200
    1182  gAmCooper                  0x10003d80   Gb    3  Data  Hi   0x24
    1183  g_IOMhandles               0x10003df4   Gb    3  Data  Hi   0x4540
    1184  am_hal_xtal_users          0x10008334   Gb    3  Data  Hi   0xc
    1185  g_am_hal_uart_states       0x10008340   Gb    3  Data  Hi   0x2e0
    1186  __libspace_start           0x10009004   Gb    3  Data  De   0x60
    1187  __temporary_stack_top$libspace
                                    0x10009064   Gb    3  Data  De 
    1188  psGlobalAccessPtr          0x10060000   Gb    4  Data  Hi   0x4
    1189  ui32MCUClaimed             0x10060004   Gb    4  Data  Hi   0x14
    1190  ui32DSP0Claimed            0x10060018   Gb    4  Data  Hi   0x14
    1191  ui32DSP1Claimed            0x1006002c   Gb    4  Data  Hi   0x14


** Section #13 '.strtab' (SHT_STRTAB)
    Size   : 18112 bytes

            #  Offset String
        ====================================

            1      1: $d
            2      4: $t
            3      7: $d.realdata
            4     19: ..\src\am_resources.c
            5     41: ../src/am_resources.c
            6     63: .constdata
            7     74: ui32I2sWordLength
            8     92: __tagsym$$used
            9    107: RESOURCE_TABLE
           10    122: SHARED_RW
           11    132: ..\src\uart_ble_bridge.c
           12    157: ../src/uart_ble_bridge.c
           13    182: i.__NVIC_EnableIRQ
           14    201: __NVIC_EnableIRQ
           15    218: i.__NVIC_SetPriority
           16    239: __NVIC_SetPriority
           17    258: i.am_uart2_isr
           18    273: i.main
           19    280: i.serial_data_read
           20    299: i.serial_data_write
           21    319: i.serial_interface_init
           22    343: i.serial_irq_disable
           23    364: i.serial_irq_enable
           24    384: i.serial_task
           25    398: .bss
           26    403: .data
           27    409: ..\..\..\..\..\..\ambiq_ble\apps\dtm_module\dtm_main.c
           28    464: ../../../../../../ambiq_ble/apps/dtm_module/dtm_main.c
           29    519: i.ClkReqIntService
           30    538: ClkReqIntService
           31    555: i.am_gpio0_203f_isr
           32    575: i.am_iomaster4_isr
           33    594: i.apollo4_mcu_ble_enter_sleep
           34    624: apollo4_mcu_ble_enter_sleep
           35    652: i.build_info0_patch
           36    672: build_info0_patch
           37    690: i.clkreq_interrupt_init
           38    714: clkreq_interrupt_init
           39    736: i.cooper_spi_init
           40    754: i.dtm_data_callback
           41    774: dtm_data_callback
           42    792: i.dtm_init
           43    803: i.dtm_process
           44    817: i.hci_data_read
           45    833: hci_data_read
           46    847: i.hci_data_write
           47    864: hci_data_write
           48    879: i.hci_rx_process
           49    896: hci_rx_process
           50    911: i.running_done_gpio_init
           51    936: running_done_gpio_init
           52    959: i.running_done_gpio_set
           53    983: running_done_gpio_set
           54   1005: i.serial_rx_hci_state_machine
           55   1035: i.serial_rx_process
           56   1055: serial_rx_process
           57   1073: i.set_bd_address
           58   1090: set_bd_address
           59   1105: pPktRx
           60   1112: g_sBLEInfo0PatchImage
           61   1134: stateRx
           62   1142: pktIndRx
           63   1151: iRx
           64   1155: hdrRx
           65   1161: pDataRx
           66   1169: ..\..\..\..\..\..\utils\am_util_ble_cooper.c
           67   1214: ../../../../../../utils/am_util_ble_cooper.c
           68   1259: i.am_util_ble_hci_reset
           69   1283: i.am_util_ble_nvds_set
           70   1306: i.am_util_ble_update_sign_set
           71   1336: ..\..\..\..\..\..\utils\am_util_delay.c
           72   1376: ../../../../../../utils/am_util_delay.c
           73   1416: i.am_util_delay_ms
           74   1435: i.am_util_delay_us
           75   1454: ..\..\..\..\..\..\utils\am_util_faultisr.c
           76   1497: .emb_text
           77   1507: $v0
           78   1511: ../../../../../../utils/am_util_faultisr.c
           79   1554: i.am_util_faultisr_collect_data
           80   1586: i.am_valid_sp
           81   1600: ../../../../../../utils/am_util_stdio.c
           82   1640: i.am_util_stdio_printf
           83   1663: i.am_util_stdio_printf_init
           84   1691: i.am_util_stdio_terminal_clear
           85   1722: i.am_util_stdio_vsprintf
           86   1747: i.decstr_to_int
           87   1763: decstr_to_int
           88   1777: i.divu64_10
           89   1789: divu64_10
           90   1799: i.ftoa
           91   1806: ftoa
           92   1811: i.ndigits_in_hex
           93   1828: ndigits_in_hex
           94   1843: i.ndigits_in_i64
           95   1860: ndigits_in_i64
           96   1875: i.ndigits_in_u64
           97   1892: ndigits_in_u64
           98   1907: i.padbuffer
           99   1919: padbuffer
          100   1929: i.simple_strlen
          101   1945: simple_strlen
          102   1959: i.uint64_to_hexstr
          103   1978: uint64_to_hexstr
          104   1995: i.uint64_to_str
          105   2011: uint64_to_str
          106   2025: g_prfbuf
          107   2034: g_bTxtXlate
          108   2046: ..\..\..\..\..\..\devices\am_devices_cooper.c
          109   2092: ../../../../../../devices/am_devices_cooper.c
          110   2138: i.am_devices_cooper_blocking_read
          111   2172: i.am_devices_cooper_blocking_write
          112   2207: i.am_devices_cooper_bus_disable
          113   2239: i.am_devices_cooper_bus_enable
          114   2270: i.am_devices_cooper_clkreq_read
          115   2302: i.am_devices_cooper_command_write
          116   2336: i.am_devices_cooper_get_info0_patch
          117   2372: i.am_devices_cooper_image_update_init
          118   2410: i.am_devices_cooper_init
          119   2435: i.am_devices_cooper_irq_read
          120   2464: i.am_devices_cooper_pins_disable
          121   2497: i.am_devices_cooper_pins_enable
          122   2529: i.am_devices_cooper_reset
          123   2555: i.am_devices_cooper_reset_with_sbl_check
          124   2596: i.am_devices_cooper_sbl_update_state_data
          125   2638: am_devices_cooper_sbl_update_state_data
          126   2678: i.am_devices_cooper_term
          127   2703: i.am_devices_cooper_update_image
          128   2736: i.iom_slave_read
          129   2753: i.send_data
          130   2765: i.send_fwContinue
          131   2783: i.send_hello
          132   2796: i.send_update
          133   2810: gsSblUpdateState
          134   2827: g_sFwImage
          135   2838: .conststring
          136   2851: g_sInfo0PatchImage
          137   2870: g_sInfo1PatchImage
          138   2889: sbl_status
          139   2900: ../keil/startup_keil.s
          140   2923: STACK
          141   2929: StackMem
          142   2938: HEAP
          143   2943: HeapMem
          144   2951: RESET
          145   2957: am_cryptosec_isr
          146   2974: am_default_isr
          147   2989: .text
          148   2995: ..\..\..\..\..\mcu\apollo4l\hal\mcu\am_hal_fault.c
          149   3046: ../../../../../mcu/apollo4l/hal/mcu/am_hal_fault.c
          150   3097: i.am_hal_fault_capture_enable
          151   3127: i.am_hal_fault_status_get
          152   3153: ..\..\..\..\..\mcu\apollo4l\hal\mcu\am_hal_interrupt.c
          153   3208: ../../../../../mcu/apollo4l/hal/mcu/am_hal_interrupt.c
          154   3263: ..\..\..\..\..\mcu\apollo4l\hal\mcu\am_hal_iom.c
          155   3312: ../../../../../mcu/apollo4l/hal/mcu/am_hal_iom.c
          156   3361: i.am_hal_iom_blocking_transfer
          157   3392: i.am_hal_iom_configure
          158   3415: i.am_hal_iom_disable
          159   3436: i.am_hal_iom_enable
          160   3456: i.am_hal_iom_initialize
          161   3480: i.am_hal_iom_interrupt_clear
          162   3509: i.am_hal_iom_interrupt_service
          163   3540: i.am_hal_iom_interrupt_status_get
          164   3574: i.am_hal_iom_power_ctrl
          165   3598: i.am_hal_iom_uninitialize
          166   3624: i.internal_iom_reset_on_error
          167   3654: internal_iom_reset_on_error
          168   3682: i.validate_transaction
          169   3705: ..\..\..\..\..\mcu\apollo4l\hal\mcu\am_hal_mcuctrl.c
          170   3758: ../../../../../mcu/apollo4l/hal/mcu/am_hal_mcuctrl.c
          171   3811: i.am_hal_mcuctrl_control
          172   3836: i.am_hal_mcuctrl_info_get
          173   3862: g_am_hal_mcuctrl_sku_mram_size
          174   3893: g_am_hal_mcuctrl_sku_ssram_size
          175   3925: ..\..\..\..\..\mcu\apollo4l\hal\mcu\am_hal_sysctrl.c
          176   3978: ../../../../../mcu/apollo4l/hal/mcu/am_hal_sysctrl.c
          177   4031: i.am_hal_sysctrl_sleep
          178   4054: ..\..\..\..\..\mcu\apollo4l\hal\mcu\am_hal_uart.c
          179   4104: ../../../../../mcu/apollo4l/hal/mcu/am_hal_uart.c
          180   4154: i.am_hal_uart_buffer_configure
          181   4185: i.am_hal_uart_configure
          182   4209: i.am_hal_uart_initialize
          183   4234: i.am_hal_uart_interrupt_clear
          184   4264: i.am_hal_uart_interrupt_enable
          185   4295: i.am_hal_uart_interrupt_service
          186   4327: i.am_hal_uart_interrupt_status_get
          187   4362: i.am_hal_uart_power_control
          188   4390: i.am_hal_uart_transfer
          189   4413: i.nonblocking_read_sm
          190   4435: nonblocking_read_sm
          191   4455: i.nonblocking_write_sm
          192   4478: nonblocking_write_sm
          193   4499: ..\..\..\..\..\mcu\apollo4l\hal\mcu\am_hal_utils.c
          194   4550: ../../../../../mcu/apollo4l/hal/mcu/am_hal_utils.c
          195   4601: i.am_hal_delay_us
          196   4619: i.am_hal_delay_us_status_change
          197   4651: i.am_hal_delay_us_status_check
          198   4682: ..\..\..\..\..\mcu\apollo4l\hal\am_hal_gpio.c
          199   4728: ../../../../../mcu/apollo4l/hal/am_hal_gpio.c
          200   4774: i.am_hal_gpio_interrupt_control
          201   4806: i.am_hal_gpio_interrupt_irq_clear
          202   4840: i.am_hal_gpio_interrupt_irq_status_get
          203   4879: i.am_hal_gpio_interrupt_register
          204   4912: i.am_hal_gpio_interrupt_service
          205   4944: i.am_hal_gpio_pinconfig
          206   4968: i.am_hal_gpio_state_write
          207   4994: gpio_ppfnHandlers
          208   5012: gpio_pppvIrqArgs
          209   5029: g_ui32RMpintbl
          210   5044: g_ui32DSpintbl
          211   5059: ..\..\..\..\..\mcu\apollo4l\hal\am_hal_pwrctrl.c
          212   5108: ../../../../../mcu/apollo4l/hal/am_hal_pwrctrl.c
          213   5157: i.am_hal_pwrctrl_control
          214   5182: i.am_hal_pwrctrl_low_power_init
          215   5214: i.am_hal_pwrctrl_mcu_memory_config
          216   5249: i.am_hal_pwrctrl_mcu_mode_select
          217   5282: i.am_hal_pwrctrl_mcu_mode_status
          218   5315: i.am_hal_pwrctrl_periph_disable
          219   5347: i.am_hal_pwrctrl_periph_enable
          220   5378: i.am_hal_pwrctrl_sram_config
          221   5407: i.buck_ldo_override_init
          222   5432: i.buck_ldo_update_override
          223   5459: i.crypto_boost_trims
          224   5480: g_bOrigTrimsStored
          225   5499: g_bBoostForCryptoApplied
          226   5524: g_orig_ACTTRIMVDDF
          227   5543: g_orig_MEMLDOACTIVETRIM
          228   5567: g_orig_LPTRIMVDDF
          229   5585: g_orig_MEMLPLDOTRIM
          230   5605: g_orig_TVRGVREFTRIM
          231   5625: g_ui32VDDFAdjustCodes
          232   5647: g_i32LatestVddfActTrim
          233   5670: g_i32LatestLDOActTrim
          234   5692: ..\..\..\..\..\mcu\apollo4l\hal\am_hal_security.c
          235   5742: ../../../../../mcu/apollo4l/hal/am_hal_security.c
          236   5792: i.am_hal_crc32
          237   5807: ..\am_bsp.c
          238   5819: ../am_bsp.c
          239   5831: i.am_bsp_iom_pins_disable
          240   5857: i.am_bsp_iom_pins_enable
          241   5882: i.am_bsp_itm_printf_disable
          242   5910: i.am_bsp_itm_printf_enable
          243   5937: i.am_bsp_low_power_init
          244   5961: g_ePrintInterface
          245   5979: g_sCOMUART
          246   5990: ..\am_bsp_pins.c
          247   6007: ../am_bsp_pins.c
          248   6024: ..\..\..\..\..\mcu\apollo4l\hal\mcu\am_hal_bootrom_helper.c
          249   6084: ../../../../../mcu/apollo4l/hal/mcu/am_hal_bootrom_helper.c
          250   6144: ..\..\..\..\..\mcu\apollo4l\hal\mcu\am_hal_cachectrl.c
          251   6199: ../../../../../mcu/apollo4l/hal/mcu/am_hal_cachectrl.c
          252   6254: i.am_hal_daxi_config
          253   6275: i.am_hal_daxi_control
          254   6297: i.__ARM_common_memcpy4_5
          255   6322: ..\..\..\..\..\mcu\apollo4l\hal\mcu\am_hal_cmdq.c
          256   6372: ../../../../../mcu/apollo4l/hal/mcu/am_hal_cmdq.c
          257   6422: i.am_hal_cmdq_disable
          258   6444: i.am_hal_cmdq_enable
          259   6465: i.am_hal_cmdq_error_resume
          260   6492: i.am_hal_cmdq_get_status
          261   6517: i.am_hal_cmdq_init
          262   6536: i.am_hal_cmdq_term
          263   6555: gAmHalCmdq
          264   6566: gAmHalCmdQReg
          265   6580: ..\..\..\..\..\mcu\apollo4l\hal\mcu\am_hal_itm.c
          266   6629: ../../../../../mcu/apollo4l/hal/mcu/am_hal_itm.c
          267   6678: i.am_hal_itm_disable
          268   6699: i.am_hal_itm_enable
          269   6719: i.am_hal_itm_print
          270   6738: ..\..\..\..\..\mcu\apollo4l\hal\mcu\am_hal_mram.c
          271   6788: ../../../../../mcu/apollo4l/hal/mcu/am_hal_mram.c
          272   6838: i.am_hal_mram_info_read
          273   6862: ..\..\..\..\..\mcu\apollo4l\hal\mcu\am_hal_rtc.c
          274   6911: ../../../../../mcu/apollo4l/hal/mcu/am_hal_rtc.c
          275   6960: i.am_hal_rtc_osc_disable
          276   6985: ..\..\..\..\..\mcu\apollo4l\hal\mcu\am_hal_tpiu.c
          277   7035: ../../../../../mcu/apollo4l/hal/mcu/am_hal_tpiu.c
          278   7085: i.am_hal_tpiu_enable
          279   7106: ..\..\..\..\..\mcu\apollo4l\hal\am_hal_dcu.c
          280   7151: ../../../../../mcu/apollo4l/hal/am_hal_dcu.c
          281   7196: i.am_hal_dcu_get
          282   7213: i.am_hal_dcu_update
          283   7233: i.copy_words
          284   7246: copy_words
          285   7257: ..\..\..\..\..\mcu\apollo4l\hal\am_hal_global.c
          286   7305: ../../../../../mcu/apollo4l/hal/am_hal_global.c
          287   7353: i.am_gpu_power_disable
          288   7376: i.am_gpu_power_enable
          289   7398: ..\..\..\..\..\mcu\apollo4l\hal\am_hal_pin.c
          290   7443: ../../../../../mcu/apollo4l/hal/am_hal_pin.c
          291   7488: ..\..\..\..\..\mcu\apollo4l\hal\am_hal_queue.c
          292   7535: ../../../../../mcu/apollo4l/hal/am_hal_queue.c
          293   7582: i.am_hal_queue_init
          294   7602: i.am_hal_queue_item_add
          295   7626: i.am_hal_queue_item_get
          296   7650: dc.s
          297   7655: ../clib/longlong.s
          298   7674: ../clib/string.c
          299   7691: ../clib/memcpset.s
          300   7710: ../clib/heapaux.c
          301   7728: ../clib/angel/startup.s
          302   7752: !!!main
          303   7760: ../clib/angel/handlers.s
          304   7785: !!handler_copy
          305   7800: ../fplib/d2f.s
          306   7815: x$fpl$d2f
          307   7825: ../clib/angel/kernel.s
          308   7848: .ARM.Collect$$rtentry$$00000000
          309   7880: ../fplib/dnaninf.s
          310   7899: x$fpl$dnaninf
          311   7913: ../fplib/fretinf.s
          312   7932: x$fpl$fretinf
          313   7946: ../fplib/usenofp.s
          314   7965: x$fpl$usenofp
          315   7979: .ARM.Collect$$rtentry$$00000002
          316   8011: .ARM.Collect$$rtentry$$00000009
          317   8043: .ARM.Collect$$rtentry$$0000000A
          318   8075: .ARM.Collect$$rtentry$$0000000C
          319   8107: .ARM.Collect$$rtentry$$0000000D
          320   8139: .ARM.Collect$$rtentry$$00000004
          321   8171: ../clib/angel/sys.s
          322   8191: ../clib/stdlib.c
          323   8208: ../clib/angel/boardlib.s
          324   8233: ../clib/libinit.s
          325   8251: .ARM.Collect$$libinit$$00000000
          326   8283: .ARM.Collect$$rtexit$$00000000
          327   8314: .ARM.Collect$$libinit$$00000001
          328   8346: .ARM.Collect$$libinit$$00000004
          329   8378: .ARM.Collect$$libinit$$0000000A
          330   8410: .ARM.Collect$$libinit$$0000000C
          331   8442: .ARM.Collect$$libinit$$0000000E
          332   8474: .ARM.Collect$$libinit$$00000011
          333   8506: .ARM.Collect$$libinit$$00000013
          334   8538: .ARM.Collect$$libinit$$00000015
          335   8570: .ARM.Collect$$libinit$$00000017
          336   8602: .ARM.Collect$$libinit$$00000019
          337   8634: .ARM.Collect$$libinit$$0000001B
          338   8666: .ARM.Collect$$libinit$$0000001D
          339   8698: .ARM.Collect$$libinit$$0000001F
          340   8730: .ARM.Collect$$libinit$$00000021
          341   8762: .ARM.Collect$$libinit$$00000023
          342   8794: .ARM.Collect$$libinit$$00000025
          343   8826: .ARM.Collect$$libinit$$0000002C
          344   8858: .ARM.Collect$$libinit$$0000002E
          345   8890: .ARM.Collect$$libinit$$00000030
          346   8922: .ARM.Collect$$libinit$$00000032
          347   8954: .ARM.Collect$$libinit$$00000033
          348   8986: .ARM.Collect$$rtexit$$00000002
          349   9017: .ARM.Collect$$rtexit$$00000003
          350   9048: .ARM.Collect$$rtexit$$00000004
          351   9079: ../clib/armsys.c
          352   9096: ../fplib/fpinit.s
          353   9114: x$fpl$fpinit
          354   9127: ../clib/angel/sysapp.c
          355   9150: .ARM.Collect$$libshutdown$$00000000
          356   9186: ../clib/heapalloc.c
          357   9206: ../clib/signal.c
          358   9223: .ARM.Collect$$libshutdown$$00000002
          359   9259: .ARM.Collect$$libshutdown$$00000004
          360   9295: .ARM.Collect$$libshutdown$$00000007
          361   9331: .ARM.Collect$$libshutdown$$0000000A
          362   9367: .ARM.Collect$$libshutdown$$0000000C
          363   9403: .ARM.Collect$$libshutdown$$0000000F
          364   9439: .ARM.Collect$$libshutdown$$00000010
          365   9475: ../clib/angel/rt.s
          366   9494: ../clib/signal.s
          367   9511: ../clib/angel/dczerorl2.s
          368   9537: !!dczerorl2
          369   9549: ../clib/angel/scatter.s
          370   9573: !!!scatter
          371   9584: !!handler_zi
          372   9597: BuildAttributes$$THM_ISAv4$E$P$D$K$B$S$7EM$VFPi3$EXTD16$VFPS$VFMA$PE$A:L22UL41UL21$X:L11$S22US41US21$IEEE1$IW$USESV6$~STKCKD$USESV7$~SHL$OTIME$ROPI$EBA8$UX$STANDARDLIB$REQ8$PRES8$EABIv2
          373   9783: __ARM_use_no_argv
          374   9801: __Vectors
          375   9811: __Patchable
          376   9823: Reset_Handler
          377   9837: NMI_Handler
          378   9849: MemManage_Handler
          379   9867: BusFault_Handler
          380   9884: UsageFault_Handler
          381   9903: SVC_Handler
          382   9915: DebugMon_Handler
          383   9932: PendSV_Handler
          384   9947: SysTick_Handler
          385   9963: am_adc_isr
          386   9974: am_audadc0_isr
          387   9989: am_brownout_isr
          388  10005: am_cachecpu_isr
          389  10021: am_clkgen_isr
          390  10035: am_ctimer_isr
          391  10049: am_disp_isr
          392  10061: am_dsi_isr
          393  10072: am_dspi2s0_isr
          394  10087: am_dspi2s1_isr
          395  10102: am_dspi2s2_isr
          396  10117: am_dspi2s3_isr
          397  10132: am_gpio0_001f_isr
          398  10150: am_gpio0_405f_isr
          399  10168: am_gpio0_607f_isr
          400  10186: am_gpio1_001f_isr
          401  10204: am_gpio1_203f_isr
          402  10222: am_gpio1_405f_isr
          403  10240: am_gpio1_607f_isr
          404  10258: am_gpu_isr
          405  10269: am_iomaster0_isr
          406  10286: am_iomaster1_isr
          407  10303: am_iomaster2_isr
          408  10320: am_iomaster3_isr
          409  10337: am_iomaster5_isr
          410  10354: am_iomaster6_isr
          411  10371: am_iomaster7_isr
          412  10388: am_ioslave_acc_isr
          413  10407: am_ioslave_ios_isr
          414  10426: am_mspi0_isr
          415  10439: am_mspi1_isr
          416  10452: am_mspi2_isr
          417  10465: am_pdm0_isr
          418  10477: am_pdm1_isr
          419  10489: am_pdm2_isr
          420  10501: am_pdm3_isr
          421  10513: am_rtc_isr
          422  10524: am_sdio_isr
          423  10536: am_stimer_cmpr0_isr
          424  10556: am_stimer_cmpr1_isr
          425  10576: am_stimer_cmpr2_isr
          426  10596: am_stimer_cmpr3_isr
          427  10616: am_stimer_cmpr4_isr
          428  10636: am_stimer_cmpr5_isr
          429  10656: am_stimer_cmpr6_isr
          430  10676: am_stimer_cmpr7_isr
          431  10696: am_stimerof_isr
          432  10712: am_timer00_isr
          433  10727: am_timer01_isr
          434  10742: am_timer02_isr
          435  10757: am_timer03_isr
          436  10772: am_timer04_isr
          437  10787: am_timer05_isr
          438  10802: am_timer06_isr
          439  10817: am_timer07_isr
          440  10832: am_timer08_isr
          441  10847: am_timer09_isr
          442  10862: am_timer10_isr
          443  10877: am_timer11_isr
          444  10892: am_timer12_isr
          445  10907: am_timer13_isr
          446  10922: am_timer14_isr
          447  10937: am_timer15_isr
          448  10952: am_uart1_isr
          449  10965: am_uart3_isr
          450  10978: am_uart_isr
          451  10990: am_usb_isr
          452  11001: am_vcomp_isr
          453  11014: am_watchdog_isr
          454  11030: __main
          455  11037: __scatterload
          456  11051: __scatterload_rt2
          457  11069: __scatterload_rt2_thumb_only
          458  11098: __scatterload_null
          459  11117: __decompress
          460  11130: __decompress1
          461  11144: __scatterload_copy
          462  11163: __scatterload_zeroinit
          463  11186: __rt_lib_init
          464  11200: __rt_lib_init_fp_1
          465  11219: __rt_lib_init_alloca_1
          466  11242: __rt_lib_init_argv_1
          467  11263: __rt_lib_init_atexit_1
          468  11286: __rt_lib_init_clock_1
          469  11308: __rt_lib_init_cpp_1
          470  11328: __rt_lib_init_exceptions_1
          471  11355: __rt_lib_init_fp_trap_1
          472  11379: __rt_lib_init_getenv_1
          473  11402: __rt_lib_init_heap_1
          474  11423: __rt_lib_init_lc_collate_1
          475  11450: __rt_lib_init_lc_ctype_1
          476  11475: __rt_lib_init_lc_monetary_1
          477  11503: __rt_lib_init_lc_numeric_1
          478  11530: __rt_lib_init_lc_time_1
          479  11554: __rt_lib_init_preinit_1
          480  11578: __rt_lib_init_rand_1
          481  11599: __rt_lib_init_return
          482  11620: __rt_lib_init_signal_1
          483  11643: __rt_lib_init_stdio_1
          484  11665: __rt_lib_init_user_alloc_1
          485  11692: __rt_lib_shutdown
          486  11710: __rt_lib_shutdown_cpp_1
          487  11734: __rt_lib_shutdown_fp_trap_1
          488  11762: __rt_lib_shutdown_heap_1
          489  11787: __rt_lib_shutdown_return
          490  11812: __rt_lib_shutdown_signal_1
          491  11839: __rt_lib_shutdown_stdio_1
          492  11865: __rt_lib_shutdown_user_alloc_1
          493  11896: __rt_entry
          494  11907: __rt_entry_presh_1
          495  11926: __rt_entry_sh
          496  11940: __rt_entry_li
          497  11954: __rt_entry_postsh_1
          498  11974: __rt_entry_main
          499  11990: __rt_entry_postli_1
          500  12010: __rt_exit
          501  12020: __rt_exit_ls
          502  12033: __rt_exit_prels_1
          503  12051: __rt_exit_exit
          504  12066: HardFault_Handler
          505  12084: getStackedReg
          506  12098: am_hal_interrupt_master_enable
          507  12129: am_hal_interrupt_master_disable
          508  12161: am_hal_interrupt_master_set
          509  12189: __user_initial_stackheap
          510  12214: __aeabi_llsl
          511  12227: _ll_shift_l
          512  12239: __aeabi_llsr
          513  12252: _ll_ushift_r
          514  12265: memcmp
          515  12272: __aeabi_memcpy
          516  12287: __rt_memcpy
          517  12299: _memcpy_lastbytes
          518  12317: __aeabi_memcpy4
          519  12333: __aeabi_memcpy8
          520  12349: __rt_memcpy_w
          521  12363: _memcpy_lastbytes_aligned
          522  12389: __aeabi_memset
          523  12404: __aeabi_memclr4
          524  12420: __aeabi_memclr8
          525  12436: __rt_memclr_w
          526  12450: _memset_w
          527  12460: __use_two_region_memory
          528  12484: __rt_heap_escrow$2region
          529  12509: __rt_heap_expand$2region
          530  12534: __aeabi_memclr
          531  12549: __rt_memclr
          532  12561: _memset
          533  12569: __user_setup_stackheap
          534  12592: exit
          535  12597: __user_libspace
          536  12613: __user_perproc_libspace
          537  12637: __user_perthread_libspace
          538  12663: _sys_exit
          539  12673: __I$use$semihosting
          540  12693: __use_no_semihosting_swi
          541  12718: __semihosting_library_function
          542  12749: __ARM_common_memcpy4_5
          543  12772: am_bsp_iom_pins_disable
          544  12796: am_bsp_iom_pins_enable
          545  12819: am_bsp_itm_printf_disable
          546  12845: am_bsp_itm_printf_enable
          547  12870: am_bsp_low_power_init
          548  12892: am_devices_cooper_blocking_read
          549  12924: am_devices_cooper_blocking_write
          550  12957: am_devices_cooper_bus_disable
          551  12987: am_devices_cooper_bus_enable
          552  13016: am_devices_cooper_clkreq_read
          553  13046: am_devices_cooper_command_write
          554  13078: am_devices_cooper_get_info0_patch
          555  13112: am_devices_cooper_image_update_init
          556  13148: am_devices_cooper_init
          557  13171: am_devices_cooper_irq_read
          558  13198: am_devices_cooper_pins_disable
          559  13229: am_devices_cooper_pins_enable
          560  13259: am_devices_cooper_reset
          561  13283: am_devices_cooper_reset_with_sbl_check
          562  13322: am_devices_cooper_term
          563  13345: am_devices_cooper_update_image
          564  13376: am_gpio0_203f_isr
          565  13394: am_gpu_power_disable
          566  13415: am_gpu_power_enable
          567  13435: am_hal_cmdq_disable
          568  13455: am_hal_cmdq_enable
          569  13474: am_hal_cmdq_error_resume
          570  13499: am_hal_cmdq_get_status
          571  13522: am_hal_cmdq_init
          572  13539: am_hal_cmdq_term
          573  13556: am_hal_crc32
          574  13569: am_hal_daxi_config
          575  13588: am_hal_daxi_control
          576  13608: am_hal_dcu_get
          577  13623: am_hal_dcu_update
          578  13641: am_hal_delay_us
          579  13657: am_hal_delay_us_status_change
          580  13687: am_hal_delay_us_status_check
          581  13716: am_hal_fault_capture_enable
          582  13744: am_hal_fault_status_get
          583  13768: am_hal_gpio_interrupt_control
          584  13798: am_hal_gpio_interrupt_irq_clear
          585  13830: am_hal_gpio_interrupt_irq_status_get
          586  13867: am_hal_gpio_interrupt_register
          587  13898: am_hal_gpio_interrupt_service
          588  13928: am_hal_gpio_pinconfig
          589  13950: am_hal_gpio_state_write
          590  13974: am_hal_iom_blocking_transfer
          591  14003: am_hal_iom_configure
          592  14024: am_hal_iom_disable
          593  14043: am_hal_iom_enable
          594  14061: am_hal_iom_initialize
          595  14083: am_hal_iom_interrupt_clear
          596  14110: am_hal_iom_interrupt_service
          597  14139: am_hal_iom_interrupt_status_get
          598  14171: am_hal_iom_power_ctrl
          599  14193: am_hal_iom_uninitialize
          600  14217: am_hal_itm_disable
          601  14236: am_hal_itm_enable
          602  14254: am_hal_itm_print
          603  14271: am_hal_mcuctrl_control
          604  14294: am_hal_mcuctrl_info_get
          605  14318: am_hal_mram_info_read
          606  14340: am_hal_pwrctrl_control
          607  14363: am_hal_pwrctrl_low_power_init
          608  14393: am_hal_pwrctrl_mcu_memory_config
          609  14426: am_hal_pwrctrl_mcu_mode_select
          610  14457: am_hal_pwrctrl_mcu_mode_status
          611  14488: am_hal_pwrctrl_periph_disable
          612  14518: am_hal_pwrctrl_periph_enable
          613  14547: am_hal_pwrctrl_sram_config
          614  14574: am_hal_queue_init
          615  14592: am_hal_queue_item_add
          616  14614: am_hal_queue_item_get
          617  14636: am_hal_rtc_osc_disable
          618  14659: am_hal_sysctrl_sleep
          619  14680: am_hal_tpiu_enable
          620  14699: am_hal_uart_buffer_configure
          621  14728: am_hal_uart_configure
          622  14750: am_hal_uart_initialize
          623  14773: am_hal_uart_interrupt_clear
          624  14801: am_hal_uart_interrupt_enable
          625  14830: am_hal_uart_interrupt_service
          626  14860: am_hal_uart_interrupt_status_get
          627  14893: am_hal_uart_power_control
          628  14919: am_hal_uart_transfer
          629  14940: am_iomaster4_isr
          630  14957: am_uart2_isr
          631  14970: am_util_ble_hci_reset
          632  14992: am_util_ble_nvds_set
          633  15013: am_util_ble_update_sign_set
          634  15041: am_util_delay_ms
          635  15058: am_util_delay_us
          636  15075: am_util_faultisr_collect_data
          637  15105: am_util_stdio_printf
          638  15126: am_util_stdio_printf_init
          639  15152: am_util_stdio_terminal_clear
          640  15181: am_util_stdio_vsprintf
          641  15204: am_valid_sp
          642  15216: buck_ldo_override_init
          643  15239: buck_ldo_update_override
          644  15264: cooper_spi_init
          645  15280: crypto_boost_trims
          646  15299: dtm_init
          647  15308: dtm_process
          648  15320: iom_slave_read
          649  15335: main
          650  15340: send_data
          651  15350: send_fwContinue
          652  15366: send_hello
          653  15377: send_update
          654  15389: serial_data_read
          655  15406: serial_data_write
          656  15424: serial_interface_init
          657  15446: serial_irq_disable
          658  15465: serial_irq_enable
          659  15483: serial_rx_hci_state_machine
          660  15511: serial_task
          661  15523: validate_transaction
          662  15544: __aeabi_d2f
          663  15556: _d2f
          664  15561: __fpl_dnaninf
          665  15575: _fp_init
          666  15584: __fplib_config_fpu_vfp
          667  15607: __fplib_config_pureend_doubles
          668  15638: __fpl_fretinf
          669  15652: __I$use$fp
          670  15663: ui32MCUAllowed
          671  15678: ui32DSP0Allowed
          672  15694: ui32DSP1Allowed
          673  15710: ui32SharedAccess
          674  15727: sGlobalAccess
          675  15741: g_amHalMcuctrlArgBLEDefault
          676  15769: am_hal_gpio_pincfg_output
          677  15795: am_hal_gpio_pincfg_input
          678  15820: am_hal_gpio_pincfg_disabled
          679  15848: g_DefaultMcuMemCfg
          680  15867: g_DefaultSRAMCfg
          681  15884: am_hal_pwrctrl_peripheral_control
          682  15918: g_am_hal_bootrom_helper
          683  15942: am_hal_daxi_defaults
          684  15963: Region$$Table$$Base
          685  15983: Region$$Table$$Limit
          686  16004: g_pvUART
          687  16013: nvds_cmd_sleep_disable
          688  16036: nvds_cmd_sleep_enable
          689  16058: nvds_cmd
          690  16067: store_info0_trim_virtual_cmd
          691  16096: store_info0_trim_virtual_cmd_complete
          692  16134: trigger_flash_info0_virtual_cmd
          693  16166: trigger_flash_info0_virtual_cmd_complete
          694  16207: trigger_enter_sleep_cmd
          695  16231: hci_nop_opcode_event
          696  16252: info0_trimmedData_index
          697  16276: stCooperConfig
          698  16291: g_ui32SerialRxIndex
          699  16311: g_bRxTimeoutFlag
          700  16328: g_bCmdProcessedFlag
          701  16348: g_bDtmModeRunning
          702  16366: g_IomDevHdl
          703  16378: g_pvHciSpiHandle
          704  16395: g_pfnCharPrint
          705  16410: sLengthBytes
          706  16423: g_AM_DEVICES_COOPER_SPI_CS
          707  16450: g_AM_DEVICES_COOPER_32M_CLK
          708  16478: g_AM_DEVICES_COOPER_32K_CLK
          709  16506: g_AM_DEVICES_COOPER_CLKREQ
          710  16533: g_ui32xtalhscap2trim
          711  16554: g_ui32xtalhscaptrim
          712  16574: g_eCurrPwrMode
          713  16589: g_ui32TrimVer
          714  16603: g_ui32origSimobuckVDDStrim
          715  16630: g_AM_BSP_GPIO_COM_UART_TX
          716  16656: g_AM_BSP_GPIO_COM_UART_RX
          717  16682: g_AM_BSP_GPIO_IOM0_CS
          718  16704: g_AM_BSP_GPIO_IOM0_MISO
          719  16728: g_AM_BSP_GPIO_IOM0_MOSI
          720  16752: g_AM_BSP_GPIO_IOM0_SCK
          721  16775: g_AM_BSP_GPIO_IOM0_SCL
          722  16798: g_AM_BSP_GPIO_IOM0_SDA
          723  16821: g_AM_BSP_GPIO_IOM1_CS
          724  16843: g_AM_BSP_GPIO_IOM1_MISO
          725  16867: g_AM_BSP_GPIO_IOM1_MOSI
          726  16891: g_AM_BSP_GPIO_IOM1_SCK
          727  16914: g_AM_BSP_GPIO_IOM1_SCL
          728  16937: g_AM_BSP_GPIO_IOM1_SDA
          729  16960: g_AM_BSP_GPIO_IOM2_CS
          730  16982: g_AM_BSP_GPIO_IOM2_MISO
          731  17006: g_AM_BSP_GPIO_IOM2_MOSI
          732  17030: g_AM_BSP_GPIO_IOM2_SCK
          733  17053: g_AM_BSP_GPIO_IOM2_SCL
          734  17076: g_AM_BSP_GPIO_IOM2_SDA
          735  17099: g_AM_BSP_GPIO_IOM3_CS
          736  17121: g_AM_BSP_GPIO_IOM3_MISO
          737  17145: g_AM_BSP_GPIO_IOM3_MOSI
          738  17169: g_AM_BSP_GPIO_IOM3_SCK
          739  17192: g_AM_BSP_GPIO_IOM3_SCL
          740  17215: g_AM_BSP_GPIO_IOM3_SDA
          741  17238: g_AM_BSP_GPIO_IOM4_CS
          742  17260: g_AM_BSP_GPIO_IOM4_MISO
          743  17284: g_AM_BSP_GPIO_IOM4_MOSI
          744  17308: g_AM_BSP_GPIO_IOM4_SCK
          745  17331: g_AM_BSP_GPIO_IOM5_CS
          746  17353: g_AM_BSP_GPIO_IOM5_MISO
          747  17377: g_AM_BSP_GPIO_IOM5_MOSI
          748  17401: g_AM_BSP_GPIO_IOM5_SCK
          749  17424: g_AM_BSP_GPIO_IOM5_SCL
          750  17447: g_AM_BSP_GPIO_IOM5_SDA
          751  17470: g_AM_BSP_GPIO_IOM6_CS
          752  17492: g_AM_BSP_GPIO_IOM6_MISO
          753  17516: g_AM_BSP_GPIO_IOM6_MOSI
          754  17540: g_AM_BSP_GPIO_IOM6_SCK
          755  17563: g_AM_BSP_GPIO_IOM6_SCL
          756  17586: g_AM_BSP_GPIO_IOM6_SDA
          757  17609: g_AM_BSP_GPIO_IOM7_CS
          758  17631: g_AM_BSP_GPIO_IOM7_MISO
          759  17655: g_AM_BSP_GPIO_IOM7_MOSI
          760  17679: g_AM_BSP_GPIO_IOM7_SCK
          761  17702: g_AM_BSP_GPIO_IOM7_SCL
          762  17725: g_AM_BSP_GPIO_IOM7_SDA
          763  17748: g_AM_BSP_GPIO_ITM_SWO
          764  17770: gDaxiConfig
          765  17782: gStartOff
          766  17792: gpDcuEnable
          767  17804: gpDcuLock
          768  17814: gDcuEnable
          769  17825: gDcuDisable
          770  17837: g_pui8UARTTXBuffer
          771  17856: DMATCBBuf
          772  17866: g_psWriteData
          773  17880: g_psReadData
          774  17893: info0_trimmedData
          775  17911: info0dataBuf
          776  17924: gFaultStack
          777  17936: gAmCooper
          778  17946: g_IOMhandles
          779  17959: am_hal_xtal_users
          780  17977: g_am_hal_uart_states
          781  17998: __libspace_start
          782  18015: __temporary_stack_top$libspace
          783  18046: psGlobalAccessPtr
          784  18064: ui32MCUClaimed
          785  18079: ui32DSP0Claimed
          786  18095: ui32DSP1Claimed
          787  18111: 


** Section #14 '.note' (SHT_NOTE)
    Size   : 32 bytes (alignment 4)


** Section #15 '.comment' (SHT_PROGBITS)
    Size   : 42120 bytes


** Section #16 '.shstrtab' (SHT_STRTAB)
    Size   : 164 bytes

            #  Offset String
        ====================================

            1      1: MCU_MRAM
            2     10: MCU_TCM
            3     18: SHARED_SRAM
            4     30: .debug_abbrev
            5     44: .debug_frame
            6     57: .debug_info
            7     69: .debug_line
            8     81: .debug_loc
            9     92: .debug_macinfo
           10    107: .debug_pubnames
           11    123: .symtab
           12    131: .strtab
           13    139: .note
           14    145: .comment
           15    154: .shstrtab


