
========================================================================

** ELF Header Information

    File Name: bin\coremark.axf

    Machine class: ELFCLASS32 (32-bit)
    Data encoding: ELFDATA2LSB (Little endian)
    Header version: EV_CURRENT (Current version)
    Operating System ABI: none
    ABI Version: 0
    File Type: ET_EXEC (Executable) (2)
    Machine: EM_ARM (ARM)

    Image Entry point: 0x00018235
    Flags: EF_ARM_HASENTRY + EF_ARM_ABI_FLOAT_HARD (0x05000402)

    ARM ELF revision: 5 (ABI version 2)

    Conforms to Hard float procedure-call standard

    Built with
    Component: ARM Compiler 5.06 update 6 (build 750) Tool: armasm [4d35ec]
    Component: ARM Compiler 5.06 update 6 (build 750) Tool: armlink [4d35ed]

    Header size: 52 bytes (0x34)
    Program header entry size: 32 bytes (0x20)
    Section header entry size: 40 bytes (0x28)

    Program header entries: 1
    Section header entries: 17

    Program header offset: 164076 (0x000280ec)
    Section header offset: 164108 (0x0002810c)

    Section header string table index: 16

========================================================================

** Program header #0 (PT_LOAD) [PF_X + PF_W + PF_R + PF_ARM_ENTRY]
    Size : 24716 bytes (19788 bytes in file)
    Virtual address: 0x00018000 (Alignment 8)


========================================================================

** Section #1 'MCU_MRAM' (SHT_PROGBITS) [SHF_ALLOC + SHF_EXECINSTR]
    Size   : 19428 bytes (alignment 8)
    Address: 0x00018000

    $d
    RESET
    __Vectors
        0x00018000:    10001468    h...    DCD    268440680
        0x00018004:    00018201    ....    DCD    98817
        0x00018008:    0001821f    ....    DCD    98847
        0x0001800c:    0001821d    ....    DCD    98845
        0x00018010:    00018221    !...    DCD    98849
        0x00018014:    00018223    #...    DCD    98851
        0x00018018:    00018225    %...    DCD    98853
        0x0001801c:    00000000    ....    DCD    0
        0x00018020:    00000000    ....    DCD    0
        0x00018024:    00000000    ....    DCD    0
        0x00018028:    00000000    ....    DCD    0
        0x0001802c:    00018227    '...    DCD    98855
        0x00018030:    00018229    )...    DCD    98857
        0x00018034:    00000000    ....    DCD    0
        0x00018038:    0001822b    +...    DCD    98859
        0x0001803c:    0001846d    m...    DCD    99437
        0x00018040:    0001822f    /...    DCD    98863
        0x00018044:    0001822f    /...    DCD    98863
        0x00018048:    0001822f    /...    DCD    98863
        0x0001804c:    0001822f    /...    DCD    98863
        0x00018050:    0001822f    /...    DCD    98863
        0x00018054:    0001822f    /...    DCD    98863
        0x00018058:    0001822f    /...    DCD    98863
        0x0001805c:    0001822f    /...    DCD    98863
        0x00018060:    0001822f    /...    DCD    98863
        0x00018064:    0001822f    /...    DCD    98863
        0x00018068:    0001822f    /...    DCD    98863
        0x0001806c:    0001822f    /...    DCD    98863
        0x00018070:    0001822f    /...    DCD    98863
        0x00018074:    0001822f    /...    DCD    98863
        0x00018078:    0001822f    /...    DCD    98863
        0x0001807c:    0001822f    /...    DCD    98863
        0x00018080:    0001822f    /...    DCD    98863
        0x00018084:    0001822f    /...    DCD    98863
        0x00018088:    0001822f    /...    DCD    98863
        0x0001808c:    0001822f    /...    DCD    98863
        0x00018090:    0001822f    /...    DCD    98863
        0x00018094:    0001822f    /...    DCD    98863
        0x00018098:    0001822f    /...    DCD    98863
        0x0001809c:    0001822f    /...    DCD    98863
        0x000180a0:    0001822f    /...    DCD    98863
        0x000180a4:    0001822f    /...    DCD    98863
        0x000180a8:    0001822f    /...    DCD    98863
        0x000180ac:    0001822f    /...    DCD    98863
        0x000180b0:    0001822f    /...    DCD    98863
        0x000180b4:    0001822f    /...    DCD    98863
        0x000180b8:    0001822f    /...    DCD    98863
        0x000180bc:    0001822f    /...    DCD    98863
        0x000180c0:    0001822f    /...    DCD    98863
        0x000180c4:    0001822f    /...    DCD    98863
        0x000180c8:    0001822f    /...    DCD    98863
        0x000180cc:    0001822f    /...    DCD    98863
        0x000180d0:    0001822f    /...    DCD    98863
        0x000180d4:    0001822f    /...    DCD    98863
        0x000180d8:    0001822f    /...    DCD    98863
        0x000180dc:    0001822f    /...    DCD    98863
        0x000180e0:    0001822f    /...    DCD    98863
        0x000180e4:    0001822f    /...    DCD    98863
        0x000180e8:    0001822f    /...    DCD    98863
        0x000180ec:    0001822f    /...    DCD    98863
        0x000180f0:    0001822f    /...    DCD    98863
        0x000180f4:    0001822f    /...    DCD    98863
        0x000180f8:    0001822f    /...    DCD    98863
        0x000180fc:    0001822f    /...    DCD    98863
        0x00018100:    0001822f    /...    DCD    98863
        0x00018104:    0001822f    /...    DCD    98863
        0x00018108:    0001822f    /...    DCD    98863
        0x0001810c:    0001822f    /...    DCD    98863
        0x00018110:    0001822f    /...    DCD    98863
        0x00018114:    0001822f    /...    DCD    98863
        0x00018118:    0001822f    /...    DCD    98863
        0x0001811c:    0001822f    /...    DCD    98863
        0x00018120:    0001822f    /...    DCD    98863
        0x00018124:    0001822f    /...    DCD    98863
        0x00018128:    0001822f    /...    DCD    98863
        0x0001812c:    0001822f    /...    DCD    98863
        0x00018130:    0001822f    /...    DCD    98863
        0x00018134:    0001822f    /...    DCD    98863
        0x00018138:    0001822f    /...    DCD    98863
        0x0001813c:    0001822f    /...    DCD    98863
        0x00018140:    0001822f    /...    DCD    98863
        0x00018144:    0001822f    /...    DCD    98863
        0x00018148:    0001822f    /...    DCD    98863
        0x0001814c:    0001822f    /...    DCD    98863
        0x00018150:    0001822f    /...    DCD    98863
        0x00018154:    0001822f    /...    DCD    98863
        0x00018158:    0001822f    /...    DCD    98863
        0x0001815c:    0001822f    /...    DCD    98863
        0x00018160:    0001822f    /...    DCD    98863
        0x00018164:    0001822f    /...    DCD    98863
        0x00018168:    0001822f    /...    DCD    98863
        0x0001816c:    0001822f    /...    DCD    98863
        0x00018170:    0001822f    /...    DCD    98863
        0x00018174:    0001822f    /...    DCD    98863
        0x00018178:    0001822f    /...    DCD    98863
        0x0001817c:    0001822f    /...    DCD    98863
        0x00018180:    0001822f    /...    DCD    98863
        0x00018184:    0001822f    /...    DCD    98863
        0x00018188:    0001822f    /...    DCD    98863
        0x0001818c:    0001822f    /...    DCD    98863
    __Patchable
        0x00018190:    00000000    ....    DCD    0
        0x00018194:    00000000    ....    DCD    0
        0x00018198:    00000000    ....    DCD    0
        0x0001819c:    00000000    ....    DCD    0
        0x000181a0:    00000000    ....    DCD    0
        0x000181a4:    00000000    ....    DCD    0
        0x000181a8:    00000000    ....    DCD    0
        0x000181ac:    00000000    ....    DCD    0
        0x000181b0:    00000000    ....    DCD    0
        0x000181b4:    00000000    ....    DCD    0
        0x000181b8:    00000000    ....    DCD    0
        0x000181bc:    00000000    ....    DCD    0
        0x000181c0:    00000000    ....    DCD    0
        0x000181c4:    00000000    ....    DCD    0
        0x000181c8:    00000000    ....    DCD    0
        0x000181cc:    00000000    ....    DCD    0
        0x000181d0:    00000000    ....    DCD    0
        0x000181d4:    00000000    ....    DCD    0
        0x000181d8:    00000000    ....    DCD    0
        0x000181dc:    00000000    ....    DCD    0
        0x000181e0:    00000000    ....    DCD    0
        0x000181e4:    00000000    ....    DCD    0
        0x000181e8:    00000000    ....    DCD    0
        0x000181ec:    00000000    ....    DCD    0
        0x000181f0:    00000000    ....    DCD    0
        0x000181f4:    00000000    ....    DCD    0
        0x000181f8:    00000000    ....    DCD    0
        0x000181fc:    00000000    ....    DCD    0
    $t
    $v0
    Reset_Handler
        0x00018200:    f64e5088    N..P    MOV      r0,#0xed88
        0x00018204:    f2ce0000    ....    MOVT     r0,#0xe000
        0x00018208:    6801        .h      LDR      r1,[r0,#0]
        0x0001820a:    f4410170    A.p.    ORR      r1,r1,#0xf00000
        0x0001820e:    6001        .`      STR      r1,[r0,#0]
        0x00018210:    f3bf8f4f    ..O.    DSB      
        0x00018214:    f3bf8f6f    ..o.    ISB      
        0x00018218:    4805        .H      LDR      r0,[pc,#20] ; [0x18230] = 0x18235
        0x0001821a:    4700        .G      BX       r0
    HardFault_Handler
        0x0001821c:    e7fe        ..      B        HardFault_Handler ; 0x1821c
    NMI_Handler
        0x0001821e:    e7fe        ..      B        NMI_Handler ; 0x1821e
    MemManage_Handler
        0x00018220:    e7fe        ..      B        MemManage_Handler ; 0x18220
    BusFault_Handler
        0x00018222:    e7fe        ..      B        BusFault_Handler ; 0x18222
    UsageFault_Handler
        0x00018224:    e7fe        ..      B        UsageFault_Handler ; 0x18224
    SVC_Handler
        0x00018226:    e7fe        ..      B        SVC_Handler ; 0x18226
    DebugMon_Handler
        0x00018228:    e7fe        ..      B        DebugMon_Handler ; 0x18228
    PendSV_Handler
        0x0001822a:    e7fe        ..      B        PendSV_Handler ; 0x1822a
        0x0001822c:    e7fe        ..      B        0x1822c ; PendSV_Handler + 2
    am_cryptosec_isr
    am_default_isr
    am_adc_isr
    am_audadc0_isr
    am_brownout_isr
    am_cachecpu_isr
    am_clkgen_isr
    am_ctimer_isr
    am_disp_isr
    am_dsi_isr
    am_dspi2s0_isr
    am_dspi2s1_isr
    am_dspi2s2_isr
    am_dspi2s3_isr
    am_gpio0_001f_isr
    am_gpio0_203f_isr
    am_gpio0_405f_isr
    am_gpio0_607f_isr
    am_gpio1_001f_isr
    am_gpio1_203f_isr
    am_gpio1_405f_isr
    am_gpio1_607f_isr
    am_gpu_isr
    am_iomaster0_isr
    am_iomaster1_isr
    am_iomaster2_isr
    am_iomaster3_isr
    am_iomaster4_isr
    am_iomaster5_isr
    am_iomaster6_isr
    am_iomaster7_isr
    am_ioslave_acc_isr
    am_ioslave_ios_isr
    am_mspi0_isr
    am_mspi1_isr
    am_mspi2_isr
    am_pdm0_isr
    am_pdm1_isr
    am_pdm2_isr
    am_pdm3_isr
    am_rtc_isr
    am_sdio_isr
    am_stimer_cmpr0_isr
    am_stimer_cmpr1_isr
    am_stimer_cmpr2_isr
    am_stimer_cmpr3_isr
    am_stimer_cmpr4_isr
    am_stimer_cmpr5_isr
    am_stimer_cmpr6_isr
    am_stimer_cmpr7_isr
    am_stimerof_isr
    am_timer00_isr
    am_timer01_isr
    am_timer02_isr
    am_timer03_isr
    am_timer04_isr
    am_timer05_isr
    am_timer06_isr
    am_timer07_isr
    am_timer08_isr
    am_timer09_isr
    am_timer10_isr
    am_timer11_isr
    am_timer12_isr
    am_timer13_isr
    am_timer14_isr
    am_timer15_isr
    am_uart1_isr
    am_uart2_isr
    am_uart3_isr
    am_uart_isr
    am_usb_isr
    am_vcomp_isr
    am_watchdog_isr
        0x0001822e:    e7fe        ..      B        am_cryptosec_isr ; 0x1822e
    $d
        0x00018230:    00018235    5...    DCD    98869
    $t
    !!!main
    __main
        0x00018234:    f000f802    ....    BL       __scatterload ; 0x1823c
        0x00018238:    f000f86a    ..j.    BL       __rt_entry ; 0x18310
    !!!scatter
    __scatterload
    __scatterload_rt2
    __scatterload_rt2_thumb_only
        0x0001823c:    a00a        ..      ADR      r0,{pc}+0x2c ; 0x18268
        0x0001823e:    e8900c00    ....    LDM      r0,{r10,r11}
        0x00018242:    4482        .D      ADD      r10,r10,r0
        0x00018244:    4483        .D      ADD      r11,r11,r0
        0x00018246:    f1aa0701    ....    SUB      r7,r10,#1
    __scatterload_null
        0x0001824a:    45da        .E      CMP      r10,r11
        0x0001824c:    d101        ..      BNE      0x18252 ; __scatterload_null + 8
        0x0001824e:    f000f85f    .._.    BL       __rt_entry ; 0x18310
        0x00018252:    f2af0e09    ....    ADR      lr,{pc}-7 ; 0x1824b
        0x00018256:    e8ba000f    ....    LDM      r10!,{r0-r3}
        0x0001825a:    f0130f01    ....    TST      r3,#1
        0x0001825e:    bf18        ..      IT       NE
        0x00018260:    1afb        ..      SUBNE    r3,r7,r3
        0x00018262:    f0430301    C...    ORR      r3,r3,#1
        0x00018266:    4718        .G      BX       r3
    $d
        0x00018268:    0000494c    LI..    DCD    18764
        0x0001826c:    0000497c    |I..    DCD    18812
    $t
    !!dczerorl2
    __decompress
    __decompress1
        0x00018270:    440a        .D      ADD      r2,r2,r1
        0x00018272:    f04f0c00    O...    MOV      r12,#0
        0x00018276:    f8103b01    ...;    LDRB     r3,[r0],#1
        0x0001827a:    f0130407    ....    ANDS     r4,r3,#7
        0x0001827e:    bf08        ..      IT       EQ
        0x00018280:    f8104b01    ...K    LDRBEQ   r4,[r0],#1
        0x00018284:    111d        ..      ASRS     r5,r3,#4
        0x00018286:    bf08        ..      IT       EQ
        0x00018288:    f8105b01    ...[    LDRBEQ   r5,[r0],#1
        0x0001828c:    1e64        d.      SUBS     r4,r4,#1
        0x0001828e:    d005        ..      BEQ      0x1829c ; __decompress + 44
        0x00018290:    f8106b01    ...k    LDRB     r6,[r0],#1
        0x00018294:    1e64        d.      SUBS     r4,r4,#1
        0x00018296:    f8016b01    ...k    STRB     r6,[r1],#1
        0x0001829a:    d1f9        ..      BNE      0x18290 ; __decompress + 32
        0x0001829c:    f0130f08    ....    TST      r3,#8
        0x000182a0:    bf1e        ..      ITTT     NE
        0x000182a2:    f8104b01    ...K    LDRBNE   r4,[r0],#1
        0x000182a6:    1cad        ..      ADDNE    r5,r5,#2
        0x000182a8:    1b0c        ..      SUBNE    r4,r1,r4
        0x000182aa:    d109        ..      BNE      0x182c0 ; __decompress + 80
        0x000182ac:    1e6d        m.      SUBS     r5,r5,#1
        0x000182ae:    bf58        X.      IT       PL
        0x000182b0:    f801cb01    ....    STRBPL   r12,[r1],#1
        0x000182b4:    d5fa        ..      BPL      0x182ac ; __decompress + 60
        0x000182b6:    e005        ..      B        0x182c4 ; __decompress + 84
        0x000182b8:    f8146b01    ...k    LDRB     r6,[r4],#1
        0x000182bc:    f8016b01    ...k    STRB     r6,[r1],#1
        0x000182c0:    1e6d        m.      SUBS     r5,r5,#1
        0x000182c2:    d5f9        ..      BPL      0x182b8 ; __decompress + 72
        0x000182c4:    4291        .B      CMP      r1,r2
        0x000182c6:    d3d6        ..      BCC      0x18276 ; __decompress + 6
        0x000182c8:    4770        pG      BX       lr
        0x000182ca:    0000        ..      MOVS     r0,r0
    !!handler_copy
    __scatterload_copy
        0x000182cc:    3a10        .:      SUBS     r2,r2,#0x10
        0x000182ce:    bf24        $.      ITT      CS
        0x000182d0:    c878        x.      LDMCS    r0!,{r3-r6}
        0x000182d2:    c178        x.      STMCS    r1!,{r3-r6}
        0x000182d4:    d8fa        ..      BHI      __scatterload_copy ; 0x182cc
        0x000182d6:    0752        R.      LSLS     r2,r2,#29
        0x000182d8:    bf24        $.      ITT      CS
        0x000182da:    c830        0.      LDMCS    r0!,{r4,r5}
        0x000182dc:    c130        0.      STMCS    r1!,{r4,r5}
        0x000182de:    bf44        D.      ITT      MI
        0x000182e0:    6804        .h      LDRMI    r4,[r0,#0]
        0x000182e2:    600c        .`      STRMI    r4,[r1,#0]
        0x000182e4:    4770        pG      BX       lr
        0x000182e6:    0000        ..      MOVS     r0,r0
    !!handler_zi
    __scatterload_zeroinit
        0x000182e8:    2300        .#      MOVS     r3,#0
        0x000182ea:    2400        .$      MOVS     r4,#0
        0x000182ec:    2500        .%      MOVS     r5,#0
        0x000182ee:    2600        .&      MOVS     r6,#0
        0x000182f0:    3a10        .:      SUBS     r2,r2,#0x10
        0x000182f2:    bf28        (.      IT       CS
        0x000182f4:    c178        x.      STMCS    r1!,{r3-r6}
        0x000182f6:    d8fb        ..      BHI      0x182f0 ; __scatterload_zeroinit + 8
        0x000182f8:    0752        R.      LSLS     r2,r2,#29
        0x000182fa:    bf28        (.      IT       CS
        0x000182fc:    c130        0.      STMCS    r1!,{r4,r5}
        0x000182fe:    bf48        H.      IT       MI
        0x00018300:    600b        .`      STRMI    r3,[r1,#0]
        0x00018302:    4770        pG      BX       lr
    .ARM.Collect$$libinit$$00000000
    __rt_lib_init
        0x00018304:    b51f        ..      PUSH     {r0-r4,lr}
    .ARM.Collect$$libinit$$00000001
    __rt_lib_init_fp_1
        0x00018306:    f004f9d0    ....    BL       _fp_init ; 0x1c6aa
    .ARM.Collect$$libinit$$00000004
    .ARM.Collect$$libinit$$0000000A
    .ARM.Collect$$libinit$$0000000C
    .ARM.Collect$$libinit$$0000000E
    .ARM.Collect$$libinit$$00000011
    .ARM.Collect$$libinit$$00000013
    .ARM.Collect$$libinit$$00000015
    .ARM.Collect$$libinit$$00000017
    .ARM.Collect$$libinit$$00000019
    .ARM.Collect$$libinit$$0000001B
    .ARM.Collect$$libinit$$0000001D
    .ARM.Collect$$libinit$$0000001F
    .ARM.Collect$$libinit$$00000021
    .ARM.Collect$$libinit$$00000023
    .ARM.Collect$$libinit$$00000025
    .ARM.Collect$$libinit$$0000002C
    .ARM.Collect$$libinit$$0000002E
    .ARM.Collect$$libinit$$00000030
    .ARM.Collect$$libinit$$00000032
    .ARM.Collect$$libinit$$00000033
    __rt_lib_init_alloca_1
    __rt_lib_init_argv_1
    __rt_lib_init_atexit_1
    __rt_lib_init_clock_1
    __rt_lib_init_cpp_1
    __rt_lib_init_exceptions_1
    __rt_lib_init_fp_trap_1
    __rt_lib_init_getenv_1
    __rt_lib_init_heap_1
    __rt_lib_init_lc_collate_1
    __rt_lib_init_lc_ctype_1
    __rt_lib_init_lc_monetary_1
    __rt_lib_init_lc_numeric_1
    __rt_lib_init_lc_time_1
    __rt_lib_init_preinit_1
    __rt_lib_init_rand_1
    __rt_lib_init_return
    __rt_lib_init_signal_1
    __rt_lib_init_stdio_1
    __rt_lib_init_user_alloc_1
        0x0001830a:    bd1f        ..      POP      {r0-r4,pc}
    .ARM.Collect$$libshutdown$$00000000
    __rt_lib_shutdown
        0x0001830c:    b510        ..      PUSH     {r4,lr}
    .ARM.Collect$$libshutdown$$00000002
    .ARM.Collect$$libshutdown$$00000004
    .ARM.Collect$$libshutdown$$00000007
    .ARM.Collect$$libshutdown$$0000000A
    .ARM.Collect$$libshutdown$$0000000C
    .ARM.Collect$$libshutdown$$0000000F
    .ARM.Collect$$libshutdown$$00000010
    __rt_lib_shutdown_cpp_1
    __rt_lib_shutdown_fp_trap_1
    __rt_lib_shutdown_heap_1
    __rt_lib_shutdown_return
    __rt_lib_shutdown_signal_1
    __rt_lib_shutdown_stdio_1
    __rt_lib_shutdown_user_alloc_1
        0x0001830e:    bd10        ..      POP      {r4,pc}
    .ARM.Collect$$rtentry$$00000000
    .ARM.Collect$$rtentry$$00000002
    .ARM.Collect$$rtentry$$00000004
    __rt_entry
    __rt_entry_presh_1
    __rt_entry_sh
        0x00018310:    f000f872    ..r.    BL       __user_setup_stackheap ; 0x183f8
        0x00018314:    4611        .F      MOV      r1,r2
    .ARM.Collect$$rtentry$$00000009
    .ARM.Collect$$rtentry$$0000000A
    __rt_entry_li
    __rt_entry_postsh_1
        0x00018316:    f7fffff5    ....    BL       __rt_lib_init ; 0x18304
    .ARM.Collect$$rtentry$$0000000C
    .ARM.Collect$$rtentry$$0000000D
    __rt_entry_main
    __rt_entry_postli_1
        0x0001831a:    f002fc09    ....    BL       main ; 0x1ab30
        0x0001831e:    f000f890    ....    BL       exit ; 0x18442
    .ARM.Collect$$rtexit$$00000000
    __rt_exit
        0x00018322:    b403        ..      PUSH     {r0,r1}
    .ARM.Collect$$rtexit$$00000002
    .ARM.Collect$$rtexit$$00000003
    __rt_exit_ls
    __rt_exit_prels_1
        0x00018324:    f7fffff2    ....    BL       __rt_lib_shutdown ; 0x1830c
    .ARM.Collect$$rtexit$$00000004
    __rt_exit_exit
        0x00018328:    bc03        ..      POP      {r0,r1}
        0x0001832a:    f000f897    ....    BL       _sys_exit ; 0x1845c
        0x0001832e:    0000        ..      MOVS     r0,r0
    .emb_text
    $v0
    am_hal_interrupt_master_enable
        0x00018330:    f3ef8010    ....    MRS      r0,PRIMASK
        0x00018334:    b662        b.      CPSIE    i
        0x00018336:    4770        pG      BX       lr
    am_hal_interrupt_master_disable
        0x00018338:    f3ef8010    ....    MRS      r0,PRIMASK
        0x0001833c:    b672        r.      CPSID    i
        0x0001833e:    4770        pG      BX       lr
    am_hal_interrupt_master_set
        0x00018340:    f3808810    ....    MSR      PRIMASK,r0
        0x00018344:    4770        pG      BX       lr
        0x00018346:    0000        ..      MOVS     r0,r0
    .text
    $v0
    __user_initial_stackheap
        0x00018348:    4802        .H      LDR      r0,[pc,#8] ; [0x18354] = 0x10000868
        0x0001834a:    4903        .I      LDR      r1,[pc,#12] ; [0x18358] = 0x10001468
        0x0001834c:    4a01        .J      LDR      r2,[pc,#4] ; [0x18354] = 0x10000868
        0x0001834e:    4b03        .K      LDR      r3,[pc,#12] ; [0x1835c] = 0x10000868
        0x00018350:    4770        pG      BX       lr
    $d
        0x00018352:    0000        ..      DCW    0
        0x00018354:    10000868    h...    DCD    268437608
        0x00018358:    10001468    h...    DCD    268440680
        0x0001835c:    10000868    h...    DCD    268437608
    $t
    .text
    __aeabi_memclr
    __rt_memclr
        0x00018360:    f04f0200    O...    MOV      r2,#0
    _memset
        0x00018364:    2904        .)      CMP      r1,#4
        0x00018366:    f0c08012    ....    BCC.W    0x1838e ; _memset + 42
        0x0001836a:    f0100c03    ....    ANDS     r12,r0,#3
        0x0001836e:    f000801e    ....    BEQ.W    _memset_w ; 0x183ae
        0x00018372:    f1cc0c04    ....    RSB      r12,r12,#4
        0x00018376:    f1bc0f02    ....    CMP      r12,#2
        0x0001837a:    bf18        ..      IT       NE
        0x0001837c:    f8002b01    ...+    STRBNE   r2,[r0],#1
        0x00018380:    bfa8        ..      IT       GE
        0x00018382:    f8202b02     ..+    STRHGE   r2,[r0],#2
        0x00018386:    eba1010c    ....    SUB      r1,r1,r12
        0x0001838a:    f000b810    ....    B.W      _memset_w ; 0x183ae
        0x0001838e:    ea5f7cc1    _..|    LSLS     r12,r1,#31
        0x00018392:    bf24        $.      ITT      CS
        0x00018394:    f8002b01    ...+    STRBCS   r2,[r0],#1
        0x00018398:    f8002b01    ...+    STRBCS   r2,[r0],#1
        0x0001839c:    bf48        H.      IT       MI
        0x0001839e:    f8002b01    ...+    STRBMI   r2,[r0],#1
        0x000183a2:    4770        pG      BX       lr
    .text
    __use_two_region_memory
        0x000183a4:    4770        pG      BX       lr
    __rt_heap_escrow$2region
        0x000183a6:    4770        pG      BX       lr
    __rt_heap_expand$2region
        0x000183a8:    4770        pG      BX       lr
    .text
    __aeabi_memclr4
    __aeabi_memclr8
    __rt_memclr_w
        0x000183aa:    f04f0200    O...    MOV      r2,#0
    _memset_w
        0x000183ae:    b500        ..      PUSH     {lr}
        0x000183b0:    4613        .F      MOV      r3,r2
        0x000183b2:    4694        .F      MOV      r12,r2
        0x000183b4:    4696        .F      MOV      lr,r2
        0x000183b6:    3920         9      SUBS     r1,r1,#0x20
        0x000183b8:    bf22        ".      ITTT     CS
        0x000183ba:    e8a0500c    ...P    STMCS    r0!,{r2,r3,r12,lr}
        0x000183be:    e8a0500c    ...P    STMCS    r0!,{r2,r3,r12,lr}
        0x000183c2:    f1b10120    .. .    SUBSCS   r1,r1,#0x20
        0x000183c6:    f4bfaff7    ....    BCS.W    0x183b8 ; _memset_w + 10
        0x000183ca:    0709        ..      LSLS     r1,r1,#28
        0x000183cc:    bf28        (.      IT       CS
        0x000183ce:    e8a0500c    ...P    STMCS    r0!,{r2,r3,r12,lr}
        0x000183d2:    bf48        H.      IT       MI
        0x000183d4:    c00c        ..      STMMI    r0!,{r2,r3}
        0x000183d6:    f85deb04    ]...    POP      {lr}
        0x000183da:    0089        ..      LSLS     r1,r1,#2
        0x000183dc:    bf28        (.      IT       CS
        0x000183de:    f8402b04    @..+    STRCS    r2,[r0],#4
        0x000183e2:    bf08        ..      IT       EQ
        0x000183e4:    4770        pG      BXEQ     lr
        0x000183e6:    bf48        H.      IT       MI
        0x000183e8:    f8202b02     ..+    STRHMI   r2,[r0],#2
        0x000183ec:    f0114f80    ...O    TST      r1,#0x40000000
        0x000183f0:    bf18        ..      IT       NE
        0x000183f2:    f8002b01    ...+    STRBNE   r2,[r0],#1
        0x000183f6:    4770        pG      BX       lr
    .text
    __user_setup_stackheap
        0x000183f8:    4675        uF      MOV      r5,lr
        0x000183fa:    f000f82b    ..+.    BL       __user_libspace ; 0x18454
        0x000183fe:    46ae        .F      MOV      lr,r5
        0x00018400:    0005        ..      MOVS     r5,r0
        0x00018402:    4669        iF      MOV      r1,sp
        0x00018404:    4653        SF      MOV      r3,r10
        0x00018406:    f0200007     ...    BIC      r0,r0,#7
        0x0001840a:    4685        .F      MOV      sp,r0
        0x0001840c:    b018        ..      ADD      sp,sp,#0x60
        0x0001840e:    b520         .      PUSH     {r5,lr}
        0x00018410:    f7ffff9a    ....    BL       __user_initial_stackheap ; 0x18348
        0x00018414:    e8bd4020    .. @    POP      {r5,lr}
        0x00018418:    f04f0600    O...    MOV      r6,#0
        0x0001841c:    f04f0700    O...    MOV      r7,#0
        0x00018420:    f04f0800    O...    MOV      r8,#0
        0x00018424:    f04f0b00    O...    MOV      r11,#0
        0x00018428:    f0210107    !...    BIC      r1,r1,#7
        0x0001842c:    46ac        .F      MOV      r12,r5
        0x0001842e:    e8ac09c0    ....    STM      r12!,{r6-r8,r11}
        0x00018432:    e8ac09c0    ....    STM      r12!,{r6-r8,r11}
        0x00018436:    e8ac09c0    ....    STM      r12!,{r6-r8,r11}
        0x0001843a:    e8ac09c0    ....    STM      r12!,{r6-r8,r11}
        0x0001843e:    468d        .F      MOV      sp,r1
        0x00018440:    4770        pG      BX       lr
    .text
    exit
        0x00018442:    b510        ..      PUSH     {r4,lr}
        0x00018444:    4604        .F      MOV      r4,r0
        0x00018446:    f3af8000    ....    NOP.W    
        0x0001844a:    4620         F      MOV      r0,r4
        0x0001844c:    e8bd4010    ...@    POP      {r4,lr}
        0x00018450:    f7ffbf67    ..g.    B.W      __rt_exit ; 0x18322
    .text
    __user_libspace
    __user_perproc_libspace
    __user_perthread_libspace
        0x00018454:    4800        .H      LDR      r0,[pc,#0] ; [0x18458] = 0x10000808
        0x00018456:    4770        pG      BX       lr
    $d
        0x00018458:    10000808    ....    DCD    268437512
    $t
    .text
    _sys_exit
        0x0001845c:    4901        .I      LDR      r1,[pc,#4] ; [0x18464] = 0x20026
        0x0001845e:    2018        .       MOVS     r0,#0x18
        0x00018460:    beab        ..      BKPT     #0xab
        0x00018462:    e7fe        ..      B        0x18462 ; _sys_exit + 6
    $d
        0x00018464:    00020026    &...    DCD    131110
    $t
    .text
    __I$use$semihosting
    __use_no_semihosting_swi
        0x00018468:    4770        pG      BX       lr
    .text
    __semihosting_library_function
        0x0001846a:    0000        ..      MOVS     r0,r0
    i.SysTick_Handler
    SysTick_Handler
        0x0001846c:    4802        .H      LDR      r0,[pc,#8] ; [0x18478] = 0x10000000
        0x0001846e:    6801        .h      LDR      r1,[r0,#0]
        0x00018470:    1c49        I.      ADDS     r1,r1,#1
        0x00018472:    6001        .`      STR      r1,[r0,#0]
        0x00018474:    4770        pG      BX       lr
    $d
        0x00018476:    0000        ..      DCW    0
        0x00018478:    10000000    ....    DCD    268435456
    $t
    i.__ARM_common_memcpy4_5
    __ARM_common_memcpy4_5
        0x0001847c:    680a        .h      LDR      r2,[r1,#0]
        0x0001847e:    6002        .`      STR      r2,[r0,#0]
        0x00018480:    790b        .y      LDRB     r3,[r1,#4]
        0x00018482:    7103        .q      STRB     r3,[r0,#4]
        0x00018484:    4770        pG      BX       lr
    i.am_bsp_low_power_init
    am_bsp_low_power_init
        0x00018486:    b510        ..      PUSH     {r4,lr}
        0x00018488:    f000fba8    ....    BL       am_hal_pwrctrl_low_power_init ; 0x18bdc
        0x0001848c:    2100        .!      MOVS     r1,#0
        0x0001848e:    4608        .F      MOV      r0,r1
        0x00018490:    f000fa90    ....    BL       am_hal_pwrctrl_control ; 0x189b4
        0x00018494:    e8bd4010    ...@    POP      {r4,lr}
        0x00018498:    f000be98    ....    B.W      am_hal_rtc_osc_disable ; 0x191cc
    i.am_bsp_uart_printf_disable
    am_bsp_uart_printf_disable
        0x0001849c:    b538        8.      PUSH     {r3-r5,lr}
        0x0001849e:    4c10        .L      LDR      r4,[pc,#64] ; [0x184e0] = 0x100000bc
        0x000184a0:    7820         x      LDRB     r0,[r4,#0]
        0x000184a2:    2802        .(      CMP      r0,#2
        0x000184a4:    bf18        ..      IT       NE
        0x000184a6:    bd38        8.      POPNE    {r3-r5,pc}
        0x000184a8:    6860        `h      LDR      r0,[r4,#4]
        0x000184aa:    f001f9b3    ....    BL       am_hal_uart_tx_flush ; 0x19814
        0x000184ae:    2000        .       MOVS     r0,#0
        0x000184b0:    f001fa6e    ..n.    BL       am_util_stdio_printf_init ; 0x19990
        0x000184b4:    2200        ."      MOVS     r2,#0
        0x000184b6:    2102        .!      MOVS     r1,#2
        0x000184b8:    6860        `h      LDR      r0,[r4,#4]
        0x000184ba:    f000fff9    ....    BL       am_hal_uart_power_control ; 0x194b0
        0x000184be:    6860        `h      LDR      r0,[r4,#4]
        0x000184c0:    f000ff9e    ....    BL       am_hal_uart_deinitialize ; 0x19400
        0x000184c4:    4d07        .M      LDR      r5,[pc,#28] ; [0x184e4] = 0x1c76c
        0x000184c6:    6829        )h      LDR      r1,[r5,#0]
        0x000184c8:    9100        ..      STR      r1,[sp,#0]
        0x000184ca:    200c        .       MOVS     r0,#0xc
        0x000184cc:    f000f9d6    ....    BL       am_hal_gpio_pinconfig ; 0x1887c
        0x000184d0:    6829        )h      LDR      r1,[r5,#0]
        0x000184d2:    9100        ..      STR      r1,[sp,#0]
        0x000184d4:    202f        /       MOVS     r0,#0x2f
        0x000184d6:    f000f9d1    ....    BL       am_hal_gpio_pinconfig ; 0x1887c
        0x000184da:    2000        .       MOVS     r0,#0
        0x000184dc:    7020         p      STRB     r0,[r4,#0]
        0x000184de:    bd38        8.      POP      {r3-r5,pc}
    $d
        0x000184e0:    100000bc    ....    DCD    268435644
        0x000184e4:    0001c76c    l...    DCD    116588
    $t
    i.am_bsp_uart_printf_enable
    am_bsp_uart_printf_enable
        0x000184e8:    b538        8.      PUSH     {r3-r5,lr}
        0x000184ea:    4914        .I      LDR      r1,[pc,#80] ; [0x1853c] = 0x100000c0
        0x000184ec:    2000        .       MOVS     r0,#0
        0x000184ee:    f000ff9f    ....    BL       am_hal_uart_initialize ; 0x19430
        0x000184f2:    b9c8        ..      CBNZ     r0,0x18528 ; am_bsp_uart_printf_enable + 64
        0x000184f4:    4c12        .L      LDR      r4,[pc,#72] ; [0x18540] = 0x100000bc
        0x000184f6:    2200        ."      MOVS     r2,#0
        0x000184f8:    4611        .F      MOV      r1,r2
        0x000184fa:    6860        `h      LDR      r0,[r4,#4]
        0x000184fc:    f000ffd8    ....    BL       am_hal_uart_power_control ; 0x194b0
        0x00018500:    b990        ..      CBNZ     r0,0x18528 ; am_bsp_uart_printf_enable + 64
        0x00018502:    4910        .I      LDR      r1,[pc,#64] ; [0x18544] = 0x1c734
        0x00018504:    6860        `h      LDR      r0,[r4,#4]
        0x00018506:    f000feaf    ....    BL       am_hal_uart_configure ; 0x19268
        0x0001850a:    b968        h.      CBNZ     r0,0x18528 ; am_bsp_uart_printf_enable + 64
        0x0001850c:    480e        .H      LDR      r0,[pc,#56] ; [0x18548] = 0x10000118
        0x0001850e:    6801        .h      LDR      r1,[r0,#0]
        0x00018510:    9100        ..      STR      r1,[sp,#0]
        0x00018512:    200c        .       MOVS     r0,#0xc
        0x00018514:    f000f9b2    ....    BL       am_hal_gpio_pinconfig ; 0x1887c
        0x00018518:    b930        0.      CBNZ     r0,0x18528 ; am_bsp_uart_printf_enable + 64
        0x0001851a:    480c        .H      LDR      r0,[pc,#48] ; [0x1854c] = 0x1000011c
        0x0001851c:    6801        .h      LDR      r1,[r0,#0]
        0x0001851e:    9100        ..      STR      r1,[sp,#0]
        0x00018520:    202f        /       MOVS     r0,#0x2f
        0x00018522:    f000f9ab    ....    BL       am_hal_gpio_pinconfig ; 0x1887c
        0x00018526:    b110        ..      CBZ      r0,0x1852e ; am_bsp_uart_printf_enable + 70
        0x00018528:    f04f30ff    O..0    MOV      r0,#0xffffffff
        0x0001852c:    bd38        8.      POP      {r3-r5,pc}
        0x0001852e:    2002        .       MOVS     r0,#2
        0x00018530:    7020         p      STRB     r0,[r4,#0]
        0x00018532:    4807        .H      LDR      r0,[pc,#28] ; [0x18550] = 0x18555
        0x00018534:    f001fa2c    ..,.    BL       am_util_stdio_printf_init ; 0x19990
        0x00018538:    2000        .       MOVS     r0,#0
        0x0001853a:    bd38        8.      POP      {r3-r5,pc}
    $d
        0x0001853c:    100000c0    ....    DCD    268435648
        0x00018540:    100000bc    ....    DCD    268435644
        0x00018544:    0001c734    4...    DCD    116532
        0x00018548:    10000118    ....    DCD    268435736
        0x0001854c:    1000011c    ....    DCD    268435740
        0x00018550:    00018555    U...    DCD    99669
    $t
    i.am_bsp_uart_string_print
    am_bsp_uart_string_print
        0x00018554:    b530        0.      PUSH     {r4,r5,lr}
        0x00018556:    b08b        ..      SUB      sp,sp,#0x2c
        0x00018558:    2400        .$      MOVS     r4,#0
        0x0001855a:    9401        ..      STR      r4,[sp,#4]
        0x0001855c:    7801        .x      LDRB     r1,[r0,#0]
        0x0001855e:    b119        ..      CBZ      r1,0x18568 ; am_bsp_uart_string_print + 20
        0x00018560:    1c64        d.      ADDS     r4,r4,#1
        0x00018562:    5d01        .]      LDRB     r1,[r0,r4]
        0x00018564:    2900        .)      CMP      r1,#0
        0x00018566:    d1fb        ..      BNE      0x18560 ; am_bsp_uart_string_print + 12
        0x00018568:    490b        .I      LDR      r1,[pc,#44] ; [0x18598] = 0x1c734
        0x0001856a:    68ca        .h      LDR      r2,[r1,#0xc]
        0x0001856c:    311c        .1      ADDS     r1,r1,#0x1c
        0x0001856e:    e891102a    ..*.    LDM      r1,{r1,r3,r5,r12}
        0x00018572:    e9cd2002    ...     STRD     r2,r0,[sp,#8]
        0x00018576:    aa05        ..      ADD      r2,sp,#0x14
        0x00018578:    9404        ..      STR      r4,[sp,#0x10]
        0x0001857a:    a801        ..      ADD      r0,sp,#4
        0x0001857c:    e882102b    ..+.    STM      r2,{r0,r1,r3,r5,r12}
        0x00018580:    4806        .H      LDR      r0,[pc,#24] ; [0x1859c] = 0x100000bc
        0x00018582:    a902        ..      ADD      r1,sp,#8
        0x00018584:    6840        @h      LDR      r0,[r0,#4]
        0x00018586:    f001f807    ....    BL       am_hal_uart_transfer ; 0x19598
        0x0001858a:    9801        ..      LDR      r0,[sp,#4]
        0x0001858c:    42a0        .B      CMP      r0,r4
        0x0001858e:    bf04        ..      ITT      EQ
        0x00018590:    b00b        ..      ADDEQ    sp,sp,#0x2c
        0x00018592:    bd30        0.      POPEQ    {r4,r5,pc}
        0x00018594:    e7fe        ..      B        0x18594 ; am_bsp_uart_string_print + 64
    $d
        0x00018596:    0000        ..      DCW    0
        0x00018598:    0001c734    4...    DCD    116532
        0x0001859c:    100000bc    ....    DCD    268435644
    $t
    i.am_devices_led_array_init
    am_devices_led_array_init
        0x000185a0:    2800        .(      CMP      r0,#0
        0x000185a2:    bf08        ..      IT       EQ
        0x000185a4:    4770        pG      BXEQ     lr
        0x000185a6:    291f        .)      CMP      r1,#0x1f
        0x000185a8:    bf88        ..      IT       HI
        0x000185aa:    4770        pG      BXHI     lr
        0x000185ac:    e92d4ff8    -..O    PUSH     {r3-r11,lr}
        0x000185b0:    000e        ..      MOVS     r6,r1
        0x000185b2:    4607        .F      MOV      r7,r0
        0x000185b4:    f04f0500    O...    MOV      r5,#0
        0x000185b8:    bf08        ..      IT       EQ
        0x000185ba:    e8bd8ff8    ....    POPEQ    {r3-r11,pc}
        0x000185be:    f8df8090    ....    LDR      r8,[pc,#144] ; [0x18650] = 0x1c760
        0x000185c2:    f8df9090    ....    LDR      r9,[pc,#144] ; [0x18654] = 0x1c768
        0x000185c6:    f8dfa090    ....    LDR      r10,[pc,#144] ; [0x18658] = 0x1c764
        0x000185ca:    bf00        ..      NOP      
        0x000185cc:    eb1704c5    ....    ADDS     r4,r7,r5,LSL #3
        0x000185d0:    d038        8.      BEQ      0x18644 ; am_devices_led_array_init + 164
        0x000185d2:    6820         h      LDR      r0,[r4,#0]
        0x000185d4:    2880        .(      CMP      r0,#0x80
        0x000185d6:    d235        5.      BCS      0x18644 ; am_devices_led_array_init + 164
        0x000185d8:    6861        ah      LDR      r1,[r4,#4]
        0x000185da:    f0110f02    ....    TST      r1,#2
        0x000185de:    d00f        ..      BEQ      0x18600 ; am_devices_led_array_init + 96
        0x000185e0:    f8d81000    ....    LDR      r1,[r8,#0]
        0x000185e4:    9100        ..      STR      r1,[sp,#0]
        0x000185e6:    f000f949    ..I.    BL       am_hal_gpio_pinconfig ; 0x1887c
        0x000185ea:    2103        .!      MOVS     r1,#3
        0x000185ec:    6820         h      LDR      r0,[r4,#0]
        0x000185ee:    f000f96f    ..o.    BL       am_hal_gpio_state_write ; 0x188d0
        0x000185f2:    7920         y      LDRB     r0,[r4,#4]
        0x000185f4:    f0000101    ....    AND      r1,r0,#1
        0x000185f8:    6820         h      LDR      r0,[r4,#0]
        0x000185fa:    f000f969    ..i.    BL       am_hal_gpio_state_write ; 0x188d0
        0x000185fe:    e021        !.      B        0x18644 ; am_devices_led_array_init + 164
        0x00018600:    f0110f04    ....    TST      r1,#4
        0x00018604:    d00f        ..      BEQ      0x18626 ; am_devices_led_array_init + 134
        0x00018606:    f8d91000    ....    LDR      r1,[r9,#0]
        0x0001860a:    9100        ..      STR      r1,[sp,#0]
        0x0001860c:    f000f936    ..6.    BL       am_hal_gpio_pinconfig ; 0x1887c
        0x00018610:    2103        .!      MOVS     r1,#3
        0x00018612:    6820         h      LDR      r0,[r4,#0]
        0x00018614:    f000f95c    ..\.    BL       am_hal_gpio_state_write ; 0x188d0
        0x00018618:    7920         y      LDRB     r0,[r4,#4]
        0x0001861a:    f0000101    ....    AND      r1,r0,#1
        0x0001861e:    6820         h      LDR      r0,[r4,#0]
        0x00018620:    f000f956    ..V.    BL       am_hal_gpio_state_write ; 0x188d0
        0x00018624:    e00e        ..      B        0x18644 ; am_devices_led_array_init + 164
        0x00018626:    f8da1000    ....    LDR      r1,[r10,#0]
        0x0001862a:    9100        ..      STR      r1,[sp,#0]
        0x0001862c:    f000f926    ..&.    BL       am_hal_gpio_pinconfig ; 0x1887c
        0x00018630:    2103        .!      MOVS     r1,#3
        0x00018632:    6820         h      LDR      r0,[r4,#0]
        0x00018634:    f000f94c    ..L.    BL       am_hal_gpio_state_write ; 0x188d0
        0x00018638:    7920         y      LDRB     r0,[r4,#4]
        0x0001863a:    f0000101    ....    AND      r1,r0,#1
        0x0001863e:    6820         h      LDR      r0,[r4,#0]
        0x00018640:    f000f946    ..F.    BL       am_hal_gpio_state_write ; 0x188d0
        0x00018644:    1c6d        m.      ADDS     r5,r5,#1
        0x00018646:    42b5        .B      CMP      r5,r6
        0x00018648:    d3c0        ..      BCC      0x185cc ; am_devices_led_array_init + 44
        0x0001864a:    e8bd8ff8    ....    POP      {r3-r11,pc}
    $d
        0x0001864e:    0000        ..      DCW    0
        0x00018650:    0001c760    `...    DCD    116576
        0x00018654:    0001c768    h...    DCD    116584
        0x00018658:    0001c764    d...    DCD    116580
    $t
    i.am_devices_led_array_out
    am_devices_led_array_out
        0x0001865c:    e92d41f0    -..A    PUSH     {r4-r8,lr}
        0x00018660:    4690        .F      MOV      r8,r2
        0x00018662:    000f        ..      MOVS     r7,r1
        0x00018664:    4605        .F      MOV      r5,r0
        0x00018666:    f04f0400    O...    MOV      r4,#0
        0x0001866a:    bf14        ..      ITE      NE
        0x0001866c:    2601        .&      MOVNE    r6,#1
        0x0001866e:    e8bd81f0    ....    POPEQ    {r4-r8,pc}
        0x00018672:    bf00        ..      NOP      
        0x00018674:    fa06f004    ....    LSL      r0,r6,r4
        0x00018678:    ea100f08    ....    TST      r0,r8
        0x0001867c:    d01c        ..      BEQ      0x186b8 ; am_devices_led_array_out + 92
        0x0001867e:    2d00        .-      CMP      r5,#0
        0x00018680:    bf18        ..      IT       NE
        0x00018682:    2c1f        .,      CMPNE    r4,#0x1f
        0x00018684:    bf3c        <.      ITT      CC
        0x00018686:    f8552034    U.4     LDRCC    r2,[r5,r4,LSL #3]
        0x0001868a:    2a80        .*      CMPCC    r2,#0x80
        0x0001868c:    d230        0.      BCS      0x186f0 ; am_devices_led_array_out + 148
        0x0001868e:    eb0500c4    ....    ADD      r0,r5,r4,LSL #3
        0x00018692:    6840        @h      LDR      r0,[r0,#4]
        0x00018694:    f0100f02    ....    TST      r0,#2
        0x00018698:    bf04        ..      ITT      EQ
        0x0001869a:    7929        )y      LDRBEQ   r1,[r5,#4]
        0x0001869c:    f0110f04    ....    TSTEQ    r1,#4
        0x000186a0:    d005        ..      BEQ      0x186ae ; am_devices_led_array_out + 82
        0x000186a2:    f0000101    ....    AND      r1,r0,#1
        0x000186a6:    4610        .F      MOV      r0,r2
        0x000186a8:    f000f912    ....    BL       am_hal_gpio_state_write ; 0x188d0
        0x000186ac:    e020         .      B        0x186f0 ; am_devices_led_array_out + 148
        0x000186ae:    2104        .!      MOVS     r1,#4
        0x000186b0:    4610        .F      MOV      r0,r2
        0x000186b2:    f000f90d    ....    BL       am_hal_gpio_state_write ; 0x188d0
        0x000186b6:    e01b        ..      B        0x186f0 ; am_devices_led_array_out + 148
        0x000186b8:    2d00        .-      CMP      r5,#0
        0x000186ba:    bf18        ..      IT       NE
        0x000186bc:    2c1f        .,      CMPNE    r4,#0x1f
        0x000186be:    bf3c        <.      ITT      CC
        0x000186c0:    f8552034    U.4     LDRCC    r2,[r5,r4,LSL #3]
        0x000186c4:    2a80        .*      CMPCC    r2,#0x80
        0x000186c6:    d213        ..      BCS      0x186f0 ; am_devices_led_array_out + 148
        0x000186c8:    eb0500c4    ....    ADD      r0,r5,r4,LSL #3
        0x000186cc:    6840        @h      LDR      r0,[r0,#4]
        0x000186ce:    f0100f02    ....    TST      r0,#2
        0x000186d2:    bf04        ..      ITT      EQ
        0x000186d4:    7929        )y      LDRBEQ   r1,[r5,#4]
        0x000186d6:    f0110f04    ....    TSTEQ    r1,#4
        0x000186da:    d005        ..      BEQ      0x186e8 ; am_devices_led_array_out + 140
        0x000186dc:    ea260100    &...    BIC      r1,r6,r0
        0x000186e0:    4610        .F      MOV      r0,r2
        0x000186e2:    f000f8f5    ....    BL       am_hal_gpio_state_write ; 0x188d0
        0x000186e6:    e003        ..      B        0x186f0 ; am_devices_led_array_out + 148
        0x000186e8:    2103        .!      MOVS     r1,#3
        0x000186ea:    4610        .F      MOV      r0,r2
        0x000186ec:    f000f8f0    ....    BL       am_hal_gpio_state_write ; 0x188d0
        0x000186f0:    1c64        d.      ADDS     r4,r4,#1
        0x000186f2:    42bc        .B      CMP      r4,r7
        0x000186f4:    d3be        ..      BCC      0x18674 ; am_devices_led_array_out + 24
        0x000186f6:    e8bd81f0    ....    POP      {r4-r8,pc}
        0x000186fa:    0000        ..      MOVS     r0,r0
    i.am_hal_daxi_config
    am_hal_daxi_config
        0x000186fc:    b570        p.      PUSH     {r4-r6,lr}
        0x000186fe:    b082        ..      SUB      sp,sp,#8
        0x00018700:    4605        .F      MOV      r5,r0
        0x00018702:    f7fffe19    ....    BL       am_hal_interrupt_master_disable ; 0x18338
        0x00018706:    9000        ..      STR      r0,[sp,#0]
        0x00018708:    f7fffe16    ....    BL       am_hal_interrupt_master_disable ; 0x18338
        0x0001870c:    f04f4490    O..D    MOV      r4,#0x48000000
        0x00018710:    9001        ..      STR      r0,[sp,#4]
        0x00018712:    6d20         m      LDR      r0,[r4,#0x50]
        0x00018714:    4e1d        .N      LDR      r6,[pc,#116] ; [0x1878c] = 0x47ff0000
        0x00018716:    f0100f04    ....    TST      r0,#4
        0x0001871a:    d10b        ..      BNE      0x18734 ; am_hal_daxi_config + 56
        0x0001871c:    f3bf8f4f    ..O.    DSB      
        0x00018720:    6d60        `m      LDR      r0,[r4,#0x54]
        0x00018722:    f0400001    @...    ORR      r0,r0,#1
        0x00018726:    6560        `e      STR      r0,[r4,#0x54]
        0x00018728:    6830        0h      LDR      r0,[r6,#0]
        0x0001872a:    6d60        `m      LDR      r0,[r4,#0x54]
        0x0001872c:    f0400002    @...    ORR      r0,r0,#2
        0x00018730:    6560        `e      STR      r0,[r4,#0x54]
        0x00018732:    6830        0h      LDR      r0,[r6,#0]
        0x00018734:    6d60        `m      LDR      r0,[r4,#0x54]
        0x00018736:    f0100f04    ....    TST      r0,#4
        0x0001873a:    d0fb        ..      BEQ      0x18734 ; am_hal_daxi_config + 56
        0x0001873c:    9801        ..      LDR      r0,[sp,#4]
        0x0001873e:    f7fffdff    ....    BL       am_hal_interrupt_master_set ; 0x18340
        0x00018742:    2d00        .-      CMP      r5,#0
        0x00018744:    bf04        ..      ITT      EQ
        0x00018746:    2006        .       MOVEQ    r0,#6
        0x00018748:    6520         e      STREQ    r0,[r4,#0x50]
        0x0001874a:    d018        ..      BEQ      0x1877e ; am_hal_daxi_config + 130
        0x0001874c:    7928        (y      LDRB     r0,[r5,#4]
        0x0001874e:    7869        ix      LDRB     r1,[r5,#1]
        0x00018750:    2202        ."      MOVS     r2,#2
        0x00018752:    f0000001    ....    AND      r0,r0,#1
        0x00018756:    ea020141    ..A.    AND      r1,r2,r1,LSL #1
        0x0001875a:    4308        .C      ORRS     r0,r0,r1
        0x0001875c:    78e9        .x      LDRB     r1,[r5,#3]
        0x0001875e:    f44f6270    O.pb    MOV      r2,#0xf00
        0x00018762:    ea022101    ...!    AND      r1,r2,r1,LSL #8
        0x00018766:    4308        .C      ORRS     r0,r0,r1
        0x00018768:    78a9        .x      LDRB     r1,[r5,#2]
        0x0001876a:    f44f12f8    O...    MOV      r2,#0x1f0000
        0x0001876e:    ea024101    ...A    AND      r1,r2,r1,LSL #16
        0x00018772:    4308        .C      ORRS     r0,r0,r1
        0x00018774:    6520         e      STR      r0,[r4,#0x50]
        0x00018776:    4629        )F      MOV      r1,r5
        0x00018778:    4805        .H      LDR      r0,[pc,#20] ; [0x18790] = 0x10000120
        0x0001877a:    f7fffe7f    ....    BL       __ARM_common_memcpy4_5 ; 0x1847c
        0x0001877e:    6830        0h      LDR      r0,[r6,#0]
        0x00018780:    9800        ..      LDR      r0,[sp,#0]
        0x00018782:    f7fffddd    ....    BL       am_hal_interrupt_master_set ; 0x18340
        0x00018786:    b002        ..      ADD      sp,sp,#8
        0x00018788:    2000        .       MOVS     r0,#0
        0x0001878a:    bd70        p.      POP      {r4-r6,pc}
    $d
        0x0001878c:    47ff0000    ...G    DCD    1207894016
        0x00018790:    10000120     ...    DCD    268435744
    $t
    i.am_hal_delay_us
    am_hal_delay_us
        0x00018794:    4908        .I      LDR      r1,[pc,#32] ; [0x187b8] = 0x40021000
        0x00018796:    0140        @.      LSLS     r0,r0,#5
        0x00018798:    6809        .h      LDR      r1,[r1,#0]
        0x0001879a:    f3c101c1    ....    UBFX     r1,r1,#3,#2
        0x0001879e:    2902        .)      CMP      r1,#2
        0x000187a0:    bf06        ..      ITTE     EQ
        0x000187a2:    0040        @.      LSLEQ    r0,r0,#1
        0x000187a4:    2115        .!      MOVEQ    r1,#0x15
        0x000187a6:    210f        .!      MOVNE    r1,#0xf
        0x000187a8:    4288        .B      CMP      r0,r1
        0x000187aa:    bf98        ..      IT       LS
        0x000187ac:    4770        pG      BXLS     lr
        0x000187ae:    1a40        @.      SUBS     r0,r0,r1
        0x000187b0:    4902        .I      LDR      r1,[pc,#8] ; [0x187bc] = 0x1ca24
        0x000187b2:    6a49        Ij      LDR      r1,[r1,#0x24]
        0x000187b4:    4708        .G      BX       r1
    $d
        0x000187b6:    0000        ..      DCW    0
        0x000187b8:    40021000    ...@    DCD    1073876992
        0x000187bc:    0001ca24    $...    DCD    117284
    $t
    i.am_hal_delay_us_status_change
    am_hal_delay_us_status_change
        0x000187c0:    e92d47f0    -..G    PUSH     {r4-r10,lr}
        0x000187c4:    f8df8048    ..H.    LDR      r8,[pc,#72] ; [0x18810] = 0x40021000
        0x000187c8:    f8df9048    ..H.    LDR      r9,[pc,#72] ; [0x18814] = 0x1ca24
        0x000187cc:    461d        .F      MOV      r5,r3
        0x000187ce:    4616        .F      MOV      r6,r2
        0x000187d0:    460f        .F      MOV      r7,r1
        0x000187d2:    4604        .F      MOV      r4,r0
        0x000187d4:    6838        8h      LDR      r0,[r7,#0]
        0x000187d6:    4030        0@      ANDS     r0,r0,r6
        0x000187d8:    42a8        .B      CMP      r0,r5
        0x000187da:    d102        ..      BNE      0x187e2 ; am_hal_delay_us_status_change + 34
        0x000187dc:    2000        .       MOVS     r0,#0
        0x000187de:    e8bd87f0    ....    POP      {r4-r10,pc}
        0x000187e2:    1e64        d.      SUBS     r4,r4,#1
        0x000187e4:    d311        ..      BCC      0x1880a ; am_hal_delay_us_status_change + 74
        0x000187e6:    f8d81000    ....    LDR      r1,[r8,#0]
        0x000187ea:    2020                MOVS     r0,#0x20
        0x000187ec:    f3c101c1    ....    UBFX     r1,r1,#3,#2
        0x000187f0:    2902        .)      CMP      r1,#2
        0x000187f2:    bf06        ..      ITTE     EQ
        0x000187f4:    2040        @       MOVEQ    r0,#0x40
        0x000187f6:    f04f0c15    O...    MOVEQ    r12,#0x15
        0x000187fa:    f04f0c0f    O...    MOVNE    r12,#0xf
        0x000187fe:    eba0000c    ....    SUB      r0,r0,r12
        0x00018802:    f8d91024    ..$.    LDR      r1,[r9,#0x24]
        0x00018806:    4788        .G      BLX      r1
        0x00018808:    e7e4        ..      B        0x187d4 ; am_hal_delay_us_status_change + 20
        0x0001880a:    2004        .       MOVS     r0,#4
        0x0001880c:    e8bd87f0    ....    POP      {r4-r10,pc}
    $d
        0x00018810:    40021000    ...@    DCD    1073876992
        0x00018814:    0001ca24    $...    DCD    117284
    $t
    i.am_hal_delay_us_status_check
    am_hal_delay_us_status_check
        0x00018818:    e92d47f0    -..G    PUSH     {r4-r10,lr}
        0x0001881c:    f8df9054    ..T.    LDR      r9,[pc,#84] ; [0x18874] = 0x40021000
        0x00018820:    f8dfa054    ..T.    LDR      r10,[pc,#84] ; [0x18878] = 0x1ca24
        0x00018824:    f8dd8020    .. .    LDR      r8,[sp,#0x20]
        0x00018828:    461c        .F      MOV      r4,r3
        0x0001882a:    4615        .F      MOV      r5,r2
        0x0001882c:    460e        .F      MOV      r6,r1
        0x0001882e:    4607        .F      MOV      r7,r0
        0x00018830:    6830        0h      LDR      r0,[r6,#0]
        0x00018832:    f1b80f00    ....    CMP      r8,#0
        0x00018836:    ea000005    ....    AND      r0,r0,r5
        0x0001883a:    d002        ..      BEQ      0x18842 ; am_hal_delay_us_status_check + 42
        0x0001883c:    42a0        .B      CMP      r0,r4
        0x0001883e:    d002        ..      BEQ      0x18846 ; am_hal_delay_us_status_check + 46
        0x00018840:    e004        ..      B        0x1884c ; am_hal_delay_us_status_check + 52
        0x00018842:    42a0        .B      CMP      r0,r4
        0x00018844:    d002        ..      BEQ      0x1884c ; am_hal_delay_us_status_check + 52
        0x00018846:    2000        .       MOVS     r0,#0
        0x00018848:    e8bd87f0    ....    POP      {r4-r10,pc}
        0x0001884c:    1e7f        ..      SUBS     r7,r7,#1
        0x0001884e:    d30e        ..      BCC      0x1886e ; am_hal_delay_us_status_check + 86
        0x00018850:    f8d91000    ....    LDR      r1,[r9,#0]
        0x00018854:    2020                MOVS     r0,#0x20
        0x00018856:    f3c101c1    ....    UBFX     r1,r1,#3,#2
        0x0001885a:    2902        .)      CMP      r1,#2
        0x0001885c:    bf06        ..      ITTE     EQ
        0x0001885e:    2040        @       MOVEQ    r0,#0x40
        0x00018860:    2115        .!      MOVEQ    r1,#0x15
        0x00018862:    210f        .!      MOVNE    r1,#0xf
        0x00018864:    1a40        @.      SUBS     r0,r0,r1
        0x00018866:    f8da1024    ..$.    LDR      r1,[r10,#0x24]
        0x0001886a:    4788        .G      BLX      r1
        0x0001886c:    e7e0        ..      B        0x18830 ; am_hal_delay_us_status_check + 24
        0x0001886e:    2004        .       MOVS     r0,#4
        0x00018870:    e8bd87f0    ....    POP      {r4-r10,pc}
    $d
        0x00018874:    40021000    ...@    DCD    1073876992
        0x00018878:    0001ca24    $...    DCD    117284
    $t
    i.am_hal_gpio_pinconfig
    am_hal_gpio_pinconfig
        0x0001887c:    b403        ..      PUSH     {r0,r1}
        0x0001887e:    4912        .I      LDR      r1,[pc,#72] ; [0x188c8] = 0x40010000
        0x00018880:    2880        .(      CMP      r0,#0x80
        0x00018882:    bf22        ".      ITTT     CS
        0x00018884:    2005        .       MOVCS    r0,#5
        0x00018886:    b002        ..      ADDCS    sp,sp,#8
        0x00018888:    4770        pG      BXCS     lr
        0x0001888a:    9a01        ..      LDR      r2,[sp,#4]
        0x0001888c:    f3c22281    ..."    UBFX     r2,r2,#10,#2
        0x00018890:    2a01        .*      CMP      r2,#1
        0x00018892:    d90e        ..      BLS      0x188b2 ; am_hal_gpio_pinconfig + 54
        0x00018894:    4b0d        .K      LDR      r3,[pc,#52] ; [0x188cc] = 0x1c770
        0x00018896:    0942        B.      LSRS     r2,r0,#5
        0x00018898:    f04f0c01    O...    MOV      r12,#1
        0x0001889c:    f8532022    S."     LDR      r2,[r3,r2,LSL #2]
        0x000188a0:    f000031f    ....    AND      r3,r0,#0x1f
        0x000188a4:    fa0cf303    ....    LSL      r3,r12,r3
        0x000188a8:    421a        .B      TST      r2,r3
        0x000188aa:    bf02        ..      ITTT     EQ
        0x000188ac:    2007        .       MOVEQ    r0,#7
        0x000188ae:    b002        ..      ADDEQ    sp,sp,#8
        0x000188b0:    4770        pG      BXEQ     lr
        0x000188b2:    2273        s"      MOVS     r2,#0x73
        0x000188b4:    f8c12200    ..."    STR      r2,[r1,#0x200]
        0x000188b8:    9a01        ..      LDR      r2,[sp,#4]
        0x000188ba:    f8412020    A.      STR      r2,[r1,r0,LSL #2]
        0x000188be:    2000        .       MOVS     r0,#0
        0x000188c0:    f8c10200    ....    STR      r0,[r1,#0x200]
        0x000188c4:    b002        ..      ADD      sp,sp,#8
        0x000188c6:    4770        pG      BX       lr
    $d
        0x000188c8:    40010000    ...@    DCD    1073807360
        0x000188cc:    0001c770    p...    DCD    116592
    $t
    i.am_hal_gpio_state_write
    am_hal_gpio_state_write
        0x000188d0:    b538        8.      PUSH     {r3-r5,lr}
        0x000188d2:    f000021f    ....    AND      r2,r0,#0x1f
        0x000188d6:    2301        .#      MOVS     r3,#1
        0x000188d8:    fa03f502    ....    LSL      r5,r3,r2
        0x000188dc:    f3c01041    ..A.    UBFX     r0,r0,#5,#2
        0x000188e0:    0080        ..      LSLS     r0,r0,#2
        0x000188e2:    f1004480    ...D    ADD      r4,r0,#0x40000000
        0x000188e6:    f5043480    ...4    ADD      r4,r4,#0x10000
        0x000188ea:    2906        .)      CMP      r1,#6
        0x000188ec:    d227        '.      BCS      0x1893e ; am_hal_gpio_state_write + 110
        0x000188ee:    e8dff001    ....    TBB      [pc,r1]
    $d
        0x000188f2:    0603        ..      DCW    1539
        0x000188f4:    1b181509    ....    DCD    454563081
    $t
        0x000188f8:    f8c45234    ..4R    STR      r5,[r4,#0x234]
        0x000188fc:    e01f        ..      B        0x1893e ; am_hal_gpio_state_write + 110
        0x000188fe:    f8c45224    ..$R    STR      r5,[r4,#0x224]
        0x00018902:    e01c        ..      B        0x1893e ; am_hal_gpio_state_write + 110
        0x00018904:    f7fffd18    ....    BL       am_hal_interrupt_master_disable ; 0x18338
        0x00018908:    9000        ..      STR      r0,[sp,#0]
        0x0001890a:    f8d40214    ....    LDR      r0,[r4,#0x214]
        0x0001890e:    4068        h@      EORS     r0,r0,r5
        0x00018910:    f8c40214    ....    STR      r0,[r4,#0x214]
        0x00018914:    9800        ..      LDR      r0,[sp,#0]
        0x00018916:    f7fffd13    ....    BL       am_hal_interrupt_master_set ; 0x18340
        0x0001891a:    e010        ..      B        0x1893e ; am_hal_gpio_state_write + 110
        0x0001891c:    f8c45264    ..dR    STR      r5,[r4,#0x264]
        0x00018920:    e00d        ..      B        0x1893e ; am_hal_gpio_state_write + 110
        0x00018922:    f8c45254    ..TR    STR      r5,[r4,#0x254]
        0x00018926:    e00a        ..      B        0x1893e ; am_hal_gpio_state_write + 110
        0x00018928:    f7fffd06    ....    BL       am_hal_interrupt_master_disable ; 0x18338
        0x0001892c:    9000        ..      STR      r0,[sp,#0]
        0x0001892e:    f8d40244    ..D.    LDR      r0,[r4,#0x244]
        0x00018932:    4068        h@      EORS     r0,r0,r5
        0x00018934:    f8c40244    ..D.    STR      r0,[r4,#0x244]
        0x00018938:    9800        ..      LDR      r0,[sp,#0]
        0x0001893a:    f7fffd01    ....    BL       am_hal_interrupt_master_set ; 0x18340
        0x0001893e:    2000        .       MOVS     r0,#0
        0x00018940:    bd38        8.      POP      {r3-r5,pc}
        0x00018942:    0000        ..      MOVS     r0,r0
    i.am_hal_mram_info_read
    am_hal_mram_info_read
        0x00018944:    b410        ..      PUSH     {r4}
        0x00018946:    0004        ..      MOVS     r4,r0
        0x00018948:    f04f0000    O...    MOV      r0,#0
        0x0001894c:    eb010c02    ....    ADD      r12,r1,r2
        0x00018950:    d012        ..      BEQ      0x18978 ; am_hal_mram_info_read + 52
        0x00018952:    2c01        .,      CMP      r4,#1
        0x00018954:    bf1e        ..      ITTT     NE
        0x00018956:    2001        .       MOVNE    r0,#1
        0x00018958:    bc10        ..      POPNE    {r4}
        0x0001895a:    4770        pG      BXNE     lr
        0x0001895c:    f5a16490    ...d    SUB      r4,r1,#0x480
        0x00018960:    f5b47fc0    ....    CMP      r4,#0x180
        0x00018964:    d205        ..      BCS      0x18972 ; am_hal_mram_info_read + 46
        0x00018966:    f5bc6fc0    ...o    CMP      r12,#0x600
        0x0001896a:    bf98        ..      IT       LS
        0x0001896c:    f8dfc040    ..@.    LDRLS    r12,[pc,#64] ; [0x189b0] = 0x42002000
        0x00018970:    d90b        ..      BLS      0x1898a ; am_hal_mram_info_read + 70
        0x00018972:    bc10        ..      POP      {r4}
        0x00018974:    2002        .       MOVS     r0,#2
        0x00018976:    4770        pG      BX       lr
        0x00018978:    f5b17f00    ....    CMP      r1,#0x200
        0x0001897c:    d2f9        ..      BCS      0x18972 ; am_hal_mram_info_read + 46
        0x0001897e:    f5bc7f00    ....    CMP      r12,#0x200
        0x00018982:    bf98        ..      IT       LS
        0x00018984:    f04f4c84    O..L    MOVLS    r12,#0x42000000
        0x00018988:    d8f3        ..      BHI      0x18972 ; am_hal_mram_info_read + 46
        0x0001898a:    eb0c0181    ....    ADD      r1,r12,r1,LSL #2
        0x0001898e:    f04f0c00    O...    MOV      r12,#0
        0x00018992:    2a00        .*      CMP      r2,#0
        0x00018994:    bf9c        ..      ITT      LS
        0x00018996:    bc10        ..      POPLS    {r4}
        0x00018998:    4770        pG      BXLS     lr
        0x0001899a:    bf00        ..      NOP      
        0x0001899c:    f8514b04    Q..K    LDR      r4,[r1],#4
        0x000189a0:    f10c0c01    ....    ADD      r12,r12,#1
        0x000189a4:    f8434b04    C..K    STR      r4,[r3],#4
        0x000189a8:    4562        bE      CMP      r2,r12
        0x000189aa:    d8f7        ..      BHI      0x1899c ; am_hal_mram_info_read + 88
        0x000189ac:    bc10        ..      POP      {r4}
        0x000189ae:    4770        pG      BX       lr
    $d
        0x000189b0:    42002000    . .B    DCD    1107304448
    $t
    i.am_hal_pwrctrl_control
    am_hal_pwrctrl_control
        0x000189b4:    e92d41f0    -..A    PUSH     {r4-r8,lr}
        0x000189b8:    2600        .&      MOVS     r6,#0
        0x000189ba:    4f83        .O      LDR      r7,[pc,#524] ; [0x18bc8] = 0x40021000
        0x000189bc:    4d83        .M      LDR      r5,[pc,#524] ; [0x18bcc] = 0x100000d8
        0x000189be:    4c84        .L      LDR      r4,[pc,#528] ; [0x18bd0] = 0x40020000
        0x000189c0:    46b0        .F      MOV      r8,r6
        0x000189c2:    2805        .(      CMP      r0,#5
        0x000189c4:    f08080fc    ....    BCS.W    0x18bc0 ; am_hal_pwrctrl_control + 524
        0x000189c8:    e8dff000    ....    TBB      [pc,r0]
    $d
        0x000189cc:    f1e4d603    ....    DCD    4058306051
        0x000189d0:    00f4        ..      DCW    244
    $t
        0x000189d2:    68a8        .h      LDR      r0,[r5,#8]
        0x000189d4:    f1b03fff    ...?    CMP      r0,#0xffffffff
        0x000189d8:    d10d        ..      BNE      0x189f6 ; am_hal_pwrctrl_control + 66
        0x000189da:    2201        ."      MOVS     r2,#1
        0x000189dc:    4b7d        }K      LDR      r3,[pc,#500] ; [0x18bd4] = 0x100000e0
        0x000189de:    f24041c4    @..A    MOV      r1,#0x4c4
        0x000189e2:    4610        .F      MOV      r0,r2
        0x000189e4:    f7ffffae    ....    BL       am_hal_mram_info_read ; 0x18944
        0x000189e8:    b918        ..      CBNZ     r0,0x189f2 ; am_hal_pwrctrl_control + 62
        0x000189ea:    68a8        .h      LDR      r0,[r5,#8]
        0x000189ec:    f1b03fff    ...?    CMP      r0,#0xffffffff
        0x000189f0:    d101        ..      BNE      0x189f6 ; am_hal_pwrctrl_control + 66
        0x000189f2:    f8c58008    ....    STR      r8,[r5,#8]
        0x000189f6:    68a8        .h      LDR      r0,[r5,#8]
        0x000189f8:    2803        .(      CMP      r0,#3
        0x000189fa:    d237        7.      BCS      0x18a6c ; am_hal_pwrctrl_control + 184
        0x000189fc:    f8d41378    ..x.    LDR      r1,[r4,#0x378]
        0x00018a00:    f02151f8    !..Q    BIC      r1,r1,#0x1f000000
        0x00018a04:    f8c41378    ..x.    STR      r1,[r4,#0x378]
        0x00018a08:    f8d41358    ..X.    LDR      r1,[r4,#0x358]
        0x00018a0c:    f42101f8    !...    BIC      r1,r1,#0x7c0000
        0x00018a10:    f8c41358    ..X.    STR      r1,[r4,#0x358]
        0x00018a14:    f8d41344    ..D.    LDR      r1,[r4,#0x344]
        0x00018a18:    f02151f8    !..Q    BIC      r1,r1,#0x1f000000
        0x00018a1c:    f1016120    .. a    ADD      r1,r1,#0xa000000
        0x00018a20:    f8c41344    ..D.    STR      r1,[r4,#0x344]
        0x00018a24:    f8d41344    ..D.    LDR      r1,[r4,#0x344]
        0x00018a28:    f42141f0    !..A    BIC      r1,r1,#0x7800
        0x00018a2c:    f50141a0    ...A    ADD      r1,r1,#0x5000
        0x00018a30:    f8c41344    ..D.    STR      r1,[r4,#0x344]
        0x00018a34:    f8d41358    ..X.    LDR      r1,[r4,#0x358]
        0x00018a38:    f42151f8    !..Q    BIC      r1,r1,#0x1f00
        0x00018a3c:    f5016170    ..pa    ADD      r1,r1,#0xf00
        0x00018a40:    f8c41358    ..X.    STR      r1,[r4,#0x358]
        0x00018a44:    f8d41354    ..T.    LDR      r1,[r4,#0x354]
        0x00018a48:    f44111f0    A...    ORR      r1,r1,#0x1e0000
        0x00018a4c:    f8c41354    ..T.    STR      r1,[r4,#0x354]
        0x00018a50:    f8d41360    ..`.    LDR      r1,[r4,#0x360]
        0x00018a54:    f02161f8    !..a    BIC      r1,r1,#0x7c00000
        0x00018a58:    f1017170    ..pq    ADD      r1,r1,#0x3c00000
        0x00018a5c:    f8c41360    ..`.    STR      r1,[r4,#0x360]
        0x00018a60:    f8d41360    ..`.    LDR      r1,[r4,#0x360]
        0x00018a64:    f44111f0    A...    ORR      r1,r1,#0x1e0000
        0x00018a68:    f8c41360    ..`.    STR      r1,[r4,#0x360]
        0x00018a6c:    f8d41348    ..H.    LDR      r1,[r4,#0x348]
        0x00018a70:    f0215170    !.pQ    BIC      r1,r1,#0x3c000000
        0x00018a74:    f1015120    .. Q    ADD      r1,r1,#0x28000000
        0x00018a78:    f8c41348    ..H.    STR      r1,[r4,#0x348]
        0x00018a7c:    f8d41348    ..H.    LDR      r1,[r4,#0x348]
        0x00018a80:    f42131f0    !..1    BIC      r1,r1,#0x1e000
        0x00018a84:    f50131a0    ...1    ADD      r1,r1,#0x14000
        0x00018a88:    f8c41348    ..H.    STR      r1,[r4,#0x348]
        0x00018a8c:    f8d4135c    ..\.    LDR      r1,[r4,#0x35c]
        0x00018a90:    f0417170    A.pq    ORR      r1,r1,#0x3c00000
        0x00018a94:    f8c4135c    ..\.    STR      r1,[r4,#0x35c]
        0x00018a98:    f8d4135c    ..\.    LDR      r1,[r4,#0x35c]
        0x00018a9c:    f44151f0    A..Q    ORR      r1,r1,#0x1e00
        0x00018aa0:    f8c4135c    ..\.    STR      r1,[r4,#0x35c]
        0x00018aa4:    f8d41380    ....    LDR      r1,[r4,#0x380]
        0x00018aa8:    f0414100    A..A    ORR      r1,r1,#0x80000000
        0x00018aac:    f8c41380    ....    STR      r1,[r4,#0x380]
        0x00018ab0:    f8d41380    ....    LDR      r1,[r4,#0x380]
        0x00018ab4:    f0414180    A..A    ORR      r1,r1,#0x40000000
        0x00018ab8:    f8c41380    ....    STR      r1,[r4,#0x380]
        0x00018abc:    f8d41370    ..p.    LDR      r1,[r4,#0x370]
        0x00018ac0:    f3c15105    ...Q    UBFX     r1,r1,#20,#6
        0x00018ac4:    60e9        .`      STR      r1,[r5,#0xc]
        0x00018ac6:    f8d41370    ..p.    LDR      r1,[r4,#0x370]
        0x00018aca:    f021717c    !.|q    BIC      r1,r1,#0x3f00000
        0x00018ace:    f8c41370    ..p.    STR      r1,[r4,#0x370]
        0x00018ad2:    f04f0107    O...    MOV      r1,#7
        0x00018ad6:    f8c4133c    ..<.    STR      r1,[r4,#0x33c]
        0x00018ada:    d20d        ..      BCS      0x18af8 ; am_hal_pwrctrl_control + 324
        0x00018adc:    f8d41340    ..@.    LDR      r1,[r4,#0x340]
        0x00018ae0:    f0217170    !.pq    BIC      r1,r1,#0x3c00000
        0x00018ae4:    f8c41340    ..@.    STR      r1,[r4,#0x340]
        0x00018ae8:    f8d41340    ..@.    LDR      r1,[r4,#0x340]
        0x00018aec:    f42161f8    !..a    BIC      r1,r1,#0x7c0
        0x00018af0:    f1010140    ..@.    ADD      r1,r1,#0x40
        0x00018af4:    f8c41340    ..@.    STR      r1,[r4,#0x340]
        0x00018af8:    2806        .(      CMP      r0,#6
        0x00018afa:    d308        ..      BCC      0x18b0e ; am_hal_pwrctrl_control + 346
        0x00018afc:    200f        .       MOVS     r0,#0xf
        0x00018afe:    f8c4033c    ..<.    STR      r0,[r4,#0x33c]
        0x00018b02:    f8d401b0    ....    LDR      r0,[r4,#0x1b0]
        0x00018b06:    f0200018     ...    BIC      r0,r0,#0x18
        0x00018b0a:    f8c401b0    ....    STR      r0,[r4,#0x1b0]
        0x00018b0e:    f8d70100    ....    LDR      r0,[r7,#0x100]
        0x00018b12:    f0400001    @...    ORR      r0,r0,#1
        0x00018b16:    f8c70100    ....    STR      r0,[r7,#0x100]
        0x00018b1a:    f8d40378    ..x.    LDR      r0,[r4,#0x378]
        0x00018b1e:    f0404000    @..@    ORR      r0,r0,#0x80000000
        0x00018b22:    f8c40378    ..x.    STR      r0,[r4,#0x378]
        0x00018b26:    6e20         n      LDR      r0,[r4,#0x60]
        0x00018b28:    f4403000    @..0    ORR      r0,r0,#0x20000
        0x00018b2c:    6620         f      STR      r0,[r4,#0x60]
        0x00018b2e:    6e20         n      LDR      r0,[r4,#0x60]
        0x00018b30:    f4402080    @..     ORR      r0,r0,#0x40000
        0x00018b34:    6620         f      STR      r0,[r4,#0x60]
        0x00018b36:    6e20         n      LDR      r0,[r4,#0x60]
        0x00018b38:    f4402000    @..     ORR      r0,r0,#0x80000
        0x00018b3c:    6620         f      STR      r0,[r4,#0x60]
        0x00018b3e:    6e20         n      LDR      r0,[r4,#0x60]
        0x00018b40:    f4403080    @..0    ORR      r0,r0,#0x10000
        0x00018b44:    6620         f      STR      r0,[r4,#0x60]
        0x00018b46:    6e20         n      LDR      r0,[r4,#0x60]
        0x00018b48:    f0200010     ...    BIC      r0,r0,#0x10
        0x00018b4c:    6620         f      STR      r0,[r4,#0x60]
        0x00018b4e:    6e20         n      LDR      r0,[r4,#0x60]
        0x00018b50:    f040000e    @...    ORR      r0,r0,#0xe
        0x00018b54:    6620         f      STR      r0,[r4,#0x60]
        0x00018b56:    6e20         n      LDR      r0,[r4,#0x60]
        0x00018b58:    f0400001    @...    ORR      r0,r0,#1
        0x00018b5c:    6620         f      STR      r0,[r4,#0x60]
        0x00018b5e:    6e20         n      LDR      r0,[r4,#0x60]
        0x00018b60:    f4207000     ..p    BIC      r0,r0,#0x200
        0x00018b64:    6620         f      STR      r0,[r4,#0x60]
        0x00018b66:    6e20         n      LDR      r0,[r4,#0x60]
        0x00018b68:    f44070e0    @..p    ORR      r0,r0,#0x1c0
        0x00018b6c:    6620         f      STR      r0,[r4,#0x60]
        0x00018b6e:    6e20         n      LDR      r0,[r4,#0x60]
        0x00018b70:    f0400020    @. .    ORR      r0,r0,#0x20
        0x00018b74:    6620         f      STR      r0,[r4,#0x60]
        0x00018b76:    e024        $.      B        0x18bc2 ; am_hal_pwrctrl_control + 526
        0x00018b78:    4917        .I      LDR      r1,[pc,#92] ; [0x18bd8] = 0x1c78c
        0x00018b7a:    e9d10152    ..R.    LDRD     r0,r1,[r1,#0x148]
        0x00018b7e:    6800        .h      LDR      r0,[r0,#0]
        0x00018b80:    4008        .@      ANDS     r0,r0,r1
        0x00018b82:    bf18        ..      IT       NE
        0x00018b84:    2001        .       MOVNE    r0,#1
        0x00018b86:    b1e0        ..      CBZ      r0,0x18bc2 ; am_hal_pwrctrl_control + 526
        0x00018b88:    2014        .       MOVS     r0,#0x14
        0x00018b8a:    f000f987    ....    BL       am_hal_pwrctrl_periph_disable ; 0x18e9c
        0x00018b8e:    b1c0        ..      CBZ      r0,0x18bc2 ; am_hal_pwrctrl_control + 526
        0x00018b90:    e8bd81f0    ....    POP      {r4-r8,pc}
        0x00018b94:    f8d40124    ..$.    LDR      r0,[r4,#0x124]
        0x00018b98:    f02000fc     ...    BIC      r0,r0,#0xfc
        0x00018b9c:    3080        .0      ADDS     r0,r0,#0x80
        0x00018b9e:    f8c40124    ..$.    STR      r0,[r4,#0x124]
        0x00018ba2:    2001        .       MOVS     r0,#1
        0x00018ba4:    f8c40120    .. .    STR      r0,[r4,#0x120]
        0x00018ba8:    e00b        ..      B        0x18bc2 ; am_hal_pwrctrl_control + 526
        0x00018baa:    e003        ..      B        0x18bb4 ; am_hal_pwrctrl_control + 512
        0x00018bac:    e7ff        ..      B        0x18bae ; am_hal_pwrctrl_control + 506
        0x00018bae:    f8c78004    ....    STR      r8,[r7,#4]
        0x00018bb2:    e006        ..      B        0x18bc2 ; am_hal_pwrctrl_control + 526
        0x00018bb4:    2900        .)      CMP      r1,#0
        0x00018bb6:    bf1c        ..      ITT      NE
        0x00018bb8:    ed950a0f    ....    VLDRNE   s0,[r5,#0x3c]
        0x00018bbc:    ed810a00    ....    VSTRNE   s0,[r1,#0]
        0x00018bc0:    2606        .&      MOVS     r6,#6
        0x00018bc2:    4630        0F      MOV      r0,r6
        0x00018bc4:    e8bd81f0    ....    POP      {r4-r8,pc}
    $d
        0x00018bc8:    40021000    ...@    DCD    1073876992
        0x00018bcc:    100000d8    ....    DCD    268435672
        0x00018bd0:    40020000    ...@    DCD    1073872896
        0x00018bd4:    100000e0    ....    DCD    268435680
        0x00018bd8:    0001c78c    ....    DCD    116620
    $t
    i.am_hal_pwrctrl_low_power_init
    am_hal_pwrctrl_low_power_init
        0x00018bdc:    b5f8        ..      PUSH     {r3-r7,lr}
        0x00018bde:    4d43        CM      LDR      r5,[pc,#268] ; [0x18cec] = 0x40021000
        0x00018be0:    68a8        .h      LDR      r0,[r5,#8]
        0x00018be2:    4e43        CN      LDR      r6,[pc,#268] ; [0x18cf0] = 0x100000d8
        0x00018be4:    f3c05000    ...P    UBFX     r0,r0,#20,#1
        0x00018be8:    f5057582    ...u    ADD      r5,r5,#0x104
        0x00018bec:    70b0        .p      STRB     r0,[r6,#2]
        0x00018bee:    4841        AH      LDR      r0,[pc,#260] ; [0x18cf4] = 0x1c780
        0x00018bf0:    f000f88a    ....    BL       am_hal_pwrctrl_mcu_memory_config ; 0x18d08
        0x00018bf4:    4840        @H      LDR      r0,[pc,#256] ; [0x18cf8] = 0x1c786
        0x00018bf6:    f000fa41    ..A.    BL       am_hal_pwrctrl_sram_config ; 0x1907c
        0x00018bfa:    f04f2740    O.@'    MOV      r7,#0x40004000
        0x00018bfe:    6c78        xl      LDR      r0,[r7,#0x44]
        0x00018c00:    f440007c    @.|.    ORR      r0,r0,#0xfc0000
        0x00018c04:    6478        xd      STR      r0,[r7,#0x44]
        0x00018c06:    2400        .$      MOVS     r4,#0
        0x00018c08:    63ec        .c      STR      r4,[r5,#0x3c]
        0x00018c0a:    642c        ,d      STR      r4,[r5,#0x40]
        0x00018c0c:    646c        ld      STR      r4,[r5,#0x44]
        0x00018c0e:    64ac        .d      STR      r4,[r5,#0x48]
        0x00018c10:    64ec        .d      STR      r4,[r5,#0x4c]
        0x00018c12:    652c        ,e      STR      r4,[r5,#0x50]
        0x00018c14:    656c        le      STR      r4,[r5,#0x54]
        0x00018c16:    65ac        .e      STR      r4,[r5,#0x58]
        0x00018c18:    65ec        .e      STR      r4,[r5,#0x5c]
        0x00018c1a:    662c        ,f      STR      r4,[r5,#0x60]
        0x00018c1c:    666c        lf      STR      r4,[r5,#0x64]
        0x00018c1e:    66ac        .f      STR      r4,[r5,#0x68]
        0x00018c20:    66ec        .f      STR      r4,[r5,#0x6c]
        0x00018c22:    672c        ,g      STR      r4,[r5,#0x70]
        0x00018c24:    676c        lg      STR      r4,[r5,#0x74]
        0x00018c26:    67ac        .g      STR      r4,[r5,#0x78]
        0x00018c28:    67ec        .g      STR      r4,[r5,#0x7c]
        0x00018c2a:    f8c54080    ...@    STR      r4,[r5,#0x80]
        0x00018c2e:    f8c54084    ...@    STR      r4,[r5,#0x84]
        0x00018c32:    4832        2H      LDR      r0,[pc,#200] ; [0x18cfc] = 0x1ca4c
        0x00018c34:    f7fffd62    ..b.    BL       am_hal_daxi_config ; 0x186fc
        0x00018c38:    2064        d       MOVS     r0,#0x64
        0x00018c3a:    f7fffdab    ....    BL       am_hal_delay_us ; 0x18794
        0x00018c3e:    6c78        xl      LDR      r0,[r7,#0x44]
        0x00018c40:    f0400040    @.@.    ORR      r0,r0,#0x40
        0x00018c44:    6478        xd      STR      r0,[r7,#0x44]
        0x00018c46:    482e        .H      LDR      r0,[pc,#184] ; [0x18d00] = 0x40020000
        0x00018c48:    f8d0137c    ..|.    LDR      r1,[r0,#0x37c]
        0x00018c4c:    f44101fd    A...    ORR      r1,r1,#0x7e8000
        0x00018c50:    f04161b0    A..a    ORR      r1,r1,#0x5800000
        0x00018c54:    f8c0137c    ..|.    STR      r1,[r0,#0x37c]
        0x00018c58:    492a        *I      LDR      r1,[pc,#168] ; [0x18d04] = 0x40020444
        0x00018c5a:    680a        .h      LDR      r2,[r1,#0]
        0x00018c5c:    f422427f    "..B    BIC      r2,r2,#0xff00
        0x00018c60:    f5026280    ...b    ADD      r2,r2,#0x400
        0x00018c64:    600a        .`      STR      r2,[r1,#0]
        0x00018c66:    7871        qx      LDRB     r1,[r6,#1]
        0x00018c68:    b9e9        ..      CBNZ     r1,0x18ca6 ; am_hal_pwrctrl_low_power_init + 202
        0x00018c6a:    f8d0136c    ..l.    LDR      r1,[r0,#0x36c]
        0x00018c6e:    f3c15105    ...Q    UBFX     r1,r1,#20,#6
        0x00018c72:    6131        1a      STR      r1,[r6,#0x10]
        0x00018c74:    f8d01088    ....    LDR      r1,[r0,#0x88]
        0x00018c78:    f001013f    ..?.    AND      r1,r1,#0x3f
        0x00018c7c:    6171        qa      STR      r1,[r6,#0x14]
        0x00018c7e:    f8d0136c    ..l.    LDR      r1,[r0,#0x36c]
        0x00018c82:    0e89        ..      LSRS     r1,r1,#26
        0x00018c84:    61b1        .a      STR      r1,[r6,#0x18]
        0x00018c86:    f8d01088    ....    LDR      r1,[r0,#0x88]
        0x00018c8a:    f3c14185    ...A    UBFX     r1,r1,#18,#6
        0x00018c8e:    61f1        .a      STR      r1,[r6,#0x1c]
        0x00018c90:    6c41        Al      LDR      r1,[r0,#0x44]
        0x00018c92:    f3c111c6    ....    UBFX     r1,r1,#7,#7
        0x00018c96:    6231        1b      STR      r1,[r6,#0x20]
        0x00018c98:    f8d00080    ....    LDR      r0,[r0,#0x80]
        0x00018c9c:    f3c00009    ....    UBFX     r0,r0,#0,#10
        0x00018ca0:    6270        pb      STR      r0,[r6,#0x24]
        0x00018ca2:    2001        .       MOVS     r0,#1
        0x00018ca4:    7070        pp      STRB     r0,[r6,#1]
        0x00018ca6:    6930        0i      LDR      r0,[r6,#0x10]
        0x00018ca8:    62f0        .b      STR      r0,[r6,#0x2c]
        0x00018caa:    6970        pi      LDR      r0,[r6,#0x14]
        0x00018cac:    62b4        .b      STR      r4,[r6,#0x28]
        0x00018cae:    2201        ."      MOVS     r2,#1
        0x00018cb0:    6330        0c      STR      r0,[r6,#0x30]
        0x00018cb2:    466b        kF      MOV      r3,sp
        0x00018cb4:    f44f6192    O..a    MOV      r1,#0x490
        0x00018cb8:    4610        .F      MOV      r0,r2
        0x00018cba:    f7fffe43    ..C.    BL       am_hal_mram_info_read ; 0x18944
        0x00018cbe:    b988        ..      CBNZ     r0,0x18ce4 ; am_hal_pwrctrl_low_power_init + 264
        0x00018cc0:    9800        ..      LDR      r0,[sp,#0]
        0x00018cc2:    f0100f06    ....    TST      r0,#6
        0x00018cc6:    bf04        ..      ITT      EQ
        0x00018cc8:    2003        .       MOVEQ    r0,#3
        0x00018cca:    62b0        .b      STREQ    r0,[r6,#0x28]
        0x00018ccc:    d00a        ..      BEQ      0x18ce4 ; am_hal_pwrctrl_low_power_init + 264
        0x00018cce:    f0100f02    ....    TST      r0,#2
        0x00018cd2:    bf08        ..      IT       EQ
        0x00018cd4:    2006        .       MOVEQ    r0,#6
        0x00018cd6:    d007        ..      BEQ      0x18ce8 ; am_hal_pwrctrl_low_power_init + 268
        0x00018cd8:    f0100f04    ....    TST      r0,#4
        0x00018cdc:    bf0c        ..      ITE      EQ
        0x00018cde:    2009        .       MOVEQ    r0,#9
        0x00018ce0:    62b4        .b      STRNE    r4,[r6,#0x28]
        0x00018ce2:    d001        ..      BEQ      0x18ce8 ; am_hal_pwrctrl_low_power_init + 268
        0x00018ce4:    2000        .       MOVS     r0,#0
        0x00018ce6:    bdf8        ..      POP      {r3-r7,pc}
        0x00018ce8:    62b0        .b      STR      r0,[r6,#0x28]
        0x00018cea:    e7fb        ..      B        0x18ce4 ; am_hal_pwrctrl_low_power_init + 264
    $d
        0x00018cec:    40021000    ...@    DCD    1073876992
        0x00018cf0:    100000d8    ....    DCD    268435672
        0x00018cf4:    0001c780    ....    DCD    116608
        0x00018cf8:    0001c786    ....    DCD    116614
        0x00018cfc:    0001ca4c    L...    DCD    117324
        0x00018d00:    40020000    ...@    DCD    1073872896
        0x00018d04:    40020444    D..@    DCD    1073873988
    $t
    i.am_hal_pwrctrl_mcu_memory_config
    am_hal_pwrctrl_mcu_memory_config
        0x00018d08:    b538        8.      PUSH     {r3-r5,lr}
        0x00018d0a:    4605        .F      MOV      r5,r0
        0x00018d0c:    7800        .x      LDRB     r0,[r0,#0]
        0x00018d0e:    4c43        CL      LDR      r4,[pc,#268] ; [0x18e1c] = 0x40021000
        0x00018d10:    b120         .      CBZ      r0,0x18d1c ; am_hal_pwrctrl_mcu_memory_config + 20
        0x00018d12:    2801        .(      CMP      r0,#1
        0x00018d14:    d00a        ..      BEQ      0x18d2c ; am_hal_pwrctrl_mcu_memory_config + 36
        0x00018d16:    2802        .(      CMP      r0,#2
        0x00018d18:    d011        ..      BEQ      0x18d3e ; am_hal_pwrctrl_mcu_memory_config + 54
        0x00018d1a:    e018        ..      B        0x18d4e ; am_hal_pwrctrl_mcu_memory_config + 70
        0x00018d1c:    6960        `i      LDR      r0,[r4,#0x14]
        0x00018d1e:    f0200010     ...    BIC      r0,r0,#0x10
        0x00018d22:    6160        `a      STR      r0,[r4,#0x14]
        0x00018d24:    6960        `i      LDR      r0,[r4,#0x14]
        0x00018d26:    f0200020     . .    BIC      r0,r0,#0x20
        0x00018d2a:    e00f        ..      B        0x18d4c ; am_hal_pwrctrl_mcu_memory_config + 68
        0x00018d2c:    6960        `i      LDR      r0,[r4,#0x14]
        0x00018d2e:    f0400010    @...    ORR      r0,r0,#0x10
        0x00018d32:    6160        `a      STR      r0,[r4,#0x14]
        0x00018d34:    6960        `i      LDR      r0,[r4,#0x14]
        0x00018d36:    f0200020     . .    BIC      r0,r0,#0x20
        0x00018d3a:    6160        `a      STR      r0,[r4,#0x14]
        0x00018d3c:    e007        ..      B        0x18d4e ; am_hal_pwrctrl_mcu_memory_config + 70
        0x00018d3e:    6960        `i      LDR      r0,[r4,#0x14]
        0x00018d40:    f0400010    @...    ORR      r0,r0,#0x10
        0x00018d44:    6160        `a      STR      r0,[r4,#0x14]
        0x00018d46:    6960        `i      LDR      r0,[r4,#0x14]
        0x00018d48:    f0400020    @. .    ORR      r0,r0,#0x20
        0x00018d4c:    6160        `a      STR      r0,[r4,#0x14]
        0x00018d4e:    78a9        .x      LDRB     r1,[r5,#2]
        0x00018d50:    6960        `i      LDR      r0,[r4,#0x14]
        0x00018d52:    f3610002    a...    BFI      r0,r1,#0,#3
        0x00018d56:    6160        `a      STR      r0,[r4,#0x14]
        0x00018d58:    7929        )y      LDRB     r1,[r5,#4]
        0x00018d5a:    6960        `i      LDR      r0,[r4,#0x14]
        0x00018d5c:    f36100c3    a...    BFI      r0,r1,#3,#1
        0x00018d60:    6160        `a      STR      r0,[r4,#0x14]
        0x00018d62:    2001        .       MOVS     r0,#1
        0x00018d64:    9000        ..      STR      r0,[sp,#0]
        0x00018d66:    6963        ci      LDR      r3,[r4,#0x14]
        0x00018d68:    223f        ?"      MOVS     r2,#0x3f
        0x00018d6a:    492d        -I      LDR      r1,[pc,#180] ; [0x18e20] = 0x40021018
        0x00018d6c:    2005        .       MOVS     r0,#5
        0x00018d6e:    f7fffd53    ..S.    BL       am_hal_delay_us_status_check ; 0x18818
        0x00018d72:    2800        .(      CMP      r0,#0
        0x00018d74:    bf18        ..      IT       NE
        0x00018d76:    bd38        8.      POPNE    {r3-r5,pc}
        0x00018d78:    69a0        .i      LDR      r0,[r4,#0x18]
        0x00018d7a:    6961        ai      LDR      r1,[r4,#0x14]
        0x00018d7c:    f3c01000    ....    UBFX     r0,r0,#4,#1
        0x00018d80:    f3c11100    ....    UBFX     r1,r1,#4,#1
        0x00018d84:    4288        .B      CMP      r0,r1
        0x00018d86:    d117        ..      BNE      0x18db8 ; am_hal_pwrctrl_mcu_memory_config + 176
        0x00018d88:    69a0        .i      LDR      r0,[r4,#0x18]
        0x00018d8a:    6961        ai      LDR      r1,[r4,#0x14]
        0x00018d8c:    f3c01040    ..@.    UBFX     r0,r0,#5,#1
        0x00018d90:    f3c11140    ..@.    UBFX     r1,r1,#5,#1
        0x00018d94:    4288        .B      CMP      r0,r1
        0x00018d96:    d10f        ..      BNE      0x18db8 ; am_hal_pwrctrl_mcu_memory_config + 176
        0x00018d98:    69a0        .i      LDR      r0,[r4,#0x18]
        0x00018d9a:    6961        ai      LDR      r1,[r4,#0x14]
        0x00018d9c:    f0000007    ....    AND      r0,r0,#7
        0x00018da0:    f0010107    ....    AND      r1,r1,#7
        0x00018da4:    4288        .B      CMP      r0,r1
        0x00018da6:    d107        ..      BNE      0x18db8 ; am_hal_pwrctrl_mcu_memory_config + 176
        0x00018da8:    69a0        .i      LDR      r0,[r4,#0x18]
        0x00018daa:    6961        ai      LDR      r1,[r4,#0x14]
        0x00018dac:    f3c000c0    ....    UBFX     r0,r0,#3,#1
        0x00018db0:    f3c101c0    ....    UBFX     r1,r1,#3,#1
        0x00018db4:    4288        .B      CMP      r0,r1
        0x00018db6:    d001        ..      BEQ      0x18dbc ; am_hal_pwrctrl_mcu_memory_config + 180
        0x00018db8:    2001        .       MOVS     r0,#1
        0x00018dba:    bd38        8.      POP      {r3-r5,pc}
        0x00018dbc:    7868        hx      LDRB     r0,[r5,#1]
        0x00018dbe:    2800        .(      CMP      r0,#0
        0x00018dc0:    69e0        .i      LDR      r0,[r4,#0x1c]
        0x00018dc2:    bf14        ..      ITE      NE
        0x00018dc4:    f0200010     ...    BICNE    r0,r0,#0x10
        0x00018dc8:    f0400010    @...    ORREQ    r0,r0,#0x10
        0x00018dcc:    61e0        .a      STR      r0,[r4,#0x1c]
        0x00018dce:    7968        hy      LDRB     r0,[r5,#5]
        0x00018dd0:    2800        .(      CMP      r0,#0
        0x00018dd2:    69e0        .i      LDR      r0,[r4,#0x1c]
        0x00018dd4:    bf14        ..      ITE      NE
        0x00018dd6:    f0200008     ...    BICNE    r0,r0,#8
        0x00018dda:    f0400008    @...    ORREQ    r0,r0,#8
        0x00018dde:    61e0        .a      STR      r0,[r4,#0x1c]
        0x00018de0:    78e8        .x      LDRB     r0,[r5,#3]
        0x00018de2:    2800        .(      CMP      r0,#0
        0x00018de4:    bf04        ..      ITT      EQ
        0x00018de6:    69e0        .i      LDREQ    r0,[r4,#0x1c]
        0x00018de8:    f0400007    @...    ORREQ    r0,r0,#7
        0x00018dec:    d013        ..      BEQ      0x18e16 ; am_hal_pwrctrl_mcu_memory_config + 270
        0x00018dee:    2801        .(      CMP      r0,#1
        0x00018df0:    d008        ..      BEQ      0x18e04 ; am_hal_pwrctrl_mcu_memory_config + 252
        0x00018df2:    2803        .(      CMP      r0,#3
        0x00018df4:    d00b        ..      BEQ      0x18e0e ; am_hal_pwrctrl_mcu_memory_config + 262
        0x00018df6:    2807        .(      CMP      r0,#7
        0x00018df8:    bf04        ..      ITT      EQ
        0x00018dfa:    69e0        .i      LDREQ    r0,[r4,#0x1c]
        0x00018dfc:    f0200007     ...    BICEQ    r0,r0,#7
        0x00018e00:    d009        ..      BEQ      0x18e16 ; am_hal_pwrctrl_mcu_memory_config + 270
        0x00018e02:    e009        ..      B        0x18e18 ; am_hal_pwrctrl_mcu_memory_config + 272
        0x00018e04:    69e0        .i      LDR      r0,[r4,#0x1c]
        0x00018e06:    f0200007     ...    BIC      r0,r0,#7
        0x00018e0a:    1d80        ..      ADDS     r0,r0,#6
        0x00018e0c:    e003        ..      B        0x18e16 ; am_hal_pwrctrl_mcu_memory_config + 270
        0x00018e0e:    69e0        .i      LDR      r0,[r4,#0x1c]
        0x00018e10:    f0200007     ...    BIC      r0,r0,#7
        0x00018e14:    1d00        ..      ADDS     r0,r0,#4
        0x00018e16:    61e0        .a      STR      r0,[r4,#0x1c]
        0x00018e18:    2000        .       MOVS     r0,#0
        0x00018e1a:    bd38        8.      POP      {r3-r5,pc}
    $d
        0x00018e1c:    40021000    ...@    DCD    1073876992
        0x00018e20:    40021018    ...@    DCD    1073877016
    $t
    i.am_hal_pwrctrl_mcu_mode_select
    am_hal_pwrctrl_mcu_mode_select
        0x00018e24:    e92d41f0    -..A    PUSH     {r4-r8,lr}
        0x00018e28:    4c1a        .L      LDR      r4,[pc,#104] ; [0x18e94] = 0x40021000
        0x00018e2a:    4605        .F      MOV      r5,r0
        0x00018e2c:    2801        .(      CMP      r0,#1
        0x00018e2e:    d00d        ..      BEQ      0x18e4c ; am_hal_pwrctrl_mcu_mode_select + 40
        0x00018e30:    2d02        .-      CMP      r5,#2
        0x00018e32:    bf1c        ..      ITT      NE
        0x00018e34:    2006        .       MOVNE    r0,#6
        0x00018e36:    e8bd81f0    ....    POPNE    {r4-r8,pc}
        0x00018e3a:    f8d40108    ....    LDR      r0,[r4,#0x108]
        0x00018e3e:    f3c01001    ....    UBFX     r0,r0,#4,#2
        0x00018e42:    2803        .(      CMP      r0,#3
        0x00018e44:    bf1c        ..      ITT      NE
        0x00018e46:    2007        .       MOVNE    r0,#7
        0x00018e48:    e8bd81f0    ....    POPNE    {r4-r8,pc}
        0x00018e4c:    4812        .H      LDR      r0,[pc,#72] ; [0x18e98] = 0x100000d8
        0x00018e4e:    7801        .x      LDRB     r1,[r0,#0]
        0x00018e50:    428d        .B      CMP      r5,r1
        0x00018e52:    d012        ..      BEQ      0x18e7a ; am_hal_pwrctrl_mcu_mode_select + 86
        0x00018e54:    7005        .p      STRB     r5,[r0,#0]
        0x00018e56:    6820         h      LDR      r0,[r4,#0]
        0x00018e58:    f3650001    e...    BFI      r0,r5,#0,#2
        0x00018e5c:    6020         `      STR      r0,[r4,#0]
        0x00018e5e:    2704        .'      MOVS     r7,#4
        0x00018e60:    2600        .&      MOVS     r6,#0
        0x00018e62:    6820         h      LDR      r0,[r4,#0]
        0x00018e64:    f0100f04    ....    TST      r0,#4
        0x00018e68:    d00a        ..      BEQ      0x18e80 ; am_hal_pwrctrl_mcu_mode_select + 92
        0x00018e6a:    6820         h      LDR      r0,[r4,#0]
        0x00018e6c:    f3c000c1    ....    UBFX     r0,r0,#3,#2
        0x00018e70:    42a8        .B      CMP      r0,r5
        0x00018e72:    bf1c        ..      ITT      NE
        0x00018e74:    2001        .       MOVNE    r0,#1
        0x00018e76:    e8bd81f0    ....    POPNE    {r4-r8,pc}
        0x00018e7a:    2000        .       MOVS     r0,#0
        0x00018e7c:    e8bd81f0    ....    POP      {r4-r8,pc}
        0x00018e80:    2001        .       MOVS     r0,#1
        0x00018e82:    f7fffc87    ....    BL       am_hal_delay_us ; 0x18794
        0x00018e86:    1c76        v.      ADDS     r6,r6,#1
        0x00018e88:    2e05        ..      CMP      r6,#5
        0x00018e8a:    d3ea        ..      BCC      0x18e62 ; am_hal_pwrctrl_mcu_mode_select + 62
        0x00018e8c:    4638        8F      MOV      r0,r7
        0x00018e8e:    e8bd81f0    ....    POP      {r4-r8,pc}
    $d
        0x00018e92:    0000        ..      DCW    0
        0x00018e94:    40021000    ...@    DCD    1073876992
        0x00018e98:    100000d8    ....    DCD    268435672
    $t
    i.am_hal_pwrctrl_periph_disable
    am_hal_pwrctrl_periph_disable
        0x00018e9c:    2822        "(      CMP      r0,#0x22
        0x00018e9e:    bf24        $.      ITT      CS
        0x00018ea0:    2006        .       MOVCS    r0,#6
        0x00018ea2:    4770        pG      BXCS     lr
        0x00018ea4:    e92d43f8    -..C    PUSH     {r3-r9,lr}
        0x00018ea8:    4941        AI      LDR      r1,[pc,#260] ; [0x18fb0] = 0x1c78c
        0x00018eaa:    4602        .F      MOV      r2,r0
        0x00018eac:    eb011800    ....    ADD      r8,r1,r0,LSL #4
        0x00018eb0:    2500        .%      MOVS     r5,#0
        0x00018eb2:    e9d86900    ...i    LDRD     r6,r9,[r8,#0]
        0x00018eb6:    e9d87402    ...t    LDRD     r7,r4,[r8,#8]
        0x00018eba:    6831        1h      LDR      r1,[r6,#0]
        0x00018ebc:    ea110f09    ....    TST      r1,r9
        0x00018ec0:    bf04        ..      ITT      EQ
        0x00018ec2:    2000        .       MOVEQ    r0,#0
        0x00018ec4:    e8bd83f8    ....    POPEQ    {r3-r9,pc}
        0x00018ec8:    2a14        .*      CMP      r2,#0x14
        0x00018eca:    d123        #.      BNE      0x18f14 ; am_hal_pwrctrl_periph_disable + 120
        0x00018ecc:    4839        9H      LDR      r0,[pc,#228] ; [0x18fb4] = 0x400c0fe0
        0x00018ece:    6800        .h      LDR      r0,[r0,#0]
        0x00018ed0:    28c0        .(      CMP      r0,#0xc0
        0x00018ed2:    d11f        ..      BNE      0x18f14 ; am_hal_pwrctrl_periph_disable + 120
        0x00018ed4:    2301        .#      MOVS     r3,#1
        0x00018ed6:    461a        .F      MOV      r2,r3
        0x00018ed8:    4937        7I      LDR      r1,[pc,#220] ; [0x18fb8] = 0x400c0a7c
        0x00018eda:    2064        d       MOVS     r0,#0x64
        0x00018edc:    f7fffc70    ..p.    BL       am_hal_delay_us_status_change ; 0x187c0
        0x00018ee0:    2800        .(      CMP      r0,#0
        0x00018ee2:    bf18        ..      IT       NE
        0x00018ee4:    e8bd83f8    ....    POPNE    {r3-r9,pc}
        0x00018ee8:    2301        .#      MOVS     r3,#1
        0x00018eea:    461a        .F      MOV      r2,r3
        0x00018eec:    4933        3I      LDR      r1,[pc,#204] ; [0x18fbc] = 0x400c1f10
        0x00018eee:    2064        d       MOVS     r0,#0x64
        0x00018ef0:    f7fffc66    ..f.    BL       am_hal_delay_us_status_change ; 0x187c0
        0x00018ef4:    2800        .(      CMP      r0,#0
        0x00018ef6:    bf18        ..      IT       NE
        0x00018ef8:    e8bd83f8    ....    POPNE    {r3-r9,pc}
        0x00018efc:    4830        0H      LDR      r0,[pc,#192] ; [0x18fc0] = 0x400c0a80
        0x00018efe:    6801        .h      LDR      r1,[r0,#0]
        0x00018f00:    f0410101    A...    ORR      r1,r1,#1
        0x00018f04:    6001        .`      STR      r1,[r0,#0]
        0x00018f06:    482f        /H      LDR      r0,[pc,#188] ; [0x18fc4] = 0x100000d8
        0x00018f08:    6a81        .j      LDR      r1,[r0,#0x28]
        0x00018f0a:    2900        .)      CMP      r1,#0
        0x00018f0c:    bf1c        ..      ITT      NE
        0x00018f0e:    2000        .       MOVNE    r0,#0
        0x00018f10:    f001fd8e    ....    BLNE     crypto_boost_trims ; 0x1aa30
        0x00018f14:    f7fffa10    ....    BL       am_hal_interrupt_master_disable ; 0x18338
        0x00018f18:    9000        ..      STR      r0,[sp,#0]
        0x00018f1a:    6830        0h      LDR      r0,[r6,#0]
        0x00018f1c:    ea200009     ...    BIC      r0,r0,r9
        0x00018f20:    6030        0`      STR      r0,[r6,#0]
        0x00018f22:    9800        ..      LDR      r0,[sp,#0]
        0x00018f24:    f7fffa0c    ....    BL       am_hal_interrupt_master_set ; 0x18340
        0x00018f28:    4623        #F      MOV      r3,r4
        0x00018f2a:    461a        .F      MOV      r2,r3
        0x00018f2c:    4639        9F      MOV      r1,r7
        0x00018f2e:    2005        .       MOVS     r0,#5
        0x00018f30:    9500        ..      STR      r5,[sp,#0]
        0x00018f32:    f7fffc71    ..q.    BL       am_hal_delay_us_status_check ; 0x18818
        0x00018f36:    2800        .(      CMP      r0,#0
        0x00018f38:    bf08        ..      IT       EQ
        0x00018f3a:    e8bd83f8    ....    POPEQ    {r3-r9,pc}
        0x00018f3e:    4628        (F      MOV      r0,r5
        0x00018f40:    f8d8200c    ...     LDR      r2,[r8,#0xc]
        0x00018f44:    f8d81000    ....    LDR      r1,[r8,#0]
        0x00018f48:    f5b27ff0    ....    CMP      r2,#0x1e0
        0x00018f4c:    d029        ).      BEQ      0x18fa2 ; am_hal_pwrctrl_periph_disable + 262
        0x00018f4e:    dc0b        ..      BGT      0x18f68 ; am_hal_pwrctrl_periph_disable + 204
        0x00018f50:    2a1e        .*      CMP      r2,#0x1e
        0x00018f52:    d020         .      BEQ      0x18f96 ; am_hal_pwrctrl_periph_disable + 250
        0x00018f54:    2aff        .*      CMP      r2,#0xff
        0x00018f56:    bf18        ..      IT       NE
        0x00018f58:    e8bd83f8    ....    POPNE    {r3-r9,pc}
        0x00018f5c:    680a        .h      LDR      r2,[r1,#0]
        0x00018f5e:    f0120fff    ....    TST      r2,#0xff
        0x00018f62:    d115        ..      BNE      0x18f90 ; am_hal_pwrctrl_periph_disable + 244
        0x00018f64:    e8bd83f8    ....    POP      {r3-r9,pc}
        0x00018f68:    f5b25ff0    ..._    CMP      r2,#0x1e00
        0x00018f6c:    d00a        ..      BEQ      0x18f84 ; am_hal_pwrctrl_periph_disable + 232
        0x00018f6e:    f5b23fe0    ...?    CMP      r2,#0x1c000
        0x00018f72:    bf18        ..      IT       NE
        0x00018f74:    e8bd83f8    ....    POPNE    {r3-r9,pc}
        0x00018f78:    680a        .h      LDR      r2,[r1,#0]
        0x00018f7a:    f4123fe0    ...?    TST      r2,#0x1c000
        0x00018f7e:    d107        ..      BNE      0x18f90 ; am_hal_pwrctrl_periph_disable + 244
        0x00018f80:    e8bd83f8    ....    POP      {r3-r9,pc}
        0x00018f84:    680a        .h      LDR      r2,[r1,#0]
        0x00018f86:    f4125ff0    ..._    TST      r2,#0x1e00
        0x00018f8a:    bf08        ..      IT       EQ
        0x00018f8c:    e8bd83f8    ....    POPEQ    {r3-r9,pc}
        0x00018f90:    6809        .h      LDR      r1,[r1,#0]
        0x00018f92:    e8bd83f8    ....    POP      {r3-r9,pc}
        0x00018f96:    680a        .h      LDR      r2,[r1,#0]
        0x00018f98:    f0120f1e    ....    TST      r2,#0x1e
        0x00018f9c:    d1f8        ..      BNE      0x18f90 ; am_hal_pwrctrl_periph_disable + 244
        0x00018f9e:    e8bd83f8    ....    POP      {r3-r9,pc}
        0x00018fa2:    680a        .h      LDR      r2,[r1,#0]
        0x00018fa4:    f4127ff0    ....    TST      r2,#0x1e0
        0x00018fa8:    d1f2        ..      BNE      0x18f90 ; am_hal_pwrctrl_periph_disable + 244
        0x00018faa:    e8bd83f8    ....    POP      {r3-r9,pc}
    $d
        0x00018fae:    0000        ..      DCW    0
        0x00018fb0:    0001c78c    ....    DCD    116620
        0x00018fb4:    400c0fe0    ...@    DCD    1074532320
        0x00018fb8:    400c0a7c    |..@    DCD    1074530940
        0x00018fbc:    400c1f10    ...@    DCD    1074536208
        0x00018fc0:    400c0a80    ...@    DCD    1074530944
        0x00018fc4:    100000d8    ....    DCD    268435672
    $t
    i.am_hal_pwrctrl_periph_enable
    am_hal_pwrctrl_periph_enable
        0x00018fc8:    2822        "(      CMP      r0,#0x22
        0x00018fca:    bf24        $.      ITT      CS
        0x00018fcc:    2006        .       MOVCS    r0,#6
        0x00018fce:    4770        pG      BXCS     lr
        0x00018fd0:    e92d43f8    -..C    PUSH     {r3-r9,lr}
        0x00018fd4:    4926        &I      LDR      r1,[pc,#152] ; [0x19070] = 0x1c78c
        0x00018fd6:    4604        .F      MOV      r4,r0
        0x00018fd8:    eb011004    ....    ADD      r0,r1,r4,LSL #4
        0x00018fdc:    e9d06502    ...e    LDRD     r6,r5,[r0,#8]
        0x00018fe0:    e9d08900    ....    LDRD     r8,r9,[r0,#0]
        0x00018fe4:    f8d80000    ....    LDR      r0,[r8,#0]
        0x00018fe8:    ea100f09    ....    TST      r0,r9
        0x00018fec:    d13c        <.      BNE      0x19068 ; am_hal_pwrctrl_periph_enable + 160
        0x00018fee:    4f21        !O      LDR      r7,[pc,#132] ; [0x19074] = 0x100000d8
        0x00018ff0:    2c14        .,      CMP      r4,#0x14
        0x00018ff2:    d105        ..      BNE      0x19000 ; am_hal_pwrctrl_periph_enable + 56
        0x00018ff4:    6ab9        .j      LDR      r1,[r7,#0x28]
        0x00018ff6:    2900        .)      CMP      r1,#0
        0x00018ff8:    bf1c        ..      ITT      NE
        0x00018ffa:    2001        .       MOVNE    r0,#1
        0x00018ffc:    f001fd18    ....    BLNE     crypto_boost_trims ; 0x1aa30
        0x00019000:    f7fff99a    ....    BL       am_hal_interrupt_master_disable ; 0x18338
        0x00019004:    9000        ..      STR      r0,[sp,#0]
        0x00019006:    f8d80000    ....    LDR      r0,[r8,#0]
        0x0001900a:    ea400009    @...    ORR      r0,r0,r9
        0x0001900e:    f8c80000    ....    STR      r0,[r8,#0]
        0x00019012:    9800        ..      LDR      r0,[sp,#0]
        0x00019014:    f7fff994    ....    BL       am_hal_interrupt_master_set ; 0x18340
        0x00019018:    2001        .       MOVS     r0,#1
        0x0001901a:    462b        +F      MOV      r3,r5
        0x0001901c:    9000        ..      STR      r0,[sp,#0]
        0x0001901e:    461a        .F      MOV      r2,r3
        0x00019020:    4631        1F      MOV      r1,r6
        0x00019022:    2005        .       MOVS     r0,#5
        0x00019024:    f7fffbf8    ....    BL       am_hal_delay_us_status_check ; 0x18818
        0x00019028:    ea5f0800    _...    MOVS     r8,r0
        0x0001902c:    d00a        ..      BEQ      0x19044 ; am_hal_pwrctrl_periph_enable + 124
        0x0001902e:    2c14        .,      CMP      r4,#0x14
        0x00019030:    d105        ..      BNE      0x1903e ; am_hal_pwrctrl_periph_enable + 118
        0x00019032:    6ab9        .j      LDR      r1,[r7,#0x28]
        0x00019034:    2900        .)      CMP      r1,#0
        0x00019036:    bf1c        ..      ITT      NE
        0x00019038:    2000        .       MOVNE    r0,#0
        0x0001903a:    f001fcf9    ....    BLNE     crypto_boost_trims ; 0x1aa30
        0x0001903e:    4640        @F      MOV      r0,r8
        0x00019040:    e8bd83f8    ....    POP      {r3-r9,pc}
        0x00019044:    2c14        .,      CMP      r4,#0x14
        0x00019046:    d109        ..      BNE      0x1905c ; am_hal_pwrctrl_periph_enable + 148
        0x00019048:    2301        .#      MOVS     r3,#1
        0x0001904a:    461a        .F      MOV      r2,r3
        0x0001904c:    490a        .I      LDR      r1,[pc,#40] ; [0x19078] = 0x400c1f10
        0x0001904e:    2064        d       MOVS     r0,#0x64
        0x00019050:    f7fffbb6    ....    BL       am_hal_delay_us_status_change ; 0x187c0
        0x00019054:    2800        .(      CMP      r0,#0
        0x00019056:    bf18        ..      IT       NE
        0x00019058:    e8bd83f8    ....    POPNE    {r3-r9,pc}
        0x0001905c:    6830        0h      LDR      r0,[r6,#0]
        0x0001905e:    4228        (B      TST      r0,r5
        0x00019060:    bf04        ..      ITT      EQ
        0x00019062:    2001        .       MOVEQ    r0,#1
        0x00019064:    e8bd83f8    ....    POPEQ    {r3-r9,pc}
        0x00019068:    2000        .       MOVS     r0,#0
        0x0001906a:    e8bd83f8    ....    POP      {r3-r9,pc}
    $d
        0x0001906e:    0000        ..      DCW    0
        0x00019070:    0001c78c    ....    DCD    116620
        0x00019074:    100000d8    ....    DCD    268435672
        0x00019078:    400c1f10    ...@    DCD    1074536208
    $t
    i.am_hal_pwrctrl_sram_config
    am_hal_pwrctrl_sram_config
        0x0001907c:    b538        8.      PUSH     {r3-r5,lr}
        0x0001907e:    4c27        'L      LDR      r4,[pc,#156] ; [0x1911c] = 0x40021000
        0x00019080:    4605        .F      MOV      r5,r0
        0x00019082:    7801        .x      LDRB     r1,[r0,#0]
        0x00019084:    6a60        `j      LDR      r0,[r4,#0x24]
        0x00019086:    f3610001    a...    BFI      r0,r1,#0,#2
        0x0001908a:    6260        `b      STR      r0,[r4,#0x24]
        0x0001908c:    2001        .       MOVS     r0,#1
        0x0001908e:    9000        ..      STR      r0,[sp,#0]
        0x00019090:    6a63        cj      LDR      r3,[r4,#0x24]
        0x00019092:    2203        ."      MOVS     r2,#3
        0x00019094:    4922        "I      LDR      r1,[pc,#136] ; [0x19120] = 0x40021028
        0x00019096:    2005        .       MOVS     r0,#5
        0x00019098:    f7fffbbe    ....    BL       am_hal_delay_us_status_check ; 0x18818
        0x0001909c:    2800        .(      CMP      r0,#0
        0x0001909e:    bf18        ..      IT       NE
        0x000190a0:    bd38        8.      POPNE    {r3-r5,pc}
        0x000190a2:    6aa0        .j      LDR      r0,[r4,#0x28]
        0x000190a4:    6a61        aj      LDR      r1,[r4,#0x24]
        0x000190a6:    f0000003    ....    AND      r0,r0,#3
        0x000190aa:    f0010103    ....    AND      r1,r1,#3
        0x000190ae:    4288        .B      CMP      r0,r1
        0x000190b0:    bf1c        ..      ITT      NE
        0x000190b2:    2001        .       MOVNE    r0,#1
        0x000190b4:    bd38        8.      POPNE    {r3-r5,pc}
        0x000190b6:    7869        ix      LDRB     r1,[r5,#1]
        0x000190b8:    6ae0        .j      LDR      r0,[r4,#0x2c]
        0x000190ba:    f3610083    a...    BFI      r0,r1,#2,#2
        0x000190be:    62e0        .b      STR      r0,[r4,#0x2c]
        0x000190c0:    78a9        .x      LDRB     r1,[r5,#2]
        0x000190c2:    6ae0        .j      LDR      r0,[r4,#0x2c]
        0x000190c4:    f3611087    a...    BFI      r0,r1,#6,#2
        0x000190c8:    62e0        .b      STR      r0,[r4,#0x2c]
        0x000190ca:    78e9        .x      LDRB     r1,[r5,#3]
        0x000190cc:    6ae0        .j      LDR      r0,[r4,#0x2c]
        0x000190ce:    f3612009    a..     BFI      r0,r1,#8,#2
        0x000190d2:    62e0        .b      STR      r0,[r4,#0x2c]
        0x000190d4:    7929        )y      LDRB     r1,[r5,#4]
        0x000190d6:    6ae0        .j      LDR      r0,[r4,#0x2c]
        0x000190d8:    f3611005    a...    BFI      r0,r1,#4,#2
        0x000190dc:    62e0        .b      STR      r0,[r4,#0x2c]
        0x000190de:    7968        hy      LDRB     r0,[r5,#5]
        0x000190e0:    2800        .(      CMP      r0,#0
        0x000190e2:    bf04        ..      ITT      EQ
        0x000190e4:    6ae0        .j      LDREQ    r0,[r4,#0x2c]
        0x000190e6:    f0400003    @...    ORREQ    r0,r0,#3
        0x000190ea:    d00e        ..      BEQ      0x1910a ; am_hal_pwrctrl_sram_config + 142
        0x000190ec:    2801        .(      CMP      r0,#1
        0x000190ee:    d008        ..      BEQ      0x19102 ; am_hal_pwrctrl_sram_config + 134
        0x000190f0:    2802        .(      CMP      r0,#2
        0x000190f2:    d00d        ..      BEQ      0x19110 ; am_hal_pwrctrl_sram_config + 148
        0x000190f4:    2803        .(      CMP      r0,#3
        0x000190f6:    bf04        ..      ITT      EQ
        0x000190f8:    6ae0        .j      LDREQ    r0,[r4,#0x2c]
        0x000190fa:    f0200003     ...    BICEQ    r0,r0,#3
        0x000190fe:    d004        ..      BEQ      0x1910a ; am_hal_pwrctrl_sram_config + 142
        0x00019100:    e004        ..      B        0x1910c ; am_hal_pwrctrl_sram_config + 144
        0x00019102:    6ae0        .j      LDR      r0,[r4,#0x2c]
        0x00019104:    f0200003     ...    BIC      r0,r0,#3
        0x00019108:    1c80        ..      ADDS     r0,r0,#2
        0x0001910a:    62e0        .b      STR      r0,[r4,#0x2c]
        0x0001910c:    2000        .       MOVS     r0,#0
        0x0001910e:    bd38        8.      POP      {r3-r5,pc}
        0x00019110:    6ae0        .j      LDR      r0,[r4,#0x2c]
        0x00019112:    f0200003     ...    BIC      r0,r0,#3
        0x00019116:    1c40        @.      ADDS     r0,r0,#1
        0x00019118:    e7f7        ..      B        0x1910a ; am_hal_pwrctrl_sram_config + 142
    $d
        0x0001911a:    0000        ..      DCW    0
        0x0001911c:    40021000    ...@    DCD    1073876992
        0x00019120:    40021028    (..@    DCD    1073877032
    $t
    i.am_hal_queue_item_add
    am_hal_queue_item_add
        0x00019124:    b5f8        ..      PUSH     {r3-r7,lr}
        0x00019126:    4604        .F      MOV      r4,r0
        0x00019128:    6900        .i      LDR      r0,[r0,#0x10]
        0x0001912a:    460e        .F      MOV      r6,r1
        0x0001912c:    fb00f502    ....    MUL      r5,r0,r2
        0x00019130:    2700        .'      MOVS     r7,#0
        0x00019132:    f7fff901    ....    BL       am_hal_interrupt_master_disable ; 0x18338
        0x00019136:    9000        ..      STR      r0,[sp,#0]
        0x00019138:    68a1        .h      LDR      r1,[r4,#8]
        0x0001913a:    68e0        .h      LDR      r0,[r4,#0xc]
        0x0001913c:    1a40        @.      SUBS     r0,r0,r1
        0x0001913e:    4285        .B      CMP      r5,r0
        0x00019140:    d816        ..      BHI      0x19170 ; am_hal_queue_item_add + 76
        0x00019142:    2000        .       MOVS     r0,#0
        0x00019144:    2d00        .-      CMP      r5,#0
        0x00019146:    d90f        ..      BLS      0x19168 ; am_hal_queue_item_add + 68
        0x00019148:    b11e        ..      CBZ      r6,0x19152 ; am_hal_queue_item_add + 46
        0x0001914a:    5c31        1\      LDRB     r1,[r6,r0]
        0x0001914c:    6823        #h      LDR      r3,[r4,#0]
        0x0001914e:    6962        bi      LDR      r2,[r4,#0x14]
        0x00019150:    54d1        .T      STRB     r1,[r2,r3]
        0x00019152:    6821        !h      LDR      r1,[r4,#0]
        0x00019154:    68e2        .h      LDR      r2,[r4,#0xc]
        0x00019156:    1c49        I.      ADDS     r1,r1,#1
        0x00019158:    fbb1f3f2    ....    UDIV     r3,r1,r2
        0x0001915c:    fb021113    ....    MLS      r1,r2,r3,r1
        0x00019160:    6021        !`      STR      r1,[r4,#0]
        0x00019162:    1c40        @.      ADDS     r0,r0,#1
        0x00019164:    42a8        .B      CMP      r0,r5
        0x00019166:    d3ef        ..      BCC      0x19148 ; am_hal_queue_item_add + 36
        0x00019168:    68a0        .h      LDR      r0,[r4,#8]
        0x0001916a:    4428        (D      ADD      r0,r0,r5
        0x0001916c:    60a0        .`      STR      r0,[r4,#8]
        0x0001916e:    2701        .'      MOVS     r7,#1
        0x00019170:    9800        ..      LDR      r0,[sp,#0]
        0x00019172:    f7fff8e5    ....    BL       am_hal_interrupt_master_set ; 0x18340
        0x00019176:    4638        8F      MOV      r0,r7
        0x00019178:    bdf8        ..      POP      {r3-r7,pc}
    i.am_hal_queue_item_get
    am_hal_queue_item_get
        0x0001917a:    b5f8        ..      PUSH     {r3-r7,lr}
        0x0001917c:    4604        .F      MOV      r4,r0
        0x0001917e:    6900        .i      LDR      r0,[r0,#0x10]
        0x00019180:    460e        .F      MOV      r6,r1
        0x00019182:    fb00f502    ....    MUL      r5,r0,r2
        0x00019186:    2700        .'      MOVS     r7,#0
        0x00019188:    f7fff8d6    ....    BL       am_hal_interrupt_master_disable ; 0x18338
        0x0001918c:    9000        ..      STR      r0,[sp,#0]
        0x0001918e:    68a0        .h      LDR      r0,[r4,#8]
        0x00019190:    4285        .B      CMP      r5,r0
        0x00019192:    d816        ..      BHI      0x191c2 ; am_hal_queue_item_get + 72
        0x00019194:    2000        .       MOVS     r0,#0
        0x00019196:    2d00        .-      CMP      r5,#0
        0x00019198:    d90f        ..      BLS      0x191ba ; am_hal_queue_item_get + 64
        0x0001919a:    b11e        ..      CBZ      r6,0x191a4 ; am_hal_queue_item_get + 42
        0x0001919c:    6962        bi      LDR      r2,[r4,#0x14]
        0x0001919e:    6861        ah      LDR      r1,[r4,#4]
        0x000191a0:    5c52        R\      LDRB     r2,[r2,r1]
        0x000191a2:    5432        2T      STRB     r2,[r6,r0]
        0x000191a4:    6861        ah      LDR      r1,[r4,#4]
        0x000191a6:    68e2        .h      LDR      r2,[r4,#0xc]
        0x000191a8:    1c49        I.      ADDS     r1,r1,#1
        0x000191aa:    fbb1f3f2    ....    UDIV     r3,r1,r2
        0x000191ae:    fb021113    ....    MLS      r1,r2,r3,r1
        0x000191b2:    6061        a`      STR      r1,[r4,#4]
        0x000191b4:    1c40        @.      ADDS     r0,r0,#1
        0x000191b6:    42a8        .B      CMP      r0,r5
        0x000191b8:    d3ef        ..      BCC      0x1919a ; am_hal_queue_item_get + 32
        0x000191ba:    68a0        .h      LDR      r0,[r4,#8]
        0x000191bc:    1b40        @.      SUBS     r0,r0,r5
        0x000191be:    60a0        .`      STR      r0,[r4,#8]
        0x000191c0:    2701        .'      MOVS     r7,#1
        0x000191c2:    9800        ..      LDR      r0,[sp,#0]
        0x000191c4:    f7fff8bc    ....    BL       am_hal_interrupt_master_set ; 0x18340
        0x000191c8:    4638        8F      MOV      r0,r7
        0x000191ca:    bdf8        ..      POP      {r3-r7,pc}
    i.am_hal_rtc_osc_disable
    am_hal_rtc_osc_disable
        0x000191cc:    4803        .H      LDR      r0,[pc,#12] ; [0x191dc] = 0x40004800
        0x000191ce:    6801        .h      LDR      r1,[r0,#0]
        0x000191d0:    f0410110    A...    ORR      r1,r1,#0x10
        0x000191d4:    6001        .`      STR      r1,[r0,#0]
        0x000191d6:    2000        .       MOVS     r0,#0
        0x000191d8:    4770        pG      BX       lr
    $d
        0x000191da:    0000        ..      DCW    0
        0x000191dc:    40004800    .H.@    DCD    1073760256
    $t
    i.am_hal_sysctrl_fpu_enable
    am_hal_sysctrl_fpu_enable
        0x000191e0:    4902        .I      LDR      r1,[pc,#8] ; [0x191ec] = 0xe000ed88
        0x000191e2:    f44f0070    O.p.    MOV      r0,#0xf00000
        0x000191e6:    6008        .`      STR      r0,[r1,#0]
        0x000191e8:    4770        pG      BX       lr
    $d
        0x000191ea:    0000        ..      DCW    0
        0x000191ec:    e000ed88    ....    DCD    3758157192
    $t
    i.am_hal_sysctrl_fpu_stacking_enable
    am_hal_sysctrl_fpu_stacking_enable
        0x000191f0:    b538        8.      PUSH     {r3-r5,lr}
        0x000191f2:    4604        .F      MOV      r4,r0
        0x000191f4:    f7fff8a0    ....    BL       am_hal_interrupt_master_disable ; 0x18338
        0x000191f8:    9000        ..      STR      r0,[sp,#0]
        0x000191fa:    4808        .H      LDR      r0,[pc,#32] ; [0x1921c] = 0xe000ef34
        0x000191fc:    6801        .h      LDR      r1,[r0,#0]
        0x000191fe:    2c00        .,      CMP      r4,#0
        0x00019200:    f0214140    !.@A    BIC      r1,r1,#0xc0000000
        0x00019204:    bf14        ..      ITE      NE
        0x00019206:    f04f4240    O.@B    MOVNE    r2,#0xc0000000
        0x0001920a:    f04f4200    O..B    MOVEQ    r2,#0x80000000
        0x0001920e:    4311        .C      ORRS     r1,r1,r2
        0x00019210:    6001        .`      STR      r1,[r0,#0]
        0x00019212:    9800        ..      LDR      r0,[sp,#0]
        0x00019214:    e8bd4038    ..8@    POP      {r3-r5,lr}
        0x00019218:    f7ffb892    ....    B        am_hal_interrupt_master_set ; 0x18340
    $d
        0x0001921c:    e000ef34    4...    DCD    3758157620
    $t
    i.am_hal_systick_count
    am_hal_systick_count
        0x00019220:    f04f20e0    O..     MOV      r0,#0xe000e000
        0x00019224:    6980        .i      LDR      r0,[r0,#0x18]
        0x00019226:    4770        pG      BX       lr
    i.am_hal_systick_int_enable
    am_hal_systick_int_enable
        0x00019228:    f04f20e0    O..     MOV      r0,#0xe000e000
        0x0001922c:    6901        .i      LDR      r1,[r0,#0x10]
        0x0001922e:    f0410102    A...    ORR      r1,r1,#2
        0x00019232:    6101        .a      STR      r1,[r0,#0x10]
        0x00019234:    4770        pG      BX       lr
    i.am_hal_systick_load
    am_hal_systick_load
        0x00019236:    f04f21e0    O..!    MOV      r1,#0xe000e000
        0x0001923a:    6148        Ha      STR      r0,[r1,#0x14]
        0x0001923c:    2000        .       MOVS     r0,#0
        0x0001923e:    6188        .a      STR      r0,[r1,#0x18]
        0x00019240:    4770        pG      BX       lr
    i.am_hal_systick_reset
    am_hal_systick_reset
        0x00019242:    f04f21e0    O..!    MOV      r1,#0xe000e000
        0x00019246:    2000        .       MOVS     r0,#0
        0x00019248:    6108        .a      STR      r0,[r1,#0x10]
        0x0001924a:    4770        pG      BX       lr
    i.am_hal_systick_start
    am_hal_systick_start
        0x0001924c:    f04f20e0    O..     MOV      r0,#0xe000e000
        0x00019250:    6901        .i      LDR      r1,[r0,#0x10]
        0x00019252:    f0410101    A...    ORR      r1,r1,#1
        0x00019256:    6101        .a      STR      r1,[r0,#0x10]
        0x00019258:    4770        pG      BX       lr
    i.am_hal_systick_stop
    am_hal_systick_stop
        0x0001925a:    f04f20e0    O..     MOV      r0,#0xe000e000
        0x0001925e:    6901        .i      LDR      r1,[r0,#0x10]
        0x00019260:    f0210101    !...    BIC      r1,r1,#1
        0x00019264:    6101        .a      STR      r1,[r0,#0x10]
        0x00019266:    4770        pG      BX       lr
    i.am_hal_uart_configure
    am_hal_uart_configure
        0x00019268:    6a42        Bj      LDR      r2,[r0,#0x24]
        0x0001926a:    2800        .(      CMP      r0,#0
        0x0001926c:    bf1c        ..      ITT      NE
        0x0001926e:    6803        .h      LDRNE    r3,[r0,#0]
        0x00019270:    f0137f80    ....    TSTNE    r3,#0x1000000
        0x00019274:    d005        ..      BEQ      0x19282 ; am_hal_uart_configure + 26
        0x00019276:    f8dfc164    ..d.    LDR      r12,[pc,#356] ; [0x193dc] = 0xea9e06
        0x0001927a:    f023437f    #..C    BIC      r3,r3,#0xff000000
        0x0001927e:    4563        cE      CMP      r3,r12
        0x00019280:    d001        ..      BEQ      0x19286 ; am_hal_uart_configure + 30
        0x00019282:    2002        .       MOVS     r0,#2
        0x00019284:    4770        pG      BX       lr
        0x00019286:    b470        p.      PUSH     {r4-r6}
        0x00019288:    2500        .%      MOVS     r5,#0
        0x0001928a:    0312        ..      LSLS     r2,r2,#12
        0x0001928c:    f1024280    ...B    ADD      r2,r2,#0x40000000
        0x00019290:    f50232e0    ...2    ADD      r2,r2,#0x1c000
        0x00019294:    6315        .c      STR      r5,[r2,#0x30]
        0x00019296:    6b13        .k      LDR      r3,[r2,#0x30]
        0x00019298:    f0430308    C...    ORR      r3,r3,#8
        0x0001929c:    6313        .c      STR      r3,[r2,#0x30]
        0x0001929e:    f8dfc140    ..@.    LDR      r12,[pc,#320] ; [0x193e0] = 0x16e360
        0x000192a2:    680b        .h      LDR      r3,[r1,#0]
        0x000192a4:    4563        cE      CMP      r3,r12
        0x000192a6:    6b13        .k      LDR      r3,[r2,#0x30]
        0x000192a8:    f0230370    #.p.    BIC      r3,r3,#0x70
        0x000192ac:    bf8c        ..      ITE      HI
        0x000192ae:    3350        P3      ADDHI    r3,r3,#0x50
        0x000192b0:    3310        .3      ADDLS    r3,r3,#0x10
        0x000192b2:    6313        .c      STR      r3,[r2,#0x30]
        0x000192b4:    6b13        .k      LDR      r3,[r2,#0x30]
        0x000192b6:    f0230301    #...    BIC      r3,r3,#1
        0x000192ba:    6313        .c      STR      r3,[r2,#0x30]
        0x000192bc:    6b13        .k      LDR      r3,[r2,#0x30]
        0x000192be:    f4237300    #..s    BIC      r3,r3,#0x200
        0x000192c2:    6313        .c      STR      r3,[r2,#0x30]
        0x000192c4:    6b13        .k      LDR      r3,[r2,#0x30]
        0x000192c6:    f4237380    #..s    BIC      r3,r3,#0x100
        0x000192ca:    6313        .c      STR      r3,[r2,#0x30]
        0x000192cc:    f8d1c000    ....    LDR      r12,[r1,#0]
        0x000192d0:    6b13        .k      LDR      r3,[r2,#0x30]
        0x000192d2:    f3c31302    ....    UBFX     r3,r3,#4,#3
        0x000192d6:    2b06        .+      CMP      r3,#6
        0x000192d8:    d27c        |.      BCS      0x193d4 ; am_hal_uart_configure + 364
        0x000192da:    e8dff003    ....    TBB      [pc,r3]
    $d
        0x000192de:    057b        {.      DCW    1403
        0x000192e0:    030b0907    ....    DCD    51054855
    $t
        0x000192e4:    4b3f        ?K      LDR      r3,[pc,#252] ; [0x193e4] = 0x2dc6c00
        0x000192e6:    e006        ..      B        0x192f6 ; am_hal_uart_configure + 142
        0x000192e8:    4b3f        ?K      LDR      r3,[pc,#252] ; [0x193e8] = 0x16e3600
        0x000192ea:    e004        ..      B        0x192f6 ; am_hal_uart_configure + 142
        0x000192ec:    4b3f        ?K      LDR      r3,[pc,#252] ; [0x193ec] = 0xb71b00
        0x000192ee:    e002        ..      B        0x192f6 ; am_hal_uart_configure + 142
        0x000192f0:    4b3f        ?K      LDR      r3,[pc,#252] ; [0x193f0] = 0x5b8d80
        0x000192f2:    e000        ..      B        0x192f6 ; am_hal_uart_configure + 142
        0x000192f4:    4b3f        ?K      LDR      r3,[pc,#252] ; [0x193f4] = 0x2dc6c0
        0x000192f6:    ea4f1c0c    O...    LSL      r12,r12,#4
        0x000192fa:    fbb3f4fc    ....    UDIV     r4,r3,r12
        0x000192fe:    019e        ..      LSLS     r6,r3,#6
        0x00019300:    fbb6fcfc    ....    UDIV     r12,r6,r12
        0x00019304:    01a6        ..      LSLS     r6,r4,#6
        0x00019306:    ebbc0c06    ....    SUBS     r12,r12,r6
        0x0001930a:    2c00        .,      CMP      r4,#0
        0x0001930c:    bf01        ..      ITTTT    EQ
        0x0001930e:    6285        .b      STREQ    r5,[r0,#0x28]
        0x00019310:    4839        9H      LDREQ    r0,[pc,#228] ; [0x193f8] = 0x8000003
        0x00019312:    bc70        p.      POPEQ    {r4-r6}
        0x00019314:    4770        pG      BXEQ     lr
        0x00019316:    6254        Tb      STR      r4,[r2,#0x24]
        0x00019318:    f8c2c028    ..(.    STR      r12,[r2,#0x28]
        0x0001931c:    0124        $.      LSLS     r4,r4,#4
        0x0001931e:    eb040c9c    ....    ADD      r12,r4,r12,LSR #2
        0x00019322:    fbb3f3fc    ....    UDIV     r3,r3,r12
        0x00019326:    6283        .b      STR      r3,[r0,#0x28]
        0x00019328:    6b10        .k      LDR      r0,[r2,#0x30]
        0x0001932a:    f4204080     ..@    BIC      r0,r0,#0x4000
        0x0001932e:    6310        .c      STR      r0,[r2,#0x30]
        0x00019330:    6b10        .k      LDR      r0,[r2,#0x30]
        0x00019332:    f4204000     ..@    BIC      r0,r0,#0x8000
        0x00019336:    6310        .c      STR      r0,[r2,#0x30]
        0x00019338:    6b10        .k      LDR      r0,[r2,#0x30]
        0x0001933a:    890b        ..      LDRH     r3,[r1,#8]
        0x0001933c:    4318        .C      ORRS     r0,r0,r3
        0x0001933e:    6310        .c      STR      r0,[r2,#0x30]
        0x00019340:    2000        .       MOVS     r0,#0
        0x00019342:    f891c005    ....    LDRB     r12,[r1,#5]
        0x00019346:    4603        .F      MOV      r3,r0
        0x00019348:    f1bc0f00    ....    CMP      r12,#0
        0x0001934c:    bf08        ..      IT       EQ
        0x0001934e:    2001        .       MOVEQ    r0,#1
        0x00019350:    d004        ..      BEQ      0x1935c ; am_hal_uart_configure + 244
        0x00019352:    f1bc0f01    ....    CMP      r12,#1
        0x00019356:    bf04        ..      ITT      EQ
        0x00019358:    2001        .       MOVEQ    r0,#1
        0x0001935a:    4603        .F      MOVEQ    r3,r0
        0x0001935c:    f8d2c02c    ..,.    LDR      r12,[r2,#0x2c]
        0x00019360:    f02c0c01    ,...    BIC      r12,r12,#1
        0x00019364:    f8c2c02c    ..,.    STR      r12,[r2,#0x2c]
        0x00019368:    f8d2c02c    ..,.    LDR      r12,[r2,#0x2c]
        0x0001936c:    f3600c41    `.A.    BFI      r12,r0,#1,#1
        0x00019370:    f8c2c02c    ..,.    STR      r12,[r2,#0x2c]
        0x00019374:    6ad0        .j      LDR      r0,[r2,#0x2c]
        0x00019376:    f3630082    c...    BFI      r0,r3,#2,#1
        0x0001937a:    62d0        .b      STR      r0,[r2,#0x2c]
        0x0001937c:    798b        .y      LDRB     r3,[r1,#6]
        0x0001937e:    6ad0        .j      LDR      r0,[r2,#0x2c]
        0x00019380:    f36300c3    c...    BFI      r0,r3,#3,#1
        0x00019384:    62d0        .b      STR      r0,[r2,#0x2c]
        0x00019386:    6ad0        .j      LDR      r0,[r2,#0x2c]
        0x00019388:    f0400010    @...    ORR      r0,r0,#0x10
        0x0001938c:    62d0        .b      STR      r0,[r2,#0x2c]
        0x0001938e:    790b        .y      LDRB     r3,[r1,#4]
        0x00019390:    6ad0        .j      LDR      r0,[r2,#0x2c]
        0x00019392:    f3631046    c.F.    BFI      r0,r3,#5,#2
        0x00019396:    62d0        .b      STR      r0,[r2,#0x2c]
        0x00019398:    6ad0        .j      LDR      r0,[r2,#0x2c]
        0x0001939a:    f0200080     ...    BIC      r0,r0,#0x80
        0x0001939e:    62d0        .b      STR      r0,[r2,#0x2c]
        0x000193a0:    7a8b        .z      LDRB     r3,[r1,#0xa]
        0x000193a2:    6b50        Pk      LDR      r0,[r2,#0x34]
        0x000193a4:    f3630002    c...    BFI      r0,r3,#0,#3
        0x000193a8:    6350        Pc      STR      r0,[r2,#0x34]
        0x000193aa:    7ac9        .z      LDRB     r1,[r1,#0xb]
        0x000193ac:    6b50        Pk      LDR      r0,[r2,#0x34]
        0x000193ae:    f36100c5    a...    BFI      r0,r1,#3,#3
        0x000193b2:    6350        Pc      STR      r0,[r2,#0x34]
        0x000193b4:    6b10        .k      LDR      r0,[r2,#0x30]
        0x000193b6:    f0400001    @...    ORR      r0,r0,#1
        0x000193ba:    6310        .c      STR      r0,[r2,#0x30]
        0x000193bc:    6b10        .k      LDR      r0,[r2,#0x30]
        0x000193be:    f4407000    @..p    ORR      r0,r0,#0x200
        0x000193c2:    6310        .c      STR      r0,[r2,#0x30]
        0x000193c4:    6b10        .k      LDR      r0,[r2,#0x30]
        0x000193c6:    f4407080    @..p    ORR      r0,r0,#0x100
        0x000193ca:    6310        .c      STR      r0,[r2,#0x30]
        0x000193cc:    bc70        p.      POP      {r4-r6}
        0x000193ce:    2000        .       MOVS     r0,#0
        0x000193d0:    4770        pG      BX       lr
        0x000193d2:    e7ff        ..      B        0x193d4 ; am_hal_uart_configure + 364
        0x000193d4:    6285        .b      STR      r5,[r0,#0x28]
        0x000193d6:    bc70        p.      POP      {r4-r6}
        0x000193d8:    4808        .H      LDR      r0,[pc,#32] ; [0x193fc] = 0x8000002
        0x000193da:    4770        pG      BX       lr
    $d
        0x000193dc:    00ea9e06    ....    DCD    15375878
        0x000193e0:    0016e360    `...    DCD    1500000
        0x000193e4:    02dc6c00    .l..    DCD    48000000
        0x000193e8:    016e3600    .6n.    DCD    24000000
        0x000193ec:    00b71b00    ....    DCD    12000000
        0x000193f0:    005b8d80    ..[.    DCD    6000000
        0x000193f4:    002dc6c0    ..-.    DCD    3000000
        0x000193f8:    08000003    ....    DCD    134217731
        0x000193fc:    08000002    ....    DCD    134217730
    $t
    i.am_hal_uart_deinitialize
    am_hal_uart_deinitialize
        0x00019400:    2800        .(      CMP      r0,#0
        0x00019402:    bf1c        ..      ITT      NE
        0x00019404:    6801        .h      LDRNE    r1,[r0,#0]
        0x00019406:    f0117f80    ....    TSTNE    r1,#0x1000000
        0x0001940a:    d004        ..      BEQ      0x19416 ; am_hal_uart_deinitialize + 22
        0x0001940c:    4b07        .K      LDR      r3,[pc,#28] ; [0x1942c] = 0xea9e06
        0x0001940e:    f021427f    !..B    BIC      r2,r1,#0xff000000
        0x00019412:    429a        .B      CMP      r2,r3
        0x00019414:    d001        ..      BEQ      0x1941a ; am_hal_uart_deinitialize + 26
        0x00019416:    2002        .       MOVS     r0,#2
        0x00019418:    4770        pG      BX       lr
        0x0001941a:    f001417e    ..~A    AND      r1,r1,#0xfe000000
        0x0001941e:    6001        .`      STR      r1,[r0,#0]
        0x00019420:    2100        .!      MOVS     r1,#0
        0x00019422:    6241        Ab      STR      r1,[r0,#0x24]
        0x00019424:    7101        .q      STRB     r1,[r0,#4]
        0x00019426:    4608        .F      MOV      r0,r1
        0x00019428:    4770        pG      BX       lr
    $d
        0x0001942a:    0000        ..      DCW    0
        0x0001942c:    00ea9e06    ....    DCD    15375878
    $t
    i.am_hal_uart_initialize
    am_hal_uart_initialize
        0x00019430:    2804        .(      CMP      r0,#4
        0x00019432:    bf24        $.      ITT      CS
        0x00019434:    2005        .       MOVCS    r0,#5
        0x00019436:    4770        pG      BXCS     lr
        0x00019438:    2900        .)      CMP      r1,#0
        0x0001943a:    bf04        ..      ITT      EQ
        0x0001943c:    2006        .       MOVEQ    r0,#6
        0x0001943e:    4770        pG      BXEQ     lr
        0x00019440:    b410        ..      PUSH     {r4}
        0x00019442:    680a        .h      LDR      r2,[r1,#0]
        0x00019444:    4c18        .L      LDR      r4,[pc,#96] ; [0x194a8] = 0xea9e06
        0x00019446:    2a00        .*      CMP      r2,#0
        0x00019448:    bf1c        ..      ITT      NE
        0x0001944a:    6812        .h      LDRNE    r2,[r2,#0]
        0x0001944c:    f0127f80    ....    TSTNE    r2,#0x1000000
        0x00019450:    d006        ..      BEQ      0x19460 ; am_hal_uart_initialize + 48
        0x00019452:    f022427f    "..B    BIC      r2,r2,#0xff000000
        0x00019456:    42a2        .B      CMP      r2,r4
        0x00019458:    bf02        ..      ITTT     EQ
        0x0001945a:    2007        .       MOVEQ    r0,#7
        0x0001945c:    bc10        ..      POPEQ    {r4}
        0x0001945e:    4770        pG      BXEQ     lr
        0x00019460:    ebc002c0    ....    RSB      r2,r0,r0,LSL #3
        0x00019464:    eb021c00    ....    ADD      r12,r2,r0,LSL #4
        0x00019468:    4b10        .K      LDR      r3,[pc,#64] ; [0x194ac] = 0x10000528
        0x0001946a:    f853203c    S.<     LDR      r2,[r3,r12,LSL #3]
        0x0001946e:    f0427280    B..r    ORR      r2,r2,#0x1000000
        0x00019472:    f3640217    d...    BFI      r2,r4,#0,#24
        0x00019476:    f843203c    C.<     STR      r2,[r3,r12,LSL #3]
        0x0001947a:    eb0302cc    ....    ADD      r2,r3,r12,LSL #3
        0x0001947e:    6250        Pb      STR      r0,[r2,#0x24]
        0x00019480:    2000        .       MOVS     r0,#0
        0x00019482:    7110        .q      STRB     r0,[r2,#4]
        0x00019484:    6290        .b      STR      r0,[r2,#0x28]
        0x00019486:    f882002c    ..,.    STRB     r0,[r2,#0x2c]
        0x0001948a:    f8820054    ..T.    STRB     r0,[r2,#0x54]
        0x0001948e:    f882007c    ..|.    STRB     r0,[r2,#0x7c]
        0x00019492:    f8820098    ....    STRB     r0,[r2,#0x98]
        0x00019496:    6790        .g      STR      r0,[r2,#0x78]
        0x00019498:    6510        .e      STR      r0,[r2,#0x50]
        0x0001949a:    2001        .       MOVS     r0,#1
        0x0001949c:    f88200b4    ....    STRB     r0,[r2,#0xb4]
        0x000194a0:    600a        .`      STR      r2,[r1,#0]
        0x000194a2:    bc10        ..      POP      {r4}
        0x000194a4:    2000        .       MOVS     r0,#0
        0x000194a6:    4770        pG      BX       lr
    $d
        0x000194a8:    00ea9e06    ....    DCD    15375878
        0x000194ac:    10000528    (...    DCD    268436776
    $t
    i.am_hal_uart_power_control
    am_hal_uart_power_control
        0x000194b0:    b570        p.      PUSH     {r4-r6,lr}
        0x000194b2:    6a46        Fj      LDR      r6,[r0,#0x24]
        0x000194b4:    1e04        ..      SUBS     r4,r0,#0
        0x000194b6:    f1060309    ....    ADD      r3,r6,#9
        0x000194ba:    b2db        ..      UXTB     r3,r3
        0x000194bc:    bf1c        ..      ITT      NE
        0x000194be:    6820         h      LDRNE    r0,[r4,#0]
        0x000194c0:    f0107f80    ....    TSTNE    r0,#0x1000000
        0x000194c4:    d005        ..      BEQ      0x194d2 ; am_hal_uart_power_control + 34
        0x000194c6:    f8dfc0cc    ....    LDR      r12,[pc,#204] ; [0x19594] = 0xea9e06
        0x000194ca:    f020407f     ..@    BIC      r0,r0,#0xff000000
        0x000194ce:    4560        `E      CMP      r0,r12
        0x000194d0:    d001        ..      BEQ      0x194d6 ; am_hal_uart_power_control + 38
        0x000194d2:    2002        .       MOVS     r0,#2
        0x000194d4:    bd70        p.      POP      {r4-r6,pc}
        0x000194d6:    2500        .%      MOVS     r5,#0
        0x000194d8:    2900        .)      CMP      r1,#0
        0x000194da:    d038        8.      BEQ      0x1954e ; am_hal_uart_power_control + 158
        0x000194dc:    2901        .)      CMP      r1,#1
        0x000194de:    bf1e        ..      ITTT     NE
        0x000194e0:    2902        .)      CMPNE    r1,#2
        0x000194e2:    2006        .       MOVNE    r0,#6
        0x000194e4:    bd70        p.      POPNE    {r4-r6,pc}
        0x000194e6:    b1b2        ..      CBZ      r2,0x19516 ; am_hal_uart_power_control + 102
        0x000194e8:    ea4f3006    O..0    LSL      r0,r6,#12
        0x000194ec:    f1004080    ...@    ADD      r0,r0,#0x40000000
        0x000194f0:    f50030e0    ...0    ADD      r0,r0,#0x1c000
        0x000194f4:    6a01        .j      LDR      r1,[r0,#0x20]
        0x000194f6:    60a1        .`      STR      r1,[r4,#8]
        0x000194f8:    6a41        Aj      LDR      r1,[r0,#0x24]
        0x000194fa:    60e1        .`      STR      r1,[r4,#0xc]
        0x000194fc:    6a81        .j      LDR      r1,[r0,#0x28]
        0x000194fe:    6121        !a      STR      r1,[r4,#0x10]
        0x00019500:    6ac1        .j      LDR      r1,[r0,#0x2c]
        0x00019502:    6161        aa      STR      r1,[r4,#0x14]
        0x00019504:    6b01        .k      LDR      r1,[r0,#0x30]
        0x00019506:    61a1        .a      STR      r1,[r4,#0x18]
        0x00019508:    6b41        Ak      LDR      r1,[r0,#0x34]
        0x0001950a:    61e1        .a      STR      r1,[r4,#0x1c]
        0x0001950c:    6b80        .k      LDR      r0,[r0,#0x38]
        0x0001950e:    6220         b      STR      r0,[r4,#0x20]
        0x00019510:    f04f0001    O...    MOV      r0,#1
        0x00019514:    7120         q      STRB     r0,[r4,#4]
        0x00019516:    6822        "h      LDR      r2,[r4,#0]
        0x00019518:    6a61        aj      LDR      r1,[r4,#0x24]
        0x0001951a:    f04f30ff    O..0    MOV      r0,#0xffffffff
        0x0001951e:    f0127f80    ....    TST      r2,#0x1000000
        0x00019522:    d009        ..      BEQ      0x19538 ; am_hal_uart_power_control + 136
        0x00019524:    f022427f    "..B    BIC      r2,r2,#0xff000000
        0x00019528:    4562        bE      CMP      r2,r12
        0x0001952a:    d105        ..      BNE      0x19538 ; am_hal_uart_power_control + 136
        0x0001952c:    0309        ..      LSLS     r1,r1,#12
        0x0001952e:    f1014180    ...A    ADD      r1,r1,#0x40000000
        0x00019532:    f50131e0    ...1    ADD      r1,r1,#0x1c000
        0x00019536:    6448        Hd      STR      r0,[r1,#0x44]
        0x00019538:    0330        0.      LSLS     r0,r6,#12
        0x0001953a:    f1004080    ...@    ADD      r0,r0,#0x40000000
        0x0001953e:    f50030e0    ...0    ADD      r0,r0,#0x1c000
        0x00019542:    6305        .c      STR      r5,[r0,#0x30]
        0x00019544:    4618        .F      MOV      r0,r3
        0x00019546:    f7fffca9    ....    BL       am_hal_pwrctrl_periph_disable ; 0x18e9c
        0x0001954a:    2000        .       MOVS     r0,#0
        0x0001954c:    bd70        p.      POP      {r4-r6,pc}
        0x0001954e:    b1e2        ..      CBZ      r2,0x1958a ; am_hal_uart_power_control + 218
        0x00019550:    7920         y      LDRB     r0,[r4,#4]
        0x00019552:    2800        .(      CMP      r0,#0
        0x00019554:    bf04        ..      ITT      EQ
        0x00019556:    2007        .       MOVEQ    r0,#7
        0x00019558:    bd70        p.      POPEQ    {r4-r6,pc}
        0x0001955a:    4618        .F      MOV      r0,r3
        0x0001955c:    f7fffd34    ..4.    BL       am_hal_pwrctrl_periph_enable ; 0x18fc8
        0x00019560:    0330        0.      LSLS     r0,r6,#12
        0x00019562:    f1004080    ...@    ADD      r0,r0,#0x40000000
        0x00019566:    f50030e0    ...0    ADD      r0,r0,#0x1c000
        0x0001956a:    68a1        .h      LDR      r1,[r4,#8]
        0x0001956c:    6201        .b      STR      r1,[r0,#0x20]
        0x0001956e:    68e1        .h      LDR      r1,[r4,#0xc]
        0x00019570:    6241        Ab      STR      r1,[r0,#0x24]
        0x00019572:    6921        !i      LDR      r1,[r4,#0x10]
        0x00019574:    6281        .b      STR      r1,[r0,#0x28]
        0x00019576:    6961        ai      LDR      r1,[r4,#0x14]
        0x00019578:    62c1        .b      STR      r1,[r0,#0x2c]
        0x0001957a:    69a1        .i      LDR      r1,[r4,#0x18]
        0x0001957c:    6301        .c      STR      r1,[r0,#0x30]
        0x0001957e:    69e1        .i      LDR      r1,[r4,#0x1c]
        0x00019580:    6341        Ac      STR      r1,[r0,#0x34]
        0x00019582:    6a21        !j      LDR      r1,[r4,#0x20]
        0x00019584:    6381        .c      STR      r1,[r0,#0x38]
        0x00019586:    7125        %q      STRB     r5,[r4,#4]
        0x00019588:    e7df        ..      B        0x1954a ; am_hal_uart_power_control + 154
        0x0001958a:    4618        .F      MOV      r0,r3
        0x0001958c:    f7fffd1c    ....    BL       am_hal_pwrctrl_periph_enable ; 0x18fc8
        0x00019590:    e7db        ..      B        0x1954a ; am_hal_uart_power_control + 154
    $d
        0x00019592:    0000        ..      DCW    0
        0x00019594:    00ea9e06    ....    DCD    15375878
    $t
    i.am_hal_uart_transfer
    am_hal_uart_transfer
        0x00019598:    e92d4ff8    -..O    PUSH     {r3-r11,lr}
        0x0001959c:    460d        .F      MOV      r5,r1
        0x0001959e:    4604        .F      MOV      r4,r0
        0x000195a0:    780a        .x      LDRB     r2,[r1,#0]
        0x000195a2:    2002        .       MOVS     r0,#2
        0x000195a4:    4999        .I      LDR      r1,[pc,#612] ; [0x1980c] = 0xea9e06
        0x000195a6:    4f9a        .O      LDR      r7,[pc,#616] ; [0x19810] = 0x8000004
        0x000195a8:    f04f0901    O...    MOV      r9,#1
        0x000195ac:    f04f0a04    O...    MOV      r10,#4
        0x000195b0:    2600        .&      MOVS     r6,#0
        0x000195b2:    b352        R.      CBZ      r2,0x1960a ; am_hal_uart_transfer + 114
        0x000195b4:    f1070801    ....    ADD      r8,r7,#1
        0x000195b8:    2a01        .*      CMP      r2,#1
        0x000195ba:    d07b        {.      BEQ      0x196b4 ; am_hal_uart_transfer + 284
        0x000195bc:    2a02        .*      CMP      r2,#2
        0x000195be:    f00080cd    ....    BEQ.W    0x1975c ; am_hal_uart_transfer + 452
        0x000195c2:    2a03        .*      CMP      r2,#3
        0x000195c4:    bf1c        ..      ITT      NE
        0x000195c6:    2001        .       MOVNE    r0,#1
        0x000195c8:    e8bd8ff8    ....    POPNE    {r3-r11,pc}
        0x000195cc:    68ea        .h      LDR      r2,[r5,#0xc]
        0x000195ce:    2c00        .,      CMP      r4,#0
        0x000195d0:    bf1a        ..      ITTE     NE
        0x000195d2:    6823        #h      LDRNE    r3,[r4,#0]
        0x000195d4:    f0137f80    ....    TSTNE    r3,#0x1000000
        0x000195d8:    e8bd8ff8    ....    POPEQ    {r3-r11,pc}
        0x000195dc:    f023437f    #..C    BIC      r3,r3,#0xff000000
        0x000195e0:    428b        .B      CMP      r3,r1
        0x000195e2:    bf18        ..      IT       NE
        0x000195e4:    e8bd8ff8    ....    POPNE    {r3-r11,pc}
        0x000195e8:    2a00        .*      CMP      r2,#0
        0x000195ea:    bf18        ..      IT       NE
        0x000195ec:    6016        .`      STRNE    r6,[r2,#0]
        0x000195ee:    f7fefea3    ....    BL       am_hal_interrupt_master_disable ; 0x18338
        0x000195f2:    9000        ..      STR      r0,[sp,#0]
        0x000195f4:    f894002c    ..,.    LDRB     r0,[r4,#0x2c]
        0x000195f8:    2800        .(      CMP      r0,#0
        0x000195fa:    f00080e9    ....    BEQ.W    0x197d0 ; am_hal_uart_transfer + 568
        0x000195fe:    9800        ..      LDR      r0,[sp,#0]
        0x00019600:    f7fefe9e    ....    BL       am_hal_interrupt_master_set ; 0x18340
        0x00019604:    4640        @F      MOV      r0,r8
        0x00019606:    e8bd8ff8    ....    POP      {r3-r11,pc}
        0x0001960a:    68ea        .h      LDR      r2,[r5,#0xc]
        0x0001960c:    f04f0800    O...    MOV      r8,#0
        0x00019610:    2c00        .,      CMP      r4,#0
        0x00019612:    bf1a        ..      ITTE     NE
        0x00019614:    6823        #h      LDRNE    r3,[r4,#0]
        0x00019616:    f0137f80    ....    TSTNE    r3,#0x1000000
        0x0001961a:    e8bd8ff8    ....    POPEQ    {r3-r11,pc}
        0x0001961e:    f023437f    #..C    BIC      r3,r3,#0xff000000
        0x00019622:    428b        .B      CMP      r3,r1
        0x00019624:    bf18        ..      IT       NE
        0x00019626:    e8bd8ff8    ....    POPNE    {r3-r11,pc}
        0x0001962a:    2a00        .*      CMP      r2,#0
        0x0001962c:    bf18        ..      IT       NE
        0x0001962e:    6016        .`      STRNE    r6,[r2,#0]
        0x00019630:    f7fefe82    ....    BL       am_hal_interrupt_master_disable ; 0x18338
        0x00019634:    9000        ..      STR      r0,[sp,#0]
        0x00019636:    f8940054    ..T.    LDRB     r0,[r4,#0x54]
        0x0001963a:    2800        .(      CMP      r0,#0
        0x0001963c:    d17e        ~.      BNE      0x1973c ; am_hal_uart_transfer + 420
        0x0001963e:    f8849054    ..T.    STRB     r9,[r4,#0x54]
        0x00019642:    7829        )x      LDRB     r1,[r5,#0]
        0x00019644:    f8841058    ..X.    STRB     r1,[r4,#0x58]
        0x00019648:    6869        ih      LDR      r1,[r5,#4]
        0x0001964a:    65e1        .e      STR      r1,[r4,#0x5c]
        0x0001964c:    68a9        .h      LDR      r1,[r5,#8]
        0x0001964e:    6621        !f      STR      r1,[r4,#0x60]
        0x00019650:    68e9        .h      LDR      r1,[r5,#0xc]
        0x00019652:    6661        af      STR      r1,[r4,#0x64]
        0x00019654:    6929        )i      LDR      r1,[r5,#0x10]
        0x00019656:    66a1        .f      STR      r1,[r4,#0x68]
        0x00019658:    6969        ii      LDR      r1,[r5,#0x14]
        0x0001965a:    66e1        .f      STR      r1,[r4,#0x6c]
        0x0001965c:    69a9        .i      LDR      r1,[r5,#0x18]
        0x0001965e:    6721        !g      STR      r1,[r4,#0x70]
        0x00019660:    4620         F      MOV      r0,r4
        0x00019662:    69e9        .i      LDR      r1,[r5,#0x1c]
        0x00019664:    6761        ag      STR      r1,[r4,#0x74]
        0x00019666:    6786        .g      STR      r6,[r0,#0x78]
        0x00019668:    f88060b4    ...`    STRB     r6,[r0,#0xb4]
        0x0001966c:    9800        ..      LDR      r0,[sp,#0]
        0x0001966e:    f7fefe67    ..g.    BL       am_hal_interrupt_master_set ; 0x18340
        0x00019672:    4620         F      MOV      r0,r4
        0x00019674:    f002f9e6    ....    BL       nonblocking_write_sm ; 0x1ba44
        0x00019678:    f8940054    ..T.    LDRB     r0,[r4,#0x54]
        0x0001967c:    2800        .(      CMP      r0,#0
        0x0001967e:    d067        g.      BEQ      0x19750 ; am_hal_uart_transfer + 440
        0x00019680:    4620         F      MOV      r0,r4
        0x00019682:    f002f9df    ....    BL       nonblocking_write_sm ; 0x1ba44
        0x00019686:    f44f707a    O.zp    MOV      r0,#0x3e8
        0x0001968a:    f7fff883    ....    BL       am_hal_delay_us ; 0x18794
        0x0001968e:    6928        (i      LDR      r0,[r5,#0x10]
        0x00019690:    f1b03fff    ...?    CMP      r0,#0xffffffff
        0x00019694:    d009        ..      BEQ      0x196aa ; am_hal_uart_transfer + 274
        0x00019696:    f1080801    ....    ADD      r8,r8,#1
        0x0001969a:    4540        @E      CMP      r0,r8
        0x0001969c:    d105        ..      BNE      0x196aa ; am_hal_uart_transfer + 274
        0x0001969e:    f8846054    ..T`    STRB     r6,[r4,#0x54]
        0x000196a2:    4650        PF      MOV      r0,r10
        0x000196a4:    e8bd8ff8    ....    POP      {r3-r11,pc}
        0x000196a8:    e004        ..      B        0x196b4 ; am_hal_uart_transfer + 284
        0x000196aa:    f8940054    ..T.    LDRB     r0,[r4,#0x54]
        0x000196ae:    2800        .(      CMP      r0,#0
        0x000196b0:    d1e6        ..      BNE      0x19680 ; am_hal_uart_transfer + 232
        0x000196b2:    e0a7        ..      B        0x19804 ; am_hal_uart_transfer + 620
        0x000196b4:    2700        .'      MOVS     r7,#0
        0x000196b6:    68ea        .h      LDR      r2,[r5,#0xc]
        0x000196b8:    2c00        .,      CMP      r4,#0
        0x000196ba:    bf1c        ..      ITT      NE
        0x000196bc:    6823        #h      LDRNE    r3,[r4,#0]
        0x000196be:    f0137f80    ....    TSTNE    r3,#0x1000000
        0x000196c2:    d003        ..      BEQ      0x196cc ; am_hal_uart_transfer + 308
        0x000196c4:    f023437f    #..C    BIC      r3,r3,#0xff000000
        0x000196c8:    428b        .B      CMP      r3,r1
        0x000196ca:    d001        ..      BEQ      0x196d0 ; am_hal_uart_transfer + 312
        0x000196cc:    4606        .F      MOV      r6,r0
        0x000196ce:    e099        ..      B        0x19804 ; am_hal_uart_transfer + 620
        0x000196d0:    2a00        .*      CMP      r2,#0
        0x000196d2:    bf18        ..      IT       NE
        0x000196d4:    6016        .`      STRNE    r6,[r2,#0]
        0x000196d6:    f7fefe2f    ../.    BL       am_hal_interrupt_master_disable ; 0x18338
        0x000196da:    9000        ..      STR      r0,[sp,#0]
        0x000196dc:    f894002c    ..,.    LDRB     r0,[r4,#0x2c]
        0x000196e0:    b120         .      CBZ      r0,0x196ec ; am_hal_uart_transfer + 340
        0x000196e2:    4646        FF      MOV      r6,r8
        0x000196e4:    9800        ..      LDR      r0,[sp,#0]
        0x000196e6:    f7fefe2b    ..+.    BL       am_hal_interrupt_master_set ; 0x18340
        0x000196ea:    e08b        ..      B        0x19804 ; am_hal_uart_transfer + 620
        0x000196ec:    f884902c    ..,.    STRB     r9,[r4,#0x2c]
        0x000196f0:    7829        )x      LDRB     r1,[r5,#0]
        0x000196f2:    f8841030    ..0.    STRB     r1,[r4,#0x30]
        0x000196f6:    6869        ih      LDR      r1,[r5,#4]
        0x000196f8:    6361        ac      STR      r1,[r4,#0x34]
        0x000196fa:    68a9        .h      LDR      r1,[r5,#8]
        0x000196fc:    63a1        .c      STR      r1,[r4,#0x38]
        0x000196fe:    68e9        .h      LDR      r1,[r5,#0xc]
        0x00019700:    63e1        .c      STR      r1,[r4,#0x3c]
        0x00019702:    6929        )i      LDR      r1,[r5,#0x10]
        0x00019704:    6421        !d      STR      r1,[r4,#0x40]
        0x00019706:    6969        ii      LDR      r1,[r5,#0x14]
        0x00019708:    6461        ad      STR      r1,[r4,#0x44]
        0x0001970a:    69a9        .i      LDR      r1,[r5,#0x18]
        0x0001970c:    64a1        .d      STR      r1,[r4,#0x48]
        0x0001970e:    4620         F      MOV      r0,r4
        0x00019710:    69e9        .i      LDR      r1,[r5,#0x1c]
        0x00019712:    64e1        .d      STR      r1,[r4,#0x4c]
        0x00019714:    6506        .e      STR      r6,[r0,#0x50]
        0x00019716:    9800        ..      LDR      r0,[sp,#0]
        0x00019718:    f7fefe12    ....    BL       am_hal_interrupt_master_set ; 0x18340
        0x0001971c:    4620         F      MOV      r0,r4
        0x0001971e:    f002f8f7    ....    BL       nonblocking_read_sm ; 0x1b910
        0x00019722:    f894002c    ..,.    LDRB     r0,[r4,#0x2c]
        0x00019726:    2800        .(      CMP      r0,#0
        0x00019728:    d06c        l.      BEQ      0x19804 ; am_hal_uart_transfer + 620
        0x0001972a:    4620         F      MOV      r0,r4
        0x0001972c:    f002f8f0    ....    BL       nonblocking_read_sm ; 0x1b910
        0x00019730:    f44f707a    O.zp    MOV      r0,#0x3e8
        0x00019734:    f7fff82e    ....    BL       am_hal_delay_us ; 0x18794
        0x00019738:    6928        (i      LDR      r0,[r5,#0x10]
        0x0001973a:    e000        ..      B        0x1973e ; am_hal_uart_transfer + 422
        0x0001973c:    e025        %.      B        0x1978a ; am_hal_uart_transfer + 498
        0x0001973e:    f1b03fff    ...?    CMP      r0,#0xffffffff
        0x00019742:    d006        ..      BEQ      0x19752 ; am_hal_uart_transfer + 442
        0x00019744:    1c7f        ..      ADDS     r7,r7,#1
        0x00019746:    42b8        .B      CMP      r0,r7
        0x00019748:    d103        ..      BNE      0x19752 ; am_hal_uart_transfer + 442
        0x0001974a:    f884602c    ..,`    STRB     r6,[r4,#0x2c]
        0x0001974e:    4656        VF      MOV      r6,r10
        0x00019750:    e058        X.      B        0x19804 ; am_hal_uart_transfer + 620
        0x00019752:    f894002c    ..,.    LDRB     r0,[r4,#0x2c]
        0x00019756:    2800        .(      CMP      r0,#0
        0x00019758:    d1e7        ..      BNE      0x1972a ; am_hal_uart_transfer + 402
        0x0001975a:    e053        S.      B        0x19804 ; am_hal_uart_transfer + 620
        0x0001975c:    68ea        .h      LDR      r2,[r5,#0xc]
        0x0001975e:    2c00        .,      CMP      r4,#0
        0x00019760:    bf1a        ..      ITTE     NE
        0x00019762:    6823        #h      LDRNE    r3,[r4,#0]
        0x00019764:    f0137f80    ....    TSTNE    r3,#0x1000000
        0x00019768:    e8bd8ff8    ....    POPEQ    {r3-r11,pc}
        0x0001976c:    f023437f    #..C    BIC      r3,r3,#0xff000000
        0x00019770:    428b        .B      CMP      r3,r1
        0x00019772:    bf18        ..      IT       NE
        0x00019774:    e8bd8ff8    ....    POPNE    {r3-r11,pc}
        0x00019778:    2a00        .*      CMP      r2,#0
        0x0001977a:    bf18        ..      IT       NE
        0x0001977c:    6016        .`      STRNE    r6,[r2,#0]
        0x0001977e:    f7fefddb    ....    BL       am_hal_interrupt_master_disable ; 0x18338
        0x00019782:    9000        ..      STR      r0,[sp,#0]
        0x00019784:    f8940054    ..T.    LDRB     r0,[r4,#0x54]
        0x00019788:    b128        (.      CBZ      r0,0x19796 ; am_hal_uart_transfer + 510
        0x0001978a:    9800        ..      LDR      r0,[sp,#0]
        0x0001978c:    f7fefdd8    ....    BL       am_hal_interrupt_master_set ; 0x18340
        0x00019790:    4638        8F      MOV      r0,r7
        0x00019792:    e8bd8ff8    ....    POP      {r3-r11,pc}
        0x00019796:    f8849054    ..T.    STRB     r9,[r4,#0x54]
        0x0001979a:    7828        (x      LDRB     r0,[r5,#0]
        0x0001979c:    f8840058    ..X.    STRB     r0,[r4,#0x58]
        0x000197a0:    6868        hh      LDR      r0,[r5,#4]
        0x000197a2:    65e0        .e      STR      r0,[r4,#0x5c]
        0x000197a4:    68a8        .h      LDR      r0,[r5,#8]
        0x000197a6:    6620         f      STR      r0,[r4,#0x60]
        0x000197a8:    68e8        .h      LDR      r0,[r5,#0xc]
        0x000197aa:    6660        `f      STR      r0,[r4,#0x64]
        0x000197ac:    6928        (i      LDR      r0,[r5,#0x10]
        0x000197ae:    66a0        .f      STR      r0,[r4,#0x68]
        0x000197b0:    6968        hi      LDR      r0,[r5,#0x14]
        0x000197b2:    66e0        .f      STR      r0,[r4,#0x6c]
        0x000197b4:    69a8        .i      LDR      r0,[r5,#0x18]
        0x000197b6:    6720         g      STR      r0,[r4,#0x70]
        0x000197b8:    69e8        .i      LDR      r0,[r5,#0x1c]
        0x000197ba:    67a6        .g      STR      r6,[r4,#0x78]
        0x000197bc:    6760        `g      STR      r0,[r4,#0x74]
        0x000197be:    f88460b4    ...`    STRB     r6,[r4,#0xb4]
        0x000197c2:    9800        ..      LDR      r0,[sp,#0]
        0x000197c4:    f7fefdbc    ....    BL       am_hal_interrupt_master_set ; 0x18340
        0x000197c8:    4620         F      MOV      r0,r4
        0x000197ca:    f002f93b    ..;.    BL       nonblocking_write_sm ; 0x1ba44
        0x000197ce:    e019        ..      B        0x19804 ; am_hal_uart_transfer + 620
        0x000197d0:    f884902c    ..,.    STRB     r9,[r4,#0x2c]
        0x000197d4:    7828        (x      LDRB     r0,[r5,#0]
        0x000197d6:    f8840030    ..0.    STRB     r0,[r4,#0x30]
        0x000197da:    6868        hh      LDR      r0,[r5,#4]
        0x000197dc:    6360        `c      STR      r0,[r4,#0x34]
        0x000197de:    68a8        .h      LDR      r0,[r5,#8]
        0x000197e0:    63a0        .c      STR      r0,[r4,#0x38]
        0x000197e2:    68e8        .h      LDR      r0,[r5,#0xc]
        0x000197e4:    63e0        .c      STR      r0,[r4,#0x3c]
        0x000197e6:    6928        (i      LDR      r0,[r5,#0x10]
        0x000197e8:    6420         d      STR      r0,[r4,#0x40]
        0x000197ea:    6968        hi      LDR      r0,[r5,#0x14]
        0x000197ec:    6460        `d      STR      r0,[r4,#0x44]
        0x000197ee:    69a8        .i      LDR      r0,[r5,#0x18]
        0x000197f0:    64a0        .d      STR      r0,[r4,#0x48]
        0x000197f2:    69e8        .i      LDR      r0,[r5,#0x1c]
        0x000197f4:    6526        &e      STR      r6,[r4,#0x50]
        0x000197f6:    64e0        .d      STR      r0,[r4,#0x4c]
        0x000197f8:    9800        ..      LDR      r0,[sp,#0]
        0x000197fa:    f7fefda1    ....    BL       am_hal_interrupt_master_set ; 0x18340
        0x000197fe:    4620         F      MOV      r0,r4
        0x00019800:    f002f886    ....    BL       nonblocking_read_sm ; 0x1b910
        0x00019804:    4630        0F      MOV      r0,r6
        0x00019806:    e8bd8ff8    ....    POP      {r3-r11,pc}
    $d
        0x0001980a:    0000        ..      DCW    0
        0x0001980c:    00ea9e06    ....    DCD    15375878
        0x00019810:    08000004    ....    DCD    134217732
    $t
    i.am_hal_uart_tx_flush
    am_hal_uart_tx_flush
        0x00019814:    b570        p.      PUSH     {r4-r6,lr}
        0x00019816:    4604        .F      MOV      r4,r0
        0x00019818:    6a41        Aj      LDR      r1,[r0,#0x24]
        0x0001981a:    f89000b4    ....    LDRB     r0,[r0,#0xb4]
        0x0001981e:    2801        .(      CMP      r0,#1
        0x00019820:    d044        D.      BEQ      0x198ac ; am_hal_uart_tx_flush + 152
        0x00019822:    0308        ..      LSLS     r0,r1,#12
        0x00019824:    f1004580    ...E    ADD      r5,r0,#0x40000000
        0x00019828:    f50535e0    ...5    ADD      r5,r5,#0x1c000
        0x0001982c:    6ba8        .k      LDR      r0,[r5,#0x38]
        0x0001982e:    4e21        !N      LDR      r6,[pc,#132] ; [0x198b4] = 0xf4240
        0x00019830:    f0100f01    ....    TST      r0,#1
        0x00019834:    d010        ..      BEQ      0x19858 ; am_hal_uart_tx_flush + 68
        0x00019836:    f89400b4    ....    LDRB     r0,[r4,#0xb4]
        0x0001983a:    bbb8        ..      CBNZ     r0,0x198ac ; am_hal_uart_tx_flush + 152
        0x0001983c:    6aa0        .j      LDR      r0,[r4,#0x28]
        0x0001983e:    fbb6f0f0    ....    UDIV     r0,r6,r0
        0x00019842:    1c40        @.      ADDS     r0,r0,#1
        0x00019844:    eb000080    ....    ADD      r0,r0,r0,LSL #2
        0x00019848:    0040        @.      LSLS     r0,r0,#1
        0x0001984a:    f7feffa3    ....    BL       am_hal_delay_us ; 0x18794
        0x0001984e:    f89400b4    ....    LDRB     r0,[r4,#0xb4]
        0x00019852:    2800        .(      CMP      r0,#0
        0x00019854:    d0f2        ..      BEQ      0x1983c ; am_hal_uart_tx_flush + 40
        0x00019856:    e029        ).      B        0x198ac ; am_hal_uart_tx_flush + 152
        0x00019858:    f894007c    ..|.    LDRB     r0,[r4,#0x7c]
        0x0001985c:    2800        .(      CMP      r0,#0
        0x0001985e:    bf1c        ..      ITT      NE
        0x00019860:    f8d40088    ....    LDRNE    r0,[r4,#0x88]
        0x00019864:    2800        .(      CMPNE    r0,#0
        0x00019866:    d00e        ..      BEQ      0x19886 ; am_hal_uart_tx_flush + 114
        0x00019868:    6aa0        .j      LDR      r0,[r4,#0x28]
        0x0001986a:    fbb6f0f0    ....    UDIV     r0,r6,r0
        0x0001986e:    f1000001    ....    ADD      r0,r0,#1
        0x00019872:    eb000080    ....    ADD      r0,r0,r0,LSL #2
        0x00019876:    ea4f0040    O.@.    LSL      r0,r0,#1
        0x0001987a:    f7feff8b    ....    BL       am_hal_delay_us ; 0x18794
        0x0001987e:    f8d40088    ....    LDR      r0,[r4,#0x88]
        0x00019882:    2800        .(      CMP      r0,#0
        0x00019884:    d1f0        ..      BNE      0x19868 ; am_hal_uart_tx_flush + 84
        0x00019886:    69a8        .i      LDR      r0,[r5,#0x18]
        0x00019888:    f0100f08    ....    TST      r0,#8
        0x0001988c:    d00e        ..      BEQ      0x198ac ; am_hal_uart_tx_flush + 152
        0x0001988e:    6aa0        .j      LDR      r0,[r4,#0x28]
        0x00019890:    fbb6f0f0    ....    UDIV     r0,r6,r0
        0x00019894:    f1000001    ....    ADD      r0,r0,#1
        0x00019898:    eb000080    ....    ADD      r0,r0,r0,LSL #2
        0x0001989c:    ea4f0040    O.@.    LSL      r0,r0,#1
        0x000198a0:    f7feff78    ..x.    BL       am_hal_delay_us ; 0x18794
        0x000198a4:    69a8        .i      LDR      r0,[r5,#0x18]
        0x000198a6:    f0100f08    ....    TST      r0,#8
        0x000198aa:    d1f0        ..      BNE      0x1988e ; am_hal_uart_tx_flush + 122
        0x000198ac:    f04f0000    O...    MOV      r0,#0
        0x000198b0:    bd70        p.      POP      {r4-r6,pc}
    $d
        0x000198b2:    0000        ..      DCW    0
        0x000198b4:    000f4240    @B..    DCD    1000000
    $t
    i.am_sprintf
    am_sprintf
        0x000198b8:    b40f        ..      PUSH     {r0-r3}
        0x000198ba:    e92d41f0    -..A    PUSH     {r4-r8,lr}
        0x000198be:    4c18        .L      LDR      r4,[pc,#96] ; [0x19920] = 0x10000038
        0x000198c0:    2500        .%      MOVS     r5,#0
        0x000198c2:    6860        `h      LDR      r0,[r4,#4]
        0x000198c4:    f5b07f40    ..@.    CMP      r0,#0x300
        0x000198c8:    d224        $.      BCS      0x19914 ; am_sprintf + 92
        0x000198ca:    aa07        ..      ADD      r2,sp,#0x1c
        0x000198cc:    9906        ..      LDR      r1,[sp,#0x18]
        0x000198ce:    68a0        .h      LDR      r0,[r4,#8]
        0x000198d0:    f000f86e    ..n.    BL       am_util_stdio_vsprintf ; 0x199b0
        0x000198d4:    6861        ah      LDR      r1,[r4,#4]
        0x000198d6:    2700        .'      MOVS     r7,#0
        0x000198d8:    4401        .D      ADD      r1,r1,r0
        0x000198da:    f5b17f40    ..@.    CMP      r1,#0x300
        0x000198de:    d30e        ..      BCC      0x198fe ; am_sprintf + 70
        0x000198e0:    4e1a        .N      LDR      r6,[pc,#104] ; [0x1994c] = 0x10000128
        0x000198e2:    a110        ..      ADR      r1,{pc}+0x42 ; 0x19924
        0x000198e4:    f20620d7    ...     ADD      r0,r6,#0x2d7
        0x000198e8:    f000f858    ..X.    BL       am_util_stdio_sprintf ; 0x1999c
        0x000198ec:    f88672ff    ...r    STRB     r7,[r6,#0x2ff]
        0x000198f0:    f5067040    ..@p    ADD      r0,r6,#0x300
        0x000198f4:    60a0        .`      STR      r0,[r4,#8]
        0x000198f6:    f44f7040    O.@p    MOV      r0,#0x300
        0x000198fa:    6060        ``      STR      r0,[r4,#4]
        0x000198fc:    e00a        ..      B        0x19914 ; am_sprintf + 92
        0x000198fe:    68a1        .h      LDR      r1,[r4,#8]
        0x00019900:    4401        .D      ADD      r1,r1,r0
        0x00019902:    1c49        I.      ADDS     r1,r1,#1
        0x00019904:    60a1        .`      STR      r1,[r4,#8]
        0x00019906:    6861        ah      LDR      r1,[r4,#4]
        0x00019908:    4401        .D      ADD      r1,r1,r0
        0x0001990a:    6061        a`      STR      r1,[r4,#4]
        0x0001990c:    6861        ah      LDR      r1,[r4,#4]
        0x0001990e:    1c49        I.      ADDS     r1,r1,#1
        0x00019910:    6061        a`      STR      r1,[r4,#4]
        0x00019912:    4605        .F      MOV      r5,r0
        0x00019914:    4628        (F      MOV      r0,r5
        0x00019916:    e8bd01f0    ....    POP      {r4-r8}
        0x0001991a:    f85dfb14    ]...    LDR      pc,[sp],#0x14
    $d
        0x0001991e:    0000        ..      DCW    0
        0x00019920:    10000038    8...    DCD    268435512
        0x00019924:    46465542    BUFF    DCD    1179014466
        0x00019928:    4f205245    ER O    DCD    1327518277
        0x0001992c:    46524556    VERF    DCD    1179796822
        0x00019930:    45574f4c    LOWE    DCD    1163349836
        0x00019934:    49202144    D! I    DCD    1226842436
        0x00019938:    6572636e    ncre    DCD    1701995374
        0x0001993c:    20657361    ase     DCD    543519585
        0x00019940:    42545250    PRTB    DCD    1112822352
        0x00019944:    49534655    UFSI    DCD    1230194261
        0x00019948:    000a455a    ZE..    DCD    673114
        0x0001994c:    10000128    (...    DCD    268435752
    $t
    i.am_util_delay_ms
    am_util_delay_ms
        0x00019950:    f44f717a    O.zq    MOV      r1,#0x3e8
        0x00019954:    4348        HC      MULS     r0,r1,r0
        0x00019956:    f7febf1d    ....    B        am_hal_delay_us ; 0x18794
        0x0001995a:    0000        ..      MOVS     r0,r0
    i.am_util_stdio_printf
    am_util_stdio_printf
        0x0001995c:    b40f        ..      PUSH     {r0-r3}
        0x0001995e:    b570        p.      PUSH     {r4-r6,lr}
        0x00019960:    4c09        .L      LDR      r4,[pc,#36] ; [0x19988] = 0x1000009c
        0x00019962:    6860        `h      LDR      r0,[r4,#4]
        0x00019964:    2800        .(      CMP      r0,#0
        0x00019966:    bf04        ..      ITT      EQ
        0x00019968:    bc70        p.      POPEQ    {r4-r6}
        0x0001996a:    f85dfb14    ]...    LDREQ    pc,[sp],#0x14
        0x0001996e:    aa05        ..      ADD      r2,sp,#0x14
        0x00019970:    4806        .H      LDR      r0,[pc,#24] ; [0x1998c] = 0x10000428
        0x00019972:    9904        ..      LDR      r1,[sp,#0x10]
        0x00019974:    f000f81c    ....    BL       am_util_stdio_vsprintf ; 0x199b0
        0x00019978:    4605        .F      MOV      r5,r0
        0x0001997a:    6861        ah      LDR      r1,[r4,#4]
        0x0001997c:    4803        .H      LDR      r0,[pc,#12] ; [0x1998c] = 0x10000428
        0x0001997e:    4788        .G      BLX      r1
        0x00019980:    4628        (F      MOV      r0,r5
        0x00019982:    bc70        p.      POP      {r4-r6}
        0x00019984:    f85dfb14    ]...    LDR      pc,[sp],#0x14
    $d
        0x00019988:    1000009c    ....    DCD    268435612
        0x0001998c:    10000428    (...    DCD    268436520
    $t
    i.am_util_stdio_printf_init
    am_util_stdio_printf_init
        0x00019990:    4901        .I      LDR      r1,[pc,#4] ; [0x19998] = 0x1000009c
        0x00019992:    6048        H`      STR      r0,[r1,#4]
        0x00019994:    4770        pG      BX       lr
    $d
        0x00019996:    0000        ..      DCW    0
        0x00019998:    1000009c    ....    DCD    268435612
    $t
    i.am_util_stdio_sprintf
    am_util_stdio_sprintf
        0x0001999c:    b40f        ..      PUSH     {r0-r3}
        0x0001999e:    b510        ..      PUSH     {r4,lr}
        0x000199a0:    aa04        ..      ADD      r2,sp,#0x10
        0x000199a2:    9903        ..      LDR      r1,[sp,#0xc]
        0x000199a4:    f000f804    ....    BL       am_util_stdio_vsprintf ; 0x199b0
        0x000199a8:    bc10        ..      POP      {r4}
        0x000199aa:    f85dfb14    ]...    LDR      pc,[sp],#0x14
        0x000199ae:    0000        ..      MOVS     r0,r0
    i.am_util_stdio_vsprintf
    am_util_stdio_vsprintf
        0x000199b0:    e92d4ff7    -..O    PUSH     {r0-r2,r4-r11,lr}
        0x000199b4:    4604        .F      MOV      r4,r0
        0x000199b6:    7808        .x      LDRB     r0,[r1,#0]
        0x000199b8:    2500        .%      MOVS     r5,#0
        0x000199ba:    b088        ..      SUB      sp,sp,#0x20
        0x000199bc:    2800        .(      CMP      r0,#0
        0x000199be:    f0008385    ....    BEQ.W    0x1a0cc ; am_util_stdio_vsprintf + 1820
        0x000199c2:    bf00        ..      NOP      
        0x000199c4:    b2c0        ..      UXTB     r0,r0
        0x000199c6:    f04f0906    O...    MOV      r9,#6
        0x000199ca:    2825        %(      CMP      r0,#0x25
        0x000199cc:    d010        ..      BEQ      0x199f0 ; am_util_stdio_vsprintf + 64
        0x000199ce:    b15c        \.      CBZ      r4,0x199e8 ; am_util_stdio_vsprintf + 56
        0x000199d0:    280a        .(      CMP      r0,#0xa
        0x000199d2:    d106        ..      BNE      0x199e2 ; am_util_stdio_vsprintf + 50
        0x000199d4:    48fe        .H      LDR      r0,[pc,#1016] ; [0x19dd0] = 0x1000009c
        0x000199d6:    7800        .x      LDRB     r0,[r0,#0]
        0x000199d8:    b118        ..      CBZ      r0,0x199e2 ; am_util_stdio_vsprintf + 50
        0x000199da:    200d        .       MOVS     r0,#0xd
        0x000199dc:    f8040b01    ....    STRB     r0,[r4],#1
        0x000199e0:    1c6d        m.      ADDS     r5,r5,#1
        0x000199e2:    7808        .x      LDRB     r0,[r1,#0]
        0x000199e4:    f8040b01    ....    STRB     r0,[r4],#1
        0x000199e8:    1c49        I.      ADDS     r1,r1,#1
        0x000199ea:    1c6d        m.      ADDS     r5,r5,#1
        0x000199ec:    f000bb6a    ..j.    B.W      0x1a0c4 ; am_util_stdio_vsprintf + 1812
        0x000199f0:    2020                MOVS     r0,#0x20
        0x000199f2:    9001        ..      STR      r0,[sp,#4]
        0x000199f4:    2700        .'      MOVS     r7,#0
        0x000199f6:    f8110f01    ....    LDRB     r0,[r1,#1]!
        0x000199fa:    46bc        .F      MOV      r12,r7
        0x000199fc:    2830        0(      CMP      r0,#0x30
        0x000199fe:    d101        ..      BNE      0x19a04 ; am_util_stdio_vsprintf + 84
        0x00019a00:    1c49        I.      ADDS     r1,r1,#1
        0x00019a02:    9001        ..      STR      r0,[sp,#4]
        0x00019a04:    2600        .&      MOVS     r6,#0
        0x00019a06:    f891a000    ....    LDRB     r10,[r1,#0]
        0x00019a0a:    460a        .F      MOV      r2,r1
        0x00019a0c:    f10d0808    ....    ADD      r8,sp,#8
        0x00019a10:    4630        0F      MOV      r0,r6
        0x00019a12:    4633        3F      MOV      r3,r6
        0x00019a14:    f1ba0f2d    ..-.    CMP      r10,#0x2d
        0x00019a18:    d102        ..      BNE      0x19a20 ; am_util_stdio_vsprintf + 112
        0x00019a1a:    2601        .&      MOVS     r6,#1
        0x00019a1c:    1c4a        J.      ADDS     r2,r1,#1
        0x00019a1e:    4633        3F      MOV      r3,r6
        0x00019a20:    f892a000    ....    LDRB     r10,[r2,#0]
        0x00019a24:    f1aa0a30    ..0.    SUB      r10,r10,#0x30
        0x00019a28:    f1ba0f09    ....    CMP      r10,#9
        0x00019a2c:    d80f        ..      BHI      0x19a4e ; am_util_stdio_vsprintf + 158
        0x00019a2e:    bf00        ..      NOP      
        0x00019a30:    eb000080    ....    ADD      r0,r0,r0,LSL #2
        0x00019a34:    0040        @.      LSLS     r0,r0,#1
        0x00019a36:    f812ab01    ....    LDRB     r10,[r2],#1
        0x00019a3a:    3830        08      SUBS     r0,r0,#0x30
        0x00019a3c:    4450        PD      ADD      r0,r0,r10
        0x00019a3e:    f892a000    ....    LDRB     r10,[r2,#0]
        0x00019a42:    1c5b        [.      ADDS     r3,r3,#1
        0x00019a44:    f1aa0a30    ..0.    SUB      r10,r10,#0x30
        0x00019a48:    f1ba0f09    ....    CMP      r10,#9
        0x00019a4c:    d9f0        ..      BLS      0x19a30 ; am_util_stdio_vsprintf + 128
        0x00019a4e:    f1b80f00    ....    CMP      r8,#0
        0x00019a52:    bf18        ..      IT       NE
        0x00019a54:    9302        ..      STRNE    r3,[sp,#8]
        0x00019a56:    2e00        ..      CMP      r6,#0
        0x00019a58:    bf18        ..      IT       NE
        0x00019a5a:    4240        @B      RSBNE    r0,r0,#0
        0x00019a5c:    9000        ..      STR      r0,[sp,#0]
        0x00019a5e:    9802        ..      LDR      r0,[sp,#8]
        0x00019a60:    180e        ..      ADDS     r6,r1,r0
        0x00019a62:    7830        0x      LDRB     r0,[r6,#0]
        0x00019a64:    2873        s(      CMP      r0,#0x73
        0x00019a66:    d037        7.      BEQ      0x19ad8 ; am_util_stdio_vsprintf + 296
        0x00019a68:    9900        ..      LDR      r1,[sp,#0]
        0x00019a6a:    2900        .)      CMP      r1,#0
        0x00019a6c:    bfbc        ..      ITT      LT
        0x00019a6e:    4249        IB      RSBLT    r1,r1,#0
        0x00019a70:    9100        ..      STRLT    r1,[sp,#0]
        0x00019a72:    282e        .(      CMP      r0,#0x2e
        0x00019a74:    d003        ..      BEQ      0x19a7e ; am_util_stdio_vsprintf + 206
        0x00019a76:    7830        0x      LDRB     r0,[r6,#0]
        0x00019a78:    286c        l(      CMP      r0,#0x6c
        0x00019a7a:    d12d        -.      BNE      0x19ad8 ; am_util_stdio_vsprintf + 296
        0x00019a7c:    e025        %.      B        0x19aca ; am_util_stdio_vsprintf + 282
        0x00019a7e:    1c72        r.      ADDS     r2,r6,#1
        0x00019a80:    2300        .#      MOVS     r3,#0
        0x00019a82:    7811        .x      LDRB     r1,[r2,#0]
        0x00019a84:    4616        .F      MOV      r6,r2
        0x00019a86:    4699        .F      MOV      r9,r3
        0x00019a88:    4618        .F      MOV      r0,r3
        0x00019a8a:    292d        -)      CMP      r1,#0x2d
        0x00019a8c:    d102        ..      BNE      0x19a94 ; am_util_stdio_vsprintf + 228
        0x00019a8e:    2301        .#      MOVS     r3,#1
        0x00019a90:    1c56        V.      ADDS     r6,r2,#1
        0x00019a92:    4618        .F      MOV      r0,r3
        0x00019a94:    7831        1x      LDRB     r1,[r6,#0]
        0x00019a96:    3930        09      SUBS     r1,r1,#0x30
        0x00019a98:    2909        .)      CMP      r1,#9
        0x00019a9a:    d80b        ..      BHI      0x19ab4 ; am_util_stdio_vsprintf + 260
        0x00019a9c:    eb090189    ....    ADD      r1,r9,r9,LSL #2
        0x00019aa0:    0049        I.      LSLS     r1,r1,#1
        0x00019aa2:    f8169b01    ....    LDRB     r9,[r6],#1
        0x00019aa6:    3930        09      SUBS     r1,r1,#0x30
        0x00019aa8:    4489        .D      ADD      r9,r9,r1
        0x00019aaa:    7831        1x      LDRB     r1,[r6,#0]
        0x00019aac:    1c40        @.      ADDS     r0,r0,#1
        0x00019aae:    3930        09      SUBS     r1,r1,#0x30
        0x00019ab0:    2909        .)      CMP      r1,#9
        0x00019ab2:    d9f3        ..      BLS      0x19a9c ; am_util_stdio_vsprintf + 236
        0x00019ab4:    f1b80f00    ....    CMP      r8,#0
        0x00019ab8:    bf18        ..      IT       NE
        0x00019aba:    9002        ..      STRNE    r0,[sp,#8]
        0x00019abc:    2b00        .+      CMP      r3,#0
        0x00019abe:    bf18        ..      IT       NE
        0x00019ac0:    f1c90900    ....    RSBNE    r9,r9,#0
        0x00019ac4:    9802        ..      LDR      r0,[sp,#8]
        0x00019ac6:    1816        ..      ADDS     r6,r2,r0
        0x00019ac8:    e7d5        ..      B        0x19a76 ; am_util_stdio_vsprintf + 198
        0x00019aca:    f8160f01    ....    LDRB     r0,[r6,#1]!
        0x00019ace:    286c        l(      CMP      r0,#0x6c
        0x00019ad0:    bf04        ..      ITT      EQ
        0x00019ad2:    f04f0c01    O...    MOVEQ    r12,#1
        0x00019ad6:    1c76        v.      ADDEQ    r6,r6,#1
        0x00019ad8:    7830        0x      LDRB     r0,[r6,#0]
        0x00019ada:    2866        f(      CMP      r0,#0x66
        0x00019adc:    f000822a    ..*.    BEQ.W    0x19f34 ; am_util_stdio_vsprintf + 1412
        0x00019ae0:    dc0a        ..      BGT      0x19af8 ; am_util_stdio_vsprintf + 328
        0x00019ae2:    2846        F(      CMP      r0,#0x46
        0x00019ae4:    f0008226    ..&.    BEQ.W    0x19f34 ; am_util_stdio_vsprintf + 1412
        0x00019ae8:    2858        X(      CMP      r0,#0x58
        0x00019aea:    d07d        }.      BEQ      0x19be8 ; am_util_stdio_vsprintf + 568
        0x00019aec:    2863        c(      CMP      r0,#0x63
        0x00019aee:    d014        ..      BEQ      0x19b1a ; am_util_stdio_vsprintf + 362
        0x00019af0:    2864        d(      CMP      r0,#0x64
        0x00019af2:    f00081b5    ....    BEQ.W    0x19e60 ; am_util_stdio_vsprintf + 1200
        0x00019af6:    e00b        ..      B        0x19b10 ; am_util_stdio_vsprintf + 352
        0x00019af8:    2869        i(      CMP      r0,#0x69
        0x00019afa:    f00081b1    ....    BEQ.W    0x19e60 ; am_util_stdio_vsprintf + 1200
        0x00019afe:    2873        s(      CMP      r0,#0x73
        0x00019b00:    d016        ..      BEQ      0x19b30 ; am_util_stdio_vsprintf + 384
        0x00019b02:    2875        u(      CMP      r0,#0x75
        0x00019b04:    f000810c    ....    BEQ.W    0x19d20 ; am_util_stdio_vsprintf + 880
        0x00019b08:    2878        x(      CMP      r0,#0x78
        0x00019b0a:    bf08        ..      IT       EQ
        0x00019b0c:    2701        .'      MOVEQ    r7,#1
        0x00019b0e:    d06e        n.      BEQ      0x19bee ; am_util_stdio_vsprintf + 574
        0x00019b10:    2c00        .,      CMP      r4,#0
        0x00019b12:    bf18        ..      IT       NE
        0x00019b14:    f8040b01    ....    STRBNE   r0,[r4],#1
        0x00019b18:    e007        ..      B        0x19b2a ; am_util_stdio_vsprintf + 378
        0x00019b1a:    980a        ..      LDR      r0,[sp,#0x28]
        0x00019b1c:    2c00        .,      CMP      r4,#0
        0x00019b1e:    f8101b04    ....    LDRB     r1,[r0],#4
        0x00019b22:    900a        ..      STR      r0,[sp,#0x28]
        0x00019b24:    bf18        ..      IT       NE
        0x00019b26:    f8041b01    ....    STRBNE   r1,[r4],#1
        0x00019b2a:    1c6d        m.      ADDS     r5,r5,#1
        0x00019b2c:    f000bac9    ....    B.W      0x1a0c2 ; am_util_stdio_vsprintf + 1810
        0x00019b30:    990a        ..      LDR      r1,[sp,#0x28]
        0x00019b32:    2200        ."      MOVS     r2,#0
        0x00019b34:    f8510b04    Q...    LDR      r0,[r1],#4
        0x00019b38:    910a        ..      STR      r1,[sp,#0x28]
        0x00019b3a:    b140        @.      CBZ      r0,0x19b4e ; am_util_stdio_vsprintf + 414
        0x00019b3c:    7803        .x      LDRB     r3,[r0,#0]
        0x00019b3e:    1c41        A.      ADDS     r1,r0,#1
        0x00019b40:    b12b        +.      CBZ      r3,0x19b4e ; am_util_stdio_vsprintf + 414
        0x00019b42:    bf00        ..      NOP      
        0x00019b44:    f8113b01    ...;    LDRB     r3,[r1],#1
        0x00019b48:    1c52        R.      ADDS     r2,r2,#1
        0x00019b4a:    2b00        .+      CMP      r3,#0
        0x00019b4c:    d1fa        ..      BNE      0x19b44 ; am_util_stdio_vsprintf + 404
        0x00019b4e:    9900        ..      LDR      r1,[sp,#0]
        0x00019b50:    2900        .)      CMP      r1,#0
        0x00019b52:    dd1e        ..      BLE      0x19b92 ; am_util_stdio_vsprintf + 482
        0x00019b54:    428a        .B      CMP      r2,r1
        0x00019b56:    d21c        ..      BCS      0x19b92 ; am_util_stdio_vsprintf + 482
        0x00019b58:    1a8b        ..      SUBS     r3,r1,r2
        0x00019b5a:    9f01        ..      LDR      r7,[sp,#4]
        0x00019b5c:    4621        !F      MOV      r1,r4
        0x00019b5e:    f04f0c00    O...    MOV      r12,#0
        0x00019b62:    2b00        .+      CMP      r3,#0
        0x00019b64:    bfc4        ..      ITT      GT
        0x00019b66:    1e5b        [.      SUBGT    r3,r3,#1
        0x00019b68:    f1b33fff    ...?    CMPGT    r3,#0xffffffff
        0x00019b6c:    dd09        ..      BLE      0x19b82 ; am_util_stdio_vsprintf + 466
        0x00019b6e:    2900        .)      CMP      r1,#0
        0x00019b70:    bf18        ..      IT       NE
        0x00019b72:    f8017b01    ...{    STRBNE   r7,[r1],#1
        0x00019b76:    1e5b        [.      SUBS     r3,r3,#1
        0x00019b78:    f10c0c01    ....    ADD      r12,r12,#1
        0x00019b7c:    f1b33fff    ...?    CMP      r3,#0xffffffff
        0x00019b80:    dcf5        ..      BGT      0x19b6e ; am_util_stdio_vsprintf + 446
        0x00019b82:    2c00        .,      CMP      r4,#0
        0x00019b84:    bf14        ..      ITE      NE
        0x00019b86:    4661        aF      MOVNE    r1,r12
        0x00019b88:    2100        .!      MOVEQ    r1,#0
        0x00019b8a:    440c        .D      ADD      r4,r4,r1
        0x00019b8c:    2100        .!      MOVS     r1,#0
        0x00019b8e:    4465        eD      ADD      r5,r5,r12
        0x00019b90:    9100        ..      STR      r1,[sp,#0]
        0x00019b92:    7801        .x      LDRB     r1,[r0,#0]
        0x00019b94:    b139        9.      CBZ      r1,0x19ba6 ; am_util_stdio_vsprintf + 502
        0x00019b96:    b10c        ..      CBZ      r4,0x19b9c ; am_util_stdio_vsprintf + 492
        0x00019b98:    f8041b01    ....    STRB     r1,[r4],#1
        0x00019b9c:    f8101f01    ....    LDRB     r1,[r0,#1]!
        0x00019ba0:    1c6d        m.      ADDS     r5,r5,#1
        0x00019ba2:    2900        .)      CMP      r1,#0
        0x00019ba4:    d1f7        ..      BNE      0x19b96 ; am_util_stdio_vsprintf + 486
        0x00019ba6:    9800        ..      LDR      r0,[sp,#0]
        0x00019ba8:    2800        .(      CMP      r0,#0
        0x00019baa:    bf1c        ..      ITT      NE
        0x00019bac:    4240        @B      RSBNE    r0,r0,#0
        0x00019bae:    4282        .B      CMPNE    r2,r0
        0x00019bb0:    f0808287    ....    BCS.W    0x1a0c2 ; am_util_stdio_vsprintf + 1810
        0x00019bb4:    1a82        ..      SUBS     r2,r0,r2
        0x00019bb6:    2000        .       MOVS     r0,#0
        0x00019bb8:    9b01        ..      LDR      r3,[sp,#4]
        0x00019bba:    4621        !F      MOV      r1,r4
        0x00019bbc:    2a00        .*      CMP      r2,#0
        0x00019bbe:    bfc4        ..      ITT      GT
        0x00019bc0:    1e52        R.      SUBGT    r2,r2,#1
        0x00019bc2:    f1b23fff    ...?    CMPGT    r2,#0xffffffff
        0x00019bc6:    dd08        ..      BLE      0x19bda ; am_util_stdio_vsprintf + 554
        0x00019bc8:    2900        .)      CMP      r1,#0
        0x00019bca:    bf18        ..      IT       NE
        0x00019bcc:    f8013b01    ...;    STRBNE   r3,[r1],#1
        0x00019bd0:    1c40        @.      ADDS     r0,r0,#1
        0x00019bd2:    1e52        R.      SUBS     r2,r2,#1
        0x00019bd4:    f1b23fff    ...?    CMP      r2,#0xffffffff
        0x00019bd8:    dcf6        ..      BGT      0x19bc8 ; am_util_stdio_vsprintf + 536
        0x00019bda:    2c00        .,      CMP      r4,#0
        0x00019bdc:    bf14        ..      ITE      NE
        0x00019bde:    4601        .F      MOVNE    r1,r0
        0x00019be0:    2100        .!      MOVEQ    r1,#0
        0x00019be2:    440c        .D      ADD      r4,r4,r1
        0x00019be4:    4405        .D      ADD      r5,r5,r0
        0x00019be6:    e000        ..      B        0x19bea ; am_util_stdio_vsprintf + 570
        0x00019be8:    e001        ..      B        0x19bee ; am_util_stdio_vsprintf + 574
        0x00019bea:    f000ba6a    ..j.    B.W      0x1a0c2 ; am_util_stdio_vsprintf + 1810
        0x00019bee:    f1bc0f00    ....    CMP      r12,#0
        0x00019bf2:    d007        ..      BEQ      0x19c04 ; am_util_stdio_vsprintf + 596
        0x00019bf4:    980a        ..      LDR      r0,[sp,#0x28]
        0x00019bf6:    1dc0        ..      ADDS     r0,r0,#7
        0x00019bf8:    f0200207     ...    BIC      r2,r0,#7
        0x00019bfc:    e8f20102    ....    LDRD     r0,r1,[r2],#8
        0x00019c00:    920a        ..      STR      r2,[sp,#0x28]
        0x00019c02:    e004        ..      B        0x19c0e ; am_util_stdio_vsprintf + 606
        0x00019c04:    990a        ..      LDR      r1,[sp,#0x28]
        0x00019c06:    f8510b04    Q...    LDR      r0,[r1],#4
        0x00019c0a:    910a        ..      STR      r1,[sp,#0x28]
        0x00019c0c:    2100        .!      MOVS     r1,#0
        0x00019c0e:    9a00        ..      LDR      r2,[sp,#0]
        0x00019c10:    b38a        ..      CBZ      r2,0x19c76 ; am_util_stdio_vsprintf + 710
        0x00019c12:    460b        .F      MOV      r3,r1
        0x00019c14:    4602        .F      MOV      r2,r0
        0x00019c16:    ea500c03    P...    ORRS     r12,r0,r3
        0x00019c1a:    bf0c        ..      ITE      EQ
        0x00019c1c:    f04f0c01    O...    MOVEQ    r12,#1
        0x00019c20:    f04f0c00    O...    MOVNE    r12,#0
        0x00019c24:    d008        ..      BEQ      0x19c38 ; am_util_stdio_vsprintf + 648
        0x00019c26:    0912        ..      LSRS     r2,r2,#4
        0x00019c28:    ea427203    B..r    ORR      r2,r2,r3,LSL #28
        0x00019c2c:    091b        ..      LSRS     r3,r3,#4
        0x00019c2e:    f10c0c01    ....    ADD      r12,r12,#1
        0x00019c32:    ea520803    R...    ORRS     r8,r2,r3
        0x00019c36:    d1f6        ..      BNE      0x19c26 ; am_util_stdio_vsprintf + 630
        0x00019c38:    9a00        ..      LDR      r2,[sp,#0]
        0x00019c3a:    9b01        ..      LDR      r3,[sp,#4]
        0x00019c3c:    eba2020c    ....    SUB      r2,r2,r12
        0x00019c40:    46a4        .F      MOV      r12,r4
        0x00019c42:    f04f0800    O...    MOV      r8,#0
        0x00019c46:    2a00        .*      CMP      r2,#0
        0x00019c48:    bfc4        ..      ITT      GT
        0x00019c4a:    1e52        R.      SUBGT    r2,r2,#1
        0x00019c4c:    f1b23fff    ...?    CMPGT    r2,#0xffffffff
        0x00019c50:    dd0b        ..      BLE      0x19c6a ; am_util_stdio_vsprintf + 698
        0x00019c52:    bf00        ..      NOP      
        0x00019c54:    f1bc0f00    ....    CMP      r12,#0
        0x00019c58:    bf18        ..      IT       NE
        0x00019c5a:    f80c3b01    ...;    STRBNE   r3,[r12],#1
        0x00019c5e:    1e52        R.      SUBS     r2,r2,#1
        0x00019c60:    f1080801    ....    ADD      r8,r8,#1
        0x00019c64:    f1b23fff    ...?    CMP      r2,#0xffffffff
        0x00019c68:    dcf4        ..      BGT      0x19c54 ; am_util_stdio_vsprintf + 676
        0x00019c6a:    2c00        .,      CMP      r4,#0
        0x00019c6c:    bf14        ..      ITE      NE
        0x00019c6e:    4642        BF      MOVNE    r2,r8
        0x00019c70:    2200        ."      MOVEQ    r2,#0
        0x00019c72:    4414        .D      ADD      r4,r4,r2
        0x00019c74:    4445        ED      ADD      r5,r5,r8
        0x00019c76:    46a0        .F      MOV      r8,r4
        0x00019c78:    f04f0c00    O...    MOV      r12,#0
        0x00019c7c:    ea500201    P...    ORRS     r2,r0,r1
        0x00019c80:    d106        ..      BNE      0x19c90 ; am_util_stdio_vsprintf + 736
        0x00019c82:    bf00        ..      NOP      
        0x00019c84:    f04f0230    O.0.    MOV      r2,#0x30
        0x00019c88:    f88d200c    ...     STRB     r2,[sp,#0xc]
        0x00019c8c:    f04f0c01    O...    MOV      r12,#1
        0x00019c90:    bf18        ..      IT       NE
        0x00019c92:    ab03        ..      ADDNE    r3,sp,#0xc
        0x00019c94:    d017        ..      BEQ      0x19cc6 ; am_util_stdio_vsprintf + 790
        0x00019c96:    bf00        ..      NOP      
        0x00019c98:    f000020f    ....    AND      r2,r0,#0xf
        0x00019c9c:    2a09        .*      CMP      r2,#9
        0x00019c9e:    d906        ..      BLS      0x19cae ; am_util_stdio_vsprintf + 766
        0x00019ca0:    2f00        ./      CMP      r7,#0
        0x00019ca2:    bf14        ..      ITE      NE
        0x00019ca4:    f04f0927    O.'.    MOVNE    r9,#0x27
        0x00019ca8:    f04f0907    O...    MOVEQ    r9,#7
        0x00019cac:    444a        JD      ADD      r2,r2,r9
        0x00019cae:    3230        02      ADDS     r2,r2,#0x30
        0x00019cb0:    0900        ..      LSRS     r0,r0,#4
        0x00019cb2:    f803200c    ...     STRB     r2,[r3,r12]
        0x00019cb6:    ea407001    @..p    ORR      r0,r0,r1,LSL #28
        0x00019cba:    0909        ..      LSRS     r1,r1,#4
        0x00019cbc:    f10c0c01    ....    ADD      r12,r12,#1
        0x00019cc0:    ea500201    P...    ORRS     r2,r0,r1
        0x00019cc4:    d1e8        ..      BNE      0x19c98 ; am_util_stdio_vsprintf + 744
        0x00019cc6:    f1b80f00    ....    CMP      r8,#0
        0x00019cca:    d022        ".      BEQ      0x19d12 ; am_util_stdio_vsprintf + 866
        0x00019ccc:    f1ac0301    ....    SUB      r3,r12,#1
        0x00019cd0:    f1bc0200    ....    SUBS     r2,r12,#0
        0x00019cd4:    dd1a        ..      BLE      0x19d0c ; am_util_stdio_vsprintf + 860
        0x00019cd6:    a803        ..      ADD      r0,sp,#0xc
        0x00019cd8:    4418        .D      ADD      r0,r0,r3
        0x00019cda:    1c41        A.      ADDS     r1,r0,#1
        0x00019cdc:    f1a80001    ....    SUB      r0,r8,#1
        0x00019ce0:    f0130f01    ....    TST      r3,#1
        0x00019ce4:    d103        ..      BNE      0x19cee ; am_util_stdio_vsprintf + 830
        0x00019ce6:    f8117d01    ...}    LDRB     r7,[r1,#-1]!
        0x00019cea:    f8007f01    ....    STRB     r7,[r0,#1]!
        0x00019cee:    1052        R.      ASRS     r2,r2,#1
        0x00019cf0:    d009        ..      BEQ      0x19d06 ; am_util_stdio_vsprintf + 854
        0x00019cf2:    bf00        ..      NOP      
        0x00019cf4:    f8117c01    ...|    LDRB     r7,[r1,#-1]
        0x00019cf8:    7047        Gp      STRB     r7,[r0,#1]
        0x00019cfa:    f8117d02    ...}    LDRB     r7,[r1,#-2]!
        0x00019cfe:    f8007f02    ....    STRB     r7,[r0,#2]!
        0x00019d02:    1e52        R.      SUBS     r2,r2,#1
        0x00019d04:    d1f6        ..      BNE      0x19cf4 ; am_util_stdio_vsprintf + 836
        0x00019d06:    18e0        ..      ADDS     r0,r4,r3
        0x00019d08:    f1000801    ....    ADD      r8,r0,#1
        0x00019d0c:    2000        .       MOVS     r0,#0
        0x00019d0e:    f8880000    ....    STRB     r0,[r8,#0]
        0x00019d12:    2c00        .,      CMP      r4,#0
        0x00019d14:    bf18        ..      IT       NE
        0x00019d16:    4464        dD      ADDNE    r4,r4,r12
        0x00019d18:    4465        eD      ADD      r5,r5,r12
        0x00019d1a:    f000b9d2    ....    B.W      0x1a0c2 ; am_util_stdio_vsprintf + 1810
        0x00019d1e:    bf00        ..      NOP      
        0x00019d20:    980a        ..      LDR      r0,[sp,#0x28]
        0x00019d22:    f1bc0f00    ....    CMP      r12,#0
        0x00019d26:    d006        ..      BEQ      0x19d36 ; am_util_stdio_vsprintf + 902
        0x00019d28:    1dc0        ..      ADDS     r0,r0,#7
        0x00019d2a:    f0200107     ...    BIC      r1,r0,#7
        0x00019d2e:    e8f1e002    ....    LDRD     lr,r0,[r1],#8
        0x00019d32:    910a        ..      STR      r1,[sp,#0x28]
        0x00019d34:    e003        ..      B        0x19d3e ; am_util_stdio_vsprintf + 910
        0x00019d36:    f850eb04    P...    LDR      lr,[r0],#4
        0x00019d3a:    900a        ..      STR      r0,[sp,#0x28]
        0x00019d3c:    2000        .       MOVS     r0,#0
        0x00019d3e:    9003        ..      STR      r0,[sp,#0xc]
        0x00019d40:    9800        ..      LDR      r0,[sp,#0]
        0x00019d42:    2800        .(      CMP      r0,#0
        0x00019d44:    d07e        ~.      BEQ      0x19e44 ; am_util_stdio_vsprintf + 1172
        0x00019d46:    9903        ..      LDR      r1,[sp,#0xc]
        0x00019d48:    4670        pF      MOV      r0,lr
        0x00019d4a:    ea5e0201    ^...    ORRS     r2,lr,r1
        0x00019d4e:    bf0e        ..      ITEE     EQ
        0x00019d50:    2301        .#      MOVEQ    r3,#1
        0x00019d52:    2300        .#      MOVNE    r3,#0
        0x00019d54:    f04f0c00    O...    MOVNE    r12,#0
        0x00019d58:    d05e        ^.      BEQ      0x19e18 ; am_util_stdio_vsprintf + 1128
        0x00019d5a:    b3c1        ..      CBZ      r1,0x19dce ; am_util_stdio_vsprintf + 1054
        0x00019d5c:    084a        J.      LSRS     r2,r1,#1
        0x00019d5e:    ea4f0990    O...    LSR      r9,r0,#2
        0x00019d62:    ea4f0730    O.0.    RRX      r7,r0
        0x00019d66:    ea497881    I..x    ORR      r8,r9,r1,LSL #30
        0x00019d6a:    eb170708    ....    ADDS     r7,r7,r8
        0x00019d6e:    eb420291    B...    ADC      r2,r2,r1,LSR #2
        0x00019d72:    ea4f1917    O...    LSR      r9,r7,#4
        0x00019d76:    ea497802    I..x    ORR      r8,r9,r2,LSL #28
        0x00019d7a:    eb180707    ....    ADDS     r7,r8,r7
        0x00019d7e:    eb421812    B...    ADC      r8,r2,r2,LSR #4
        0x00019d82:    ea4f2917    O..)    LSR      r9,r7,#8
        0x00019d86:    ea496208    I..b    ORR      r2,r9,r8,LSL #24
        0x00019d8a:    19d2        ..      ADDS     r2,r2,r7
        0x00019d8c:    eb482718    H..'    ADC      r7,r8,r8,LSR #8
        0x00019d90:    ea4f4912    O..I    LSR      r9,r2,#16
        0x00019d94:    ea494807    I..H    ORR      r8,r9,r7,LSL #16
        0x00019d98:    eb180802    ....    ADDS     r8,r8,r2
        0x00019d9c:    eb474217    G..B    ADC      r2,r7,r7,LSR #16
        0x00019da0:    eb180702    ....    ADDS     r7,r8,r2
        0x00019da4:    eb42020c    B...    ADC      r2,r2,r12
        0x00019da8:    08ff        ..      LSRS     r7,r7,#3
        0x00019daa:    ea477742    G.Bw    ORR      r7,r7,r2,LSL #29
        0x00019dae:    f04f080a    O...    MOV      r8,#0xa
        0x00019db2:    fba7ab08    ....    UMULL    r10,r11,r7,r8
        0x00019db6:    08d2        ..      LSRS     r2,r2,#3
        0x00019db8:    fb02b808    ....    MLA      r8,r2,r8,r11
        0x00019dbc:    f04f0900    O...    MOV      r9,#0
        0x00019dc0:    fb078909    ....    MLA      r9,r7,r9,r8
        0x00019dc4:    ebb0080a    ....    SUBS     r8,r0,r10
        0x00019dc8:    eb610009    a...    SBC      r0,r1,r9
        0x00019dcc:    e002        ..      B        0x19dd4 ; am_util_stdio_vsprintf + 1060
        0x00019dce:    e00c        ..      B        0x19dea ; am_util_stdio_vsprintf + 1082
    $d
        0x00019dd0:    1000009c    ....    DCD    268435612
    $t
        0x00019dd4:    f1180106    ....    ADDS     r1,r8,#6
        0x00019dd8:    f1400800    @...    ADC      r8,r0,#0
        0x00019ddc:    0909        ..      LSRS     r1,r1,#4
        0x00019dde:    ea417008    A..p    ORR      r0,r1,r8,LSL #28
        0x00019de2:    19c0        ..      ADDS     r0,r0,r7
        0x00019de4:    eb421118    B...    ADC      r1,r2,r8,LSR #4
        0x00019de8:    e012        ..      B        0x19e10 ; am_util_stdio_vsprintf + 1120
        0x00019dea:    0841        A.      LSRS     r1,r0,#1
        0x00019dec:    eb010190    ....    ADD      r1,r1,r0,LSR #2
        0x00019df0:    eb011111    ....    ADD      r1,r1,r1,LSR #4
        0x00019df4:    eb012111    ...!    ADD      r1,r1,r1,LSR #8
        0x00019df8:    eb014111    ...A    ADD      r1,r1,r1,LSR #16
        0x00019dfc:    08c9        ..      LSRS     r1,r1,#3
        0x00019dfe:    424a        JB      RSBS     r2,r1,#0
        0x00019e00:    eb020282    ....    ADD      r2,r2,r2,LSL #2
        0x00019e04:    eb000042    ..B.    ADD      r0,r0,r2,LSL #1
        0x00019e08:    1d80        ..      ADDS     r0,r0,#6
        0x00019e0a:    eb011010    ....    ADD      r0,r1,r0,LSR #4
        0x00019e0e:    4661        aF      MOV      r1,r12
        0x00019e10:    1c5b        [.      ADDS     r3,r3,#1
        0x00019e12:    ea500201    P...    ORRS     r2,r0,r1
        0x00019e16:    d1a0        ..      BNE      0x19d5a ; am_util_stdio_vsprintf + 938
        0x00019e18:    9800        ..      LDR      r0,[sp,#0]
        0x00019e1a:    2100        .!      MOVS     r1,#0
        0x00019e1c:    1ac2        ..      SUBS     r2,r0,r3
        0x00019e1e:    9b01        ..      LDR      r3,[sp,#4]
        0x00019e20:    4620         F      MOV      r0,r4
        0x00019e22:    2a00        .*      CMP      r2,#0
        0x00019e24:    bfc4        ..      ITT      GT
        0x00019e26:    1e52        R.      SUBGT    r2,r2,#1
        0x00019e28:    f1b23fff    ...?    CMPGT    r2,#0xffffffff
        0x00019e2c:    dd08        ..      BLE      0x19e40 ; am_util_stdio_vsprintf + 1168
        0x00019e2e:    2800        .(      CMP      r0,#0
        0x00019e30:    bf18        ..      IT       NE
        0x00019e32:    f8003b01    ...;    STRBNE   r3,[r0],#1
        0x00019e36:    1c49        I.      ADDS     r1,r1,#1
        0x00019e38:    1e52        R.      SUBS     r2,r2,#1
        0x00019e3a:    f1b23fff    ...?    CMP      r2,#0xffffffff
        0x00019e3e:    dcf6        ..      BGT      0x19e2e ; am_util_stdio_vsprintf + 1150
        0x00019e40:    2c00        .,      CMP      r4,#0
        0x00019e42:    e000        ..      B        0x19e46 ; am_util_stdio_vsprintf + 1174
        0x00019e44:    e004        ..      B        0x19e50 ; am_util_stdio_vsprintf + 1184
        0x00019e46:    bf14        ..      ITE      NE
        0x00019e48:    4608        .F      MOVNE    r0,r1
        0x00019e4a:    2000        .       MOVEQ    r0,#0
        0x00019e4c:    4404        .D      ADD      r4,r4,r0
        0x00019e4e:    440d        .D      ADD      r5,r5,r1
        0x00019e50:    4622        "F      MOV      r2,r4
        0x00019e52:    4670        pF      MOV      r0,lr
        0x00019e54:    9903        ..      LDR      r1,[sp,#0xc]
        0x00019e56:    f002f887    ....    BL       uint64_to_str ; 0x1bf68
        0x00019e5a:    bbdc        ..      CBNZ     r4,0x19ed4 ; am_util_stdio_vsprintf + 1316
        0x00019e5c:    4405        .D      ADD      r5,r5,r0
        0x00019e5e:    e130        0.      B        0x1a0c2 ; am_util_stdio_vsprintf + 1810
        0x00019e60:    980a        ..      LDR      r0,[sp,#0x28]
        0x00019e62:    f1bc0f00    ....    CMP      r12,#0
        0x00019e66:    d006        ..      BEQ      0x19e76 ; am_util_stdio_vsprintf + 1222
        0x00019e68:    1dc0        ..      ADDS     r0,r0,#7
        0x00019e6a:    f0200007     ...    BIC      r0,r0,#7
        0x00019e6e:    e8f08702    ....    LDRD     r8,r7,[r0],#8
        0x00019e72:    900a        ..      STR      r0,[sp,#0x28]
        0x00019e74:    e004        ..      B        0x19e80 ; am_util_stdio_vsprintf + 1232
        0x00019e76:    f8508b04    P...    LDR      r8,[r0],#4
        0x00019e7a:    900a        ..      STR      r0,[sp,#0x28]
        0x00019e7c:    ea4f77e8    O..w    ASR      r7,r8,#31
        0x00019e80:    2f00        ./      CMP      r7,#0
        0x00019e82:    bfa8        ..      IT       GE
        0x00019e84:    f04f0900    O...    MOVGE    r9,#0
        0x00019e88:    da06        ..      BGE      0x19e98 ; am_util_stdio_vsprintf + 1256
        0x00019e8a:    2000        .       MOVS     r0,#0
        0x00019e8c:    f1d80800    ....    RSBS     r8,r8,#0
        0x00019e90:    eb600707    `...    SBC      r7,r0,r7
        0x00019e94:    f04f0901    O...    MOV      r9,#1
        0x00019e98:    9800        ..      LDR      r0,[sp,#0]
        0x00019e9a:    b3d8        ..      CBZ      r0,0x19f14 ; am_util_stdio_vsprintf + 1380
        0x00019e9c:    4640        @F      MOV      r0,r8
        0x00019e9e:    0039        9.      MOVS     r1,r7
        0x00019ea0:    d503        ..      BPL      0x19eaa ; am_util_stdio_vsprintf + 1274
        0x00019ea2:    2200        ."      MOVS     r2,#0
        0x00019ea4:    4240        @B      RSBS     r0,r0,#0
        0x00019ea6:    eb620107    b...    SBC      r1,r2,r7
        0x00019eaa:    f001fcce    ....    BL       ndigits_in_u64 ; 0x1b84a
        0x00019eae:    9900        ..      LDR      r1,[sp,#0]
        0x00019eb0:    1a0a        ..      SUBS     r2,r1,r0
        0x00019eb2:    f1b90f00    ....    CMP      r9,#0
        0x00019eb6:    d008        ..      BEQ      0x19eca ; am_util_stdio_vsprintf + 1306
        0x00019eb8:    9801        ..      LDR      r0,[sp,#4]
        0x00019eba:    1e52        R.      SUBS     r2,r2,#1
        0x00019ebc:    2830        0(      CMP      r0,#0x30
        0x00019ebe:    d104        ..      BNE      0x19eca ; am_util_stdio_vsprintf + 1306
        0x00019ec0:    b114        ..      CBZ      r4,0x19ec8 ; am_util_stdio_vsprintf + 1304
        0x00019ec2:    202d        -       MOVS     r0,#0x2d
        0x00019ec4:    f8040b01    ....    STRB     r0,[r4],#1
        0x00019ec8:    1c6d        m.      ADDS     r5,r5,#1
        0x00019eca:    2100        .!      MOVS     r1,#0
        0x00019ecc:    4620         F      MOV      r0,r4
        0x00019ece:    9b01        ..      LDR      r3,[sp,#4]
        0x00019ed0:    2a00        .*      CMP      r2,#0
        0x00019ed2:    e000        ..      B        0x19ed6 ; am_util_stdio_vsprintf + 1318
        0x00019ed4:    e02c        ,.      B        0x19f30 ; am_util_stdio_vsprintf + 1408
        0x00019ed6:    bfc4        ..      ITT      GT
        0x00019ed8:    1e52        R.      SUBGT    r2,r2,#1
        0x00019eda:    f1b23fff    ...?    CMPGT    r2,#0xffffffff
        0x00019ede:    dd08        ..      BLE      0x19ef2 ; am_util_stdio_vsprintf + 1346
        0x00019ee0:    2800        .(      CMP      r0,#0
        0x00019ee2:    bf18        ..      IT       NE
        0x00019ee4:    f8003b01    ...;    STRBNE   r3,[r0],#1
        0x00019ee8:    1c49        I.      ADDS     r1,r1,#1
        0x00019eea:    1e52        R.      SUBS     r2,r2,#1
        0x00019eec:    f1b23fff    ...?    CMP      r2,#0xffffffff
        0x00019ef0:    dcf6        ..      BGT      0x19ee0 ; am_util_stdio_vsprintf + 1328
        0x00019ef2:    2c00        .,      CMP      r4,#0
        0x00019ef4:    bf14        ..      ITE      NE
        0x00019ef6:    4608        .F      MOVNE    r0,r1
        0x00019ef8:    2000        .       MOVEQ    r0,#0
        0x00019efa:    4404        .D      ADD      r4,r4,r0
        0x00019efc:    440d        .D      ADD      r5,r5,r1
        0x00019efe:    f1b90f00    ....    CMP      r9,#0
        0x00019f02:    d00e        ..      BEQ      0x19f22 ; am_util_stdio_vsprintf + 1394
        0x00019f04:    9801        ..      LDR      r0,[sp,#4]
        0x00019f06:    2820         (      CMP      r0,#0x20
        0x00019f08:    d10b        ..      BNE      0x19f22 ; am_util_stdio_vsprintf + 1394
        0x00019f0a:    b14c        L.      CBZ      r4,0x19f20 ; am_util_stdio_vsprintf + 1392
        0x00019f0c:    202d        -       MOVS     r0,#0x2d
        0x00019f0e:    f8040b01    ....    STRB     r0,[r4],#1
        0x00019f12:    e005        ..      B        0x19f20 ; am_util_stdio_vsprintf + 1392
        0x00019f14:    e7ff        ..      B        0x19f16 ; am_util_stdio_vsprintf + 1382
        0x00019f16:    f1b90f00    ....    CMP      r9,#0
        0x00019f1a:    d002        ..      BEQ      0x19f22 ; am_util_stdio_vsprintf + 1394
        0x00019f1c:    2c00        .,      CMP      r4,#0
        0x00019f1e:    d1f5        ..      BNE      0x19f0c ; am_util_stdio_vsprintf + 1372
        0x00019f20:    1c6d        m.      ADDS     r5,r5,#1
        0x00019f22:    4622        "F      MOV      r2,r4
        0x00019f24:    4640        @F      MOV      r0,r8
        0x00019f26:    4639        9F      MOV      r1,r7
        0x00019f28:    f002f81e    ....    BL       uint64_to_str ; 0x1bf68
        0x00019f2c:    2c00        .,      CMP      r4,#0
        0x00019f2e:    d095        ..      BEQ      0x19e5c ; am_util_stdio_vsprintf + 1196
        0x00019f30:    4404        .D      ADD      r4,r4,r0
        0x00019f32:    e793        ..      B        0x19e5c ; am_util_stdio_vsprintf + 1196
        0x00019f34:    2c00        .,      CMP      r4,#0
        0x00019f36:    d07d        }.      BEQ      0x1a034 ; am_util_stdio_vsprintf + 1668
        0x00019f38:    980a        ..      LDR      r0,[sp,#0x28]
        0x00019f3a:    1dc0        ..      ADDS     r0,r0,#7
        0x00019f3c:    f0200007     ...    BIC      r0,r0,#7
        0x00019f40:    ecb00b02    ....    VLDM     r0!,{d0}
        0x00019f44:    900a        ..      STR      r0,[sp,#0x28]
        0x00019f46:    ec510b10    Q...    VMOV     r0,r1,d0
        0x00019f4a:    f002f8a1    ....    BL       __aeabi_d2f ; 0x1c090
        0x00019f4e:    ee000a10    ....    VMOV     s0,r0
        0x00019f52:    f04f0a14    O...    MOV      r10,#0x14
        0x00019f56:    4627        'F      MOV      r7,r4
        0x00019f58:    eeb50ac0    ....    VCMPE.F32 s0,#0.0
        0x00019f5c:    f8c4a000    ....    STR      r10,[r4,#0]
        0x00019f60:    eef1fa10    ....    VMRS     APSR_nzcv,FPSCR
        0x00019f64:    d103        ..      BNE      0x19f6e ; am_util_stdio_vsprintf + 1470
        0x00019f66:    485f        _H      LDR      r0,[pc,#380] ; [0x1a0e4] = 0x302e30
        0x00019f68:    6020         `      STR      r0,[r4,#0]
        0x00019f6a:    2003        .       MOVS     r0,#3
        0x00019f6c:    e0a7        ..      B        0x1a0be ; am_util_stdio_vsprintf + 1806
        0x00019f6e:    ee100a10    ....    VMOV     r0,s0
        0x00019f72:    f04f0800    O...    MOV      r8,#0
        0x00019f76:    46a3        .F      MOV      r11,r4
        0x00019f78:    f3c051c7    ...Q    UBFX     r1,r0,#23,#8
        0x00019f7c:    f020427f     ..B    BIC      r2,r0,#0xff000000
        0x00019f80:    397f        .9      SUBS     r1,r1,#0x7f
        0x00019f82:    f4420200    B...    ORR      r2,r2,#0x800000
        0x00019f86:    4643        CF      MOV      r3,r8
        0x00019f88:    291f        .)      CMP      r1,#0x1f
        0x00019f8a:    da7d        }.      BGE      0x1a088 ; am_util_stdio_vsprintf + 1752
        0x00019f8c:    f1110f17    ....    CMN      r1,#0x17
        0x00019f90:    db7b        {.      BLT      0x1a08a ; am_util_stdio_vsprintf + 1754
        0x00019f92:    2917        .)      CMP      r1,#0x17
        0x00019f94:    bfa4        ..      ITT      GE
        0x00019f96:    3917        .9      SUBGE    r1,r1,#0x17
        0x00019f98:    fa02f301    ....    LSLGE    r3,r2,r1
        0x00019f9c:    da0e        ..      BGE      0x19fbc ; am_util_stdio_vsprintf + 1548
        0x00019f9e:    2900        .)      CMP      r1,#0
        0x00019fa0:    bfbc        ..      ITT      LT
        0x00019fa2:    43c9        .C      MVNLT    r1,r1
        0x00019fa4:    fa22f801    "...    LSRLT    r8,r2,r1
        0x00019fa8:    db08        ..      BLT      0x19fbc ; am_util_stdio_vsprintf + 1548
        0x00019faa:    f1c10317    ....    RSB      r3,r1,#0x17
        0x00019fae:    fa42f303    B...    ASR      r3,r2,r3
        0x00019fb2:    1c49        I.      ADDS     r1,r1,#1
        0x00019fb4:    fa02f101    ....    LSL      r1,r2,r1
        0x00019fb8:    f021487f    !..H    BIC      r8,r1,#0xff000000
        0x00019fbc:    2800        .(      CMP      r0,#0
        0x00019fbe:    da03        ..      BGE      0x19fc8 ; am_util_stdio_vsprintf + 1560
        0x00019fc0:    202d        -       MOVS     r0,#0x2d
        0x00019fc2:    7038        8p      STRB     r0,[r7,#0]
        0x00019fc4:    f10b0701    ....    ADD      r7,r11,#1
        0x00019fc8:    2b00        .+      CMP      r3,#0
        0x00019fca:    bf04        ..      ITT      EQ
        0x00019fcc:    2030        0       MOVEQ    r0,#0x30
        0x00019fce:    f8070b01    ....    STRBEQ   r0,[r7],#1
        0x00019fd2:    d015        ..      BEQ      0x1a000 ; am_util_stdio_vsprintf + 1616
        0x00019fd4:    dd06        ..      BLE      0x19fe4 ; am_util_stdio_vsprintf + 1588
        0x00019fd6:    463a        :F      MOV      r2,r7
        0x00019fd8:    4618        .F      MOV      r0,r3
        0x00019fda:    ea4f71e3    O..q    ASR      r1,r3,#31
        0x00019fde:    f001ffc3    ....    BL       uint64_to_str ; 0x1bf68
        0x00019fe2:    e007        ..      B        0x19ff4 ; am_util_stdio_vsprintf + 1604
        0x00019fe4:    202d        -       MOVS     r0,#0x2d
        0x00019fe6:    f8070b01    ....    STRB     r0,[r7],#1
        0x00019fea:    4258        XB      RSBS     r0,r3,#0
        0x00019fec:    463a        :F      MOV      r2,r7
        0x00019fee:    17c1        ..      ASRS     r1,r0,#31
        0x00019ff0:    f001ffba    ....    BL       uint64_to_str ; 0x1bf68
        0x00019ff4:    7838        8x      LDRB     r0,[r7,#0]
        0x00019ff6:    b118        ..      CBZ      r0,0x1a000 ; am_util_stdio_vsprintf + 1616
        0x00019ff8:    f8170f01    ....    LDRB     r0,[r7,#1]!
        0x00019ffc:    2800        .(      CMP      r0,#0
        0x00019ffe:    d1fb        ..      BNE      0x19ff8 ; am_util_stdio_vsprintf + 1608
        0x0001a000:    202e        .       MOVS     r0,#0x2e
        0x0001a002:    1c7a        z.      ADDS     r2,r7,#1
        0x0001a004:    7038        8p      STRB     r0,[r7,#0]
        0x0001a006:    f1b80f00    ....    CMP      r8,#0
        0x0001a00a:    d041        A.      BEQ      0x1a090 ; am_util_stdio_vsprintf + 1760
        0x0001a00c:    eba2000b    ....    SUB      r0,r2,r11
        0x0001a010:    ebaa0000    ....    SUB      r0,r10,r0
        0x0001a014:    f1a00c01    ....    SUB      r12,r0,#1
        0x0001a018:    45cc        .E      CMP      r12,r9
        0x0001a01a:    bfc8        ..      IT       GT
        0x0001a01c:    46cc        .F      MOVGT    r12,r9
        0x0001a01e:    f1bc0f00    ....    CMP      r12,#0
        0x0001a022:    dd11        ..      BLE      0x1a048 ; am_util_stdio_vsprintf + 1688
        0x0001a024:    4617        .F      MOV      r7,r2
        0x0001a026:    4660        `F      MOV      r0,r12
        0x0001a028:    f05f0330    _.0.    MOVS.W   r3,#0x30
        0x0001a02c:    eb080188    ....    ADD      r1,r8,r8,LSL #2
        0x0001a030:    0049        I.      LSLS     r1,r1,#1
        0x0001a032:    e000        ..      B        0x1a036 ; am_util_stdio_vsprintf + 1670
        0x0001a034:    e045        E.      B        0x1a0c2 ; am_util_stdio_vsprintf + 1810
        0x0001a036:    eb036821    ..!h    ADD      r8,r3,r1,ASR #24
        0x0001a03a:    f8078b01    ....    STRB     r8,[r7],#1
        0x0001a03e:    f021487f    !..H    BIC      r8,r1,#0xff000000
        0x0001a042:    1e40        @.      SUBS     r0,r0,#1
        0x0001a044:    d1f2        ..      BNE      0x1a02c ; am_util_stdio_vsprintf + 1660
        0x0001a046:    4462        bD      ADD      r2,r2,r12
        0x0001a048:    eb080088    ....    ADD      r0,r8,r8,LSL #2
        0x0001a04c:    0041        A.      LSLS     r1,r0,#1
        0x0001a04e:    2005        .       MOVS     r0,#5
        0x0001a050:    ebb06f21    ..!o    CMP      r0,r1,ASR #24
        0x0001a054:    dc24        $.      BGT      0x1a0a0 ; am_util_stdio_vsprintf + 1776
        0x0001a056:    1e50        P.      SUBS     r0,r2,#1
        0x0001a058:    ebab0300    ....    SUB      r3,r11,r0
        0x0001a05c:    2101        .!      MOVS     r1,#1
        0x0001a05e:    f1c30301    ....    RSB      r3,r3,#1
        0x0001a062:    2b01        .+      CMP      r3,#1
        0x0001a064:    bfa8        ..      IT       GE
        0x0001a066:    2730        0'      MOVGE    r7,#0x30
        0x0001a068:    db1a        ..      BLT      0x1a0a0 ; am_util_stdio_vsprintf + 1776
        0x0001a06a:    bf00        ..      NOP      
        0x0001a06c:    f890c000    ....    LDRB     r12,[r0,#0]
        0x0001a070:    f1bc0f2e    ....    CMP      r12,#0x2e
        0x0001a074:    d010        ..      BEQ      0x1a098 ; am_util_stdio_vsprintf + 1768
        0x0001a076:    f1bc0f39    ..9.    CMP      r12,#0x39
        0x0001a07a:    bf08        ..      IT       EQ
        0x0001a07c:    7007        .p      STRBEQ   r7,[r0,#0]
        0x0001a07e:    d00b        ..      BEQ      0x1a098 ; am_util_stdio_vsprintf + 1768
        0x0001a080:    f00c01ff    ....    AND      r1,r12,#0xff
        0x0001a084:    1c49        I.      ADDS     r1,r1,#1
        0x0001a086:    e001        ..      B        0x1a08c ; am_util_stdio_vsprintf + 1756
        0x0001a088:    e02a        *.      B        0x1a0e0 ; am_util_stdio_vsprintf + 1840
        0x0001a08a:    e027        '.      B        0x1a0dc ; am_util_stdio_vsprintf + 1836
        0x0001a08c:    7001        .p      STRB     r1,[r0,#0]
        0x0001a08e:    e007        ..      B        0x1a0a0 ; am_util_stdio_vsprintf + 1776
        0x0001a090:    2030        0       MOVS     r0,#0x30
        0x0001a092:    f8020b01    ....    STRB     r0,[r2],#1
        0x0001a096:    e003        ..      B        0x1a0a0 ; am_util_stdio_vsprintf + 1776
        0x0001a098:    1e40        @.      SUBS     r0,r0,#1
        0x0001a09a:    1c49        I.      ADDS     r1,r1,#1
        0x0001a09c:    428b        .B      CMP      r3,r1
        0x0001a09e:    dae5        ..      BGE      0x1a06c ; am_util_stdio_vsprintf + 1724
        0x0001a0a0:    2000        .       MOVS     r0,#0
        0x0001a0a2:    7010        .p      STRB     r0,[r2,#0]
        0x0001a0a4:    ebb2000b    ....    SUBS     r0,r2,r11
        0x0001a0a8:    d509        ..      BPL      0x1a0be ; am_util_stdio_vsprintf + 1806
        0x0001a0aa:    f1b03fff    ...?    CMP      r0,#0xffffffff
        0x0001a0ae:    d015        ..      BEQ      0x1a0dc ; am_util_stdio_vsprintf + 1836
        0x0001a0b0:    f1100f02    ....    CMN      r0,#2
        0x0001a0b4:    bf18        ..      IT       NE
        0x0001a0b6:    480c        .H      LDRNE    r0,[pc,#48] ; [0x1a0e8] = 0x3f2e3f
        0x0001a0b8:    d012        ..      BEQ      0x1a0e0 ; am_util_stdio_vsprintf + 1840
        0x0001a0ba:    6020         `      STR      r0,[r4,#0]
        0x0001a0bc:    2003        .       MOVS     r0,#3
        0x0001a0be:    4405        .D      ADD      r5,r5,r0
        0x0001a0c0:    4404        .D      ADD      r4,r4,r0
        0x0001a0c2:    1c71        q.      ADDS     r1,r6,#1
        0x0001a0c4:    7808        .x      LDRB     r0,[r1,#0]
        0x0001a0c6:    2800        .(      CMP      r0,#0
        0x0001a0c8:    f47fac7c    ..|.    BNE      0x199c4 ; am_util_stdio_vsprintf + 20
        0x0001a0cc:    2c00        .,      CMP      r4,#0
        0x0001a0ce:    bf1c        ..      ITT      NE
        0x0001a0d0:    2000        .       MOVNE    r0,#0
        0x0001a0d2:    7020         p      STRBNE   r0,[r4,#0]
        0x0001a0d4:    4628        (F      MOV      r0,r5
        0x0001a0d6:    b00b        ..      ADD      sp,sp,#0x2c
        0x0001a0d8:    e8bd8ff0    ....    POP      {r4-r11,pc}
        0x0001a0dc:    4801        .H      LDR      r0,[pc,#4] ; [0x1a0e4] = 0x302e30
        0x0001a0de:    e7ec        ..      B        0x1a0ba ; am_util_stdio_vsprintf + 1802
        0x0001a0e0:    4802        .H      LDR      r0,[pc,#8] ; [0x1a0ec] = 0x232e23
        0x0001a0e2:    e7ea        ..      B        0x1a0ba ; am_util_stdio_vsprintf + 1802
    $d
        0x0001a0e4:    00302e30    0.0.    DCD    3157552
        0x0001a0e8:    003f2e3f    ?.?.    DCD    4140607
        0x0001a0ec:    00232e23    #.#.    DCD    2305571
    $t
    i.calc_func
    calc_func
        0x0001a0f0:    b5f0        ..      PUSH     {r4-r7,lr}
        0x0001a0f2:    f9b06000    ...`    LDRSH    r6,[r0,#0]
        0x0001a0f6:    4607        .F      MOV      r7,r0
        0x0001a0f8:    f3c610c0    ....    UBFX     r0,r6,#7,#1
        0x0001a0fc:    b083        ..      SUB      sp,sp,#0xc
        0x0001a0fe:    460c        .F      MOV      r4,r1
        0x0001a100:    2800        .(      CMP      r0,#0
        0x0001a102:    bf1e        ..      ITTT     NE
        0x0001a104:    f006007f    ....    ANDNE    r0,r6,#0x7f
        0x0001a108:    b003        ..      ADDNE    sp,sp,#0xc
        0x0001a10a:    bdf0        ..      POPNE    {r4-r7,pc}
        0x0001a10c:    f0160007    ....    ANDS     r0,r6,#7
        0x0001a110:    f3c601c3    ....    UBFX     r1,r6,#3,#4
        0x0001a114:    ea411101    A...    ORR      r1,r1,r1,LSL #4
        0x0001a118:    d012        ..      BEQ      0x1a140 ; calc_func + 80
        0x0001a11a:    2801        .(      CMP      r0,#1
        0x0001a11c:    bf18        ..      IT       NE
        0x0001a11e:    4635        5F      MOVNE    r5,r6
        0x0001a120:    d022        ".      BEQ      0x1a168 ; calc_func + 120
        0x0001a122:    8f21        !.      LDRH     r1,[r4,#0x38]
        0x0001a124:    b2a8        ..      UXTH     r0,r5
        0x0001a126:    f000fc51    ..Q.    BL       crcu16 ; 0x1a9cc
        0x0001a12a:    8720         .      STRH     r0,[r4,#0x38]
        0x0001a12c:    f005007f    ....    AND      r0,r5,#0x7f
        0x0001a130:    f406417f    ...A    AND      r1,r6,#0xff00
        0x0001a134:    4301        .C      ORRS     r1,r1,r0
        0x0001a136:    f0410180    A...    ORR      r1,r1,#0x80
        0x0001a13a:    8039        9.      STRH     r1,[r7,#0]
        0x0001a13c:    b003        ..      ADD      sp,sp,#0xc
        0x0001a13e:    bdf0        ..      POP      {r4-r7,pc}
        0x0001a140:    2922        ")      CMP      r1,#0x22
        0x0001a142:    bfb8        ..      IT       LT
        0x0001a144:    2122        "!      MOVLT    r1,#0x22
        0x0001a146:    8f20         .      LDRH     r0,[r4,#0x38]
        0x0001a148:    e9cd1000    ....    STRD     r1,r0,[sp,#0]
        0x0001a14c:    e9d41005    ....    LDRD     r1,r0,[r4,#0x14]
        0x0001a150:    f9b43002    ...0    LDRSH    r3,[r4,#2]
        0x0001a154:    f9b42000    ...     LDRSH    r2,[r4,#0]
        0x0001a158:    f000f90f    ....    BL       core_bench_state ; 0x1a37a
        0x0001a15c:    b205        ..      SXTH     r5,r0
        0x0001a15e:    8fe0        ..      LDRH     r0,[r4,#0x3e]
        0x0001a160:    2800        .(      CMP      r0,#0
        0x0001a162:    bf08        ..      IT       EQ
        0x0001a164:    87e5        ..      STRHEQ   r5,[r4,#0x3e]
        0x0001a166:    e7dc        ..      B        0x1a122 ; calc_func + 50
        0x0001a168:    8f22        ".      LDRH     r2,[r4,#0x38]
        0x0001a16a:    f1040028    ..(.    ADD      r0,r4,#0x28
        0x0001a16e:    f000f8f3    ....    BL       core_bench_matrix ; 0x1a358
        0x0001a172:    b205        ..      SXTH     r5,r0
        0x0001a174:    8fa0        ..      LDRH     r0,[r4,#0x3c]
        0x0001a176:    2800        .(      CMP      r0,#0
        0x0001a178:    bf08        ..      IT       EQ
        0x0001a17a:    87a5        ..      STRHEQ   r5,[r4,#0x3c]
        0x0001a17c:    e7d1        ..      B        0x1a122 ; calc_func + 50
    i.check_data_types
    check_data_types
        0x0001a17e:    2000        .       MOVS     r0,#0
        0x0001a180:    4770        pG      BX       lr
    i.cmp_complex
    cmp_complex
        0x0001a182:    b570        p.      PUSH     {r4-r6,lr}
        0x0001a184:    460e        .F      MOV      r6,r1
        0x0001a186:    4615        .F      MOV      r5,r2
        0x0001a188:    4611        .F      MOV      r1,r2
        0x0001a18a:    f7ffffb1    ....    BL       calc_func ; 0x1a0f0
        0x0001a18e:    4604        .F      MOV      r4,r0
        0x0001a190:    4629        )F      MOV      r1,r5
        0x0001a192:    4630        0F      MOV      r0,r6
        0x0001a194:    f7ffffac    ....    BL       calc_func ; 0x1a0f0
        0x0001a198:    1a20         .      SUBS     r0,r4,r0
        0x0001a19a:    bd70        p.      POP      {r4-r6,pc}
    i.cmp_idx
    cmp_idx
        0x0001a19c:    b96a        j.      CBNZ     r2,0x1a1ba ; cmp_idx + 30
        0x0001a19e:    8802        ..      LDRH     r2,[r0,#0]
        0x0001a1a0:    f402437f    ...C    AND      r3,r2,#0xff00
        0x0001a1a4:    f3c22207    ..."    UBFX     r2,r2,#8,#8
        0x0001a1a8:    431a        .C      ORRS     r2,r2,r3
        0x0001a1aa:    8002        ..      STRH     r2,[r0,#0]
        0x0001a1ac:    880a        ..      LDRH     r2,[r1,#0]
        0x0001a1ae:    f402437f    ...C    AND      r3,r2,#0xff00
        0x0001a1b2:    f3c22207    ..."    UBFX     r2,r2,#8,#8
        0x0001a1b6:    431a        .C      ORRS     r2,r2,r3
        0x0001a1b8:    800a        ..      STRH     r2,[r1,#0]
        0x0001a1ba:    f9b00002    ....    LDRSH    r0,[r0,#2]
        0x0001a1be:    f9b11002    ....    LDRSH    r1,[r1,#2]
        0x0001a1c2:    1a40        @.      SUBS     r0,r0,r1
        0x0001a1c4:    4770        pG      BX       lr
        0x0001a1c6:    0000        ..      MOVS     r0,r0
    i.core_bench_list
    core_bench_list
        0x0001a1c8:    e92d5ff0    -.._    PUSH     {r4-r12,lr}
        0x0001a1cc:    f04f0c00    O...    MOV      r12,#0
        0x0001a1d0:    468a        .F      MOV      r10,r1
        0x0001a1d2:    f9b0b004    ....    LDRSH    r11,[r0,#4]
        0x0001a1d6:    4667        gF      MOV      r7,r12
        0x0001a1d8:    463e        >F      MOV      r6,r7
        0x0001a1da:    6a45        Ej      LDR      r5,[r0,#0x24]
        0x0001a1dc:    4602        .F      MOV      r2,r0
        0x0001a1de:    46e1        .F      MOV      r9,r12
        0x0001a1e0:    46e0        .F      MOV      r8,r12
        0x0001a1e2:    f36a461f    j..F    BFI      r6,r10,#16,#16
        0x0001a1e6:    4661        aF      MOV      r1,r12
        0x0001a1e8:    f1bb0f00    ....    CMP      r11,#0
        0x0001a1ec:    dd45        E.      BLE      0x1a27a ; core_bench_list + 178
        0x0001a1ee:    b2c8        ..      UXTB     r0,r1
        0x0001a1f0:    f360060f    `...    BFI      r6,r0,#0,#16
        0x0001a1f4:    462c        ,F      MOV      r4,r5
        0x0001a1f6:    1433        3.      ASRS     r3,r6,#16
        0x0001a1f8:    d408        ..      BMI      0x1a20c ; core_bench_list + 68
        0x0001a1fa:    b184        ..      CBZ      r4,0x1a21e ; core_bench_list + 86
        0x0001a1fc:    6860        `h      LDR      r0,[r4,#4]
        0x0001a1fe:    f9b00002    ....    LDRSH    r0,[r0,#2]
        0x0001a202:    4298        .B      CMP      r0,r3
        0x0001a204:    bf18        ..      IT       NE
        0x0001a206:    6824        $h      LDRNE    r4,[r4,#0]
        0x0001a208:    d1f7        ..      BNE      0x1a1fa ; core_bench_list + 50
        0x0001a20a:    e008        ..      B        0x1a21e ; core_bench_list + 86
        0x0001a20c:    b13c        <.      CBZ      r4,0x1a21e ; core_bench_list + 86
        0x0001a20e:    f8d4e004    ....    LDR      lr,[r4,#4]
        0x0001a212:    f89ee000    ....    LDRB     lr,[lr,#0]
        0x0001a216:    4586        .E      CMP      lr,r0
        0x0001a218:    bf18        ..      IT       NE
        0x0001a21a:    6824        $h      LDRNE    r4,[r4,#0]
        0x0001a21c:    d1f6        ..      BNE      0x1a20c ; core_bench_list + 68
        0x0001a21e:    2000        .       MOVS     r0,#0
        0x0001a220:    b13d        =.      CBZ      r5,0x1a232 ; core_bench_list + 106
        0x0001a222:    bf00        ..      NOP      
        0x0001a224:    f8d5e000    ....    LDR      lr,[r5,#0]
        0x0001a228:    6028        (`      STR      r0,[r5,#0]
        0x0001a22a:    4628        (F      MOV      r0,r5
        0x0001a22c:    ea5f050e    _...    MOVS     r5,lr
        0x0001a230:    d1f8        ..      BNE      0x1a224 ; core_bench_list + 92
        0x0001a232:    4605        .F      MOV      r5,r0
        0x0001a234:    2c00        .,      CMP      r4,#0
        0x0001a236:    d048        H.      BEQ      0x1a2ca ; core_bench_list + 258
        0x0001a238:    f1090001    ....    ADD      r0,r9,#1
        0x0001a23c:    fa1ff980    ....    UXTH     r9,r0
        0x0001a240:    6860        `h      LDR      r0,[r4,#4]
        0x0001a242:    f9b00000    ....    LDRSH    r0,[r0,#0]
        0x0001a246:    f0100f01    ....    TST      r0,#1
        0x0001a24a:    d004        ..      BEQ      0x1a256 ; core_bench_list + 142
        0x0001a24c:    f3c02040    ..@     UBFX     r0,r0,#9,#1
        0x0001a250:    4460        `D      ADD      r0,r0,r12
        0x0001a252:    fa1ffc80    ....    UXTH     r12,r0
        0x0001a256:    6820         h      LDR      r0,[r4,#0]
        0x0001a258:    b130        0.      CBZ      r0,0x1a268 ; core_bench_list + 160
        0x0001a25a:    f8d0e000    ....    LDR      lr,[r0,#0]
        0x0001a25e:    f8c4e000    ....    STR      lr,[r4,#0]
        0x0001a262:    682c        ,h      LDR      r4,[r5,#0]
        0x0001a264:    6004        .`      STR      r4,[r0,#0]
        0x0001a266:    6028        (`      STR      r0,[r5,#0]
        0x0001a268:    2b00        .+      CMP      r3,#0
        0x0001a26a:    bfa4        ..      ITT      GE
        0x0001a26c:    1c58        X.      ADDGE    r0,r3,#1
        0x0001a26e:    f360461f    `..F    BFIGE    r6,r0,#16,#16
        0x0001a272:    1c48        H.      ADDS     r0,r1,#1
        0x0001a274:    b201        ..      SXTH     r1,r0
        0x0001a276:    4559        YE      CMP      r1,r11
        0x0001a278:    dbb9        ..      BLT      0x1a1ee ; core_bench_list + 38
        0x0001a27a:    ebc80089    ....    RSB      r0,r8,r9,LSL #2
        0x0001a27e:    4460        `D      ADD      r0,r0,r12
        0x0001a280:    fa1ff880    ....    UXTH     r8,r0
        0x0001a284:    f1ba0f00    ....    CMP      r10,#0
        0x0001a288:    dd04        ..      BLE      0x1a294 ; core_bench_list + 204
        0x0001a28a:    4931        1I      LDR      r1,[pc,#196] ; [0x1a350] = 0x1a183
        0x0001a28c:    4628        (F      MOV      r0,r5
        0x0001a28e:    f000fa4d    ..M.    BL       core_list_mergesort ; 0x1a72c
        0x0001a292:    4605        .F      MOV      r5,r0
        0x0001a294:    6828        (h      LDR      r0,[r5,#0]
        0x0001a296:    e9d09100    ....    LDRD     r9,r1,[r0,#0]
        0x0001a29a:    f8d92004    ...     LDR      r2,[r9,#4]
        0x0001a29e:    6042        B`      STR      r2,[r0,#4]
        0x0001a2a0:    f8c91004    ....    STR      r1,[r9,#4]
        0x0001a2a4:    6801        .h      LDR      r1,[r0,#0]
        0x0001a2a6:    6809        .h      LDR      r1,[r1,#0]
        0x0001a2a8:    6001        .`      STR      r1,[r0,#0]
        0x0001a2aa:    4628        (F      MOV      r0,r5
        0x0001a2ac:    f8c97000    ...p    STR      r7,[r9,#0]
        0x0001a2b0:    1431        1.      ASRS     r1,r6,#16
        0x0001a2b2:    bf48        H.      IT       MI
        0x0001a2b4:    b231        1.      SXTHMI   r1,r6
        0x0001a2b6:    d415        ..      BMI      0x1a2e4 ; core_bench_list + 284
        0x0001a2b8:    b1e8        ..      CBZ      r0,0x1a2f6 ; core_bench_list + 302
        0x0001a2ba:    6842        Bh      LDR      r2,[r0,#4]
        0x0001a2bc:    f9b22002    ...     LDRSH    r2,[r2,#2]
        0x0001a2c0:    428a        .B      CMP      r2,r1
        0x0001a2c2:    bf18        ..      IT       NE
        0x0001a2c4:    6800        .h      LDRNE    r0,[r0,#0]
        0x0001a2c6:    d1f7        ..      BNE      0x1a2b8 ; core_bench_list + 240
        0x0001a2c8:    e013        ..      B        0x1a2f2 ; core_bench_list + 298
        0x0001a2ca:    f1080001    ....    ADD      r0,r8,#1
        0x0001a2ce:    fa1ff880    ....    UXTH     r8,r0
        0x0001a2d2:    6828        (h      LDR      r0,[r5,#0]
        0x0001a2d4:    6840        @h      LDR      r0,[r0,#4]
        0x0001a2d6:    8800        ..      LDRH     r0,[r0,#0]
        0x0001a2d8:    f3c02000    ...     UBFX     r0,r0,#8,#1
        0x0001a2dc:    4460        `D      ADD      r0,r0,r12
        0x0001a2de:    fa1ffc80    ....    UXTH     r12,r0
        0x0001a2e2:    e7c1        ..      B        0x1a268 ; core_bench_list + 160
        0x0001a2e4:    b138        8.      CBZ      r0,0x1a2f6 ; core_bench_list + 302
        0x0001a2e6:    6842        Bh      LDR      r2,[r0,#4]
        0x0001a2e8:    7812        .x      LDRB     r2,[r2,#0]
        0x0001a2ea:    428a        .B      CMP      r2,r1
        0x0001a2ec:    bf18        ..      IT       NE
        0x0001a2ee:    6800        .h      LDRNE    r0,[r0,#0]
        0x0001a2f0:    d1f8        ..      BNE      0x1a2e4 ; core_bench_list + 284
        0x0001a2f2:    4604        .F      MOV      r4,r0
        0x0001a2f4:    e001        ..      B        0x1a2fa ; core_bench_list + 306
        0x0001a2f6:    682c        ,h      LDR      r4,[r5,#0]
        0x0001a2f8:    b14c        L.      CBZ      r4,0x1a30e ; core_bench_list + 326
        0x0001a2fa:    6868        hh      LDR      r0,[r5,#4]
        0x0001a2fc:    4641        AF      MOV      r1,r8
        0x0001a2fe:    f9b00000    ....    LDRSH    r0,[r0,#0]
        0x0001a302:    f000fb3b    ..;.    BL       crc16 ; 0x1a97c
        0x0001a306:    6824        $h      LDR      r4,[r4,#0]
        0x0001a308:    4680        .F      MOV      r8,r0
        0x0001a30a:    2c00        .,      CMP      r4,#0
        0x0001a30c:    d1f5        ..      BNE      0x1a2fa ; core_bench_list + 306
        0x0001a30e:    6828        (h      LDR      r0,[r5,#0]
        0x0001a310:    f8d91004    ....    LDR      r1,[r9,#4]
        0x0001a314:    6842        Bh      LDR      r2,[r0,#4]
        0x0001a316:    f8c92004    ...     STR      r2,[r9,#4]
        0x0001a31a:    6041        A`      STR      r1,[r0,#4]
        0x0001a31c:    6801        .h      LDR      r1,[r0,#0]
        0x0001a31e:    f8c91000    ....    STR      r1,[r9,#0]
        0x0001a322:    f8c09000    ....    STR      r9,[r0,#0]
        0x0001a326:    2200        ."      MOVS     r2,#0
        0x0001a328:    490a        .I      LDR      r1,[pc,#40] ; [0x1a354] = 0x1a19d
        0x0001a32a:    4628        (F      MOV      r0,r5
        0x0001a32c:    f000f9fe    ....    BL       core_list_mergesort ; 0x1a72c
        0x0001a330:    6804        .h      LDR      r4,[r0,#0]
        0x0001a332:    4605        .F      MOV      r5,r0
        0x0001a334:    b14c        L.      CBZ      r4,0x1a34a ; core_bench_list + 386
        0x0001a336:    6868        hh      LDR      r0,[r5,#4]
        0x0001a338:    4641        AF      MOV      r1,r8
        0x0001a33a:    f9b00000    ....    LDRSH    r0,[r0,#0]
        0x0001a33e:    f000fb1d    ....    BL       crc16 ; 0x1a97c
        0x0001a342:    6824        $h      LDR      r4,[r4,#0]
        0x0001a344:    4680        .F      MOV      r8,r0
        0x0001a346:    2c00        .,      CMP      r4,#0
        0x0001a348:    d1f5        ..      BNE      0x1a336 ; core_bench_list + 366
        0x0001a34a:    4640        @F      MOV      r0,r8
        0x0001a34c:    e8bd9ff0    ....    POP      {r4-r12,pc}
    $d
        0x0001a350:    0001a183    ....    DCD    106883
        0x0001a354:    0001a19d    ....    DCD    106909
    $t
    i.core_bench_matrix
    core_bench_matrix
        0x0001a358:    b538        8.      PUSH     {r3-r5,lr}
        0x0001a35a:    4615        .F      MOV      r5,r2
        0x0001a35c:    e9d02301    ...#    LDRD     r2,r3,[r0,#4]
        0x0001a360:    f8d0c000    ....    LDR      r12,[r0,#0]
        0x0001a364:    68c4        .h      LDR      r4,[r0,#0xc]
        0x0001a366:    9100        ..      STR      r1,[sp,#0]
        0x0001a368:    4621        !F      MOV      r1,r4
        0x0001a36a:    4660        `F      MOV      r0,r12
        0x0001a36c:    f001f908    ....    BL       matrix_test ; 0x1b580
        0x0001a370:    4629        )F      MOV      r1,r5
        0x0001a372:    e8bd4038    ..8@    POP      {r3-r5,lr}
        0x0001a376:    f000bb01    ....    B.W      crc16 ; 0x1a97c
    i.core_bench_state
    core_bench_state
        0x0001a37a:    e92d4ff0    -..O    PUSH     {r4-r11,lr}
        0x0001a37e:    b095        ..      SUB      sp,sp,#0x54
        0x0001a380:    4680        .F      MOV      r8,r0
        0x0001a382:    2000        .       MOVS     r0,#0
        0x0001a384:    e9dd6a1e    ...j    LDRD     r6,r10,[sp,#0x78]
        0x0001a388:    900a        ..      STR      r0,[sp,#0x28]
        0x0001a38a:    900b        ..      STR      r0,[sp,#0x2c]
        0x0001a38c:    900c        ..      STR      r0,[sp,#0x30]
        0x0001a38e:    900f        ..      STR      r0,[sp,#0x3c]
        0x0001a390:    9010        ..      STR      r0,[sp,#0x40]
        0x0001a392:    900d        ..      STR      r0,[sp,#0x34]
        0x0001a394:    900e        ..      STR      r0,[sp,#0x38]
        0x0001a396:    9011        ..      STR      r0,[sp,#0x44]
        0x0001a398:    9000        ..      STR      r0,[sp,#0]
        0x0001a39a:    9001        ..      STR      r0,[sp,#4]
        0x0001a39c:    460d        .F      MOV      r5,r1
        0x0001a39e:    9002        ..      STR      r0,[sp,#8]
        0x0001a3a0:    9003        ..      STR      r0,[sp,#0xc]
        0x0001a3a2:    9004        ..      STR      r0,[sp,#0x10]
        0x0001a3a4:    9005        ..      STR      r0,[sp,#0x14]
        0x0001a3a6:    9006        ..      STR      r0,[sp,#0x18]
        0x0001a3a8:    e9cd0507    ....    STRD     r0,r5,[sp,#0x1c]
        0x0001a3ac:    7828        (x      LDRB     r0,[r5,#0]
        0x0001a3ae:    4699        .F      MOV      r9,r3
        0x0001a3b0:    4693        .F      MOV      r11,r2
        0x0001a3b2:    466f        oF      MOV      r7,sp
        0x0001a3b4:    b160        `.      CBZ      r0,0x1a3d0 ; core_bench_state + 86
        0x0001a3b6:    a90a        ..      ADD      r1,sp,#0x28
        0x0001a3b8:    a808        ..      ADD      r0,sp,#0x20
        0x0001a3ba:    f000fa0a    ....    BL       core_state_transition ; 0x1a7d2
        0x0001a3be:    f8571020    W. .    LDR      r1,[r7,r0,LSL #2]
        0x0001a3c2:    1c49        I.      ADDS     r1,r1,#1
        0x0001a3c4:    f8471020    G. .    STR      r1,[r7,r0,LSL #2]
        0x0001a3c8:    9808        ..      LDR      r0,[sp,#0x20]
        0x0001a3ca:    7800        .x      LDRB     r0,[r0,#0]
        0x0001a3cc:    2800        .(      CMP      r0,#0
        0x0001a3ce:    d1f2        ..      BNE      0x1a3b6 ; core_bench_state + 60
        0x0001a3d0:    eb050008    ....    ADD      r0,r5,r8
        0x0001a3d4:    1b40        @.      SUBS     r0,r0,r5
        0x0001a3d6:    4430        0D      ADD      r0,r0,r6
        0x0001a3d8:    f1a00801    ....    SUB      r8,r0,#1
        0x0001a3dc:    fb98f0f6    ....    SDIV     r0,r8,r6
        0x0001a3e0:    462c        ,F      MOV      r4,r5
        0x0001a3e2:    9508        ..      STR      r5,[sp,#0x20]
        0x0001a3e4:    2800        .(      CMP      r0,#0
        0x0001a3e6:    bfc8        ..      IT       GT
        0x0001a3e8:    f00b02ff    ....    ANDGT    r2,r11,#0xff
        0x0001a3ec:    dd07        ..      BLE      0x1a3fe ; core_bench_state + 132
        0x0001a3ee:    7821        !x      LDRB     r1,[r4,#0]
        0x0001a3f0:    292c        ,)      CMP      r1,#0x2c
        0x0001a3f2:    bf1c        ..      ITT      NE
        0x0001a3f4:    4051        Q@      EORNE    r1,r1,r2
        0x0001a3f6:    7021        !p      STRBNE   r1,[r4,#0]
        0x0001a3f8:    4434        4D      ADD      r4,r4,r6
        0x0001a3fa:    1e40        @.      SUBS     r0,r0,#1
        0x0001a3fc:    d1f7        ..      BNE      0x1a3ee ; core_bench_state + 116
        0x0001a3fe:    9508        ..      STR      r5,[sp,#0x20]
        0x0001a400:    7828        (x      LDRB     r0,[r5,#0]
        0x0001a402:    b160        `.      CBZ      r0,0x1a41e ; core_bench_state + 164
        0x0001a404:    a90a        ..      ADD      r1,sp,#0x28
        0x0001a406:    a808        ..      ADD      r0,sp,#0x20
        0x0001a408:    f000f9e3    ....    BL       core_state_transition ; 0x1a7d2
        0x0001a40c:    f8571020    W. .    LDR      r1,[r7,r0,LSL #2]
        0x0001a410:    1c49        I.      ADDS     r1,r1,#1
        0x0001a412:    f8471020    G. .    STR      r1,[r7,r0,LSL #2]
        0x0001a416:    9808        ..      LDR      r0,[sp,#0x20]
        0x0001a418:    7800        .x      LDRB     r0,[r0,#0]
        0x0001a41a:    2800        .(      CMP      r0,#0
        0x0001a41c:    d1f2        ..      BNE      0x1a404 ; core_bench_state + 138
        0x0001a41e:    fb98f0f6    ....    SDIV     r0,r8,r6
        0x0001a422:    9508        ..      STR      r5,[sp,#0x20]
        0x0001a424:    2800        .(      CMP      r0,#0
        0x0001a426:    bfc8        ..      IT       GT
        0x0001a428:    f00902ff    ....    ANDGT    r2,r9,#0xff
        0x0001a42c:    dd07        ..      BLE      0x1a43e ; core_bench_state + 196
        0x0001a42e:    7829        )x      LDRB     r1,[r5,#0]
        0x0001a430:    292c        ,)      CMP      r1,#0x2c
        0x0001a432:    bf1c        ..      ITT      NE
        0x0001a434:    4051        Q@      EORNE    r1,r1,r2
        0x0001a436:    7029        )p      STRBNE   r1,[r5,#0]
        0x0001a438:    4435        5D      ADD      r5,r5,r6
        0x0001a43a:    1e40        @.      SUBS     r0,r0,#1
        0x0001a43c:    d1f7        ..      BNE      0x1a42e ; core_bench_state + 180
        0x0001a43e:    2400        .$      MOVS     r4,#0
        0x0001a440:    ad0a        ..      ADD      r5,sp,#0x28
        0x0001a442:    f8570024    W.$.    LDR      r0,[r7,r4,LSL #2]
        0x0001a446:    4651        QF      MOV      r1,r10
        0x0001a448:    f000fae5    ....    BL       crcu32 ; 0x1aa16
        0x0001a44c:    f8552024    U.$     LDR      r2,[r5,r4,LSL #2]
        0x0001a450:    4601        .F      MOV      r1,r0
        0x0001a452:    4610        .F      MOV      r0,r2
        0x0001a454:    f000fadf    ....    BL       crcu32 ; 0x1aa16
        0x0001a458:    1c64        d.      ADDS     r4,r4,#1
        0x0001a45a:    4682        .F      MOV      r10,r0
        0x0001a45c:    2c08        .,      CMP      r4,#8
        0x0001a45e:    d3f0        ..      BCC      0x1a442 ; core_bench_state + 200
        0x0001a460:    b015        ..      ADD      sp,sp,#0x54
        0x0001a462:    e8bd8ff0    ....    POP      {r4-r11,pc}
        0x0001a466:    0000        ..      MOVS     r0,r0
    i.core_init_matrix
    core_init_matrix
        0x0001a468:    e92d4ff0    -..O    PUSH     {r4-r11,lr}
        0x0001a46c:    2400        .$      MOVS     r4,#0
        0x0001a46e:    f04f0c01    O...    MOV      r12,#1
        0x0001a472:    2a00        .*      CMP      r2,#0
        0x0001a474:    bf08        ..      IT       EQ
        0x0001a476:    2201        ."      MOVEQ    r2,#1
        0x0001a478:    2800        .(      CMP      r0,#0
        0x0001a47a:    d905        ..      BLS      0x1a488 ; core_init_matrix + 32
        0x0001a47c:    1c64        d.      ADDS     r4,r4,#1
        0x0001a47e:    fb04f504    ....    MUL      r5,r4,r4
        0x0001a482:    00ed        ..      LSLS     r5,r5,#3
        0x0001a484:    42a8        .B      CMP      r0,r5
        0x0001a486:    d8f9        ..      BHI      0x1a47c ; core_init_matrix + 20
        0x0001a488:    1e49        I.      SUBS     r1,r1,#1
        0x0001a48a:    1e60        `.      SUBS     r0,r4,#1
        0x0001a48c:    f0210103    !...    BIC      r1,r1,#3
        0x0001a490:    f1010b04    ....    ADD      r11,r1,#4
        0x0001a494:    fb00fe00    ....    MUL      lr,r0,r0
        0x0001a498:    eb0b0a4e    ..N.    ADD      r10,r11,lr,LSL #1
        0x0001a49c:    2800        .(      CMP      r0,#0
        0x0001a49e:    bf18        ..      IT       NE
        0x0001a4a0:    2100        .!      MOVNE    r1,#0
        0x0001a4a2:    d928        (.      BLS      0x1a4f6 ; core_init_matrix + 142
        0x0001a4a4:    e000        ..      B        0x1a4a8 ; core_init_matrix + 64
        0x0001a4a6:    b318        ..      CBZ      r0,0x1a4f0 ; core_init_matrix + 136
        0x0001a4a8:    fb01f400    ....    MUL      r4,r1,r0
        0x0001a4ac:    eb0a0644    ..D.    ADD      r6,r10,r4,LSL #1
        0x0001a4b0:    eb0b0544    ..D.    ADD      r5,r11,r4,LSL #1
        0x0001a4b4:    f04f0400    O...    MOV      r4,#0
        0x0001a4b8:    ea4f0700    O...    MOV.W    r7,r0
        0x0001a4bc:    eb0c0904    ....    ADD      r9,r12,r4
        0x0001a4c0:    fb09f202    ....    MUL      r2,r9,r2
        0x0001a4c4:    ea4f78e2    O..x    ASR      r8,r2,#31
        0x0001a4c8:    eb024818    ...H    ADD      r8,r2,r8,LSR #16
        0x0001a4cc:    f36f080f    o...    BFC      r8,#0,#16
        0x0001a4d0:    eba20208    ....    SUB      r2,r2,r8
        0x0001a4d4:    eb090802    ....    ADD      r8,r9,r2
        0x0001a4d8:    f8268b02    &...    STRH     r8,[r6],#2
        0x0001a4dc:    44c8        .D      ADD      r8,r8,r9
        0x0001a4de:    f00808ff    ....    AND      r8,r8,#0xff
        0x0001a4e2:    f8258b02    %...    STRH     r8,[r5],#2
        0x0001a4e6:    f1040401    ....    ADD      r4,r4,#1
        0x0001a4ea:    1e7f        ..      SUBS     r7,r7,#1
        0x0001a4ec:    d1e6        ..      BNE      0x1a4bc ; core_init_matrix + 84
        0x0001a4ee:    4484        .D      ADD      r12,r12,r0
        0x0001a4f0:    1c49        I.      ADDS     r1,r1,#1
        0x0001a4f2:    4281        .B      CMP      r1,r0
        0x0001a4f4:    d3d7        ..      BCC      0x1a4a6 ; core_init_matrix + 62
        0x0001a4f6:    eb0a014e    ..N.    ADD      r1,r10,lr,LSL #1
        0x0001a4fa:    e9c3ba01    ....    STRD     r11,r10,[r3,#4]
        0x0001a4fe:    1e49        I.      SUBS     r1,r1,#1
        0x0001a500:    f0210103    !...    BIC      r1,r1,#3
        0x0001a504:    1d09        ..      ADDS     r1,r1,#4
        0x0001a506:    60d9        .`      STR      r1,[r3,#0xc]
        0x0001a508:    6018        .`      STR      r0,[r3,#0]
        0x0001a50a:    e8bd8ff0    ....    POP      {r4-r11,pc}
        0x0001a50e:    0000        ..      MOVS     r0,r0
    i.core_init_state
    core_init_state
        0x0001a510:    e92d4ff8    -..O    PUSH     {r3-r11,lr}
        0x0001a514:    f04f0c00    O...    MOV      r12,#0
        0x0001a518:    f1a00801    ....    SUB      r8,r0,#1
        0x0001a51c:    4665        eF      MOV      r5,r12
        0x0001a51e:    4666        fF      MOV      r6,r12
        0x0001a520:    4667        gF      MOV      r7,r12
        0x0001a522:    f1b80f01    ....    CMP      r8,#1
        0x0001a526:    d94d        M.      BLS      0x1a5c4 ; core_init_state + 180
        0x0001a528:    f8dfa0e8    ....    LDR      r10,[pc,#232] ; [0x1a614] = 0x1000005c
        0x0001a52c:    f10a0b10    ....    ADD      r11,r10,#0x10
        0x0001a530:    f10a0e20    .. .    ADD      lr,r10,#0x20
        0x0001a534:    e01d        ..      B        0x1a572 ; core_init_state + 98
        0x0001a536:    b1e5        ..      CBZ      r5,0x1a572 ; core_init_state + 98
        0x0001a538:    eb02000c    ....    ADD      r0,r2,r12
        0x0001a53c:    1e73        s.      SUBS     r3,r6,#1
        0x0001a53e:    9000        ..      STR      r0,[sp,#0]
        0x0001a540:    1e40        @.      SUBS     r0,r0,#1
        0x0001a542:    f0150f01    ....    TST      r5,#1
        0x0001a546:    d003        ..      BEQ      0x1a550 ; core_init_state + 64
        0x0001a548:    f813cf01    ....    LDRB     r12,[r3,#1]!
        0x0001a54c:    f800cf01    ....    STRB     r12,[r0,#1]!
        0x0001a550:    ea5f0c55    _.U.    LSRS     r12,r5,#1
        0x0001a554:    d008        ..      BEQ      0x1a568 ; core_init_state + 88
        0x0001a556:    785c        \x      LDRB     r4,[r3,#1]
        0x0001a558:    7044        Dp      STRB     r4,[r0,#1]
        0x0001a55a:    f8134f02    ...O    LDRB     r4,[r3,#2]!
        0x0001a55e:    f8004f02    ...O    STRB     r4,[r0,#2]!
        0x0001a562:    f1bc0c01    ....    SUBS     r12,r12,#1
        0x0001a566:    d1f6        ..      BNE      0x1a556 ; core_init_state + 70
        0x0001a568:    9b00        ..      LDR      r3,[sp,#0]
        0x0001a56a:    202c        ,       MOVS     r0,#0x2c
        0x0001a56c:    f1090c01    ....    ADD      r12,r9,#1
        0x0001a570:    5558        XU      STRB     r0,[r3,r5]
        0x0001a572:    1c48        H.      ADDS     r0,r1,#1
        0x0001a574:    b201        ..      SXTH     r1,r0
        0x0001a576:    f0010007    ....    AND      r0,r1,#7
        0x0001a57a:    2808        .(      CMP      r0,#8
        0x0001a57c:    d21c        ..      BCS      0x1a5b8 ; core_init_state + 168
        0x0001a57e:    e8dff000    ....    TBB      [pc,r0]
    $d
        0x0001a582:    0404        ..      DCW    1028
        0x0001a584:    0f0a0a04    ....    DCD    252316164
        0x0001a588:    150f        ..      DCW    5391
    $t
        0x0001a58a:    f3c100c1    ....    UBFX     r0,r1,#3,#2
        0x0001a58e:    2504        .%      MOVS     r5,#4
        0x0001a590:    f85a6020    Z. `    LDR      r6,[r10,r0,LSL #2]
        0x0001a594:    e010        ..      B        0x1a5b8 ; core_init_state + 168
        0x0001a596:    f3c100c1    ....    UBFX     r0,r1,#3,#2
        0x0001a59a:    f85b6020    [. `    LDR      r6,[r11,r0,LSL #2]
        0x0001a59e:    e003        ..      B        0x1a5a8 ; core_init_state + 152
        0x0001a5a0:    f3c100c1    ....    UBFX     r0,r1,#3,#2
        0x0001a5a4:    f85e6020    ^. `    LDR      r6,[lr,r0,LSL #2]
        0x0001a5a8:    2508        .%      MOVS     r5,#8
        0x0001a5aa:    e005        ..      B        0x1a5b8 ; core_init_state + 168
        0x0001a5ac:    481a        .H      LDR      r0,[pc,#104] ; [0x1a618] = 0x1000008c
        0x0001a5ae:    f3c103c1    ....    UBFX     r3,r1,#3,#2
        0x0001a5b2:    2508        .%      MOVS     r5,#8
        0x0001a5b4:    f8506023    P.#`    LDR      r6,[r0,r3,LSL #2]
        0x0001a5b8:    eb0c0905    ....    ADD      r9,r12,r5
        0x0001a5bc:    f1090001    ....    ADD      r0,r9,#1
        0x0001a5c0:    4540        @E      CMP      r0,r8
        0x0001a5c2:    d3b8        ..      BCC      0x1a536 ; core_init_state + 38
        0x0001a5c4:    f1080001    ....    ADD      r0,r8,#1
        0x0001a5c8:    4584        .E      CMP      r12,r0
        0x0001a5ca:    bf38        8.      IT       CC
        0x0001a5cc:    f1b04f00    ...O    CMPCC    r0,#0x80000000
        0x0001a5d0:    d214        ..      BCS      0x1a5fc ; core_init_state + 236
        0x0001a5d2:    eb02010c    ....    ADD      r1,r2,r12
        0x0001a5d6:    eba0000c    ....    SUB      r0,r0,r12
        0x0001a5da:    1e49        I.      SUBS     r1,r1,#1
        0x0001a5dc:    f0100f01    ....    TST      r0,#1
        0x0001a5e0:    bf18        ..      IT       NE
        0x0001a5e2:    f8017f01    ....    STRBNE   r7,[r1,#1]!
        0x0001a5e6:    0840        @.      LSRS     r0,r0,#1
        0x0001a5e8:    bf08        ..      IT       EQ
        0x0001a5ea:    e8bd8ff8    ....    POPEQ    {r3-r11,pc}
        0x0001a5ee:    704f        Op      STRB     r7,[r1,#1]
        0x0001a5f0:    f8017f02    ....    STRB     r7,[r1,#2]!
        0x0001a5f4:    1e40        @.      SUBS     r0,r0,#1
        0x0001a5f6:    d1fa        ..      BNE      0x1a5ee ; core_init_state + 222
        0x0001a5f8:    e8bd8ff8    ....    POP      {r3-r11,pc}
        0x0001a5fc:    4560        `E      CMP      r0,r12
        0x0001a5fe:    bf98        ..      IT       LS
        0x0001a600:    e8bd8ff8    ....    POPLS    {r3-r11,pc}
        0x0001a604:    f802700c    ...p    STRB     r7,[r2,r12]
        0x0001a608:    f10c0c01    ....    ADD      r12,r12,#1
        0x0001a60c:    4584        .E      CMP      r12,r0
        0x0001a60e:    d3f9        ..      BCC      0x1a604 ; core_init_state + 244
        0x0001a610:    e8bd8ff8    ....    POP      {r3-r11,pc}
    $d
        0x0001a614:    1000005c    \...    DCD    268435548
        0x0001a618:    1000008c    ....    DCD    268435596
    $t
    i.core_list_init
    core_list_init
        0x0001a61c:    e92d0ff0    -...    PUSH     {r4-r11}
        0x0001a620:    2314        .#      MOVS     r3,#0x14
        0x0001a622:    fbb0f0f3    ....    UDIV     r0,r0,r3
        0x0001a626:    1e87        ..      SUBS     r7,r0,#2
        0x0001a628:    eb0104c7    ....    ADD      r4,r1,r7,LSL #3
        0x0001a62c:    2300        .#      MOVS     r3,#0
        0x0001a62e:    604c        L`      STR      r4,[r1,#4]
        0x0001a630:    600b        .`      STR      r3,[r1,#0]
        0x0001a632:    8063        c.      STRH     r3,[r4,#2]
        0x0001a634:    f8d1c004    ....    LDR      r12,[r1,#4]
        0x0001a638:    f2480380    H...    MOV      r3,#0x8080
        0x0001a63c:    4608        .F      MOV      r0,r1
        0x0001a63e:    f8ac3000    ...0    STRH     r3,[r12,#0]
        0x0001a642:    f1010c08    ....    ADD      r12,r1,#8
        0x0001a646:    1d23        #.      ADDS     r3,r4,#4
        0x0001a648:    3110        .1      ADDS     r1,r1,#0x10
        0x0001a64a:    eb040587    ....    ADD      r5,r4,r7,LSL #2
        0x0001a64e:    f64779ff    G..y    MOV      r9,#0x7fff
        0x0001a652:    f04f36ff    O..6    MOV      r6,#0xffffffff
        0x0001a656:    42a1        .B      CMP      r1,r4
        0x0001a658:    bf3c        <.      ITT      CC
        0x0001a65a:    f1030804    ....    ADDCC    r8,r3,#4
        0x0001a65e:    45a8        .E      CMPCC    r8,r5
        0x0001a660:    d20d        ..      BCS      0x1a67e ; core_list_init + 98
        0x0001a662:    4661        aF      MOV      r1,r12
        0x0001a664:    f8d08000    ....    LDR      r8,[r0,#0]
        0x0001a668:    f8c18000    ....    STR      r8,[r1,#0]
        0x0001a66c:    6001        .`      STR      r1,[r0,#0]
        0x0001a66e:    604b        K`      STR      r3,[r1,#4]
        0x0001a670:    4619        .F      MOV      r1,r3
        0x0001a672:    f10c0c08    ....    ADD      r12,r12,#8
        0x0001a676:    800e        ..      STRH     r6,[r1,#0]
        0x0001a678:    1d1b        ..      ADDS     r3,r3,#4
        0x0001a67a:    f8a19002    ....    STRH     r9,[r1,#2]
        0x0001a67e:    2100        .!      MOVS     r1,#0
        0x0001a680:    2f00        ./      CMP      r7,#0
        0x0001a682:    d922        ".      BLS      0x1a6ca ; core_list_init + 174
        0x0001a684:    ea820601    ....    EOR      r6,r2,r1
        0x0001a688:    f006080f    ....    AND      r8,r6,#0xf
        0x0001a68c:    460e        .F      MOV      r6,r1
        0x0001a68e:    f36806df    h...    BFI      r6,r8,#3,#29
        0x0001a692:    ea462a06    F..*    ORR      r10,r6,r6,LSL #8
        0x0001a696:    f10c0608    ....    ADD      r6,r12,#8
        0x0001a69a:    42a6        .B      CMP      r6,r4
        0x0001a69c:    bf3c        <.      ITT      CC
        0x0001a69e:    f1030804    ....    ADDCC    r8,r3,#4
        0x0001a6a2:    45a8        .E      CMPCC    r8,r5
        0x0001a6a4:    d20e        ..      BCS      0x1a6c4 ; core_list_init + 168
        0x0001a6a6:    46e0        .F      MOV      r8,r12
        0x0001a6a8:    6806        .h      LDR      r6,[r0,#0]
        0x0001a6aa:    f8c86000    ...`    STR      r6,[r8,#0]
        0x0001a6ae:    f8c08000    ....    STR      r8,[r0,#0]
        0x0001a6b2:    f8c83004    ...0    STR      r3,[r8,#4]
        0x0001a6b6:    f8a3a000    ....    STRH     r10,[r3,#0]
        0x0001a6ba:    f8a39002    ....    STRH     r9,[r3,#2]
        0x0001a6be:    f10c0c08    ....    ADD      r12,r12,#8
        0x0001a6c2:    1d1b        ..      ADDS     r3,r3,#4
        0x0001a6c4:    1c49        I.      ADDS     r1,r1,#1
        0x0001a6c6:    42b9        .B      CMP      r1,r7
        0x0001a6c8:    d3dc        ..      BCC      0x1a684 ; core_list_init + 104
        0x0001a6ca:    6803        .h      LDR      r3,[r0,#0]
        0x0001a6cc:    2101        .!      MOVS     r1,#1
        0x0001a6ce:    f8d3c000    ....    LDR      r12,[r3,#0]
        0x0001a6d2:    f1bc0f00    ....    CMP      r12,#0
        0x0001a6d6:    d01f        ..      BEQ      0x1a718 ; core_list_init + 252
        0x0001a6d8:    f8dfc048    ..H.    LDR      r12,[pc,#72] ; [0x1a724] = 0xcccccccd
        0x0001a6dc:    fbac4c07    ...L    UMULL    r4,r12,r12,r7
        0x0001a6e0:    ea4f049c    O...    LSR      r4,r12,#2
        0x0001a6e4:    428c        .B      CMP      r4,r1
        0x0001a6e6:    d905        ..      BLS      0x1a6f4 ; core_list_init + 216
        0x0001a6e8:    f8d3c004    ....    LDR      r12,[r3,#4]
        0x0001a6ec:    f8ac1002    ....    STRH     r1,[r12,#2]
        0x0001a6f0:    1c49        I.      ADDS     r1,r1,#1
        0x0001a6f2:    e00b        ..      B        0x1a70c ; core_list_init + 240
        0x0001a6f4:    ea810c02    ....    EOR      r12,r1,r2
        0x0001a6f8:    1c49        I.      ADDS     r1,r1,#1
        0x0001a6fa:    f0010507    ....    AND      r5,r1,#7
        0x0001a6fe:    ea4c2c05    L..,    ORR      r12,r12,r5,LSL #8
        0x0001a702:    685d        ]h      LDR      r5,[r3,#4]
        0x0001a704:    f3cc0c0d    ....    UBFX     r12,r12,#0,#14
        0x0001a708:    f8a5c002    ....    STRH     r12,[r5,#2]
        0x0001a70c:    681b        .h      LDR      r3,[r3,#0]
        0x0001a70e:    f8d3c000    ....    LDR      r12,[r3,#0]
        0x0001a712:    f1bc0f00    ....    CMP      r12,#0
        0x0001a716:    d1e5        ..      BNE      0x1a6e4 ; core_list_init + 200
        0x0001a718:    e8bd0ff0    ....    POP      {r4-r11}
        0x0001a71c:    2200        ."      MOVS     r2,#0
        0x0001a71e:    4902        .I      LDR      r1,[pc,#8] ; [0x1a728] = 0x1a19d
        0x0001a720:    f000b804    ....    B.W      core_list_mergesort ; 0x1a72c
    $d
        0x0001a724:    cccccccd    ....    DCD    3435973837
        0x0001a728:    0001a19d    ....    DCD    106909
    $t
    i.core_list_mergesort
    core_list_mergesort
        0x0001a72c:    e92d4ff7    -..O    PUSH     {r0-r2,r4-r11,lr}
        0x0001a730:    4682        .F      MOV      r10,r0
        0x0001a732:    f04f0901    O...    MOV      r9,#1
        0x0001a736:    bf00        ..      NOP      
        0x0001a738:    ea5f050a    _...    MOVS     r5,r10
        0x0001a73c:    f04f0a00    O...    MOV      r10,#0
        0x0001a740:    4657        WF      MOV      r7,r10
        0x0001a742:    46d3        .F      MOV      r11,r10
        0x0001a744:    d03f        ?.      BEQ      0x1a7c6 ; core_list_mergesort + 154
        0x0001a746:    2600        .&      MOVS     r6,#0
        0x0001a748:    462c        ,F      MOV      r4,r5
        0x0001a74a:    4630        0F      MOV      r0,r6
        0x0001a74c:    f10b0b01    ....    ADD      r11,r11,#1
        0x0001a750:    f1b90f00    ....    CMP      r9,#0
        0x0001a754:    bfd8        ..      IT       LE
        0x0001a756:    46c8        .F      MOVLE    r8,r9
        0x0001a758:    dd24        $.      BLE      0x1a7a4 ; core_list_mergesort + 120
        0x0001a75a:    6824        $h      LDR      r4,[r4,#0]
        0x0001a75c:    1c76        v.      ADDS     r6,r6,#1
        0x0001a75e:    2c00        .,      CMP      r4,#0
        0x0001a760:    bf1c        ..      ITT      NE
        0x0001a762:    1c40        @.      ADDNE    r0,r0,#1
        0x0001a764:    4548        HE      CMPNE    r0,r9
        0x0001a766:    dbf8        ..      BLT      0x1a75a ; core_list_mergesort + 46
        0x0001a768:    46c8        .F      MOV      r8,r9
        0x0001a76a:    2e00        ..      CMP      r6,#0
        0x0001a76c:    dd1a        ..      BLE      0x1a7a4 ; core_list_mergesort + 120
        0x0001a76e:    b17e        ~.      CBZ      r6,0x1a790 ; core_list_mergesort + 100
        0x0001a770:    f1b80f00    ....    CMP      r8,#0
        0x0001a774:    bf18        ..      IT       NE
        0x0001a776:    2c00        .,      CMPNE    r4,#0
        0x0001a778:    d006        ..      BEQ      0x1a788 ; core_list_mergesort + 92
        0x0001a77a:    e9dd3201    ...2    LDRD     r3,r2,[sp,#4]
        0x0001a77e:    6861        ah      LDR      r1,[r4,#4]
        0x0001a780:    6868        hh      LDR      r0,[r5,#4]
        0x0001a782:    4798        .G      BLX      r3
        0x0001a784:    2800        .(      CMP      r0,#0
        0x0001a786:    dc03        ..      BGT      0x1a790 ; core_list_mergesort + 100
        0x0001a788:    4628        (F      MOV      r0,r5
        0x0001a78a:    682d        -h      LDR      r5,[r5,#0]
        0x0001a78c:    1e76        v.      SUBS     r6,r6,#1
        0x0001a78e:    e003        ..      B        0x1a798 ; core_list_mergesort + 108
        0x0001a790:    4620         F      MOV      r0,r4
        0x0001a792:    6824        $h      LDR      r4,[r4,#0]
        0x0001a794:    f1a80801    ....    SUB      r8,r8,#1
        0x0001a798:    2f00        ./      CMP      r7,#0
        0x0001a79a:    bf14        ..      ITE      NE
        0x0001a79c:    6038        8`      STRNE    r0,[r7,#0]
        0x0001a79e:    4682        .F      MOVEQ    r10,r0
        0x0001a7a0:    4607        .F      MOV      r7,r0
        0x0001a7a2:    e7e2        ..      B        0x1a76a ; core_list_mergesort + 62
        0x0001a7a4:    f1b80f00    ....    CMP      r8,#0
        0x0001a7a8:    dd02        ..      BLE      0x1a7b0 ; core_list_mergesort + 132
        0x0001a7aa:    2c00        .,      CMP      r4,#0
        0x0001a7ac:    d1df        ..      BNE      0x1a76e ; core_list_mergesort + 66
        0x0001a7ae:    e001        ..      B        0x1a7b4 ; core_list_mergesort + 136
        0x0001a7b0:    0025        %.      MOVS     r5,r4
        0x0001a7b2:    d1c8        ..      BNE      0x1a746 ; core_list_mergesort + 26
        0x0001a7b4:    2000        .       MOVS     r0,#0
        0x0001a7b6:    6038        8`      STR      r0,[r7,#0]
        0x0001a7b8:    f1bb0f01    ....    CMP      r11,#1
        0x0001a7bc:    bfc8        ..      IT       GT
        0x0001a7be:    ea4f0949    O.I.    LSLGT    r9,r9,#1
        0x0001a7c2:    dcb9        ..      BGT      0x1a738 ; core_list_mergesort + 12
        0x0001a7c4:    e001        ..      B        0x1a7ca ; core_list_mergesort + 158
        0x0001a7c6:    2000        .       MOVS     r0,#0
        0x0001a7c8:    6000        .`      STR      r0,[r0,#0]
        0x0001a7ca:    b003        ..      ADD      sp,sp,#0xc
        0x0001a7cc:    4650        PF      MOV      r0,r10
        0x0001a7ce:    e8bd8ff0    ....    POP      {r4-r11,pc}
    i.core_state_transition
    core_state_transition
        0x0001a7d2:    6803        .h      LDR      r3,[r0,#0]
        0x0001a7d4:    4684        .F      MOV      r12,r0
        0x0001a7d6:    2000        .       MOVS     r0,#0
        0x0001a7d8:    781a        .x      LDRB     r2,[r3,#0]
        0x0001a7da:    2a00        .*      CMP      r2,#0
        0x0001a7dc:    f00080ca    ....    BEQ.W    0x1a974 ; core_state_transition + 418
        0x0001a7e0:    2a2c        ,*      CMP      r2,#0x2c
        0x0001a7e2:    d05b        [.      BEQ      0x1a89c ; core_state_transition + 202
        0x0001a7e4:    f1a20030    ..0.    SUB      r0,r2,#0x30
        0x0001a7e8:    2809        .(      CMP      r0,#9
        0x0001a7ea:    d833        3.      BHI      0x1a854 ; core_state_transition + 130
        0x0001a7ec:    680a        .h      LDR      r2,[r1,#0]
        0x0001a7ee:    2004        .       MOVS     r0,#4
        0x0001a7f0:    1c52        R.      ADDS     r2,r2,#1
        0x0001a7f2:    600a        .`      STR      r2,[r1,#0]
        0x0001a7f4:    f8132f01    .../    LDRB     r2,[r3,#1]!
        0x0001a7f8:    2a00        .*      CMP      r2,#0
        0x0001a7fa:    d076        v.      BEQ      0x1a8ea ; core_state_transition + 280
        0x0001a7fc:    2a2c        ,*      CMP      r2,#0x2c
        0x0001a7fe:    d07b        {.      BEQ      0x1a8f8 ; core_state_transition + 294
        0x0001a800:    e05e        ^.      B        0x1a8c0 ; core_state_transition + 238
        0x0001a802:    f1a20030    ..0.    SUB      r0,r2,#0x30
        0x0001a806:    2809        .(      CMP      r0,#9
        0x0001a808:    d870        p.      BHI      0x1a8ec ; core_state_transition + 282
        0x0001a80a:    698a        .i      LDR      r2,[r1,#0x18]
        0x0001a80c:    2007        .       MOVS     r0,#7
        0x0001a80e:    1c52        R.      ADDS     r2,r2,#1
        0x0001a810:    618a        .a      STR      r2,[r1,#0x18]
        0x0001a812:    f8132f01    .../    LDRB     r2,[r3,#1]!
        0x0001a816:    2a00        .*      CMP      r2,#0
        0x0001a818:    d067        g.      BEQ      0x1a8ea ; core_state_transition + 280
        0x0001a81a:    2a2c        ,*      CMP      r2,#0x2c
        0x0001a81c:    d167        g.      BNE      0x1a8ee ; core_state_transition + 284
        0x0001a81e:    e06b        k.      B        0x1a8f8 ; core_state_transition + 294
        0x0001a820:    2a2b        +*      CMP      r2,#0x2b
        0x0001a822:    bf18        ..      IT       NE
        0x0001a824:    2a2d        -*      CMPNE    r2,#0x2d
        0x0001a826:    d077        w.      BEQ      0x1a918 ; core_state_transition + 326
        0x0001a828:    68ca        .h      LDR      r2,[r1,#0xc]
        0x0001a82a:    f04f0001    O...    MOV      r0,#1
        0x0001a82e:    f1020201    ....    ADD      r2,r2,#1
        0x0001a832:    60ca        .`      STR      r2,[r1,#0xc]
        0x0001a834:    e060        `.      B        0x1a8f8 ; core_state_transition + 294
        0x0001a836:    f1a20030    ..0.    SUB      r0,r2,#0x30
        0x0001a83a:    2809        .(      CMP      r0,#9
        0x0001a83c:    d82f        /.      BHI      0x1a89e ; core_state_transition + 204
        0x0001a83e:    688a        .h      LDR      r2,[r1,#8]
        0x0001a840:    2004        .       MOVS     r0,#4
        0x0001a842:    1c52        R.      ADDS     r2,r2,#1
        0x0001a844:    608a        .`      STR      r2,[r1,#8]
        0x0001a846:    f8132f01    .../    LDRB     r2,[r3,#1]!
        0x0001a84a:    2a00        .*      CMP      r2,#0
        0x0001a84c:    d04d        M.      BEQ      0x1a8ea ; core_state_transition + 280
        0x0001a84e:    2a2c        ,*      CMP      r2,#0x2c
        0x0001a850:    d052        R.      BEQ      0x1a8f8 ; core_state_transition + 294
        0x0001a852:    e035        5.      B        0x1a8c0 ; core_state_transition + 238
        0x0001a854:    2a2b        +*      CMP      r2,#0x2b
        0x0001a856:    bf18        ..      IT       NE
        0x0001a858:    2a2d        -*      CMPNE    r2,#0x2d
        0x0001a85a:    d00a        ..      BEQ      0x1a872 ; core_state_transition + 160
        0x0001a85c:    2a2e        .*      CMP      r2,#0x2e
        0x0001a85e:    d013        ..      BEQ      0x1a888 ; core_state_transition + 182
        0x0001a860:    684a        Jh      LDR      r2,[r1,#4]
        0x0001a862:    2001        .       MOVS     r0,#1
        0x0001a864:    1c52        R.      ADDS     r2,r2,#1
        0x0001a866:    604a        J`      STR      r2,[r1,#4]
        0x0001a868:    680a        .h      LDR      r2,[r1,#0]
        0x0001a86a:    1c52        R.      ADDS     r2,r2,#1
        0x0001a86c:    1c5b        [.      ADDS     r3,r3,#1
        0x0001a86e:    600a        .`      STR      r2,[r1,#0]
        0x0001a870:    e080        ..      B        0x1a974 ; core_state_transition + 418
        0x0001a872:    680a        .h      LDR      r2,[r1,#0]
        0x0001a874:    2002        .       MOVS     r0,#2
        0x0001a876:    1c52        R.      ADDS     r2,r2,#1
        0x0001a878:    600a        .`      STR      r2,[r1,#0]
        0x0001a87a:    f8132f01    .../    LDRB     r2,[r3,#1]!
        0x0001a87e:    2a00        .*      CMP      r2,#0
        0x0001a880:    d078        x.      BEQ      0x1a974 ; core_state_transition + 418
        0x0001a882:    2a2c        ,*      CMP      r2,#0x2c
        0x0001a884:    d038        8.      BEQ      0x1a8f8 ; core_state_transition + 294
        0x0001a886:    e7d6        ..      B        0x1a836 ; core_state_transition + 100
        0x0001a888:    680a        .h      LDR      r2,[r1,#0]
        0x0001a88a:    2005        .       MOVS     r0,#5
        0x0001a88c:    1c52        R.      ADDS     r2,r2,#1
        0x0001a88e:    600a        .`      STR      r2,[r1,#0]
        0x0001a890:    f8132f01    .../    LDRB     r2,[r3,#1]!
        0x0001a894:    2a00        .*      CMP      r2,#0
        0x0001a896:    d06d        m.      BEQ      0x1a974 ; core_state_transition + 418
        0x0001a898:    2a2c        ,*      CMP      r2,#0x2c
        0x0001a89a:    d12f        /.      BNE      0x1a8fc ; core_state_transition + 298
        0x0001a89c:    e02c        ,.      B        0x1a8f8 ; core_state_transition + 294
        0x0001a89e:    2a2e        .*      CMP      r2,#0x2e
        0x0001a8a0:    d004        ..      BEQ      0x1a8ac ; core_state_transition + 218
        0x0001a8a2:    688a        .h      LDR      r2,[r1,#8]
        0x0001a8a4:    2001        .       MOVS     r0,#1
        0x0001a8a6:    1c52        R.      ADDS     r2,r2,#1
        0x0001a8a8:    608a        .`      STR      r2,[r1,#8]
        0x0001a8aa:    e025        %.      B        0x1a8f8 ; core_state_transition + 294
        0x0001a8ac:    688a        .h      LDR      r2,[r1,#8]
        0x0001a8ae:    2005        .       MOVS     r0,#5
        0x0001a8b0:    1c52        R.      ADDS     r2,r2,#1
        0x0001a8b2:    608a        .`      STR      r2,[r1,#8]
        0x0001a8b4:    f8132f01    .../    LDRB     r2,[r3,#1]!
        0x0001a8b8:    b1ba        ..      CBZ      r2,0x1a8ea ; core_state_transition + 280
        0x0001a8ba:    2a2c        ,*      CMP      r2,#0x2c
        0x0001a8bc:    d11e        ..      BNE      0x1a8fc ; core_state_transition + 298
        0x0001a8be:    e01b        ..      B        0x1a8f8 ; core_state_transition + 294
        0x0001a8c0:    2a2e        .*      CMP      r2,#0x2e
        0x0001a8c2:    d008        ..      BEQ      0x1a8d6 ; core_state_transition + 260
        0x0001a8c4:    3a30        0:      SUBS     r2,r2,#0x30
        0x0001a8c6:    2a09        .*      CMP      r2,#9
        0x0001a8c8:    d812        ..      BHI      0x1a8f0 ; core_state_transition + 286
        0x0001a8ca:    f8132f01    .../    LDRB     r2,[r3,#1]!
        0x0001a8ce:    b162        b.      CBZ      r2,0x1a8ea ; core_state_transition + 280
        0x0001a8d0:    2a2c        ,*      CMP      r2,#0x2c
        0x0001a8d2:    d1f5        ..      BNE      0x1a8c0 ; core_state_transition + 238
        0x0001a8d4:    e010        ..      B        0x1a8f8 ; core_state_transition + 294
        0x0001a8d6:    690a        .i      LDR      r2,[r1,#0x10]
        0x0001a8d8:    2005        .       MOVS     r0,#5
        0x0001a8da:    1c52        R.      ADDS     r2,r2,#1
        0x0001a8dc:    610a        .a      STR      r2,[r1,#0x10]
        0x0001a8de:    f8132f01    .../    LDRB     r2,[r3,#1]!
        0x0001a8e2:    b112        ..      CBZ      r2,0x1a8ea ; core_state_transition + 280
        0x0001a8e4:    2a2c        ,*      CMP      r2,#0x2c
        0x0001a8e6:    d109        ..      BNE      0x1a8fc ; core_state_transition + 298
        0x0001a8e8:    e006        ..      B        0x1a8f8 ; core_state_transition + 294
        0x0001a8ea:    e042        B.      B        0x1a972 ; core_state_transition + 416
        0x0001a8ec:    e02e        ..      B        0x1a94c ; core_state_transition + 378
        0x0001a8ee:    e032        2.      B        0x1a956 ; core_state_transition + 388
        0x0001a8f0:    690a        .i      LDR      r2,[r1,#0x10]
        0x0001a8f2:    2001        .       MOVS     r0,#1
        0x0001a8f4:    1c52        R.      ADDS     r2,r2,#1
        0x0001a8f6:    610a        .a      STR      r2,[r1,#0x10]
        0x0001a8f8:    1c5b        [.      ADDS     r3,r3,#1
        0x0001a8fa:    e03b        ;.      B        0x1a974 ; core_state_transition + 418
        0x0001a8fc:    2a45        E*      CMP      r2,#0x45
        0x0001a8fe:    bf18        ..      IT       NE
        0x0001a900:    2a65        e*      CMPNE    r2,#0x65
        0x0001a902:    d00a        ..      BEQ      0x1a91a ; core_state_transition + 328
        0x0001a904:    f1a20230    ..0.    SUB      r2,r2,#0x30
        0x0001a908:    2a09        .*      CMP      r2,#9
        0x0001a90a:    d810        ..      BHI      0x1a92e ; core_state_transition + 348
        0x0001a90c:    f8132f01    .../    LDRB     r2,[r3,#1]!
        0x0001a910:    b37a        z.      CBZ      r2,0x1a972 ; core_state_transition + 416
        0x0001a912:    2a2c        ,*      CMP      r2,#0x2c
        0x0001a914:    d1f2        ..      BNE      0x1a8fc ; core_state_transition + 298
        0x0001a916:    e7ef        ..      B        0x1a8f8 ; core_state_transition + 294
        0x0001a918:    e00e        ..      B        0x1a938 ; core_state_transition + 358
        0x0001a91a:    694a        Ji      LDR      r2,[r1,#0x14]
        0x0001a91c:    2003        .       MOVS     r0,#3
        0x0001a91e:    1c52        R.      ADDS     r2,r2,#1
        0x0001a920:    614a        Ja      STR      r2,[r1,#0x14]
        0x0001a922:    f8132f01    .../    LDRB     r2,[r3,#1]!
        0x0001a926:    b322        ".      CBZ      r2,0x1a972 ; core_state_transition + 416
        0x0001a928:    2a2c        ,*      CMP      r2,#0x2c
        0x0001a92a:    d0e5        ..      BEQ      0x1a8f8 ; core_state_transition + 294
        0x0001a92c:    e778        x.      B        0x1a820 ; core_state_transition + 78
        0x0001a92e:    694a        Ji      LDR      r2,[r1,#0x14]
        0x0001a930:    2001        .       MOVS     r0,#1
        0x0001a932:    1c52        R.      ADDS     r2,r2,#1
        0x0001a934:    614a        Ja      STR      r2,[r1,#0x14]
        0x0001a936:    e7df        ..      B        0x1a8f8 ; core_state_transition + 294
        0x0001a938:    68ca        .h      LDR      r2,[r1,#0xc]
        0x0001a93a:    2006        .       MOVS     r0,#6
        0x0001a93c:    1c52        R.      ADDS     r2,r2,#1
        0x0001a93e:    60ca        .`      STR      r2,[r1,#0xc]
        0x0001a940:    f8132f01    .../    LDRB     r2,[r3,#1]!
        0x0001a944:    b1aa        ..      CBZ      r2,0x1a972 ; core_state_transition + 416
        0x0001a946:    2a2c        ,*      CMP      r2,#0x2c
        0x0001a948:    d0d6        ..      BEQ      0x1a8f8 ; core_state_transition + 294
        0x0001a94a:    e75a        Z.      B        0x1a802 ; core_state_transition + 48
        0x0001a94c:    698a        .i      LDR      r2,[r1,#0x18]
        0x0001a94e:    2001        .       MOVS     r0,#1
        0x0001a950:    1c52        R.      ADDS     r2,r2,#1
        0x0001a952:    618a        .a      STR      r2,[r1,#0x18]
        0x0001a954:    e7d0        ..      B        0x1a8f8 ; core_state_transition + 294
        0x0001a956:    3a30        0:      SUBS     r2,r2,#0x30
        0x0001a958:    2a09        .*      CMP      r2,#9
        0x0001a95a:    d805        ..      BHI      0x1a968 ; core_state_transition + 406
        0x0001a95c:    f8132f01    .../    LDRB     r2,[r3,#1]!
        0x0001a960:    b13a        :.      CBZ      r2,0x1a972 ; core_state_transition + 416
        0x0001a962:    2a2c        ,*      CMP      r2,#0x2c
        0x0001a964:    d1f7        ..      BNE      0x1a956 ; core_state_transition + 388
        0x0001a966:    e7c7        ..      B        0x1a8f8 ; core_state_transition + 294
        0x0001a968:    684a        Jh      LDR      r2,[r1,#4]
        0x0001a96a:    2001        .       MOVS     r0,#1
        0x0001a96c:    1c52        R.      ADDS     r2,r2,#1
        0x0001a96e:    604a        J`      STR      r2,[r1,#4]
        0x0001a970:    e7c2        ..      B        0x1a8f8 ; core_state_transition + 294
        0x0001a972:    e7ff        ..      B        0x1a974 ; core_state_transition + 418
        0x0001a974:    f8cc3000    ...0    STR      r3,[r12,#0]
        0x0001a978:    4770        pG      BX       lr
        0x0001a97a:    0000        ..      MOVS     r0,r0
    i.crc16
    crc16
        0x0001a97c:    fa1ffc80    ....    UXTH     r12,r0
        0x0001a980:    f00c00ff    ....    AND      r0,r12,#0xff
        0x0001a984:    f05f0208    _...    MOVS.W   r2,#8
        0x0001a988:    ea800301    ....    EOR      r3,r0,r1
        0x0001a98c:    f0130f01    ....    TST      r3,#1
        0x0001a990:    ea4f0050    O.P.    LSR      r0,r0,#1
        0x0001a994:    bf1a        ..      ITTE     NE
        0x0001a996:    f24a0301    J...    MOVNE    r3,#0xa001
        0x0001a99a:    ea830151    ..Q.    EORNE    r1,r3,r1,LSR #1
        0x0001a99e:    0849        I.      LSREQ    r1,r1,#1
        0x0001a9a0:    1e52        R.      SUBS     r2,r2,#1
        0x0001a9a2:    d1f1        ..      BNE      0x1a988 ; crc16 + 12
        0x0001a9a4:    4608        .F      MOV      r0,r1
        0x0001a9a6:    ea4f221c    O.."    LSR      r2,r12,#8
        0x0001a9aa:    2108        .!      MOVS     r1,#8
        0x0001a9ac:    f24a0c01    J...    MOV      r12,#0xa001
        0x0001a9b0:    ea820300    ....    EOR      r3,r2,r0
        0x0001a9b4:    f0130f01    ....    TST      r3,#1
        0x0001a9b8:    ea4f0252    O.R.    LSR      r2,r2,#1
        0x0001a9bc:    bf14        ..      ITE      NE
        0x0001a9be:    ea8c0050    ..P.    EORNE    r0,r12,r0,LSR #1
        0x0001a9c2:    0840        @.      LSREQ    r0,r0,#1
        0x0001a9c4:    1e49        I.      SUBS     r1,r1,#1
        0x0001a9c6:    d1f3        ..      BNE      0x1a9b0 ; crc16 + 52
        0x0001a9c8:    4770        pG      BX       lr
        0x0001a9ca:    0000        ..      MOVS     r0,r0
    i.crcu16
    crcu16
        0x0001a9cc:    4603        .F      MOV      r3,r0
        0x0001a9ce:    b2c0        ..      UXTB     r0,r0
        0x0001a9d0:    f05f0208    _...    MOVS.W   r2,#8
        0x0001a9d4:    ea800c01    ....    EOR      r12,r0,r1
        0x0001a9d8:    f01c0f01    ....    TST      r12,#1
        0x0001a9dc:    ea4f0050    O.P.    LSR      r0,r0,#1
        0x0001a9e0:    bf1a        ..      ITTE     NE
        0x0001a9e2:    f24a0c01    J...    MOVNE    r12,#0xa001
        0x0001a9e6:    ea8c0151    ..Q.    EORNE    r1,r12,r1,LSR #1
        0x0001a9ea:    0849        I.      LSREQ    r1,r1,#1
        0x0001a9ec:    1e52        R.      SUBS     r2,r2,#1
        0x0001a9ee:    d1f1        ..      BNE      0x1a9d4 ; crcu16 + 8
        0x0001a9f0:    4608        .F      MOV      r0,r1
        0x0001a9f2:    0a1a        ..      LSRS     r2,r3,#8
        0x0001a9f4:    2108        .!      MOVS     r1,#8
        0x0001a9f6:    f24a0c01    J...    MOV      r12,#0xa001
        0x0001a9fa:    bf00        ..      NOP      
        0x0001a9fc:    ea820300    ....    EOR      r3,r2,r0
        0x0001aa00:    f0130f01    ....    TST      r3,#1
        0x0001aa04:    ea4f0252    O.R.    LSR      r2,r2,#1
        0x0001aa08:    bf14        ..      ITE      NE
        0x0001aa0a:    ea8c0050    ..P.    EORNE    r0,r12,r0,LSR #1
        0x0001aa0e:    0840        @.      LSREQ    r0,r0,#1
        0x0001aa10:    1e49        I.      SUBS     r1,r1,#1
        0x0001aa12:    d1f3        ..      BNE      0x1a9fc ; crcu16 + 48
        0x0001aa14:    4770        pG      BX       lr
    i.crcu32
    crcu32
        0x0001aa16:    b510        ..      PUSH     {r4,lr}
        0x0001aa18:    4604        .F      MOV      r4,r0
        0x0001aa1a:    b200        ..      SXTH     r0,r0
        0x0001aa1c:    f7ffffae    ....    BL       crc16 ; 0x1a97c
        0x0001aa20:    1422        ".      ASRS     r2,r4,#16
        0x0001aa22:    4601        .F      MOV      r1,r0
        0x0001aa24:    e8bd4010    ...@    POP      {r4,lr}
        0x0001aa28:    4610        .F      MOV      r0,r2
        0x0001aa2a:    f7ffbfa7    ....    B.W      crc16 ; 0x1a97c
        0x0001aa2e:    0000        ..      MOVS     r0,r0
    i.crypto_boost_trims
    crypto_boost_trims
        0x0001aa30:    b5f8        ..      PUSH     {r3-r7,lr}
        0x0001aa32:    4f29        )O      LDR      r7,[pc,#164] ; [0x1aad8] = 0x100000d8
        0x0001aa34:    4606        .F      MOV      r6,r0
        0x0001aa36:    460c        .F      MOV      r4,r1
        0x0001aa38:    78b8        .x      LDRB     r0,[r7,#2]
        0x0001aa3a:    ea460100    F...    ORR      r1,r6,r0
        0x0001aa3e:    4030        0@      ANDS     r0,r0,r6
        0x0001aa40:    ea310000    1...    BICS     r0,r1,r0
        0x0001aa44:    bf08        ..      IT       EQ
        0x0001aa46:    bdf8        ..      POPEQ    {r3-r7,pc}
        0x0001aa48:    f7fdfc76    ..v.    BL       am_hal_interrupt_master_disable ; 0x18338
        0x0001aa4c:    9000        ..      STR      r0,[sp,#0]
        0x0001aa4e:    70be        .p      STRB     r6,[r7,#2]
        0x0001aa50:    6af8        .j      LDR      r0,[r7,#0x2c]
        0x0001aa52:    2e00        ..      CMP      r6,#0
        0x0001aa54:    bf0c        ..      ITE      EQ
        0x0001aa56:    1b05        ..      SUBEQ    r5,r0,r4
        0x0001aa58:    1905        ..      ADDNE    r5,r0,r4
        0x0001aa5a:    62fd        .b      STR      r5,[r7,#0x2c]
        0x0001aa5c:    2d00        .-      CMP      r5,#0
        0x0001aa5e:    bfb8        ..      IT       LT
        0x0001aa60:    2500        .%      MOVLT    r5,#0
        0x0001aa62:    db02        ..      BLT      0x1aa6a ; crypto_boost_trims + 58
        0x0001aa64:    2d3f        ?-      CMP      r5,#0x3f
        0x0001aa66:    bf88        ..      IT       HI
        0x0001aa68:    253f        ?%      MOVHI    r5,#0x3f
        0x0001aa6a:    2e00        ..      CMP      r6,#0
        0x0001aa6c:    6b38        8k      LDR      r0,[r7,#0x30]
        0x0001aa6e:    bf14        ..      ITE      NE
        0x0001aa70:    4404        .D      ADDNE    r4,r0
        0x0001aa72:    1b04        ..      SUBEQ    r4,r0,r4
        0x0001aa74:    633c        <c      STR      r4,[r7,#0x30]
        0x0001aa76:    2c00        .,      CMP      r4,#0
        0x0001aa78:    bfb8        ..      IT       LT
        0x0001aa7a:    2400        .$      MOVLT    r4,#0
        0x0001aa7c:    db02        ..      BLT      0x1aa84 ; crypto_boost_trims + 84
        0x0001aa7e:    2c3f        ?,      CMP      r4,#0x3f
        0x0001aa80:    bf88        ..      IT       HI
        0x0001aa82:    243f        ?$      MOVHI    r4,#0x3f
        0x0001aa84:    4f15        .O      LDR      r7,[pc,#84] ; [0x1aadc] = 0x40020000
        0x0001aa86:    b17e        ~.      CBZ      r6,0x1aaa8 ; crypto_boost_trims + 120
        0x0001aa88:    f8d7036c    ..l.    LDR      r0,[r7,#0x36c]
        0x0001aa8c:    f3655019    e..P    BFI      r0,r5,#20,#6
        0x0001aa90:    f8c7036c    ..l.    STR      r0,[r7,#0x36c]
        0x0001aa94:    2014        .       MOVS     r0,#0x14
        0x0001aa96:    f7fdfe7d    ..}.    BL       am_hal_delay_us ; 0x18794
        0x0001aa9a:    f8d70088    ....    LDR      r0,[r7,#0x88]
        0x0001aa9e:    f3640005    d...    BFI      r0,r4,#0,#6
        0x0001aaa2:    f8c70088    ....    STR      r0,[r7,#0x88]
        0x0001aaa6:    e00e        ..      B        0x1aac6 ; crypto_boost_trims + 150
        0x0001aaa8:    f8d70088    ....    LDR      r0,[r7,#0x88]
        0x0001aaac:    f3640005    d...    BFI      r0,r4,#0,#6
        0x0001aab0:    f8c70088    ....    STR      r0,[r7,#0x88]
        0x0001aab4:    2014        .       MOVS     r0,#0x14
        0x0001aab6:    f7fdfe6d    ..m.    BL       am_hal_delay_us ; 0x18794
        0x0001aaba:    f8d7036c    ..l.    LDR      r0,[r7,#0x36c]
        0x0001aabe:    f3655019    e..P    BFI      r0,r5,#20,#6
        0x0001aac2:    f8c7036c    ..l.    STR      r0,[r7,#0x36c]
        0x0001aac6:    9800        ..      LDR      r0,[sp,#0]
        0x0001aac8:    f7fdfc3a    ..:.    BL       am_hal_interrupt_master_set ; 0x18340
        0x0001aacc:    e8bd40f8    ...@    POP      {r3-r7,lr}
        0x0001aad0:    2014        .       MOVS     r0,#0x14
        0x0001aad2:    f7fdbe5f    .._.    B        am_hal_delay_us ; 0x18794
    $d
        0x0001aad6:    0000        ..      DCW    0
        0x0001aad8:    100000d8    ....    DCD    268435672
        0x0001aadc:    40020000    ...@    DCD    1073872896
    $t
    i.get_seed_32
    get_seed_32
        0x0001aae0:    2806        .(      CMP      r0,#6
        0x0001aae2:    d210        ..      BCS      0x1ab06 ; get_seed_32 + 38
        0x0001aae4:    e8dff000    ....    TBB      [pc,r0]
    $d
        0x0001aae8:    0806030f    ....    DCD    134611727
        0x0001aaec:    0d0b        ..      DCW    3339
    $t
        0x0001aaee:    4807        .H      LDR      r0,[pc,#28] ; [0x1ab0c] = 0x10000024
        0x0001aaf0:    6800        .h      LDR      r0,[r0,#0]
        0x0001aaf2:    4770        pG      BX       lr
        0x0001aaf4:    4806        .H      LDR      r0,[pc,#24] ; [0x1ab10] = 0x10000028
        0x0001aaf6:    e000        ..      B        0x1aafa ; get_seed_32 + 26
        0x0001aaf8:    4806        .H      LDR      r0,[pc,#24] ; [0x1ab14] = 0x1000002c
        0x0001aafa:    6800        .h      LDR      r0,[r0,#0]
        0x0001aafc:    4770        pG      BX       lr
        0x0001aafe:    4806        .H      LDR      r0,[pc,#24] ; [0x1ab18] = 0x10000030
        0x0001ab00:    e7fb        ..      B        0x1aafa ; get_seed_32 + 26
        0x0001ab02:    4806        .H      LDR      r0,[pc,#24] ; [0x1ab1c] = 0x10000034
        0x0001ab04:    e7f9        ..      B        0x1aafa ; get_seed_32 + 26
        0x0001ab06:    2000        .       MOVS     r0,#0
        0x0001ab08:    4770        pG      BX       lr
    $d
        0x0001ab0a:    0000        ..      DCW    0
        0x0001ab0c:    10000024    $...    DCD    268435492
        0x0001ab10:    10000028    (...    DCD    268435496
        0x0001ab14:    1000002c    ,...    DCD    268435500
        0x0001ab18:    10000030    0...    DCD    268435504
        0x0001ab1c:    10000034    4...    DCD    268435508
    $t
    i.get_time
    get_time
        0x0001ab20:    4802        .H      LDR      r0,[pc,#8] ; [0x1ab2c] = 0x10000038
        0x0001ab22:    6981        .i      LDR      r1,[r0,#0x18]
        0x0001ab24:    6900        .i      LDR      r0,[r0,#0x10]
        0x0001ab26:    1a08        ..      SUBS     r0,r1,r0
        0x0001ab28:    4770        pG      BX       lr
    $d
        0x0001ab2a:    0000        ..      DCW    0
        0x0001ab2c:    10000038    8...    DCD    268435512
    $t
    i.main
    main
        0x0001ab30:    b510        ..      PUSH     {r4,lr}
        0x0001ab32:    b082        ..      SUB      sp,sp,#8
        0x0001ab34:    4c07        .L      LDR      r4,[pc,#28] ; [0x1ab54] = 0x10000038
        0x0001ab36:    2000        .       MOVS     r0,#0
        0x0001ab38:    9000        ..      STR      r0,[sp,#0]
        0x0001ab3a:    7020         p      STRB     r0,[r4,#0]
        0x0001ab3c:    a901        ..      ADD      r1,sp,#4
        0x0001ab3e:    4668        hF      MOV      r0,sp
        0x0001ab40:    f000f80a    ....    BL       main_loop ; 0x1ab58
        0x0001ab44:    2001        .       MOVS     r0,#1
        0x0001ab46:    7020         p      STRB     r0,[r4,#0]
        0x0001ab48:    a901        ..      ADD      r1,sp,#4
        0x0001ab4a:    4668        hF      MOV      r0,sp
        0x0001ab4c:    f000f804    ....    BL       main_loop ; 0x1ab58
        0x0001ab50:    b002        ..      ADD      sp,sp,#8
        0x0001ab52:    bd10        ..      POP      {r4,pc}
    $d
        0x0001ab54:    10000038    8...    DCD    268435512
    $t
    i.main_loop
    main_loop
        0x0001ab58:    e92d4ff0    -..O    PUSH     {r4-r11,lr}
        0x0001ab5c:    2500        .%      MOVS     r5,#0
        0x0001ab5e:    ed2d8b06    -...    VPUSH    {d8-d10}
        0x0001ab62:    f6ad0d24    ..$.    SUB      sp,sp,#0x824
        0x0001ab66:    460a        .F      MOV      r2,r1
        0x0001ab68:    4601        .F      MOV      r1,r0
        0x0001ab6a:    462c        ,F      MOV      r4,r5
        0x0001ab6c:    f04f38ff    O..8    MOV      r8,#0xffffffff
        0x0001ab70:    46a9        .F      MOV      r9,r5
        0x0001ab72:    af02        ..      ADD      r7,sp,#8
        0x0001ab74:    f10d004a    ..J.    ADD      r0,sp,#0x4a
        0x0001ab78:    f001f888    ....    BL       portable_init ; 0x1bc8c
        0x0001ab7c:    2001        .       MOVS     r0,#1
        0x0001ab7e:    f7ffffaf    ....    BL       get_seed_32 ; 0x1aae0
        0x0001ab82:    f8ad0008    ....    STRH     r0,[sp,#8]
        0x0001ab86:    2002        .       MOVS     r0,#2
        0x0001ab88:    f7ffffaa    ....    BL       get_seed_32 ; 0x1aae0
        0x0001ab8c:    f8ad000a    ....    STRH     r0,[sp,#0xa]
        0x0001ab90:    2003        .       MOVS     r0,#3
        0x0001ab92:    f7ffffa5    ....    BL       get_seed_32 ; 0x1aae0
        0x0001ab96:    f8ad000c    ....    STRH     r0,[sp,#0xc]
        0x0001ab9a:    2004        .       MOVS     r0,#4
        0x0001ab9c:    f7ffffa0    ....    BL       get_seed_32 ; 0x1aae0
        0x0001aba0:    0040        @.      LSLS     r0,r0,#1
        0x0001aba2:    9009        ..      STR      r0,[sp,#0x24]
        0x0001aba4:    48fe        .H      LDR      r0,[pc,#1016] ; [0x1afa0] = 0x10000038
        0x0001aba6:    7800        .x      LDRB     r0,[r0,#0]
        0x0001aba8:    2801        .(      CMP      r0,#1
        0x0001abaa:    d102        ..      BNE      0x1abb2 ; main_loop + 90
        0x0001abac:    9809        ..      LDR      r0,[sp,#0x24]
        0x0001abae:    0040        @.      LSLS     r0,r0,#1
        0x0001abb0:    9009        ..      STR      r0,[sp,#0x24]
        0x0001abb2:    2005        .       MOVS     r0,#5
        0x0001abb4:    f7ffff94    ....    BL       get_seed_32 ; 0x1aae0
        0x0001abb8:    900a        ..      STR      r0,[sp,#0x28]
        0x0001abba:    2800        .(      CMP      r0,#0
        0x0001abbc:    bf04        ..      ITT      EQ
        0x0001abbe:    2007        .       MOVEQ    r0,#7
        0x0001abc0:    900a        ..      STREQ    r0,[sp,#0x28]
        0x0001abc2:    f8bd0008    ....    LDRH     r0,[sp,#8]
        0x0001abc6:    2166        f!      MOVS     r1,#0x66
        0x0001abc8:    f04f0a00    O...    MOV      r10,#0
        0x0001abcc:    2800        .(      CMP      r0,#0
        0x0001abce:    bf01        ..      ITTTT    EQ
        0x0001abd0:    f8bd000a    ....    LDRHEQ   r0,[sp,#0xa]
        0x0001abd4:    2800        .(      CMPEQ    r0,#0
        0x0001abd6:    f8bd000c    ....    LDRHEQ   r0,[sp,#0xc]
        0x0001abda:    2800        .(      CMPEQ    r0,#0
        0x0001abdc:    d105        ..      BNE      0x1abea ; main_loop + 146
        0x0001abde:    f8ada008    ....    STRH     r10,[sp,#8]
        0x0001abe2:    f8ada00a    ....    STRH     r10,[sp,#0xa]
        0x0001abe6:    f8ad100c    ....    STRH     r1,[sp,#0xc]
        0x0001abea:    f8bd0008    ....    LDRH     r0,[sp,#8]
        0x0001abee:    2801        .(      CMP      r0,#1
        0x0001abf0:    bf01        ..      ITTTT    EQ
        0x0001abf2:    f8bd000a    ....    LDRHEQ   r0,[sp,#0xa]
        0x0001abf6:    2800        .(      CMPEQ    r0,#0
        0x0001abf8:    f8bd000c    ....    LDRHEQ   r0,[sp,#0xc]
        0x0001abfc:    2800        .(      CMPEQ    r0,#0
        0x0001abfe:    d107        ..      BNE      0x1ac10 ; main_loop + 184
        0x0001ac00:    f2434015    C..@    MOV      r0,#0x3415
        0x0001ac04:    f8ad0008    ....    STRH     r0,[sp,#8]
        0x0001ac08:    f8ad000a    ....    STRH     r0,[sp,#0xa]
        0x0001ac0c:    f8ad100c    ....    STRH     r1,[sp,#0xc]
        0x0001ac10:    a814        ..      ADD      r0,sp,#0x50
        0x0001ac12:    9004        ..      STR      r0,[sp,#0x10]
        0x0001ac14:    f44f60fa    O..`    MOV      r0,#0x7d0
        0x0001ac18:    9008        ..      STR      r0,[sp,#0x20]
        0x0001ac1a:    f8bd0008    ....    LDRH     r0,[sp,#8]
        0x0001ac1e:    f8ad0008    ....    STRH     r0,[sp,#8]
        0x0001ac22:    f8bd000a    ....    LDRH     r0,[sp,#0xa]
        0x0001ac26:    f8ad000a    ....    STRH     r0,[sp,#0xa]
        0x0001ac2a:    f8bd000c    ....    LDRH     r0,[sp,#0xc]
        0x0001ac2e:    f8ad000c    ....    STRH     r0,[sp,#0xc]
        0x0001ac32:    980a        ..      LDR      r0,[sp,#0x28]
        0x0001ac34:    f8ada048    ..H.    STRH     r10,[sp,#0x48]
        0x0001ac38:    f0100f01    ....    TST      r0,#1
        0x0001ac3c:    f04f0b01    O...    MOV      r11,#1
        0x0001ac40:    bf18        ..      IT       NE
        0x0001ac42:    2401        .$      MOVNE    r4,#1
        0x0001ac44:    980a        ..      LDR      r0,[sp,#0x28]
        0x0001ac46:    f0100f02    ....    TST      r0,#2
        0x0001ac4a:    bf18        ..      IT       NE
        0x0001ac4c:    1c64        d.      ADDNE    r4,r4,#1
        0x0001ac4e:    980a        ..      LDR      r0,[sp,#0x28]
        0x0001ac50:    f0100f04    ....    TST      r0,#4
        0x0001ac54:    bf18        ..      IT       NE
        0x0001ac56:    1c64        d.      ADDNE    r4,r4,#1
        0x0001ac58:    9808        ..      LDR      r0,[sp,#0x20]
        0x0001ac5a:    fbb0f0f4    ....    UDIV     r0,r0,r4
        0x0001ac5e:    9008        ..      STR      r0,[sp,#0x20]
        0x0001ac60:    980a        ..      LDR      r0,[sp,#0x28]
        0x0001ac62:    f0100f01    ....    TST      r0,#1
        0x0001ac66:    d006        ..      BEQ      0x1ac76 ; main_loop + 286
        0x0001ac68:    9908        ..      LDR      r1,[sp,#0x20]
        0x0001ac6a:    9804        ..      LDR      r0,[sp,#0x10]
        0x0001ac6c:    fb010005    ....    MLA      r0,r1,r5,r0
        0x0001ac70:    f04f0501    O...    MOV      r5,#1
        0x0001ac74:    9005        ..      STR      r0,[sp,#0x14]
        0x0001ac76:    980a        ..      LDR      r0,[sp,#0x28]
        0x0001ac78:    f0100f02    ....    TST      r0,#2
        0x0001ac7c:    d006        ..      BEQ      0x1ac8c ; main_loop + 308
        0x0001ac7e:    9908        ..      LDR      r1,[sp,#0x20]
        0x0001ac80:    9804        ..      LDR      r0,[sp,#0x10]
        0x0001ac82:    fb010005    ....    MLA      r0,r1,r5,r0
        0x0001ac86:    f1050501    ....    ADD      r5,r5,#1
        0x0001ac8a:    9006        ..      STR      r0,[sp,#0x18]
        0x0001ac8c:    980a        ..      LDR      r0,[sp,#0x28]
        0x0001ac8e:    f0100f04    ....    TST      r0,#4
        0x0001ac92:    d004        ..      BEQ      0x1ac9e ; main_loop + 326
        0x0001ac94:    9908        ..      LDR      r1,[sp,#0x20]
        0x0001ac96:    9804        ..      LDR      r0,[sp,#0x10]
        0x0001ac98:    fb010005    ....    MLA      r0,r1,r5,r0
        0x0001ac9c:    9007        ..      STR      r0,[sp,#0x1c]
        0x0001ac9e:    f04f0500    O...    MOV      r5,#0
        0x0001aca2:    bf00        ..      NOP      
        0x0001aca4:    eb051605    ....    ADD      r6,r5,r5,LSL #4
        0x0001aca8:    eb070486    ....    ADD      r4,r7,r6,LSL #2
        0x0001acac:    f8940020    .. .    LDRB     r0,[r4,#0x20]
        0x0001acb0:    f0100f01    ....    TST      r0,#1
        0x0001acb4:    d006        ..      BEQ      0x1acc4 ; main_loop + 364
        0x0001acb6:    f9372026    7.&     LDRSH    r2,[r7,r6,LSL #2]
        0x0001acba:    68e1        .h      LDR      r1,[r4,#0xc]
        0x0001acbc:    9808        ..      LDR      r0,[sp,#0x20]
        0x0001acbe:    f7fffcad    ....    BL       core_list_init ; 0x1a61c
        0x0001acc2:    6260        `b      STR      r0,[r4,#0x24]
        0x0001acc4:    f8940020    .. .    LDRB     r0,[r4,#0x20]
        0x0001acc8:    f0100f02    ....    TST      r0,#2
        0x0001accc:    d00a        ..      BEQ      0x1ace4 ; main_loop + 396
        0x0001acce:    f9370026    7.&.    LDRSH    r0,[r7,r6,LSL #2]
        0x0001acd2:    8861        a.      LDRH     r1,[r4,#2]
        0x0001acd4:    f1040328    ..(.    ADD      r3,r4,#0x28
        0x0001acd8:    ea404201    @..B    ORR      r2,r0,r1,LSL #16
        0x0001acdc:    6921        !i      LDR      r1,[r4,#0x10]
        0x0001acde:    9808        ..      LDR      r0,[sp,#0x20]
        0x0001ace0:    f7fffbc2    ....    BL       core_init_matrix ; 0x1a468
        0x0001ace4:    f8940020    .. .    LDRB     r0,[r4,#0x20]
        0x0001ace8:    f0100f04    ....    TST      r0,#4
        0x0001acec:    d005        ..      BEQ      0x1acfa ; main_loop + 418
        0x0001acee:    f9371026    7.&.    LDRSH    r1,[r7,r6,LSL #2]
        0x0001acf2:    6962        bi      LDR      r2,[r4,#0x14]
        0x0001acf4:    9808        ..      LDR      r0,[sp,#0x20]
        0x0001acf6:    f7fffc0b    ....    BL       core_init_state ; 0x1a510
        0x0001acfa:    1c68        h.      ADDS     r0,r5,#1
        0x0001acfc:    0405        ..      LSLS     r5,r0,#16
        0x0001acfe:    0c2d        -.      LSRS     r5,r5,#16
        0x0001ad00:    d0d0        ..      BEQ      0x1aca4 ; main_loop + 332
        0x0001ad02:    ed9faba9    ....    VLDR     d10,[pc,#676] ; [0x1afa8] = 0
        0x0001ad06:    9809        ..      LDR      r0,[sp,#0x24]
        0x0001ad08:    2800        .(      CMP      r0,#0
        0x0001ad0a:    d152        R.      BNE      0x1adb2 ; main_loop + 602
        0x0001ad0c:    eeb08a4a    ..J.    VMOV.F32 s16,s20
        0x0001ad10:    eef08a6a    ..j.    VMOV.F32 s17,s21
        0x0001ad14:    ed9f9ba6    ....    VLDR     d9,[pc,#664] ; [0x1afb0] = 0
        0x0001ad18:    f8cdb024    ..$.    STR      r11,[sp,#0x24]
        0x0001ad1c:    e034        4.      B        0x1ad88 ; main_loop + 560
        0x0001ad1e:    9809        ..      LDR      r0,[sp,#0x24]
        0x0001ad20:    eb000080    ....    ADD      r0,r0,r0,LSL #2
        0x0001ad24:    0040        @.      LSLS     r0,r0,#1
        0x0001ad26:    9009        ..      STR      r0,[sp,#0x24]
        0x0001ad28:    f001f8a6    ....    BL       start_time ; 0x1be78
        0x0001ad2c:    9e09        ..      LDR      r6,[sp,#0x24]
        0x0001ad2e:    f8ada040    ..@.    STRH     r10,[sp,#0x40]
        0x0001ad32:    f8ada044    ..D.    STRH     r10,[sp,#0x44]
        0x0001ad36:    2500        .%      MOVS     r5,#0
        0x0001ad38:    ac02        ..      ADD      r4,sp,#8
        0x0001ad3a:    f8ada042    ..B.    STRH     r10,[sp,#0x42]
        0x0001ad3e:    f8ada046    ..F.    STRH     r10,[sp,#0x46]
        0x0001ad42:    2e00        ..      CMP      r6,#0
        0x0001ad44:    d916        ..      BLS      0x1ad74 ; main_loop + 540
        0x0001ad46:    2101        .!      MOVS     r1,#1
        0x0001ad48:    4620         F      MOV      r0,r4
        0x0001ad4a:    f7fffa3d    ..=.    BL       core_bench_list ; 0x1a1c8
        0x0001ad4e:    8f21        !.      LDRH     r1,[r4,#0x38]
        0x0001ad50:    f7fffe3c    ..<.    BL       crcu16 ; 0x1a9cc
        0x0001ad54:    8720         .      STRH     r0,[r4,#0x38]
        0x0001ad56:    f04f31ff    O..1    MOV      r1,#0xffffffff
        0x0001ad5a:    4620         F      MOV      r0,r4
        0x0001ad5c:    f7fffa34    ..4.    BL       core_bench_list ; 0x1a1c8
        0x0001ad60:    8f21        !.      LDRH     r1,[r4,#0x38]
        0x0001ad62:    f7fffe33    ..3.    BL       crcu16 ; 0x1a9cc
        0x0001ad66:    8720         .      STRH     r0,[r4,#0x38]
        0x0001ad68:    2d00        .-      CMP      r5,#0
        0x0001ad6a:    bf08        ..      IT       EQ
        0x0001ad6c:    8760        `.      STRHEQ   r0,[r4,#0x3a]
        0x0001ad6e:    1c6d        m.      ADDS     r5,r5,#1
        0x0001ad70:    42b5        .B      CMP      r5,r6
        0x0001ad72:    d3e8        ..      BCC      0x1ad46 ; main_loop + 494
        0x0001ad74:    f001f8ac    ....    BL       stop_time ; 0x1bed0
        0x0001ad78:    f7fffed2    ....    BL       get_time ; 0x1ab20
        0x0001ad7c:    f001f8c8    ....    BL       time_in_secs ; 0x1bf10
        0x0001ad80:    eeb08a40    ..@.    VMOV.F32 s16,s0
        0x0001ad84:    eef08a60    ..`.    VMOV.F32 s17,s1
        0x0001ad88:    ec532b19    S..+    VMOV     r2,r3,d9
        0x0001ad8c:    ec510b18    Q...    VMOV     r0,r1,d8
        0x0001ad90:    f001fb54    ..T.    BL       __aeabi_cdcmple ; 0x1c43c
        0x0001ad94:    d3c3        ..      BCC      0x1ad1e ; main_loop + 454
        0x0001ad96:    ec510b18    Q...    VMOV     r0,r1,d8
        0x0001ad9a:    f001fb0f    ....    BL       __aeabi_d2uiz ; 0x1c3bc
        0x0001ad9e:    2800        .(      CMP      r0,#0
        0x0001ada0:    bf08        ..      IT       EQ
        0x0001ada2:    2001        .       MOVEQ    r0,#1
        0x0001ada4:    210a        .!      MOVS     r1,#0xa
        0x0001ada6:    fbb1f0f0    ....    UDIV     r0,r1,r0
        0x0001adaa:    9909        ..      LDR      r1,[sp,#0x24]
        0x0001adac:    1c40        @.      ADDS     r0,r0,#1
        0x0001adae:    4348        HC      MULS     r0,r1,r0
        0x0001adb0:    9009        ..      STR      r0,[sp,#0x24]
        0x0001adb2:    f001f861    ..a.    BL       start_time ; 0x1be78
        0x0001adb6:    9d09        ..      LDR      r5,[sp,#0x24]
        0x0001adb8:    f8ada040    ..@.    STRH     r10,[sp,#0x40]
        0x0001adbc:    f8ada044    ..D.    STRH     r10,[sp,#0x44]
        0x0001adc0:    2600        .&      MOVS     r6,#0
        0x0001adc2:    ac02        ..      ADD      r4,sp,#8
        0x0001adc4:    f8ada042    ..B.    STRH     r10,[sp,#0x42]
        0x0001adc8:    f8ada046    ..F.    STRH     r10,[sp,#0x46]
        0x0001adcc:    2d00        .-      CMP      r5,#0
        0x0001adce:    d916        ..      BLS      0x1adfe ; main_loop + 678
        0x0001add0:    2101        .!      MOVS     r1,#1
        0x0001add2:    4620         F      MOV      r0,r4
        0x0001add4:    f7fff9f8    ....    BL       core_bench_list ; 0x1a1c8
        0x0001add8:    8f21        !.      LDRH     r1,[r4,#0x38]
        0x0001adda:    f7fffdf7    ....    BL       crcu16 ; 0x1a9cc
        0x0001adde:    8720         .      STRH     r0,[r4,#0x38]
        0x0001ade0:    f04f31ff    O..1    MOV      r1,#0xffffffff
        0x0001ade4:    4620         F      MOV      r0,r4
        0x0001ade6:    f7fff9ef    ....    BL       core_bench_list ; 0x1a1c8
        0x0001adea:    8f21        !.      LDRH     r1,[r4,#0x38]
        0x0001adec:    f7fffdee    ....    BL       crcu16 ; 0x1a9cc
        0x0001adf0:    8720         .      STRH     r0,[r4,#0x38]
        0x0001adf2:    2e00        ..      CMP      r6,#0
        0x0001adf4:    bf08        ..      IT       EQ
        0x0001adf6:    8760        `.      STRHEQ   r0,[r4,#0x3a]
        0x0001adf8:    1c76        v.      ADDS     r6,r6,#1
        0x0001adfa:    42ae        .B      CMP      r6,r5
        0x0001adfc:    d3e8        ..      BCC      0x1add0 ; main_loop + 632
        0x0001adfe:    f001f867    ..g.    BL       stop_time ; 0x1bed0
        0x0001ae02:    f7fffe8d    ....    BL       get_time ; 0x1ab20
        0x0001ae06:    9013        ..      STR      r0,[sp,#0x4c]
        0x0001ae08:    f9bd0008    ....    LDRSH    r0,[sp,#8]
        0x0001ae0c:    2100        .!      MOVS     r1,#0
        0x0001ae0e:    f7fffdb5    ....    BL       crc16 ; 0x1a97c
        0x0001ae12:    4601        .F      MOV      r1,r0
        0x0001ae14:    f9bd000a    ....    LDRSH    r0,[sp,#0xa]
        0x0001ae18:    f7fffdb0    ....    BL       crc16 ; 0x1a97c
        0x0001ae1c:    f9bd200c    ...     LDRSH    r2,[sp,#0xc]
        0x0001ae20:    4601        .F      MOV      r1,r0
        0x0001ae22:    4610        .F      MOV      r0,r2
        0x0001ae24:    f7fffdaa    ....    BL       crc16 ; 0x1a97c
        0x0001ae28:    9a08        ..      LDR      r2,[sp,#0x20]
        0x0001ae2a:    4601        .F      MOV      r1,r0
        0x0001ae2c:    b212        ..      SXTH     r2,r2
        0x0001ae2e:    4610        .F      MOV      r0,r2
        0x0001ae30:    f7fffda4    ....    BL       crc16 ; 0x1a97c
        0x0001ae34:    f6473205    G..2    MOV      r2,#0x7b05
        0x0001ae38:    1a81        ..      SUBS     r1,r0,r2
        0x0001ae3a:    4d5f        _M      LDR      r5,[pc,#380] ; [0x1afb8] = 0x10000058
        0x0001ae3c:    9000        ..      STR      r0,[sp,#0]
        0x0001ae3e:    4290        .B      CMP      r0,r2
        0x0001ae40:    bf04        ..      ITT      EQ
        0x0001ae42:    f04f0801    O...    MOVEQ    r8,#1
        0x0001ae46:    a05d        ].      ADREQ    r0,{pc}+0x176 ; 0x1afbc
        0x0001ae48:    d028        (.      BEQ      0x1ae9c ; main_loop + 836
        0x0001ae4a:    dc12        ..      BGT      0x1ae72 ; main_loop + 794
        0x0001ae4c:    f200700e    ...p    ADD      r0,r0,#0x70e
        0x0001ae50:    f5b05000    ...P    SUBS     r0,r0,#0x2000
        0x0001ae54:    bf04        ..      ITT      EQ
        0x0001ae56:    f04f0804    O...    MOVEQ    r8,#4
        0x0001ae5a:    a063        c.      ADREQ    r0,{pc}+0x18e ; 0x1afe8
        0x0001ae5c:    d01e        ..      BEQ      0x1ae9c ; main_loop + 836
        0x0001ae5e:    f6002043    ..C     ADD      r0,r0,#0xa43
        0x0001ae62:    f5b04f80    ...O    CMP      r0,#0x4000
        0x0001ae66:    bf04        ..      ITT      EQ
        0x0001ae68:    f04f0802    O...    MOVEQ    r8,#2
        0x0001ae6c:    a069        i.      ADREQ    r0,{pc}+0x1a8 ; 0x1b014
        0x0001ae6e:    d015        ..      BEQ      0x1ae9c ; main_loop + 836
        0x0001ae70:    e00b        ..      B        0x1ae8a ; main_loop + 818
        0x0001ae72:    f5a16060    ..``    SUB      r0,r1,#0xe00
        0x0001ae76:    38fd        .8      SUBS     r0,r0,#0xfd
        0x0001ae78:    d00a        ..      BEQ      0x1ae90 ; main_loop + 824
        0x0001ae7a:    300d        .0      ADDS     r0,r0,#0xd
        0x0001ae7c:    f5b04fc0    ...O    CMP      r0,#0x6000
        0x0001ae80:    bf04        ..      ITT      EQ
        0x0001ae82:    f04f0803    O...    MOVEQ    r8,#3
        0x0001ae86:    a070        p.      ADREQ    r0,{pc}+0x1c2 ; 0x1b048
        0x0001ae88:    d008        ..      BEQ      0x1ae9c ; main_loop + 836
        0x0001ae8a:    f04f39ff    O..9    MOV      r9,#0xffffffff
        0x0001ae8e:    e05a        Z.      B        0x1af46 ; main_loop + 1006
        0x0001ae90:    f04f0800    O...    MOV      r8,#0
        0x0001ae94:    a078        x.      ADR      r0,{pc}+0x1e4 ; 0x1b078
        0x0001ae96:    f7fefd0f    ....    BL       am_sprintf ; 0x198b8
        0x0001ae9a:    e001        ..      B        0x1aea0 ; main_loop + 840
        0x0001ae9c:    f7fefd0c    ....    BL       am_sprintf ; 0x198b8
        0x0001aea0:    6828        (h      LDR      r0,[r5,#0]
        0x0001aea2:    2400        .$      MOVS     r4,#0
        0x0001aea4:    2800        .(      CMP      r0,#0
        0x0001aea6:    bf88        ..      IT       HI
        0x0001aea8:    f8dfb1fc    ....    LDRHI    r11,[pc,#508] ; [0x1b0a8] = 0x10000004
        0x0001aeac:    d94b        K.      BLS      0x1af46 ; main_loop + 1006
        0x0001aeae:    bf00        ..      NOP      
        0x0001aeb0:    eb041004    ....    ADD      r0,r4,r4,LSL #4
        0x0001aeb4:    eb070680    ....    ADD      r6,r7,r0,LSL #2
        0x0001aeb8:    f8a6a040    ..@.    STRH     r10,[r6,#0x40]
        0x0001aebc:    f8960020    .. .    LDRB     r0,[r6,#0x20]
        0x0001aec0:    f0100f01    ....    TST      r0,#1
        0x0001aec4:    d00d        ..      BEQ      0x1aee2 ; main_loop + 906
        0x0001aec6:    8f72        r.      LDRH     r2,[r6,#0x3a]
        0x0001aec8:    f83b3018    ;..0    LDRH     r3,[r11,r8,LSL #1]
        0x0001aecc:    429a        .B      CMP      r2,r3
        0x0001aece:    d008        ..      BEQ      0x1aee2 ; main_loop + 906
        0x0001aed0:    4621        !F      MOV      r1,r4
        0x0001aed2:    a076        v.      ADR      r0,{pc}+0x1da ; 0x1b0ac
        0x0001aed4:    f7fefcf0    ....    BL       am_sprintf ; 0x198b8
        0x0001aed8:    f8b60040    ..@.    LDRH     r0,[r6,#0x40]
        0x0001aedc:    1c40        @.      ADDS     r0,r0,#1
        0x0001aede:    f8a60040    ..@.    STRH     r0,[r6,#0x40]
        0x0001aee2:    f8960020    .. .    LDRB     r0,[r6,#0x20]
        0x0001aee6:    f0100f02    ....    TST      r0,#2
        0x0001aeea:    d00e        ..      BEQ      0x1af0a ; main_loop + 946
        0x0001aeec:    487b        {H      LDR      r0,[pc,#492] ; [0x1b0dc] = 0x1000000e
        0x0001aeee:    8fb2        ..      LDRH     r2,[r6,#0x3c]
        0x0001aef0:    f8303018    0..0    LDRH     r3,[r0,r8,LSL #1]
        0x0001aef4:    429a        .B      CMP      r2,r3
        0x0001aef6:    d008        ..      BEQ      0x1af0a ; main_loop + 946
        0x0001aef8:    4621        !F      MOV      r1,r4
        0x0001aefa:    a079        y.      ADR      r0,{pc}+0x1e6 ; 0x1b0e0
        0x0001aefc:    f7fefcdc    ....    BL       am_sprintf ; 0x198b8
        0x0001af00:    f8b60040    ..@.    LDRH     r0,[r6,#0x40]
        0x0001af04:    1c40        @.      ADDS     r0,r0,#1
        0x0001af06:    f8a60040    ..@.    STRH     r0,[r6,#0x40]
        0x0001af0a:    f8960020    .. .    LDRB     r0,[r6,#0x20]
        0x0001af0e:    f0100f04    ....    TST      r0,#4
        0x0001af12:    d00e        ..      BEQ      0x1af32 ; main_loop + 986
        0x0001af14:    487f        .H      LDR      r0,[pc,#508] ; [0x1b114] = 0x10000018
        0x0001af16:    8ff2        ..      LDRH     r2,[r6,#0x3e]
        0x0001af18:    f8303018    0..0    LDRH     r3,[r0,r8,LSL #1]
        0x0001af1c:    429a        .B      CMP      r2,r3
        0x0001af1e:    d008        ..      BEQ      0x1af32 ; main_loop + 986
        0x0001af20:    4621        !F      MOV      r1,r4
        0x0001af22:    a07d        }.      ADR      r0,{pc}+0x1f6 ; 0x1b118
        0x0001af24:    f7fefcc8    ....    BL       am_sprintf ; 0x198b8
        0x0001af28:    f8b60040    ..@.    LDRH     r0,[r6,#0x40]
        0x0001af2c:    1c40        @.      ADDS     r0,r0,#1
        0x0001af2e:    f8a60040    ..@.    STRH     r0,[r6,#0x40]
        0x0001af32:    f8b60040    ..@.    LDRH     r0,[r6,#0x40]
        0x0001af36:    4448        HD      ADD      r0,r0,r9
        0x0001af38:    fa0ff980    ....    SXTH     r9,r0
        0x0001af3c:    1c60        `.      ADDS     r0,r4,#1
        0x0001af3e:    b284        ..      UXTH     r4,r0
        0x0001af40:    6828        (h      LDR      r0,[r5,#0]
        0x0001af42:    4284        .B      CMP      r4,r0
        0x0001af44:    d3b4        ..      BCC      0x1aeb0 ; main_loop + 856
        0x0001af46:    f7fff91a    ....    BL       check_data_types ; 0x1a17e
        0x0001af4a:    4448        HD      ADD      r0,r0,r9
        0x0001af4c:    b206        ..      SXTH     r6,r0
        0x0001af4e:    a07e        ~.      ADR      r0,{pc}+0x1fa ; 0x1b148
        0x0001af50:    9908        ..      LDR      r1,[sp,#0x20]
        0x0001af52:    f7fefcb1    ....    BL       am_sprintf ; 0x198b8
        0x0001af56:    2300        .#      MOVS     r3,#0
        0x0001af58:    a081        ..      ADR      r0,{pc}+0x208 ; 0x1b160
        0x0001af5a:    9a13        ..      LDR      r2,[sp,#0x4c]
        0x0001af5c:    f7fefcac    ....    BL       am_sprintf ; 0x198b8
        0x0001af60:    9813        ..      LDR      r0,[sp,#0x4c]
        0x0001af62:    f000ffd5    ....    BL       time_in_secs ; 0x1bf10
        0x0001af66:    ec532b10    S..+    VMOV     r2,r3,d0
        0x0001af6a:    a084        ..      ADR      r0,{pc}+0x212 ; 0x1b17c
        0x0001af6c:    f7fefca4    ....    BL       am_sprintf ; 0x198b8
        0x0001af70:    9813        ..      LDR      r0,[sp,#0x4c]
        0x0001af72:    f000ffcd    ....    BL       time_in_secs ; 0x1bf10
        0x0001af76:    ec532b1a    S..+    VMOV     r2,r3,d10
        0x0001af7a:    ec510b10    Q...    VMOV     r0,r1,d0
        0x0001af7e:    f001faed    ....    BL       __aeabi_cdrcmple ; 0x1c55c
        0x0001af82:    d209        ..      BCS      0x1af98 ; main_loop + 1088
        0x0001af84:    9813        ..      LDR      r0,[sp,#0x4c]
        0x0001af86:    f000ffc3    ....    BL       time_in_secs ; 0x1bf10
        0x0001af8a:    eeb08a40    ..@.    VMOV.F32 s16,s0
        0x0001af8e:    eef08a60    ..`.    VMOV.F32 s17,s1
        0x0001af92:    9809        ..      LDR      r0,[sp,#0x24]
        0x0001af94:    6829        )h      LDR      r1,[r5,#0]
        0x0001af96:    e0fd        ..      B        0x1b194 ; main_loop + 1596
        0x0001af98:    e10a        ..      B        0x1b1b0 ; main_loop + 1624
    $d
        0x0001af9a:    0000        ..      DCW    0
        0x0001af9c:    00000000    ....    DCD    0
        0x0001afa0:    10000038    8...    DCD    268435512
        0x0001afa4:    00000000    ....    DCD    0
        0x0001afa8:    00000000    ....    DCD    0
        0x0001afac:    00000000    ....    DCD    0
        0x0001afb0:    00000000    ....    DCD    0
        0x0001afb4:    3ff00000    ...?    DCD    1072693248
        0x0001afb8:    10000058    X...    DCD    268435544
        0x0001afbc:    76206b36    6k v    DCD    1981836086
        0x0001afc0:    64696c61    alid    DCD    1684630625
        0x0001afc4:    6f697461    atio    DCD    1869182049
        0x0001afc8:    7572206e    n ru    DCD    1970413678
        0x0001afcc:    6170206e    n pa    DCD    1634738286
        0x0001afd0:    656d6172    rame    DCD    1701667186
        0x0001afd4:    73726574    ters    DCD    1936876916
        0x0001afd8:    726f6620     for    DCD    1919903264
        0x0001afdc:    726f6320     cor    DCD    1919902496
        0x0001afe0:    72616d65    emar    DCD    1918987621
        0x0001afe4:    000a2e6b    k...    DCD    667243
        0x0001afe8:    76204b32    2K v    DCD    1981827890
        0x0001afec:    64696c61    alid    DCD    1684630625
        0x0001aff0:    6f697461    atio    DCD    1869182049
        0x0001aff4:    7572206e    n ru    DCD    1970413678
        0x0001aff8:    6170206e    n pa    DCD    1634738286
        0x0001affc:    656d6172    rame    DCD    1701667186
        0x0001b000:    73726574    ters    DCD    1936876916
        0x0001b004:    726f6620     for    DCD    1919903264
        0x0001b008:    726f6320     cor    DCD    1919902496
        0x0001b00c:    72616d65    emar    DCD    1918987621
        0x0001b010:    000a2e6b    k...    DCD    667243
        0x0001b014:    666f7250    Prof    DCD    1718579792
        0x0001b018:    20656c69    ile     DCD    543517801
        0x0001b01c:    656e6567    gene    DCD    1701733735
        0x0001b020:    69746172    rati    DCD    1769234802
        0x0001b024:    72206e6f    on r    DCD    1914728047
        0x0001b028:    70206e75    un p    DCD    1881173621
        0x0001b02c:    6d617261    aram    DCD    1835102817
        0x0001b030:    72657465    eter    DCD    1919251557
        0x0001b034:    6f662073    s fo    DCD    1868963955
        0x0001b038:    6f632072    r co    DCD    1868767346
        0x0001b03c:    616d6572    rema    DCD    1634559346
        0x0001b040:    0a2e6b72    rk..    DCD    170814322
        0x0001b044:    00000000    ....    DCD    0
        0x0001b048:    70204b32    2K p    DCD    1881164594
        0x0001b04c:    6f667265    erfo    DCD    1868984933
        0x0001b050:    6e616d72    rman    DCD    1851878770
        0x0001b054:    72206563    ce r    DCD    1914725731
        0x0001b058:    70206e75    un p    DCD    1881173621
        0x0001b05c:    6d617261    aram    DCD    1835102817
        0x0001b060:    72657465    eter    DCD    1919251557
        0x0001b064:    6f662073    s fo    DCD    1868963955
        0x0001b068:    6f632072    r co    DCD    1868767346
        0x0001b06c:    616d6572    rema    DCD    1634559346
        0x0001b070:    0a2e6b72    rk..    DCD    170814322
        0x0001b074:    00000000    ....    DCD    0
        0x0001b078:    70206b36    6k p    DCD    1881172790
        0x0001b07c:    6f667265    erfo    DCD    1868984933
        0x0001b080:    6e616d72    rman    DCD    1851878770
        0x0001b084:    72206563    ce r    DCD    1914725731
        0x0001b088:    70206e75    un p    DCD    1881173621
        0x0001b08c:    6d617261    aram    DCD    1835102817
        0x0001b090:    72657465    eter    DCD    1919251557
        0x0001b094:    6f662073    s fo    DCD    1868963955
        0x0001b098:    6f632072    r co    DCD    1868767346
        0x0001b09c:    616d6572    rema    DCD    1634559346
        0x0001b0a0:    0a2e6b72    rk..    DCD    170814322
        0x0001b0a4:    00000000    ....    DCD    0
        0x0001b0a8:    10000004    ....    DCD    268435460
        0x0001b0ac:    5d75255b    [%u]    DCD    1567958363
        0x0001b0b0:    4f525245    ERRO    DCD    1330795077
        0x0001b0b4:    6c202152    R! l    DCD    1814045010
        0x0001b0b8:    20747369    ist     DCD    544502633
        0x0001b0bc:    20637263    crc     DCD    543388259
        0x0001b0c0:    30257830    0x%0    DCD    807761968
        0x0001b0c4:    2d207834    4x -    DCD    757102644
        0x0001b0c8:    6f687320     sho    DCD    1869116192
        0x0001b0cc:    20646c75    uld     DCD    543452277
        0x0001b0d0:    30206562    be 0    DCD    807429474
        0x0001b0d4:    34302578    x%04    DCD    875570552
        0x0001b0d8:    00000a78    x...    DCD    2680
        0x0001b0dc:    1000000e    ....    DCD    268435470
        0x0001b0e0:    5d75255b    [%u]    DCD    1567958363
        0x0001b0e4:    4f525245    ERRO    DCD    1330795077
        0x0001b0e8:    6d202152    R! m    DCD    1830822226
        0x0001b0ec:    69727461    atri    DCD    1769108577
        0x0001b0f0:    72632078    x cr    DCD    1919099000
        0x0001b0f4:    78302063    c 0x    DCD    2016419939
        0x0001b0f8:    78343025    %04x    DCD    2016686117
        0x0001b0fc:    73202d20     - s    DCD    1931488544
        0x0001b100:    6c756f68    houl    DCD    1819635560
        0x0001b104:    65622064    d be    DCD    1700929636
        0x0001b108:    25783020     0x%    DCD    628633632
        0x0001b10c:    0a783430    04x.    DCD    175649840
        0x0001b110:    00000000    ....    DCD    0
        0x0001b114:    10000018    ....    DCD    268435480
        0x0001b118:    5d75255b    [%u]    DCD    1567958363
        0x0001b11c:    4f525245    ERRO    DCD    1330795077
        0x0001b120:    73202152    R! s    DCD    1931485522
        0x0001b124:    65746174    tate    DCD    1702125940
        0x0001b128:    63726320     crc    DCD    1668440864
        0x0001b12c:    25783020     0x%    DCD    628633632
        0x0001b130:    20783430    04x     DCD    544748592
        0x0001b134:    6873202d    - sh    DCD    1752375341
        0x0001b138:    646c756f    ould    DCD    1684829551
        0x0001b13c:    20656220     be     DCD    543515168
        0x0001b140:    30257830    0x%0    DCD    807761968
        0x0001b144:    000a7834    4x..    DCD    686132
        0x0001b148:    65726f43    Core    DCD    1701998403
        0x0001b14c:    6b72614d    Mark    DCD    1802658125
        0x0001b150:    7a695320     Siz    DCD    2053722912
        0x0001b154:    20202065    e       DCD    538976357
        0x0001b158:    25203a20     : %    DCD    622869024
        0x0001b15c:    000a756c    lu..    DCD    685420
        0x0001b160:    61746f54    Tota    DCD    1635020628
        0x0001b164:    6974206c    l ti    DCD    1769218156
        0x0001b168:    20736b63    cks     DCD    544435043
        0x0001b16c:    20202020            DCD    538976288
        0x0001b170:    25203a20     : %    DCD    622869024
        0x0001b174:    0a756c6c    llu.    DCD    175467628
        0x0001b178:    00000000    ....    DCD    0
        0x0001b17c:    61746f54    Tota    DCD    1635020628
        0x0001b180:    6974206c    l ti    DCD    1769218156
        0x0001b184:    2820656d    me (    DCD    673211757
        0x0001b188:    73636573    secs    DCD    1935893875
        0x0001b18c:    25203a29    ): %    DCD    622869033
        0x0001b190:    00000a66    f...    DCD    2662
    $t
        0x0001b194:    4348        HC      MULS     r0,r1,r0
        0x0001b196:    f001f93e    ..>.    BL       __aeabi_ui2d ; 0x1c416
        0x0001b19a:    ec532b18    S..+    VMOV     r2,r3,d8
        0x0001b19e:    f000ffb5    ....    BL       __aeabi_ddiv ; 0x1c10c
        0x0001b1a2:    ec410b10    A...    VMOV     d0,r0,r1
        0x0001b1a6:    a072        r.      ADR      r0,{pc}+0x1ca ; 0x1b370
        0x0001b1a8:    ec532b10    S..+    VMOV     r2,r3,d0
        0x0001b1ac:    f7fefb84    ....    BL       am_sprintf ; 0x198b8
        0x0001b1b0:    9813        ..      LDR      r0,[sp,#0x4c]
        0x0001b1b2:    f000fead    ....    BL       time_in_secs ; 0x1bf10
        0x0001b1b6:    ed9f1b74    ..t.    VLDR     d1,[pc,#464] ; [0x1b388] = 0
        0x0001b1ba:    ec510b10    Q...    VMOV     r0,r1,d0
        0x0001b1be:    ec532b11    S..+    VMOV     r2,r3,d1
        0x0001b1c2:    f001f93b    ..;.    BL       __aeabi_cdcmple ; 0x1c43c
        0x0001b1c6:    d204        ..      BCS      0x1b1d2 ; main_loop + 1658
        0x0001b1c8:    a071        q.      ADR      r0,{pc}+0x1c8 ; 0x1b390
        0x0001b1ca:    f7fefb75    ..u.    BL       am_sprintf ; 0x198b8
        0x0001b1ce:    1c70        p.      ADDS     r0,r6,#1
        0x0001b1d0:    b206        ..      SXTH     r6,r0
        0x0001b1d2:    9809        ..      LDR      r0,[sp,#0x24]
        0x0001b1d4:    6829        )h      LDR      r1,[r5,#0]
        0x0001b1d6:    4341        AC      MULS     r1,r0,r1
        0x0001b1d8:    a07d        }.      ADR      r0,{pc}+0x1f8 ; 0x1b3d0
        0x0001b1da:    f7fefb6d    ..m.    BL       am_sprintf ; 0x198b8
        0x0001b1de:    a182        ..      ADR      r1,{pc}+0x20a ; 0x1b3e8
        0x0001b1e0:    a085        ..      ADR      r0,{pc}+0x218 ; 0x1b3f8
        0x0001b1e2:    f7fefb69    ..i.    BL       am_sprintf ; 0x198b8
        0x0001b1e6:    a18a        ..      ADR      r1,{pc}+0x22a ; 0x1b410
        0x0001b1e8:    a08b        ..      ADR      r0,{pc}+0x230 ; 0x1b418
        0x0001b1ea:    f7fefb65    ..e.    BL       am_sprintf ; 0x198b8
        0x0001b1ee:    a090        ..      ADR      r0,{pc}+0x242 ; 0x1b430
        0x0001b1f0:    9900        ..      LDR      r1,[sp,#0]
        0x0001b1f2:    f7fefb61    ..a.    BL       am_sprintf ; 0x198b8
        0x0001b1f6:    980a        ..      LDR      r0,[sp,#0x28]
        0x0001b1f8:    f0100f01    ....    TST      r0,#1
        0x0001b1fc:    d012        ..      BEQ      0x1b224 ; main_loop + 1740
        0x0001b1fe:    6828        (h      LDR      r0,[r5,#0]
        0x0001b200:    2400        .$      MOVS     r4,#0
        0x0001b202:    2800        .(      CMP      r0,#0
        0x0001b204:    d90e        ..      BLS      0x1b224 ; main_loop + 1740
        0x0001b206:    bf00        ..      NOP      
        0x0001b208:    eb041004    ....    ADD      r0,r4,r4,LSL #4
        0x0001b20c:    eb070080    ....    ADD      r0,r7,r0,LSL #2
        0x0001b210:    4621        !F      MOV      r1,r4
        0x0001b212:    8f42        B.      LDRH     r2,[r0,#0x3a]
        0x0001b214:    a08d        ..      ADR      r0,{pc}+0x238 ; 0x1b44c
        0x0001b216:    f7fefb4f    ..O.    BL       am_sprintf ; 0x198b8
        0x0001b21a:    1c60        `.      ADDS     r0,r4,#1
        0x0001b21c:    b284        ..      UXTH     r4,r0
        0x0001b21e:    6828        (h      LDR      r0,[r5,#0]
        0x0001b220:    42a0        .B      CMP      r0,r4
        0x0001b222:    d8f1        ..      BHI      0x1b208 ; main_loop + 1712
        0x0001b224:    980a        ..      LDR      r0,[sp,#0x28]
        0x0001b226:    f0100f02    ....    TST      r0,#2
        0x0001b22a:    d011        ..      BEQ      0x1b250 ; main_loop + 1784
        0x0001b22c:    6828        (h      LDR      r0,[r5,#0]
        0x0001b22e:    2400        .$      MOVS     r4,#0
        0x0001b230:    2800        .(      CMP      r0,#0
        0x0001b232:    d90d        ..      BLS      0x1b250 ; main_loop + 1784
        0x0001b234:    eb041004    ....    ADD      r0,r4,r4,LSL #4
        0x0001b238:    eb070080    ....    ADD      r0,r7,r0,LSL #2
        0x0001b23c:    4621        !F      MOV      r1,r4
        0x0001b23e:    8f82        ..      LDRH     r2,[r0,#0x3c]
        0x0001b240:    a089        ..      ADR      r0,{pc}+0x228 ; 0x1b468
        0x0001b242:    f7fefb39    ..9.    BL       am_sprintf ; 0x198b8
        0x0001b246:    1c60        `.      ADDS     r0,r4,#1
        0x0001b248:    b284        ..      UXTH     r4,r0
        0x0001b24a:    6828        (h      LDR      r0,[r5,#0]
        0x0001b24c:    42a0        .B      CMP      r0,r4
        0x0001b24e:    d8f1        ..      BHI      0x1b234 ; main_loop + 1756
        0x0001b250:    980a        ..      LDR      r0,[sp,#0x28]
        0x0001b252:    f0100f04    ....    TST      r0,#4
        0x0001b256:    d011        ..      BEQ      0x1b27c ; main_loop + 1828
        0x0001b258:    6828        (h      LDR      r0,[r5,#0]
        0x0001b25a:    2400        .$      MOVS     r4,#0
        0x0001b25c:    2800        .(      CMP      r0,#0
        0x0001b25e:    d90d        ..      BLS      0x1b27c ; main_loop + 1828
        0x0001b260:    eb041004    ....    ADD      r0,r4,r4,LSL #4
        0x0001b264:    eb070080    ....    ADD      r0,r7,r0,LSL #2
        0x0001b268:    4621        !F      MOV      r1,r4
        0x0001b26a:    8fc2        ..      LDRH     r2,[r0,#0x3e]
        0x0001b26c:    a085        ..      ADR      r0,{pc}+0x218 ; 0x1b484
        0x0001b26e:    f7fefb23    ..#.    BL       am_sprintf ; 0x198b8
        0x0001b272:    1c60        `.      ADDS     r0,r4,#1
        0x0001b274:    b284        ..      UXTH     r4,r0
        0x0001b276:    6828        (h      LDR      r0,[r5,#0]
        0x0001b278:    42a0        .B      CMP      r0,r4
        0x0001b27a:    d8f1        ..      BHI      0x1b260 ; main_loop + 1800
        0x0001b27c:    6828        (h      LDR      r0,[r5,#0]
        0x0001b27e:    2400        .$      MOVS     r4,#0
        0x0001b280:    2800        .(      CMP      r0,#0
        0x0001b282:    d90d        ..      BLS      0x1b2a0 ; main_loop + 1864
        0x0001b284:    eb041004    ....    ADD      r0,r4,r4,LSL #4
        0x0001b288:    eb070080    ....    ADD      r0,r7,r0,LSL #2
        0x0001b28c:    4621        !F      MOV      r1,r4
        0x0001b28e:    8f02        ..      LDRH     r2,[r0,#0x38]
        0x0001b290:    a083        ..      ADR      r0,{pc}+0x210 ; 0x1b4a0
        0x0001b292:    f7fefb11    ....    BL       am_sprintf ; 0x198b8
        0x0001b296:    1c60        `.      ADDS     r0,r4,#1
        0x0001b298:    b284        ..      UXTH     r4,r0
        0x0001b29a:    6828        (h      LDR      r0,[r5,#0]
        0x0001b29c:    42a0        .B      CMP      r0,r4
        0x0001b29e:    d8f1        ..      BHI      0x1b284 ; main_loop + 1836
        0x0001b2a0:    2e00        ..      CMP      r6,#0
        0x0001b2a2:    bfc8        ..      IT       GT
        0x0001b2a4:    a085        ..      ADRGT    r0,{pc}+0x218 ; 0x1b4bc
        0x0001b2a6:    d004        ..      BEQ      0x1b2b2 ; main_loop + 1882
        0x0001b2a8:    dd2a        *.      BLE      0x1b300 ; main_loop + 1960
        0x0001b2aa:    bf00        ..      NOP      
        0x0001b2ac:    f7fefb04    ....    BL       am_sprintf ; 0x198b8
        0x0001b2b0:    e029        ).      B        0x1b306 ; main_loop + 1966
        0x0001b2b2:    4887        .H      LDR      r0,[pc,#540] ; [0x1b4d0] = 0x1cab8
        0x0001b2b4:    f7fefb00    ....    BL       am_sprintf ; 0x198b8
        0x0001b2b8:    f1b80f03    ....    CMP      r8,#3
        0x0001b2bc:    d123        #.      BNE      0x1b306 ; main_loop + 1966
        0x0001b2be:    9813        ..      LDR      r0,[sp,#0x4c]
        0x0001b2c0:    f000fe26    ..&.    BL       time_in_secs ; 0x1bf10
        0x0001b2c4:    9809        ..      LDR      r0,[sp,#0x24]
        0x0001b2c6:    6829        )h      LDR      r1,[r5,#0]
        0x0001b2c8:    eeb08a40    ..@.    VMOV.F32 s16,s0
        0x0001b2cc:    eef08a60    ..`.    VMOV.F32 s17,s1
        0x0001b2d0:    4348        HC      MULS     r0,r1,r0
        0x0001b2d2:    f001f8a0    ....    BL       __aeabi_ui2d ; 0x1c416
        0x0001b2d6:    ec532b18    S..+    VMOV     r2,r3,d8
        0x0001b2da:    f000ff17    ....    BL       __aeabi_ddiv ; 0x1c10c
        0x0001b2de:    ec410b10    A...    VMOV     d0,r0,r1
        0x0001b2e2:    a17c        |.      ADR      r1,{pc}+0x1f2 ; 0x1b4d4
        0x0001b2e4:    a040        @.      ADR      r0,{pc}+0x104 ; 0x1b3e8
        0x0001b2e6:    e9cd0100    ....    STRD     r0,r1,[sp,#0]
        0x0001b2ea:    ec532b10    S..+    VMOV     r2,r3,d0
        0x0001b2ee:    a07c        |.      ADR      r0,{pc}+0x1f2 ; 0x1b4e0
        0x0001b2f0:    f7fefae2    ....    BL       am_sprintf ; 0x198b8
        0x0001b2f4:    a146        F.      ADR      r1,{pc}+0x11c ; 0x1b410
        0x0001b2f6:    a081        ..      ADR      r0,{pc}+0x206 ; 0x1b4fc
        0x0001b2f8:    f7fefade    ....    BL       am_sprintf ; 0x198b8
        0x0001b2fc:    a033        3.      ADR      r0,{pc}+0xd0 ; 0x1b3cc
        0x0001b2fe:    e7d5        ..      B        0x1b2ac ; main_loop + 1876
        0x0001b300:    4880        .H      LDR      r0,[pc,#512] ; [0x1b504] = 0x1ca54
        0x0001b302:    f7fefad9    ....    BL       am_sprintf ; 0x198b8
        0x0001b306:    9813        ..      LDR      r0,[sp,#0x4c]
        0x0001b308:    f000fe02    ....    BL       time_in_secs ; 0x1bf10
        0x0001b30c:    9809        ..      LDR      r0,[sp,#0x24]
        0x0001b30e:    6829        )h      LDR      r1,[r5,#0]
        0x0001b310:    eeb08a40    ..@.    VMOV.F32 s16,s0
        0x0001b314:    eef08a60    ..`.    VMOV.F32 s17,s1
        0x0001b318:    4348        HC      MULS     r0,r1,r0
        0x0001b31a:    f001f87c    ..|.    BL       __aeabi_ui2d ; 0x1c416
        0x0001b31e:    ec532b18    S..+    VMOV     r2,r3,d8
        0x0001b322:    f000fef3    ....    BL       __aeabi_ddiv ; 0x1c10c
        0x0001b326:    f000feb3    ....    BL       __aeabi_d2f ; 0x1c090
        0x0001b32a:    ee000a90    ....    VMOV     s1,r0
        0x0001b32e:    4876        vH      LDR      r0,[pc,#472] ; [0x1b508] = 0x10000038
        0x0001b330:    7800        .x      LDRB     r0,[r0,#0]
        0x0001b332:    2801        .(      CMP      r0,#1
        0x0001b334:    bf0c        ..      ITE      EQ
        0x0001b336:    ed9f1a75    ..u.    VLDREQ   s2,[pc,#468] ; [0x1b50c] = 0x43400000
        0x0001b33a:    ed9f1a75    ..u.    VLDRNE   s2,[pc,#468] ; [0x1b510] = 0x42c00000
        0x0001b33e:    ee800a81    ....    VDIV.F32 s0,s1,s2
        0x0001b342:    ee100a10    ....    VMOV     r0,s0
        0x0001b346:    f001f93f    ..?.    BL       __aeabi_f2d ; 0x1c5c8
        0x0001b34a:    ec410b10    A...    VMOV     d0,r0,r1
        0x0001b34e:    a071        q.      ADR      r0,{pc}+0x1c6 ; 0x1b514
        0x0001b350:    ec532b10    S..+    VMOV     r2,r3,d0
        0x0001b354:    f7fefab0    ....    BL       am_sprintf ; 0x198b8
        0x0001b358:    f1070042    ..B.    ADD      r0,r7,#0x42
        0x0001b35c:    f000fc20    .. .    BL       portable_fini ; 0x1bba0
        0x0001b360:    f60d0d24    ..$.    ADD      sp,sp,#0x824
        0x0001b364:    2000        .       MOVS     r0,#0
        0x0001b366:    ecbd8b06    ....    VPOP     {d8-d10}
        0x0001b36a:    e8bd8ff0    ....    POP      {r4-r11,pc}
    $d
        0x0001b36e:    0000        ..      DCW    0
        0x0001b370:    72657449    Iter    DCD    1919251529
        0x0001b374:    6f697461    atio    DCD    1869182049
        0x0001b378:    532f736e    ns/S    DCD    1395618670
        0x0001b37c:    20206365    ec      DCD    538993509
        0x0001b380:    25203a20     : %    DCD    622869024
        0x0001b384:    00000a66    f...    DCD    2662
        0x0001b388:    00000000    ....    DCD    0
        0x0001b38c:    40240000    ..$@    DCD    1076101120
        0x0001b390:    4f525245    ERRO    DCD    1330795077
        0x0001b394:    4d202152    R! M    DCD    1293951314
        0x0001b398:    20747375    ust     DCD    544502645
        0x0001b39c:    63657865    exec    DCD    1667594341
        0x0001b3a0:    20657475    ute     DCD    543519861
        0x0001b3a4:    20726f66    for     DCD    544370534
        0x0001b3a8:    6c207461    at l    DCD    1814066273
        0x0001b3ac:    74736165    east    DCD    1953718629
        0x0001b3b0:    20303120     10     DCD    540029216
        0x0001b3b4:    73636573    secs    DCD    1935893875
        0x0001b3b8:    726f6620     for    DCD    1919903264
        0x0001b3bc:    76206120     a v    DCD    1981833504
        0x0001b3c0:    64696c61    alid    DCD    1684630625
        0x0001b3c4:    73657220     res    DCD    1936028192
        0x0001b3c8:    21746c75    ult!    DCD    561278069
        0x0001b3cc:    0000000a    ....    DCD    10
        0x0001b3d0:    72657449    Iter    DCD    1919251529
        0x0001b3d4:    6f697461    atio    DCD    1869182049
        0x0001b3d8:    2020736e    ns      DCD    538997614
        0x0001b3dc:    20202020            DCD    538976288
        0x0001b3e0:    25203a20     : %    DCD    622869024
        0x0001b3e4:    000a756c    lu..    DCD    685420
        0x0001b3e8:    434d5241    ARMC    DCD    1129140801
        0x0001b3ec:    30352043    C 50    DCD    808788035
        0x0001b3f0:    35373036    6075    DCD    892809270
        0x0001b3f4:    00000030    0...    DCD    48
        0x0001b3f8:    706d6f43    Comp    DCD    1886220099
        0x0001b3fc:    72656c69    iler    DCD    1919249513
        0x0001b400:    72657620     ver    DCD    1919252000
        0x0001b404:    6e6f6973    sion    DCD    1852795251
        0x0001b408:    25203a20     : %    DCD    622869024
        0x0001b40c:    00000a73    s...    DCD    2675
        0x0001b410:    43415453    STAC    DCD    1128354899
        0x0001b414:    0000004b    K...    DCD    75
        0x0001b418:    6f6d654d    Memo    DCD    1869440333
        0x0001b41c:    6c207972    ry l    DCD    1814067570
        0x0001b420:    7461636f    ocat    DCD    1952539503
        0x0001b424:    206e6f69    ion     DCD    544108393
        0x0001b428:    25203a20     : %    DCD    622869024
        0x0001b42c:    00000a73    s...    DCD    2675
        0x0001b430:    64656573    seed    DCD    1684366707
        0x0001b434:    20637263    crc     DCD    543388259
        0x0001b438:    20202020            DCD    538976288
        0x0001b43c:    20202020            DCD    538976288
        0x0001b440:    30203a20     : 0    DCD    807418400
        0x0001b444:    34302578    x%04    DCD    875570552
        0x0001b448:    00000a78    x...    DCD    2680
        0x0001b44c:    5d64255b    [%d]    DCD    1566844251
        0x0001b450:    6c637263    crcl    DCD    1818456675
        0x0001b454:    20747369    ist     DCD    544502633
        0x0001b458:    20202020            DCD    538976288
        0x0001b45c:    203a2020      :     DCD    540680224
        0x0001b460:    30257830    0x%0    DCD    807761968
        0x0001b464:    000a7834    4x..    DCD    686132
        0x0001b468:    5d64255b    [%d]    DCD    1566844251
        0x0001b46c:    6d637263    crcm    DCD    1835233891
        0x0001b470:    69727461    atri    DCD    1769108577
        0x0001b474:    20202078    x       DCD    538976376
        0x0001b478:    203a2020      :     DCD    540680224
        0x0001b47c:    30257830    0x%0    DCD    807761968
        0x0001b480:    000a7834    4x..    DCD    686132
        0x0001b484:    5d64255b    [%d]    DCD    1566844251
        0x0001b488:    73637263    crcs    DCD    1935897187
        0x0001b48c:    65746174    tate    DCD    1702125940
        0x0001b490:    20202020            DCD    538976288
        0x0001b494:    203a2020      :     DCD    540680224
        0x0001b498:    30257830    0x%0    DCD    807761968
        0x0001b49c:    000a7834    4x..    DCD    686132
        0x0001b4a0:    5d64255b    [%d]    DCD    1566844251
        0x0001b4a4:    66637263    crcf    DCD    1717793379
        0x0001b4a8:    6c616e69    inal    DCD    1818324585
        0x0001b4ac:    20202020            DCD    538976288
        0x0001b4b0:    203a2020      :     DCD    540680224
        0x0001b4b4:    30257830    0x%0    DCD    807761968
        0x0001b4b8:    000a7834    4x..    DCD    686132
        0x0001b4bc:    6f727245    Erro    DCD    1869771333
        0x0001b4c0:    64207372    rs d    DCD    1679848306
        0x0001b4c4:    63657465    etec    DCD    1667593317
        0x0001b4c8:    0a646574    ted.    DCD    174351732
        0x0001b4cc:    00000000    ....    DCD    0
        0x0001b4d0:    0001cab8    ....    DCD    117432
        0x0001b4d4:    67616c66    flag    DCD    1734437990
        0x0001b4d8:    2d203a73    s: -    DCD    757086835
        0x0001b4dc:    0000336f    o3..    DCD    13167
        0x0001b4e0:    65726f43    Core    DCD    1701998403
        0x0001b4e4:    6b72614d    Mark    DCD    1802658125
        0x0001b4e8:    302e3120     1.0    DCD    808333600
        0x0001b4ec:    25203a20     : %    DCD    622869024
        0x0001b4f0:    202f2066    f /     DCD    539959398
        0x0001b4f4:    25207325    %s %    DCD    622883621
        0x0001b4f8:    00000073    s...    DCD    115
        0x0001b4fc:    25202f20     / %    DCD    622866208
        0x0001b500:    00000073    s...    DCD    115
        0x0001b504:    0001ca54    T...    DCD    117332
        0x0001b508:    10000038    8...    DCD    268435512
        0x0001b50c:    43400000    ..@C    DCD    1128267776
        0x0001b510:    42c00000    ...B    DCD    1119879168
        0x0001b514:    4d2f4d43    CM/M    DCD    1294945603
        0x0001b518:    253d7a48    Hz=%    DCD    624785992
        0x0001b51c:    2e66332e    .3f.    DCD    778449710
        0x0001b520:    0000000a    ....    DCD    10
    $t
    i.matrix_sum
    matrix_sum
        0x0001b524:    e92d01f0    -...    PUSH     {r4-r8}
        0x0001b528:    2400        .$      MOVS     r4,#0
        0x0001b52a:    46a0        .F      MOV      r8,r4
        0x0001b52c:    46a4        .F      MOV      r12,r4
        0x0001b52e:    2800        .(      CMP      r0,#0
        0x0001b530:    bf18        ..      IT       NE
        0x0001b532:    2500        .%      MOVNE    r5,#0
        0x0001b534:    d916        ..      BLS      0x1b564 ; matrix_sum + 64
        0x0001b536:    e000        ..      B        0x1b53a ; matrix_sum + 22
        0x0001b538:    b188        ..      CBZ      r0,0x1b55e ; matrix_sum + 58
        0x0001b53a:    fb05f300    ....    MUL      r3,r5,r0
        0x0001b53e:    eb010683    ....    ADD      r6,r1,r3,LSL #2
        0x0001b542:    4607        .F      MOV      r7,r0
        0x0001b544:    6833        3h      LDR      r3,[r6,#0]
        0x0001b546:    441c        .D      ADD      r4,r4,r3
        0x0001b548:    4294        .B      CMP      r4,r2
        0x0001b54a:    dd0f        ..      BLE      0x1b56c ; matrix_sum + 72
        0x0001b54c:    f10c0c0a    ....    ADD      r12,r12,#0xa
        0x0001b550:    fa0ffc8c    ....    SXTH     r12,r12
        0x0001b554:    2400        .$      MOVS     r4,#0
        0x0001b556:    1d36        6.      ADDS     r6,r6,#4
        0x0001b558:    4698        .F      MOV      r8,r3
        0x0001b55a:    1e7f        ..      SUBS     r7,r7,#1
        0x0001b55c:    d1f2        ..      BNE      0x1b544 ; matrix_sum + 32
        0x0001b55e:    1c6d        m.      ADDS     r5,r5,#1
        0x0001b560:    4285        .B      CMP      r5,r0
        0x0001b562:    d3e9        ..      BCC      0x1b538 ; matrix_sum + 20
        0x0001b564:    e8bd01f0    ....    POP      {r4-r8}
        0x0001b568:    4660        `F      MOV      r0,r12
        0x0001b56a:    4770        pG      BX       lr
        0x0001b56c:    4543        CE      CMP      r3,r8
        0x0001b56e:    bfcc        ..      ITE      GT
        0x0001b570:    f04f0801    O...    MOVGT    r8,#1
        0x0001b574:    f04f0800    O...    MOVLE    r8,#0
        0x0001b578:    44c4        .D      ADD      r12,r12,r8
        0x0001b57a:    fa0ffc8c    ....    SXTH     r12,r12
        0x0001b57e:    e7ea        ..      B        0x1b556 ; matrix_sum + 50
    i.matrix_test
    matrix_test
        0x0001b580:    e92d4fff    -..O    PUSH     {r0-r11,lr}
        0x0001b584:    b091        ..      SUB      sp,sp,#0x44
        0x0001b586:    2600        .&      MOVS     r6,#0
        0x0001b588:    981e        ..      LDR      r0,[sp,#0x78]
        0x0001b58a:    9a13        ..      LDR      r2,[sp,#0x4c]
        0x0001b58c:    f4404070    @.p@    ORR      r0,r0,#0xf000
        0x0001b590:    b200        ..      SXTH     r0,r0
        0x0001b592:    900c        ..      STR      r0,[sp,#0x30]
        0x0001b594:    9811        ..      LDR      r0,[sp,#0x44]
        0x0001b596:    991e        ..      LDR      r1,[sp,#0x78]
        0x0001b598:    fb00f300    ....    MUL      r3,r0,r0
        0x0001b59c:    930b        ..      STR      r3,[sp,#0x2c]
        0x0001b59e:    2800        .(      CMP      r0,#0
        0x0001b5a0:    bf18        ..      IT       NE
        0x0001b5a2:    ea5f0c03    _...    MOVSNE   r12,r3
        0x0001b5a6:    d014        ..      BEQ      0x1b5d2 ; matrix_test + 82
        0x0001b5a8:    f0100001    ....    ANDS     r0,r0,#1
        0x0001b5ac:    d002        ..      BEQ      0x1b5b4 ; matrix_test + 52
        0x0001b5ae:    8813        ..      LDRH     r3,[r2,#0]
        0x0001b5b0:    440b        .D      ADD      r3,r3,r1
        0x0001b5b2:    8013        ..      STRH     r3,[r2,#0]
        0x0001b5b4:    4584        .E      CMP      r12,r0
        0x0001b5b6:    d90c        ..      BLS      0x1b5d2 ; matrix_test + 82
        0x0001b5b8:    f8323010    2..0    LDRH     r3,[r2,r0,LSL #1]
        0x0001b5bc:    440b        .D      ADD      r3,r3,r1
        0x0001b5be:    f8223010    "..0    STRH     r3,[r2,r0,LSL #1]
        0x0001b5c2:    eb020340    ..@.    ADD      r3,r2,r0,LSL #1
        0x0001b5c6:    1c80        ..      ADDS     r0,r0,#2
        0x0001b5c8:    885c        \.      LDRH     r4,[r3,#2]
        0x0001b5ca:    4584        .E      CMP      r12,r0
        0x0001b5cc:    440c        .D      ADD      r4,r4,r1
        0x0001b5ce:    805c        \.      STRH     r4,[r3,#2]
        0x0001b5d0:    d8f2        ..      BHI      0x1b5b8 ; matrix_test + 56
        0x0001b5d2:    e9dd0911    ....    LDRD     r0,r9,[sp,#0x44]
        0x0001b5d6:    f8dd804c    ..L.    LDR      r8,[sp,#0x4c]
        0x0001b5da:    9d1e        ..      LDR      r5,[sp,#0x78]
        0x0001b5dc:    2800        .(      CMP      r0,#0
        0x0001b5de:    bf18        ..      IT       NE
        0x0001b5e0:    2400        .$      MOVNE    r4,#0
        0x0001b5e2:    bf88        ..      IT       HI
        0x0001b5e4:    0847        G.      LSRHI    r7,r0,#1
        0x0001b5e6:    d926        &.      BLS      0x1b636 ; matrix_test + 182
        0x0001b5e8:    fb04f100    ....    MUL      r1,r4,r0
        0x0001b5ec:    eb080241    ..A.    ADD      r2,r8,r1,LSL #1
        0x0001b5f0:    eb090181    ....    ADD      r1,r9,r1,LSL #2
        0x0001b5f4:    f1a20c02    ....    SUB      r12,r2,#2
        0x0001b5f8:    f1a10304    ....    SUB      r3,r1,#4
        0x0001b5fc:    f0100f01    ....    TST      r0,#1
        0x0001b600:    d005        ..      BEQ      0x1b60e ; matrix_test + 142
        0x0001b602:    f93c1f02    <...    LDRSH    r1,[r12,#2]!
        0x0001b606:    fb01f105    ....    MUL      r1,r1,r5
        0x0001b60a:    f8431f04    C...    STR      r1,[r3,#4]!
        0x0001b60e:    003a        :.      MOVS     r2,r7
        0x0001b610:    d00b        ..      BEQ      0x1b62a ; matrix_test + 170
        0x0001b612:    bf00        ..      NOP      
        0x0001b614:    f9bc1002    ....    LDRSH    r1,[r12,#2]
        0x0001b618:    4369        iC      MULS     r1,r5,r1
        0x0001b61a:    6059        Y`      STR      r1,[r3,#4]
        0x0001b61c:    f93c1f04    <...    LDRSH    r1,[r12,#4]!
        0x0001b620:    4369        iC      MULS     r1,r5,r1
        0x0001b622:    f8431f08    C...    STR      r1,[r3,#8]!
        0x0001b626:    1e52        R.      SUBS     r2,r2,#1
        0x0001b628:    d1f4        ..      BNE      0x1b614 ; matrix_test + 148
        0x0001b62a:    1c64        d.      ADDS     r4,r4,#1
        0x0001b62c:    4284        .B      CMP      r4,r0
        0x0001b62e:    d202        ..      BCS      0x1b636 ; matrix_test + 182
        0x0001b630:    2800        .(      CMP      r0,#0
        0x0001b632:    d1d9        ..      BNE      0x1b5e8 ; matrix_test + 104
        0x0001b634:    e7f9        ..      B        0x1b62a ; matrix_test + 170
        0x0001b636:    e9dd0111    ....    LDRD     r0,r1,[sp,#0x44]
        0x0001b63a:    9a0c        ..      LDR      r2,[sp,#0x30]
        0x0001b63c:    f7ffff72    ..r.    BL       matrix_sum ; 0x1b524
        0x0001b640:    4631        1F      MOV      r1,r6
        0x0001b642:    f7fff99b    ....    BL       crc16 ; 0x1a97c
        0x0001b646:    9001        ..      STR      r0,[sp,#4]
        0x0001b648:    e9ddc811    ....    LDRD     r12,r8,[sp,#0x44]
        0x0001b64c:    e9ddba13    ....    LDRD     r11,r10,[sp,#0x4c]
        0x0001b650:    f1bc0f00    ....    CMP      r12,#0
        0x0001b654:    bf18        ..      IT       NE
        0x0001b656:    2400        .$      MOVNE    r4,#0
        0x0001b658:    bf84        ..      ITT      HI
        0x0001b65a:    ea4f095c    O.\.    LSRHI    r9,r12,#1
        0x0001b65e:    2700        .'      MOVHI    r7,#0
        0x0001b660:    d92c        ,.      BLS      0x1b6bc ; matrix_test + 316
        0x0001b662:    4638        8F      MOV      r0,r7
        0x0001b664:    f8487024    H.$p    STR      r7,[r8,r4,LSL #2]
        0x0001b668:    f1bc0f00    ....    CMP      r12,#0
        0x0001b66c:    d023        #.      BEQ      0x1b6b6 ; matrix_test + 310
        0x0001b66e:    fb04f10c    ....    MUL      r1,r4,r12
        0x0001b672:    eb0b0141    ..A.    ADD      r1,r11,r1,LSL #1
        0x0001b676:    1e8a        ..      SUBS     r2,r1,#2
        0x0001b678:    f1aa0302    ....    SUB      r3,r10,#2
        0x0001b67c:    f01c0f01    ....    TST      r12,#1
        0x0001b680:    d005        ..      BEQ      0x1b68e ; matrix_test + 270
        0x0001b682:    f8321f02    2...    LDRH     r1,[r2,#2]!
        0x0001b686:    f8335f02    3.._    LDRH     r5,[r3,#2]!
        0x0001b68a:    fb110005    ....    SMLABB   r0,r1,r5,r0
        0x0001b68e:    2500        .%      MOVS     r5,#0
        0x0001b690:    ea5f0109    _...    MOVS     r1,r9
        0x0001b694:    d00c        ..      BEQ      0x1b6b0 ; matrix_test + 304
        0x0001b696:    8856        V.      LDRH     r6,[r2,#2]
        0x0001b698:    f8b3e002    ....    LDRH     lr,[r3,#2]
        0x0001b69c:    fb16000e    ....    SMLABB   r0,r6,lr,r0
        0x0001b6a0:    f8326f04    2..o    LDRH     r6,[r2,#4]!
        0x0001b6a4:    f833ef04    3...    LDRH     lr,[r3,#4]!
        0x0001b6a8:    fb16550e    ...U    SMLABB   r5,r6,lr,r5
        0x0001b6ac:    1e49        I.      SUBS     r1,r1,#1
        0x0001b6ae:    d1f2        ..      BNE      0x1b696 ; matrix_test + 278
        0x0001b6b0:    4428        (D      ADD      r0,r0,r5
        0x0001b6b2:    f8480024    H.$.    STR      r0,[r8,r4,LSL #2]
        0x0001b6b6:    1c64        d.      ADDS     r4,r4,#1
        0x0001b6b8:    4564        dE      CMP      r4,r12
        0x0001b6ba:    d3d2        ..      BCC      0x1b662 ; matrix_test + 226
        0x0001b6bc:    e9dd0111    ....    LDRD     r0,r1,[sp,#0x44]
        0x0001b6c0:    9a0c        ..      LDR      r2,[sp,#0x30]
        0x0001b6c2:    f7ffff2f    ../.    BL       matrix_sum ; 0x1b524
        0x0001b6c6:    9901        ..      LDR      r1,[sp,#4]
        0x0001b6c8:    f7fff958    ..X.    BL       crc16 ; 0x1a97c
        0x0001b6cc:    9001        ..      STR      r0,[sp,#4]
        0x0001b6ce:    e9dd0711    ....    LDRD     r0,r7,[sp,#0x44]
        0x0001b6d2:    9913        ..      LDR      r1,[sp,#0x4c]
        0x0001b6d4:    9109        ..      STR      r1,[sp,#0x24]
        0x0001b6d6:    9914        ..      LDR      r1,[sp,#0x50]
        0x0001b6d8:    910d        ..      STR      r1,[sp,#0x34]
        0x0001b6da:    2800        .(      CMP      r0,#0
        0x0001b6dc:    bf18        ..      IT       NE
        0x0001b6de:    2500        .%      MOVNE    r5,#0
        0x0001b6e0:    bf88        ..      IT       HI
        0x0001b6e2:    ea4f0850    O.P.    LSRHI    r8,r0,#1
        0x0001b6e6:    d93f        ?.      BLS      0x1b768 ; matrix_test + 488
        0x0001b6e8:    f04f0600    O...    MOV      r6,#0
        0x0001b6ec:    2800        .(      CMP      r0,#0
        0x0001b6ee:    d935        5.      BLS      0x1b75c ; matrix_test + 476
        0x0001b6f0:    9a09        ..      LDR      r2,[sp,#0x24]
        0x0001b6f2:    fb05f100    ....    MUL      r1,r5,r0
        0x0001b6f6:    eb020a41    ..A.    ADD      r10,r2,r1,LSL #1
        0x0001b6fa:    fb056900    ...i    MLA      r9,r5,r0,r6
        0x0001b6fe:    2100        .!      MOVS     r1,#0
        0x0001b700:    f8471029    G.).    STR      r1,[r7,r9,LSL #2]
        0x0001b704:    b338        8.      CBZ      r0,0x1b756 ; matrix_test + 470
        0x0001b706:    1a33        3.      SUBS     r3,r6,r0
        0x0001b708:    9a0d        ..      LDR      r2,[sp,#0x34]
        0x0001b70a:    f1aa0c02    ....    SUB      r12,r10,#2
        0x0001b70e:    eb020343    ..C.    ADD      r3,r2,r3,LSL #1
        0x0001b712:    f0100f01    ....    TST      r0,#1
        0x0001b716:    d006        ..      BEQ      0x1b726 ; matrix_test + 422
        0x0001b718:    eb030340    ..@.    ADD      r3,r3,r0,LSL #1
        0x0001b71c:    f83c2f02    <../    LDRH     r2,[r12,#2]!
        0x0001b720:    881c        ..      LDRH     r4,[r3,#0]
        0x0001b722:    fb121104    ....    SMLABB   r1,r2,r4,r1
        0x0001b726:    2400        .$      MOVS     r4,#0
        0x0001b728:    ea5f0208    _...    MOVS     r2,r8
        0x0001b72c:    d010        ..      BEQ      0x1b750 ; matrix_test + 464
        0x0001b72e:    bf00        ..      NOP      
        0x0001b730:    f8bcb002    ....    LDRH     r11,[r12,#2]
        0x0001b734:    f833e010    3...    LDRH     lr,[r3,r0,LSL #1]
        0x0001b738:    fb1b110e    ....    SMLABB   r1,r11,lr,r1
        0x0001b73c:    eb030380    ....    ADD      r3,r3,r0,LSL #2
        0x0001b740:    f83cbf04    <...    LDRH     r11,[r12,#4]!
        0x0001b744:    f8b3e000    ....    LDRH     lr,[r3,#0]
        0x0001b748:    fb1b440e    ...D    SMLABB   r4,r11,lr,r4
        0x0001b74c:    1e52        R.      SUBS     r2,r2,#1
        0x0001b74e:    d1ef        ..      BNE      0x1b730 ; matrix_test + 432
        0x0001b750:    4421        !D      ADD      r1,r1,r4
        0x0001b752:    f8471029    G.).    STR      r1,[r7,r9,LSL #2]
        0x0001b756:    1c76        v.      ADDS     r6,r6,#1
        0x0001b758:    4286        .B      CMP      r6,r0
        0x0001b75a:    d3ce        ..      BCC      0x1b6fa ; matrix_test + 378
        0x0001b75c:    1c6d        m.      ADDS     r5,r5,#1
        0x0001b75e:    4285        .B      CMP      r5,r0
        0x0001b760:    d202        ..      BCS      0x1b768 ; matrix_test + 488
        0x0001b762:    2800        .(      CMP      r0,#0
        0x0001b764:    d0fa        ..      BEQ      0x1b75c ; matrix_test + 476
        0x0001b766:    e7bf        ..      B        0x1b6e8 ; matrix_test + 360
        0x0001b768:    e9dd0111    ....    LDRD     r0,r1,[sp,#0x44]
        0x0001b76c:    9a0c        ..      LDR      r2,[sp,#0x30]
        0x0001b76e:    f7fffed9    ....    BL       matrix_sum ; 0x1b524
        0x0001b772:    9901        ..      LDR      r1,[sp,#4]
        0x0001b774:    f7fff902    ....    BL       crc16 ; 0x1a97c
        0x0001b778:    9001        ..      STR      r0,[sp,#4]
        0x0001b77a:    e9dd0811    ....    LDRD     r0,r8,[sp,#0x44]
        0x0001b77e:    9913        ..      LDR      r1,[sp,#0x4c]
        0x0001b780:    910a        ..      STR      r1,[sp,#0x28]
        0x0001b782:    f8ddb050    ..P.    LDR      r11,[sp,#0x50]
        0x0001b786:    2800        .(      CMP      r0,#0
        0x0001b788:    bf18        ..      IT       NE
        0x0001b78a:    2600        .&      MOVNE    r6,#0
        0x0001b78c:    bf88        ..      IT       HI
        0x0001b78e:    f04f0900    O...    MOVHI    r9,#0
        0x0001b792:    d92d        -.      BLS      0x1b7f0 ; matrix_test + 624
        0x0001b794:    f04f0400    O...    MOV      r4,#0
        0x0001b798:    2800        .(      CMP      r0,#0
        0x0001b79a:    d923        #.      BLS      0x1b7e4 ; matrix_test + 612
        0x0001b79c:    9a0a        ..      LDR      r2,[sp,#0x28]
        0x0001b79e:    fb06f100    ....    MUL      r1,r6,r0
        0x0001b7a2:    eb020a41    ..A.    ADD      r10,r2,r1,LSL #1
        0x0001b7a6:    fb064e00    ...N    MLA      lr,r6,r0,r4
        0x0001b7aa:    4649        IF      MOV      r1,r9
        0x0001b7ac:    f848902e    H...    STR      r9,[r8,lr,LSL #2]
        0x0001b7b0:    b1a8        ..      CBZ      r0,0x1b7de ; matrix_test + 606
        0x0001b7b2:    4652        RF      MOV      r2,r10
        0x0001b7b4:    eb0b0344    ..D.    ADD      r3,r11,r4,LSL #1
        0x0001b7b8:    ea4f0500    O...    MOV.W    r5,r0
        0x0001b7bc:    f832cb02    2...    LDRH     r12,[r2],#2
        0x0001b7c0:    881f        ..      LDRH     r7,[r3,#0]
        0x0001b7c2:    fb1cfc07    ....    SMULBB   r12,r12,r7
        0x0001b7c6:    f3cc0783    ....    UBFX     r7,r12,#2,#4
        0x0001b7ca:    f3cc1c46    ..F.    UBFX     r12,r12,#5,#7
        0x0001b7ce:    fb17110c    ....    SMLABB   r1,r7,r12,r1
        0x0001b7d2:    eb030340    ..@.    ADD      r3,r3,r0,LSL #1
        0x0001b7d6:    1e6d        m.      SUBS     r5,r5,#1
        0x0001b7d8:    d1f0        ..      BNE      0x1b7bc ; matrix_test + 572
        0x0001b7da:    f848102e    H...    STR      r1,[r8,lr,LSL #2]
        0x0001b7de:    1c64        d.      ADDS     r4,r4,#1
        0x0001b7e0:    4284        .B      CMP      r4,r0
        0x0001b7e2:    d3e0        ..      BCC      0x1b7a6 ; matrix_test + 550
        0x0001b7e4:    1c76        v.      ADDS     r6,r6,#1
        0x0001b7e6:    4286        .B      CMP      r6,r0
        0x0001b7e8:    d202        ..      BCS      0x1b7f0 ; matrix_test + 624
        0x0001b7ea:    2800        .(      CMP      r0,#0
        0x0001b7ec:    d0fa        ..      BEQ      0x1b7e4 ; matrix_test + 612
        0x0001b7ee:    e7d1        ..      B        0x1b794 ; matrix_test + 532
        0x0001b7f0:    e9dd0111    ....    LDRD     r0,r1,[sp,#0x44]
        0x0001b7f4:    9a0c        ..      LDR      r2,[sp,#0x30]
        0x0001b7f6:    f7fffe95    ....    BL       matrix_sum ; 0x1b524
        0x0001b7fa:    9901        ..      LDR      r1,[sp,#4]
        0x0001b7fc:    f7fff8be    ....    BL       crc16 ; 0x1a97c
        0x0001b800:    9a1e        ..      LDR      r2,[sp,#0x78]
        0x0001b802:    9911        ..      LDR      r1,[sp,#0x44]
        0x0001b804:    4252        RB      RSBS     r2,r2,#0
        0x0001b806:    9b13        ..      LDR      r3,[sp,#0x4c]
        0x0001b808:    fa0ffc82    ....    SXTH     r12,r2
        0x0001b80c:    2900        .)      CMP      r1,#0
        0x0001b80e:    bf1c        ..      ITT      NE
        0x0001b810:    9c0b        ..      LDRNE    r4,[sp,#0x2c]
        0x0001b812:    2c00        .,      CMPNE    r4,#0
        0x0001b814:    d015        ..      BEQ      0x1b842 ; matrix_test + 706
        0x0001b816:    f0110101    ....    ANDS     r1,r1,#1
        0x0001b81a:    d002        ..      BEQ      0x1b822 ; matrix_test + 674
        0x0001b81c:    881a        ..      LDRH     r2,[r3,#0]
        0x0001b81e:    4462        bD      ADD      r2,r2,r12
        0x0001b820:    801a        ..      STRH     r2,[r3,#0]
        0x0001b822:    428c        .B      CMP      r4,r1
        0x0001b824:    d90d        ..      BLS      0x1b842 ; matrix_test + 706
        0x0001b826:    bf00        ..      NOP      
        0x0001b828:    f8332011    3..     LDRH     r2,[r3,r1,LSL #1]
        0x0001b82c:    4462        bD      ADD      r2,r2,r12
        0x0001b82e:    f8232011    #..     STRH     r2,[r3,r1,LSL #1]
        0x0001b832:    eb030241    ..A.    ADD      r2,r3,r1,LSL #1
        0x0001b836:    1c89        ..      ADDS     r1,r1,#2
        0x0001b838:    8855        U.      LDRH     r5,[r2,#2]
        0x0001b83a:    428c        .B      CMP      r4,r1
        0x0001b83c:    4465        eD      ADD      r5,r5,r12
        0x0001b83e:    8055        U.      STRH     r5,[r2,#2]
        0x0001b840:    d8f2        ..      BHI      0x1b828 ; matrix_test + 680
        0x0001b842:    b015        ..      ADD      sp,sp,#0x54
        0x0001b844:    b200        ..      SXTH     r0,r0
        0x0001b846:    e8bd8ff0    ....    POP      {r4-r11,pc}
    i.ndigits_in_u64
    ndigits_in_u64
        0x0001b84a:    e92d01f0    -...    PUSH     {r4-r8}
        0x0001b84e:    ea500201    P...    ORRS     r2,r0,r1
        0x0001b852:    bf0e        ..      ITEE     EQ
        0x0001b854:    2301        .#      MOVEQ    r3,#1
        0x0001b856:    2300        .#      MOVNE    r3,#0
        0x0001b858:    f04f0c00    O...    MOVNE    r12,#0
        0x0001b85c:    d054        T.      BEQ      0x1b908 ; ndigits_in_u64 + 190
        0x0001b85e:    2900        .)      CMP      r1,#0
        0x0001b860:    d03b        ;.      BEQ      0x1b8da ; ndigits_in_u64 + 144
        0x0001b862:    084c        L.      LSRS     r4,r1,#1
        0x0001b864:    ea4f0690    O...    LSR      r6,r0,#2
        0x0001b868:    ea4f0230    O.0.    RRX      r2,r0
        0x0001b86c:    ea467681    F..v    ORR      r6,r6,r1,LSL #30
        0x0001b870:    1992        ..      ADDS     r2,r2,r6
        0x0001b872:    eb440491    D...    ADC      r4,r4,r1,LSR #2
        0x0001b876:    ea4f1612    O...    LSR      r6,r2,#4
        0x0001b87a:    ea467504    F..u    ORR      r5,r6,r4,LSL #28
        0x0001b87e:    18aa        ..      ADDS     r2,r5,r2
        0x0001b880:    eb441414    D...    ADC      r4,r4,r4,LSR #4
        0x0001b884:    ea4f2612    O..&    LSR      r6,r2,#8
        0x0001b888:    ea466504    F..e    ORR      r5,r6,r4,LSL #24
        0x0001b88c:    18aa        ..      ADDS     r2,r5,r2
        0x0001b88e:    eb442514    D..%    ADC      r5,r4,r4,LSR #8
        0x0001b892:    ea4f4612    O..F    LSR      r6,r2,#16
        0x0001b896:    ea464405    F..D    ORR      r4,r6,r5,LSL #16
        0x0001b89a:    18a4        ..      ADDS     r4,r4,r2
        0x0001b89c:    eb454215    E..B    ADC      r2,r5,r5,LSR #16
        0x0001b8a0:    18a4        ..      ADDS     r4,r4,r2
        0x0001b8a2:    eb42020c    B...    ADC      r2,r2,r12
        0x0001b8a6:    08e4        ..      LSRS     r4,r4,#3
        0x0001b8a8:    ea447442    D.Bt    ORR      r4,r4,r2,LSL #29
        0x0001b8ac:    270a        .'      MOVS     r7,#0xa
        0x0001b8ae:    fba45807    ...X    UMULL    r5,r8,r4,r7
        0x0001b8b2:    08d2        ..      LSRS     r2,r2,#3
        0x0001b8b4:    fb028707    ....    MLA      r7,r2,r7,r8
        0x0001b8b8:    2600        .&      MOVS     r6,#0
        0x0001b8ba:    fb047606    ...v    MLA      r6,r4,r6,r7
        0x0001b8be:    1b40        @.      SUBS     r0,r0,r5
        0x0001b8c0:    eb610106    a...    SBC      r1,r1,r6
        0x0001b8c4:    1d85        ..      ADDS     r5,r0,#6
        0x0001b8c6:    f1410000    A...    ADC      r0,r1,#0
        0x0001b8ca:    092d        -.      LSRS     r5,r5,#4
        0x0001b8cc:    ea457100    E..q    ORR      r1,r5,r0,LSL #28
        0x0001b8d0:    0905        ..      LSRS     r5,r0,#4
        0x0001b8d2:    1908        ..      ADDS     r0,r1,r4
        0x0001b8d4:    eb450102    E...    ADC      r1,r5,r2
        0x0001b8d8:    e012        ..      B        0x1b900 ; ndigits_in_u64 + 182
        0x0001b8da:    0841        A.      LSRS     r1,r0,#1
        0x0001b8dc:    eb010190    ....    ADD      r1,r1,r0,LSR #2
        0x0001b8e0:    eb011111    ....    ADD      r1,r1,r1,LSR #4
        0x0001b8e4:    eb012111    ...!    ADD      r1,r1,r1,LSR #8
        0x0001b8e8:    eb014111    ...A    ADD      r1,r1,r1,LSR #16
        0x0001b8ec:    08c9        ..      LSRS     r1,r1,#3
        0x0001b8ee:    424a        JB      RSBS     r2,r1,#0
        0x0001b8f0:    eb020282    ....    ADD      r2,r2,r2,LSL #2
        0x0001b8f4:    eb000042    ..B.    ADD      r0,r0,r2,LSL #1
        0x0001b8f8:    1d80        ..      ADDS     r0,r0,#6
        0x0001b8fa:    eb011010    ....    ADD      r0,r1,r0,LSR #4
        0x0001b8fe:    4661        aF      MOV      r1,r12
        0x0001b900:    1c5b        [.      ADDS     r3,r3,#1
        0x0001b902:    ea500201    P...    ORRS     r2,r0,r1
        0x0001b906:    d1aa        ..      BNE      0x1b85e ; ndigits_in_u64 + 20
        0x0001b908:    e8bd01f0    ....    POP      {r4-r8}
        0x0001b90c:    4618        .F      MOV      r0,r3
        0x0001b90e:    4770        pG      BX       lr
    i.nonblocking_read_sm
    nonblocking_read_sm
        0x0001b910:    e92d41f0    -..A    PUSH     {r4-r8,lr}
        0x0001b914:    4604        .F      MOV      r4,r0
        0x0001b916:    f8900098    ....    LDRB     r0,[r0,#0x98]
        0x0001b91a:    b08a        ..      SUB      sp,sp,#0x28
        0x0001b91c:    b370        p.      CBZ      r0,0x1b97c ; nonblocking_read_sm + 108
        0x0001b91e:    4625        %F      MOV      r5,r4
        0x0001b920:    f7fcfd0a    ....    BL       am_hal_interrupt_master_disable ; 0x18338
        0x0001b924:    9009        ..      STR      r0,[sp,#0x24]
        0x0001b926:    2100        .!      MOVS     r1,#0
        0x0001b928:    6a6a        jj      LDR      r2,[r5,#0x24]
        0x0001b92a:    2620         &      MOVS     r6,#0x20
        0x0001b92c:    0310        ..      LSLS     r0,r2,#12
        0x0001b92e:    f1004380    ...C    ADD      r3,r0,#0x40000000
        0x0001b932:    466f        oF      MOV      r7,sp
        0x0001b934:    f10d0820    .. .    ADD      r8,sp,#0x20
        0x0001b938:    468c        .F      MOV      r12,r1
        0x0001b93a:    f50333e0    ...3    ADD      r3,r3,#0x1c000
        0x0001b93e:    6998        .i      LDR      r0,[r3,#0x18]
        0x0001b940:    f0100f10    ....    TST      r0,#0x10
        0x0001b944:    d10a        ..      BNE      0x1b95c ; nonblocking_read_sm + 76
        0x0001b946:    681a        .h      LDR      r2,[r3,#0]
        0x0001b948:    f4126f70    ..po    TST      r2,#0xf00
        0x0001b94c:    d002        ..      BEQ      0x1b954 ; nonblocking_read_sm + 68
        0x0001b94e:    f04f6c00    O..l    MOV      r12,#0x8000000
        0x0001b952:    e003        ..      B        0x1b95c ; nonblocking_read_sm + 76
        0x0001b954:    547a        zT      STRB     r2,[r7,r1]
        0x0001b956:    1c49        I.      ADDS     r1,r1,#1
        0x0001b958:    42b1        .B      CMP      r1,r6
        0x0001b95a:    d3f0        ..      BCC      0x1b93e ; nonblocking_read_sm + 46
        0x0001b95c:    f1b80f00    ....    CMP      r8,#0
        0x0001b960:    bf18        ..      IT       NE
        0x0001b962:    9108        ..      STRNE    r1,[sp,#0x20]
        0x0001b964:    f1bc0f00    ....    CMP      r12,#0
        0x0001b968:    d105        ..      BNE      0x1b976 ; nonblocking_read_sm + 102
        0x0001b96a:    4639        9F      MOV      r1,r7
        0x0001b96c:    f105009c    ....    ADD      r0,r5,#0x9c
        0x0001b970:    9a08        ..      LDR      r2,[sp,#0x20]
        0x0001b972:    f7fdfbd7    ....    BL       am_hal_queue_item_add ; 0x19124
        0x0001b976:    9809        ..      LDR      r0,[sp,#0x24]
        0x0001b978:    f7fcfce2    ....    BL       am_hal_interrupt_master_set ; 0x18340
        0x0001b97c:    f894002c    ..,.    LDRB     r0,[r4,#0x2c]
        0x0001b980:    2800        .(      CMP      r0,#0
        0x0001b982:    bf04        ..      ITT      EQ
        0x0001b984:    b00a        ..      ADDEQ    sp,sp,#0x28
        0x0001b986:    e8bd81f0    ....    POPEQ    {r4-r8,pc}
        0x0001b98a:    f7fcfcd5    ....    BL       am_hal_interrupt_master_disable ; 0x18338
        0x0001b98e:    9001        ..      STR      r0,[sp,#4]
        0x0001b990:    6d20         m      LDR      r0,[r4,#0x50]
        0x0001b992:    6ba1        .k      LDR      r1,[r4,#0x38]
        0x0001b994:    1a0a        ..      SUBS     r2,r1,r0
        0x0001b996:    6b61        ak      LDR      r1,[r4,#0x34]
        0x0001b998:    2500        .%      MOVS     r5,#0
        0x0001b99a:    4401        .D      ADD      r1,r1,r0
        0x0001b99c:    9500        ..      STR      r5,[sp,#0]
        0x0001b99e:    f8940098    ....    LDRB     r0,[r4,#0x98]
        0x0001b9a2:    b1a0        ..      CBZ      r0,0x1b9ce ; nonblocking_read_sm + 190
        0x0001b9a4:    f8d400a4    ....    LDR      r0,[r4,#0xa4]
        0x0001b9a8:    4282        .B      CMP      r2,r0
        0x0001b9aa:    bf28        (.      IT       CS
        0x0001b9ac:    4602        .F      MOVCS    r2,r0
        0x0001b9ae:    f104009c    ....    ADD      r0,r4,#0x9c
        0x0001b9b2:    9200        ..      STR      r2,[sp,#0]
        0x0001b9b4:    f7fdfbe1    ....    BL       am_hal_queue_item_get ; 0x1917a
        0x0001b9b8:    bb28        (.      CBNZ     r0,0x1ba06 ; nonblocking_read_sm + 246
        0x0001b9ba:    f884502c    ..,P    STRB     r5,[r4,#0x2c]
        0x0001b9be:    6c62        bl      LDR      r2,[r4,#0x44]
        0x0001b9c0:    b30a        ..      CBZ      r2,0x1ba06 ; nonblocking_read_sm + 246
        0x0001b9c2:    2001        .       MOVS     r0,#1
        0x0001b9c4:    6ca1        .l      LDR      r1,[r4,#0x48]
        0x0001b9c6:    4790        .G      BLX      r2
        0x0001b9c8:    b00a        ..      ADD      sp,sp,#0x28
        0x0001b9ca:    e8bd81f0    ....    POP      {r4-r8,pc}
        0x0001b9ce:    2000        .       MOVS     r0,#0
        0x0001b9d0:    6a63        cj      LDR      r3,[r4,#0x24]
        0x0001b9d2:    466e        nF      MOV      r6,sp
        0x0001b9d4:    2a00        .*      CMP      r2,#0
        0x0001b9d6:    bf82        ..      ITTT     HI
        0x0001b9d8:    031b        ..      LSLHI    r3,r3,#12
        0x0001b9da:    f1034c80    ...L    ADDHI    r12,r3,#0x40000000
        0x0001b9de:    f50c3ce0    ...<    ADDHI    r12,r12,#0x1c000
        0x0001b9e2:    d90d        ..      BLS      0x1ba00 ; nonblocking_read_sm + 240
        0x0001b9e4:    f8dc3018    ...0    LDR      r3,[r12,#0x18]
        0x0001b9e8:    f0130f10    ....    TST      r3,#0x10
        0x0001b9ec:    bf04        ..      ITT      EQ
        0x0001b9ee:    f8dc3000    ...0    LDREQ    r3,[r12,#0]
        0x0001b9f2:    f4136f70    ..po    TSTEQ    r3,#0xf00
        0x0001b9f6:    d103        ..      BNE      0x1ba00 ; nonblocking_read_sm + 240
        0x0001b9f8:    540b        .T      STRB     r3,[r1,r0]
        0x0001b9fa:    1c40        @.      ADDS     r0,r0,#1
        0x0001b9fc:    4290        .B      CMP      r0,r2
        0x0001b9fe:    d3f1        ..      BCC      0x1b9e4 ; nonblocking_read_sm + 212
        0x0001ba00:    2e00        ..      CMP      r6,#0
        0x0001ba02:    bf18        ..      IT       NE
        0x0001ba04:    9000        ..      STRNE    r0,[sp,#0]
        0x0001ba06:    6d20         m      LDR      r0,[r4,#0x50]
        0x0001ba08:    9900        ..      LDR      r1,[sp,#0]
        0x0001ba0a:    4408        .D      ADD      r0,r0,r1
        0x0001ba0c:    6520         e      STR      r0,[r4,#0x50]
        0x0001ba0e:    9801        ..      LDR      r0,[sp,#4]
        0x0001ba10:    f7fcfc96    ....    BL       am_hal_interrupt_master_set ; 0x18340
        0x0001ba14:    6d20         m      LDR      r0,[r4,#0x50]
        0x0001ba16:    6be1        .k      LDR      r1,[r4,#0x3c]
        0x0001ba18:    6008        .`      STR      r0,[r1,#0]
        0x0001ba1a:    6d20         m      LDR      r0,[r4,#0x50]
        0x0001ba1c:    6ba1        .k      LDR      r1,[r4,#0x38]
        0x0001ba1e:    4288        .B      CMP      r0,r1
        0x0001ba20:    bf1c        ..      ITT      NE
        0x0001ba22:    b00a        ..      ADDNE    sp,sp,#0x28
        0x0001ba24:    e8bd81f0    ....    POPNE    {r4-r8,pc}
        0x0001ba28:    f884502c    ..,P    STRB     r5,[r4,#0x2c]
        0x0001ba2c:    6c62        bl      LDR      r2,[r4,#0x44]
        0x0001ba2e:    2a00        .*      CMP      r2,#0
        0x0001ba30:    bf04        ..      ITT      EQ
        0x0001ba32:    b00a        ..      ADDEQ    sp,sp,#0x28
        0x0001ba34:    e8bd81f0    ....    POPEQ    {r4-r8,pc}
        0x0001ba38:    2000        .       MOVS     r0,#0
        0x0001ba3a:    6ca1        .l      LDR      r1,[r4,#0x48]
        0x0001ba3c:    b00a        ..      ADD      sp,sp,#0x28
        0x0001ba3e:    e8bd41f0    ...A    POP      {r4-r8,lr}
        0x0001ba42:    4710        .G      BX       r2
    i.nonblocking_write_sm
    nonblocking_write_sm
        0x0001ba44:    b5f0        ..      PUSH     {r4-r7,lr}
        0x0001ba46:    4604        .F      MOV      r4,r0
        0x0001ba48:    f8900054    ..T.    LDRB     r0,[r0,#0x54]
        0x0001ba4c:    2600        .&      MOVS     r6,#0
        0x0001ba4e:    b083        ..      SUB      sp,sp,#0xc
        0x0001ba50:    2800        .(      CMP      r0,#0
        0x0001ba52:    d049        I.      BEQ      0x1bae8 ; nonblocking_write_sm + 164
        0x0001ba54:    f7fcfc70    ..p.    BL       am_hal_interrupt_master_disable ; 0x18338
        0x0001ba58:    9001        ..      STR      r0,[sp,#4]
        0x0001ba5a:    6fa0        .o      LDR      r0,[r4,#0x78]
        0x0001ba5c:    6e21        !n      LDR      r1,[r4,#0x60]
        0x0001ba5e:    1a0a        ..      SUBS     r2,r1,r0
        0x0001ba60:    6de1        .m      LDR      r1,[r4,#0x5c]
        0x0001ba62:    4401        .D      ADD      r1,r1,r0
        0x0001ba64:    f894007c    ..|.    LDRB     r0,[r4,#0x7c]
        0x0001ba68:    b1b8        ..      CBZ      r0,0x1ba9a ; nonblocking_write_sm + 86
        0x0001ba6a:    f8d4308c    ...0    LDR      r3,[r4,#0x8c]
        0x0001ba6e:    f8d40088    ....    LDR      r0,[r4,#0x88]
        0x0001ba72:    1a18        ..      SUBS     r0,r3,r0
        0x0001ba74:    4282        .B      CMP      r2,r0
        0x0001ba76:    bf28        (.      IT       CS
        0x0001ba78:    4602        .F      MOVCS    r2,r0
        0x0001ba7a:    f1040080    ....    ADD      r0,r4,#0x80
        0x0001ba7e:    9200        ..      STR      r2,[sp,#0]
        0x0001ba80:    f7fdfb50    ..P.    BL       am_hal_queue_item_add ; 0x19124
        0x0001ba84:    bb48        H.      CBNZ     r0,0x1bada ; nonblocking_write_sm + 150
        0x0001ba86:    f8846054    ..T`    STRB     r6,[r4,#0x54]
        0x0001ba8a:    6ee2        .n      LDR      r2,[r4,#0x6c]
        0x0001ba8c:    4620         F      MOV      r0,r4
        0x0001ba8e:    b322        ".      CBZ      r2,0x1bada ; nonblocking_write_sm + 150
        0x0001ba90:    6f01        .o      LDR      r1,[r0,#0x70]
        0x0001ba92:    2001        .       MOVS     r0,#1
        0x0001ba94:    4790        .G      BLX      r2
        0x0001ba96:    b003        ..      ADD      sp,sp,#0xc
        0x0001ba98:    bdf0        ..      POP      {r4-r7,pc}
        0x0001ba9a:    f8d4c024    ..$.    LDR      r12,[r4,#0x24]
        0x0001ba9e:    466d        mF      MOV      r5,sp
        0x0001baa0:    2300        .#      MOVS     r3,#0
        0x0001baa2:    b1ba        ..      CBZ      r2,0x1bad4 ; nonblocking_write_sm + 144
        0x0001baa4:    f1b24f00    ...O    CMP      r2,#0x80000000
        0x0001baa8:    d266        f.      BCS      0x1bb78 ; nonblocking_write_sm + 308
        0x0001baaa:    2001        .       MOVS     r0,#1
        0x0001baac:    2a01        .*      CMP      r2,#1
        0x0001baae:    db11        ..      BLT      0x1bad4 ; nonblocking_write_sm + 144
        0x0001bab0:    ea4f3c0c    O..<    LSL      r12,r12,#12
        0x0001bab4:    f10c4c80    ...L    ADD      r12,r12,#0x40000000
        0x0001bab8:    f50c3ce0    ...<    ADD      r12,r12,#0x1c000
        0x0001babc:    f8dc7018    ...p    LDR      r7,[r12,#0x18]
        0x0001bac0:    f0170f20    .. .    TST      r7,#0x20
        0x0001bac4:    d106        ..      BNE      0x1bad4 ; nonblocking_write_sm + 144
        0x0001bac6:    5ccf        .\      LDRB     r7,[r1,r3]
        0x0001bac8:    f8cc7000    ...p    STR      r7,[r12,#0]
        0x0001bacc:    1c40        @.      ADDS     r0,r0,#1
        0x0001bace:    1c5b        [.      ADDS     r3,r3,#1
        0x0001bad0:    4290        .B      CMP      r0,r2
        0x0001bad2:    ddf3        ..      BLE      0x1babc ; nonblocking_write_sm + 120
        0x0001bad4:    2d00        .-      CMP      r5,#0
        0x0001bad6:    bf18        ..      IT       NE
        0x0001bad8:    9300        ..      STRNE    r3,[sp,#0]
        0x0001bada:    6fa0        .o      LDR      r0,[r4,#0x78]
        0x0001badc:    9900        ..      LDR      r1,[sp,#0]
        0x0001bade:    4401        .D      ADD      r1,r1,r0
        0x0001bae0:    67a1        .g      STR      r1,[r4,#0x78]
        0x0001bae2:    9801        ..      LDR      r0,[sp,#4]
        0x0001bae4:    f7fcfc2c    ..,.    BL       am_hal_interrupt_master_set ; 0x18340
        0x0001bae8:    f894007c    ..|.    LDRB     r0,[r4,#0x7c]
        0x0001baec:    b340        @.      CBZ      r0,0x1bb40 ; nonblocking_write_sm + 252
        0x0001baee:    4625        %F      MOV      r5,r4
        0x0001baf0:    6a67        gj      LDR      r7,[r4,#0x24]
        0x0001baf2:    f7fcfc21    ..!.    BL       am_hal_interrupt_master_disable ; 0x18338
        0x0001baf6:    9001        ..      STR      r0,[sp,#4]
        0x0001baf8:    0338        8.      LSLS     r0,r7,#12
        0x0001bafa:    f1004780    ...G    ADD      r7,r0,#0x40000000
        0x0001bafe:    f50737e0    ...7    ADD      r7,r7,#0x1c000
        0x0001bb02:    69b8        .i      LDR      r0,[r7,#0x18]
        0x0001bb04:    f0100f20    .. .    TST      r0,#0x20
        0x0001bb08:    d117        ..      BNE      0x1bb3a ; nonblocking_write_sm + 246
        0x0001bb0a:    2201        ."      MOVS     r2,#1
        0x0001bb0c:    4669        iF      MOV      r1,sp
        0x0001bb0e:    f1050080    ....    ADD      r0,r5,#0x80
        0x0001bb12:    f7fdfb32    ..2.    BL       am_hal_queue_item_get ; 0x1917a
        0x0001bb16:    b180        ..      CBZ      r0,0x1bb3a ; nonblocking_write_sm + 246
        0x0001bb18:    6a68        hj      LDR      r0,[r5,#0x24]
        0x0001bb1a:    0300        ..      LSLS     r0,r0,#12
        0x0001bb1c:    f1004080    ...@    ADD      r0,r0,#0x40000000
        0x0001bb20:    f50030e0    ...0    ADD      r0,r0,#0x1c000
        0x0001bb24:    6981        .i      LDR      r1,[r0,#0x18]
        0x0001bb26:    f0110f20    .. .    TST      r1,#0x20
        0x0001bb2a:    bf04        ..      ITT      EQ
        0x0001bb2c:    f89d1000    ....    LDRBEQ   r1,[sp,#0]
        0x0001bb30:    6001        .`      STREQ    r1,[r0,#0]
        0x0001bb32:    69b8        .i      LDR      r0,[r7,#0x18]
        0x0001bb34:    f0100f20    .. .    TST      r0,#0x20
        0x0001bb38:    d0e7        ..      BEQ      0x1bb0a ; nonblocking_write_sm + 198
        0x0001bb3a:    9801        ..      LDR      r0,[sp,#4]
        0x0001bb3c:    f7fcfc00    ....    BL       am_hal_interrupt_master_set ; 0x18340
        0x0001bb40:    6fa0        .o      LDR      r0,[r4,#0x78]
        0x0001bb42:    6e61        an      LDR      r1,[r4,#0x64]
        0x0001bb44:    6008        .`      STR      r0,[r1,#0]
        0x0001bb46:    6fa0        .o      LDR      r0,[r4,#0x78]
        0x0001bb48:    6e21        !n      LDR      r1,[r4,#0x60]
        0x0001bb4a:    4288        .B      CMP      r0,r1
        0x0001bb4c:    bf1c        ..      ITT      NE
        0x0001bb4e:    b003        ..      ADDNE    sp,sp,#0xc
        0x0001bb50:    bdf0        ..      POPNE    {r4-r7,pc}
        0x0001bb52:    f8940054    ..T.    LDRB     r0,[r4,#0x54]
        0x0001bb56:    2800        .(      CMP      r0,#0
        0x0001bb58:    bf04        ..      ITT      EQ
        0x0001bb5a:    b003        ..      ADDEQ    sp,sp,#0xc
        0x0001bb5c:    bdf0        ..      POPEQ    {r4-r7,pc}
        0x0001bb5e:    f8846054    ..T`    STRB     r6,[r4,#0x54]
        0x0001bb62:    6ee2        .n      LDR      r2,[r4,#0x6c]
        0x0001bb64:    2a00        .*      CMP      r2,#0
        0x0001bb66:    bf04        ..      ITT      EQ
        0x0001bb68:    b003        ..      ADDEQ    sp,sp,#0xc
        0x0001bb6a:    bdf0        ..      POPEQ    {r4-r7,pc}
        0x0001bb6c:    2000        .       MOVS     r0,#0
        0x0001bb6e:    6f21        !o      LDR      r1,[r4,#0x70]
        0x0001bb70:    b003        ..      ADD      sp,sp,#0xc
        0x0001bb72:    e8bd40f0    ...@    POP      {r4-r7,lr}
        0x0001bb76:    4710        .G      BX       r2
        0x0001bb78:    ea4f300c    O..0    LSL      r0,r12,#12
        0x0001bb7c:    f1004080    ...@    ADD      r0,r0,#0x40000000
        0x0001bb80:    f50030e0    ...0    ADD      r0,r0,#0x1c000
        0x0001bb84:    f8d0c018    ....    LDR      r12,[r0,#0x18]
        0x0001bb88:    f01c0f20    .. .    TST      r12,#0x20
        0x0001bb8c:    d1a2        ..      BNE      0x1bad4 ; nonblocking_write_sm + 144
        0x0001bb8e:    f811c003    ....    LDRB     r12,[r1,r3]
        0x0001bb92:    f8c0c000    ....    STR      r12,[r0,#0]
        0x0001bb96:    1c5b        [.      ADDS     r3,r3,#1
        0x0001bb98:    4293        .B      CMP      r3,r2
        0x0001bb9a:    d3f3        ..      BCC      0x1bb84 ; nonblocking_write_sm + 320
        0x0001bb9c:    e79a        ..      B        0x1bad4 ; nonblocking_write_sm + 144
        0x0001bb9e:    0000        ..      MOVS     r0,r0
    i.portable_fini
    portable_fini
        0x0001bba0:    e92d41f0    -..A    PUSH     {r4-r8,lr}
        0x0001bba4:    2100        .!      MOVS     r1,#0
        0x0001bba6:    7001        .p      STRB     r1,[r0,#0]
        0x0001bba8:    f7fcfc9e    ....    BL       am_bsp_uart_printf_enable ; 0x184e8
        0x0001bbac:    a02a        *.      ADR      r0,{pc}+0xac ; 0x1bc58
        0x0001bbae:    f7fdfed5    ....    BL       am_util_stdio_printf ; 0x1995c
        0x0001bbb2:    4c33        3L      LDR      r4,[pc,#204] ; [0x1bc80] = 0x10000128
        0x0001bbb4:    2500        .%      MOVS     r5,#0
        0x0001bbb6:    e00c        ..      B        0x1bbd2 ; portable_fini + 50
        0x0001bbb8:    4620         F      MOV      r0,r4
        0x0001bbba:    f7fdfecf    ....    BL       am_util_stdio_printf ; 0x1995c
        0x0001bbbe:    7820         x      LDRB     r0,[r4,#0]
        0x0001bbc0:    b128        (.      CBZ      r0,0x1bbce ; portable_fini + 46
        0x0001bbc2:    bf00        ..      NOP      
        0x0001bbc4:    f8140f01    ....    LDRB     r0,[r4,#1]!
        0x0001bbc8:    1c6d        m.      ADDS     r5,r5,#1
        0x0001bbca:    2800        .(      CMP      r0,#0
        0x0001bbcc:    d1fa        ..      BNE      0x1bbc4 ; portable_fini + 36
        0x0001bbce:    1c64        d.      ADDS     r4,r4,#1
        0x0001bbd0:    1c6d        m.      ADDS     r5,r5,#1
        0x0001bbd2:    7820         x      LDRB     r0,[r4,#0]
        0x0001bbd4:    2800        .(      CMP      r0,#0
        0x0001bbd6:    bf18        ..      IT       NE
        0x0001bbd8:    f5b57f40    ..@.    CMPNE    r5,#0x300
        0x0001bbdc:    dbec        ..      BLT      0x1bbb8 ; portable_fini + 24
        0x0001bbde:    f7fcfc5d    ..].    BL       am_bsp_uart_printf_disable ; 0x1849c
        0x0001bbe2:    2103        .!      MOVS     r1,#3
        0x0001bbe4:    4827        'H      LDR      r0,[pc,#156] ; [0x1bc84] = 0x100000a4
        0x0001bbe6:    f7fcfcdb    ....    BL       am_devices_led_array_init ; 0x185a0
        0x0001bbea:    2400        .$      MOVS     r4,#0
        0x0001bbec:    4d26        &M      LDR      r5,[pc,#152] ; [0x1bc88] = 0xaaaaaaab
        0x0001bbee:    2601        .&      MOVS     r6,#1
        0x0001bbf0:    f05f0704    _...    MOVS.W   r7,#4
        0x0001bbf4:    fba51004    ....    UMULL    r1,r0,r5,r4
        0x0001bbf8:    0880        ..      LSRS     r0,r0,#2
        0x0001bbfa:    eba00080    ....    SUB      r0,r0,r0,LSL #2
        0x0001bbfe:    eb040040    ..@.    ADD      r0,r4,r0,LSL #1
        0x0001bc02:    2803        .(      CMP      r0,#3
        0x0001bc04:    bf32        2.      ITEE     CC
        0x0001bc06:    fa06f200    ....    LSLCC    r2,r6,r0
        0x0001bc0a:    1ec0        ..      SUBCS    r0,r0,#3
        0x0001bc0c:    fa27f200    '...    LSRCS    r2,r7,r0
        0x0001bc10:    f04f08c8    O...    MOV      r8,#0xc8
        0x0001bc14:    2103        .!      MOVS     r1,#3
        0x0001bc16:    481b        .H      LDR      r0,[pc,#108] ; [0x1bc84] = 0x100000a4
        0x0001bc18:    f7fcfd20    .. .    BL       am_devices_led_array_out ; 0x1865c
        0x0001bc1c:    4640        @F      MOV      r0,r8
        0x0001bc1e:    f7fdfe97    ....    BL       am_util_delay_ms ; 0x19950
        0x0001bc22:    1c64        d.      ADDS     r4,r4,#1
        0x0001bc24:    2c0c        .,      CMP      r4,#0xc
        0x0001bc26:    d3e5        ..      BCC      0x1bbf4 ; portable_fini + 84
        0x0001bc28:    2400        .$      MOVS     r4,#0
        0x0001bc2a:    2207        ."      MOVS     r2,#7
        0x0001bc2c:    f44f7596    O..u    MOV      r5,#0x12c
        0x0001bc30:    2103        .!      MOVS     r1,#3
        0x0001bc32:    4814        .H      LDR      r0,[pc,#80] ; [0x1bc84] = 0x100000a4
        0x0001bc34:    f7fcfd12    ....    BL       am_devices_led_array_out ; 0x1865c
        0x0001bc38:    4628        (F      MOV      r0,r5
        0x0001bc3a:    f7fdfe89    ....    BL       am_util_delay_ms ; 0x19950
        0x0001bc3e:    2200        ."      MOVS     r2,#0
        0x0001bc40:    2103        .!      MOVS     r1,#3
        0x0001bc42:    4810        .H      LDR      r0,[pc,#64] ; [0x1bc84] = 0x100000a4
        0x0001bc44:    f7fcfd0a    ....    BL       am_devices_led_array_out ; 0x1865c
        0x0001bc48:    4628        (F      MOV      r0,r5
        0x0001bc4a:    f7fdfe81    ....    BL       am_util_delay_ms ; 0x19950
        0x0001bc4e:    1c64        d.      ADDS     r4,r4,#1
        0x0001bc50:    2c03        .,      CMP      r4,#3
        0x0001bc52:    d3ea        ..      BCC      0x1bc2a ; portable_fini + 138
        0x0001bc54:    e8bd81f0    ....    POP      {r4-r8,pc}
    $d
        0x0001bc58:    626d410a    .Amb    DCD    1651327242
        0x0001bc5c:    4d207169    iq M    DCD    1293971817
        0x0001bc60:    6f726369    icro    DCD    1869767529
        0x0001bc64:    726f4320     Cor    DCD    1919894304
        0x0001bc68:    72616d65    emar    DCD    1918987621
        0x0001bc6c:    7572206b    k ru    DCD    1970413675
        0x0001bc70:    6966206e    n fi    DCD    1768300654
        0x0001bc74:    6873696e    nish    DCD    1752394094
        0x0001bc78:    0a216465    ed!.    DCD    169960549
        0x0001bc7c:    0000000a    ....    DCD    10
        0x0001bc80:    10000128    (...    DCD    268435752
        0x0001bc84:    100000a4    ....    DCD    268435620
        0x0001bc88:    aaaaaaab    ....    DCD    2863311531
    $t
    i.portable_init
    portable_init
        0x0001bc8c:    b530        0.      PUSH     {r4,r5,lr}
        0x0001bc8e:    b085        ..      SUB      sp,sp,#0x14
        0x0001bc90:    2101        .!      MOVS     r1,#1
        0x0001bc92:    7001        .p      STRB     r1,[r0,#0]
        0x0001bc94:    f44f7140    O.@q    MOV      r1,#0x300
        0x0001bc98:    484c        LH      LDR      r0,[pc,#304] ; [0x1bdcc] = 0x10000128
        0x0001bc9a:    f7fcfb61    ..a.    BL       __aeabi_memclr ; 0x18360
        0x0001bc9e:    4d4c        LM      LDR      r5,[pc,#304] ; [0x1bdd0] = 0x10000038
        0x0001bca0:    2400        .$      MOVS     r4,#0
        0x0001bca2:    484a        JH      LDR      r0,[pc,#296] ; [0x1bdcc] = 0x10000128
        0x0001bca4:    606c        l`      STR      r4,[r5,#4]
        0x0001bca6:    60a8        .`      STR      r0,[r5,#8]
        0x0001bca8:    f7fcfc1e    ....    BL       am_bsp_uart_printf_enable ; 0x184e8
        0x0001bcac:    7828        (x      LDRB     r0,[r5,#0]
        0x0001bcae:    2801        .(      CMP      r0,#1
        0x0001bcb0:    bf0c        ..      ITE      EQ
        0x0001bcb2:    a048        H.      ADREQ    r0,{pc}+0x122 ; 0x1bdd4
        0x0001bcb4:    a052        R.      ADRNE    r0,{pc}+0x14c ; 0x1be00
        0x0001bcb6:    f7fdfe51    ..Q.    BL       am_util_stdio_printf ; 0x1995c
        0x0001bcba:    f7fcfbef    ....    BL       am_bsp_uart_printf_disable ; 0x1849c
        0x0001bcbe:    f7fcfbe2    ....    BL       am_bsp_low_power_init ; 0x18486
        0x0001bcc2:    2014        .       MOVS     r0,#0x14
        0x0001bcc4:    f7fdf8ea    ....    BL       am_hal_pwrctrl_periph_disable ; 0x18e9c
        0x0001bcc8:    4958        XI      LDR      r1,[pc,#352] ; [0x1be2c] = 0x1c72c
        0x0001bcca:    9400        ..      STR      r4,[sp,#0]
        0x0001bccc:    9401        ..      STR      r4,[sp,#4]
        0x0001bcce:    e9d10100    ....    LDRD     r0,r1,[r1,#0]
        0x0001bcd2:    e9cd0102    ....    STRD     r0,r1,[sp,#8]
        0x0001bcd6:    a802        ..      ADD      r0,sp,#8
        0x0001bcd8:    f7fdf816    ....    BL       am_hal_pwrctrl_mcu_memory_config ; 0x18d08
        0x0001bcdc:    f04f4090    O..@    MOV      r0,#0x48000000
        0x0001bce0:    6801        .h      LDR      r1,[r0,#0]
        0x0001bce2:    f02101f0    !...    BIC      r1,r1,#0xf0
        0x0001bce6:    31c0        .1      ADDS     r1,r1,#0xc0
        0x0001bce8:    6001        .`      STR      r1,[r0,#0]
        0x0001bcea:    6801        .h      LDR      r1,[r0,#0]
        0x0001bcec:    f4417100    A..q    ORR      r1,r1,#0x200
        0x0001bcf0:    6001        .`      STR      r1,[r0,#0]
        0x0001bcf2:    6801        .h      LDR      r1,[r0,#0]
        0x0001bcf4:    f4417180    A..q    ORR      r1,r1,#0x100
        0x0001bcf8:    6001        .`      STR      r1,[r0,#0]
        0x0001bcfa:    6801        .h      LDR      r1,[r0,#0]
        0x0001bcfc:    f0410101    A...    ORR      r1,r1,#1
        0x0001bd00:    6001        .`      STR      r1,[r0,#0]
        0x0001bd02:    484b        KH      LDR      r0,[pc,#300] ; [0x1be30] = 0x40021000
        0x0001bd04:    6941        Ai      LDR      r1,[r0,#0x14]
        0x0001bd06:    f0210120    !. .    BIC      r1,r1,#0x20
        0x0001bd0a:    6141        Aa      STR      r1,[r0,#0x14]
        0x0001bd0c:    6941        Ai      LDR      r1,[r0,#0x14]
        0x0001bd0e:    f0410110    A...    ORR      r1,r1,#0x10
        0x0001bd12:    6141        Aa      STR      r1,[r0,#0x14]
        0x0001bd14:    69c1        .i      LDR      r1,[r0,#0x1c]
        0x0001bd16:    f0210110    !...    BIC      r1,r1,#0x10
        0x0001bd1a:    61c1        .a      STR      r1,[r0,#0x1c]
        0x0001bd1c:    4c45        EL      LDR      r4,[pc,#276] ; [0x1be34] = 0x40020000
        0x0001bd1e:    f8d40180    ....    LDR      r0,[r4,#0x180]
        0x0001bd22:    f0400001    @...    ORR      r0,r0,#1
        0x0001bd26:    f8c40180    ....    STR      r0,[r4,#0x180]
        0x0001bd2a:    f8d40180    ....    LDR      r0,[r4,#0x180]
        0x0001bd2e:    f0200002     ...    BIC      r0,r0,#2
        0x0001bd32:    f8c40180    ....    STR      r0,[r4,#0x180]
        0x0001bd36:    f8d40180    ....    LDR      r0,[r4,#0x180]
        0x0001bd3a:    f0400004    @...    ORR      r0,r0,#4
        0x0001bd3e:    f8c40180    ....    STR      r0,[r4,#0x180]
        0x0001bd42:    4668        hF      MOV      r0,sp
        0x0001bd44:    f50474c0    ...t    ADD      r4,r4,#0x180
        0x0001bd48:    f7fdf998    ....    BL       am_hal_pwrctrl_sram_config ; 0x1907c
        0x0001bd4c:    f8d401fc    ....    LDR      r0,[r4,#0x1fc]
        0x0001bd50:    f4202080     ..     BIC      r0,r0,#0x40000
        0x0001bd54:    f8c401fc    ....    STR      r0,[r4,#0x1fc]
        0x0001bd58:    f8d401fc    ....    LDR      r0,[r4,#0x1fc]
        0x0001bd5c:    f4201000     ...    BIC      r0,r0,#0x200000
        0x0001bd60:    f8c401fc    ....    STR      r0,[r4,#0x1fc]
        0x0001bd64:    f8d401fc    ....    LDR      r0,[r4,#0x1fc]
        0x0001bd68:    f0207080     ..p    BIC      r0,r0,#0x1000000
        0x0001bd6c:    f8c401fc    ....    STR      r0,[r4,#0x1fc]
        0x0001bd70:    f7fdfa36    ..6.    BL       am_hal_sysctrl_fpu_enable ; 0x191e0
        0x0001bd74:    2001        .       MOVS     r0,#1
        0x0001bd76:    f7fdfa3b    ..;.    BL       am_hal_sysctrl_fpu_stacking_enable ; 0x191f0
        0x0001bd7a:    2100        .!      MOVS     r1,#0
        0x0001bd7c:    2037        7       MOVS     r0,#0x37
        0x0001bd7e:    f7fcfda7    ....    BL       am_hal_gpio_state_write ; 0x188d0
        0x0001bd82:    482d        -H      LDR      r0,[pc,#180] ; [0x1be38] = 0x1c760
        0x0001bd84:    6801        .h      LDR      r1,[r0,#0]
        0x0001bd86:    9100        ..      STR      r1,[sp,#0]
        0x0001bd88:    2037        7       MOVS     r0,#0x37
        0x0001bd8a:    f7fcfd77    ..w.    BL       am_hal_gpio_pinconfig ; 0x1887c
        0x0001bd8e:    2101        .!      MOVS     r1,#1
        0x0001bd90:    2037        7       MOVS     r0,#0x37
        0x0001bd92:    f7fcfd9d    ....    BL       am_hal_gpio_state_write ; 0x188d0
        0x0001bd96:    2100        .!      MOVS     r1,#0
        0x0001bd98:    2037        7       MOVS     r0,#0x37
        0x0001bd9a:    f7fcfd99    ....    BL       am_hal_gpio_state_write ; 0x188d0
        0x0001bd9e:    7828        (x      LDRB     r0,[r5,#0]
        0x0001bda0:    2801        .(      CMP      r0,#1
        0x0001bda2:    d00c        ..      BEQ      0x1bdbe ; portable_init + 306
        0x0001bda4:    2001        .       MOVS     r0,#1
        0x0001bda6:    f7fdf83d    ..=.    BL       am_hal_pwrctrl_mcu_mode_select ; 0x18e24
        0x0001bdaa:    0001        ..      MOVS     r1,r0
        0x0001bdac:    bf04        ..      ITT      EQ
        0x0001bdae:    b005        ..      ADDEQ    sp,sp,#0x14
        0x0001bdb0:    bd30        0.      POPEQ    {r4,r5,pc}
        0x0001bdb2:    a022        ".      ADR      r0,{pc}+0x8a ; 0x1be3c
        0x0001bdb4:    b005        ..      ADD      sp,sp,#0x14
        0x0001bdb6:    e8bd4030    ..0@    POP      {r4,r5,lr}
        0x0001bdba:    f7fdbd7d    ..}.    B        am_sprintf ; 0x198b8
        0x0001bdbe:    2002        .       MOVS     r0,#2
        0x0001bdc0:    f7fdf830    ..0.    BL       am_hal_pwrctrl_mcu_mode_select ; 0x18e24
        0x0001bdc4:    0001        ..      MOVS     r1,r0
        0x0001bdc6:    d1f4        ..      BNE      0x1bdb2 ; portable_init + 294
        0x0001bdc8:    b005        ..      ADD      sp,sp,#0x14
        0x0001bdca:    bd30        0.      POP      {r4,r5,pc}
    $d
        0x0001bdcc:    10000128    (...    DCD    268435752
        0x0001bdd0:    10000038    8...    DCD    268435512
        0x0001bdd4:    0a0a0a0a    ....    DCD    168430090
        0x0001bdd8:    69626d41    Ambi    DCD    1768058177
        0x0001bddc:    694d2071    q Mi    DCD    1766662257
        0x0001bde0:    206f7263    cro     DCD    544174691
        0x0001bde4:    65726f43    Core    DCD    1701998403
        0x0001bde8:    6b72616d    mark    DCD    1802658157
        0x0001bdec:    32393120     192    DCD    842608928
        0x0001bdf0:    207a484d    MHz     DCD    544884813
        0x0001bdf4:    74736574    test    DCD    1953719668
        0x0001bdf8:    0a2e2e2e    ....    DCD    170798638
        0x0001bdfc:    0000000a    ....    DCD    10
        0x0001be00:    0a0a0a0a    ....    DCD    168430090
        0x0001be04:    69626d41    Ambi    DCD    1768058177
        0x0001be08:    694d2071    q Mi    DCD    1766662257
        0x0001be0c:    206f7263    cro     DCD    544174691
        0x0001be10:    65726f43    Core    DCD    1701998403
        0x0001be14:    6b72616d    mark    DCD    1802658157
        0x0001be18:    4d363920     96M    DCD    1295399200
        0x0001be1c:    74207a48    Hz t    DCD    1948285512
        0x0001be20:    2e747365    est.    DCD    779383653
        0x0001be24:    0a0a2e2e    ....    DCD    168439342
        0x0001be28:    00000000    ....    DCD    0
        0x0001be2c:    0001c72c    ,...    DCD    116524
        0x0001be30:    40021000    ...@    DCD    1073876992
        0x0001be34:    40020000    ...@    DCD    1073872896
        0x0001be38:    0001c760    `...    DCD    116576
        0x0001be3c:    6f727245    Erro    DCD    1869771333
        0x0001be40:    69772072    r wi    DCD    1769414770
        0x0001be44:    61206874    th a    DCD    1629513844
        0x0001be48:    61685f6d    m_ha    DCD    1634230125
        0x0001be4c:    77705f6c    l_pw    DCD    2003853164
        0x0001be50:    72746372    rctr    DCD    1920230258
        0x0001be54:    636d5f6c    l_mc    DCD    1668112236
        0x0001be58:    6f6d5f75    u_mo    DCD    1869438837
        0x0001be5c:    735f6564    de_s    DCD    1935631716
        0x0001be60:    63656c65    elec    DCD    1667591269
        0x0001be64:    2c292874    t(),    DCD    740894836
        0x0001be68:    74657220     ret    DCD    1952805408
        0x0001be6c:    656e7275    urne    DCD    1701737077
        0x0001be70:    64252064    d %d    DCD    1680154724
        0x0001be74:    00000a2e    ....    DCD    2606
    $t
    i.start_time
    start_time
        0x0001be78:    b510        ..      PUSH     {r4,lr}
        0x0001be7a:    f7fdf9ee    ....    BL       am_hal_systick_stop ; 0x1925a
        0x0001be7e:    f7fdf9e0    ....    BL       am_hal_systick_reset ; 0x19242
        0x0001be82:    f06f407f    o..@    MVN      r0,#0xff000000
        0x0001be86:    f7fdf9d6    ....    BL       am_hal_systick_load ; 0x19236
        0x0001be8a:    f7fdf9cd    ....    BL       am_hal_systick_int_enable ; 0x19228
        0x0001be8e:    f7fcfa4f    ..O.    BL       am_hal_interrupt_master_enable ; 0x18330
        0x0001be92:    f7fdf9db    ....    BL       am_hal_systick_start ; 0x1924c
        0x0001be96:    f7fdf9c3    ....    BL       am_hal_systick_count ; 0x19220
        0x0001be9a:    4a0a        .J      LDR      r2,[pc,#40] ; [0x1bec4] = 0x10000000
        0x0001be9c:    f06f417f    o..A    MVN      r1,#0xff000000
        0x0001bea0:    1a09        ..      SUBS     r1,r1,r0
        0x0001bea2:    6812        .h      LDR      r2,[r2,#0]
        0x0001bea4:    2000        .       MOVS     r0,#0
        0x0001bea6:    ea4f6c00    O..l    LSL      r12,r0,#24
        0x0001beaa:    ea4c2312    L..#    ORR      r3,r12,r2,LSR #8
        0x0001beae:    0612        ..      LSLS     r2,r2,#24
        0x0001beb0:    1889        ..      ADDS     r1,r1,r2
        0x0001beb2:    4a05        .J      LDR      r2,[pc,#20] ; [0x1bec8] = 0x10000038
        0x0001beb4:    4158        XA      ADCS     r0,r0,r3
        0x0001beb6:    e9c21004    ....    STRD     r1,r0,[r2,#0x10]
        0x0001beba:    4904        .I      LDR      r1,[pc,#16] ; [0x1becc] = 0x4ffff000
        0x0001bebc:    2001        .       MOVS     r0,#1
        0x0001bebe:    6148        Ha      STR      r0,[r1,#0x14]
        0x0001bec0:    bd10        ..      POP      {r4,pc}
    $d
        0x0001bec2:    0000        ..      DCW    0
        0x0001bec4:    10000000    ....    DCD    268435456
        0x0001bec8:    10000038    8...    DCD    268435512
        0x0001becc:    4ffff000    ...O    DCD    1342173184
    $t
    i.stop_time
    stop_time
        0x0001bed0:    b510        ..      PUSH     {r4,lr}
        0x0001bed2:    f7fdf9c2    ....    BL       am_hal_systick_stop ; 0x1925a
        0x0001bed6:    f7fdf9a3    ....    BL       am_hal_systick_count ; 0x19220
        0x0001beda:    4a0a        .J      LDR      r2,[pc,#40] ; [0x1bf04] = 0x10000000
        0x0001bedc:    f06f417f    o..A    MVN      r1,#0xff000000
        0x0001bee0:    1a09        ..      SUBS     r1,r1,r0
        0x0001bee2:    6812        .h      LDR      r2,[r2,#0]
        0x0001bee4:    2000        .       MOVS     r0,#0
        0x0001bee6:    ea4f6c00    O..l    LSL      r12,r0,#24
        0x0001beea:    ea4c2312    L..#    ORR      r3,r12,r2,LSR #8
        0x0001beee:    0612        ..      LSLS     r2,r2,#24
        0x0001bef0:    1889        ..      ADDS     r1,r1,r2
        0x0001bef2:    eb400203    @...    ADC      r2,r0,r3
        0x0001bef6:    4b04        .K      LDR      r3,[pc,#16] ; [0x1bf08] = 0x10000038
        0x0001bef8:    e9c31206    ....    STRD     r1,r2,[r3,#0x18]
        0x0001befc:    4903        .I      LDR      r1,[pc,#12] ; [0x1bf0c] = 0x4ffff000
        0x0001befe:    6148        Ha      STR      r0,[r1,#0x14]
        0x0001bf00:    bd10        ..      POP      {r4,pc}
    $d
        0x0001bf02:    0000        ..      DCW    0
        0x0001bf04:    10000000    ....    DCD    268435456
        0x0001bf08:    10000038    8...    DCD    268435512
        0x0001bf0c:    4ffff000    ...O    DCD    1342173184
    $t
    i.time_in_secs
    time_in_secs
        0x0001bf10:    490f        .I      LDR      r1,[pc,#60] ; [0x1bf50] = 0x10000038
        0x0001bf12:    b510        ..      PUSH     {r4,lr}
        0x0001bf14:    780c        .x      LDRB     r4,[r1,#0]
        0x0001bf16:    f000fa7e    ..~.    BL       __aeabi_ui2d ; 0x1c416
        0x0001bf1a:    ec410b10    A...    VMOV     d0,r0,r1
        0x0001bf1e:    2c01        .,      CMP      r4,#1
        0x0001bf20:    d00a        ..      BEQ      0x1bf38 ; time_in_secs + 40
        0x0001bf22:    ec510b10    Q...    VMOV     r0,r1,d0
        0x0001bf26:    ed9f1b0c    ....    VLDR     d1,[pc,#48] ; [0x1bf58] = 0
        0x0001bf2a:    ec532b11    S..+    VMOV     r2,r3,d1
        0x0001bf2e:    f000f8ed    ....    BL       __aeabi_ddiv ; 0x1c10c
        0x0001bf32:    ec410b10    A...    VMOV     d0,r0,r1
        0x0001bf36:    bd10        ..      POP      {r4,pc}
        0x0001bf38:    ed9f1b09    ....    VLDR     d1,[pc,#36] ; [0x1bf60] = 0
        0x0001bf3c:    ec510b10    Q...    VMOV     r0,r1,d0
        0x0001bf40:    ec532b11    S..+    VMOV     r2,r3,d1
        0x0001bf44:    f000f8e2    ....    BL       __aeabi_ddiv ; 0x1c10c
        0x0001bf48:    ec410b10    A...    VMOV     d0,r0,r1
        0x0001bf4c:    bd10        ..      POP      {r4,pc}
    $d
        0x0001bf4e:    0000        ..      DCW    0
        0x0001bf50:    10000038    8...    DCD    268435512
        0x0001bf54:    00000000    ....    DCD    0
        0x0001bf58:    00000000    ....    DCD    0
        0x0001bf5c:    4196e360    `..A    DCD    1100407648
        0x0001bf60:    00000000    ....    DCD    0
        0x0001bf64:    41a6e360    `..A    DCD    1101456224
    $t
    i.uint64_to_str
    uint64_to_str
        0x0001bf68:    e92d07f0    -...    PUSH     {r4-r10}
        0x0001bf6c:    b087        ..      SUB      sp,sp,#0x1c
        0x0001bf6e:    f04f0c00    O...    MOV      r12,#0
        0x0001bf72:    4666        fF      MOV      r6,r12
        0x0001bf74:    466d        mF      MOV      r5,sp
        0x0001bf76:    2900        .)      CMP      r1,#0
        0x0001bf78:    d03f        ?.      BEQ      0x1bffa ; uint64_to_str + 146
        0x0001bf7a:    084f        O.      LSRS     r7,r1,#1
        0x0001bf7c:    ea4f0390    O...    LSR      r3,r0,#2
        0x0001bf80:    ea4f0430    O.0.    RRX      r4,r0
        0x0001bf84:    ea437381    C..s    ORR      r3,r3,r1,LSL #30
        0x0001bf88:    18e4        ..      ADDS     r4,r4,r3
        0x0001bf8a:    eb470391    G...    ADC      r3,r7,r1,LSR #2
        0x0001bf8e:    ea4f1814    O...    LSR      r8,r4,#4
        0x0001bf92:    ea487803    H..x    ORR      r8,r8,r3,LSL #28
        0x0001bf96:    eb180404    ....    ADDS     r4,r8,r4
        0x0001bf9a:    eb431313    C...    ADC      r3,r3,r3,LSR #4
        0x0001bf9e:    ea4f2814    O..(    LSR      r8,r4,#8
        0x0001bfa2:    ea486803    H..h    ORR      r8,r8,r3,LSL #24
        0x0001bfa6:    eb180404    ....    ADDS     r4,r8,r4
        0x0001bfaa:    eb432313    C..#    ADC      r3,r3,r3,LSR #8
        0x0001bfae:    ea4f4814    O..H    LSR      r8,r4,#16
        0x0001bfb2:    ea484803    H..H    ORR      r8,r8,r3,LSL #16
        0x0001bfb6:    eb180404    ....    ADDS     r4,r8,r4
        0x0001bfba:    eb434313    C..C    ADC      r3,r3,r3,LSR #16
        0x0001bfbe:    18e7        ..      ADDS     r7,r4,r3
        0x0001bfc0:    eb430406    C...    ADC      r4,r3,r6
        0x0001bfc4:    08ff        ..      LSRS     r7,r7,#3
        0x0001bfc6:    ea477344    G.Ds    ORR      r3,r7,r4,LSL #29
        0x0001bfca:    270a        .'      MOVS     r7,#0xa
        0x0001bfcc:    fba39a07    ....    UMULL    r9,r10,r3,r7
        0x0001bfd0:    08e4        ..      LSRS     r4,r4,#3
        0x0001bfd2:    fb04a707    ....    MLA      r7,r4,r7,r10
        0x0001bfd6:    f04f0800    O...    MOV      r8,#0
        0x0001bfda:    fb037808    ...x    MLA      r8,r3,r8,r7
        0x0001bfde:    ebb00709    ....    SUBS     r7,r0,r9
        0x0001bfe2:    eb610108    a...    SBC      r1,r1,r8
        0x0001bfe6:    1dbf        ..      ADDS     r7,r7,#6
        0x0001bfe8:    f1410100    A...    ADC      r1,r1,#0
        0x0001bfec:    093f        ?.      LSRS     r7,r7,#4
        0x0001bfee:    ea477701    G..w    ORR      r7,r7,r1,LSL #28
        0x0001bff2:    18fb        ..      ADDS     r3,r7,r3
        0x0001bff4:    eb441411    D...    ADC      r4,r4,r1,LSR #4
        0x0001bff8:    e012        ..      B        0x1c020 ; uint64_to_str + 184
        0x0001bffa:    0843        C.      LSRS     r3,r0,#1
        0x0001bffc:    eb030390    ....    ADD      r3,r3,r0,LSR #2
        0x0001c000:    eb031313    ....    ADD      r3,r3,r3,LSR #4
        0x0001c004:    eb032313    ...#    ADD      r3,r3,r3,LSR #8
        0x0001c008:    eb034313    ...C    ADD      r3,r3,r3,LSR #16
        0x0001c00c:    08db        ..      LSRS     r3,r3,#3
        0x0001c00e:    425c        \B      RSBS     r4,r3,#0
        0x0001c010:    eb040484    ....    ADD      r4,r4,r4,LSL #2
        0x0001c014:    eb000144    ..D.    ADD      r1,r0,r4,LSL #1
        0x0001c018:    1d89        ..      ADDS     r1,r1,#6
        0x0001c01a:    eb031311    ....    ADD      r3,r3,r1,LSR #4
        0x0001c01e:    4634        4F      MOV      r4,r6
        0x0001c020:    4621        !F      MOV      r1,r4
        0x0001c022:    240a        .$      MOVS     r4,#0xa
        0x0001c024:    fba34704    ...G    UMULL    r4,r7,r3,r4
        0x0001c028:    1b00        ..      SUBS     r0,r0,r4
        0x0001c02a:    f1000030    ..0.    ADD      r0,r0,#0x30
        0x0001c02e:    f805000c    ....    STRB     r0,[r5,r12]
        0x0001c032:    4618        .F      MOV      r0,r3
        0x0001c034:    f10c0c01    ....    ADD      r12,r12,#1
        0x0001c038:    430b        .C      ORRS     r3,r3,r1
        0x0001c03a:    d19c        ..      BNE      0x1bf76 ; uint64_to_str + 14
        0x0001c03c:    4660        `F      MOV      r0,r12
        0x0001c03e:    2a00        .*      CMP      r2,#0
        0x0001c040:    bf02        ..      ITTT     EQ
        0x0001c042:    b007        ..      ADDEQ    sp,sp,#0x1c
        0x0001c044:    e8bd07f0    ....    POPEQ    {r4-r10}
        0x0001c048:    4770        pG      BXEQ     lr
        0x0001c04a:    1e47        G.      SUBS     r7,r0,#1
        0x0001c04c:    f1b00c00    ....    SUBS     r12,r0,#0
        0x0001c050:    dd18        ..      BLE      0x1c084 ; uint64_to_str + 284
        0x0001c052:    19e9        ..      ADDS     r1,r5,r7
        0x0001c054:    1c4b        K.      ADDS     r3,r1,#1
        0x0001c056:    1e51        Q.      SUBS     r1,r2,#1
        0x0001c058:    f0170f01    ....    TST      r7,#1
        0x0001c05c:    d103        ..      BNE      0x1c066 ; uint64_to_str + 254
        0x0001c05e:    f8134d01    ...M    LDRB     r4,[r3,#-1]!
        0x0001c062:    f8014f01    ...O    STRB     r4,[r1,#1]!
        0x0001c066:    ea5f046c    _.l.    ASRS     r4,r12,#1
        0x0001c06a:    d009        ..      BEQ      0x1c080 ; uint64_to_str + 280
        0x0001c06c:    f813cc01    ....    LDRB     r12,[r3,#-1]
        0x0001c070:    f881c001    ....    STRB     r12,[r1,#1]
        0x0001c074:    f813cd02    ....    LDRB     r12,[r3,#-2]!
        0x0001c078:    f801cf02    ....    STRB     r12,[r1,#2]!
        0x0001c07c:    1e64        d.      SUBS     r4,r4,#1
        0x0001c07e:    d1f5        ..      BNE      0x1c06c ; uint64_to_str + 260
        0x0001c080:    19d1        ..      ADDS     r1,r2,r7
        0x0001c082:    1c4a        J.      ADDS     r2,r1,#1
        0x0001c084:    7016        .p      STRB     r6,[r2,#0]
        0x0001c086:    b007        ..      ADD      sp,sp,#0x1c
        0x0001c088:    e8bd07f0    ....    POP      {r4-r10}
        0x0001c08c:    4770        pG      BX       lr
        0x0001c08e:    0000        ..      MOVS     r0,r0
    x$fpl$d2f
    $v0
    __aeabi_d2f
    _d2f
        0x0001c090:    f0214200    !..B    BIC      r2,r1,#0x80000000
        0x0001c094:    f1a25260    ..`R    SUB      r2,r2,#0x38000000
        0x0001c098:    f5b21f80    ....    CMP      r2,#0x100000
        0x0001c09c:    f0014300    ...C    AND      r3,r1,#0x80000000
        0x0001c0a0:    bf28        (.      IT       CS
        0x0001c0a2:    f1d26c7f    ...l    RSBSCS   r12,r2,#0xff00000
        0x0001c0a6:    d90b        ..      BLS      0x1c0c0 ; __aeabi_d2f + 48
        0x0001c0a8:    ea5f1c00    _...    LSLS     r12,r0,#4
        0x0001c0ac:    ea4302c2    C...    ORR      r2,r3,r2,LSL #3
        0x0001c0b0:    eb427050    B.Pp    ADC      r0,r2,r0,LSR #29
        0x0001c0b4:    bf18        ..      IT       NE
        0x0001c0b6:    4770        pG      BXNE     lr
        0x0001c0b8:    bf28        (.      IT       CS
        0x0001c0ba:    f0200001     ...    BICCS    r0,r0,#1
        0x0001c0be:    4770        pG      BX       lr
        0x0001c0c0:    f5b21f80    ....    CMP      r2,#0x100000
        0x0001c0c4:    bfbc        ..      ITT      LT
        0x0001c0c6:    4618        .F      MOVLT    r0,r3
        0x0001c0c8:    4770        pG      BXLT     lr
        0x0001c0ca:    ea4f0c41    O.A.    LSL      r12,r1,#1
        0x0001c0ce:    f51c1f00    ....    CMN      r12,#0x200000
        0x0001c0d2:    d202        ..      BCS      0x1c0da ; __aeabi_d2f + 74
        0x0001c0d4:    4608        .F      MOV      r0,r1
        0x0001c0d6:    f000baed    ....    B.W      __fpl_fretinf ; 0x1c6b4
        0x0001c0da:    b570        p.      PUSH     {r4-r6,lr}
        0x0001c0dc:    f000f9ea    ....    BL       __fpl_dnaninf ; 0x1c4b4
    $d
        0x0001c0e0:    89000000    ....    DCD    2298478592
    $t
        0x0001c0e4:    f7ffbff6    ....    B.W      0x1c0d4 ; __aeabi_d2f + 68
        0x0001c0e8:    f04f4000    O..@    MOV      r0,#0x80000000
        0x0001c0ec:    f5a00080    ....    SUB      r0,r0,#0x400000
        0x0001c0f0:    4770        pG      BX       lr
    x$fpl$dcmpinf
    $v0
    __fpl_dcmp_Inf
        0x0001c0f2:    1049        I.      ASRS     r1,r1,#1
        0x0001c0f4:    bf58        X.      IT       PL
        0x0001c0f6:    f1c14140    ..@A    RSBPL    r1,r1,#0xc0000000
        0x0001c0fa:    105b        [.      ASRS     r3,r3,#1
        0x0001c0fc:    bf58        X.      IT       PL
        0x0001c0fe:    f1c34340    ..@C    RSBPL    r3,r3,#0xc0000000
        0x0001c102:    428b        .B      CMP      r3,r1
        0x0001c104:    f3ef8000    ....    MRS      r0,APSR ; formerly CPSR
        0x0001c108:    4770        pG      BX       lr
        0x0001c10a:    0000        ..      MOVS     r0,r0
    x$fpl$ddiv
    $v0
    __aeabi_ddiv
    _ddiv
        0x0001c10c:    e92d41c0    -..A    PUSH     {r6-r8,lr}
        0x0001c110:    b430        0.      PUSH     {r4,r5}
    ddiv_entry
        0x0001c112:    f8dfc2a0    ....    LDR      r12,[pc,#672] ; [0x1c3b4] = 0x7ff0000
        0x0001c116:    ea3c1411    <...    BICS     r4,r12,r1,LSR #4
        0x0001c11a:    bf18        ..      IT       NE
        0x0001c11c:    ea3c1413    <...    BICSNE   r4,r12,r3,LSR #4
        0x0001c120:    f00080ec    ....    BEQ.W    0x1c2fc ; ddiv_entry + 490
        0x0001c124:    ea810503    ....    EOR      r5,r1,r3
        0x0001c128:    ea1c1411    ....    ANDS     r4,r12,r1,LSR #4
        0x0001c12c:    ea4474d5    D..t    ORR      r4,r4,r5,LSR #31
        0x0001c130:    bf18        ..      IT       NE
        0x0001c132:    ea1c1513    ....    ANDSNE   r5,r12,r3,LSR #4
        0x0001c136:    f00080c7    ....    BEQ.W    0x1c2c8 ; ddiv_entry + 438
        0x0001c13a:    eba40405    ....    SUB      r4,r4,r5
        0x0001c13e:    f04f4500    O..E    MOV      r5,#0x80000000
        0x0001c142:    ea4521c1    E..!    ORR      r1,r5,r1,LSL #11
        0x0001c146:    ea4523c3    E..#    ORR      r3,r5,r3,LSL #11
        0x0001c14a:    ea415150    A.PQ    ORR      r1,r1,r0,LSR #21
        0x0001c14e:    ea435352    C.RS    ORR      r3,r3,r2,LSR #21
        0x0001c152:    f104747f    ...t    ADD      r4,r4,#0x3fc0000
        0x0001c156:    4299        .B      CMP      r1,r3
        0x0001c158:    f5043400    ...4    ADD      r4,r4,#0x20000
        0x0001c15c:    ea4f20c0    O..     LSL      r0,r0,#11
        0x0001c160:    ea4f22c2    O.."    LSL      r2,r2,#11
        0x0001c164:    bf08        ..      IT       EQ
        0x0001c166:    4290        .B      CMPEQ    r0,r2
        0x0001c168:    f000809c    ....    BEQ.W    0x1c2a4 ; ddiv_entry + 402
        0x0001c16c:    ea4f6513    O..e    LSR      r5,r3,#24
        0x0001c170:    f20f1640    ..@.    ADR.W    r6,{pc}+0x144 ; 0x1c2b4
        0x0001c174:    5d76        v]      LDRB     r6,[r6,r5]
        0x0001c176:    ea4f4513    O..E    LSR      r5,r3,#16
        0x0001c17a:    fb06f705    ....    MUL      r7,r6,r5
        0x0001c17e:    f1c77780    ...w    RSB      r7,r7,#0x1000000
        0x0001c182:    fb06f707    ....    MUL      r7,r6,r7
        0x0001c186:    ea4f37d7    O..7    LSR      r7,r7,#15
        0x0001c18a:    fba76803    ...h    UMULL    r6,r8,r7,r3
        0x0001c18e:    4276        vB      RSBS     r6,r6,#0
        0x0001c190:    f5c83880    ...8    RSB      r8,r8,#0x10000
        0x0001c194:    fba7ce06    ....    UMULL    r12,lr,r7,r6
        0x0001c198:    bf38        8.      IT       CC
        0x0001c19a:    f1a80801    ....    SUBCC    r8,r8,#1
        0x0001c19e:    fb07e608    ....    MLA      r6,r7,r8,lr
        0x0001c1a2:    f04f0e00    O...    MOV      lr,#0
        0x0001c1a6:    fba68c02    ....    UMULL    r8,r12,r6,r2
        0x0001c1aa:    fbe6ce03    ....    UMLAL    r12,lr,r6,r3
        0x0001c1ae:    f1dc0c00    ....    RSBS     r12,r12,#0
        0x0001c1b2:    f1ce4e00    ...N    RSB      lr,lr,#0x80000000
        0x0001c1b6:    bf38        8.      IT       CC
        0x0001c1b8:    f1ae0e01    ....    SUBCC    lr,lr,#1
        0x0001c1bc:    fba6580c    ...X    UMULL    r5,r8,r6,r12
        0x0001c1c0:    f04f0700    O...    MOV      r7,#0
        0x0001c1c4:    f04f0500    O...    MOV      r5,#0
        0x0001c1c8:    fbe6870e    ....    UMLAL    r8,r7,r6,lr
        0x0001c1cc:    fba1c608    ....    UMULL    r12,r6,r1,r8
        0x0001c1d0:    fba0ce07    ....    UMULL    r12,lr,r0,r7
        0x0001c1d4:    eb16060e    ....    ADDS     r6,r6,lr
        0x0001c1d8:    f1450500    E...    ADC      r5,r5,#0
        0x0001c1dc:    fbe16507    ...e    UMLAL    r6,r5,r1,r7
        0x0001c1e0:    f1154ee0    ...N    ADDS     lr,r5,#0x70000000
        0x0001c1e4:    bf7e        ~.      ITTT     VC
        0x0001c1e6:    f5a43480    ...4    SUBVC    r4,r4,#0x10000
        0x0001c1ea:    ea5f0646    _.F.    LSLSVC   r6,r6,#1
        0x0001c1ee:    416d        mA      ADCVC    r5,r5,r5
        0x0001c1f0:    f1160780    ....    ADDS     r7,r6,#0x80
        0x0001c1f4:    f1450500    E...    ADC      r5,r5,#0
        0x0001c1f8:    ea4f2717    O..'    LSR      r7,r7,#8
        0x0001c1fc:    ea4f6606    O..f    LSL      r6,r6,#24
        0x0001c200:    ea476705    G..g    ORR      r7,r7,r5,LSL #24
        0x0001c204:    f1a646de    ...F    SUB      r6,r6,#0x6f000000
        0x0001c208:    f1b65f80    ..._    CMP      r6,#0x10000000
        0x0001c20c:    ea4f2515    O..%    LSR      r5,r5,#8
        0x0001c210:    d91f        ..      BLS      0x1c252 ; ddiv_entry + 320
        0x0001c212:    4638        8F      MOV      r0,r7
        0x0001c214:    f0240c01    $...    BIC      r12,r4,#1
        0x0001c218:    eb0571c4    ...q    ADD      r1,r5,r4,LSL #31
        0x0001c21c:    f1bc6ffe    ...o    CMP      r12,#0x7f00000
        0x0001c220:    eb01110c    ....    ADD      r1,r1,r12,LSL #4
        0x0001c224:    d802        ..      BHI      0x1c22c ; ddiv_entry + 282
        0x0001c226:    bcf0        ..      POP      {r4-r7}
        0x0001c228:    e8bd8100    ....    POP      {r8,pc}
        0x0001c22c:    4224        $B      TST      r4,r4
        0x0001c22e:    bf5c        \.      ITT      PL
        0x0001c230:    f5011e80    ....    ADDPL    lr,r1,#0x100000
        0x0001c234:    ea9e7fc4    ....    TEQPL    lr,r4,LSL #31
        0x0001c238:    d402        ..      BMI      0x1c240 ; ddiv_entry + 302
        0x0001c23a:    bcf0        ..      POP      {r4-r7}
        0x0001c23c:    e8bd8100    ....    POP      {r8,pc}
        0x0001c240:    4224        $B      TST      r4,r4
        0x0001c242:    d438        8.      BMI      0x1c2b6 ; ddiv_entry + 420
        0x0001c244:    bcf0        ..      POP      {r4-r7}
        0x0001c246:    f1a141c0    ...A    SUB      r1,r1,#0x60000000
        0x0001c24a:    e8bd4100    ...A    POP      {r8,lr}
        0x0001c24e:    f000b97f    ....    B.W      __fpl_dretinf ; 0x1c550
        0x0001c252:    ea4f22d2    O.."    LSR      r2,r2,#11
        0x0001c256:    ea425243    B.CR    ORR      r2,r2,r3,LSL #21
        0x0001c25a:    ea4f23d3    O..#    LSR      r3,r3,#11
        0x0001c25e:    fba78602    ....    UMULL    r8,r6,r7,r2
        0x0001c262:    ea4f20d0    O..     LSR      r0,r0,#11
        0x0001c266:    ea405041    @.AP    ORR      r0,r0,r1,LSL #21
        0x0001c26a:    fb076603    ...f    MLA      r6,r7,r3,r6
        0x0001c26e:    ea1e0f0e    ....    TST      lr,lr
        0x0001c272:    ea4f21d1    O..!    LSR      r1,r1,#11
        0x0001c276:    fb056602    ...f    MLA      r6,r5,r2,r6
        0x0001c27a:    bf58        X.      IT       PL
        0x0001c27c:    eba65600    ...V    SUBPL    r6,r6,r0,LSL #20
        0x0001c280:    ebb65600    ...V    SUBS     r6,r6,r0,LSL #20
        0x0001c284:    ea4f0e52    O.R.    LSR      lr,r2,#1
        0x0001c288:    ea4e7ec3    N..~    ORR      lr,lr,r3,LSL #31
        0x0001c28c:    eb180e0e    ....    ADDS     lr,r8,lr
        0x0001c290:    eb560e53    V.S.    ADCS     lr,r6,r3,LSR #1
        0x0001c294:    d5bd        ..      BPL      0x1c212 ; ddiv_entry + 256
        0x0001c296:    eb180802    ....    ADDS     r8,r8,r2
        0x0001c29a:    415e        ^A      ADCS     r6,r6,r3
        0x0001c29c:    1c7f        ..      ADDS     r7,r7,#1
        0x0001c29e:    f1550500    U...    ADCS     r5,r5,#0
        0x0001c2a2:    e7b6        ..      B        0x1c212 ; ddiv_entry + 256
        0x0001c2a4:    f44f1580    O...    MOV      r5,#0x100000
        0x0001c2a8:    f04f0700    O...    MOV      r7,#0
        0x0001c2ac:    f04f0600    O...    MOV      r6,#0
        0x0001c2b0:    f04f0800    O...    MOV      r8,#0
        0x0001c2b4:    e7ad        ..      B        0x1c212 ; ddiv_entry + 256
        0x0001c2b6:    bcf0        ..      POP      {r4-r7}
        0x0001c2b8:    f04f0000    O...    MOV      r0,#0
        0x0001c2bc:    f10141c0    ...A    ADD      r1,r1,#0x60000000
        0x0001c2c0:    f0014100    ...A    AND      r1,r1,#0x80000000
        0x0001c2c4:    e8bd8100    ....    POP      {r8,pc}
        0x0001c2c8:    ea111f0c    ....    TST      r1,r12,LSL #4
        0x0001c2cc:    ea0c1513    ....    AND      r5,r12,r3,LSR #4
        0x0001c2d0:    d000        ..      BEQ      0x1c2d4 ; ddiv_entry + 450
        0x0001c2d2:    e00c        ..      B        0x1c2ee ; ddiv_entry + 476
        0x0001c2d4:    ea131f0c    ....    TST      r3,r12,LSL #4
        0x0001c2d8:    f0008025    ..%.    BEQ.W    0x1c326 ; ddiv_entry + 532
        0x0001c2dc:    f04f0000    O...    MOV      r0,#0
        0x0001c2e0:    bcf0        ..      POP      {r4-r7}
        0x0001c2e2:    ea810103    ....    EOR      r1,r1,r3
        0x0001c2e6:    f0014100    ...A    AND      r1,r1,#0x80000000
        0x0001c2ea:    e8bd8100    ....    POP      {r8,pc}
        0x0001c2ee:    bcf0        ..      POP      {r4-r7}
        0x0001c2f0:    e8bd4100    ...A    POP      {r8,lr}
        0x0001c2f4:    ea810103    ....    EOR      r1,r1,r3
        0x0001c2f8:    f000b92a    ..*.    B.W      __fpl_dretinf ; 0x1c550
        0x0001c2fc:    bcf0        ..      POP      {r4-r7}
        0x0001c2fe:    e8bd4100    ...A    POP      {r8,lr}
        0x0001c302:    b570        p.      PUSH     {r4-r6,lr}
        0x0001c304:    f000f8d6    ....    BL       __fpl_dnaninf ; 0x1c4b4
    $d
        0x0001c308:    3efc7e09    .~.>    DCD    1056734729
    $t
        0x0001c30c:    f000b807    ....    B.W      0x1c31e ; ddiv_entry + 524
        0x0001c310:    ea810103    ....    EOR      r1,r1,r3
        0x0001c314:    f04f0000    O...    MOV      r0,#0
        0x0001c318:    f0014100    ...A    AND      r1,r1,#0x80000000
        0x0001c31c:    4770        pG      BX       lr
        0x0001c31e:    ea810103    ....    EOR      r1,r1,r3
        0x0001c322:    f000b915    ....    B.W      __fpl_dretinf ; 0x1c550
        0x0001c326:    bcf0        ..      POP      {r4-r7}
        0x0001c328:    e8bd4100    ...A    POP      {r8,lr}
        0x0001c32c:    f04f0000    O...    MOV      r0,#0
        0x0001c330:    4921        !I      LDR      r1,[pc,#132] ; [0x1c3b8] = 0x7ff80000
        0x0001c332:    4770        pG      BX       lr
    $d
        0x0001c334:    f9fbfdff    ....    DCD    4194041343
        0x0001c338:    f2f4f5f7    ....    DCD    4076140023
        0x0001c33c:    ebedeef0    ....    DCD    3958238960
        0x0001c340:    e4e6e8e9    ....    DCD    3840338153
        0x0001c344:    dee0e1e3    ....    DCD    3739279843
        0x0001c348:    d8dadbdd    ....    DCD    3638221789
        0x0001c34c:    d3d4d5d7    ....    DCD    3553940951
        0x0001c350:    cdcfd0d1    ....    DCD    3452948689
        0x0001c354:    c8cacbcc    ....    DCD    3368733644
        0x0001c358:    c4c5c6c7    ....    DCD    3301295815
        0x0001c35c:    bfc0c1c2    ....    DCD    3217080770
        0x0001c360:    bbbcbdbe    ....    DCD    3149708734
        0x0001c364:    b7b8b9ba    ....    DCD    3082336698
        0x0001c368:    b3b4b5b6    ....    DCD    3014964662
        0x0001c36c:    afb0b1b2    ....    DCD    2947592626
        0x0001c370:    abacadae    ....    DCD    2880220590
        0x0001c374:    a8a8a9aa    ....    DCD    2829625770
        0x0001c378:    a4a5a6a7    ....    DCD    2762319527
        0x0001c37c:    a1a2a3a3    ....    DCD    2711790499
        0x0001c380:    9e9f9fa0    ....    DCD    2661261216
        0x0001c384:    9b9c9c9d    ....    DCD    2610732189
        0x0001c388:    9899999a    ....    DCD    2560203162
        0x0001c38c:    95969797    ....    DCD    2509674391
        0x0001c390:    93939495    ....    DCD    2475922581
        0x0001c394:    90919192    ....    DCD    2425459090
        0x0001c398:    8e8e8f8f    ....    DCD    2391707535
        0x0001c39c:    8b8c8c8d    ....    DCD    2341244045
        0x0001c3a0:    89898a8b    ....    DCD    2307492491
        0x0001c3a4:    87878888    ....    DCD    2273806472
        0x0001c3a8:    84858586    ....    DCD    2223342982
        0x0001c3ac:    82838384    ....    DCD    2189656964
        0x0001c3b0:    80818182    ....    DCD    2155970946
        0x0001c3b4:    07ff0000    ....    DCD    134152192
        0x0001c3b8:    7ff80000    ....    DCD    2146959360
    $t
    x$fpl$dfixu
    $v0
    __aeabi_d2uiz
    _dfixu
        0x0001c3bc:    ea4f5311    O..S    LSR      r3,r1,#20
        0x0001c3c0:    f5a36380    ...c    SUB      r3,r3,#0x400
        0x0001c3c4:    f1d3031e    ....    RSBS     r3,r3,#0x1e
        0x0001c3c8:    bfa8        ..      IT       GE
        0x0001c3ca:    f1d30c20    .. .    RSBSGE   r12,r3,#0x20
        0x0001c3ce:    db08        ..      BLT      0x1c3e2 ; __aeabi_d2uiz + 38
        0x0001c3d0:    f04f4200    O..B    MOV      r2,#0x80000000
        0x0001c3d4:    ea4222c1    B.."    ORR      r2,r2,r1,LSL #11
        0x0001c3d8:    ea525250    R.PR    ORRS     r2,r2,r0,LSR #21
        0x0001c3dc:    fa32f003    2...    LSRS     r0,r2,r3
        0x0001c3e0:    4770        pG      BX       lr
        0x0001c3e2:    4209        .B      TST      r1,r1
        0x0001c3e4:    d40b        ..      BMI      0x1c3fe ; __aeabi_d2uiz + 66
        0x0001c3e6:    2b10        .+      CMP      r3,#0x10
        0x0001c3e8:    bfc4        ..      ITT      GT
        0x0001c3ea:    2000        .       MOVGT    r0,#0
        0x0001c3ec:    4770        pG      BXGT     lr
        0x0001c3ee:    f5037c78    ..x|    ADD      r12,r3,#0x3e0
        0x0001c3f2:    f1bc3fff    ...?    CMP      r12,#0xffffffff
        0x0001c3f6:    d005        ..      BEQ      0x1c404 ; __aeabi_d2uiz + 72
        0x0001c3f8:    f04f30ff    O..0    MOV      r0,#0xffffffff
        0x0001c3fc:    4770        pG      BX       lr
        0x0001c3fe:    f04f0000    O...    MOV      r0,#0
        0x0001c402:    4770        pG      BX       lr
        0x0001c404:    b570        p.      PUSH     {r4-r6,lr}
        0x0001c406:    f000f855    ..U.    BL       __fpl_dnaninf ; 0x1c4b4
        0x0001c40a:    bf00        ..      NOP      
    $d
        0x0001c40c:    80249249    I.$.    DCD    2149880393
    $t
        0x0001c410:    2000        .       MOVS     r0,#0
        0x0001c412:    4770        pG      BX       lr
        0x0001c414:    e7f0        ..      B        0x1c3f8 ; __aeabi_d2uiz + 60
    x$fpl$dfltu
    $v0
    __aeabi_ui2d
    _dfltu
        0x0001c416:    fab0f380    ....    CLZ      r3,r0
        0x0001c41a:    fa10f103    ....    LSLS     r1,r0,r3
        0x0001c41e:    d00a        ..      BEQ      0x1c436 ; __aeabi_ui2d + 32
        0x0001c420:    f1c3031d    ....    RSB      r3,r3,#0x1d
        0x0001c424:    f5036380    ...c    ADD      r3,r3,#0x400
        0x0001c428:    ea4f5041    O.AP    LSL      r0,r1,#21
        0x0001c42c:    ea4f5203    O..R    LSL      r2,r3,#20
        0x0001c430:    eb0221d1    ...!    ADD      r1,r2,r1,LSR #11
        0x0001c434:    4770        pG      BX       lr
        0x0001c436:    f04f0000    O...    MOV      r0,#0
        0x0001c43a:    4770        pG      BX       lr
    x$fpl$dleqf
    $v0
    __aeabi_cdcmple
    _dcmple
        0x0001c43c:    ea510c03    Q...    ORRS     r12,r1,r3
        0x0001c440:    d417        ..      BMI      0x1c472 ; __aeabi_cdcmple + 54
        0x0001c442:    f51c1f80    ....    CMN      r12,#0x100000
        0x0001c446:    bf58        X.      IT       PL
        0x0001c448:    f5bc1f80    ....    CMPPL    r12,#0x100000
        0x0001c44c:    f1008006    ....    BMI.W    0x1c45c ; __aeabi_cdcmple + 32
        0x0001c450:    4299        .B      CMP      r1,r3
        0x0001c452:    bf18        ..      IT       NE
        0x0001c454:    4770        pG      BXNE     lr
        0x0001c456:    bf08        ..      IT       EQ
        0x0001c458:    4290        .B      CMPEQ    r0,r2
        0x0001c45a:    4770        pG      BX       lr
        0x0001c45c:    d707        ..      BVC      0x1c46e ; __aeabi_cdcmple + 50
        0x0001c45e:    f5111f80    ....    CMN      r1,#0x100000
        0x0001c462:    bf58        X.      IT       PL
        0x0001c464:    f5131f80    ....    CMNPL    r3,#0x100000
        0x0001c468:    d419        ..      BMI      __fpl_dcmple_InfNaN ; 0x1c49e
        0x0001c46a:    4299        .B      CMP      r1,r3
        0x0001c46c:    4770        pG      BX       lr
        0x0001c46e:    4289        .B      CMP      r1,r1
        0x0001c470:    4770        pG      BX       lr
        0x0001c472:    f51c1f80    ....    CMN      r12,#0x100000
        0x0001c476:    d508        ..      BPL      0x1c48a ; __aeabi_cdcmple + 78
        0x0001c478:    f5bc1f80    ....    CMP      r12,#0x100000
        0x0001c47c:    d5f7        ..      BPL      0x1c46e ; __aeabi_cdcmple + 50
        0x0001c47e:    428b        .B      CMP      r3,r1
        0x0001c480:    bf18        ..      IT       NE
        0x0001c482:    4770        pG      BXNE     lr
        0x0001c484:    bf08        ..      IT       EQ
        0x0001c486:    4282        .B      CMPEQ    r2,r0
        0x0001c488:    4770        pG      BX       lr
        0x0001c48a:    f44f1c00    O...    MOV      r12,#0x200000
        0x0001c48e:    eb1c0f41    ..A.    CMN      r12,r1,LSL #1
        0x0001c492:    bf38        8.      IT       CC
        0x0001c494:    eb1c0f43    ..C.    CMNCC    r12,r3,LSL #1
        0x0001c498:    d201        ..      BCS      __fpl_dcmple_InfNaN ; 0x1c49e
        0x0001c49a:    428b        .B      CMP      r3,r1
        0x0001c49c:    4770        pG      BX       lr
    __fpl_dcmple_InfNaN
        0x0001c49e:    b570        p.      PUSH     {r4-r6,lr}
        0x0001c4a0:    f000f808    ....    BL       __fpl_dnaninf ; 0x1c4b4
    $d
        0x0001c4a4:    00492492    .$I.    DCD    4793490
    $t
        0x0001c4a8:    f04f5100    O..Q    MOV      r1,#0x20000000
        0x0001c4ac:    f04f5380    O..S    MOV      r3,#0x10000000
        0x0001c4b0:    f7ffbe1f    ....    B.W      __fpl_dcmp_Inf ; 0x1c0f2
    x$fpl$dnaninf
    $v0
    __fpl_dnaninf
        0x0001c4b4:    f10e0e02    ....    ADD      lr,lr,#2
        0x0001c4b8:    f02e0e03    ....    BIC      lr,lr,#3
        0x0001c4bc:    f85e6b04    ^..k    LDR      r6,[lr],#4
        0x0001c4c0:    4236        6B      TST      r6,r6
        0x0001c4c2:    d405        ..      BMI      0x1c4d0 ; __fpl_dnaninf + 28
        0x0001c4c4:    2a01        .*      CMP      r2,#1
        0x0001c4c6:    eb430503    C...    ADC      r5,r3,r3
        0x0001c4ca:    f5151f00    ....    CMN      r5,#0x200000
        0x0001c4ce:    d812        ..      BHI      0x1c4f6 ; __fpl_dnaninf + 66
        0x0001c4d0:    2801        .(      CMP      r0,#1
        0x0001c4d2:    eb410c01    A...    ADC      r12,r1,r1
        0x0001c4d6:    f51c1f00    ....    CMN      r12,#0x200000
        0x0001c4da:    d80c        ..      BHI      0x1c4f6 ; __fpl_dnaninf + 66
        0x0001c4dc:    d10e        ..      BNE      0x1c4fc ; __fpl_dnaninf + 72
        0x0001c4de:    ea4f7cd1    O..|    LSR      r12,r1,#31
        0x0001c4e2:    f5151f00    ....    CMN      r5,#0x200000
        0x0001c4e6:    eb0c0c4c    ..L.    ADD      r12,r12,r12,LSL #1
        0x0001c4ea:    f10c0c02    ....    ADD      r12,r12,#2
        0x0001c4ee:    bf08        ..      IT       EQ
        0x0001c4f0:    eb4c7cd3    L..|    ADCEQ    r12,r12,r3,LSR #31
        0x0001c4f4:    e004        ..      B        0x1c500 ; __fpl_dnaninf + 76
        0x0001c4f6:    f04f0c08    O...    MOV      r12,#8
        0x0001c4fa:    e001        ..      B        0x1c500 ; __fpl_dnaninf + 76
        0x0001c4fc:    ea4f7cd3    O..|    LSR      r12,r3,#31
        0x0001c500:    eb0c054c    ..L.    ADD      r5,r12,r12,LSL #1
        0x0001c504:    fa26f605    &...    LSR      r6,r6,r5
        0x0001c508:    f0060607    ....    AND      r6,r6,#7
        0x0001c50c:    f1b60c04    ....    SUBS     r12,r6,#4
        0x0001c510:    d206        ..      BCS      0x1c520 ; __fpl_dnaninf + 108
        0x0001c512:    eb0e0c86    ....    ADD      r12,lr,r6,LSL #2
        0x0001c516:    e8bd4070    ..p@    POP      {r4-r6,lr}
        0x0001c51a:    f04c0c01    L...    ORR      r12,r12,#1
        0x0001c51e:    4760        `G      BX       r12
        0x0001c520:    e8dff00c    ....    TBB      [pc,r12]
    $d
        0x0001c524:    02020b09    ....    DCD    33688329
    $t
        0x0001c528:    f04f4100    O..A    MOV      r1,#0x80000000
        0x0001c52c:    f04f0000    O...    MOV      r0,#0
        0x0001c530:    f5a12100    ...!    SUB      r1,r1,#0x80000
        0x0001c534:    bd70        p.      POP      {r4-r6,pc}
        0x0001c536:    4619        .F      MOV      r1,r3
        0x0001c538:    4610        .F      MOV      r0,r2
        0x0001c53a:    2801        .(      CMP      r0,#1
        0x0001c53c:    eb510401    Q...    ADCS     r4,r1,r1
        0x0001c540:    bf18        ..      IT       NE
        0x0001c542:    f5d41400    ....    RSBSNE   r4,r4,#0x200000
        0x0001c546:    bf84        ..      ITT      HI
        0x0001c548:    2000        .       MOVHI    r0,#0
        0x0001c54a:    f0014100    ...A    ANDHI    r1,r1,#0x80000000
        0x0001c54e:    bd70        p.      POP      {r4-r6,pc}
    x$fpl$dretinf
    $v0
    __fpl_dretinf
        0x0001c550:    0808        ..      LSRS     r0,r1,#32
        0x0001c552:    f5a01100    ....    SUB      r1,r0,#0x200000
        0x0001c556:    ea4f0131    O.1.    RRX      r1,r1
        0x0001c55a:    4770        pG      BX       lr
    x$fpl$drleqf
    $v0
    __aeabi_cdrcmple
    _drcmple
        0x0001c55c:    ea530c01    S...    ORRS     r12,r3,r1
        0x0001c560:    d417        ..      BMI      0x1c592 ; __aeabi_cdrcmple + 54
        0x0001c562:    f51c1f80    ....    CMN      r12,#0x100000
        0x0001c566:    bf58        X.      IT       PL
        0x0001c568:    f5bc1f80    ....    CMPPL    r12,#0x100000
        0x0001c56c:    f1008006    ....    BMI.W    0x1c57c ; __aeabi_cdrcmple + 32
        0x0001c570:    428b        .B      CMP      r3,r1
        0x0001c572:    bf18        ..      IT       NE
        0x0001c574:    4770        pG      BXNE     lr
        0x0001c576:    bf08        ..      IT       EQ
        0x0001c578:    4282        .B      CMPEQ    r2,r0
        0x0001c57a:    4770        pG      BX       lr
        0x0001c57c:    d707        ..      BVC      0x1c58e ; __aeabi_cdrcmple + 50
        0x0001c57e:    f5131f80    ....    CMN      r3,#0x100000
        0x0001c582:    bf58        X.      IT       PL
        0x0001c584:    f5111f80    ....    CMNPL    r1,#0x100000
        0x0001c588:    d419        ..      BMI      0x1c5be ; __aeabi_cdrcmple + 98
        0x0001c58a:    428b        .B      CMP      r3,r1
        0x0001c58c:    4770        pG      BX       lr
        0x0001c58e:    429b        .B      CMP      r3,r3
        0x0001c590:    4770        pG      BX       lr
        0x0001c592:    f51c1f80    ....    CMN      r12,#0x100000
        0x0001c596:    d508        ..      BPL      0x1c5aa ; __aeabi_cdrcmple + 78
        0x0001c598:    f5bc1f80    ....    CMP      r12,#0x100000
        0x0001c59c:    d5f7        ..      BPL      0x1c58e ; __aeabi_cdrcmple + 50
        0x0001c59e:    4299        .B      CMP      r1,r3
        0x0001c5a0:    bf18        ..      IT       NE
        0x0001c5a2:    4770        pG      BXNE     lr
        0x0001c5a4:    bf08        ..      IT       EQ
        0x0001c5a6:    4290        .B      CMPEQ    r0,r2
        0x0001c5a8:    4770        pG      BX       lr
        0x0001c5aa:    f44f1c00    O...    MOV      r12,#0x200000
        0x0001c5ae:    eb1c0f43    ..C.    CMN      r12,r3,LSL #1
        0x0001c5b2:    bf38        8.      IT       CC
        0x0001c5b4:    eb1c0f41    ..A.    CMNCC    r12,r1,LSL #1
        0x0001c5b8:    d201        ..      BCS      0x1c5be ; __aeabi_cdrcmple + 98
        0x0001c5ba:    4299        .B      CMP      r1,r3
        0x0001c5bc:    4770        pG      BX       lr
        0x0001c5be:    b40f        ..      PUSH     {r0-r3}
        0x0001c5c0:    bc0c        ..      POP      {r2,r3}
        0x0001c5c2:    bc03        ..      POP      {r0,r1}
        0x0001c5c4:    f7ffbf6b    ..k.    B.W      __fpl_dcmple_InfNaN ; 0x1c49e
    x$fpl$f2d
    $v0
    __aeabi_f2d
    _f2d
        0x0001c5c8:    0043        C.      LSLS     r3,r0,#1
        0x0001c5ca:    ea4f0cd3    O...    LSR      r12,r3,#3
        0x0001c5ce:    ea4f0c3c    O.<.    RRX      r12,r12
        0x0001c5d2:    4043        C@      EORS     r3,r3,r0
        0x0001c5d4:    bf1f        ..      ITTTT    NE
        0x0001c5d6:    0740        @.      LSLNE    r0,r0,#29
        0x0001c5d8:    f10c5160    ..`Q    ADDNE    r1,r12,#0x38000000
        0x0001c5dc:    f0134ffe    ...O    TSTNE    r3,#0x7f000000
        0x0001c5e0:    4770        pG      BXNE     lr
        0x0001c5e2:    f01c6f00    ...o    TST      r12,#0x8000000
        0x0001c5e6:    d103        ..      BNE      0x1c5f0 ; __aeabi_f2d + 40
        0x0001c5e8:    2000        .       MOVS     r0,#0
        0x0001c5ea:    f00c4100    ...A    AND      r1,r12,#0x80000000
        0x0001c5ee:    4770        pG      BX       lr
        0x0001c5f0:    f00c4300    ...C    AND      r3,r12,#0x80000000
        0x0001c5f4:    ea437050    C.Pp    ORR      r0,r3,r0,LSR #29
        0x0001c5f8:    b510        ..      PUSH     {r4,lr}
        0x0001c5fa:    ea4000cc    @...    ORR      r0,r0,r12,LSL #3
        0x0001c5fe:    f000f80e    ....    BL       __fpl_fnaninf ; 0x1c61e
        0x0001c602:    bf00        ..      NOP      
    $d
        0x0001c604:    92000000    ....    DCD    2449473536
    $t
        0x0001c608:    ea4f0100    O...    MOV.W    r1,r0
        0x0001c60c:    f7ffbfa0    ....    B.W      __fpl_dretinf ; 0x1c550
        0x0001c610:    f04f4100    O..A    MOV      r1,#0x80000000
        0x0001c614:    f04f0000    O...    MOV      r0,#0
        0x0001c618:    f5a12100    ...!    SUB      r1,r1,#0x80000
        0x0001c61c:    4770        pG      BX       lr
    x$fpl$fnaninf
    $v0
    __fpl_fnaninf
        0x0001c61e:    f10e0e02    ....    ADD      lr,lr,#2
        0x0001c622:    f02e0e03    ....    BIC      lr,lr,#3
        0x0001c626:    f85e4b04    ^..K    LDR      r4,[lr],#4
        0x0001c62a:    4224        $B      TST      r4,r4
        0x0001c62c:    d404        ..      BMI      0x1c638 ; __fpl_fnaninf + 26
        0x0001c62e:    ea4f0241    O.A.    LSL      r2,r1,#1
        0x0001c632:    f1b24f7f    ...O    CMP      r2,#0xff000000
        0x0001c636:    d811        ..      BHI      0x1c65c ; __fpl_fnaninf + 62
        0x0001c638:    ea4f0340    O.@.    LSL      r3,r0,#1
        0x0001c63c:    f1b34f7f    ...O    CMP      r3,#0xff000000
        0x0001c640:    d80c        ..      BHI      0x1c65c ; __fpl_fnaninf + 62
        0x0001c642:    d10e        ..      BNE      0x1c662 ; __fpl_fnaninf + 68
        0x0001c644:    ea4f7cd0    O..|    LSR      r12,r0,#31
        0x0001c648:    f1b24f7f    ...O    CMP      r2,#0xff000000
        0x0001c64c:    eb0c0c4c    ..L.    ADD      r12,r12,r12,LSL #1
        0x0001c650:    f10c0c02    ....    ADD      r12,r12,#2
        0x0001c654:    bf08        ..      IT       EQ
        0x0001c656:    eb4c7cd1    L..|    ADCEQ    r12,r12,r1,LSR #31
        0x0001c65a:    e004        ..      B        0x1c666 ; __fpl_fnaninf + 72
        0x0001c65c:    f04f0c08    O...    MOV      r12,#8
        0x0001c660:    e001        ..      B        0x1c666 ; __fpl_fnaninf + 72
        0x0001c662:    ea4f7cd1    O..|    LSR      r12,r1,#31
        0x0001c666:    eb0c034c    ..L.    ADD      r3,r12,r12,LSL #1
        0x0001c66a:    fa24f403    $...    LSR      r4,r4,r3
        0x0001c66e:    f0040407    ....    AND      r4,r4,#7
        0x0001c672:    f1b40c04    ....    SUBS     r12,r4,#4
        0x0001c676:    d206        ..      BCS      0x1c686 ; __fpl_fnaninf + 104
        0x0001c678:    eb0e0c84    ....    ADD      r12,lr,r4,LSL #2
        0x0001c67c:    e8bd4010    ...@    POP      {r4,lr}
        0x0001c680:    f04c0c01    L...    ORR      r12,r12,#1
        0x0001c684:    4760        `G      BX       r12
        0x0001c686:    e8dff00c    ....    TBB      [pc,r12]
    $d
        0x0001c68a:    0807        ..      DCW    2055
        0x0001c68c:    0202        ..      DCW    514
    $t
        0x0001c68e:    f04f4000    O..@    MOV      r0,#0x80000000
        0x0001c692:    f5a00080    ....    SUB      r0,r0,#0x400000
        0x0001c696:    bd10        ..      POP      {r4,pc}
        0x0001c698:    4608        .F      MOV      r0,r1
        0x0001c69a:    0042        B.      LSLS     r2,r0,#1
        0x0001c69c:    bf18        ..      IT       NE
        0x0001c69e:    f1d27280    ...r    RSBSNE   r2,r2,#0x1000000
        0x0001c6a2:    bf88        ..      IT       HI
        0x0001c6a4:    f0004000    ...@    ANDHI    r0,r0,#0x80000000
        0x0001c6a8:    bd10        ..      POP      {r4,pc}
    x$fpl$fpinit
    $v0
    _fp_init
        0x0001c6aa:    f04f7040    O.@p    MOV      r0,#0x3000000
        0x0001c6ae:    eee10a10    ....    VMSR     FPSCR,r0
    __fplib_config_fpu_vfp
    __fplib_config_pureend_doubles
        0x0001c6b2:    4770        pG      BX       lr
    x$fpl$fretinf
    $v0
    __fpl_fretinf
        0x0001c6b4:    21ff        .!      MOVS     r1,#0xff
        0x0001c6b6:    ea4150d0    A..P    ORR      r0,r1,r0,LSR #23
        0x0001c6ba:    05c0        ..      LSLS     r0,r0,#23
        0x0001c6bc:    4770        pG      BX       lr
    x$fpl$usenofp
    __I$use$fp
        0x0001c6be:    0000        ..      MOVS     r0,r0
    $d.realdata
    .constdata
    __tagsym$$used
    ui32MCUAllowed
        0x0001c6c0:    00000000    ....    DCD    0
        0x0001c6c4:    00000000    ....    DCD    0
        0x0001c6c8:    00000000    ....    DCD    0
        0x0001c6cc:    00000000    ....    DCD    0
        0x0001c6d0:    00000000    ....    DCD    0
    __tagsym$$used
    ui32DSP0Allowed
        0x0001c6d4:    00000000    ....    DCD    0
        0x0001c6d8:    00000000    ....    DCD    0
        0x0001c6dc:    00000000    ....    DCD    0
        0x0001c6e0:    00000000    ....    DCD    0
        0x0001c6e4:    00000000    ....    DCD    0
    __tagsym$$used
    ui32DSP1Allowed
        0x0001c6e8:    00000000    ....    DCD    0
        0x0001c6ec:    00000000    ....    DCD    0
        0x0001c6f0:    00000000    ....    DCD    0
        0x0001c6f4:    00000000    ....    DCD    0
        0x0001c6f8:    00000000    ....    DCD    0
    __tagsym$$used
    ui32SharedAccess
        0x0001c6fc:    00000000    ....    DCD    0
        0x0001c700:    00000000    ....    DCD    0
        0x0001c704:    00000000    ....    DCD    0
        0x0001c708:    00000000    ....    DCD    0
        0x0001c70c:    00000000    ....    DCD    0
    __tagsym$$used
    sGlobalAccess
        0x0001c710:    0001c6fc    ....    DCD    116476
        0x0001c714:    0001c6c0    ....    DCD    116416
        0x0001c718:    0001c6d4    ....    DCD    116436
        0x0001c71c:    0001c6e8    ....    DCD    116456
        0x0001c720:    10001f04    ....    DCD    268443396
        0x0001c724:    10001f18    ....    DCD    268443416
        0x0001c728:    10001f2c    ,...    DCD    268443436
    .constdata
        0x0001c72c:    01010001    ....    DCD    16842753
        0x0001c730:    00000101    ....    DCD    257
    .constdata
    g_sBspUartConfig
        0x0001c734:    0001c200    ....    DCD    115200
        0x0001c738:    00000203    ....    DCD    515
        0x0001c73c:    02020000    ....    DCD    33685504
        0x0001c740:    00000000    ....    DCD    0
        0x0001c744:    00000000    ....    DCD    0
        0x0001c748:    00000000    ....    DCD    0
        0x0001c74c:    00000000    ....    DCD    0
        0x0001c750:    ffffffff    ....    DCD    4294967295
        0x0001c754:    00000000    ....    DCD    0
        0x0001c758:    00000000    ....    DCD    0
        0x0001c75c:    00000000    ....    DCD    0
    .constdata
    am_hal_gpio_pincfg_output
        0x0001c760:    00000183    ....    DCD    387
    .constdata
    am_hal_gpio_pincfg_tristate
        0x0001c764:    00000383    ....    DCD    899
    .constdata
    am_hal_gpio_pincfg_opendrain
        0x0001c768:    00000283    ....    DCD    643
    .constdata
    am_hal_gpio_pincfg_disabled
        0x0001c76c:    00000003    ....    DCD    3
    .constdata
    g_ui32DSpintbl
        0x0001c770:    8fc007e0    ....    DCD    2411726816
        0x0001c774:    e3fbffff    ....    DCD    3824943103
        0x0001c778:    01ffffff    ....    DCD    33554431
        0x0001c77c:    00000000    ....    DCD    0
    .constdata
    g_DefaultMcuMemCfg
        0x0001c780:    07070102    ....    DCD    117899522
        0x0001c784:    0001        ..      DCW    1
    g_DefaultSRAMCfg
        0x0001c786:    0003        ..      DCW    3
        0x0001c788:    03000000    ....    DCD    50331648
    am_hal_pwrctrl_peripheral_control
        0x0001c78c:    40021004    ...@    DCD    1073876996
        0x0001c790:    00000001    ....    DCD    1
        0x0001c794:    40021008    ...@    DCD    1073877000
        0x0001c798:    00000001    ....    DCD    1
        0x0001c79c:    40021004    ...@    DCD    1073876996
        0x0001c7a0:    00000002    ....    DCD    2
        0x0001c7a4:    40021008    ...@    DCD    1073877000
        0x0001c7a8:    0000001e    ....    DCD    30
        0x0001c7ac:    40021004    ...@    DCD    1073876996
        0x0001c7b0:    00000004    ....    DCD    4
        0x0001c7b4:    40021008    ...@    DCD    1073877000
        0x0001c7b8:    0000001e    ....    DCD    30
        0x0001c7bc:    40021004    ...@    DCD    1073876996
        0x0001c7c0:    00000008    ....    DCD    8
        0x0001c7c4:    40021008    ...@    DCD    1073877000
        0x0001c7c8:    0000001e    ....    DCD    30
        0x0001c7cc:    40021004    ...@    DCD    1073876996
        0x0001c7d0:    00000010    ....    DCD    16
        0x0001c7d4:    40021008    ...@    DCD    1073877000
        0x0001c7d8:    0000001e    ....    DCD    30
        0x0001c7dc:    40021004    ...@    DCD    1073876996
        0x0001c7e0:    00000020     ...    DCD    32
        0x0001c7e4:    40021008    ...@    DCD    1073877000
        0x0001c7e8:    000001e0    ....    DCD    480
        0x0001c7ec:    40021004    ...@    DCD    1073876996
        0x0001c7f0:    00000040    @...    DCD    64
        0x0001c7f4:    40021008    ...@    DCD    1073877000
        0x0001c7f8:    000001e0    ....    DCD    480
        0x0001c7fc:    40021004    ...@    DCD    1073876996
        0x0001c800:    00000080    ....    DCD    128
        0x0001c804:    40021008    ...@    DCD    1073877000
        0x0001c808:    000001e0    ....    DCD    480
        0x0001c80c:    40021004    ...@    DCD    1073876996
        0x0001c810:    00000100    ....    DCD    256
        0x0001c814:    40021008    ...@    DCD    1073877000
        0x0001c818:    000001e0    ....    DCD    480
        0x0001c81c:    40021004    ...@    DCD    1073876996
        0x0001c820:    00000200    ....    DCD    512
        0x0001c824:    40021008    ...@    DCD    1073877000
        0x0001c828:    00001e00    ....    DCD    7680
        0x0001c82c:    40021004    ...@    DCD    1073876996
        0x0001c830:    00000400    ....    DCD    1024
        0x0001c834:    40021008    ...@    DCD    1073877000
        0x0001c838:    00001e00    ....    DCD    7680
        0x0001c83c:    40021004    ...@    DCD    1073876996
        0x0001c840:    00000800    ....    DCD    2048
        0x0001c844:    40021008    ...@    DCD    1073877000
        0x0001c848:    00001e00    ....    DCD    7680
        0x0001c84c:    40021004    ...@    DCD    1073876996
        0x0001c850:    00001000    ....    DCD    4096
        0x0001c854:    40021008    ...@    DCD    1073877000
        0x0001c858:    00001e00    ....    DCD    7680
        0x0001c85c:    40021004    ...@    DCD    1073876996
        0x0001c860:    00002000    . ..    DCD    8192
        0x0001c864:    40021008    ...@    DCD    1073877000
        0x0001c868:    00002000    . ..    DCD    8192
        0x0001c86c:    40021004    ...@    DCD    1073876996
        0x0001c870:    00004000    .@..    DCD    16384
        0x0001c874:    40021008    ...@    DCD    1073877000
        0x0001c878:    0001c000    ....    DCD    114688
        0x0001c87c:    40021004    ...@    DCD    1073876996
        0x0001c880:    00008000    ....    DCD    32768
        0x0001c884:    40021008    ...@    DCD    1073877000
        0x0001c888:    0001c000    ....    DCD    114688
        0x0001c88c:    40021004    ...@    DCD    1073876996
        0x0001c890:    00010000    ....    DCD    65536
        0x0001c894:    40021008    ...@    DCD    1073877000
        0x0001c898:    0001c000    ....    DCD    114688
        0x0001c89c:    40021004    ...@    DCD    1073876996
        0x0001c8a0:    00020000    ....    DCD    131072
        0x0001c8a4:    40021008    ...@    DCD    1073877000
        0x0001c8a8:    00020000    ....    DCD    131072
        0x0001c8ac:    40021004    ...@    DCD    1073876996
        0x0001c8b0:    00040000    ....    DCD    262144
        0x0001c8b4:    40021008    ...@    DCD    1073877000
        0x0001c8b8:    00040000    ....    DCD    262144
        0x0001c8bc:    40021004    ...@    DCD    1073876996
        0x0001c8c0:    00080000    ....    DCD    524288
        0x0001c8c4:    40021008    ...@    DCD    1073877000
        0x0001c8c8:    00080000    ....    DCD    524288
        0x0001c8cc:    40021004    ...@    DCD    1073876996
        0x0001c8d0:    00100000    ....    DCD    1048576
        0x0001c8d4:    40021008    ...@    DCD    1073877000
        0x0001c8d8:    00100000    ....    DCD    1048576
        0x0001c8dc:    40021004    ...@    DCD    1073876996
        0x0001c8e0:    00200000    .. .    DCD    2097152
        0x0001c8e4:    40021008    ...@    DCD    1073877000
        0x0001c8e8:    00200000    .. .    DCD    2097152
        0x0001c8ec:    40021004    ...@    DCD    1073876996
        0x0001c8f0:    00400000    ..@.    DCD    4194304
        0x0001c8f4:    40021008    ...@    DCD    1073877000
        0x0001c8f8:    00400000    ..@.    DCD    4194304
        0x0001c8fc:    40021004    ...@    DCD    1073876996
        0x0001c900:    00800000    ....    DCD    8388608
        0x0001c904:    40021008    ...@    DCD    1073877000
        0x0001c908:    00800000    ....    DCD    8388608
        0x0001c90c:    40021004    ...@    DCD    1073876996
        0x0001c910:    01000000    ....    DCD    16777216
        0x0001c914:    40021008    ...@    DCD    1073877000
        0x0001c918:    01000000    ....    DCD    16777216
        0x0001c91c:    4002100c    ...@    DCD    1073877004
        0x0001c920:    00000001    ....    DCD    1
        0x0001c924:    40021010    ...@    DCD    1073877008
        0x0001c928:    000000ff    ....    DCD    255
        0x0001c92c:    4002100c    ...@    DCD    1073877004
        0x0001c930:    00000002    ....    DCD    2
        0x0001c934:    40021010    ...@    DCD    1073877008
        0x0001c938:    000000ff    ....    DCD    255
        0x0001c93c:    4002100c    ...@    DCD    1073877004
        0x0001c940:    00000004    ....    DCD    4
        0x0001c944:    40021010    ...@    DCD    1073877008
        0x0001c948:    000000ff    ....    DCD    255
        0x0001c94c:    4002100c    ...@    DCD    1073877004
        0x0001c950:    00000008    ....    DCD    8
        0x0001c954:    40021010    ...@    DCD    1073877008
        0x0001c958:    000000ff    ....    DCD    255
        0x0001c95c:    4002100c    ...@    DCD    1073877004
        0x0001c960:    00000010    ....    DCD    16
        0x0001c964:    40021010    ...@    DCD    1073877008
        0x0001c968:    000000ff    ....    DCD    255
        0x0001c96c:    4002100c    ...@    DCD    1073877004
        0x0001c970:    00000020     ...    DCD    32
        0x0001c974:    40021010    ...@    DCD    1073877008
        0x0001c978:    000000ff    ....    DCD    255
        0x0001c97c:    4002100c    ...@    DCD    1073877004
        0x0001c980:    00000040    @...    DCD    64
        0x0001c984:    40021010    ...@    DCD    1073877008
        0x0001c988:    000000ff    ....    DCD    255
        0x0001c98c:    4002100c    ...@    DCD    1073877004
        0x0001c990:    00000080    ....    DCD    128
        0x0001c994:    40021010    ...@    DCD    1073877008
        0x0001c998:    000000ff    ....    DCD    255
        0x0001c99c:    4002100c    ...@    DCD    1073877004
        0x0001c9a0:    00000400    ....    DCD    1024
        0x0001c9a4:    40021010    ...@    DCD    1073877008
        0x0001c9a8:    00000400    ....    DCD    1024
    g_VDDC_trimstbl
        0x0001c9ac:    3c003cec    .<.<    DCD    1006648556
        0x0001c9b0:    7f7ff05a    Z...    DCD    2139091034
        0x0001c9b4:    00          .       DCB    0
    g_VDDF_trimstbl
        0x0001c9b5:    ecf500      ...     DCB    236,245,0
        0x0001c9b8:    fefffef5    ....    DCD    4278189813
        0x0001c9bc:    1108fe08    ....    DCD    285801992
        0x0001c9c0:    fc1a11fd    ....    DCD    4229566973
        0x0001c9c4:    23fb231a    .#.#    DCD    603661082
        0x0001c9c8:    352cfa2c    ,.,5    DCD    892140076
        0x0001c9cc:    f83c35f9    .5<.    DCD    4164695545
        0x0001c9d0:    7ff75a3c    <Z..    DCD    2146916924
        0x0001c9d4:    007f        ..      DCW    127
    g_VDDFLP_trimstbl
        0x0001c9d6:    f5ec        ..      DCW    62956
        0x0001c9d8:    fffef500    ....    DCD    4294898944
        0x0001c9dc:    08fe08fe    ....    DCD    150866174
        0x0001c9e0:    1a11fd11    ....    DCD    437386513
        0x0001c9e4:    fb231afc    ..#.    DCD    4213381884
        0x0001c9e8:    2cfa2c23    #,.,    DCD    754592803
        0x0001c9ec:    3c35f935    5.5<    DCD    1010170165
        0x0001c9f0:    f75a3cf8    .<Z.    DCD    4149886200
        0x0001c9f4:    7f7f        ..      DCW    32639
        0x0001c9f6:    00          .       DCB    0
    g_memlpldo_trimstbl
        0x0001c9f7:    ee          .       DCB    238
        0x0001c9f8:    f6f208f2    ....    DCD    4143057138
        0x0001c9fc:    06faf607    ....    DCD    117110279
        0x0001ca00:    fe05fefa    ....    DCD    4261805818
        0x0001ca04:    06020402    ....    DCD    100795394
        0x0001ca08:    020a0603    ....    DCD    34211331
        0x0001ca0c:    0e010e0a    ....    DCD    234950154
        0x0001ca10:    16120012    ....    DCD    370278418
        0x0001ca14:    fe1a16ff    ....    DCD    4263122687
        0x0001ca18:    2afd2a1a    .*.*    DCD    721234458
        0x0001ca1c:    5a3cfc3c    <.<Z    DCD    1513946172
        0x0001ca20:    007f7ffb    ....    DCD    8355835
    .constdata
    g_am_hal_bootrom_helper
        0x0001ca24:    0800004d    M...    DCD    134217805
        0x0001ca28:    08000051    Q...    DCD    134217809
        0x0001ca2c:    08000055    U...    DCD    134217813
        0x0001ca30:    08000059    Y...    DCD    134217817
        0x0001ca34:    0800006d    m...    DCD    134217837
        0x0001ca38:    08000075    u...    DCD    134217845
        0x0001ca3c:    08000079    y...    DCD    134217849
        0x0001ca40:    08000081    ....    DCD    134217857
        0x0001ca44:    08000099    ....    DCD    134217881
        0x0001ca48:    0800009d    ....    DCD    134217885
    .constdata
    am_hal_daxi_defaults
        0x0001ca4c:    0f020100    ....    DCD    251789568
        0x0001ca50:    00000001    ....    DCD    1
    .conststring
        0x0001ca54:    6e6e6143    Cann    DCD    1852727619
        0x0001ca58:    7620746f    ot v    DCD    1981838447
        0x0001ca5c:    64696c61    alid    DCD    1684630625
        0x0001ca60:    20657461    ate     DCD    543519841
        0x0001ca64:    7265706f    oper    DCD    1919250543
        0x0001ca68:    6f697461    atio    DCD    1869182049
        0x0001ca6c:    6f66206e    n fo    DCD    1868963950
        0x0001ca70:    68742072    r th    DCD    1752440946
        0x0001ca74:    20657365    ese     DCD    543519589
        0x0001ca78:    64656573    seed    DCD    1684366707
        0x0001ca7c:    6c617620     val    DCD    1818326560
        0x0001ca80:    2c736575    ues,    DCD    745760117
        0x0001ca84:    656c7020     ple    DCD    1701605408
        0x0001ca88:    20657361    ase     DCD    543519585
        0x0001ca8c:    706d6f63    comp    DCD    1886220131
        0x0001ca90:    20657261    are     DCD    543519329
        0x0001ca94:    68746977    with    DCD    1752459639
        0x0001ca98:    73657220     res    DCD    1936028192
        0x0001ca9c:    73746c75    ults    DCD    1937009781
        0x0001caa0:    206e6f20     on     DCD    544108320
        0x0001caa4:    6e6b2061    a kn    DCD    1852514401
        0x0001caa8:    206e776f    own     DCD    544110447
        0x0001caac:    74616c70    plat    DCD    1952541808
        0x0001cab0:    6d726f66    form    DCD    1836216166
        0x0001cab4:    00000a2e    ....    DCD    2606
        0x0001cab8:    72726f43    Corr    DCD    1920102211
        0x0001cabc:    20746365    ect     DCD    544498533
        0x0001cac0:    7265706f    oper    DCD    1919250543
        0x0001cac4:    6f697461    atio    DCD    1869182049
        0x0001cac8:    6176206e    n va    DCD    1635131502
        0x0001cacc:    6164696c    lida    DCD    1633970540
        0x0001cad0:    2e646574    ted.    DCD    778331508
        0x0001cad4:    65655320     See    DCD    1701139232
        0x0001cad8:    61657220     rea    DCD    1634038304
        0x0001cadc:    2e656d64    dme.    DCD    778399076
        0x0001cae0:    20747874    txt     DCD    544503924
        0x0001cae4:    20726f66    for     DCD    544370534
        0x0001cae8:    206e7572    run     DCD    544109938
        0x0001caec:    20646e61    and     DCD    543452769
        0x0001caf0:    6f706572    repo    DCD    1869636978
        0x0001caf4:    6e697472    rtin    DCD    1852404850
        0x0001caf8:    75722067    g ru    DCD    1970413671
        0x0001cafc:    2e73656c    les.    DCD    779314540
        0x0001cb00:    0000000a    ....    DCD    10
    .conststring
        0x0001cb04:    352e3533    35.5    DCD    892220723
        0x0001cb08:    30303434    4400    DCD    808465460
        0x0001cb0c:    00000000    ....    DCD    0
        0x0001cb10:    362e302b    +0.6    DCD    908996651
        0x0001cb14:    30303434    4400    DCD    808465460
        0x0001cb18:    00000000    ....    DCD    0
        0x0001cb1c:    3332312e    .123    DCD    858927406
        0x0001cb20:    30303534    4500    DCD    808465716
        0x0001cb24:    00000000    ....    DCD    0
        0x0001cb28:    3031312d    -110    DCD    808530221
        0x0001cb2c:    3030372e    .700    DCD    808466222
        0x0001cb30:    00000000    ....    DCD    0
        0x0001cb34:    32312e2d    -.12    DCD    842083885
        0x0001cb38:    322d6533    3e-2    DCD    841835827
        0x0001cb3c:    00000000    ....    DCD    0
        0x0001cb40:    362e302b    +0.6    DCD    908996651
        0x0001cb44:    32312d65    e-12    DCD    842083685
        0x0001cb48:    00000000    ....    DCD    0
        0x0001cb4c:    32313035    5012    DCD    842084405
        0x0001cb50:    00000000    ....    DCD    0
        0x0001cb54:    3232312b    +122    DCD    842150187
        0x0001cb58:    00000000    ....    DCD    0
        0x0001cb5c:    6537382d    -87e    DCD    1698117677
        0x0001cb60:    3233382b    +832    DCD    842217515
        0x0001cb64:    00000000    ....    DCD    0
        0x0001cb68:    30352e35    5.50    DCD    808791605
        0x0001cb6c:    332b6530    0e+3    DCD    858481968
        0x0001cb70:    00000000    ....    DCD    0
        0x0001cb74:    34333231    1234    DCD    875770417
        0x0001cb78:    00000000    ....    DCD    0
        0x0001cb7c:    3437382d    -874    DCD    876034093
        0x0001cb80:    00000000    ....    DCD    0
        0x0001cb84:    332e3054    T0.3    DCD    858665044
        0x0001cb88:    46312d65    e-1F    DCD    1177628005
        0x0001cb8c:    00000000    ....    DCD    0
        0x0001cb90:    302e3433    34.0    DCD    808334387
        0x0001cb94:    5e542d65    e-T^    DCD    1582574949
        0x0001cb98:    00000000    ....    DCD    0
        0x0001cb9c:    542e542d    -T.T    DCD    1412322349
        0x0001cba0:    71542b2b    ++Tq    DCD    1901341483
        0x0001cba4:    00000000    ....    DCD    0
        0x0001cba8:    2e335431    1T3.    DCD    775115825
        0x0001cbac:    7a346534    4e4z    DCD    2050254132
        0x0001cbb0:    00000000    ....    DCD    0
    Region$$Table$$Base
        0x0001cbb4:    0001cbe4    ....    DCD    117732
        0x0001cbb8:    10000000    ....    DCD    268435456
        0x0001cbbc:    00000128    (...    DCD    296
        0x0001cbc0:    000182cc    ....    DCD    99020
        0x0001cbc4:    0001cd0c    ....    DCD    118028
        0x0001cbc8:    10001f00    ....    DCD    268443392
        0x0001cbcc:    00000040    @...    DCD    64
        0x0001cbd0:    000182cc    ....    DCD    99020
        0x0001cbd4:    0001cd0c    ....    DCD    118028
        0x0001cbd8:    10000128    (...    DCD    268435752
        0x0001cbdc:    00001340    @...    DCD    4928
        0x0001cbe0:    000182e8    ....    DCD    99048
    Region$$Table$$Limit

** Section #2 'MCU_TCM' (SHT_PROGBITS) [SHF_ALLOC + SHF_WRITE]
    Size   : 296 bytes (alignment 8)
    Address: 0x10000000

    0x10000000:   00 00 00 00 b0 d4 40 33 79 6a 14 e7 c1 e3 52 be    ......@3yj....R.
    0x10000010:   99 11 08 56 d7 1f 47 07 47 5e bf 39 a4 e5 3a 8e    ...V..G.G^.9..:.
    0x10000020:   84 8d 00 00 00 00 00 00 00 00 00 00 66 00 00 00    ............f...
    0x10000030:   d0 07 00 00 00 00 00 00 00 00 00 00 00 00 00 00    ................
    0x10000040:   00 00 00 00 00 00 00 00 00 00 00 00 00 00 00 00    ................
    0x10000050:   00 00 00 00 00 00 00 00 01 00 00 00 4c cb 01 00    ............L...
    0x10000060:   74 cb 01 00 7c cb 01 00 54 cb 01 00 04 cb 01 00    t...|...T.......
    0x10000070:   1c cb 01 00 28 cb 01 00 10 cb 01 00 68 cb 01 00    ....(.......h...
    0x10000080:   34 cb 01 00 5c cb 01 00 40 cb 01 00 84 cb 01 00    4...\...@.......
    0x10000090:   9c cb 01 00 a8 cb 01 00 90 cb 01 00 00 00 00 00    ................
    0x100000a0:   00 00 00 00 10 00 00 00 04 00 00 00 1e 00 00 00    ................
    0x100000b0:   04 00 00 00 5b 00 00 00 04 00 00 00 00 00 00 00    ....[...........
    0x100000c0:   00 00 00 00 02 00 0e 00 00 00 86 01 86 01 06 08    ................
    0x100000d0:   01 00 02 00 57 00 00 00 01 00 00 00 00 00 00 00    ....W...........
    0x100000e0:   ff ff ff ff ff ff ff ff 00 00 00 00 00 00 00 00    ................
    0x100000f0:   00 00 00 00 00 00 00 00 00 00 00 00 00 00 00 00    ................
    0x10000100:   00 00 00 00 00 00 00 00 00 00 00 00 00 00 00 00    ................
    0x10000110:   00 00 00 00 00 00 00 00 04 04 00 00 04 00 00 00    ................
    0x10000120:   00 01 02 0f 01 00 00 00                            ........


** Section #3 'MCU_TCM' (SHT_NOBITS) [SHF_ALLOC + SHF_WRITE]
    Size   : 4928 bytes (alignment 8)
    Address: 0x10000128


** Section #4 'SHARED_SRAM' (SHT_PROGBITS) [SHF_ALLOC + SHF_WRITE]
    Size   : 64 bytes (alignment 4)
    Address: 0x10001f00

    0x10001f00:   10 c7 01 00 00 00 00 00 00 00 00 00 00 00 00 00    ................
    0x10001f10:   00 00 00 00 00 00 00 00 00 00 00 00 00 00 00 00    ................
    0x10001f20:   00 00 00 00 00 00 00 00 00 00 00 00 00 00 00 00    ................
    0x10001f30:   00 00 00 00 00 00 00 00 00 00 00 00 00 00 00 00    ................


** Section #5 '.debug_abbrev' (SHT_PROGBITS)
    Size   : 1476 bytes


** Section #6 '.debug_frame' (SHT_PROGBITS)
    Size   : 4380 bytes


** Section #7 '.debug_info' (SHT_PROGBITS)
    Size   : 40272 bytes


** Section #8 '.debug_line' (SHT_PROGBITS)
    Size   : 13376 bytes


** Section #9 '.debug_loc' (SHT_PROGBITS)
    Size   : 9428 bytes


** Section #10 '.debug_macinfo' (SHT_PROGBITS)
    Size   : 7312 bytes


** Section #11 '.debug_pubnames' (SHT_PROGBITS)
    Size   : 2664 bytes


** Section #12 '.symtab' (SHT_SYMTAB)
    Size   : 13024 bytes (alignment 4)
    String table #13 '.strtab'
    Last local symbol no. 516

    Symbol table .symtab (813 symbols, 516 local)

      #  Symbol Name                Value      Bind  Sec  Type  Vis  Size
    ========================================================================

      1  $d                         0x00018000   Lc    1   --   De 
      2  $t                         0x00018200   Lc    1   --   De 
      3  $d                         0x00018230   Lc    1   --   De 
      4  $t                         0x00018234   Lc    1   --   De 
      5  $d                         0x00018268   Lc    1   --   De 
      6  $t                         0x00018270   Lc    1   --   De 
      7  $d                         0x00018352   Lc    1   --   De 
      8  $t                         0x00018360   Lc    1   --   De 
      9  $d                         0x00018458   Lc    1   --   De 
     10  $t                         0x0001845c   Lc    1   --   De 
     11  $d                         0x00018464   Lc    1   --   De 
     12  $t                         0x00018468   Lc    1   --   De 
     13  $d                         0x00018476   Lc    1   --   De 
     14  $t                         0x0001847c   Lc    1   --   De 
     15  $d                         0x000184e0   Lc    1   --   De 
     16  $t                         0x000184e8   Lc    1   --   De 
     17  $d                         0x0001853c   Lc    1   --   De 
     18  $t                         0x00018554   Lc    1   --   De 
     19  $d                         0x00018596   Lc    1   --   De 
     20  $t                         0x000185a0   Lc    1   --   De 
     21  $d                         0x0001864e   Lc    1   --   De 
     22  $t                         0x0001865c   Lc    1   --   De 
     23  $d                         0x0001878c   Lc    1   --   De 
     24  $t                         0x00018794   Lc    1   --   De 
     25  $d                         0x000187b6   Lc    1   --   De 
     26  $t                         0x000187c0   Lc    1   --   De 
     27  $d                         0x00018810   Lc    1   --   De 
     28  $t                         0x00018818   Lc    1   --   De 
     29  $d                         0x00018874   Lc    1   --   De 
     30  $t                         0x0001887c   Lc    1   --   De 
     31  $d                         0x000188c8   Lc    1   --   De 
     32  $t                         0x000188d0   Lc    1   --   De 
     33  $d                         0x000188f2   Lc    1   --   De 
     34  $t                         0x000188f8   Lc    1   --   De 
     35  $d                         0x000189b0   Lc    1   --   De 
     36  $t                         0x000189b4   Lc    1   --   De 
     37  $d                         0x000189cc   Lc    1   --   De 
     38  $t                         0x000189d2   Lc    1   --   De 
     39  $d                         0x00018bc8   Lc    1   --   De 
     40  $t                         0x00018bdc   Lc    1   --   De 
     41  $d                         0x00018cec   Lc    1   --   De 
     42  $t                         0x00018d08   Lc    1   --   De 
     43  $d                         0x00018e1c   Lc    1   --   De 
     44  $t                         0x00018e24   Lc    1   --   De 
     45  $d                         0x00018e92   Lc    1   --   De 
     46  $t                         0x00018e9c   Lc    1   --   De 
     47  $d                         0x00018fae   Lc    1   --   De 
     48  $t                         0x00018fc8   Lc    1   --   De 
     49  $d                         0x0001906e   Lc    1   --   De 
     50  $t                         0x0001907c   Lc    1   --   De 
     51  $d                         0x0001911a   Lc    1   --   De 
     52  $t                         0x00019124   Lc    1   --   De 
     53  $d                         0x000191da   Lc    1   --   De 
     54  $t                         0x000191e0   Lc    1   --   De 
     55  $d                         0x000191ea   Lc    1   --   De 
     56  $t                         0x000191f0   Lc    1   --   De 
     57  $d                         0x0001921c   Lc    1   --   De 
     58  $t                         0x00019220   Lc    1   --   De 
     59  $d                         0x000192de   Lc    1   --   De 
     60  $t                         0x000192e4   Lc    1   --   De 
     61  $d                         0x000193dc   Lc    1   --   De 
     62  $t                         0x00019400   Lc    1   --   De 
     63  $d                         0x0001942a   Lc    1   --   De 
     64  $t                         0x00019430   Lc    1   --   De 
     65  $d                         0x000194a8   Lc    1   --   De 
     66  $t                         0x000194b0   Lc    1   --   De 
     67  $d                         0x00019592   Lc    1   --   De 
     68  $t                         0x00019598   Lc    1   --   De 
     69  $d                         0x0001980a   Lc    1   --   De 
     70  $t                         0x00019814   Lc    1   --   De 
     71  $d                         0x000198b2   Lc    1   --   De 
     72  $t                         0x000198b8   Lc    1   --   De 
     73  $d                         0x0001991e   Lc    1   --   De 
     74  $t                         0x00019950   Lc    1   --   De 
     75  $d                         0x00019988   Lc    1   --   De 
     76  $t                         0x00019990   Lc    1   --   De 
     77  $d                         0x00019996   Lc    1   --   De 
     78  $t                         0x0001999c   Lc    1   --   De 
     79  $d                         0x00019dd0   Lc    1   --   De 
     80  $t                         0x00019dd4   Lc    1   --   De 
     81  $d                         0x0001a0e4   Lc    1   --   De 
     82  $t                         0x0001a0f0   Lc    1   --   De 
     83  $d                         0x0001a350   Lc    1   --   De 
     84  $t                         0x0001a358   Lc    1   --   De 
     85  $d                         0x0001a582   Lc    1   --   De 
     86  $t                         0x0001a58a   Lc    1   --   De 
     87  $d                         0x0001a614   Lc    1   --   De 
     88  $t                         0x0001a61c   Lc    1   --   De 
     89  $d                         0x0001a724   Lc    1   --   De 
     90  $t                         0x0001a72c   Lc    1   --   De 
     91  $d                         0x0001aad6   Lc    1   --   De 
     92  $t                         0x0001aae0   Lc    1   --   De 
     93  $d                         0x0001aae8   Lc    1   --   De 
     94  $t                         0x0001aaee   Lc    1   --   De 
     95  $d                         0x0001ab0a   Lc    1   --   De 
     96  $t                         0x0001ab20   Lc    1   --   De 
     97  $d                         0x0001ab2a   Lc    1   --   De 
     98  $t                         0x0001ab30   Lc    1   --   De 
     99  $d                         0x0001ab54   Lc    1   --   De 
    100  $t                         0x0001ab58   Lc    1   --   De 
    101  $d                         0x0001af9a   Lc    1   --   De 
    102  $t                         0x0001b194   Lc    1   --   De 
    103  $d                         0x0001b36e   Lc    1   --   De 
    104  $t                         0x0001b524   Lc    1   --   De 
    105  $d                         0x0001bc58   Lc    1   --   De 
    106  $t                         0x0001bc8c   Lc    1   --   De 
    107  $d                         0x0001bdcc   Lc    1   --   De 
    108  $t                         0x0001be78   Lc    1   --   De 
    109  $d                         0x0001bec2   Lc    1   --   De 
    110  $t                         0x0001bed0   Lc    1   --   De 
    111  $d                         0x0001bf02   Lc    1   --   De 
    112  $t                         0x0001bf10   Lc    1   --   De 
    113  $d                         0x0001bf4e   Lc    1   --   De 
    114  $t                         0x0001bf68   Lc    1   --   De 
    115  $d                         0x0001c0e0   Lc    1   --   De 
    116  $t                         0x0001c0e4   Lc    1   --   De 
    117  $d                         0x0001c308   Lc    1   --   De 
    118  $t                         0x0001c30c   Lc    1   --   De 
    119  $d                         0x0001c334   Lc    1   --   De 
    120  $t                         0x0001c3bc   Lc    1   --   De 
    121  $d                         0x0001c40c   Lc    1   --   De 
    122  $t                         0x0001c410   Lc    1   --   De 
    123  $d                         0x0001c4a4   Lc    1   --   De 
    124  $t                         0x0001c4a8   Lc    1   --   De 
    125  $d                         0x0001c524   Lc    1   --   De 
    126  $t                         0x0001c528   Lc    1   --   De 
    127  $d                         0x0001c604   Lc    1   --   De 
    128  $t                         0x0001c608   Lc    1   --   De 
    129  $d                         0x0001c68a   Lc    1   --   De 
    130  $t                         0x0001c68e   Lc    1   --   De 
    131  $d.realdata                0x0001c6c0   Lc    1   --   De 
    132  $d.realdata                0x10000000   Lc    2   --   De 
    133  $d.realdata                0x10001f00   Lc    4   --   De 
    134  ..\src\am_resources.c      0x00000000   Lc  Abs  File  De 
    135  ../src/am_resources.c      0x00000000   Lc  Abs  File  De 
    136  .constdata                 0x0001c6c0   Lc    1  Sect  De   0x6c
    137  __tagsym$$used             0x0001c6c0   Lc    1   --   De 
    138  __tagsym$$used             0x0001c6d4   Lc    1   --   De 
    139  __tagsym$$used             0x0001c6e8   Lc    1   --   De 
    140  __tagsym$$used             0x0001c6fc   Lc    1   --   De 
    141  __tagsym$$used             0x0001c710   Lc    1   --   De 
    142  RESOURCE_TABLE             0x10001f00   Lc    4  Sect  De   0x4
    143  __tagsym$$used             0x10001f00   Lc    4   --   De 
    144  SHARED_RW                  0x10001f04   Lc    4  Sect  De   0x3c
    145  __tagsym$$used             0x10001f04   Lc    4   --   De 
    146  __tagsym$$used             0x10001f18   Lc    4   --   De 
    147  __tagsym$$used             0x10001f2c   Lc    4   --   De 
    148  ..\src\am_time.c           0x00000000   Lc  Abs  File  De 
    149  ../src/am_time.c           0x00000000   Lc  Abs  File  De 
    150  i.SysTick_Handler          0x0001846c   Lc    1  Sect  De 
    151  .data                      0x10000000   Lc    2  Sect  De   0x4
    152  ../src/coremark.c          0x00000000   Lc  Abs  File  De 
    153  ..\src\core_list_join.c    0x00000000   Lc  Abs  File  De 
    154  ../src/core_list_join.c    0x00000000   Lc  Abs  File  De 
    155  i.calc_func                0x0001a0f0   Lc    1  Sect  De 
    156  i.cmp_complex              0x0001a182   Lc    1  Sect  De 
    157  i.cmp_idx                  0x0001a19c   Lc    1  Sect  De 
    158  i.core_bench_list          0x0001a1c8   Lc    1  Sect  De 
    159  i.core_list_init           0x0001a61c   Lc    1  Sect  De 
    160  i.core_list_mergesort      0x0001a72c   Lc    1  Sect  De 
    161  ..\src\core_main.c         0x00000000   Lc  Abs  File  De 
    162  ../src/core_main.c         0x00000000   Lc  Abs  File  De 
    163  i.main                     0x0001ab30   Lc    1  Sect  De 
    164  i.main_loop                0x0001ab58   Lc    1  Sect  De 
    165  .conststring               0x0001ca54   Lc    1  Sect  De   0xae
    166  .data                      0x10000004   Lc    2  Sect  De   0x1e
    167  list_known_crc             0x10000004   Lc    2  Data  De   0xa
    168  matrix_known_crc           0x1000000e   Lc    2  Data  De   0xa
    169  state_known_crc            0x10000018   Lc    2  Data  De   0xa
    170  ..\src\core_matrix.c       0x00000000   Lc  Abs  File  De 
    171  ../src/core_matrix.c       0x00000000   Lc  Abs  File  De 
    172  i.core_bench_matrix        0x0001a358   Lc    1  Sect  De 
    173  i.core_init_matrix         0x0001a468   Lc    1  Sect  De 
    174  i.matrix_sum               0x0001b524   Lc    1  Sect  De 
    175  i.matrix_test              0x0001b580   Lc    1  Sect  De 
    176  ..\src\core_portme.c       0x00000000   Lc  Abs  File  De 
    177  ../src/core_portme.c       0x00000000   Lc  Abs  File  De 
    178  i.am_sprintf               0x000198b8   Lc    1  Sect  De 
    179  i.get_time                 0x0001ab20   Lc    1  Sect  De 
    180  i.portable_fini            0x0001bba0   Lc    1  Sect  De 
    181  i.portable_init            0x0001bc8c   Lc    1  Sect  De 
    182  i.start_time               0x0001be78   Lc    1  Sect  De 
    183  i.stop_time                0x0001bed0   Lc    1  Sect  De 
    184  i.time_in_secs             0x0001bf10   Lc    1  Sect  De 
    185  .bss                       0x10000128   Lc    3  Sect  De   0x300
    186  .constdata                 0x0001c72c   Lc    1  Sect  De   0x6
    187  .data                      0x10000024   Lc    2  Sect  De   0x4
    188  .data                      0x10000028   Lc    2  Sect  De   0x4
    189  .data                      0x1000002c   Lc    2  Sect  De   0x4
    190  .data                      0x10000030   Lc    2  Sect  De   0x4
    191  .data                      0x10000034   Lc    2  Sect  De   0x4
    192  .data                      0x10000038   Lc    2  Sect  De   0x20
    193  start_time_val             0x10000048   Lc    2  Data  De   0x8
    194  stop_time_val              0x10000050   Lc    2  Data  De   0x8
    195  .data                      0x10000058   Lc    2  Sect  De   0x4
    196  ..\src\core_state.c        0x00000000   Lc  Abs  File  De 
    197  ../src/core_state.c        0x00000000   Lc  Abs  File  De 
    198  i.core_bench_state         0x0001a37a   Lc    1  Sect  De 
    199  i.core_init_state          0x0001a510   Lc    1  Sect  De 
    200  i.core_state_transition    0x0001a7d2   Lc    1  Sect  De 
    201  .conststring               0x0001cb04   Lc    1  Sect  De   0xad
    202  .data                      0x1000005c   Lc    2  Sect  De   0x40
    203  intpat                     0x1000005c   Lc    2  Data  De   0x10
    204  floatpat                   0x1000006c   Lc    2  Data  De   0x10
    205  scipat                     0x1000007c   Lc    2  Data  De   0x10
    206  errpat                     0x1000008c   Lc    2  Data  De   0x10
    207  ..\src\core_util.c         0x00000000   Lc  Abs  File  De 
    208  ../src/core_util.c         0x00000000   Lc  Abs  File  De 
    209  i.check_data_types         0x0001a17e   Lc    1  Sect  De 
    210  i.crc16                    0x0001a97c   Lc    1  Sect  De 
    211  i.crcu16                   0x0001a9cc   Lc    1  Sect  De 
    212  i.crcu32                   0x0001aa16   Lc    1  Sect  De 
    213  i.get_seed_32              0x0001aae0   Lc    1  Sect  De 
    214  ..\..\..\..\..\..\utils\am_util_delay.c
                                    0x00000000   Lc  Abs  File  De 
    215  ../../../../../../utils/am_util_delay.c
                                    0x00000000   Lc  Abs  File  De 
    216  i.am_util_delay_ms         0x00019950   Lc    1  Sect  De 
    217  ../../../../../../utils/am_util_stdio.c
                                    0x00000000   Lc  Abs  File  De 
    218  i.am_util_stdio_printf     0x0001995c   Lc    1  Sect  De 
    219  i.am_util_stdio_printf_init
                                    0x00019990   Lc    1  Sect  De 
    220  i.am_util_stdio_sprintf    0x0001999c   Lc    1  Sect  De 
    221  i.am_util_stdio_vsprintf   0x000199b0   Lc    1  Sect  De 
    222  i.ndigits_in_u64           0x0001b84a   Lc    1  Sect  De 
    223  ndigits_in_u64             0x0001b84b   Lc    1  Code  De   0xc6
    224  i.uint64_to_str            0x0001bf68   Lc    1  Sect  De 
    225  uint64_to_str              0x0001bf69   Lc    1  Code  De   0x126
    226  .bss                       0x10000428   Lc    3  Sect  De   0x100
    227  g_prfbuf                   0x10000428   Lc    3  Data  De   0x100
    228  .data                      0x1000009c   Lc    2  Sect  De   0x8
    229  g_bTxtXlate                0x1000009c   Lc    2  Data  De   0x1
    230  ..\..\..\..\..\..\devices\am_devices_led.c
                                    0x00000000   Lc  Abs  File  De 
    231  ../../../../../../devices/am_devices_led.c
                                    0x00000000   Lc  Abs  File  De 
    232  i.am_devices_led_array_init
                                    0x000185a0   Lc    1  Sect  De 
    233  i.am_devices_led_array_out 0x0001865c   Lc    1  Sect  De 
    234  ../keil/startup_keil.s     0x00000000   Lc  Abs  File  De 
    235  STACK                      0x10000868   Lc    3  Sect  De   0xc00
    236  StackMem                   0x10000868   Lc    3  Data  De 
    237  HEAP                       0x10000868   Lc    3  Sect  De 
    238  HeapMem                    0x10000868   Lc    3  Data  De 
    239  RESET                      0x00018000   Lc    1  Sect  De   0x234
    240  $v0                        0x00018200   Lc    1   --   De 
    241  am_cryptosec_isr           0x0001822f   Lc    1  Code  De 
    242  am_default_isr             0x0001822f   Lc    1  Code  De   0x2
    243  .text                      0x00018348   Lc    1  Sect  De   0x18
    244  $v0                        0x00018348   Lc    1   --   De 
    245  ..\am_bsp.c                0x00000000   Lc  Abs  File  De 
    246  ../am_bsp.c                0x00000000   Lc  Abs  File  De 
    247  i.am_bsp_low_power_init    0x00018486   Lc    1  Sect  De 
    248  i.am_bsp_uart_printf_disable
                                    0x0001849c   Lc    1  Sect  De 
    249  i.am_bsp_uart_printf_enable
                                    0x000184e8   Lc    1  Sect  De 
    250  i.am_bsp_uart_string_print 0x00018554   Lc    1  Sect  De 
    251  .constdata                 0x0001c734   Lc    1  Sect  De   0x2c
    252  g_sBspUartConfig           0x0001c734   Lc    1  Data  De   0xc
    253  .data                      0x100000a4   Lc    2  Sect  De   0x18
    254  .data                      0x100000bc   Lc    2  Sect  De   0x1a
    255  g_ePrintInterface          0x100000bc   Lc    2  Data  De   0x1
    256  g_sCOMUART                 0x100000c0   Lc    2  Data  De   0x4
    257  ..\..\..\..\..\mcu\apollo4p\hal\mcu\am_hal_interrupt.c
                                    0x00000000   Lc  Abs  File  De 
    258  .emb_text                  0x00018330   Lc    1  Sect  De   0x16
    259  $v0                        0x00018330   Lc    1   --   De 
    260  ../../../../../mcu/apollo4p/hal/mcu/am_hal_interrupt.c
                                    0x00000000   Lc  Abs  File  De 
    261  ..\..\..\..\..\mcu\apollo4p\hal\mcu\am_hal_sysctrl.c
                                    0x00000000   Lc  Abs  File  De 
    262  ../../../../../mcu/apollo4p/hal/mcu/am_hal_sysctrl.c
                                    0x00000000   Lc  Abs  File  De 
    263  i.am_hal_sysctrl_fpu_enable
                                    0x000191e0   Lc    1  Sect  De 
    264  i.am_hal_sysctrl_fpu_stacking_enable
                                    0x000191f0   Lc    1  Sect  De 
    265  ..\..\..\..\..\mcu\apollo4p\hal\mcu\am_hal_systick.c
                                    0x00000000   Lc  Abs  File  De 
    266  ../../../../../mcu/apollo4p/hal/mcu/am_hal_systick.c
                                    0x00000000   Lc  Abs  File  De 
    267  i.am_hal_systick_count     0x00019220   Lc    1  Sect  De 
    268  i.am_hal_systick_int_enable
                                    0x00019228   Lc    1  Sect  De 
    269  i.am_hal_systick_load      0x00019236   Lc    1  Sect  De 
    270  i.am_hal_systick_reset     0x00019242   Lc    1  Sect  De 
    271  i.am_hal_systick_start     0x0001924c   Lc    1  Sect  De 
    272  i.am_hal_systick_stop      0x0001925a   Lc    1  Sect  De 
    273  ..\..\..\..\..\mcu\apollo4p\hal\mcu\am_hal_utils.c
                                    0x00000000   Lc  Abs  File  De 
    274  ../../../../../mcu/apollo4p/hal/mcu/am_hal_utils.c
                                    0x00000000   Lc  Abs  File  De 
    275  i.am_hal_delay_us          0x00018794   Lc    1  Sect  De 
    276  i.am_hal_delay_us_status_change
                                    0x000187c0   Lc    1  Sect  De 
    277  i.am_hal_delay_us_status_check
                                    0x00018818   Lc    1  Sect  De 
    278  ..\..\..\..\..\mcu\apollo4p\hal\am_hal_gpio.c
                                    0x00000000   Lc  Abs  File  De 
    279  ../../../../../mcu/apollo4p/hal/am_hal_gpio.c
                                    0x00000000   Lc  Abs  File  De 
    280  i.am_hal_gpio_pinconfig    0x0001887c   Lc    1  Sect  De 
    281  i.am_hal_gpio_state_write  0x000188d0   Lc    1  Sect  De 
    282  .constdata                 0x0001c760   Lc    1  Sect  De   0x4
    283  .constdata                 0x0001c764   Lc    1  Sect  De   0x4
    284  .constdata                 0x0001c768   Lc    1  Sect  De   0x4
    285  .constdata                 0x0001c76c   Lc    1  Sect  De   0x4
    286  .constdata                 0x0001c770   Lc    1  Sect  De   0x10
    287  g_ui32DSpintbl             0x0001c770   Lc    1  Data  De   0x10
    288  ..\..\..\..\..\mcu\apollo4p\hal\am_hal_pwrctrl.c
                                    0x00000000   Lc  Abs  File  De 
    289  ../../../../../mcu/apollo4p/hal/am_hal_pwrctrl.c
                                    0x00000000   Lc  Abs  File  De 
    290  i.am_hal_pwrctrl_control   0x000189b4   Lc    1  Sect  De 
    291  i.am_hal_pwrctrl_low_power_init
                                    0x00018bdc   Lc    1  Sect  De 
    292  i.am_hal_pwrctrl_mcu_memory_config
                                    0x00018d08   Lc    1  Sect  De 
    293  i.am_hal_pwrctrl_mcu_mode_select
                                    0x00018e24   Lc    1  Sect  De 
    294  i.am_hal_pwrctrl_periph_disable
                                    0x00018e9c   Lc    1  Sect  De 
    295  i.am_hal_pwrctrl_periph_enable
                                    0x00018fc8   Lc    1  Sect  De 
    296  i.am_hal_pwrctrl_sram_config
                                    0x0001907c   Lc    1  Sect  De 
    297  i.crypto_boost_trims       0x0001aa30   Lc    1  Sect  De 
    298  .constdata                 0x0001c780   Lc    1  Sect  De   0x2a4
    299  g_VDDC_trimstbl            0x0001c9ac   Lc    1  Data  De   0x9
    300  g_VDDF_trimstbl            0x0001c9b5   Lc    1  Data  De   0x21
    301  g_VDDFLP_trimstbl          0x0001c9d6   Lc    1  Data  De   0x21
    302  g_memlpldo_trimstbl        0x0001c9f7   Lc    1  Data  De   0x2d
    303  .data                      0x100000d8   Lc    2  Sect  De   0x40
    304  g_bOrigTrimsStored         0x100000d9   Lc    2  Data  De   0x1
    305  g_bBoostForCryptoApplied   0x100000da   Lc    2  Data  De   0x1
    306  g_bTempcoValid             0x100000db   Lc    2  Data  De   0x1
    307  g_ui16TempcoTEMP_code      0x100000dc   Lc    2  Data  De   0x2
    308  g_orig_ACTTRIMVDDF         0x100000e8   Lc    2  Data  De   0x4
    309  g_orig_MEMLDOACTIVETRIM    0x100000ec   Lc    2  Data  De   0x4
    310  g_orig_LPTRIMVDDF          0x100000f0   Lc    2  Data  De   0x4
    311  g_orig_MEMLPLDOTRIM        0x100000f4   Lc    2  Data  De   0x4
    312  g_orig_TVRGVREFTRIM        0x100000f8   Lc    2  Data  De   0x4
    313  g_orig_CORELDOACTIVETRIM   0x100000fc   Lc    2  Data  De   0x4
    314  g_ui32VDDFAdjustCodes      0x10000100   Lc    2  Data  De   0x4
    315  g_i32LatestVddfActTrim     0x10000104   Lc    2  Data  De   0x4
    316  g_i32LatestLDOActTrim      0x10000108   Lc    2  Data  De   0x4
    317  g_TempcoADCHandle          0x1000010c   Lc    2  Data  De   0x4
    318  g_ui32TempcoADCslot        0x10000110   Lc    2  Data  De   0x4
    319  g_pfTempMeasured           0x10000114   Lc    2  Data  De   0x4
    320  ..\am_bsp_pins.c           0x00000000   Lc  Abs  File  De 
    321  ../am_bsp_pins.c           0x00000000   Lc  Abs  File  De 
    322  .data                      0x10000118   Lc    2  Sect  De   0x4
    323  .data                      0x1000011c   Lc    2  Sect  De   0x4
    324  ..\..\..\..\..\mcu\apollo4p\hal\mcu\am_hal_bootrom_helper.c
                                    0x00000000   Lc  Abs  File  De 
    325  ../../../../../mcu/apollo4p/hal/mcu/am_hal_bootrom_helper.c
                                    0x00000000   Lc  Abs  File  De 
    326  .constdata                 0x0001ca24   Lc    1  Sect  De   0x28
    327  ..\..\..\..\..\mcu\apollo4p\hal\mcu\am_hal_cachectrl.c
                                    0x00000000   Lc  Abs  File  De 
    328  ../../../../../mcu/apollo4p/hal/mcu/am_hal_cachectrl.c
                                    0x00000000   Lc  Abs  File  De 
    329  i.am_hal_daxi_config       0x000186fc   Lc    1  Sect  De 
    330  .constdata                 0x0001ca4c   Lc    1  Sect  De   0x5
    331  .data                      0x10000120   Lc    2  Sect  De   0x5
    332  i.__ARM_common_memcpy4_5   0x0001847c   Lc    1  Sect  De 
    333  ..\..\..\..\..\mcu\apollo4p\hal\mcu\am_hal_itm.c
                                    0x00000000   Lc  Abs  File  De 
    334  ../../../../../mcu/apollo4p/hal/mcu/am_hal_itm.c
                                    0x00000000   Lc  Abs  File  De 
    335  ..\..\..\..\..\mcu\apollo4p\hal\mcu\am_hal_mram.c
                                    0x00000000   Lc  Abs  File  De 
    336  ../../../../../mcu/apollo4p/hal/mcu/am_hal_mram.c
                                    0x00000000   Lc  Abs  File  De 
    337  i.am_hal_mram_info_read    0x00018944   Lc    1  Sect  De 
    338  ..\..\..\..\..\mcu\apollo4p\hal\mcu\am_hal_rtc.c
                                    0x00000000   Lc  Abs  File  De 
    339  ../../../../../mcu/apollo4p/hal/mcu/am_hal_rtc.c
                                    0x00000000   Lc  Abs  File  De 
    340  i.am_hal_rtc_osc_disable   0x000191cc   Lc    1  Sect  De 
    341  ..\..\..\..\..\mcu\apollo4p\hal\mcu\am_hal_tpiu.c
                                    0x00000000   Lc  Abs  File  De 
    342  ../../../../../mcu/apollo4p/hal/mcu/am_hal_tpiu.c
                                    0x00000000   Lc  Abs  File  De 
    343  ..\..\..\..\..\mcu\apollo4p\hal\mcu\am_hal_uart.c
                                    0x00000000   Lc  Abs  File  De 
    344  ../../../../../mcu/apollo4p/hal/mcu/am_hal_uart.c
                                    0x00000000   Lc  Abs  File  De 
    345  i.am_hal_uart_configure    0x00019268   Lc    1  Sect  De 
    346  i.am_hal_uart_deinitialize 0x00019400   Lc    1  Sect  De 
    347  i.am_hal_uart_initialize   0x00019430   Lc    1  Sect  De 
    348  i.am_hal_uart_power_control
                                    0x000194b0   Lc    1  Sect  De 
    349  i.am_hal_uart_transfer     0x00019598   Lc    1  Sect  De 
    350  i.am_hal_uart_tx_flush     0x00019814   Lc    1  Sect  De 
    351  i.nonblocking_read_sm      0x0001b910   Lc    1  Sect  De 
    352  nonblocking_read_sm        0x0001b911   Lc    1  Code  De   0x134
    353  i.nonblocking_write_sm     0x0001ba44   Lc    1  Sect  De 
    354  nonblocking_write_sm       0x0001ba45   Lc    1  Code  De   0x15a
    355  .bss                       0x10000528   Lc    3  Sect  De   0x2e0
    356  ..\..\..\..\..\mcu\apollo4p\hal\am_hal_adc.c
                                    0x00000000   Lc  Abs  File  De 
    357  ../../../../../mcu/apollo4p/hal/am_hal_adc.c
                                    0x00000000   Lc  Abs  File  De 
    358  ..\..\..\..\..\mcu\apollo4p\hal\am_hal_dcu.c
                                    0x00000000   Lc  Abs  File  De 
    359  ../../../../../mcu/apollo4p/hal/am_hal_dcu.c
                                    0x00000000   Lc  Abs  File  De 
    360  ..\..\..\..\..\mcu\apollo4p\hal\am_hal_pin.c
                                    0x00000000   Lc  Abs  File  De 
    361  ../../../../../mcu/apollo4p/hal/am_hal_pin.c
                                    0x00000000   Lc  Abs  File  De 
    362  ..\..\..\..\..\mcu\apollo4p\hal\am_hal_queue.c
                                    0x00000000   Lc  Abs  File  De 
    363  ../../../../../mcu/apollo4p/hal/am_hal_queue.c
                                    0x00000000   Lc  Abs  File  De 
    364  i.am_hal_queue_item_add    0x00019124   Lc    1  Sect  De 
    365  i.am_hal_queue_item_get    0x0001917a   Lc    1  Sect  De 
    366  dc.s                       0x00000000   Lc  Abs  File  De 
    367  ../clib/longlong.s         0x00000000   Lc  Abs  File  De 
    368  ../clib/longlong.s         0x00000000   Lc  Abs  File  De 
    369  ../clib/memcpset.s         0x00000000   Lc  Abs  File  De 
    370  .text                      0x00018360   Lc    1  Sect  De   0x44
    371  ../clib/heapaux.c          0x00000000   Lc  Abs  File  De 
    372  .text                      0x000183a4   Lc    1  Sect  De 
    373  ../clib/angel/startup.s    0x00000000   Lc  Abs  File  De 
    374  !!!main                    0x00018234   Lc    1  Sect  De   0x8
    375  ../clib/angel/handlers.s   0x00000000   Lc  Abs  File  De 
    376  !!handler_copy             0x000182cc   Lc    1  Sect  De   0x1a
    377  ../fplib/d2f.s             0x00000000   Lc  Abs  File  De 
    378  x$fpl$d2f                  0x0001c090   Lc    1  Sect  De   0x62
    379  $v0                        0x0001c090   Lc    1   --   De 
    380  ../fplib/ddiv.s            0x00000000   Lc  Abs  File  De 
    381  x$fpl$ddiv                 0x0001c10c   Lc    1  Sect  De   0x2b0
    382  $v0                        0x0001c10c   Lc    1   --   De 
    383  ddiv_entry                 0x0001c113   Lc    1  Code  De 
    384  ../fplib/dfixu.s           0x00000000   Lc  Abs  File  De 
    385  x$fpl$dfixu                0x0001c3bc   Lc    1  Sect  De   0x5a
    386  $v0                        0x0001c3bc   Lc    1   --   De 
    387  ../fplib/dflt.s            0x00000000   Lc  Abs  File  De 
    388  x$fpl$dfltu                0x0001c416   Lc    1  Sect  De   0x26
    389  $v0                        0x0001c416   Lc    1   --   De 
    390  ../fplib/dleqf.s           0x00000000   Lc  Abs  File  De 
    391  x$fpl$dleqf                0x0001c43c   Lc    1  Sect  De   0x78
    392  $v0                        0x0001c43c   Lc    1   --   De 
    393  ../fplib/drleqf.s          0x00000000   Lc  Abs  File  De 
    394  x$fpl$drleqf               0x0001c55c   Lc    1  Sect  De   0x6c
    395  $v0                        0x0001c55c   Lc    1   --   De 
    396  ../fplib/f2d.s             0x00000000   Lc  Abs  File  De 
    397  x$fpl$f2d                  0x0001c5c8   Lc    1  Sect  De   0x56
    398  $v0                        0x0001c5c8   Lc    1   --   De 
    399  ../clib/angel/kernel.s     0x00000000   Lc  Abs  File  De 
    400  .ARM.Collect$$rtentry$$00000000
                                    0x00018310   Lc    1  Sect  De 
    401  ../clib/memcpset.s         0x00000000   Lc  Abs  File  De 
    402  .text                      0x000183aa   Lc    1  Sect  De   0x4e
    403  ../fplib/dcmpi.s           0x00000000   Lc  Abs  File  De 
    404  x$fpl$dcmpinf              0x0001c0f2   Lc    1  Sect  De   0x18
    405  $v0                        0x0001c0f2   Lc    1   --   De 
    406  ../fplib/dnaninf.s         0x00000000   Lc  Abs  File  De 
    407  x$fpl$dnaninf              0x0001c4b4   Lc    1  Sect  De   0x9c
    408  $v0                        0x0001c4b4   Lc    1   --   De 
    409  ../fplib/dretinf.s         0x00000000   Lc  Abs  File  De 
    410  x$fpl$dretinf              0x0001c550   Lc    1  Sect  De   0xc
    411  $v0                        0x0001c550   Lc    1   --   De 
    412  ../fplib/fnaninf.s         0x00000000   Lc  Abs  File  De 
    413  x$fpl$fnaninf              0x0001c61e   Lc    1  Sect  De   0x8c
    414  $v0                        0x0001c61e   Lc    1   --   De 
    415  ../fplib/fretinf.s         0x00000000   Lc  Abs  File  De 
    416  x$fpl$fretinf              0x0001c6b4   Lc    1  Sect  De   0xa
    417  $v0                        0x0001c6b4   Lc    1   --   De 
    418  ../fplib/usenofp.s         0x00000000   Lc  Abs  File  De 
    419  x$fpl$usenofp              0x0001c6be   Lc    1  Sect  De 
    420  ../clib/angel/kernel.s     0x00000000   Lc  Abs  File  De 
    421  .ARM.Collect$$rtentry$$00000002
                                    0x00018310   Lc    1  Sect  De 
    422  .ARM.Collect$$rtentry$$00000009
                                    0x00018316   Lc    1  Sect  De 
    423  .ARM.Collect$$rtentry$$0000000A
                                    0x00018316   Lc    1  Sect  De   0x4
    424  .ARM.Collect$$rtentry$$0000000C
                                    0x0001831a   Lc    1  Sect  De 
    425  .ARM.Collect$$rtentry$$0000000D
                                    0x0001831a   Lc    1  Sect  De   0x8
    426  ../clib/angel/kernel.s     0x00000000   Lc  Abs  File  De 
    427  .ARM.Collect$$rtentry$$00000004
                                    0x00018310   Lc    1  Sect  De   0x6
    428  ../clib/angel/sys.s        0x00000000   Lc  Abs  File  De 
    429  .text                      0x000183f8   Lc    1  Sect  De   0x4a
    430  ../clib/stdlib.c           0x00000000   Lc  Abs  File  De 
    431  .text                      0x00018442   Lc    1  Sect  De 
    432  ../clib/angel/boardlib.s   0x00000000   Lc  Abs  File  De 
    433  ../clib/angel/boardlib.s   0x00000000   Lc  Abs  File  De 
    434  ../clib/angel/boardlib.s   0x00000000   Lc  Abs  File  De 
    435  ../clib/libinit.s          0x00000000   Lc  Abs  File  De 
    436  .ARM.Collect$$libinit$$00000000
                                    0x00018304   Lc    1  Sect  De   0x2
    437  ../clib/angel/sys.s        0x00000000   Lc  Abs  File  De 
    438  .text                      0x00018454   Lc    1  Sect  De   0x8
    439  .bss                       0x10000808   Lc    3  Sect  De   0x60
    440  ../clib/angel/kernel.s     0x00000000   Lc  Abs  File  De 
    441  .ARM.Collect$$rtexit$$00000000
                                    0x00018322   Lc    1  Sect  De   0x2
    442  ../clib/libinit.s          0x00000000   Lc  Abs  File  De 
    443  .ARM.Collect$$libinit$$00000001
                                    0x00018306   Lc    1  Sect  De   0x4
    444  .ARM.Collect$$libinit$$00000004
                                    0x0001830a   Lc    1  Sect  De 
    445  .ARM.Collect$$libinit$$0000000A
                                    0x0001830a   Lc    1  Sect  De 
    446  .ARM.Collect$$libinit$$0000000C
                                    0x0001830a   Lc    1  Sect  De 
    447  .ARM.Collect$$libinit$$0000000E
                                    0x0001830a   Lc    1  Sect  De 
    448  .ARM.Collect$$libinit$$00000011
                                    0x0001830a   Lc    1  Sect  De 
    449  .ARM.Collect$$libinit$$00000013
                                    0x0001830a   Lc    1  Sect  De 
    450  .ARM.Collect$$libinit$$00000015
                                    0x0001830a   Lc    1  Sect  De 
    451  .ARM.Collect$$libinit$$00000017
                                    0x0001830a   Lc    1  Sect  De 
    452  .ARM.Collect$$libinit$$00000019
                                    0x0001830a   Lc    1  Sect  De 
    453  .ARM.Collect$$libinit$$0000001B
                                    0x0001830a   Lc    1  Sect  De 
    454  .ARM.Collect$$libinit$$0000001D
                                    0x0001830a   Lc    1  Sect  De 
    455  .ARM.Collect$$libinit$$0000001F
                                    0x0001830a   Lc    1  Sect  De 
    456  .ARM.Collect$$libinit$$00000021
                                    0x0001830a   Lc    1  Sect  De 
    457  .ARM.Collect$$libinit$$00000023
                                    0x0001830a   Lc    1  Sect  De 
    458  .ARM.Collect$$libinit$$00000025
                                    0x0001830a   Lc    1  Sect  De 
    459  .ARM.Collect$$libinit$$0000002C
                                    0x0001830a   Lc    1  Sect  De 
    460  .ARM.Collect$$libinit$$0000002E
                                    0x0001830a   Lc    1  Sect  De 
    461  .ARM.Collect$$libinit$$00000030
                                    0x0001830a   Lc    1  Sect  De 
    462  .ARM.Collect$$libinit$$00000032
                                    0x0001830a   Lc    1  Sect  De 
    463  .ARM.Collect$$libinit$$00000033
                                    0x0001830a   Lc    1  Sect  De   0x2
    464  ../clib/angel/kernel.s     0x00000000   Lc  Abs  File  De 
    465  .ARM.Collect$$rtexit$$00000002
                                    0x00018324   Lc    1  Sect  De 
    466  .ARM.Collect$$rtexit$$00000003
                                    0x00018324   Lc    1  Sect  De   0x4
    467  .ARM.Collect$$rtexit$$00000004
                                    0x00018328   Lc    1  Sect  De   0x6
    468  ../clib/armsys.c           0x00000000   Lc  Abs  File  De 
    469  ../clib/armsys.c           0x00000000   Lc  Abs  File  De 
    470  ../fplib/fpinit.s          0x00000000   Lc  Abs  File  De 
    471  x$fpl$fpinit               0x0001c6aa   Lc    1  Sect  De   0xa
    472  $v0                        0x0001c6aa   Lc    1   --   De 
    473  ../clib/angel/sysapp.c     0x00000000   Lc  Abs  File  De 
    474  .text                      0x0001845c   Lc    1  Sect  De 
    475  ../clib/angel/boardlib.s   0x00000000   Lc  Abs  File  De 
    476  ../clib/armsys.c           0x00000000   Lc  Abs  File  De 
    477  ../clib/armsys.c           0x00000000   Lc  Abs  File  De 
    478  ../clib/libinit.s          0x00000000   Lc  Abs  File  De 
    479  .ARM.Collect$$libshutdown$$00000000
                                    0x0001830c   Lc    1  Sect  De   0x2
    480  ../clib/angel/sysapp.c     0x00000000   Lc  Abs  File  De 
    481  ../clib/angel/sys.s        0x00000000   Lc  Abs  File  De 
    482  .text                      0x00018468   Lc    1  Sect  De   0x2
    483  ../clib/angel/sys.s        0x00000000   Lc  Abs  File  De 
    484  .text                      0x0001846a   Lc    1  Sect  De 
    485  ../clib/heapalloc.c        0x00000000   Lc  Abs  File  De 
    486  ../clib/signal.c           0x00000000   Lc  Abs  File  De 
    487  ../clib/signal.c           0x00000000   Lc  Abs  File  De 
    488  ../clib/libinit.s          0x00000000   Lc  Abs  File  De 
    489  .ARM.Collect$$libshutdown$$00000002
                                    0x0001830e   Lc    1  Sect  De 
    490  .ARM.Collect$$libshutdown$$00000004
                                    0x0001830e   Lc    1  Sect  De 
    491  .ARM.Collect$$libshutdown$$00000007
                                    0x0001830e   Lc    1  Sect  De 
    492  .ARM.Collect$$libshutdown$$0000000A
                                    0x0001830e   Lc    1  Sect  De 
    493  .ARM.Collect$$libshutdown$$0000000C
                                    0x0001830e   Lc    1  Sect  De 
    494  .ARM.Collect$$libshutdown$$0000000F
                                    0x0001830e   Lc    1  Sect  De 
    495  .ARM.Collect$$libshutdown$$00000010
                                    0x0001830e   Lc    1  Sect  De   0x2
    496  ../clib/angel/rt.s         0x00000000   Lc  Abs  File  De 
    497  ../clib/signal.c           0x00000000   Lc  Abs  File  De 
    498  ../clib/signal.c           0x00000000   Lc  Abs  File  De 
    499  ../clib/signal.c           0x00000000   Lc  Abs  File  De 
    500  ../clib/signal.c           0x00000000   Lc  Abs  File  De 
    501  ../clib/angel/sysapp.c     0x00000000   Lc  Abs  File  De 
    502  ../clib/signal.s           0x00000000   Lc  Abs  File  De 
    503  ../clib/signal.c           0x00000000   Lc  Abs  File  De 
    504  ../clib/signal.c           0x00000000   Lc  Abs  File  De 
    505  ../clib/signal.c           0x00000000   Lc  Abs  File  De 
    506  ../clib/signal.c           0x00000000   Lc  Abs  File  De 
    507  ../clib/signal.c           0x00000000   Lc  Abs  File  De 
    508  ../clib/signal.c           0x00000000   Lc  Abs  File  De 
    509  ../clib/signal.c           0x00000000   Lc  Abs  File  De 
    510  ../clib/signal.c           0x00000000   Lc  Abs  File  De 
    511  ../clib/angel/dczerorl2.s  0x00000000   Lc  Abs  File  De 
    512  !!dczerorl2                0x00018270   Lc    1  Sect  De   0x5a
    513  ../clib/angel/scatter.s    0x00000000   Lc  Abs  File  De 
    514  !!!scatter                 0x0001823c   Lc    1  Sect  De   0x34
    515  ../clib/angel/handlers.s   0x00000000   Lc  Abs  File  De 
    516  !!handler_zi               0x000182e8   Lc    1  Sect  De   0x1c
    517  BuildAttributes$$THM_ISAv4$E$P$D$K$B$S$7EM$VFPi3$EXTD16$VFPS$VFMA$PE$A:L22UL41UL21$X:L11$S22US41US21$IEEE1$IW$USESV6$~STKCKD$USESV7$~SHL$OTIME$ROPI$EBA8$UX$STANDARDLIB$REQ8$PRES8$EABIv2
                                    0x00000000   Gb  Abs   --   Hi 
    518  __ARM_use_no_argv          0x00000000   Gb  Abs   --   Hi 
    519  __Vectors                  0x00018000   Gb    1  Data  Hi 
    520  __Patchable                0x00018190   Gb    1  Data  Hi 
    521  Reset_Handler              0x00018201   Wk    1  Code  Hi   0x1c
    522  HardFault_Handler          0x0001821d   Wk    1  Code  Hi   0x2
    523  NMI_Handler                0x0001821f   Wk    1  Code  Hi   0x2
    524  MemManage_Handler          0x00018221   Wk    1  Code  Hi   0x2
    525  BusFault_Handler           0x00018223   Wk    1  Code  Hi   0x2
    526  UsageFault_Handler         0x00018225   Wk    1  Code  Hi   0x2
    527  SVC_Handler                0x00018227   Wk    1  Code  Hi   0x2
    528  DebugMon_Handler           0x00018229   Wk    1  Code  Hi   0x2
    529  PendSV_Handler             0x0001822b   Wk    1  Code  Hi   0x2
    530  am_adc_isr                 0x0001822f   Wk    1  Code  Hi 
    531  am_audadc0_isr             0x0001822f   Wk    1  Code  Hi 
    532  am_brownout_isr            0x0001822f   Wk    1  Code  Hi 
    533  am_cachecpu_isr            0x0001822f   Wk    1  Code  Hi 
    534  am_clkgen_isr              0x0001822f   Wk    1  Code  Hi 
    535  am_ctimer_isr              0x0001822f   Wk    1  Code  Hi 
    536  am_disp_isr                0x0001822f   Wk    1  Code  Hi 
    537  am_dsi_isr                 0x0001822f   Wk    1  Code  Hi 
    538  am_dspi2s0_isr             0x0001822f   Wk    1  Code  Hi 
    539  am_dspi2s1_isr             0x0001822f   Wk    1  Code  Hi 
    540  am_dspi2s2_isr             0x0001822f   Wk    1  Code  Hi 
    541  am_dspi2s3_isr             0x0001822f   Wk    1  Code  Hi 
    542  am_gpio0_001f_isr          0x0001822f   Wk    1  Code  Hi 
    543  am_gpio0_203f_isr          0x0001822f   Wk    1  Code  Hi 
    544  am_gpio0_405f_isr          0x0001822f   Wk    1  Code  Hi 
    545  am_gpio0_607f_isr          0x0001822f   Wk    1  Code  Hi 
    546  am_gpio1_001f_isr          0x0001822f   Wk    1  Code  Hi 
    547  am_gpio1_203f_isr          0x0001822f   Wk    1  Code  Hi 
    548  am_gpio1_405f_isr          0x0001822f   Wk    1  Code  Hi 
    549  am_gpio1_607f_isr          0x0001822f   Wk    1  Code  Hi 
    550  am_gpu_isr                 0x0001822f   Wk    1  Code  Hi 
    551  am_iomaster0_isr           0x0001822f   Wk    1  Code  Hi 
    552  am_iomaster1_isr           0x0001822f   Wk    1  Code  Hi 
    553  am_iomaster2_isr           0x0001822f   Wk    1  Code  Hi 
    554  am_iomaster3_isr           0x0001822f   Wk    1  Code  Hi 
    555  am_iomaster4_isr           0x0001822f   Wk    1  Code  Hi 
    556  am_iomaster5_isr           0x0001822f   Wk    1  Code  Hi 
    557  am_iomaster6_isr           0x0001822f   Wk    1  Code  Hi 
    558  am_iomaster7_isr           0x0001822f   Wk    1  Code  Hi 
    559  am_ioslave_acc_isr         0x0001822f   Wk    1  Code  Hi 
    560  am_ioslave_ios_isr         0x0001822f   Wk    1  Code  Hi 
    561  am_mspi0_isr               0x0001822f   Wk    1  Code  Hi 
    562  am_mspi1_isr               0x0001822f   Wk    1  Code  Hi 
    563  am_mspi2_isr               0x0001822f   Wk    1  Code  Hi 
    564  am_pdm0_isr                0x0001822f   Wk    1  Code  Hi 
    565  am_pdm1_isr                0x0001822f   Wk    1  Code  Hi 
    566  am_pdm2_isr                0x0001822f   Wk    1  Code  Hi 
    567  am_pdm3_isr                0x0001822f   Wk    1  Code  Hi 
    568  am_rtc_isr                 0x0001822f   Wk    1  Code  Hi 
    569  am_sdio_isr                0x0001822f   Wk    1  Code  Hi 
    570  am_stimer_cmpr0_isr        0x0001822f   Wk    1  Code  Hi 
    571  am_stimer_cmpr1_isr        0x0001822f   Wk    1  Code  Hi 
    572  am_stimer_cmpr2_isr        0x0001822f   Wk    1  Code  Hi 
    573  am_stimer_cmpr3_isr        0x0001822f   Wk    1  Code  Hi 
    574  am_stimer_cmpr4_isr        0x0001822f   Wk    1  Code  Hi 
    575  am_stimer_cmpr5_isr        0x0001822f   Wk    1  Code  Hi 
    576  am_stimer_cmpr6_isr        0x0001822f   Wk    1  Code  Hi 
    577  am_stimer_cmpr7_isr        0x0001822f   Wk    1  Code  Hi 
    578  am_stimerof_isr            0x0001822f   Wk    1  Code  Hi 
    579  am_timer00_isr             0x0001822f   Wk    1  Code  Hi 
    580  am_timer01_isr             0x0001822f   Wk    1  Code  Hi 
    581  am_timer02_isr             0x0001822f   Wk    1  Code  Hi 
    582  am_timer03_isr             0x0001822f   Wk    1  Code  Hi 
    583  am_timer04_isr             0x0001822f   Wk    1  Code  Hi 
    584  am_timer05_isr             0x0001822f   Wk    1  Code  Hi 
    585  am_timer06_isr             0x0001822f   Wk    1  Code  Hi 
    586  am_timer07_isr             0x0001822f   Wk    1  Code  Hi 
    587  am_timer08_isr             0x0001822f   Wk    1  Code  Hi 
    588  am_timer09_isr             0x0001822f   Wk    1  Code  Hi 
    589  am_timer10_isr             0x0001822f   Wk    1  Code  Hi 
    590  am_timer11_isr             0x0001822f   Wk    1  Code  Hi 
    591  am_timer12_isr             0x0001822f   Wk    1  Code  Hi 
    592  am_timer13_isr             0x0001822f   Wk    1  Code  Hi 
    593  am_timer14_isr             0x0001822f   Wk    1  Code  Hi 
    594  am_timer15_isr             0x0001822f   Wk    1  Code  Hi 
    595  am_uart1_isr               0x0001822f   Wk    1  Code  Hi 
    596  am_uart2_isr               0x0001822f   Wk    1  Code  Hi 
    597  am_uart3_isr               0x0001822f   Wk    1  Code  Hi 
    598  am_uart_isr                0x0001822f   Wk    1  Code  Hi 
    599  am_usb_isr                 0x0001822f   Wk    1  Code  Hi 
    600  am_vcomp_isr               0x0001822f   Wk    1  Code  Hi 
    601  am_watchdog_isr            0x0001822f   Wk    1  Code  Hi 
    602  __main                     0x00018235   Gb    1  Code  Hi   0x8
    603  __scatterload              0x0001823d   Gb    1  Code  Hi 
    604  __scatterload_rt2          0x0001823d   Gb    1  Code  Hi   0x2c
    605  __scatterload_rt2_thumb_only
                                    0x0001823d   Gb    1  Code  Hi 
    606  __scatterload_null         0x0001824b   Gb    1  Code  Hi 
    607  __decompress               0x00018271   Gb    1  Code  Hi   0x5a
    608  __decompress1              0x00018271   Gb    1  Code  Hi 
    609  __scatterload_copy         0x000182cd   Gb    1  Code  Hi   0x1a
    610  __scatterload_zeroinit     0x000182e9   Gb    1  Code  Hi   0x1c
    611  __rt_lib_init              0x00018305   Gb    1  Code  De 
    612  __rt_lib_init_fp_1         0x00018307   Gb    1  Code  Hi 
    613  __rt_lib_init_alloca_1     0x0001830b   Gb    1  Code  Hi 
    614  __rt_lib_init_argv_1       0x0001830b   Gb    1  Code  Hi 
    615  __rt_lib_init_atexit_1     0x0001830b   Gb    1  Code  Hi 
    616  __rt_lib_init_clock_1      0x0001830b   Gb    1  Code  Hi 
    617  __rt_lib_init_cpp_1        0x0001830b   Gb    1  Code  Hi 
    618  __rt_lib_init_exceptions_1 0x0001830b   Gb    1  Code  Hi 
    619  __rt_lib_init_fp_trap_1    0x0001830b   Gb    1  Code  Hi 
    620  __rt_lib_init_getenv_1     0x0001830b   Gb    1  Code  Hi 
    621  __rt_lib_init_heap_1       0x0001830b   Gb    1  Code  Hi 
    622  __rt_lib_init_lc_collate_1 0x0001830b   Gb    1  Code  Hi 
    623  __rt_lib_init_lc_ctype_1   0x0001830b   Gb    1  Code  Hi 
    624  __rt_lib_init_lc_monetary_1
                                    0x0001830b   Gb    1  Code  Hi 
    625  __rt_lib_init_lc_numeric_1 0x0001830b   Gb    1  Code  Hi 
    626  __rt_lib_init_lc_time_1    0x0001830b   Gb    1  Code  Hi 
    627  __rt_lib_init_preinit_1    0x0001830b   Gb    1  Code  Hi 
    628  __rt_lib_init_rand_1       0x0001830b   Gb    1  Code  Hi 
    629  __rt_lib_init_return       0x0001830b   Gb    1  Code  Hi 
    630  __rt_lib_init_signal_1     0x0001830b   Gb    1  Code  Hi 
    631  __rt_lib_init_stdio_1      0x0001830b   Gb    1  Code  Hi 
    632  __rt_lib_init_user_alloc_1 0x0001830b   Gb    1  Code  Hi 
    633  __rt_lib_shutdown          0x0001830d   Gb    1  Code  De 
    634  __rt_lib_shutdown_cpp_1    0x0001830f   Gb    1  Code  Hi 
    635  __rt_lib_shutdown_fp_trap_1
                                    0x0001830f   Gb    1  Code  Hi 
    636  __rt_lib_shutdown_heap_1   0x0001830f   Gb    1  Code  Hi 
    637  __rt_lib_shutdown_return   0x0001830f   Gb    1  Code  Hi 
    638  __rt_lib_shutdown_signal_1 0x0001830f   Gb    1  Code  Hi 
    639  __rt_lib_shutdown_stdio_1  0x0001830f   Gb    1  Code  Hi 
    640  __rt_lib_shutdown_user_alloc_1
                                    0x0001830f   Gb    1  Code  Hi 
    641  __rt_entry                 0x00018311   Gb    1  Code  Hi 
    642  __rt_entry_presh_1         0x00018311   Gb    1  Code  Hi 
    643  __rt_entry_sh              0x00018311   Gb    1  Code  Hi 
    644  __rt_entry_li              0x00018317   Gb    1  Code  Hi 
    645  __rt_entry_postsh_1        0x00018317   Gb    1  Code  Hi 
    646  __rt_entry_main            0x0001831b   Gb    1  Code  Hi 
    647  __rt_entry_postli_1        0x0001831b   Gb    1  Code  Hi 
    648  __rt_exit                  0x00018323   Gb    1  Code  De 
    649  __rt_exit_ls               0x00018325   Gb    1  Code  Hi 
    650  __rt_exit_prels_1          0x00018325   Gb    1  Code  Hi 
    651  __rt_exit_exit             0x00018329   Gb    1  Code  Hi 
    652  am_hal_interrupt_master_enable
                                    0x00018331   Gb    1  Code  Hi   0x8
    653  am_hal_interrupt_master_disable
                                    0x00018339   Gb    1  Code  Hi   0x8
    654  am_hal_interrupt_master_set
                                    0x00018341   Gb    1  Code  Hi   0x6
    655  __user_initial_stackheap   0x00018349   Gb    1  Code  Hi   0xa
    656  __aeabi_memclr             0x00018361   Gb    1  Code  Hi 
    657  __rt_memclr                0x00018361   Gb    1  Code  De   0x44
    658  _memset                    0x00018365   Gb    1  Code  De 
    659  __use_two_region_memory    0x000183a5   Gb    1  Code  Hi   0x2
    660  __rt_heap_escrow$2region   0x000183a7   Gb    1  Code  De   0x2
    661  __rt_heap_expand$2region   0x000183a9   Gb    1  Code  De   0x2
    662  __aeabi_memclr4            0x000183ab   Gb    1  Code  De 
    663  __aeabi_memclr8            0x000183ab   Gb    1  Code  De 
    664  __rt_memclr_w              0x000183ab   Gb    1  Code  De   0x4e
    665  _memset_w                  0x000183af   Gb    1  Code  De 
    666  __user_setup_stackheap     0x000183f9   Gb    1  Code  De   0x4a
    667  exit                       0x00018443   Gb    1  Code  De   0x12
    668  __user_libspace            0x00018455   Wk    1  Code  De   0x8
    669  __user_perproc_libspace    0x00018455   Wk    1  Code  De 
    670  __user_perthread_libspace  0x00018455   Wk    1  Code  De 
    671  _sys_exit                  0x0001845d   Gb    1  Code  De   0x8
    672  __I$use$semihosting        0x00018469   Gb    1  Code  Hi 
    673  __use_no_semihosting_swi   0x00018469   Gb    1  Code  Hi   0x2
    674  __semihosting_library_function
                                    0x0001846b   Gb    1  Code  Hi 
    675  SysTick_Handler            0x0001846d   Gb    1  Code  Hi   0xa
    676  __ARM_common_memcpy4_5     0x0001847d   Gb    1  Code  Hi   0xa
    677  am_bsp_low_power_init      0x00018487   Gb    1  Code  Hi   0x16
    678  am_bsp_uart_printf_disable 0x0001849d   Gb    1  Code  Hi   0x44
    679  am_bsp_uart_printf_enable  0x000184e9   Gb    1  Code  Hi   0x54
    680  am_bsp_uart_string_print   0x00018555   Gb    1  Code  Hi   0x42
    681  am_devices_led_array_init  0x000185a1   Gb    1  Code  Hi   0xae
    682  am_devices_led_array_out   0x0001865d   Gb    1  Code  Hi   0x9e
    683  am_hal_daxi_config         0x000186fd   Gb    1  Code  Hi   0x90
    684  am_hal_delay_us            0x00018795   Gb    1  Code  Hi   0x22
    685  am_hal_delay_us_status_change
                                    0x000187c1   Gb    1  Code  Hi   0x50
    686  am_hal_delay_us_status_check
                                    0x00018819   Gb    1  Code  Hi   0x5c
    687  am_hal_gpio_pinconfig      0x0001887d   Gb    1  Code  Hi   0x4c
    688  am_hal_gpio_state_write    0x000188d1   Gb    1  Code  Hi   0x72
    689  am_hal_mram_info_read      0x00018945   Gb    1  Code  Hi   0x6c
    690  am_hal_pwrctrl_control     0x000189b5   Gb    1  Code  Hi   0x214
    691  am_hal_pwrctrl_low_power_init
                                    0x00018bdd   Gb    1  Code  Hi   0x110
    692  am_hal_pwrctrl_mcu_memory_config
                                    0x00018d09   Gb    1  Code  Hi   0x114
    693  am_hal_pwrctrl_mcu_mode_select
                                    0x00018e25   Gb    1  Code  Hi   0x6e
    694  am_hal_pwrctrl_periph_disable
                                    0x00018e9d   Gb    1  Code  Hi   0x112
    695  am_hal_pwrctrl_periph_enable
                                    0x00018fc9   Gb    1  Code  Hi   0xa6
    696  am_hal_pwrctrl_sram_config 0x0001907d   Gb    1  Code  Hi   0x9e
    697  am_hal_queue_item_add      0x00019125   Gb    1  Code  Hi   0x56
    698  am_hal_queue_item_get      0x0001917b   Gb    1  Code  Hi   0x52
    699  am_hal_rtc_osc_disable     0x000191cd   Gb    1  Code  Hi   0xe
    700  am_hal_sysctrl_fpu_enable  0x000191e1   Gb    1  Code  Hi   0xa
    701  am_hal_sysctrl_fpu_stacking_enable
                                    0x000191f1   Gb    1  Code  Hi   0x2c
    702  am_hal_systick_count       0x00019221   Gb    1  Code  Hi   0x8
    703  am_hal_systick_int_enable  0x00019229   Gb    1  Code  Hi   0xe
    704  am_hal_systick_load        0x00019237   Gb    1  Code  Hi   0xc
    705  am_hal_systick_reset       0x00019243   Gb    1  Code  Hi   0xa
    706  am_hal_systick_start       0x0001924d   Gb    1  Code  Hi   0xe
    707  am_hal_systick_stop        0x0001925b   Gb    1  Code  Hi   0xe
    708  am_hal_uart_configure      0x00019269   Gb    1  Code  Hi   0x174
    709  am_hal_uart_deinitialize   0x00019401   Gb    1  Code  Hi   0x2a
    710  am_hal_uart_initialize     0x00019431   Gb    1  Code  Hi   0x78
    711  am_hal_uart_power_control  0x000194b1   Gb    1  Code  Hi   0xe2
    712  am_hal_uart_transfer       0x00019599   Gb    1  Code  Hi   0x272
    713  am_hal_uart_tx_flush       0x00019815   Gb    1  Code  Hi   0x9e
    714  am_sprintf                 0x000198b9   Gb    1  Code  Hi   0x66
    715  am_util_delay_ms           0x00019951   Gb    1  Code  Hi   0xa
    716  am_util_stdio_printf       0x0001995d   Gb    1  Code  Hi   0x2c
    717  am_util_stdio_printf_init  0x00019991   Gb    1  Code  Hi   0x6
    718  am_util_stdio_sprintf      0x0001999d   Gb    1  Code  Hi   0x12
    719  am_util_stdio_vsprintf     0x000199b1   Gb    1  Code  Hi   0x734
    720  calc_func                  0x0001a0f1   Gb    1  Code  Hi   0x8e
    721  check_data_types           0x0001a17f   Gb    1  Code  Hi   0x4
    722  cmp_complex                0x0001a183   Gb    1  Code  Hi   0x1a
    723  cmp_idx                    0x0001a19d   Gb    1  Code  Hi   0x2a
    724  core_bench_list            0x0001a1c9   Gb    1  Code  Hi   0x188
    725  core_bench_matrix          0x0001a359   Gb    1  Code  Hi   0x22
    726  core_bench_state           0x0001a37b   Gb    1  Code  Hi   0xec
    727  core_init_matrix           0x0001a469   Gb    1  Code  Hi   0xa6
    728  core_init_state            0x0001a511   Gb    1  Code  Hi   0x104
    729  core_list_init             0x0001a61d   Gb    1  Code  Hi   0x108
    730  core_list_mergesort        0x0001a72d   Gb    1  Code  Hi   0xa6
    731  core_state_transition      0x0001a7d3   Gb    1  Code  Hi   0x1a8
    732  crc16                      0x0001a97d   Gb    1  Code  Hi   0x4e
    733  crcu16                     0x0001a9cd   Gb    1  Code  Hi   0x4a
    734  crcu32                     0x0001aa17   Gb    1  Code  Hi   0x18
    735  crypto_boost_trims         0x0001aa31   Gb    1  Code  Hi   0xa6
    736  get_seed_32                0x0001aae1   Gb    1  Code  Hi   0x2a
    737  get_time                   0x0001ab21   Gb    1  Code  Hi   0xa
    738  main                       0x0001ab31   Gb    1  Code  Hi   0x24
    739  main_loop                  0x0001ab59   Gb    1  Code  Hi   0x816
    740  matrix_sum                 0x0001b525   Gb    1  Code  Hi   0x5c
    741  matrix_test                0x0001b581   Gb    1  Code  Hi   0x2ca
    742  portable_fini              0x0001bba1   Gb    1  Code  Hi   0xb8
    743  portable_init              0x0001bc8d   Gb    1  Code  Hi   0x140
    744  start_time                 0x0001be79   Gb    1  Code  Hi   0x4a
    745  stop_time                  0x0001bed1   Gb    1  Code  Hi   0x32
    746  time_in_secs               0x0001bf11   Gb    1  Code  Hi   0x3e
    747  __aeabi_d2f                0x0001c091   Gb    1  Code  Hi 
    748  _d2f                       0x0001c091   Gb    1  Code  De   0x62
    749  __fpl_dcmp_Inf             0x0001c0f3   Gb    1  Code  De   0x18
    750  __aeabi_ddiv               0x0001c10d   Gb    1  Code  Hi 
    751  _ddiv                      0x0001c10d   Gb    1  Code  De   0x228
    752  __aeabi_d2uiz              0x0001c3bd   Gb    1  Code  Hi 
    753  _dfixu                     0x0001c3bd   Gb    1  Code  De   0x5a
    754  __aeabi_ui2d               0x0001c417   Gb    1  Code  Hi 
    755  _dfltu                     0x0001c417   Gb    1  Code  De   0x26
    756  __aeabi_cdcmple            0x0001c43d   Gb    1  Code  Hi 
    757  _dcmple                    0x0001c43d   Gb    1  Code  De   0x78
    758  __fpl_dcmple_InfNaN        0x0001c49f   Gb    1  Code  Pr 
    759  __fpl_dnaninf              0x0001c4b5   Gb    1  Code  De   0x9c
    760  __fpl_dretinf              0x0001c551   Gb    1  Code  De   0xc
    761  __aeabi_cdrcmple           0x0001c55d   Gb    1  Code  Hi 
    762  _drcmple                   0x0001c55d   Gb    1  Code  De   0x6c
    763  __aeabi_f2d                0x0001c5c9   Gb    1  Code  Hi 
    764  _f2d                       0x0001c5c9   Gb    1  Code  De   0x56
    765  __fpl_fnaninf              0x0001c61f   Gb    1  Code  De   0x8c
    766  _fp_init                   0x0001c6ab   Gb    1  Code  De   0xa
    767  __fplib_config_fpu_vfp     0x0001c6b3   Gb    1  Code  De 
    768  __fplib_config_pureend_doubles
                                    0x0001c6b3   Gb    1  Code  De 
    769  __fpl_fretinf              0x0001c6b5   Gb    1  Code  De   0xa
    770  __I$use$fp                 0x0001c6be   Gb    1   --   De 
    771  ui32MCUAllowed             0x0001c6c0   Gb    1  Data  Hi   0x14
    772  ui32DSP0Allowed            0x0001c6d4   Gb    1  Data  Hi   0x14
    773  ui32DSP1Allowed            0x0001c6e8   Gb    1  Data  Hi   0x14
    774  ui32SharedAccess           0x0001c6fc   Gb    1  Data  Hi   0x14
    775  sGlobalAccess              0x0001c710   Gb    1  Data  Hi   0x1c
    776  am_hal_gpio_pincfg_output  0x0001c760   Gb    1  Data  Hi   0x4
    777  am_hal_gpio_pincfg_tristate
                                    0x0001c764   Gb    1  Data  Hi   0x4
    778  am_hal_gpio_pincfg_opendrain
                                    0x0001c768   Gb    1  Data  Hi   0x4
    779  am_hal_gpio_pincfg_disabled
                                    0x0001c76c   Gb    1  Data  Hi   0x4
    780  g_DefaultMcuMemCfg         0x0001c780   Gb    1  Data  Hi   0x6
    781  g_DefaultSRAMCfg           0x0001c786   Gb    1  Data  Hi   0x6
    782  am_hal_pwrctrl_peripheral_control
                                    0x0001c78c   Gb    1  Data  Hi   0x220
    783  g_am_hal_bootrom_helper    0x0001ca24   Gb    1  Data  Hi   0x28
    784  am_hal_daxi_defaults       0x0001ca4c   Gb    1  Data  Hi   0x5
    785  Region$$Table$$Base        0x0001cbb4   Gb    1   --   Hi 
    786  Region$$Table$$Limit       0x0001cbe4   Gb    1   --   Hi 
    787  g_ui32SysTickWrappedTime   0x10000000   Gb    2  Data  Hi   0x4
    788  seed1_volatile             0x10000024   Gb    2  Data  Hi   0x4
    789  seed2_volatile             0x10000028   Gb    2  Data  Hi   0x4
    790  seed3_volatile             0x1000002c   Gb    2  Data  Hi   0x4
    791  seed4_volatile             0x10000030   Gb    2  Data  Hi   0x4
    792  seed5_volatile             0x10000034   Gb    2  Data  Hi   0x4
    793  g_eAmbClkSpd               0x10000038   Gb    2  Data  Hi   0x1
    794  am_bufcnt                  0x1000003c   Gb    2  Data  Hi   0x4
    795  am_pcBuf                   0x10000040   Gb    2  Data  Hi   0x4
    796  default_num_contexts       0x10000058   Gb    2  Data  Hi   0x4
    797  g_pfnCharPrint             0x100000a0   Gb    2  Data  Hi   0x4
    798  am_bsp_psLEDs              0x100000a4   Gb    2  Data  Hi   0x18
    799  g_sDispCfg                 0x100000c4   Gb    2  Data  Hi   0x12
    800  g_eCurrPwrMode             0x100000d8   Gb    2  Data  Hi   0x1
    801  g_ui32TrimVer              0x100000e0   Gb    2  Data  Hi   0x4
    802  g_ui32origSimobuckVDDStrim 0x100000e4   Gb    2  Data  Hi   0x4
    803  g_AM_BSP_GPIO_COM_UART_TX  0x10000118   Gb    2  Data  Hi   0x4
    804  g_AM_BSP_GPIO_COM_UART_RX  0x1000011c   Gb    2  Data  Hi   0x4
    805  gDaxiConfig                0x10000120   Gb    2  Data  Hi   0x5
    806  am_prtbuf                  0x10000128   Gb    3  Data  Hi   0x300
    807  g_am_hal_uart_states       0x10000528   Gb    3  Data  Hi   0x2e0
    808  __libspace_start           0x10000808   Gb    3  Data  De   0x60
    809  __temporary_stack_top$libspace
                                    0x10000868   Gb    3  Data  De 
    810  psGlobalAccessPtr          0x10001f00   Gb    4  Data  Hi   0x4
    811  ui32MCUClaimed             0x10001f04   Gb    4  Data  Hi   0x14
    812  ui32DSP0Claimed            0x10001f18   Gb    4  Data  Hi   0x14
    813  ui32DSP1Claimed            0x10001f2c   Gb    4  Data  Hi   0x14


** Section #13 '.strtab' (SHT_STRTAB)
    Size   : 12532 bytes

            #  Offset String
        ====================================

            1      1: $d
            2      4: $t
            3      7: $d.realdata
            4     19: ..\src\am_resources.c
            5     41: ../src/am_resources.c
            6     63: .constdata
            7     74: __tagsym$$used
            8     89: RESOURCE_TABLE
            9    104: SHARED_RW
           10    114: ..\src\am_time.c
           11    131: ../src/am_time.c
           12    148: i.SysTick_Handler
           13    166: .data
           14    172: ../src/coremark.c
           15    190: ..\src\core_list_join.c
           16    214: ../src/core_list_join.c
           17    238: i.calc_func
           18    250: i.cmp_complex
           19    264: i.cmp_idx
           20    274: i.core_bench_list
           21    292: i.core_list_init
           22    309: i.core_list_mergesort
           23    331: ..\src\core_main.c
           24    350: ../src/core_main.c
           25    369: i.main
           26    376: i.main_loop
           27    388: .conststring
           28    401: list_known_crc
           29    416: matrix_known_crc
           30    433: state_known_crc
           31    449: ..\src\core_matrix.c
           32    470: ../src/core_matrix.c
           33    491: i.core_bench_matrix
           34    511: i.core_init_matrix
           35    530: i.matrix_sum
           36    543: i.matrix_test
           37    557: ..\src\core_portme.c
           38    578: ../src/core_portme.c
           39    599: i.am_sprintf
           40    612: i.get_time
           41    623: i.portable_fini
           42    639: i.portable_init
           43    655: i.start_time
           44    668: i.stop_time
           45    680: i.time_in_secs
           46    695: .bss
           47    700: start_time_val
           48    715: stop_time_val
           49    729: ..\src\core_state.c
           50    749: ../src/core_state.c
           51    769: i.core_bench_state
           52    788: i.core_init_state
           53    806: i.core_state_transition
           54    830: intpat
           55    837: floatpat
           56    846: scipat
           57    853: errpat
           58    860: ..\src\core_util.c
           59    879: ../src/core_util.c
           60    898: i.check_data_types
           61    917: i.crc16
           62    925: i.crcu16
           63    934: i.crcu32
           64    943: i.get_seed_32
           65    957: ..\..\..\..\..\..\utils\am_util_delay.c
           66    997: ../../../../../../utils/am_util_delay.c
           67   1037: i.am_util_delay_ms
           68   1056: ../../../../../../utils/am_util_stdio.c
           69   1096: i.am_util_stdio_printf
           70   1119: i.am_util_stdio_printf_init
           71   1147: i.am_util_stdio_sprintf
           72   1171: i.am_util_stdio_vsprintf
           73   1196: i.ndigits_in_u64
           74   1213: ndigits_in_u64
           75   1228: i.uint64_to_str
           76   1244: uint64_to_str
           77   1258: g_prfbuf
           78   1267: g_bTxtXlate
           79   1279: ..\..\..\..\..\..\devices\am_devices_led.c
           80   1322: ../../../../../../devices/am_devices_led.c
           81   1365: i.am_devices_led_array_init
           82   1393: i.am_devices_led_array_out
           83   1420: ../keil/startup_keil.s
           84   1443: STACK
           85   1449: StackMem
           86   1458: HEAP
           87   1463: HeapMem
           88   1471: RESET
           89   1477: $v0
           90   1481: am_cryptosec_isr
           91   1498: am_default_isr
           92   1513: .text
           93   1519: ..\am_bsp.c
           94   1531: ../am_bsp.c
           95   1543: i.am_bsp_low_power_init
           96   1567: i.am_bsp_uart_printf_disable
           97   1596: i.am_bsp_uart_printf_enable
           98   1624: i.am_bsp_uart_string_print
           99   1651: g_sBspUartConfig
          100   1668: g_ePrintInterface
          101   1686: g_sCOMUART
          102   1697: ..\..\..\..\..\mcu\apollo4p\hal\mcu\am_hal_interrupt.c
          103   1752: .emb_text
          104   1762: ../../../../../mcu/apollo4p/hal/mcu/am_hal_interrupt.c
          105   1817: ..\..\..\..\..\mcu\apollo4p\hal\mcu\am_hal_sysctrl.c
          106   1870: ../../../../../mcu/apollo4p/hal/mcu/am_hal_sysctrl.c
          107   1923: i.am_hal_sysctrl_fpu_enable
          108   1951: i.am_hal_sysctrl_fpu_stacking_enable
          109   1988: ..\..\..\..\..\mcu\apollo4p\hal\mcu\am_hal_systick.c
          110   2041: ../../../../../mcu/apollo4p/hal/mcu/am_hal_systick.c
          111   2094: i.am_hal_systick_count
          112   2117: i.am_hal_systick_int_enable
          113   2145: i.am_hal_systick_load
          114   2167: i.am_hal_systick_reset
          115   2190: i.am_hal_systick_start
          116   2213: i.am_hal_systick_stop
          117   2235: ..\..\..\..\..\mcu\apollo4p\hal\mcu\am_hal_utils.c
          118   2286: ../../../../../mcu/apollo4p/hal/mcu/am_hal_utils.c
          119   2337: i.am_hal_delay_us
          120   2355: i.am_hal_delay_us_status_change
          121   2387: i.am_hal_delay_us_status_check
          122   2418: ..\..\..\..\..\mcu\apollo4p\hal\am_hal_gpio.c
          123   2464: ../../../../../mcu/apollo4p/hal/am_hal_gpio.c
          124   2510: i.am_hal_gpio_pinconfig
          125   2534: i.am_hal_gpio_state_write
          126   2560: g_ui32DSpintbl
          127   2575: ..\..\..\..\..\mcu\apollo4p\hal\am_hal_pwrctrl.c
          128   2624: ../../../../../mcu/apollo4p/hal/am_hal_pwrctrl.c
          129   2673: i.am_hal_pwrctrl_control
          130   2698: i.am_hal_pwrctrl_low_power_init
          131   2730: i.am_hal_pwrctrl_mcu_memory_config
          132   2765: i.am_hal_pwrctrl_mcu_mode_select
          133   2798: i.am_hal_pwrctrl_periph_disable
          134   2830: i.am_hal_pwrctrl_periph_enable
          135   2861: i.am_hal_pwrctrl_sram_config
          136   2890: i.crypto_boost_trims
          137   2911: g_VDDC_trimstbl
          138   2927: g_VDDF_trimstbl
          139   2943: g_VDDFLP_trimstbl
          140   2961: g_memlpldo_trimstbl
          141   2981: g_bOrigTrimsStored
          142   3000: g_bBoostForCryptoApplied
          143   3025: g_bTempcoValid
          144   3040: g_ui16TempcoTEMP_code
          145   3062: g_orig_ACTTRIMVDDF
          146   3081: g_orig_MEMLDOACTIVETRIM
          147   3105: g_orig_LPTRIMVDDF
          148   3123: g_orig_MEMLPLDOTRIM
          149   3143: g_orig_TVRGVREFTRIM
          150   3163: g_orig_CORELDOACTIVETRIM
          151   3188: g_ui32VDDFAdjustCodes
          152   3210: g_i32LatestVddfActTrim
          153   3233: g_i32LatestLDOActTrim
          154   3255: g_TempcoADCHandle
          155   3273: g_ui32TempcoADCslot
          156   3293: g_pfTempMeasured
          157   3310: ..\am_bsp_pins.c
          158   3327: ../am_bsp_pins.c
          159   3344: ..\..\..\..\..\mcu\apollo4p\hal\mcu\am_hal_bootrom_helper.c
          160   3404: ../../../../../mcu/apollo4p/hal/mcu/am_hal_bootrom_helper.c
          161   3464: ..\..\..\..\..\mcu\apollo4p\hal\mcu\am_hal_cachectrl.c
          162   3519: ../../../../../mcu/apollo4p/hal/mcu/am_hal_cachectrl.c
          163   3574: i.am_hal_daxi_config
          164   3595: i.__ARM_common_memcpy4_5
          165   3620: ..\..\..\..\..\mcu\apollo4p\hal\mcu\am_hal_itm.c
          166   3669: ../../../../../mcu/apollo4p/hal/mcu/am_hal_itm.c
          167   3718: ..\..\..\..\..\mcu\apollo4p\hal\mcu\am_hal_mram.c
          168   3768: ../../../../../mcu/apollo4p/hal/mcu/am_hal_mram.c
          169   3818: i.am_hal_mram_info_read
          170   3842: ..\..\..\..\..\mcu\apollo4p\hal\mcu\am_hal_rtc.c
          171   3891: ../../../../../mcu/apollo4p/hal/mcu/am_hal_rtc.c
          172   3940: i.am_hal_rtc_osc_disable
          173   3965: ..\..\..\..\..\mcu\apollo4p\hal\mcu\am_hal_tpiu.c
          174   4015: ../../../../../mcu/apollo4p/hal/mcu/am_hal_tpiu.c
          175   4065: ..\..\..\..\..\mcu\apollo4p\hal\mcu\am_hal_uart.c
          176   4115: ../../../../../mcu/apollo4p/hal/mcu/am_hal_uart.c
          177   4165: i.am_hal_uart_configure
          178   4189: i.am_hal_uart_deinitialize
          179   4216: i.am_hal_uart_initialize
          180   4241: i.am_hal_uart_power_control
          181   4269: i.am_hal_uart_transfer
          182   4292: i.am_hal_uart_tx_flush
          183   4315: i.nonblocking_read_sm
          184   4337: nonblocking_read_sm
          185   4357: i.nonblocking_write_sm
          186   4380: nonblocking_write_sm
          187   4401: ..\..\..\..\..\mcu\apollo4p\hal\am_hal_adc.c
          188   4446: ../../../../../mcu/apollo4p/hal/am_hal_adc.c
          189   4491: ..\..\..\..\..\mcu\apollo4p\hal\am_hal_dcu.c
          190   4536: ../../../../../mcu/apollo4p/hal/am_hal_dcu.c
          191   4581: ..\..\..\..\..\mcu\apollo4p\hal\am_hal_pin.c
          192   4626: ../../../../../mcu/apollo4p/hal/am_hal_pin.c
          193   4671: ..\..\..\..\..\mcu\apollo4p\hal\am_hal_queue.c
          194   4718: ../../../../../mcu/apollo4p/hal/am_hal_queue.c
          195   4765: i.am_hal_queue_item_add
          196   4789: i.am_hal_queue_item_get
          197   4813: dc.s
          198   4818: ../clib/longlong.s
          199   4837: ../clib/memcpset.s
          200   4856: ../clib/heapaux.c
          201   4874: ../clib/angel/startup.s
          202   4898: !!!main
          203   4906: ../clib/angel/handlers.s
          204   4931: !!handler_copy
          205   4946: ../fplib/d2f.s
          206   4961: x$fpl$d2f
          207   4971: ../fplib/ddiv.s
          208   4987: x$fpl$ddiv
          209   4998: ddiv_entry
          210   5009: ../fplib/dfixu.s
          211   5026: x$fpl$dfixu
          212   5038: ../fplib/dflt.s
          213   5054: x$fpl$dfltu
          214   5066: ../fplib/dleqf.s
          215   5083: x$fpl$dleqf
          216   5095: ../fplib/drleqf.s
          217   5113: x$fpl$drleqf
          218   5126: ../fplib/f2d.s
          219   5141: x$fpl$f2d
          220   5151: ../clib/angel/kernel.s
          221   5174: .ARM.Collect$$rtentry$$00000000
          222   5206: ../fplib/dcmpi.s
          223   5223: x$fpl$dcmpinf
          224   5237: ../fplib/dnaninf.s
          225   5256: x$fpl$dnaninf
          226   5270: ../fplib/dretinf.s
          227   5289: x$fpl$dretinf
          228   5303: ../fplib/fnaninf.s
          229   5322: x$fpl$fnaninf
          230   5336: ../fplib/fretinf.s
          231   5355: x$fpl$fretinf
          232   5369: ../fplib/usenofp.s
          233   5388: x$fpl$usenofp
          234   5402: .ARM.Collect$$rtentry$$00000002
          235   5434: .ARM.Collect$$rtentry$$00000009
          236   5466: .ARM.Collect$$rtentry$$0000000A
          237   5498: .ARM.Collect$$rtentry$$0000000C
          238   5530: .ARM.Collect$$rtentry$$0000000D
          239   5562: .ARM.Collect$$rtentry$$00000004
          240   5594: ../clib/angel/sys.s
          241   5614: ../clib/stdlib.c
          242   5631: ../clib/angel/boardlib.s
          243   5656: ../clib/libinit.s
          244   5674: .ARM.Collect$$libinit$$00000000
          245   5706: .ARM.Collect$$rtexit$$00000000
          246   5737: .ARM.Collect$$libinit$$00000001
          247   5769: .ARM.Collect$$libinit$$00000004
          248   5801: .ARM.Collect$$libinit$$0000000A
          249   5833: .ARM.Collect$$libinit$$0000000C
          250   5865: .ARM.Collect$$libinit$$0000000E
          251   5897: .ARM.Collect$$libinit$$00000011
          252   5929: .ARM.Collect$$libinit$$00000013
          253   5961: .ARM.Collect$$libinit$$00000015
          254   5993: .ARM.Collect$$libinit$$00000017
          255   6025: .ARM.Collect$$libinit$$00000019
          256   6057: .ARM.Collect$$libinit$$0000001B
          257   6089: .ARM.Collect$$libinit$$0000001D
          258   6121: .ARM.Collect$$libinit$$0000001F
          259   6153: .ARM.Collect$$libinit$$00000021
          260   6185: .ARM.Collect$$libinit$$00000023
          261   6217: .ARM.Collect$$libinit$$00000025
          262   6249: .ARM.Collect$$libinit$$0000002C
          263   6281: .ARM.Collect$$libinit$$0000002E
          264   6313: .ARM.Collect$$libinit$$00000030
          265   6345: .ARM.Collect$$libinit$$00000032
          266   6377: .ARM.Collect$$libinit$$00000033
          267   6409: .ARM.Collect$$rtexit$$00000002
          268   6440: .ARM.Collect$$rtexit$$00000003
          269   6471: .ARM.Collect$$rtexit$$00000004
          270   6502: ../clib/armsys.c
          271   6519: ../fplib/fpinit.s
          272   6537: x$fpl$fpinit
          273   6550: ../clib/angel/sysapp.c
          274   6573: .ARM.Collect$$libshutdown$$00000000
          275   6609: ../clib/heapalloc.c
          276   6629: ../clib/signal.c
          277   6646: .ARM.Collect$$libshutdown$$00000002
          278   6682: .ARM.Collect$$libshutdown$$00000004
          279   6718: .ARM.Collect$$libshutdown$$00000007
          280   6754: .ARM.Collect$$libshutdown$$0000000A
          281   6790: .ARM.Collect$$libshutdown$$0000000C
          282   6826: .ARM.Collect$$libshutdown$$0000000F
          283   6862: .ARM.Collect$$libshutdown$$00000010
          284   6898: ../clib/angel/rt.s
          285   6917: ../clib/signal.s
          286   6934: ../clib/angel/dczerorl2.s
          287   6960: !!dczerorl2
          288   6972: ../clib/angel/scatter.s
          289   6996: !!!scatter
          290   7007: !!handler_zi
          291   7020: BuildAttributes$$THM_ISAv4$E$P$D$K$B$S$7EM$VFPi3$EXTD16$VFPS$VFMA$PE$A:L22UL41UL21$X:L11$S22US41US21$IEEE1$IW$USESV6$~STKCKD$USESV7$~SHL$OTIME$ROPI$EBA8$UX$STANDARDLIB$REQ8$PRES8$EABIv2
          292   7206: __ARM_use_no_argv
          293   7224: __Vectors
          294   7234: __Patchable
          295   7246: Reset_Handler
          296   7260: HardFault_Handler
          297   7278: NMI_Handler
          298   7290: MemManage_Handler
          299   7308: BusFault_Handler
          300   7325: UsageFault_Handler
          301   7344: SVC_Handler
          302   7356: DebugMon_Handler
          303   7373: PendSV_Handler
          304   7388: am_adc_isr
          305   7399: am_audadc0_isr
          306   7414: am_brownout_isr
          307   7430: am_cachecpu_isr
          308   7446: am_clkgen_isr
          309   7460: am_ctimer_isr
          310   7474: am_disp_isr
          311   7486: am_dsi_isr
          312   7497: am_dspi2s0_isr
          313   7512: am_dspi2s1_isr
          314   7527: am_dspi2s2_isr
          315   7542: am_dspi2s3_isr
          316   7557: am_gpio0_001f_isr
          317   7575: am_gpio0_203f_isr
          318   7593: am_gpio0_405f_isr
          319   7611: am_gpio0_607f_isr
          320   7629: am_gpio1_001f_isr
          321   7647: am_gpio1_203f_isr
          322   7665: am_gpio1_405f_isr
          323   7683: am_gpio1_607f_isr
          324   7701: am_gpu_isr
          325   7712: am_iomaster0_isr
          326   7729: am_iomaster1_isr
          327   7746: am_iomaster2_isr
          328   7763: am_iomaster3_isr
          329   7780: am_iomaster4_isr
          330   7797: am_iomaster5_isr
          331   7814: am_iomaster6_isr
          332   7831: am_iomaster7_isr
          333   7848: am_ioslave_acc_isr
          334   7867: am_ioslave_ios_isr
          335   7886: am_mspi0_isr
          336   7899: am_mspi1_isr
          337   7912: am_mspi2_isr
          338   7925: am_pdm0_isr
          339   7937: am_pdm1_isr
          340   7949: am_pdm2_isr
          341   7961: am_pdm3_isr
          342   7973: am_rtc_isr
          343   7984: am_sdio_isr
          344   7996: am_stimer_cmpr0_isr
          345   8016: am_stimer_cmpr1_isr
          346   8036: am_stimer_cmpr2_isr
          347   8056: am_stimer_cmpr3_isr
          348   8076: am_stimer_cmpr4_isr
          349   8096: am_stimer_cmpr5_isr
          350   8116: am_stimer_cmpr6_isr
          351   8136: am_stimer_cmpr7_isr
          352   8156: am_stimerof_isr
          353   8172: am_timer00_isr
          354   8187: am_timer01_isr
          355   8202: am_timer02_isr
          356   8217: am_timer03_isr
          357   8232: am_timer04_isr
          358   8247: am_timer05_isr
          359   8262: am_timer06_isr
          360   8277: am_timer07_isr
          361   8292: am_timer08_isr
          362   8307: am_timer09_isr
          363   8322: am_timer10_isr
          364   8337: am_timer11_isr
          365   8352: am_timer12_isr
          366   8367: am_timer13_isr
          367   8382: am_timer14_isr
          368   8397: am_timer15_isr
          369   8412: am_uart1_isr
          370   8425: am_uart2_isr
          371   8438: am_uart3_isr
          372   8451: am_uart_isr
          373   8463: am_usb_isr
          374   8474: am_vcomp_isr
          375   8487: am_watchdog_isr
          376   8503: __main
          377   8510: __scatterload
          378   8524: __scatterload_rt2
          379   8542: __scatterload_rt2_thumb_only
          380   8571: __scatterload_null
          381   8590: __decompress
          382   8603: __decompress1
          383   8617: __scatterload_copy
          384   8636: __scatterload_zeroinit
          385   8659: __rt_lib_init
          386   8673: __rt_lib_init_fp_1
          387   8692: __rt_lib_init_alloca_1
          388   8715: __rt_lib_init_argv_1
          389   8736: __rt_lib_init_atexit_1
          390   8759: __rt_lib_init_clock_1
          391   8781: __rt_lib_init_cpp_1
          392   8801: __rt_lib_init_exceptions_1
          393   8828: __rt_lib_init_fp_trap_1
          394   8852: __rt_lib_init_getenv_1
          395   8875: __rt_lib_init_heap_1
          396   8896: __rt_lib_init_lc_collate_1
          397   8923: __rt_lib_init_lc_ctype_1
          398   8948: __rt_lib_init_lc_monetary_1
          399   8976: __rt_lib_init_lc_numeric_1
          400   9003: __rt_lib_init_lc_time_1
          401   9027: __rt_lib_init_preinit_1
          402   9051: __rt_lib_init_rand_1
          403   9072: __rt_lib_init_return
          404   9093: __rt_lib_init_signal_1
          405   9116: __rt_lib_init_stdio_1
          406   9138: __rt_lib_init_user_alloc_1
          407   9165: __rt_lib_shutdown
          408   9183: __rt_lib_shutdown_cpp_1
          409   9207: __rt_lib_shutdown_fp_trap_1
          410   9235: __rt_lib_shutdown_heap_1
          411   9260: __rt_lib_shutdown_return
          412   9285: __rt_lib_shutdown_signal_1
          413   9312: __rt_lib_shutdown_stdio_1
          414   9338: __rt_lib_shutdown_user_alloc_1
          415   9369: __rt_entry
          416   9380: __rt_entry_presh_1
          417   9399: __rt_entry_sh
          418   9413: __rt_entry_li
          419   9427: __rt_entry_postsh_1
          420   9447: __rt_entry_main
          421   9463: __rt_entry_postli_1
          422   9483: __rt_exit
          423   9493: __rt_exit_ls
          424   9506: __rt_exit_prels_1
          425   9524: __rt_exit_exit
          426   9539: am_hal_interrupt_master_enable
          427   9570: am_hal_interrupt_master_disable
          428   9602: am_hal_interrupt_master_set
          429   9630: __user_initial_stackheap
          430   9655: __aeabi_memclr
          431   9670: __rt_memclr
          432   9682: _memset
          433   9690: __use_two_region_memory
          434   9714: __rt_heap_escrow$2region
          435   9739: __rt_heap_expand$2region
          436   9764: __aeabi_memclr4
          437   9780: __aeabi_memclr8
          438   9796: __rt_memclr_w
          439   9810: _memset_w
          440   9820: __user_setup_stackheap
          441   9843: exit
          442   9848: __user_libspace
          443   9864: __user_perproc_libspace
          444   9888: __user_perthread_libspace
          445   9914: _sys_exit
          446   9924: __I$use$semihosting
          447   9944: __use_no_semihosting_swi
          448   9969: __semihosting_library_function
          449  10000: SysTick_Handler
          450  10016: __ARM_common_memcpy4_5
          451  10039: am_bsp_low_power_init
          452  10061: am_bsp_uart_printf_disable
          453  10088: am_bsp_uart_printf_enable
          454  10114: am_bsp_uart_string_print
          455  10139: am_devices_led_array_init
          456  10165: am_devices_led_array_out
          457  10190: am_hal_daxi_config
          458  10209: am_hal_delay_us
          459  10225: am_hal_delay_us_status_change
          460  10255: am_hal_delay_us_status_check
          461  10284: am_hal_gpio_pinconfig
          462  10306: am_hal_gpio_state_write
          463  10330: am_hal_mram_info_read
          464  10352: am_hal_pwrctrl_control
          465  10375: am_hal_pwrctrl_low_power_init
          466  10405: am_hal_pwrctrl_mcu_memory_config
          467  10438: am_hal_pwrctrl_mcu_mode_select
          468  10469: am_hal_pwrctrl_periph_disable
          469  10499: am_hal_pwrctrl_periph_enable
          470  10528: am_hal_pwrctrl_sram_config
          471  10555: am_hal_queue_item_add
          472  10577: am_hal_queue_item_get
          473  10599: am_hal_rtc_osc_disable
          474  10622: am_hal_sysctrl_fpu_enable
          475  10648: am_hal_sysctrl_fpu_stacking_enable
          476  10683: am_hal_systick_count
          477  10704: am_hal_systick_int_enable
          478  10730: am_hal_systick_load
          479  10750: am_hal_systick_reset
          480  10771: am_hal_systick_start
          481  10792: am_hal_systick_stop
          482  10812: am_hal_uart_configure
          483  10834: am_hal_uart_deinitialize
          484  10859: am_hal_uart_initialize
          485  10882: am_hal_uart_power_control
          486  10908: am_hal_uart_transfer
          487  10929: am_hal_uart_tx_flush
          488  10950: am_sprintf
          489  10961: am_util_delay_ms
          490  10978: am_util_stdio_printf
          491  10999: am_util_stdio_printf_init
          492  11025: am_util_stdio_sprintf
          493  11047: am_util_stdio_vsprintf
          494  11070: calc_func
          495  11080: check_data_types
          496  11097: cmp_complex
          497  11109: cmp_idx
          498  11117: core_bench_list
          499  11133: core_bench_matrix
          500  11151: core_bench_state
          501  11168: core_init_matrix
          502  11185: core_init_state
          503  11201: core_list_init
          504  11216: core_list_mergesort
          505  11236: core_state_transition
          506  11258: crc16
          507  11264: crcu16
          508  11271: crcu32
          509  11278: crypto_boost_trims
          510  11297: get_seed_32
          511  11309: get_time
          512  11318: main
          513  11323: main_loop
          514  11333: matrix_sum
          515  11344: matrix_test
          516  11356: portable_fini
          517  11370: portable_init
          518  11384: start_time
          519  11395: stop_time
          520  11405: time_in_secs
          521  11418: __aeabi_d2f
          522  11430: _d2f
          523  11435: __fpl_dcmp_Inf
          524  11450: __aeabi_ddiv
          525  11463: _ddiv
          526  11469: __aeabi_d2uiz
          527  11483: _dfixu
          528  11490: __aeabi_ui2d
          529  11503: _dfltu
          530  11510: __aeabi_cdcmple
          531  11526: _dcmple
          532  11534: __fpl_dcmple_InfNaN
          533  11554: __fpl_dnaninf
          534  11568: __fpl_dretinf
          535  11582: __aeabi_cdrcmple
          536  11599: _drcmple
          537  11608: __aeabi_f2d
          538  11620: _f2d
          539  11625: __fpl_fnaninf
          540  11639: _fp_init
          541  11648: __fplib_config_fpu_vfp
          542  11671: __fplib_config_pureend_doubles
          543  11702: __fpl_fretinf
          544  11716: __I$use$fp
          545  11727: ui32MCUAllowed
          546  11742: ui32DSP0Allowed
          547  11758: ui32DSP1Allowed
          548  11774: ui32SharedAccess
          549  11791: sGlobalAccess
          550  11805: am_hal_gpio_pincfg_output
          551  11831: am_hal_gpio_pincfg_tristate
          552  11859: am_hal_gpio_pincfg_opendrain
          553  11888: am_hal_gpio_pincfg_disabled
          554  11916: g_DefaultMcuMemCfg
          555  11935: g_DefaultSRAMCfg
          556  11952: am_hal_pwrctrl_peripheral_control
          557  11986: g_am_hal_bootrom_helper
          558  12010: am_hal_daxi_defaults
          559  12031: Region$$Table$$Base
          560  12051: Region$$Table$$Limit
          561  12072: g_ui32SysTickWrappedTime
          562  12097: seed1_volatile
          563  12112: seed2_volatile
          564  12127: seed3_volatile
          565  12142: seed4_volatile
          566  12157: seed5_volatile
          567  12172: g_eAmbClkSpd
          568  12185: am_bufcnt
          569  12195: am_pcBuf
          570  12204: default_num_contexts
          571  12225: g_pfnCharPrint
          572  12240: am_bsp_psLEDs
          573  12254: g_sDispCfg
          574  12265: g_eCurrPwrMode
          575  12280: g_ui32TrimVer
          576  12294: g_ui32origSimobuckVDDStrim
          577  12321: g_AM_BSP_GPIO_COM_UART_TX
          578  12347: g_AM_BSP_GPIO_COM_UART_RX
          579  12373: gDaxiConfig
          580  12385: am_prtbuf
          581  12395: g_am_hal_uart_states
          582  12416: __libspace_start
          583  12433: __temporary_stack_top$libspace
          584  12464: psGlobalAccessPtr
          585  12482: ui32MCUClaimed
          586  12497: ui32DSP0Claimed
          587  12513: ui32DSP1Claimed
          588  12529: 
          589  12530: 
          590  12531: 


** Section #14 '.note' (SHT_NOTE)
    Size   : 32 bytes (alignment 4)


** Section #15 '.comment' (SHT_PROGBITS)
    Size   : 39576 bytes


** Section #16 '.shstrtab' (SHT_STRTAB)
    Size   : 164 bytes

            #  Offset String
        ====================================

            1      1: MCU_MRAM
            2     10: MCU_TCM
            3     18: SHARED_SRAM
            4     30: .debug_abbrev
            5     44: .debug_frame
            6     57: .debug_info
            7     69: .debug_line
            8     81: .debug_loc
            9     92: .debug_macinfo
           10    107: .debug_pubnames
           11    123: .symtab
           12    131: .strtab
           13    139: .note
           14    145: .comment
           15    154: .shstrtab


