
========================================================================

** ELF Header Information

    File Name: bin\watchdog.axf

    Machine class: ELFCLASS32 (32-bit)
    Data encoding: ELFDATA2LSB (Little endian)
    Header version: EV_CURRENT (Current version)
    Operating System ABI: none
    ABI Version: 0
    File Type: ET_EXEC (Executable) (2)
    Machine: EM_ARM (ARM)

    Image Entry point: 0x00018235
    Flags: EF_ARM_HASENTRY + EF_ARM_ABI_FLOAT_HARD (0x05000402)

    ARM ELF revision: 5 (ABI version 2)

    Conforms to Hard float procedure-call standard

    Built with
    Component: ARM Compiler 6.16 Tool: armasm [5dfea300]
    Component: ARM Compiler 6.16 Tool: armlink [5dfeaa00]

    Header size: 52 bytes (0x34)
    Program header entry size: 32 bytes (0x20)
    Section header entry size: 40 bytes (0x28)

    Program header entries: 1
    Section header entries: 16

    Program header offset: 56124 (0x0000db3c)
    Section header offset: 56156 (0x0000db5c)

    Section header string table index: 15

========================================================================

** Program header #0 (PT_LOAD) [PF_X + PF_W + PF_R + PF_ARM_ENTRY]
    Size : 17488 bytes (11704 bytes in file)
    Virtual address: 0x00018000 (Alignment 8)


========================================================================

** Section #1 'MCU_MRAM' (SHT_PROGBITS) [SHF_ALLOC + SHF_EXECINSTR]
    Size   : 11548 bytes (alignment 4)
    Address: 0x00018000

    $d
    RESET
    __Vectors
        0x00018000:    100016f0    ....    DCD    268441328
        0x00018004:    00018201    ....    DCD    98817
        0x00018008:    0001821f    ....    DCD    98847
        0x0001800c:    00018369    i...    DCD    99177
        0x00018010:    00018221    !...    DCD    98849
        0x00018014:    00018223    #...    DCD    98851
        0x00018018:    00018225    %...    DCD    98853
        0x0001801c:    00000000    ....    DCD    0
        0x00018020:    00000000    ....    DCD    0
        0x00018024:    00000000    ....    DCD    0
        0x00018028:    00000000    ....    DCD    0
        0x0001802c:    00018227    '...    DCD    98855
        0x00018030:    00018229    )...    DCD    98857
        0x00018034:    00000000    ....    DCD    0
        0x00018038:    0001822b    +...    DCD    98859
        0x0001803c:    0001822d    -...    DCD    98861
        0x00018040:    0001822f    /...    DCD    98863
        0x00018044:    00019fa5    ....    DCD    106405
        0x00018048:    0001822f    /...    DCD    98863
        0x0001804c:    0001822f    /...    DCD    98863
        0x00018050:    0001822f    /...    DCD    98863
        0x00018054:    0001822f    /...    DCD    98863
        0x00018058:    0001822f    /...    DCD    98863
        0x0001805c:    0001822f    /...    DCD    98863
        0x00018060:    0001822f    /...    DCD    98863
        0x00018064:    0001822f    /...    DCD    98863
        0x00018068:    0001822f    /...    DCD    98863
        0x0001806c:    0001822f    /...    DCD    98863
        0x00018070:    0001822f    /...    DCD    98863
        0x00018074:    0001822f    /...    DCD    98863
        0x00018078:    0001822f    /...    DCD    98863
        0x0001807c:    0001822f    /...    DCD    98863
        0x00018080:    0001822f    /...    DCD    98863
        0x00018084:    0001822f    /...    DCD    98863
        0x00018088:    0001822f    /...    DCD    98863
        0x0001808c:    0001822f    /...    DCD    98863
        0x00018090:    0001822f    /...    DCD    98863
        0x00018094:    0001822f    /...    DCD    98863
        0x00018098:    0001822f    /...    DCD    98863
        0x0001809c:    0001822f    /...    DCD    98863
        0x000180a0:    0001822f    /...    DCD    98863
        0x000180a4:    0001822f    /...    DCD    98863
        0x000180a8:    0001822f    /...    DCD    98863
        0x000180ac:    0001822f    /...    DCD    98863
        0x000180b0:    0001822f    /...    DCD    98863
        0x000180b4:    0001822f    /...    DCD    98863
        0x000180b8:    0001822f    /...    DCD    98863
        0x000180bc:    0001822f    /...    DCD    98863
        0x000180c0:    0001822f    /...    DCD    98863
        0x000180c4:    0001822f    /...    DCD    98863
        0x000180c8:    0001822f    /...    DCD    98863
        0x000180cc:    0001822f    /...    DCD    98863
        0x000180d0:    0001822f    /...    DCD    98863
        0x000180d4:    0001822f    /...    DCD    98863
        0x000180d8:    0001822f    /...    DCD    98863
        0x000180dc:    0001822f    /...    DCD    98863
        0x000180e0:    0001822f    /...    DCD    98863
        0x000180e4:    0001822f    /...    DCD    98863
        0x000180e8:    0001822f    /...    DCD    98863
        0x000180ec:    0001822f    /...    DCD    98863
        0x000180f0:    0001822f    /...    DCD    98863
        0x000180f4:    0001822f    /...    DCD    98863
        0x000180f8:    0001822f    /...    DCD    98863
        0x000180fc:    0001822f    /...    DCD    98863
        0x00018100:    0001822f    /...    DCD    98863
        0x00018104:    0001822f    /...    DCD    98863
        0x00018108:    0001822f    /...    DCD    98863
        0x0001810c:    0001822f    /...    DCD    98863
        0x00018110:    0001822f    /...    DCD    98863
        0x00018114:    0001822f    /...    DCD    98863
        0x00018118:    0001822f    /...    DCD    98863
        0x0001811c:    0001822f    /...    DCD    98863
        0x00018120:    0001822f    /...    DCD    98863
        0x00018124:    0001822f    /...    DCD    98863
        0x00018128:    0001822f    /...    DCD    98863
        0x0001812c:    0001822f    /...    DCD    98863
        0x00018130:    0001822f    /...    DCD    98863
        0x00018134:    0001822f    /...    DCD    98863
        0x00018138:    0001822f    /...    DCD    98863
        0x0001813c:    0001822f    /...    DCD    98863
        0x00018140:    0001822f    /...    DCD    98863
        0x00018144:    0001822f    /...    DCD    98863
        0x00018148:    0001822f    /...    DCD    98863
        0x0001814c:    0001822f    /...    DCD    98863
        0x00018150:    0001822f    /...    DCD    98863
        0x00018154:    0001822f    /...    DCD    98863
        0x00018158:    0001822f    /...    DCD    98863
        0x0001815c:    0001822f    /...    DCD    98863
        0x00018160:    0001822f    /...    DCD    98863
        0x00018164:    0001822f    /...    DCD    98863
        0x00018168:    0001822f    /...    DCD    98863
        0x0001816c:    0001822f    /...    DCD    98863
        0x00018170:    0001822f    /...    DCD    98863
        0x00018174:    0001822f    /...    DCD    98863
        0x00018178:    0001822f    /...    DCD    98863
        0x0001817c:    0001822f    /...    DCD    98863
        0x00018180:    0001822f    /...    DCD    98863
        0x00018184:    0001822f    /...    DCD    98863
        0x00018188:    0001822f    /...    DCD    98863
        0x0001818c:    0001822f    /...    DCD    98863
    __Patchable
        0x00018190:    00000000    ....    DCD    0
        0x00018194:    00000000    ....    DCD    0
        0x00018198:    00000000    ....    DCD    0
        0x0001819c:    00000000    ....    DCD    0
        0x000181a0:    00000000    ....    DCD    0
        0x000181a4:    00000000    ....    DCD    0
        0x000181a8:    00000000    ....    DCD    0
        0x000181ac:    00000000    ....    DCD    0
        0x000181b0:    00000000    ....    DCD    0
        0x000181b4:    00000000    ....    DCD    0
        0x000181b8:    00000000    ....    DCD    0
        0x000181bc:    00000000    ....    DCD    0
        0x000181c0:    00000000    ....    DCD    0
        0x000181c4:    00000000    ....    DCD    0
        0x000181c8:    00000000    ....    DCD    0
        0x000181cc:    00000000    ....    DCD    0
        0x000181d0:    00000000    ....    DCD    0
        0x000181d4:    00000000    ....    DCD    0
        0x000181d8:    00000000    ....    DCD    0
        0x000181dc:    00000000    ....    DCD    0
        0x000181e0:    00000000    ....    DCD    0
        0x000181e4:    00000000    ....    DCD    0
        0x000181e8:    00000000    ....    DCD    0
        0x000181ec:    00000000    ....    DCD    0
        0x000181f0:    00000000    ....    DCD    0
        0x000181f4:    00000000    ....    DCD    0
        0x000181f8:    00000000    ....    DCD    0
        0x000181fc:    00000000    ....    DCD    0
    $t
    $v0
    Reset_Handler
        0x00018200:    f64e5088    N..P    MOV      r0,#0xed88
        0x00018204:    f2ce0000    ....    MOVT     r0,#0xe000
        0x00018208:    6801        .h      LDR      r1,[r0,#0]
        0x0001820a:    f4410170    A.p.    ORR      r1,r1,#0xf00000
        0x0001820e:    6001        .`      STR      r1,[r0,#0]
        0x00018210:    f3bf8f4f    ..O.    DSB      
        0x00018214:    f3bf8f6f    ..o.    ISB      
        0x00018218:    4805        .H      LDR      r0,[pc,#20] ; [0x18230] = 0x18235
        0x0001821a:    4700        .G      BX       r0
        0x0001821c:    e7fe        ..      B        0x1821c ; Reset_Handler + 28
    NMI_Handler
        0x0001821e:    e7fe        ..      B        NMI_Handler ; 0x1821e
    MemManage_Handler
        0x00018220:    e7fe        ..      B        MemManage_Handler ; 0x18220
    BusFault_Handler
        0x00018222:    e7fe        ..      B        BusFault_Handler ; 0x18222
    UsageFault_Handler
        0x00018224:    e7fe        ..      B        UsageFault_Handler ; 0x18224
    SVC_Handler
        0x00018226:    e7fe        ..      B        SVC_Handler ; 0x18226
    DebugMon_Handler
        0x00018228:    e7fe        ..      B        DebugMon_Handler ; 0x18228
    PendSV_Handler
        0x0001822a:    e7fe        ..      B        PendSV_Handler ; 0x1822a
    SysTick_Handler
        0x0001822c:    e7fe        ..      B        SysTick_Handler ; 0x1822c
    am_cryptosec_isr
    am_default_isr
    am_adc_isr
    am_audadc0_isr
    am_brownout_isr
    am_cachecpu_isr
    am_clkgen_isr
    am_ctimer_isr
    am_disp_isr
    am_dsi_isr
    am_dspi2s0_isr
    am_dspi2s1_isr
    am_dspi2s2_isr
    am_dspi2s3_isr
    am_gpio0_001f_isr
    am_gpio0_203f_isr
    am_gpio0_405f_isr
    am_gpio0_607f_isr
    am_gpio1_001f_isr
    am_gpio1_203f_isr
    am_gpio1_405f_isr
    am_gpio1_607f_isr
    am_gpu_isr
    am_iomaster0_isr
    am_iomaster1_isr
    am_iomaster2_isr
    am_iomaster3_isr
    am_iomaster4_isr
    am_iomaster5_isr
    am_iomaster6_isr
    am_iomaster7_isr
    am_ioslave_acc_isr
    am_ioslave_ios_isr
    am_mspi0_isr
    am_mspi1_isr
    am_mspi2_isr
    am_pdm0_isr
    am_pdm1_isr
    am_pdm2_isr
    am_pdm3_isr
    am_rtc_isr
    am_sdio_isr
    am_stimer_cmpr0_isr
    am_stimer_cmpr1_isr
    am_stimer_cmpr2_isr
    am_stimer_cmpr3_isr
    am_stimer_cmpr4_isr
    am_stimer_cmpr5_isr
    am_stimer_cmpr6_isr
    am_stimer_cmpr7_isr
    am_stimerof_isr
    am_timer00_isr
    am_timer01_isr
    am_timer02_isr
    am_timer03_isr
    am_timer04_isr
    am_timer05_isr
    am_timer06_isr
    am_timer07_isr
    am_timer08_isr
    am_timer09_isr
    am_timer10_isr
    am_timer11_isr
    am_timer12_isr
    am_timer13_isr
    am_timer14_isr
    am_timer15_isr
    am_uart1_isr
    am_uart2_isr
    am_uart3_isr
    am_uart_isr
    am_usb_isr
    am_vcomp_isr
        0x0001822e:    e7fe        ..      B        am_cryptosec_isr ; 0x1822e
    $d
        0x00018230:    00018235    5...    DCD    98869
    $t
    !!!main
    __main
        0x00018234:    f000f802    ....    BL       __scatterload ; 0x1823c
        0x00018238:    f000f83c    ..<.    BL       __rt_entry ; 0x182b4
    !!!scatter
    __scatterload
    __scatterload_rt2
    __scatterload_rt2_thumb_only
        0x0001823c:    a00a        ..      ADR      r0,{pc}+0x2c ; 0x18268
        0x0001823e:    e8900c00    ....    LDM      r0,{r10,r11}
        0x00018242:    4482        .D      ADD      r10,r10,r0
        0x00018244:    4483        .D      ADD      r11,r11,r0
        0x00018246:    f1aa0701    ....    SUB      r7,r10,#1
    __scatterload_null
        0x0001824a:    45da        .E      CMP      r10,r11
        0x0001824c:    d101        ..      BNE      0x18252 ; __scatterload_null + 8
        0x0001824e:    f000f831    ..1.    BL       __rt_entry ; 0x182b4
        0x00018252:    f2af0e09    ....    ADR      lr,{pc}-7 ; 0x1824b
        0x00018256:    e8ba000f    ....    LDM      r10!,{r0-r3}
        0x0001825a:    f0130f01    ....    TST      r3,#1
        0x0001825e:    bf18        ..      IT       NE
        0x00018260:    1afb        ..      SUBNE    r3,r7,r3
        0x00018262:    f0430301    C...    ORR      r3,r3,#1
        0x00018266:    4718        .G      BX       r3
    $d
        0x00018268:    00002a84    .*..    DCD    10884
        0x0001826c:    00002ab4    .*..    DCD    10932
    $t
    !!handler_copy
    __scatterload_copy
        0x00018270:    3a10        .:      SUBS     r2,r2,#0x10
        0x00018272:    bf24        $.      ITT      CS
        0x00018274:    c878        x.      LDMCS    r0!,{r3-r6}
        0x00018276:    c178        x.      STMCS    r1!,{r3-r6}
        0x00018278:    d8fa        ..      BHI      __scatterload_copy ; 0x18270
        0x0001827a:    0752        R.      LSLS     r2,r2,#29
        0x0001827c:    bf24        $.      ITT      CS
        0x0001827e:    c830        0.      LDMCS    r0!,{r4,r5}
        0x00018280:    c130        0.      STMCS    r1!,{r4,r5}
        0x00018282:    bf44        D.      ITT      MI
        0x00018284:    6804        .h      LDRMI    r4,[r0,#0]
        0x00018286:    600c        .`      STRMI    r4,[r1,#0]
        0x00018288:    4770        pG      BX       lr
        0x0001828a:    0000        ..      MOVS     r0,r0
    !!handler_zi
    __scatterload_zeroinit
        0x0001828c:    2300        .#      MOVS     r3,#0
        0x0001828e:    2400        .$      MOVS     r4,#0
        0x00018290:    2500        .%      MOVS     r5,#0
        0x00018292:    2600        .&      MOVS     r6,#0
        0x00018294:    3a10        .:      SUBS     r2,r2,#0x10
        0x00018296:    bf28        (.      IT       CS
        0x00018298:    c178        x.      STMCS    r1!,{r3-r6}
        0x0001829a:    d8fb        ..      BHI      0x18294 ; __scatterload_zeroinit + 8
        0x0001829c:    0752        R.      LSLS     r2,r2,#29
        0x0001829e:    bf28        (.      IT       CS
        0x000182a0:    c130        0.      STMCS    r1!,{r4,r5}
        0x000182a2:    bf48        H.      IT       MI
        0x000182a4:    600b        .`      STRMI    r3,[r1,#0]
        0x000182a6:    4770        pG      BX       lr
    .ARM.Collect$$libinit$$00000000
    __rt_lib_init
        0x000182a8:    b51f        ..      PUSH     {r0-r4,lr}
    .ARM.Collect$$libinit$$00000001
    __rt_lib_init_fp_1
        0x000182aa:    f002fb90    ....    BL       _fp_init ; 0x1a9ce
    .ARM.Collect$$libinit$$00000004
    .ARM.Collect$$libinit$$0000000A
    .ARM.Collect$$libinit$$0000000C
    .ARM.Collect$$libinit$$0000000E
    .ARM.Collect$$libinit$$00000011
    .ARM.Collect$$libinit$$00000013
    .ARM.Collect$$libinit$$00000015
    .ARM.Collect$$libinit$$00000017
    .ARM.Collect$$libinit$$00000019
    .ARM.Collect$$libinit$$0000001B
    .ARM.Collect$$libinit$$0000001D
    .ARM.Collect$$libinit$$0000001F
    .ARM.Collect$$libinit$$00000021
    .ARM.Collect$$libinit$$00000023
    .ARM.Collect$$libinit$$00000025
    .ARM.Collect$$libinit$$0000002C
    .ARM.Collect$$libinit$$0000002E
    .ARM.Collect$$libinit$$00000030
    .ARM.Collect$$libinit$$00000032
    .ARM.Collect$$libinit$$00000033
    __rt_lib_init_alloca_1
    __rt_lib_init_argv_1
    __rt_lib_init_atexit_1
    __rt_lib_init_clock_1
    __rt_lib_init_cpp_1
    __rt_lib_init_exceptions_1
    __rt_lib_init_fp_trap_1
    __rt_lib_init_getenv_1
    __rt_lib_init_heap_1
    __rt_lib_init_lc_collate_1
    __rt_lib_init_lc_ctype_1
    __rt_lib_init_lc_monetary_1
    __rt_lib_init_lc_numeric_1
    __rt_lib_init_lc_time_1
    __rt_lib_init_preinit_1
    __rt_lib_init_rand_1
    __rt_lib_init_return
    __rt_lib_init_signal_1
    __rt_lib_init_stdio_1
    __rt_lib_init_user_alloc_1
        0x000182ae:    bd1f        ..      POP      {r0-r4,pc}
    .ARM.Collect$$libshutdown$$00000000
    __rt_lib_shutdown
        0x000182b0:    b510        ..      PUSH     {r4,lr}
    .ARM.Collect$$libshutdown$$00000002
    .ARM.Collect$$libshutdown$$00000004
    .ARM.Collect$$libshutdown$$00000007
    .ARM.Collect$$libshutdown$$0000000A
    .ARM.Collect$$libshutdown$$0000000C
    .ARM.Collect$$libshutdown$$0000000F
    .ARM.Collect$$libshutdown$$00000010
    __rt_lib_shutdown_cpp_1
    __rt_lib_shutdown_fp_trap_1
    __rt_lib_shutdown_heap_1
    __rt_lib_shutdown_return
    __rt_lib_shutdown_signal_1
    __rt_lib_shutdown_stdio_1
    __rt_lib_shutdown_user_alloc_1
        0x000182b2:    bd10        ..      POP      {r4,pc}
    .ARM.Collect$$rtentry$$00000000
    .ARM.Collect$$rtentry$$00000002
    .ARM.Collect$$rtentry$$00000004
    __rt_entry
    __rt_entry_presh_1
    __rt_entry_sh
        0x000182b4:    f000f81d    ....    BL       __user_setup_stackheap ; 0x182f2
        0x000182b8:    4611        .F      MOV      r1,r2
    .ARM.Collect$$rtentry$$00000009
    .ARM.Collect$$rtentry$$0000000A
    __rt_entry_li
    __rt_entry_postsh_1
        0x000182ba:    f7fffff5    ....    BL       __rt_lib_init ; 0x182a8
    .ARM.Collect$$rtentry$$0000000C
    .ARM.Collect$$rtentry$$0000000D
    __rt_entry_main
    __rt_entry_postli_1
        0x000182be:    f002f969    ..i.    BL       main ; 0x1a594
        0x000182c2:    f000f83b    ..;.    BL       exit ; 0x1833c
    .ARM.Collect$$rtexit$$00000000
    __rt_exit
        0x000182c6:    b403        ..      PUSH     {r0,r1}
    .ARM.Collect$$rtexit$$00000002
    .ARM.Collect$$rtexit$$00000003
    __rt_exit_ls
    __rt_exit_prels_1
        0x000182c8:    f7fffff2    ....    BL       __rt_lib_shutdown ; 0x182b0
    .ARM.Collect$$rtexit$$00000004
    __rt_exit_exit
        0x000182cc:    bc03        ..      POP      {r0,r1}
        0x000182ce:    f000f843    ..C.    BL       _sys_exit ; 0x18358
        0x000182d2:    0000        ..      MOVS     r0,r0
    .text
    $v0
    __user_initial_stackheap
        0x000182d4:    4802        .H      LDR      r0,[pc,#8] ; [0x182e0] = 0x100006f0
        0x000182d6:    4903        .I      LDR      r1,[pc,#12] ; [0x182e4] = 0x100016f0
        0x000182d8:    4a01        .J      LDR      r2,[pc,#4] ; [0x182e0] = 0x100006f0
        0x000182da:    4b03        .K      LDR      r3,[pc,#12] ; [0x182e8] = 0x100006f0
        0x000182dc:    4770        pG      BX       lr
    $d
        0x000182de:    0000        ..      DCW    0
        0x000182e0:    100006f0    ....    DCD    268437232
        0x000182e4:    100016f0    ....    DCD    268441328
        0x000182e8:    100006f0    ....    DCD    268437232
    $t
    .text
    __use_two_region_memory
        0x000182ec:    4770        pG      BX       lr
    __rt_heap_escrow$2region
        0x000182ee:    4770        pG      BX       lr
    __rt_heap_expand$2region
        0x000182f0:    4770        pG      BX       lr
    .text
    __user_setup_stackheap
        0x000182f2:    4675        uF      MOV      r5,lr
        0x000182f4:    f000f82c    ..,.    BL       __user_libspace ; 0x18350
        0x000182f8:    46ae        .F      MOV      lr,r5
        0x000182fa:    0005        ..      MOVS     r5,r0
        0x000182fc:    4669        iF      MOV      r1,sp
        0x000182fe:    4653        SF      MOV      r3,r10
        0x00018300:    f0200007     ...    BIC      r0,r0,#7
        0x00018304:    4685        .F      MOV      sp,r0
        0x00018306:    b018        ..      ADD      sp,sp,#0x60
        0x00018308:    b520         .      PUSH     {r5,lr}
        0x0001830a:    f7ffffe3    ....    BL       __user_initial_stackheap ; 0x182d4
        0x0001830e:    e8bd4020    .. @    POP      {r5,lr}
        0x00018312:    f04f0600    O...    MOV      r6,#0
        0x00018316:    f04f0700    O...    MOV      r7,#0
        0x0001831a:    f04f0800    O...    MOV      r8,#0
        0x0001831e:    f04f0b00    O...    MOV      r11,#0
        0x00018322:    46ac        .F      MOV      r12,r5
        0x00018324:    e8ac09c0    ....    STM      r12!,{r6-r8,r11}
        0x00018328:    e8ac09c0    ....    STM      r12!,{r6-r8,r11}
        0x0001832c:    e8ac09c0    ....    STM      r12!,{r6-r8,r11}
        0x00018330:    e8ac09c0    ....    STM      r12!,{r6-r8,r11}
        0x00018334:    f0210107    !...    BIC      r1,r1,#7
        0x00018338:    468d        .F      MOV      sp,r1
        0x0001833a:    4770        pG      BX       lr
    .text
    exit
        0x0001833c:    b510        ..      PUSH     {r4,lr}
        0x0001833e:    4604        .F      MOV      r4,r0
        0x00018340:    f3af8000    ....    NOP.W    
        0x00018344:    4620         F      MOV      r0,r4
        0x00018346:    e8bd4010    ...@    POP      {r4,lr}
        0x0001834a:    f7ffbfbc    ....    B.W      __rt_exit ; 0x182c6
        0x0001834e:    0000        ..      MOVS     r0,r0
    .text
    __user_libspace
    __user_perproc_libspace
    __user_perthread_libspace
        0x00018350:    4800        .H      LDR      r0,[pc,#0] ; [0x18354] = 0x10000058
        0x00018352:    4770        pG      BX       lr
    $d
        0x00018354:    10000058    X...    DCD    268435544
    $t
    .text
    _sys_exit
        0x00018358:    4901        .I      LDR      r1,[pc,#4] ; [0x18360] = 0x20026
        0x0001835a:    2018        .       MOVS     r0,#0x18
        0x0001835c:    beab        ..      BKPT     #0xab
        0x0001835e:    e7fe        ..      B        0x1835e ; _sys_exit + 6
    $d
        0x00018360:    00020026    &...    DCD    131110
    $t
    .text
    __I$use$semihosting
    __use_no_semihosting_swi
        0x00018364:    4770        pG      BX       lr
    .text
    __semihosting_library_function
        0x00018366:    0000        ..      MOVS     r0,r0
    $t.0
    HardFault_Handler
        0x00018368:    f01e0f04    ....    TST      lr,#4
        0x0001836c:    bf0c        ..      ITE      EQ
        0x0001836e:    f3ef8008    ....    MRSEQ    r0,MSP
        0x00018372:    f3ef8009    ....    MRSNE    r0,PSP
        0x00018376:    4904        .I      LDR      r1,[pc,#16] ; [0x18388] = 0x100000bc
        0x00018378:    f5017100    ...q    ADD      r1,r1,#0x200
        0x0001837c:    f0210103    !...    BIC      r1,r1,#3
        0x00018380:    468d        .F      MOV      sp,r1
        0x00018382:    f001ba21    ..!.    B.W      am_util_faultisr_collect_data ; 0x197c8
        0x00018386:    bf00        ..      NOP      
    $d.4
        0x00018388:    100000bc    ....    DCD    268435644
    $t.17
    TrimVersionGet
        0x0001838c:    b5b0        ..      PUSH     {r4,r5,r7,lr}
        0x0001838e:    f2400548    @.H.    MOVW     r5,#0x48
        0x00018392:    f2c10500    ....    MOVT     r5,#0x1000
        0x00018396:    6829        )h      LDR      r1,[r5,#0]
        0x00018398:    4604        .F      MOV      r4,r0
        0x0001839a:    1c4a        J.      ADDS     r2,r1,#1
        0x0001839c:    d10c        ..      BNE      0x183b8 ; TrimVersionGet + 44
        0x0001839e:    2001        .       MOVS     r0,#1
        0x000183a0:    f24041c4    @..A    MOV      r1,#0x4c4
        0x000183a4:    2201        ."      MOVS     r2,#1
        0x000183a6:    462b        +F      MOV      r3,r5
        0x000183a8:    f000fcba    ....    BL       am_hal_mram_info_read ; 0x18d20
        0x000183ac:    b910        ..      CBNZ     r0,0x183b4 ; TrimVersionGet + 40
        0x000183ae:    6829        )h      LDR      r1,[r5,#0]
        0x000183b0:    1c48        H.      ADDS     r0,r1,#1
        0x000183b2:    d101        ..      BNE      0x183b8 ; TrimVersionGet + 44
        0x000183b4:    2100        .!      MOVS     r1,#0
        0x000183b6:    6029        )`      STR      r1,[r5,#0]
        0x000183b8:    b104        ..      CBZ      r4,0x183bc ; TrimVersionGet + 48
        0x000183ba:    6021        !`      STR      r1,[r4,#0]
        0x000183bc:    bdb0        ..      POP      {r4,r5,r7,pc}
        0x000183be:    0000        ..      MOVS     r0,r0
    __NVIC_EnableIRQ
        0x000183c0:    b081        ..      SUB      sp,sp,#4
        0x000183c2:    f88d0003    ....    STRB     r0,[sp,#3]
        0x000183c6:    f99d0003    ....    LDRSB    r0,[sp,#3]
        0x000183ca:    2800        .(      CMP      r0,#0
        0x000183cc:    d40e        ..      BMI      0x183ec ; __NVIC_EnableIRQ + 44
        0x000183ce:    e7ff        ..      B        0x183d0 ; __NVIC_EnableIRQ + 16
        0x000183d0:    f99d1003    ....    LDRSB    r1,[sp,#3]
        0x000183d4:    f001021f    ....    AND      r2,r1,#0x1f
        0x000183d8:    2001        .       MOVS     r0,#1
        0x000183da:    4090        .@      LSLS     r0,r0,r2
        0x000183dc:    094a        J.      LSRS     r2,r1,#5
        0x000183de:    f24e1100    N...    MOVW     r1,#0xe100
        0x000183e2:    f2ce0100    ....    MOVT     r1,#0xe000
        0x000183e6:    f8410022    A.".    STR      r0,[r1,r2,LSL #2]
        0x000183ea:    e7ff        ..      B        0x183ec ; __NVIC_EnableIRQ + 44
        0x000183ec:    b001        ..      ADD      sp,sp,#4
        0x000183ee:    4770        pG      BX       lr
    __NVIC_SetPriority
        0x000183f0:    b082        ..      SUB      sp,sp,#8
        0x000183f2:    f88d0007    ....    STRB     r0,[sp,#7]
        0x000183f6:    9100        ..      STR      r1,[sp,#0]
        0x000183f8:    f99d0007    ....    LDRSB    r0,[sp,#7]
        0x000183fc:    2800        .(      CMP      r0,#0
        0x000183fe:    d40a        ..      BMI      0x18416 ; __NVIC_SetPriority + 38
        0x00018400:    e7ff        ..      B        0x18402 ; __NVIC_SetPriority + 18
        0x00018402:    9800        ..      LDR      r0,[sp,#0]
        0x00018404:    0140        @.      LSLS     r0,r0,#5
        0x00018406:    f99d1007    ....    LDRSB    r1,[sp,#7]
        0x0001840a:    f24e4200    N..B    MOVW     r2,#0xe400
        0x0001840e:    f2ce0200    ....    MOVT     r2,#0xe000
        0x00018412:    5488        .T      STRB     r0,[r1,r2]
        0x00018414:    e00b        ..      B        0x1842e ; __NVIC_SetPriority + 62
        0x00018416:    9800        ..      LDR      r0,[sp,#0]
        0x00018418:    0140        @.      LSLS     r0,r0,#5
        0x0001841a:    f89d1007    ....    LDRB     r1,[sp,#7]
        0x0001841e:    f001010f    ....    AND      r1,r1,#0xf
        0x00018422:    f64e5214    N..R    MOV      r2,#0xed14
        0x00018426:    f2ce0200    ....    MOVT     r2,#0xe000
        0x0001842a:    5488        .T      STRB     r0,[r1,r2]
        0x0001842c:    e7ff        ..      B        0x1842e ; __NVIC_SetPriority + 62
        0x0001842e:    b002        ..      ADD      sp,sp,#8
        0x00018430:    4770        pG      BX       lr
    am_bsp_itm_printf_enable
        0x00018432:    b5b0        ..      PUSH     {r4,r5,r7,lr}
        0x00018434:    b082        ..      SUB      sp,sp,#8
        0x00018436:    f2410408    A...    MOV      r4,#0x1008
        0x0001843a:    f2c40402    ....    MOVT     r4,#0x4002
        0x0001843e:    6820         h      LDR      r0,[r4,#0]
        0x00018440:    f4101580    ....    ANDS     r5,r0,#0x100000
        0x00018444:    d102        ..      BNE      0x1844c ; am_bsp_itm_printf_enable + 26
        0x00018446:    2012        .       MOVS     r0,#0x12
        0x00018448:    f000ff7c    ..|.    BL       am_hal_pwrctrl_periph_enable ; 0x19344
        0x0001844c:    6820         h      LDR      r0,[r4,#0]
        0x0001844e:    02c0        ..      LSLS     r0,r0,#11
        0x00018450:    d512        ..      BPL      0x18478 ; am_bsp_itm_printf_enable + 70
        0x00018452:    f640207c    @.|     MOV      r0,#0xa7c
        0x00018456:    f2c4000c    ....    MOVT     r0,#0x400c
        0x0001845a:    6800        .h      LDR      r0,[r0,#0]
        0x0001845c:    07c0        ..      LSLS     r0,r0,#31
        0x0001845e:    d00b        ..      BEQ      0x18478 ; am_bsp_itm_printf_enable + 70
        0x00018460:    a801        ..      ADD      r0,sp,#4
        0x00018462:    f000f9f7    ....    BL       am_hal_dcu_get ; 0x18854
        0x00018466:    f89d0004    ....    LDRB     r0,[sp,#4]
        0x0001846a:    06c0        ..      LSLS     r0,r0,#27
        0x0001846c:    d40d        ..      BMI      0x1848a ; am_bsp_itm_printf_enable + 88
        0x0001846e:    2001        .       MOVS     r0,#1
        0x00018470:    2110        .!      MOVS     r1,#0x10
        0x00018472:    f000fa3d    ..=.    BL       am_hal_dcu_update ; 0x188f0
        0x00018476:    b140        @.      CBZ      r0,0x1848a ; am_bsp_itm_printf_enable + 88
        0x00018478:    f04f34ff    O..4    MOV      r4,#0xffffffff
        0x0001847c:    b915        ..      CBNZ     r5,0x18484 ; am_bsp_itm_printf_enable + 82
        0x0001847e:    2012        .       MOVS     r0,#0x12
        0x00018480:    f000fed0    ....    BL       am_hal_pwrctrl_periph_disable ; 0x19224
        0x00018484:    4620         F      MOV      r0,r4
        0x00018486:    b002        ..      ADD      sp,sp,#8
        0x00018488:    bdb0        ..      POP      {r4,r5,r7,pc}
        0x0001848a:    f24020c3    @..     MOV      r0,#0x2c3
        0x0001848e:    f2c10000    ....    MOVT     r0,#0x1000
        0x00018492:    2101        .!      MOVS     r1,#1
        0x00018494:    7001        .p      STRB     r1,[r0,#0]
        0x00018496:    f000fc09    ....    BL       am_hal_itm_enable ; 0x18cac
        0x0001849a:    f2442040    D.@     MOV      r0,#0x4240
        0x0001849e:    f2c0000f    ....    MOVT     r0,#0xf
        0x000184a2:    f001f8df    ....    BL       am_hal_tpiu_enable ; 0x19664
        0x000184a6:    f2400030    @.0.    MOVW     r0,#0x30
        0x000184aa:    f2c10000    ....    MOVT     r0,#0x1000
        0x000184ae:    6801        .h      LDR      r1,[r0,#0]
        0x000184b0:    2018        .       MOVS     r0,#0x18
        0x000184b2:    f000fb27    ..'.    BL       am_hal_gpio_pinconfig ; 0x18b04
        0x000184b6:    f64840f1    H..@    MOV      r0,#0x8cf1
        0x000184ba:    f2c00001    ....    MOVT     r0,#1
        0x000184be:    f001fa1d    ....    BL       am_util_stdio_printf_init ; 0x198fc
        0x000184c2:    2400        .$      MOVS     r4,#0
        0x000184c4:    e7da        ..      B        0x1847c ; am_bsp_itm_printf_enable + 74
    am_bsp_low_power_init
        0x000184c6:    b580        ..      PUSH     {r7,lr}
        0x000184c8:    f000fd3a    ..:.    BL       am_hal_pwrctrl_low_power_init ; 0x18f40
        0x000184cc:    2000        .       MOVS     r0,#0
        0x000184ce:    2100        .!      MOVS     r1,#0
        0x000184d0:    f000fc56    ..V.    BL       am_hal_pwrctrl_control ; 0x18d80
        0x000184d4:    e8bd4080    ...@    POP      {r7,lr}
        0x000184d8:    f001b822    ..".    B.W      am_hal_rtc_osc_disable ; 0x19520
    am_devices_led_array_init
        0x000184dc:    b580        ..      PUSH     {r7,lr}
        0x000184de:    b084        ..      SUB      sp,sp,#0x10
        0x000184e0:    9003        ..      STR      r0,[sp,#0xc]
        0x000184e2:    9102        ..      STR      r1,[sp,#8]
        0x000184e4:    9803        ..      LDR      r0,[sp,#0xc]
        0x000184e6:    b120         .      CBZ      r0,0x184f2 ; am_devices_led_array_init + 22
        0x000184e8:    e7ff        ..      B        0x184ea ; am_devices_led_array_init + 14
        0x000184ea:    9802        ..      LDR      r0,[sp,#8]
        0x000184ec:    2820         (      CMP      r0,#0x20
        0x000184ee:    d301        ..      BCC      0x184f4 ; am_devices_led_array_init + 24
        0x000184f0:    e7ff        ..      B        0x184f2 ; am_devices_led_array_init + 22
        0x000184f2:    e012        ..      B        0x1851a ; am_devices_led_array_init + 62
        0x000184f4:    2000        .       MOVS     r0,#0
        0x000184f6:    9001        ..      STR      r0,[sp,#4]
        0x000184f8:    e7ff        ..      B        0x184fa ; am_devices_led_array_init + 30
        0x000184fa:    9801        ..      LDR      r0,[sp,#4]
        0x000184fc:    9902        ..      LDR      r1,[sp,#8]
        0x000184fe:    4288        .B      CMP      r0,r1
        0x00018500:    d20b        ..      BCS      0x1851a ; am_devices_led_array_init + 62
        0x00018502:    e7ff        ..      B        0x18504 ; am_devices_led_array_init + 40
        0x00018504:    9803        ..      LDR      r0,[sp,#0xc]
        0x00018506:    9901        ..      LDR      r1,[sp,#4]
        0x00018508:    eb0000c1    ....    ADD      r0,r0,r1,LSL #3
        0x0001850c:    f000f808    ....    BL       am_devices_led_init ; 0x18520
        0x00018510:    e7ff        ..      B        0x18512 ; am_devices_led_array_init + 54
        0x00018512:    9801        ..      LDR      r0,[sp,#4]
        0x00018514:    3001        .0      ADDS     r0,#1
        0x00018516:    9001        ..      STR      r0,[sp,#4]
        0x00018518:    e7ef        ..      B        0x184fa ; am_devices_led_array_init + 30
        0x0001851a:    b004        ..      ADD      sp,sp,#0x10
        0x0001851c:    bd80        ..      POP      {r7,pc}
        0x0001851e:    0000        ..      MOVS     r0,r0
    am_devices_led_init
        0x00018520:    b580        ..      PUSH     {r7,lr}
        0x00018522:    b082        ..      SUB      sp,sp,#8
        0x00018524:    9001        ..      STR      r0,[sp,#4]
        0x00018526:    9801        ..      LDR      r0,[sp,#4]
        0x00018528:    b128        (.      CBZ      r0,0x18536 ; am_devices_led_init + 22
        0x0001852a:    e7ff        ..      B        0x1852c ; am_devices_led_init + 12
        0x0001852c:    9801        ..      LDR      r0,[sp,#4]
        0x0001852e:    6800        .h      LDR      r0,[r0,#0]
        0x00018530:    2880        .(      CMP      r0,#0x80
        0x00018532:    d301        ..      BCC      0x18538 ; am_devices_led_init + 24
        0x00018534:    e7ff        ..      B        0x18536 ; am_devices_led_init + 22
        0x00018536:    e04e        N.      B        0x185d6 ; am_devices_led_init + 182
        0x00018538:    9801        ..      LDR      r0,[sp,#4]
        0x0001853a:    7900        .y      LDRB     r0,[r0,#4]
        0x0001853c:    0780        ..      LSLS     r0,r0,#30
        0x0001853e:    2800        .(      CMP      r0,#0
        0x00018540:    d516        ..      BPL      0x18570 ; am_devices_led_init + 80
        0x00018542:    e7ff        ..      B        0x18544 ; am_devices_led_init + 36
        0x00018544:    9801        ..      LDR      r0,[sp,#4]
        0x00018546:    6800        .h      LDR      r0,[r0,#0]
        0x00018548:    f64a2100    J..!    MOVW     r1,#0xaa00
        0x0001854c:    f2c00101    ....    MOVT     r1,#1
        0x00018550:    6809        .h      LDR      r1,[r1,#0]
        0x00018552:    f000fad7    ....    BL       am_hal_gpio_pinconfig ; 0x18b04
        0x00018556:    9801        ..      LDR      r0,[sp,#4]
        0x00018558:    6800        .h      LDR      r0,[r0,#0]
        0x0001855a:    2103        .!      MOVS     r1,#3
        0x0001855c:    f000fb1a    ....    BL       am_hal_gpio_state_write ; 0x18b94
        0x00018560:    9901        ..      LDR      r1,[sp,#4]
        0x00018562:    6808        .h      LDR      r0,[r1,#0]
        0x00018564:    6849        Ih      LDR      r1,[r1,#4]
        0x00018566:    f0010101    ....    AND      r1,r1,#1
        0x0001856a:    f000fb13    ....    BL       am_hal_gpio_state_write ; 0x18b94
        0x0001856e:    e032        2.      B        0x185d6 ; am_devices_led_init + 182
        0x00018570:    9801        ..      LDR      r0,[sp,#4]
        0x00018572:    7900        .y      LDRB     r0,[r0,#4]
        0x00018574:    0740        @.      LSLS     r0,r0,#29
        0x00018576:    2800        .(      CMP      r0,#0
        0x00018578:    d516        ..      BPL      0x185a8 ; am_devices_led_init + 136
        0x0001857a:    e7ff        ..      B        0x1857c ; am_devices_led_init + 92
        0x0001857c:    9801        ..      LDR      r0,[sp,#4]
        0x0001857e:    6800        .h      LDR      r0,[r0,#0]
        0x00018580:    f64a11fc    J...    MOV      r1,#0xa9fc
        0x00018584:    f2c00101    ....    MOVT     r1,#1
        0x00018588:    6809        .h      LDR      r1,[r1,#0]
        0x0001858a:    f000fabb    ....    BL       am_hal_gpio_pinconfig ; 0x18b04
        0x0001858e:    9801        ..      LDR      r0,[sp,#4]
        0x00018590:    6800        .h      LDR      r0,[r0,#0]
        0x00018592:    2103        .!      MOVS     r1,#3
        0x00018594:    f000fafe    ....    BL       am_hal_gpio_state_write ; 0x18b94
        0x00018598:    9901        ..      LDR      r1,[sp,#4]
        0x0001859a:    6808        .h      LDR      r0,[r1,#0]
        0x0001859c:    6849        Ih      LDR      r1,[r1,#4]
        0x0001859e:    f0010101    ....    AND      r1,r1,#1
        0x000185a2:    f000faf7    ....    BL       am_hal_gpio_state_write ; 0x18b94
        0x000185a6:    e015        ..      B        0x185d4 ; am_devices_led_init + 180
        0x000185a8:    9801        ..      LDR      r0,[sp,#4]
        0x000185aa:    6800        .h      LDR      r0,[r0,#0]
        0x000185ac:    f64a2104    J..!    MOV      r1,#0xaa04
        0x000185b0:    f2c00101    ....    MOVT     r1,#1
        0x000185b4:    6809        .h      LDR      r1,[r1,#0]
        0x000185b6:    f000faa5    ....    BL       am_hal_gpio_pinconfig ; 0x18b04
        0x000185ba:    9801        ..      LDR      r0,[sp,#4]
        0x000185bc:    6800        .h      LDR      r0,[r0,#0]
        0x000185be:    2103        .!      MOVS     r1,#3
        0x000185c0:    f000fae8    ....    BL       am_hal_gpio_state_write ; 0x18b94
        0x000185c4:    9901        ..      LDR      r1,[sp,#4]
        0x000185c6:    6808        .h      LDR      r0,[r1,#0]
        0x000185c8:    6849        Ih      LDR      r1,[r1,#4]
        0x000185ca:    f0010101    ....    AND      r1,r1,#1
        0x000185ce:    f000fae1    ....    BL       am_hal_gpio_state_write ; 0x18b94
        0x000185d2:    e7ff        ..      B        0x185d4 ; am_devices_led_init + 180
        0x000185d4:    e7ff        ..      B        0x185d6 ; am_devices_led_init + 182
        0x000185d6:    b002        ..      ADD      sp,sp,#8
        0x000185d8:    bd80        ..      POP      {r7,pc}
        0x000185da:    0000        ..      MOVS     r0,r0
    am_devices_led_off
        0x000185dc:    b580        ..      PUSH     {r7,lr}
        0x000185de:    b082        ..      SUB      sp,sp,#8
        0x000185e0:    9001        ..      STR      r0,[sp,#4]
        0x000185e2:    9100        ..      STR      r1,[sp,#0]
        0x000185e4:    9801        ..      LDR      r0,[sp,#4]
        0x000185e6:    b158        X.      CBZ      r0,0x18600 ; am_devices_led_off + 36
        0x000185e8:    e7ff        ..      B        0x185ea ; am_devices_led_off + 14
        0x000185ea:    9800        ..      LDR      r0,[sp,#0]
        0x000185ec:    281e        .(      CMP      r0,#0x1e
        0x000185ee:    d807        ..      BHI      0x18600 ; am_devices_led_off + 36
        0x000185f0:    e7ff        ..      B        0x185f2 ; am_devices_led_off + 22
        0x000185f2:    9801        ..      LDR      r0,[sp,#4]
        0x000185f4:    9900        ..      LDR      r1,[sp,#0]
        0x000185f6:    f8500031    P.1.    LDR      r0,[r0,r1,LSL #3]
        0x000185fa:    2880        .(      CMP      r0,#0x80
        0x000185fc:    d301        ..      BCC      0x18602 ; am_devices_led_off + 38
        0x000185fe:    e7ff        ..      B        0x18600 ; am_devices_led_off + 36
        0x00018600:    e02f        /.      B        0x18662 ; am_devices_led_off + 134
        0x00018602:    9801        ..      LDR      r0,[sp,#4]
        0x00018604:    9900        ..      LDR      r1,[sp,#0]
        0x00018606:    eb0000c1    ....    ADD      r0,r0,r1,LSL #3
        0x0001860a:    7900        .y      LDRB     r0,[r0,#4]
        0x0001860c:    0780        ..      LSLS     r0,r0,#30
        0x0001860e:    2800        .(      CMP      r0,#0
        0x00018610:    d50c        ..      BPL      0x1862c ; am_devices_led_off + 80
        0x00018612:    e7ff        ..      B        0x18614 ; am_devices_led_off + 56
        0x00018614:    9801        ..      LDR      r0,[sp,#4]
        0x00018616:    9a00        ..      LDR      r2,[sp,#0]
        0x00018618:    eb0001c2    ....    ADD      r1,r0,r2,LSL #3
        0x0001861c:    f8500032    P.2.    LDR      r0,[r0,r2,LSL #3]
        0x00018620:    684a        Jh      LDR      r2,[r1,#4]
        0x00018622:    2101        .!      MOVS     r1,#1
        0x00018624:    4391        .C      BICS     r1,r1,r2
        0x00018626:    f000fab5    ....    BL       am_hal_gpio_state_write ; 0x18b94
        0x0001862a:    e01a        ..      B        0x18662 ; am_devices_led_off + 134
        0x0001862c:    9801        ..      LDR      r0,[sp,#4]
        0x0001862e:    7900        .y      LDRB     r0,[r0,#4]
        0x00018630:    0740        @.      LSLS     r0,r0,#29
        0x00018632:    2800        .(      CMP      r0,#0
        0x00018634:    d50c        ..      BPL      0x18650 ; am_devices_led_off + 116
        0x00018636:    e7ff        ..      B        0x18638 ; am_devices_led_off + 92
        0x00018638:    9801        ..      LDR      r0,[sp,#4]
        0x0001863a:    9a00        ..      LDR      r2,[sp,#0]
        0x0001863c:    eb0001c2    ....    ADD      r1,r0,r2,LSL #3
        0x00018640:    f8500032    P.2.    LDR      r0,[r0,r2,LSL #3]
        0x00018644:    684a        Jh      LDR      r2,[r1,#4]
        0x00018646:    2101        .!      MOVS     r1,#1
        0x00018648:    4391        .C      BICS     r1,r1,r2
        0x0001864a:    f000faa3    ....    BL       am_hal_gpio_state_write ; 0x18b94
        0x0001864e:    e007        ..      B        0x18660 ; am_devices_led_off + 132
        0x00018650:    9801        ..      LDR      r0,[sp,#4]
        0x00018652:    9900        ..      LDR      r1,[sp,#0]
        0x00018654:    f8500031    P.1.    LDR      r0,[r0,r1,LSL #3]
        0x00018658:    2103        .!      MOVS     r1,#3
        0x0001865a:    f000fa9b    ....    BL       am_hal_gpio_state_write ; 0x18b94
        0x0001865e:    e7ff        ..      B        0x18660 ; am_devices_led_off + 132
        0x00018660:    e7ff        ..      B        0x18662 ; am_devices_led_off + 134
        0x00018662:    b002        ..      ADD      sp,sp,#8
        0x00018664:    bd80        ..      POP      {r7,pc}
        0x00018666:    0000        ..      MOVS     r0,r0
    am_devices_led_on
        0x00018668:    b580        ..      PUSH     {r7,lr}
        0x0001866a:    b082        ..      SUB      sp,sp,#8
        0x0001866c:    9001        ..      STR      r0,[sp,#4]
        0x0001866e:    9100        ..      STR      r1,[sp,#0]
        0x00018670:    9801        ..      LDR      r0,[sp,#4]
        0x00018672:    b158        X.      CBZ      r0,0x1868c ; am_devices_led_on + 36
        0x00018674:    e7ff        ..      B        0x18676 ; am_devices_led_on + 14
        0x00018676:    9800        ..      LDR      r0,[sp,#0]
        0x00018678:    281e        .(      CMP      r0,#0x1e
        0x0001867a:    d807        ..      BHI      0x1868c ; am_devices_led_on + 36
        0x0001867c:    e7ff        ..      B        0x1867e ; am_devices_led_on + 22
        0x0001867e:    9801        ..      LDR      r0,[sp,#4]
        0x00018680:    9900        ..      LDR      r1,[sp,#0]
        0x00018682:    f8500031    P.1.    LDR      r0,[r0,r1,LSL #3]
        0x00018686:    2880        .(      CMP      r0,#0x80
        0x00018688:    d301        ..      BCC      0x1868e ; am_devices_led_on + 38
        0x0001868a:    e7ff        ..      B        0x1868c ; am_devices_led_on + 36
        0x0001868c:    e02f        /.      B        0x186ee ; am_devices_led_on + 134
        0x0001868e:    9801        ..      LDR      r0,[sp,#4]
        0x00018690:    9900        ..      LDR      r1,[sp,#0]
        0x00018692:    eb0000c1    ....    ADD      r0,r0,r1,LSL #3
        0x00018696:    7900        .y      LDRB     r0,[r0,#4]
        0x00018698:    0780        ..      LSLS     r0,r0,#30
        0x0001869a:    2800        .(      CMP      r0,#0
        0x0001869c:    d50c        ..      BPL      0x186b8 ; am_devices_led_on + 80
        0x0001869e:    e7ff        ..      B        0x186a0 ; am_devices_led_on + 56
        0x000186a0:    9801        ..      LDR      r0,[sp,#4]
        0x000186a2:    9a00        ..      LDR      r2,[sp,#0]
        0x000186a4:    eb0001c2    ....    ADD      r1,r0,r2,LSL #3
        0x000186a8:    f8500032    P.2.    LDR      r0,[r0,r2,LSL #3]
        0x000186ac:    6849        Ih      LDR      r1,[r1,#4]
        0x000186ae:    f0010101    ....    AND      r1,r1,#1
        0x000186b2:    f000fa6f    ..o.    BL       am_hal_gpio_state_write ; 0x18b94
        0x000186b6:    e01a        ..      B        0x186ee ; am_devices_led_on + 134
        0x000186b8:    9801        ..      LDR      r0,[sp,#4]
        0x000186ba:    7900        .y      LDRB     r0,[r0,#4]
        0x000186bc:    0740        @.      LSLS     r0,r0,#29
        0x000186be:    2800        .(      CMP      r0,#0
        0x000186c0:    d50c        ..      BPL      0x186dc ; am_devices_led_on + 116
        0x000186c2:    e7ff        ..      B        0x186c4 ; am_devices_led_on + 92
        0x000186c4:    9801        ..      LDR      r0,[sp,#4]
        0x000186c6:    9a00        ..      LDR      r2,[sp,#0]
        0x000186c8:    eb0001c2    ....    ADD      r1,r0,r2,LSL #3
        0x000186cc:    f8500032    P.2.    LDR      r0,[r0,r2,LSL #3]
        0x000186d0:    6849        Ih      LDR      r1,[r1,#4]
        0x000186d2:    f0010101    ....    AND      r1,r1,#1
        0x000186d6:    f000fa5d    ..].    BL       am_hal_gpio_state_write ; 0x18b94
        0x000186da:    e007        ..      B        0x186ec ; am_devices_led_on + 132
        0x000186dc:    9801        ..      LDR      r0,[sp,#4]
        0x000186de:    9900        ..      LDR      r1,[sp,#0]
        0x000186e0:    f8500031    P.1.    LDR      r0,[r0,r1,LSL #3]
        0x000186e4:    2104        .!      MOVS     r1,#4
        0x000186e6:    f000fa55    ..U.    BL       am_hal_gpio_state_write ; 0x18b94
        0x000186ea:    e7ff        ..      B        0x186ec ; am_devices_led_on + 132
        0x000186ec:    e7ff        ..      B        0x186ee ; am_devices_led_on + 134
        0x000186ee:    b002        ..      ADD      sp,sp,#8
        0x000186f0:    bd80        ..      POP      {r7,pc}
    am_hal_cachectrl_config
        0x000186f2:    b5b0        ..      PUSH     {r4,r5,r7,lr}
        0x000186f4:    b082        ..      SUB      sp,sp,#8
        0x000186f6:    4604        .F      MOV      r4,r0
        0x000186f8:    f000facc    ....    BL       am_hal_interrupt_master_disable ; 0x18c94
        0x000186fc:    9001        ..      STR      r0,[sp,#4]
        0x000186fe:    f04f4590    O..E    MOV      r5,#0x48000000
        0x00018702:    6828        (h      LDR      r0,[r5,#0]
        0x00018704:    f4207040     .@p    BIC      r0,r0,#0x300
        0x00018708:    6028        (`      STR      r0,[r5,#0]
        0x0001870a:    9801        ..      LDR      r0,[sp,#4]
        0x0001870c:    f000faca    ....    BL       am_hal_interrupt_master_set ; 0x18ca4
        0x00018710:    78a1        .x      LDRB     r1,[r4,#2]
        0x00018712:    7820         x      LDRB     r0,[r4,#0]
        0x00018714:    7862        bx      LDRB     r2,[r4,#1]
        0x00018716:    0049        I.      LSLS     r1,r1,#1
        0x00018718:    b2c9        ..      UXTB     r1,r1
        0x0001871a:    f0020203    ....    AND      r2,r2,#3
        0x0001871e:    f3601107    `...    BFI      r1,r0,#4,#4
        0x00018722:    ea412002    A..     ORR      r0,r1,r2,LSL #8
        0x00018726:    f4401080    @...    ORR      r0,r0,#0x100000
        0x0001872a:    f4406180    @..a    ORR      r1,r0,#0x400
        0x0001872e:    2000        .       MOVS     r0,#0
        0x00018730:    6029        )`      STR      r1,[r5,#0]
        0x00018732:    b002        ..      ADD      sp,sp,#8
        0x00018734:    bdb0        ..      POP      {r4,r5,r7,pc}
    am_hal_cachectrl_enable
        0x00018736:    f04f4090    O..@    MOV      r0,#0x48000000
        0x0001873a:    6801        .h      LDR      r1,[r0,#0]
        0x0001873c:    f0410101    A...    ORR      r1,r1,#1
        0x00018740:    6001        .`      STR      r1,[r0,#0]
        0x00018742:    2108        .!      MOVS     r1,#8
        0x00018744:    f6c40100    ....    MOVT     r1,#0x4800
        0x00018748:    6808        .h      LDR      r0,[r1,#0]
        0x0001874a:    f0400201    @...    ORR      r2,r0,#1
        0x0001874e:    2000        .       MOVS     r0,#0
        0x00018750:    600a        .`      STR      r2,[r1,#0]
        0x00018752:    4770        pG      BX       lr
    am_hal_daxi_config
        0x00018754:    b5b0        ..      PUSH     {r4,r5,r7,lr}
        0x00018756:    b082        ..      SUB      sp,sp,#8
        0x00018758:    2550        P%      MOVS     r5,#0x50
        0x0001875a:    4604        .F      MOV      r4,r0
        0x0001875c:    f6c40500    ....    MOVT     r5,#0x4800
        0x00018760:    f000fa98    ....    BL       am_hal_interrupt_master_disable ; 0x18c94
        0x00018764:    9001        ..      STR      r0,[sp,#4]
        0x00018766:    2001        .       MOVS     r0,#1
        0x00018768:    f000f828    ..(.    BL       am_hal_daxi_control ; 0x187bc
        0x0001876c:    b1cc        ..      CBZ      r4,0x187a2 ; am_hal_daxi_config + 78
        0x0001876e:    7860        `x      LDRB     r0,[r4,#1]
        0x00018770:    7922        "y      LDRB     r2,[r4,#4]
        0x00018772:    78a1        .x      LDRB     r1,[r4,#2]
        0x00018774:    78e3        .x      LDRB     r3,[r4,#3]
        0x00018776:    f0020201    ....    AND      r2,r2,#1
        0x0001877a:    f000007f    ....    AND      r0,r0,#0x7f
        0x0001877e:    ea420040    B.@.    ORR      r0,r2,r0,LSL #1
        0x00018782:    f363200b    c..     BFI      r0,r3,#8,#4
        0x00018786:    f001011f    ....    AND      r1,r1,#0x1f
        0x0001878a:    ea404001    @..@    ORR      r0,r0,r1,LSL #16
        0x0001878e:    6028        (`      STR      r0,[r5,#0]
        0x00018790:    7920         y      LDRB     r0,[r4,#4]
        0x00018792:    f2400118    @...    MOVW     r1,#0x18
        0x00018796:    f2c10100    ....    MOVT     r1,#0x1000
        0x0001879a:    7108        .q      STRB     r0,[r1,#4]
        0x0001879c:    6820         h      LDR      r0,[r4,#0]
        0x0001879e:    6008        .`      STR      r0,[r1,#0]
        0x000187a0:    e001        ..      B        0x187a6 ; am_hal_daxi_config + 82
        0x000187a2:    2006        .       MOVS     r0,#6
        0x000187a4:    6028        (`      STR      r0,[r5,#0]
        0x000187a6:    2000        .       MOVS     r0,#0
        0x000187a8:    f2c470ff    ...p    MOVT     r0,#0x47ff
        0x000187ac:    6800        .h      LDR      r0,[r0,#0]
        0x000187ae:    9801        ..      LDR      r0,[sp,#4]
        0x000187b0:    f000fa78    ..x.    BL       am_hal_interrupt_master_set ; 0x18ca4
        0x000187b4:    2000        .       MOVS     r0,#0
        0x000187b6:    b002        ..      ADD      sp,sp,#8
        0x000187b8:    bdb0        ..      POP      {r4,r5,r7,pc}
        0x000187ba:    0000        ..      MOVS     r0,r0
    am_hal_daxi_control
        0x000187bc:    b510        ..      PUSH     {r4,lr}
        0x000187be:    b082        ..      SUB      sp,sp,#8
        0x000187c0:    2803        .(      CMP      r0,#3
        0x000187c2:    d821        !.      BHI      0x18808 ; am_hal_daxi_control + 76
        0x000187c4:    e8dff000    ....    TBB      [pc,r0]
    $d.9
        0x000187c8:    19142202    ."..    DCD    420749826
    $t.10
        0x000187cc:    2054        T       MOVS     r0,#0x54
        0x000187ce:    f6c40000    ....    MOVT     r0,#0x4800
        0x000187d2:    f8501c04    P...    LDR      r1,[r0,#-4]
        0x000187d6:    0749        I.      LSLS     r1,r1,#29
        0x000187d8:    d438        8.      BMI      0x1884c ; am_hal_daxi_control + 144
        0x000187da:    f3bf8f4f    ..O.    DSB      
        0x000187de:    6801        .h      LDR      r1,[r0,#0]
        0x000187e0:    f0410102    A...    ORR      r1,r1,#2
        0x000187e4:    6001        .`      STR      r1,[r0,#0]
        0x000187e6:    2000        .       MOVS     r0,#0
        0x000187e8:    f2c470ff    ...p    MOVT     r0,#0x47ff
        0x000187ec:    6800        .h      LDR      r0,[r0,#0]
        0x000187ee:    e02d        -.      B        0x1884c ; am_hal_daxi_control + 144
        0x000187f0:    2000        .       MOVS     r0,#0
        0x000187f2:    2400        .$      MOVS     r4,#0
        0x000187f4:    f7ffffae    ....    BL       am_hal_daxi_config ; 0x18754
        0x000187f8:    e029        ).      B        0x1884e ; am_hal_daxi_control + 146
        0x000187fa:    f2400018    @...    MOVW     r0,#0x18
        0x000187fe:    f2c10000    ....    MOVT     r0,#0x1000
        0x00018802:    f7ffffa7    ....    BL       am_hal_daxi_config ; 0x18754
        0x00018806:    e021        !.      B        0x1884c ; am_hal_daxi_control + 144
        0x00018808:    2406        .$      MOVS     r4,#6
        0x0001880a:    e020         .      B        0x1884e ; am_hal_daxi_control + 146
        0x0001880c:    2454        T$      MOVS     r4,#0x54
        0x0001880e:    f6c40400    ....    MOVT     r4,#0x4800
        0x00018812:    f000fa3f    ..?.    BL       am_hal_interrupt_master_disable ; 0x18c94
        0x00018816:    9001        ..      STR      r0,[sp,#4]
        0x00018818:    f8540c04    T...    LDR      r0,[r4,#-4]
        0x0001881c:    0740        @.      LSLS     r0,r0,#29
        0x0001881e:    d40f        ..      BMI      0x18840 ; am_hal_daxi_control + 132
        0x00018820:    f3bf8f4f    ..O.    DSB      
        0x00018824:    6820         h      LDR      r0,[r4,#0]
        0x00018826:    f0400001    @...    ORR      r0,r0,#1
        0x0001882a:    6020         `      STR      r0,[r4,#0]
        0x0001882c:    2000        .       MOVS     r0,#0
        0x0001882e:    f2c470ff    ...p    MOVT     r0,#0x47ff
        0x00018832:    6801        .h      LDR      r1,[r0,#0]
        0x00018834:    6821        !h      LDR      r1,[r4,#0]
        0x00018836:    f0410102    A...    ORR      r1,r1,#2
        0x0001883a:    6021        !`      STR      r1,[r4,#0]
        0x0001883c:    6800        .h      LDR      r0,[r0,#0]
        0x0001883e:    bf00        ..      NOP      
        0x00018840:    6820         h      LDR      r0,[r4,#0]
        0x00018842:    0740        @.      LSLS     r0,r0,#29
        0x00018844:    d5fc        ..      BPL      0x18840 ; am_hal_daxi_control + 132
        0x00018846:    9801        ..      LDR      r0,[sp,#4]
        0x00018848:    f000fa2c    ..,.    BL       am_hal_interrupt_master_set ; 0x18ca4
        0x0001884c:    2400        .$      MOVS     r4,#0
        0x0001884e:    4620         F      MOV      r0,r4
        0x00018850:    b002        ..      ADD      sp,sp,#8
        0x00018852:    bd10        ..      POP      {r4,pc}
    am_hal_dcu_get
        0x00018854:    b5b0        ..      PUSH     {r4,r5,r7,lr}
        0x00018856:    b084        ..      SUB      sp,sp,#0x10
        0x00018858:    f2410108    A...    MOV      r1,#0x1008
        0x0001885c:    f2c40102    ....    MOVT     r1,#0x4002
        0x00018860:    6809        .h      LDR      r1,[r1,#0]
        0x00018862:    02c9        ..      LSLS     r1,r1,#11
        0x00018864:    d506        ..      BPL      0x18874 ; am_hal_dcu_get + 32
        0x00018866:    f640217c    @.|!    MOV      r1,#0xa7c
        0x0001886a:    f2c4010c    ....    MOVT     r1,#0x400c
        0x0001886e:    6809        .h      LDR      r1,[r1,#0]
        0x00018870:    07c9        ..      LSLS     r1,r1,#31
        0x00018872:    d101        ..      BNE      0x18878 ; am_hal_dcu_get + 36
        0x00018874:    2007        .       MOVS     r0,#7
        0x00018876:    e038        8.      B        0x188ea ; am_hal_dcu_get + 150
        0x00018878:    f2400150    @.P.    MOVW     r1,#0x50
        0x0001887c:    f2c10100    ....    MOVT     r1,#0x1000
        0x00018880:    6809        .h      LDR      r1,[r1,#0]
        0x00018882:    f24023bc    @..#    MOVW     r3,#0x2bc
        0x00018886:    684a        Jh      LDR      r2,[r1,#4]
        0x00018888:    f2c10300    ....    MOVT     r3,#0x1000
        0x0001888c:    9201        ..      STR      r2,[sp,#4]
        0x0001888e:    6809        .h      LDR      r1,[r1,#0]
        0x00018890:    9102        ..      STR      r1,[sp,#8]
        0x00018892:    681b        .h      LDR      r3,[r3,#0]
        0x00018894:    fa21fc03    !...    LSR      r12,r1,r3
        0x00018898:    f1c30120    .. .    RSB      r1,r3,#0x20
        0x0001889c:    fa02f101    ....    LSL      r1,r2,r1
        0x000188a0:    ea4c0e01    L...    ORR      lr,r12,r1
        0x000188a4:    f1b30120    .. .    SUBS     r1,r3,#0x20
        0x000188a8:    bf58        X.      IT       PL
        0x000188aa:    fa22fe01    "...    LSRPL    lr,r2,r1
        0x000188ae:    fa22f203    "...    LSR      r2,r2,r3
        0x000188b2:    f04f0300    O...    MOV      r3,#0
        0x000188b6:    f04f0c01    O...    MOV      r12,#1
        0x000188ba:    f04f0100    O...    MOV      r1,#0
        0x000188be:    bf58        X.      IT       PL
        0x000188c0:    2200        ."      MOVPL    r2,#0
        0x000188c2:    bf00        ..      NOP      
        0x000188c4:    f00e0407    ....    AND      r4,lr,#7
        0x000188c8:    fa0cf503    ....    LSL      r5,r12,r3
        0x000188cc:    f0940f05    ....    TEQ      r4,#5
        0x000188d0:    bf08        ..      IT       EQ
        0x000188d2:    4329        )C      ORREQ    r1,r1,r5
        0x000188d4:    ea4f05de    O...    LSR      r5,lr,#3
        0x000188d8:    3301        .3      ADDS     r3,#1
        0x000188da:    ea457e42    E.B~    ORR      lr,r5,r2,LSL #29
        0x000188de:    2b14        .+      CMP      r3,#0x14
        0x000188e0:    ea4f02d2    O...    LSR      r2,r2,#3
        0x000188e4:    d1ee        ..      BNE      0x188c4 ; am_hal_dcu_get + 112
        0x000188e6:    6001        .`      STR      r1,[r0,#0]
        0x000188e8:    2000        .       MOVS     r0,#0
        0x000188ea:    b004        ..      ADD      sp,sp,#0x10
        0x000188ec:    bdb0        ..      POP      {r4,r5,r7,pc}
        0x000188ee:    0000        ..      MOVS     r0,r0
    am_hal_dcu_update
        0x000188f0:    e92d41f0    -..A    PUSH     {r4-r8,lr}
        0x000188f4:    b086        ..      SUB      sp,sp,#0x18
        0x000188f6:    f2410208    A...    MOV      r2,#0x1008
        0x000188fa:    f2c40202    ....    MOVT     r2,#0x4002
        0x000188fe:    6812        .h      LDR      r2,[r2,#0]
        0x00018900:    02d2        ..      LSLS     r2,r2,#11
        0x00018902:    d53b        ;.      BPL      0x1897c ; am_hal_dcu_update + 140
        0x00018904:    f6402c7c    @.|,    MOV      r12,#0xa7c
        0x00018908:    f2c40c0c    ....    MOVT     r12,#0x400c
        0x0001890c:    f8dc2000    ...     LDR      r2,[r12,#0]
        0x00018910:    07d2        ..      LSLS     r2,r2,#31
        0x00018912:    f04f0207    O...    MOV      r2,#7
        0x00018916:    d032        2.      BEQ      0x1897e ; am_hal_dcu_update + 142
        0x00018918:    f24023bc    @..#    MOVW     r3,#0x2bc
        0x0001891c:    f2c10300    ....    MOVT     r3,#0x1000
        0x00018920:    f8d38000    ....    LDR      r8,[r3,#0]
        0x00018924:    2500        .%      MOVS     r5,#0
        0x00018926:    2300        .#      MOVS     r3,#0
        0x00018928:    f04f0e00    O...    MOV      lr,#0
        0x0001892c:    078e        ..      LSLS     r6,r1,#30
        0x0001892e:    d511        ..      BPL      0x18954 ; am_hal_dcu_update + 100
        0x00018930:    eb080605    ....    ADD      r6,r8,r5
        0x00018934:    f1c60420    .. .    RSB      r4,r6,#0x20
        0x00018938:    f1b60720    .. .    SUBS     r7,r6,#0x20
        0x0001893c:    fa22f404    "...    LSR      r4,r2,r4
        0x00018940:    fa02f606    ....    LSL      r6,r2,r6
        0x00018944:    bf58        X.      IT       PL
        0x00018946:    fa02f407    ....    LSLPL    r4,r2,r7
        0x0001894a:    bf58        X.      IT       PL
        0x0001894c:    2600        .&      MOVPL    r6,#0
        0x0001894e:    ea4e0e04    N...    ORR      lr,lr,r4
        0x00018952:    4333        3C      ORRS     r3,r3,r6
        0x00018954:    3503        .5      ADDS     r5,#3
        0x00018956:    2d3c        <-      CMP      r5,#0x3c
        0x00018958:    ea4f0151    O.Q.    LSR      r1,r1,#1
        0x0001895c:    d1e6        ..      BNE      0x1892c ; am_hal_dcu_update + 60
        0x0001895e:    f2400154    @.T.    MOVW     r1,#0x54
        0x00018962:    f2c10100    ....    MOVT     r1,#0x1000
        0x00018966:    6809        .h      LDR      r1,[r1,#0]
        0x00018968:    684a        Jh      LDR      r2,[r1,#4]
        0x0001896a:    9201        ..      STR      r2,[sp,#4]
        0x0001896c:    6809        .h      LDR      r1,[r1,#0]
        0x0001896e:    ea02020e    ....    AND      r2,r2,lr
        0x00018972:    ea010403    ....    AND      r4,r1,r3
        0x00018976:    4322        "C      ORRS     r2,r2,r4
        0x00018978:    9102        ..      STR      r1,[sp,#8]
        0x0001897a:    d004        ..      BEQ      0x18986 ; am_hal_dcu_update + 150
        0x0001897c:    2207        ."      MOVS     r2,#7
        0x0001897e:    4610        .F      MOV      r0,r2
        0x00018980:    b006        ..      ADD      sp,sp,#0x18
        0x00018982:    e8bd81f0    ....    POP      {r4-r8,pc}
        0x00018986:    f2400150    @.P.    MOVW     r1,#0x50
        0x0001898a:    f2c10100    ....    MOVT     r1,#0x1000
        0x0001898e:    6809        .h      LDR      r1,[r1,#0]
        0x00018990:    f2400528    @.(.    MOVW     r5,#0x28
        0x00018994:    684a        Jh      LDR      r2,[r1,#4]
        0x00018996:    f2400620    @. .    MOVW     r6,#0x20
        0x0001899a:    9203        ..      STR      r2,[sp,#0xc]
        0x0001899c:    680c        .h      LDR      r4,[r1,#0]
        0x0001899e:    f2c10500    ....    MOVT     r5,#0x1000
        0x000189a2:    f2c10600    ....    MOVT     r6,#0x1000
        0x000189a6:    9404        ..      STR      r4,[sp,#0x10]
        0x000189a8:    2800        .(      CMP      r0,#0
        0x000189aa:    bf18        ..      IT       NE
        0x000189ac:    462e        .F      MOVNE    r6,r5
        0x000189ae:    e9d65000    ...P    LDRD     r5,r0,[r6,#0]
        0x000189b2:    439c        .C      BICS     r4,r4,r3
        0x000189b4:    ea22020e    "...    BIC      r2,r2,lr
        0x000189b8:    402b        +@      ANDS     r3,r3,r5
        0x000189ba:    ea00000e    ....    AND      r0,r0,lr
        0x000189be:    4310        .C      ORRS     r0,r0,r2
        0x000189c0:    ea430204    C...    ORR      r2,r3,r4
        0x000189c4:    e9cd0203    ....    STRD     r0,r2,[sp,#0xc]
        0x000189c8:    9803        ..      LDR      r0,[sp,#0xc]
        0x000189ca:    6048        H`      STR      r0,[r1,#4]
        0x000189cc:    9804        ..      LDR      r0,[sp,#0x10]
        0x000189ce:    6008        .`      STR      r0,[r1,#0]
        0x000189d0:    f8dc0000    ....    LDR      r0,[r12,#0]
        0x000189d4:    07c0        ..      LSLS     r0,r0,#31
        0x000189d6:    d0fb        ..      BEQ      0x189d0 ; am_hal_dcu_update + 224
        0x000189d8:    2200        ."      MOVS     r2,#0
        0x000189da:    e7d0        ..      B        0x1897e ; am_hal_dcu_update + 142
    am_hal_delay_us
        0x000189dc:    f2410100    A...    MOVW     r1,#0x1000
        0x000189e0:    f2c40102    ....    MOVT     r1,#0x4002
        0x000189e4:    6809        .h      LDR      r1,[r1,#0]
        0x000189e6:    2205        ."      MOVS     r2,#5
        0x000189e8:    f0010118    ....    AND      r1,r1,#0x18
        0x000189ec:    2910        .)      CMP      r1,#0x10
        0x000189ee:    bf08        ..      IT       EQ
        0x000189f0:    2206        ."      MOVEQ    r2,#6
        0x000189f2:    fa00f002    ....    LSL      r0,r0,r2
        0x000189f6:    f04f010f    O...    MOV      r1,#0xf
        0x000189fa:    bf08        ..      IT       EQ
        0x000189fc:    2115        .!      MOVEQ    r1,#0x15
        0x000189fe:    4281        .B      CMP      r1,r0
        0x00018a00:    bf28        (.      IT       CS
        0x00018a02:    4770        pG      BXCS     lr
        0x00018a04:    1a40        @.      SUBS     r0,r0,r1
        0x00018a06:    f64a31b4    J..1    MOV      r1,#0xabb4
        0x00018a0a:    f2c00101    ....    MOVT     r1,#1
        0x00018a0e:    6a49        Ij      LDR      r1,[r1,#0x24]
        0x00018a10:    4708        .G      BX       r1
        0x00018a12:    0000        ..      MOVS     r0,r0
    am_hal_delay_us_status_change
        0x00018a14:    e92d43f0    -..C    PUSH     {r4-r9,lr}
        0x00018a18:    b081        ..      SUB      sp,sp,#4
        0x00018a1a:    460d        .F      MOV      r5,r1
        0x00018a1c:    6809        .h      LDR      r1,[r1,#0]
        0x00018a1e:    4011        .@      ANDS     r1,r1,r2
        0x00018a20:    4299        .B      CMP      r1,r3
        0x00018a22:    d01b        ..      BEQ      0x18a5c ; am_hal_delay_us_status_change + 72
        0x00018a24:    f64a31b4    J..1    MOV      r1,#0xabb4
        0x00018a28:    f2c00101    ....    MOVT     r1,#1
        0x00018a2c:    6a4f        Oj      LDR      r7,[r1,#0x24]
        0x00018a2e:    f2410900    A...    MOVW     r9,#0x1000
        0x00018a32:    4698        .F      MOV      r8,r3
        0x00018a34:    4616        .F      MOV      r6,r2
        0x00018a36:    1c44        D.      ADDS     r4,r0,#1
        0x00018a38:    f2c40902    ....    MOVT     r9,#0x4002
        0x00018a3c:    3c01        .<      SUBS     r4,#1
        0x00018a3e:    d00f        ..      BEQ      0x18a60 ; am_hal_delay_us_status_change + 76
        0x00018a40:    f8d90000    ....    LDR      r0,[r9,#0]
        0x00018a44:    f0000018    ....    AND      r0,r0,#0x18
        0x00018a48:    2810        .(      CMP      r0,#0x10
        0x00018a4a:    f04f0011    O...    MOV      r0,#0x11
        0x00018a4e:    bf08        ..      IT       EQ
        0x00018a50:    202b        +       MOVEQ    r0,#0x2b
        0x00018a52:    47b8        .G      BLX      r7
        0x00018a54:    6828        (h      LDR      r0,[r5,#0]
        0x00018a56:    4030        0@      ANDS     r0,r0,r6
        0x00018a58:    4540        @E      CMP      r0,r8
        0x00018a5a:    d1ef        ..      BNE      0x18a3c ; am_hal_delay_us_status_change + 40
        0x00018a5c:    2000        .       MOVS     r0,#0
        0x00018a5e:    e000        ..      B        0x18a62 ; am_hal_delay_us_status_change + 78
        0x00018a60:    2004        .       MOVS     r0,#4
        0x00018a62:    b001        ..      ADD      sp,sp,#4
        0x00018a64:    e8bd83f0    ....    POP      {r4-r9,pc}
    am_hal_delay_us_status_check
        0x00018a68:    e92d47f0    -..G    PUSH     {r4-r10,lr}
        0x00018a6c:    4607        .F      MOV      r7,r0
        0x00018a6e:    f64a30b4    J..0    MOV      r0,#0xabb4
        0x00018a72:    f2c00001    ....    MOVT     r0,#1
        0x00018a76:    f8dd8020    .. .    LDR      r8,[sp,#0x20]
        0x00018a7a:    6a44        Dj      LDR      r4,[r0,#0x24]
        0x00018a7c:    f2410a00    A...    MOVW     r10,#0x1000
        0x00018a80:    4699        .F      MOV      r9,r3
        0x00018a82:    4615        .F      MOV      r5,r2
        0x00018a84:    460e        .F      MOV      r6,r1
        0x00018a86:    f2c40a02    ....    MOVT     r10,#0x4002
        0x00018a8a:    bf00        ..      NOP      
        0x00018a8c:    6830        0h      LDR      r0,[r6,#0]
        0x00018a8e:    f1b80f00    ....    CMP      r8,#0
        0x00018a92:    ea000005    ....    AND      r0,r0,r5
        0x00018a96:    d003        ..      BEQ      0x18aa0 ; am_hal_delay_us_status_check + 56
        0x00018a98:    4548        HE      CMP      r0,r9
        0x00018a9a:    d103        ..      BNE      0x18aa4 ; am_hal_delay_us_status_check + 60
        0x00018a9c:    e00f        ..      B        0x18abe ; am_hal_delay_us_status_check + 86
        0x00018a9e:    bf00        ..      NOP      
        0x00018aa0:    4548        HE      CMP      r0,r9
        0x00018aa2:    d10c        ..      BNE      0x18abe ; am_hal_delay_us_status_check + 86
        0x00018aa4:    b177        w.      CBZ      r7,0x18ac4 ; am_hal_delay_us_status_check + 92
        0x00018aa6:    f8da0000    ....    LDR      r0,[r10,#0]
        0x00018aaa:    3f01        .?      SUBS     r7,#1
        0x00018aac:    f0000018    ....    AND      r0,r0,#0x18
        0x00018ab0:    2810        .(      CMP      r0,#0x10
        0x00018ab2:    f04f0011    O...    MOV      r0,#0x11
        0x00018ab6:    bf08        ..      IT       EQ
        0x00018ab8:    202b        +       MOVEQ    r0,#0x2b
        0x00018aba:    47a0        .G      BLX      r4
        0x00018abc:    e7e6        ..      B        0x18a8c ; am_hal_delay_us_status_check + 36
        0x00018abe:    2000        .       MOVS     r0,#0
        0x00018ac0:    e8bd87f0    ....    POP      {r4-r10,pc}
        0x00018ac4:    2004        .       MOVS     r0,#4
        0x00018ac6:    e8bd87f0    ....    POP      {r4-r10,pc}
    am_hal_fault_status_get
        0x00018aca:    b1c8        ..      CBZ      r0,0x18b00 ; am_hal_fault_status_get + 54
        0x00018acc:    2180        .!      MOVS     r1,#0x80
        0x00018ace:    f6c40100    ....    MOVT     r1,#0x4800
        0x00018ad2:    68ca        .h      LDR      r2,[r1,#0xc]
        0x00018ad4:    b2d3        ..      UXTB     r3,r2
        0x00018ad6:    f0020201    ....    AND      r2,r2,#1
        0x00018ada:    7002        .p      STRB     r2,[r0,#0]
        0x00018adc:    f3c30240    ..@.    UBFX     r2,r3,#1,#1
        0x00018ae0:    7202        .r      STRB     r2,[r0,#8]
        0x00018ae2:    f3c30280    ....    UBFX     r2,r3,#2,#1
        0x00018ae6:    7402        .t      STRB     r2,[r0,#0x10]
        0x00018ae8:    684a        Jh      LDR      r2,[r1,#4]
        0x00018aea:    60c2        .`      STR      r2,[r0,#0xc]
        0x00018aec:    680a        .h      LDR      r2,[r1,#0]
        0x00018aee:    6843        Ch      LDR      r3,[r0,#4]
        0x00018af0:    431a        .C      ORRS     r2,r2,r3
        0x00018af2:    6042        B`      STR      r2,[r0,#4]
        0x00018af4:    6889        .h      LDR      r1,[r1,#8]
        0x00018af6:    6942        Bi      LDR      r2,[r0,#0x14]
        0x00018af8:    4311        .C      ORRS     r1,r1,r2
        0x00018afa:    6141        Aa      STR      r1,[r0,#0x14]
        0x00018afc:    2000        .       MOVS     r0,#0
        0x00018afe:    4770        pG      BX       lr
        0x00018b00:    2006        .       MOVS     r0,#6
        0x00018b02:    4770        pG      BX       lr
    am_hal_gpio_pinconfig
        0x00018b04:    b5b0        ..      PUSH     {r4,r5,r7,lr}
        0x00018b06:    b084        ..      SUB      sp,sp,#0x10
        0x00018b08:    287f        .(      CMP      r0,#0x7f
        0x00018b0a:    9103        ..      STR      r1,[sp,#0xc]
        0x00018b0c:    d80f        ..      BHI      0x18b2e ; am_hal_gpio_pinconfig + 42
        0x00018b0e:    f64a3298    J..2    MOV      r2,#0xab98
        0x00018b12:    ea4f1c50    O.P.    LSR      r12,r0,#5
        0x00018b16:    f2c00201    ....    MOVT     r2,#1
        0x00018b1a:    4604        .F      MOV      r4,r0
        0x00018b1c:    f852302c    R.,0    LDR      r3,[r2,r12,LSL #2]
        0x00018b20:    f000021f    ....    AND      r2,r0,#0x1f
        0x00018b24:    2001        .       MOVS     r0,#1
        0x00018b26:    fa00f202    ....    LSL      r2,r0,r2
        0x00018b2a:    4213        .B      TST      r3,r2
        0x00018b2c:    d003        ..      BEQ      0x18b36 ; am_hal_gpio_pinconfig + 50
        0x00018b2e:    2405        .$      MOVS     r4,#5
        0x00018b30:    4620         F      MOV      r0,r4
        0x00018b32:    b004        ..      ADD      sp,sp,#0x10
        0x00018b34:    bdb0        ..      POP      {r4,r5,r7,pc}
        0x00018b36:    0508        ..      LSLS     r0,r1,#20
        0x00018b38:    d504        ..      BPL      0x18b44 ; am_hal_gpio_pinconfig + 64
        0x00018b3a:    a012        ..      ADR      r0,{pc}+0x4a ; 0x18b84
        0x00018b3c:    f850002c    P.,.    LDR      r0,[r0,r12,LSL #2]
        0x00018b40:    4210        .B      TST      r0,r2
        0x00018b42:    d01c        ..      BEQ      0x18b7e ; am_hal_gpio_pinconfig + 122
        0x00018b44:    f000f8a6    ....    BL       am_hal_interrupt_master_disable ; 0x18c94
        0x00018b48:    f2402500    @..%    MOVW     r5,#0x200
        0x00018b4c:    9002        ..      STR      r0,[sp,#8]
        0x00018b4e:    f2c40501    ....    MOVT     r5,#0x4001
        0x00018b52:    2073        s       MOVS     r0,#0x73
        0x00018b54:    6028        (`      STR      r0,[r5,#0]
        0x00018b56:    9802        ..      LDR      r0,[sp,#8]
        0x00018b58:    f000f8a4    ....    BL       am_hal_interrupt_master_set ; 0x18ca4
        0x00018b5c:    9803        ..      LDR      r0,[sp,#0xc]
        0x00018b5e:    f64f6200    O..b    MOVW     r2,#0xfe00
        0x00018b62:    eb050184    ....    ADD      r1,r5,r4,LSL #2
        0x00018b66:    f6cf72ff    ...r    MOVT     r2,#0xffff
        0x00018b6a:    5088        .P      STR      r0,[r1,r2]
        0x00018b6c:    f000f892    ....    BL       am_hal_interrupt_master_disable ; 0x18c94
        0x00018b70:    2400        .$      MOVS     r4,#0
        0x00018b72:    9001        ..      STR      r0,[sp,#4]
        0x00018b74:    602c        ,`      STR      r4,[r5,#0]
        0x00018b76:    9801        ..      LDR      r0,[sp,#4]
        0x00018b78:    f000f894    ....    BL       am_hal_interrupt_master_set ; 0x18ca4
        0x00018b7c:    e7d8        ..      B        0x18b30 ; am_hal_gpio_pinconfig + 44
        0x00018b7e:    2407        .$      MOVS     r4,#7
        0x00018b80:    e7d6        ..      B        0x18b30 ; am_hal_gpio_pinconfig + 44
        0x00018b82:    bf00        ..      NOP      
    $d.2
    g_ui32DSpintbl
        0x00018b84:    8fc007e0    ....    DCD    2411726816
        0x00018b88:    e3fbffff    ....    DCD    3824943103
        0x00018b8c:    01ffffff    ....    DCD    33554431
        0x00018b90:    00000000    ....    DCD    0
    $t.5
    am_hal_gpio_state_write
        0x00018b94:    b510        ..      PUSH     {r4,lr}
        0x00018b96:    b082        ..      SUB      sp,sp,#8
        0x00018b98:    2905        .)      CMP      r1,#5
        0x00018b9a:    f2008078    ..x.    BHI.W    0x18c8e ; am_hal_gpio_state_write + 250
        0x00018b9e:    4604        .F      MOV      r4,r0
        0x00018ba0:    e8dff001    ....    TBB      [pc,r1]
    $d.6
        0x00018ba4:    3b271503    ..';    DCD    992417027
        0x00018ba8:    5f4d        M_      DCW    24397
    $t.7
        0x00018baa:    f000f873    ..s.    BL       am_hal_interrupt_master_disable ; 0x18c94
        0x00018bae:    9001        ..      STR      r0,[sp,#4]
        0x00018bb0:    f004001f    ....    AND      r0,r4,#0x1f
        0x00018bb4:    2101        .!      MOVS     r1,#1
        0x00018bb6:    f2402214    @.."    MOVW     r2,#0x214
        0x00018bba:    fa01f000    ....    LSL      r0,r1,r0
        0x00018bbe:    f3c41141    ..A.    UBFX     r1,r4,#5,#2
        0x00018bc2:    f2c40201    ....    MOVT     r2,#0x4001
        0x00018bc6:    eb020181    ....    ADD      r1,r2,r1,LSL #2
        0x00018bca:    6208        .b      STR      r0,[r1,#0x20]
        0x00018bcc:    e05c        \.      B        0x18c88 ; am_hal_gpio_state_write + 244
        0x00018bce:    f000f861    ..a.    BL       am_hal_interrupt_master_disable ; 0x18c94
        0x00018bd2:    9001        ..      STR      r0,[sp,#4]
        0x00018bd4:    f004001f    ....    AND      r0,r4,#0x1f
        0x00018bd8:    2101        .!      MOVS     r1,#1
        0x00018bda:    f2402214    @.."    MOVW     r2,#0x214
        0x00018bde:    fa01f000    ....    LSL      r0,r1,r0
        0x00018be2:    f3c41141    ..A.    UBFX     r1,r4,#5,#2
        0x00018be6:    f2c40201    ....    MOVT     r2,#0x4001
        0x00018bea:    eb020181    ....    ADD      r1,r2,r1,LSL #2
        0x00018bee:    6108        .a      STR      r0,[r1,#0x10]
        0x00018bf0:    e04a        J.      B        0x18c88 ; am_hal_gpio_state_write + 244
        0x00018bf2:    f000f84f    ..O.    BL       am_hal_interrupt_master_disable ; 0x18c94
        0x00018bf6:    f2402314    @..#    MOVW     r3,#0x214
        0x00018bfa:    9001        ..      STR      r0,[sp,#4]
        0x00018bfc:    f3c41241    ..A.    UBFX     r2,r4,#5,#2
        0x00018c00:    f2c40301    ....    MOVT     r3,#0x4001
        0x00018c04:    f004001f    ....    AND      r0,r4,#0x1f
        0x00018c08:    2101        .!      MOVS     r1,#1
        0x00018c0a:    f8534022    S."@    LDR      r4,[r3,r2,LSL #2]
        0x00018c0e:    fa01f000    ....    LSL      r0,r1,r0
        0x00018c12:    4060        `@      EORS     r0,r0,r4
        0x00018c14:    f8430022    C.".    STR      r0,[r3,r2,LSL #2]
        0x00018c18:    e036        6.      B        0x18c88 ; am_hal_gpio_state_write + 244
        0x00018c1a:    f000f83b    ..;.    BL       am_hal_interrupt_master_disable ; 0x18c94
        0x00018c1e:    9001        ..      STR      r0,[sp,#4]
        0x00018c20:    f004001f    ....    AND      r0,r4,#0x1f
        0x00018c24:    2101        .!      MOVS     r1,#1
        0x00018c26:    f2402214    @.."    MOVW     r2,#0x214
        0x00018c2a:    fa01f000    ....    LSL      r0,r1,r0
        0x00018c2e:    f3c41141    ..A.    UBFX     r1,r4,#5,#2
        0x00018c32:    f2c40201    ....    MOVT     r2,#0x4001
        0x00018c36:    eb020181    ....    ADD      r1,r2,r1,LSL #2
        0x00018c3a:    6508        .e      STR      r0,[r1,#0x50]
        0x00018c3c:    e024        $.      B        0x18c88 ; am_hal_gpio_state_write + 244
        0x00018c3e:    f000f829    ..).    BL       am_hal_interrupt_master_disable ; 0x18c94
        0x00018c42:    9001        ..      STR      r0,[sp,#4]
        0x00018c44:    f004001f    ....    AND      r0,r4,#0x1f
        0x00018c48:    2101        .!      MOVS     r1,#1
        0x00018c4a:    f2402214    @.."    MOVW     r2,#0x214
        0x00018c4e:    fa01f000    ....    LSL      r0,r1,r0
        0x00018c52:    f3c41141    ..A.    UBFX     r1,r4,#5,#2
        0x00018c56:    f2c40201    ....    MOVT     r2,#0x4001
        0x00018c5a:    eb020181    ....    ADD      r1,r2,r1,LSL #2
        0x00018c5e:    6408        .d      STR      r0,[r1,#0x40]
        0x00018c60:    e012        ..      B        0x18c88 ; am_hal_gpio_state_write + 244
        0x00018c62:    f000f817    ....    BL       am_hal_interrupt_master_disable ; 0x18c94
        0x00018c66:    f2402314    @..#    MOVW     r3,#0x214
        0x00018c6a:    f3c41241    ..A.    UBFX     r2,r4,#5,#2
        0x00018c6e:    f2c40301    ....    MOVT     r3,#0x4001
        0x00018c72:    9001        ..      STR      r0,[sp,#4]
        0x00018c74:    eb030282    ....    ADD      r2,r3,r2,LSL #2
        0x00018c78:    f004001f    ....    AND      r0,r4,#0x1f
        0x00018c7c:    2101        .!      MOVS     r1,#1
        0x00018c7e:    6b13        .k      LDR      r3,[r2,#0x30]
        0x00018c80:    fa01f000    ....    LSL      r0,r1,r0
        0x00018c84:    4058        X@      EORS     r0,r0,r3
        0x00018c86:    6310        .c      STR      r0,[r2,#0x30]
        0x00018c88:    9801        ..      LDR      r0,[sp,#4]
        0x00018c8a:    f000f80b    ....    BL       am_hal_interrupt_master_set ; 0x18ca4
        0x00018c8e:    2000        .       MOVS     r0,#0
        0x00018c90:    b002        ..      ADD      sp,sp,#8
        0x00018c92:    bd10        ..      POP      {r4,pc}
    am_hal_interrupt_master_disable
        0x00018c94:    f3ef8010    ....    MRS      r0,PRIMASK
        0x00018c98:    b672        r.      CPSID    i
        0x00018c9a:    4770        pG      BX       lr
    am_hal_interrupt_master_enable
        0x00018c9c:    f3ef8010    ....    MRS      r0,PRIMASK
        0x00018ca0:    b662        b.      CPSIE    i
        0x00018ca2:    4770        pG      BX       lr
    am_hal_interrupt_master_set
        0x00018ca4:    f3808810    ....    MSR      PRIMASK,r0
        0x00018ca8:    4770        pG      BX       lr
        0x00018caa:    0000        ..      MOVS     r0,r0
    am_hal_itm_enable
        0x00018cac:    f64e50fc    N..P    MOV      r0,#0xedfc
        0x00018cb0:    f2ce0000    ....    MOVT     r0,#0xe000
        0x00018cb4:    6801        .h      LDR      r1,[r0,#0]
        0x00018cb6:    f0417180    A..q    ORR      r1,r1,#0x1000000
        0x00018cba:    6001        .`      STR      r1,[r0,#0]
        0x00018cbc:    6801        .h      LDR      r1,[r0,#0]
        0x00018cbe:    01c9        ..      LSLS     r1,r1,#7
        0x00018cc0:    d5fc        ..      BPL      0x18cbc ; am_hal_itm_enable + 16
        0x00018cc2:    f6406000    @..`    MOVW     r0,#0xe00
        0x00018cc6:    f64c6155    L.Ua    MOV      r1,#0xce55
        0x00018cca:    f2ce0000    ....    MOVT     r0,#0xe000
        0x00018cce:    f2cc51ac    ...Q    MOVT     r1,#0xc5ac
        0x00018cd2:    f8c011b0    ....    STR      r1,[r0,#0x1b0]
        0x00018cd6:    210f        .!      MOVS     r1,#0xf
        0x00018cd8:    6401        .d      STR      r1,[r0,#0x40]
        0x00018cda:    f04f31ff    O..1    MOV      r1,#0xffffffff
        0x00018cde:    6001        .`      STR      r1,[r0,#0]
        0x00018ce0:    f2405111    @..Q    MOV      r1,#0x511
        0x00018ce4:    f2c00115    ....    MOVT     r1,#0x15
        0x00018ce8:    f8c01080    ....    STR      r1,[r0,#0x80]
        0x00018cec:    4770        pG      BX       lr
        0x00018cee:    0000        ..      MOVS     r0,r0
    am_hal_itm_print
        0x00018cf0:    2100        .!      MOVS     r1,#0
        0x00018cf2:    bf00        ..      NOP      
        0x00018cf4:    5c42        B\      LDRB     r2,[r0,r1]
        0x00018cf6:    3101        .1      ADDS     r1,#1
        0x00018cf8:    2a00        .*      CMP      r2,#0
        0x00018cfa:    d1fb        ..      BNE      0x18cf4 ; am_hal_itm_print + 4
        0x00018cfc:    3901        .9      SUBS     r1,#1
        0x00018cfe:    bf08        ..      IT       EQ
        0x00018d00:    4770        pG      BXEQ     lr
        0x00018d02:    f04f4260    O.`B    MOV      r2,#0xe0000000
        0x00018d06:    bf00        ..      NOP      
        0x00018d08:    f890c000    ....    LDRB     r12,[r0,#0]
        0x00018d0c:    6813        .h      LDR      r3,[r2,#0]
        0x00018d0e:    2b00        .+      CMP      r3,#0
        0x00018d10:    d0fc        ..      BEQ      0x18d0c ; am_hal_itm_print + 28
        0x00018d12:    3001        .0      ADDS     r0,#1
        0x00018d14:    3901        .9      SUBS     r1,#1
        0x00018d16:    f882c000    ....    STRB     r12,[r2,#0]
        0x00018d1a:    d1f5        ..      BNE      0x18d08 ; am_hal_itm_print + 24
        0x00018d1c:    4770        pG      BX       lr
        0x00018d1e:    0000        ..      MOVS     r0,r0
    am_hal_mram_info_read
        0x00018d20:    2801        .(      CMP      r0,#1
        0x00018d22:    d00e        ..      BEQ      0x18d42 ; am_hal_mram_info_read + 34
        0x00018d24:    bb50        P.      CBNZ     r0,0x18d7c ; am_hal_mram_info_read + 92
        0x00018d26:    2000        .       MOVS     r0,#0
        0x00018d28:    ebb02f51    ..Q/    CMP      r0,r1,LSR #9
        0x00018d2c:    f04f0002    O...    MOV      r0,#2
        0x00018d30:    d123        #.      BNE      0x18d7a ; am_hal_mram_info_read + 90
        0x00018d32:    eb020c01    ....    ADD      r12,r2,r1
        0x00018d36:    f5bc7f00    ....    CMP      r12,#0x200
        0x00018d3a:    d81e        ..      BHI      0x18d7a ; am_hal_mram_info_read + 90
        0x00018d3c:    f04f4084    O..@    MOV      r0,#0x42000000
        0x00018d40:    e010        ..      B        0x18d64 ; am_hal_mram_info_read + 68
        0x00018d42:    f5a16090    ...`    SUB      r0,r1,#0x480
        0x00018d46:    09c0        ..      LSRS     r0,r0,#7
        0x00018d48:    2802        .(      CMP      r0,#2
        0x00018d4a:    f04f0002    O...    MOV      r0,#2
        0x00018d4e:    d814        ..      BHI      0x18d7a ; am_hal_mram_info_read + 90
        0x00018d50:    eb020c01    ....    ADD      r12,r2,r1
        0x00018d54:    f5bc6fc0    ...o    CMP      r12,#0x600
        0x00018d58:    bf88        ..      IT       HI
        0x00018d5a:    4770        pG      BXHI     lr
        0x00018d5c:    f2420000    B...    MOVW     r0,#0x2000
        0x00018d60:    f2c42000    ...     MOVT     r0,#0x4200
        0x00018d64:    b142        B.      CBZ      r2,0x18d78 ; am_hal_mram_info_read + 88
        0x00018d66:    eb000081    ....    ADD      r0,r0,r1,LSL #2
        0x00018d6a:    bf00        ..      NOP      
        0x00018d6c:    f8501b04    P...    LDR      r1,[r0],#4
        0x00018d70:    3a01        .:      SUBS     r2,#1
        0x00018d72:    f8431b04    C...    STR      r1,[r3],#4
        0x00018d76:    d1f9        ..      BNE      0x18d6c ; am_hal_mram_info_read + 76
        0x00018d78:    2000        .       MOVS     r0,#0
        0x00018d7a:    4770        pG      BX       lr
        0x00018d7c:    2001        .       MOVS     r0,#1
        0x00018d7e:    4770        pG      BX       lr
    am_hal_pwrctrl_control
        0x00018d80:    b5b0        ..      PUSH     {r4,r5,r7,lr}
        0x00018d82:    b082        ..      SUB      sp,sp,#8
        0x00018d84:    2100        .!      MOVS     r1,#0
        0x00018d86:    2803        .(      CMP      r0,#3
        0x00018d88:    9101        ..      STR      r1,[sp,#4]
        0x00018d8a:    f2008095    ....    BHI.W    0x18eb8 ; am_hal_pwrctrl_control + 312
        0x00018d8e:    e8dff000    ....    TBB      [pc,r0]
    $d.20
        0x00018d92:    9502        ..      DCW    38146
        0x00018d94:    b1a3        ..      DCW    45475
    $t.21
        0x00018d96:    2400        .$      MOVS     r4,#0
        0x00018d98:    a801        ..      ADD      r0,sp,#4
        0x00018d9a:    f2c40402    ....    MOVT     r4,#0x4002
        0x00018d9e:    f7fffaf5    ....    BL       TrimVersionGet ; 0x1838c
        0x00018da2:    9801        ..      LDR      r0,[sp,#4]
        0x00018da4:    2801        .(      CMP      r0,#1
        0x00018da6:    d831        1.      BHI      0x18e0c ; am_hal_pwrctrl_control + 140
        0x00018da8:    f8d41378    ..x.    LDR      r1,[r4,#0x378]
        0x00018dac:    220a        ."      MOVS     r2,#0xa
        0x00018dae:    f02151f8    !..Q    BIC      r1,r1,#0x1f000000
        0x00018db2:    f8c41378    ..x.    STR      r1,[r4,#0x378]
        0x00018db6:    f8d41358    ..X.    LDR      r1,[r4,#0x358]
        0x00018dba:    f42101f8    !...    BIC      r1,r1,#0x7c0000
        0x00018dbe:    f8c41358    ..X.    STR      r1,[r4,#0x358]
        0x00018dc2:    f8d41344    ..D.    LDR      r1,[r4,#0x344]
        0x00018dc6:    f362611c    b..a    BFI      r1,r2,#24,#5
        0x00018dca:    f8c41344    ..D.    STR      r1,[r4,#0x344]
        0x00018dce:    f8d41344    ..D.    LDR      r1,[r4,#0x344]
        0x00018dd2:    f36221ce    b..!    BFI      r1,r2,#11,#4
        0x00018dd6:    f8c41344    ..D.    STR      r1,[r4,#0x344]
        0x00018dda:    f8d41358    ..X.    LDR      r1,[r4,#0x358]
        0x00018dde:    220f        ."      MOVS     r2,#0xf
        0x00018de0:    f362210c    b..!    BFI      r1,r2,#8,#5
        0x00018de4:    f8c41358    ..X.    STR      r1,[r4,#0x358]
        0x00018de8:    f8d41354    ..T.    LDR      r1,[r4,#0x354]
        0x00018dec:    f44111f0    A...    ORR      r1,r1,#0x1e0000
        0x00018df0:    f8c41354    ..T.    STR      r1,[r4,#0x354]
        0x00018df4:    f8d41360    ..`.    LDR      r1,[r4,#0x360]
        0x00018df8:    f362519a    b..Q    BFI      r1,r2,#22,#5
        0x00018dfc:    f8c41360    ..`.    STR      r1,[r4,#0x360]
        0x00018e00:    f8d41360    ..`.    LDR      r1,[r4,#0x360]
        0x00018e04:    f44111f0    A...    ORR      r1,r1,#0x1e0000
        0x00018e08:    f8c41360    ..`.    STR      r1,[r4,#0x360]
        0x00018e0c:    f8d41348    ..H.    LDR      r1,[r4,#0x348]
        0x00018e10:    220a        ."      MOVS     r2,#0xa
        0x00018e12:    f362619d    b..a    BFI      r1,r2,#26,#4
        0x00018e16:    f8c41348    ..H.    STR      r1,[r4,#0x348]
        0x00018e1a:    f8d41348    ..H.    LDR      r1,[r4,#0x348]
        0x00018e1e:    2801        .(      CMP      r0,#1
        0x00018e20:    f3623150    b.P1    BFI      r1,r2,#13,#4
        0x00018e24:    f8c41348    ..H.    STR      r1,[r4,#0x348]
        0x00018e28:    f8d4135c    ..\.    LDR      r1,[r4,#0x35c]
        0x00018e2c:    f240024c    @.L.    MOVW     r2,#0x4c
        0x00018e30:    f0417170    A.pq    ORR      r1,r1,#0x3c00000
        0x00018e34:    f8c4135c    ..\.    STR      r1,[r4,#0x35c]
        0x00018e38:    f8d4135c    ..\.    LDR      r1,[r4,#0x35c]
        0x00018e3c:    f2c10200    ....    MOVT     r2,#0x1000
        0x00018e40:    f44151f0    A..Q    ORR      r1,r1,#0x1e00
        0x00018e44:    f8c4135c    ..\.    STR      r1,[r4,#0x35c]
        0x00018e48:    f8d41380    ....    LDR      r1,[r4,#0x380]
        0x00018e4c:    f0414100    A..A    ORR      r1,r1,#0x80000000
        0x00018e50:    f8c41380    ....    STR      r1,[r4,#0x380]
        0x00018e54:    f8d41380    ....    LDR      r1,[r4,#0x380]
        0x00018e58:    f0414180    A..A    ORR      r1,r1,#0x40000000
        0x00018e5c:    f8c41380    ....    STR      r1,[r4,#0x380]
        0x00018e60:    f8d41370    ..p.    LDR      r1,[r4,#0x370]
        0x00018e64:    f3c15105    ...Q    UBFX     r1,r1,#20,#6
        0x00018e68:    6011        .`      STR      r1,[r2,#0]
        0x00018e6a:    f8d41370    ..p.    LDR      r1,[r4,#0x370]
        0x00018e6e:    f021717c    !.|q    BIC      r1,r1,#0x3f00000
        0x00018e72:    f8c41370    ..p.    STR      r1,[r4,#0x370]
        0x00018e76:    f04f0107    O...    MOV      r1,#7
        0x00018e7a:    f8c4133c    ..<.    STR      r1,[r4,#0x33c]
        0x00018e7e:    d80c        ..      BHI      0x18e9a ; am_hal_pwrctrl_control + 282
        0x00018e80:    f8d40340    ..@.    LDR      r0,[r4,#0x340]
        0x00018e84:    2101        .!      MOVS     r1,#1
        0x00018e86:    f0207070     .pp    BIC      r0,r0,#0x3c00000
        0x00018e8a:    f8c40340    ..@.    STR      r0,[r4,#0x340]
        0x00018e8e:    f8d40340    ..@.    LDR      r0,[r4,#0x340]
        0x00018e92:    f361108a    a...    BFI      r0,r1,#6,#5
        0x00018e96:    f8c40340    ..@.    STR      r0,[r4,#0x340]
        0x00018e9a:    6820         h      LDR      r0,[r4,#0]
        0x00018e9c:    f2410504    A...    MOV      r5,#0x1004
        0x00018ea0:    f4104f7f    ...O    TST      r0,#0xff00
        0x00018ea4:    f2c40502    ....    MOVT     r5,#0x4002
        0x00018ea8:    d02b        +.      BEQ      0x18f02 ; am_hal_pwrctrl_control + 386
        0x00018eaa:    f8d500fc    ....    LDR      r0,[r5,#0xfc]
        0x00018eae:    f0400001    @...    ORR      r0,r0,#1
        0x00018eb2:    f8c500fc    ....    STR      r0,[r5,#0xfc]
        0x00018eb6:    e034        4.      B        0x18f22 ; am_hal_pwrctrl_control + 418
        0x00018eb8:    2006        .       MOVS     r0,#6
        0x00018eba:    e03f        ?.      B        0x18f3c ; am_hal_pwrctrl_control + 444
        0x00018ebc:    f2410004    A...    MOV      r0,#0x1004
        0x00018ec0:    f2c40002    ....    MOVT     r0,#0x4002
        0x00018ec4:    6840        @h      LDR      r0,[r0,#4]
        0x00018ec6:    02c0        ..      LSLS     r0,r0,#11
        0x00018ec8:    d537        7.      BPL      0x18f3a ; am_hal_pwrctrl_control + 442
        0x00018eca:    2012        .       MOVS     r0,#0x12
        0x00018ecc:    f000f9aa    ....    BL       am_hal_pwrctrl_periph_disable ; 0x19224
        0x00018ed0:    2800        .(      CMP      r0,#0
        0x00018ed2:    bf08        ..      IT       EQ
        0x00018ed4:    2000        .       MOVEQ    r0,#0
        0x00018ed6:    e031        1.      B        0x18f3c ; am_hal_pwrctrl_control + 444
        0x00018ed8:    2000        .       MOVS     r0,#0
        0x00018eda:    f2c40002    ....    MOVT     r0,#0x4002
        0x00018ede:    f8d01124    ..$.    LDR      r1,[r0,#0x124]
        0x00018ee2:    2220         "      MOVS     r2,#0x20
        0x00018ee4:    f3620187    b...    BFI      r1,r2,#2,#6
        0x00018ee8:    f8c01124    ..$.    STR      r1,[r0,#0x124]
        0x00018eec:    2101        .!      MOVS     r1,#1
        0x00018eee:    f8c01120    .. .    STR      r1,[r0,#0x120]
        0x00018ef2:    e022        ".      B        0x18f3a ; am_hal_pwrctrl_control + 442
        0x00018ef4:    f2410104    A...    MOV      r1,#0x1004
        0x00018ef8:    f2c40102    ....    MOVT     r1,#0x4002
        0x00018efc:    2000        .       MOVS     r0,#0
        0x00018efe:    6008        .`      STR      r0,[r1,#0]
        0x00018f00:    e01c        ..      B        0x18f3c ; am_hal_pwrctrl_control + 444
        0x00018f02:    f001f889    ....    BL       buck_ldo_override_init ; 0x1a018
        0x00018f06:    f8d500fc    ....    LDR      r0,[r5,#0xfc]
        0x00018f0a:    f5057182    ...q    ADD      r1,r5,#0x104
        0x00018f0e:    f0400001    @...    ORR      r0,r0,#1
        0x00018f12:    f8c500fc    ....    STR      r0,[r5,#0xfc]
        0x00018f16:    2005        .       MOVS     r0,#5
        0x00018f18:    2230        0"      MOVS     r2,#0x30
        0x00018f1a:    2330        0#      MOVS     r3,#0x30
        0x00018f1c:    f7fffd7a    ..z.    BL       am_hal_delay_us_status_change ; 0x18a14
        0x00018f20:    b960        `.      CBNZ     r0,0x18f3c ; am_hal_pwrctrl_control + 444
        0x00018f22:    f8d40378    ..x.    LDR      r0,[r4,#0x378]
        0x00018f26:    f0404000    @..@    ORR      r0,r0,#0x80000000
        0x00018f2a:    f8c40378    ..x.    STR      r0,[r4,#0x378]
        0x00018f2e:    6820         h      LDR      r0,[r4,#0]
        0x00018f30:    f4104f7f    ...O    TST      r0,#0xff00
        0x00018f34:    d001        ..      BEQ      0x18f3a ; am_hal_pwrctrl_control + 442
        0x00018f36:    f001f86f    ..o.    BL       buck_ldo_override_init ; 0x1a018
        0x00018f3a:    2000        .       MOVS     r0,#0
        0x00018f3c:    b002        ..      ADD      sp,sp,#8
        0x00018f3e:    bdb0        ..      POP      {r4,r5,r7,pc}
    am_hal_pwrctrl_low_power_init
        0x00018f40:    b5b0        ..      PUSH     {r4,r5,r7,lr}
        0x00018f42:    b082        ..      SUB      sp,sp,#8
        0x00018f44:    f2410008    A...    MOV      r0,#0x1008
        0x00018f48:    f2c40002    ....    MOVT     r0,#0x4002
        0x00018f4c:    6800        .h      LDR      r0,[r0,#0]
        0x00018f4e:    f24021c0    @..!    MOVW     r1,#0x2c0
        0x00018f52:    f3c05000    ...P    UBFX     r0,r0,#20,#1
        0x00018f56:    f2c10100    ....    MOVT     r1,#0x1000
        0x00018f5a:    7008        .p      STRB     r0,[r1,#0]
        0x00018f5c:    f64a30a8    J..0    MOV      r0,#0xaba8
        0x00018f60:    f240346c    @.l4    MOVW     r4,#0x36c
        0x00018f64:    f2c00001    ....    MOVT     r0,#1
        0x00018f68:    f2c40402    ....    MOVT     r4,#0x4002
        0x00018f6c:    f000f898    ....    BL       am_hal_pwrctrl_mcu_memory_config ; 0x190a0
        0x00018f70:    f64a30ae    J..0    MOV      r0,#0xabae
        0x00018f74:    f2c00001    ....    MOVT     r0,#1
        0x00018f78:    f000fa3e    ..>.    BL       am_hal_pwrctrl_sram_config ; 0x193f8
        0x00018f7c:    f2440544    D.D.    MOV      r5,#0x4044
        0x00018f80:    f2c40500    ....    MOVT     r5,#0x4000
        0x00018f84:    6828        (h      LDR      r0,[r5,#0]
        0x00018f86:    f440007c    @.|.    ORR      r0,r0,#0xfc0000
        0x00018f8a:    6028        (`      STR      r0,[r5,#0]
        0x00018f8c:    f64a10f5    J...    MOV      r0,#0xa9f5
        0x00018f90:    f2c00001    ....    MOVT     r0,#1
        0x00018f94:    f7fffbde    ....    BL       am_hal_daxi_config ; 0x18754
        0x00018f98:    2064        d       MOVS     r0,#0x64
        0x00018f9a:    f7fffd1f    ....    BL       am_hal_delay_us ; 0x189dc
        0x00018f9e:    6828        (h      LDR      r0,[r5,#0]
        0x00018fa0:    2104        .!      MOVS     r1,#4
        0x00018fa2:    f0400040    @.@.    ORR      r0,r0,#0x40
        0x00018fa6:    6028        (`      STR      r0,[r5,#0]
        0x00018fa8:    6920         i      LDR      r0,[r4,#0x10]
        0x00018faa:    f04060b0    @..`    ORR      r0,r0,#0x5800000
        0x00018fae:    f44000fd    @...    ORR      r0,r0,#0x7e8000
        0x00018fb2:    6120         a      STR      r0,[r4,#0x10]
        0x00018fb4:    f8d400d8    ....    LDR      r0,[r4,#0xd8]
        0x00018fb8:    f361200f    a..     BFI      r0,r1,#8,#8
        0x00018fbc:    f24021c1    @..!    MOV      r1,#0x2c1
        0x00018fc0:    f8c400d8    ....    STR      r0,[r4,#0xd8]
        0x00018fc4:    f2c10100    ....    MOVT     r1,#0x1000
        0x00018fc8:    7808        .x      LDRB     r0,[r1,#0]
        0x00018fca:    2801        .(      CMP      r0,#1
        0x00018fcc:    d10a        ..      BNE      0x18fe4 ; am_hal_pwrctrl_low_power_init + 164
        0x00018fce:    f24020cc    @..     MOVW     r0,#0x2cc
        0x00018fd2:    f24021d4    @..!    MOVW     r1,#0x2d4
        0x00018fd6:    f2c10000    ....    MOVT     r0,#0x1000
        0x00018fda:    f2c10100    ....    MOVT     r1,#0x1000
        0x00018fde:    6800        .h      LDR      r0,[r0,#0]
        0x00018fe0:    680a        .h      LDR      r2,[r1,#0]
        0x00018fe2:    e032        2.      B        0x1904a ; am_hal_pwrctrl_low_power_init + 266
        0x00018fe4:    6820         h      LDR      r0,[r4,#0]
        0x00018fe6:    f24022cc    @.."    MOVW     r2,#0x2cc
        0x00018fea:    f3c05005    ...P    UBFX     r0,r0,#20,#6
        0x00018fee:    f2c10200    ....    MOVT     r2,#0x1000
        0x00018ff2:    f64f5c1c    O..\    MOV      r12,#0xfd1c
        0x00018ff6:    6010        .`      STR      r0,[r2,#0]
        0x00018ff8:    f6cf7cff    ...|    MOVT     r12,#0xffff
        0x00018ffc:    f854200c    T..     LDR      r2,[r4,r12]
        0x00019000:    f24025d4    @..%    MOVW     r5,#0x2d4
        0x00019004:    f002023f    ..?.    AND      r2,r2,#0x3f
        0x00019008:    f2c10500    ....    MOVT     r5,#0x1000
        0x0001900c:    602a        *`      STR      r2,[r5,#0]
        0x0001900e:    6825        %h      LDR      r5,[r4,#0]
        0x00019010:    f24023d0    @..#    MOVW     r3,#0x2d0
        0x00019014:    0ead        ..      LSRS     r5,r5,#26
        0x00019016:    f2c10300    ....    MOVT     r3,#0x1000
        0x0001901a:    601d        .`      STR      r5,[r3,#0]
        0x0001901c:    f854300c    T..0    LDR      r3,[r4,r12]
        0x00019020:    f24025d8    @..%    MOVW     r5,#0x2d8
        0x00019024:    f3c34385    ...C    UBFX     r3,r3,#18,#6
        0x00019028:    f2c10500    ....    MOVT     r5,#0x1000
        0x0001902c:    602b        +`      STR      r3,[r5,#0]
        0x0001902e:    f64f43d8    O..C    MOV      r3,#0xfcd8
        0x00019032:    f6cf73ff    ...s    MOVT     r3,#0xffff
        0x00019036:    58e3        .X      LDR      r3,[r4,r3]
        0x00019038:    f24025dc    @..%    MOVW     r5,#0x2dc
        0x0001903c:    f3c313c6    ....    UBFX     r3,r3,#7,#7
        0x00019040:    f2c10500    ....    MOVT     r5,#0x1000
        0x00019044:    602b        +`      STR      r3,[r5,#0]
        0x00019046:    2301        .#      MOVS     r3,#1
        0x00019048:    700b        .p      STRB     r3,[r1,#0]
        0x0001904a:    f24021c8    @..!    MOVW     r1,#0x2c8
        0x0001904e:    f2c10100    ....    MOVT     r1,#0x1000
        0x00019052:    6008        .`      STR      r0,[r1,#0]
        0x00019054:    f24020c4    @..     MOVW     r0,#0x2c4
        0x00019058:    f2c10000    ....    MOVT     r0,#0x1000
        0x0001905c:    f24064e8    @..d    MOVW     r4,#0x6e8
        0x00019060:    6002        .`      STR      r2,[r0,#0]
        0x00019062:    f2c10400    ....    MOVT     r4,#0x1000
        0x00019066:    2000        .       MOVS     r0,#0
        0x00019068:    6020         `      STR      r0,[r4,#0]
        0x0001906a:    ab01        ..      ADD      r3,sp,#4
        0x0001906c:    2001        .       MOVS     r0,#1
        0x0001906e:    f44f6192    O..a    MOV      r1,#0x490
        0x00019072:    2201        ."      MOVS     r2,#1
        0x00019074:    f7fffe54    ..T.    BL       am_hal_mram_info_read ; 0x18d20
        0x00019078:    b978        x.      CBNZ     r0,0x1909a ; am_hal_pwrctrl_low_power_init + 346
        0x0001907a:    9801        ..      LDR      r0,[sp,#4]
        0x0001907c:    f0100f06    ....    TST      r0,#6
        0x00019080:    d003        ..      BEQ      0x1908a ; am_hal_pwrctrl_low_power_init + 330
        0x00019082:    0781        ..      LSLS     r1,r0,#30
        0x00019084:    d403        ..      BMI      0x1908e ; am_hal_pwrctrl_low_power_init + 334
        0x00019086:    2006        .       MOVS     r0,#6
        0x00019088:    e006        ..      B        0x19098 ; am_hal_pwrctrl_low_power_init + 344
        0x0001908a:    2003        .       MOVS     r0,#3
        0x0001908c:    e004        ..      B        0x19098 ; am_hal_pwrctrl_low_power_init + 344
        0x0001908e:    0740        @.      LSLS     r0,r0,#29
        0x00019090:    f04f0000    O...    MOV      r0,#0
        0x00019094:    bf58        X.      IT       PL
        0x00019096:    2009        .       MOVPL    r0,#9
        0x00019098:    6020         `      STR      r0,[r4,#0]
        0x0001909a:    2000        .       MOVS     r0,#0
        0x0001909c:    b002        ..      ADD      sp,sp,#8
        0x0001909e:    bdb0        ..      POP      {r4,r5,r7,pc}
    am_hal_pwrctrl_mcu_memory_config
        0x000190a0:    b570        p.      PUSH     {r4-r6,lr}
        0x000190a2:    b082        ..      SUB      sp,sp,#8
        0x000190a4:    4606        .F      MOV      r6,r0
        0x000190a6:    7800        .x      LDRB     r0,[r0,#0]
        0x000190a8:    f2410514    A...    MOV      r5,#0x1014
        0x000190ac:    2802        .(      CMP      r0,#2
        0x000190ae:    f2c40502    ....    MOVT     r5,#0x4002
        0x000190b2:    d006        ..      BEQ      0x190c2 ; am_hal_pwrctrl_mcu_memory_config + 34
        0x000190b4:    2801        .(      CMP      r0,#1
        0x000190b6:    d00c        ..      BEQ      0x190d2 ; am_hal_pwrctrl_mcu_memory_config + 50
        0x000190b8:    b998        ..      CBNZ     r0,0x190e2 ; am_hal_pwrctrl_mcu_memory_config + 66
        0x000190ba:    6828        (h      LDR      r0,[r5,#0]
        0x000190bc:    f0200010     ...    BIC      r0,r0,#0x10
        0x000190c0:    e00a        ..      B        0x190d8 ; am_hal_pwrctrl_mcu_memory_config + 56
        0x000190c2:    6828        (h      LDR      r0,[r5,#0]
        0x000190c4:    f0400010    @...    ORR      r0,r0,#0x10
        0x000190c8:    6028        (`      STR      r0,[r5,#0]
        0x000190ca:    6828        (h      LDR      r0,[r5,#0]
        0x000190cc:    f0400020    @. .    ORR      r0,r0,#0x20
        0x000190d0:    e006        ..      B        0x190e0 ; am_hal_pwrctrl_mcu_memory_config + 64
        0x000190d2:    6828        (h      LDR      r0,[r5,#0]
        0x000190d4:    f0400010    @...    ORR      r0,r0,#0x10
        0x000190d8:    6028        (`      STR      r0,[r5,#0]
        0x000190da:    6828        (h      LDR      r0,[r5,#0]
        0x000190dc:    f0200020     . .    BIC      r0,r0,#0x20
        0x000190e0:    6028        (`      STR      r0,[r5,#0]
        0x000190e2:    78b0        .x      LDRB     r0,[r6,#2]
        0x000190e4:    6829        )h      LDR      r1,[r5,#0]
        0x000190e6:    2401        .$      MOVS     r4,#1
        0x000190e8:    f3600102    `...    BFI      r1,r0,#0,#3
        0x000190ec:    6029        )`      STR      r1,[r5,#0]
        0x000190ee:    7930        0y      LDRB     r0,[r6,#4]
        0x000190f0:    6829        )h      LDR      r1,[r5,#0]
        0x000190f2:    f000001f    ....    AND      r0,r0,#0x1f
        0x000190f6:    f0210108    !...    BIC      r1,r1,#8
        0x000190fa:    ea4100c0    A...    ORR      r0,r1,r0,LSL #3
        0x000190fe:    6028        (`      STR      r0,[r5,#0]
        0x00019100:    4629        )F      MOV      r1,r5
        0x00019102:    f8513b04    Q..;    LDR      r3,[r1],#4
        0x00019106:    2005        .       MOVS     r0,#5
        0x00019108:    223f        ?"      MOVS     r2,#0x3f
        0x0001910a:    9400        ..      STR      r4,[sp,#0]
        0x0001910c:    f7fffcac    ....    BL       am_hal_delay_us_status_check ; 0x18a68
        0x00019110:    2800        .(      CMP      r0,#0
        0x00019112:    d132        2.      BNE      0x1917a ; am_hal_pwrctrl_mcu_memory_config + 218
        0x00019114:    6868        hh      LDR      r0,[r5,#4]
        0x00019116:    6829        )h      LDR      r1,[r5,#0]
        0x00019118:    4048        H@      EORS     r0,r0,r1
        0x0001911a:    06c0        ..      LSLS     r0,r0,#27
        0x0001911c:    d42c        ,.      BMI      0x19178 ; am_hal_pwrctrl_mcu_memory_config + 216
        0x0001911e:    6868        hh      LDR      r0,[r5,#4]
        0x00019120:    6829        )h      LDR      r1,[r5,#0]
        0x00019122:    4048        H@      EORS     r0,r0,r1
        0x00019124:    0680        ..      LSLS     r0,r0,#26
        0x00019126:    d427        '.      BMI      0x19178 ; am_hal_pwrctrl_mcu_memory_config + 216
        0x00019128:    6868        hh      LDR      r0,[r5,#4]
        0x0001912a:    6829        )h      LDR      r1,[r5,#0]
        0x0001912c:    4048        H@      EORS     r0,r0,r1
        0x0001912e:    0740        @.      LSLS     r0,r0,#29
        0x00019130:    d122        ".      BNE      0x19178 ; am_hal_pwrctrl_mcu_memory_config + 216
        0x00019132:    6868        hh      LDR      r0,[r5,#4]
        0x00019134:    6829        )h      LDR      r1,[r5,#0]
        0x00019136:    4048        H@      EORS     r0,r0,r1
        0x00019138:    0700        ..      LSLS     r0,r0,#28
        0x0001913a:    d41d        ..      BMI      0x19178 ; am_hal_pwrctrl_mcu_memory_config + 216
        0x0001913c:    7870        px      LDRB     r0,[r6,#1]
        0x0001913e:    68a9        .h      LDR      r1,[r5,#8]
        0x00019140:    2800        .(      CMP      r0,#0
        0x00019142:    f0210110    !...    BIC      r1,r1,#0x10
        0x00019146:    bf08        ..      IT       EQ
        0x00019148:    3110        .1      ADDEQ    r1,r1,#0x10
        0x0001914a:    60a9        .`      STR      r1,[r5,#8]
        0x0001914c:    7970        py      LDRB     r0,[r6,#5]
        0x0001914e:    68a9        .h      LDR      r1,[r5,#8]
        0x00019150:    2800        .(      CMP      r0,#0
        0x00019152:    f0210108    !...    BIC      r1,r1,#8
        0x00019156:    bf08        ..      IT       EQ
        0x00019158:    3108        .1      ADDEQ    r1,r1,#8
        0x0001915a:    60a9        .`      STR      r1,[r5,#8]
        0x0001915c:    78f1        .x      LDRB     r1,[r6,#3]
        0x0001915e:    2000        .       MOVS     r0,#0
        0x00019160:    2907        .)      CMP      r1,#7
        0x00019162:    d80a        ..      BHI      0x1917a ; am_hal_pwrctrl_mcu_memory_config + 218
        0x00019164:    e8dff001    ....    TBB      [pc,r1]
    $d.3
        0x00019168:    0e090b04    ....    DCD    235473668
        0x0001916c:    13090909    ....    DCD    319359241
    $t.4
        0x00019170:    68a8        .h      LDR      r0,[r5,#8]
        0x00019172:    f0400007    @...    ORR      r0,r0,#7
        0x00019176:    e00d        ..      B        0x19194 ; am_hal_pwrctrl_mcu_memory_config + 244
        0x00019178:    2001        .       MOVS     r0,#1
        0x0001917a:    b002        ..      ADD      sp,sp,#8
        0x0001917c:    bd70        p.      POP      {r4-r6,pc}
        0x0001917e:    68a8        .h      LDR      r0,[r5,#8]
        0x00019180:    2106        .!      MOVS     r1,#6
        0x00019182:    e001        ..      B        0x19188 ; am_hal_pwrctrl_mcu_memory_config + 232
        0x00019184:    68a8        .h      LDR      r0,[r5,#8]
        0x00019186:    2104        .!      MOVS     r1,#4
        0x00019188:    f3610002    a...    BFI      r0,r1,#0,#3
        0x0001918c:    e002        ..      B        0x19194 ; am_hal_pwrctrl_mcu_memory_config + 244
        0x0001918e:    68a8        .h      LDR      r0,[r5,#8]
        0x00019190:    f0200007     ...    BIC      r0,r0,#7
        0x00019194:    60a8        .`      STR      r0,[r5,#8]
        0x00019196:    2000        .       MOVS     r0,#0
        0x00019198:    e7ef        ..      B        0x1917a ; am_hal_pwrctrl_mcu_memory_config + 218
        0x0001919a:    0000        ..      MOVS     r0,r0
    am_hal_pwrctrl_mcu_mode_select
        0x0001919c:    b570        p.      PUSH     {r4-r6,lr}
        0x0001919e:    4604        .F      MOV      r4,r0
        0x000191a0:    2801        .(      CMP      r0,#1
        0x000191a2:    d00d        ..      BEQ      0x191c0 ; am_hal_pwrctrl_mcu_mode_select + 36
        0x000191a4:    2c02        .,      CMP      r4,#2
        0x000191a6:    d129        ).      BNE      0x191fc ; am_hal_pwrctrl_mcu_mode_select + 96
        0x000191a8:    f2410000    A...    MOVW     r0,#0x1000
        0x000191ac:    f2c40002    ....    MOVT     r0,#0x4002
        0x000191b0:    f8d00108    ....    LDR      r0,[r0,#0x108]
        0x000191b4:    f0000030    ..0.    AND      r0,r0,#0x30
        0x000191b8:    2830        0(      CMP      r0,#0x30
        0x000191ba:    bf1c        ..      ITT      NE
        0x000191bc:    2007        .       MOVNE    r0,#7
        0x000191be:    bd70        p.      POPNE    {r4-r6,pc}
        0x000191c0:    f2400034    @.4.    MOVW     r0,#0x34
        0x000191c4:    f2c10000    ....    MOVT     r0,#0x1000
        0x000191c8:    7801        .x      LDRB     r1,[r0,#0]
        0x000191ca:    42a1        .B      CMP      r1,r4
        0x000191cc:    bf04        ..      ITT      EQ
        0x000191ce:    2000        .       MOVEQ    r0,#0
        0x000191d0:    bd70        p.      POPEQ    {r4-r6,pc}
        0x000191d2:    f2410500    A...    MOVW     r5,#0x1000
        0x000191d6:    f2c40502    ....    MOVT     r5,#0x4002
        0x000191da:    7004        .p      STRB     r4,[r0,#0]
        0x000191dc:    6828        (h      LDR      r0,[r5,#0]
        0x000191de:    2605        .&      MOVS     r6,#5
        0x000191e0:    f0200003     ...    BIC      r0,r0,#3
        0x000191e4:    4320         C      ORRS     r0,r0,r4
        0x000191e6:    6028        (`      STR      r0,[r5,#0]
        0x000191e8:    6828        (h      LDR      r0,[r5,#0]
        0x000191ea:    0740        @.      LSLS     r0,r0,#29
        0x000191ec:    d408        ..      BMI      0x19200 ; am_hal_pwrctrl_mcu_mode_select + 100
        0x000191ee:    2001        .       MOVS     r0,#1
        0x000191f0:    f7fffbf4    ....    BL       am_hal_delay_us ; 0x189dc
        0x000191f4:    3e01        .>      SUBS     r6,#1
        0x000191f6:    d1f7        ..      BNE      0x191e8 ; am_hal_pwrctrl_mcu_mode_select + 76
        0x000191f8:    2004        .       MOVS     r0,#4
        0x000191fa:    bd70        p.      POP      {r4-r6,pc}
        0x000191fc:    2006        .       MOVS     r0,#6
        0x000191fe:    bd70        p.      POP      {r4-r6,pc}
        0x00019200:    6828        (h      LDR      r0,[r5,#0]
        0x00019202:    f3c000c1    ....    UBFX     r0,r0,#3,#2
        0x00019206:    1b00        ..      SUBS     r0,r0,r4
        0x00019208:    bf18        ..      IT       NE
        0x0001920a:    2001        .       MOVNE    r0,#1
        0x0001920c:    bd70        p.      POP      {r4-r6,pc}
    am_hal_pwrctrl_mcu_mode_status
        0x0001920e:    b138        8.      CBZ      r0,0x19220 ; am_hal_pwrctrl_mcu_mode_status + 18
        0x00019210:    f2400134    @.4.    MOVW     r1,#0x34
        0x00019214:    f2c10100    ....    MOVT     r1,#0x1000
        0x00019218:    7809        .x      LDRB     r1,[r1,#0]
        0x0001921a:    7001        .p      STRB     r1,[r0,#0]
        0x0001921c:    2000        .       MOVS     r0,#0
        0x0001921e:    4770        pG      BX       lr
        0x00019220:    2006        .       MOVS     r0,#6
        0x00019222:    4770        pG      BX       lr
    am_hal_pwrctrl_periph_disable
        0x00019224:    e92d43f0    -..C    PUSH     {r4-r9,lr}
        0x00019228:    b083        ..      SUB      sp,sp,#0xc
        0x0001922a:    2818        .(      CMP      r0,#0x18
        0x0001922c:    d901        ..      BLS      0x19232 ; am_hal_pwrctrl_periph_disable + 14
        0x0001922e:    2406        .$      MOVS     r4,#6
        0x00019230:    e084        ..      B        0x1933c ; am_hal_pwrctrl_periph_disable + 280
        0x00019232:    f64a2108    J..!    MOV      r1,#0xaa08
        0x00019236:    f2c00101    ....    MOVT     r1,#1
        0x0001923a:    0102        ..      LSLS     r2,r0,#4
        0x0001923c:    f8518002    Q...    LDR      r8,[r1,r2]
        0x00019240:    eb011500    ....    ADD      r5,r1,r0,LSL #4
        0x00019244:    686f        oh      LDR      r7,[r5,#4]
        0x00019246:    f8d81000    ....    LDR      r1,[r8,#0]
        0x0001924a:    4239        9B      TST      r1,r7
        0x0001924c:    d075        u.      BEQ      0x1933a ; am_hal_pwrctrl_periph_disable + 278
        0x0001924e:    2812        .(      CMP      r0,#0x12
        0x00019250:    d12c        ,.      BNE      0x192ac ; am_hal_pwrctrl_periph_disable + 136
        0x00019252:    f64076e0    @..v    MOVW     r6,#0xfe0
        0x00019256:    f2c4060c    ....    MOVT     r6,#0x400c
        0x0001925a:    6830        0h      LDR      r0,[r6,#0]
        0x0001925c:    28c0        .(      CMP      r0,#0xc0
        0x0001925e:    d125        %.      BNE      0x192ac ; am_hal_pwrctrl_periph_disable + 136
        0x00019260:    f640297c    @.|)    MOV      r9,#0xa7c
        0x00019264:    f2c4090c    ....    MOVT     r9,#0x400c
        0x00019268:    2064        d       MOVS     r0,#0x64
        0x0001926a:    4649        IF      MOV      r1,r9
        0x0001926c:    2201        ."      MOVS     r2,#1
        0x0001926e:    2301        .#      MOVS     r3,#1
        0x00019270:    f7fffbd0    ....    BL       am_hal_delay_us_status_change ; 0x18a14
        0x00019274:    4604        .F      MOV      r4,r0
        0x00019276:    2800        .(      CMP      r0,#0
        0x00019278:    d160        `.      BNE      0x1933c ; am_hal_pwrctrl_periph_disable + 280
        0x0001927a:    f5066173    ..sa    ADD      r1,r6,#0xf30
        0x0001927e:    2064        d       MOVS     r0,#0x64
        0x00019280:    2201        ."      MOVS     r2,#1
        0x00019282:    2301        .#      MOVS     r3,#1
        0x00019284:    f7fffbc6    ....    BL       am_hal_delay_us_status_change ; 0x18a14
        0x00019288:    4604        .F      MOV      r4,r0
        0x0001928a:    2800        .(      CMP      r0,#0
        0x0001928c:    d156        V.      BNE      0x1933c ; am_hal_pwrctrl_periph_disable + 280
        0x0001928e:    f8d90004    ....    LDR      r0,[r9,#4]
        0x00019292:    f0400001    @...    ORR      r0,r0,#1
        0x00019296:    f8c90004    ....    STR      r0,[r9,#4]
        0x0001929a:    f24060e8    @..`    MOVW     r0,#0x6e8
        0x0001929e:    f2c10000    ....    MOVT     r0,#0x1000
        0x000192a2:    6801        .h      LDR      r1,[r0,#0]
        0x000192a4:    b111        ..      CBZ      r1,0x192ac ; am_hal_pwrctrl_periph_disable + 136
        0x000192a6:    2000        .       MOVS     r0,#0
        0x000192a8:    f000ff0e    ....    BL       crypto_boost_trims ; 0x1a0c8
        0x000192ac:    e9d56502    ...e    LDRD     r6,r5,[r5,#8]
        0x000192b0:    f7fffcf0    ....    BL       am_hal_interrupt_master_disable ; 0x18c94
        0x000192b4:    9002        ..      STR      r0,[sp,#8]
        0x000192b6:    f8d80000    ....    LDR      r0,[r8,#0]
        0x000192ba:    43b8        .C      BICS     r0,r0,r7
        0x000192bc:    f8c80000    ....    STR      r0,[r8,#0]
        0x000192c0:    9802        ..      LDR      r0,[sp,#8]
        0x000192c2:    f7fffcef    ....    BL       am_hal_interrupt_master_set ; 0x18ca4
        0x000192c6:    2400        .$      MOVS     r4,#0
        0x000192c8:    2005        .       MOVS     r0,#5
        0x000192ca:    4631        1F      MOV      r1,r6
        0x000192cc:    462a        *F      MOV      r2,r5
        0x000192ce:    462b        +F      MOV      r3,r5
        0x000192d0:    9400        ..      STR      r4,[sp,#0]
        0x000192d2:    f7fffbc9    ....    BL       am_hal_delay_us_status_check ; 0x18a68
        0x000192d6:    b388        ..      CBZ      r0,0x1933c ; am_hal_pwrctrl_periph_disable + 280
        0x000192d8:    f5b57ff0    ....    CMP      r5,#0x1e0
        0x000192dc:    f04f0400    O...    MOV      r4,#0
        0x000192e0:    db0c        ..      BLT      0x192fc ; am_hal_pwrctrl_periph_disable + 216
        0x000192e2:    d015        ..      BEQ      0x19310 ; am_hal_pwrctrl_periph_disable + 236
        0x000192e4:    f5b53fe0    ...?    CMP      r5,#0x1c000
        0x000192e8:    d01a        ..      BEQ      0x19320 ; am_hal_pwrctrl_periph_disable + 252
        0x000192ea:    f5b55ff0    ..._    CMP      r5,#0x1e00
        0x000192ee:    d125        %.      BNE      0x1933c ; am_hal_pwrctrl_periph_disable + 280
        0x000192f0:    f8d80000    ....    LDR      r0,[r8,#0]
        0x000192f4:    f4105ff0    ..._    TST      r0,#0x1e00
        0x000192f8:    d11d        ..      BNE      0x19336 ; am_hal_pwrctrl_periph_disable + 274
        0x000192fa:    e01e        ..      B        0x1933a ; am_hal_pwrctrl_periph_disable + 278
        0x000192fc:    2d1e        .-      CMP      r5,#0x1e
        0x000192fe:    d015        ..      BEQ      0x1932c ; am_hal_pwrctrl_periph_disable + 264
        0x00019300:    2d47        G-      CMP      r5,#0x47
        0x00019302:    d11b        ..      BNE      0x1933c ; am_hal_pwrctrl_periph_disable + 280
        0x00019304:    f8d80000    ....    LDR      r0,[r8,#0]
        0x00019308:    f0100f47    ..G.    TST      r0,#0x47
        0x0001930c:    d113        ..      BNE      0x19336 ; am_hal_pwrctrl_periph_disable + 274
        0x0001930e:    e014        ..      B        0x1933a ; am_hal_pwrctrl_periph_disable + 278
        0x00019310:    f8d80000    ....    LDR      r0,[r8,#0]
        0x00019314:    f4107ff0    ....    TST      r0,#0x1e0
        0x00019318:    bf18        ..      IT       NE
        0x0001931a:    f8d80000    ....    LDRNE    r0,[r8,#0]
        0x0001931e:    e00c        ..      B        0x1933a ; am_hal_pwrctrl_periph_disable + 278
        0x00019320:    f8d80000    ....    LDR      r0,[r8,#0]
        0x00019324:    f4103fe0    ...?    TST      r0,#0x1c000
        0x00019328:    d105        ..      BNE      0x19336 ; am_hal_pwrctrl_periph_disable + 274
        0x0001932a:    e006        ..      B        0x1933a ; am_hal_pwrctrl_periph_disable + 278
        0x0001932c:    f8d80000    ....    LDR      r0,[r8,#0]
        0x00019330:    f0100f1e    ....    TST      r0,#0x1e
        0x00019334:    d001        ..      BEQ      0x1933a ; am_hal_pwrctrl_periph_disable + 278
        0x00019336:    f8d80000    ....    LDR      r0,[r8,#0]
        0x0001933a:    2400        .$      MOVS     r4,#0
        0x0001933c:    4620         F      MOV      r0,r4
        0x0001933e:    b003        ..      ADD      sp,sp,#0xc
        0x00019340:    e8bd83f0    ....    POP      {r4-r9,pc}
    am_hal_pwrctrl_periph_enable
        0x00019344:    e92d43f0    -..C    PUSH     {r4-r9,lr}
        0x00019348:    b083        ..      SUB      sp,sp,#0xc
        0x0001934a:    2818        .(      CMP      r0,#0x18
        0x0001934c:    d901        ..      BLS      0x19352 ; am_hal_pwrctrl_periph_enable + 14
        0x0001934e:    2706        .'      MOVS     r7,#6
        0x00019350:    e00d        ..      B        0x1936e ; am_hal_pwrctrl_periph_enable + 42
        0x00019352:    4606        .F      MOV      r6,r0
        0x00019354:    f64a2108    J..!    MOV      r1,#0xaa08
        0x00019358:    f2c00101    ....    MOVT     r1,#1
        0x0001935c:    0132        2.      LSLS     r2,r6,#4
        0x0001935e:    588f        .X      LDR      r7,[r1,r2]
        0x00019360:    eb011000    ....    ADD      r0,r1,r0,LSL #4
        0x00019364:    6844        Dh      LDR      r4,[r0,#4]
        0x00019366:    6839        9h      LDR      r1,[r7,#0]
        0x00019368:    4221        !B      TST      r1,r4
        0x0001936a:    d004        ..      BEQ      0x19376 ; am_hal_pwrctrl_periph_enable + 50
        0x0001936c:    2700        .'      MOVS     r7,#0
        0x0001936e:    4638        8F      MOV      r0,r7
        0x00019370:    b003        ..      ADD      sp,sp,#0xc
        0x00019372:    e8bd83f0    ....    POP      {r4-r9,pc}
        0x00019376:    e9d09502    ....    LDRD     r9,r5,[r0,#8]
        0x0001937a:    f24068e8    @..h    MOVW     r8,#0x6e8
        0x0001937e:    2e12        ..      CMP      r6,#0x12
        0x00019380:    f2c10800    ....    MOVT     r8,#0x1000
        0x00019384:    d105        ..      BNE      0x19392 ; am_hal_pwrctrl_periph_enable + 78
        0x00019386:    f8d81000    ....    LDR      r1,[r8,#0]
        0x0001938a:    b111        ..      CBZ      r1,0x19392 ; am_hal_pwrctrl_periph_enable + 78
        0x0001938c:    2001        .       MOVS     r0,#1
        0x0001938e:    f000fe9b    ....    BL       crypto_boost_trims ; 0x1a0c8
        0x00019392:    f7fffc7f    ....    BL       am_hal_interrupt_master_disable ; 0x18c94
        0x00019396:    9002        ..      STR      r0,[sp,#8]
        0x00019398:    6838        8h      LDR      r0,[r7,#0]
        0x0001939a:    4320         C      ORRS     r0,r0,r4
        0x0001939c:    6038        8`      STR      r0,[r7,#0]
        0x0001939e:    9802        ..      LDR      r0,[sp,#8]
        0x000193a0:    f7fffc80    ....    BL       am_hal_interrupt_master_set ; 0x18ca4
        0x000193a4:    2701        .'      MOVS     r7,#1
        0x000193a6:    2005        .       MOVS     r0,#5
        0x000193a8:    4649        IF      MOV      r1,r9
        0x000193aa:    462a        *F      MOV      r2,r5
        0x000193ac:    462b        +F      MOV      r3,r5
        0x000193ae:    9700        ..      STR      r7,[sp,#0]
        0x000193b0:    f7fffb5a    ..Z.    BL       am_hal_delay_us_status_check ; 0x18a68
        0x000193b4:    b150        P.      CBZ      r0,0x193cc ; am_hal_pwrctrl_periph_enable + 136
        0x000193b6:    4607        .F      MOV      r7,r0
        0x000193b8:    2e12        ..      CMP      r6,#0x12
        0x000193ba:    d1d8        ..      BNE      0x1936e ; am_hal_pwrctrl_periph_enable + 42
        0x000193bc:    f8d81000    ....    LDR      r1,[r8,#0]
        0x000193c0:    2900        .)      CMP      r1,#0
        0x000193c2:    d0d4        ..      BEQ      0x1936e ; am_hal_pwrctrl_periph_enable + 42
        0x000193c4:    2000        .       MOVS     r0,#0
        0x000193c6:    f000fe7f    ....    BL       crypto_boost_trims ; 0x1a0c8
        0x000193ca:    e7d0        ..      B        0x1936e ; am_hal_pwrctrl_periph_enable + 42
        0x000193cc:    2e12        ..      CMP      r6,#0x12
        0x000193ce:    d10b        ..      BNE      0x193e8 ; am_hal_pwrctrl_periph_enable + 164
        0x000193d0:    f6417110    A..q    MOV      r1,#0x1f10
        0x000193d4:    f2c4010c    ....    MOVT     r1,#0x400c
        0x000193d8:    2064        d       MOVS     r0,#0x64
        0x000193da:    2201        ."      MOVS     r2,#1
        0x000193dc:    2301        .#      MOVS     r3,#1
        0x000193de:    f7fffb19    ....    BL       am_hal_delay_us_status_change ; 0x18a14
        0x000193e2:    4607        .F      MOV      r7,r0
        0x000193e4:    2800        .(      CMP      r0,#0
        0x000193e6:    d1c2        ..      BNE      0x1936e ; am_hal_pwrctrl_periph_enable + 42
        0x000193e8:    f8d90000    ....    LDR      r0,[r9,#0]
        0x000193ec:    4028        (@      ANDS     r0,r0,r5
        0x000193ee:    fab0f080    ....    CLZ      r0,r0
        0x000193f2:    0947        G.      LSRS     r7,r0,#5
        0x000193f4:    e7bb        ..      B        0x1936e ; am_hal_pwrctrl_periph_enable + 42
        0x000193f6:    0000        ..      MOVS     r0,r0
    am_hal_pwrctrl_sram_config
        0x000193f8:    b570        p.      PUSH     {r4-r6,lr}
        0x000193fa:    b082        ..      SUB      sp,sp,#8
        0x000193fc:    f2410624    A.$.    MOV      r6,#0x1024
        0x00019400:    f2c40602    ....    MOVT     r6,#0x4002
        0x00019404:    4604        .F      MOV      r4,r0
        0x00019406:    7800        .x      LDRB     r0,[r0,#0]
        0x00019408:    6831        1h      LDR      r1,[r6,#0]
        0x0001940a:    2501        .%      MOVS     r5,#1
        0x0001940c:    f3600101    `...    BFI      r1,r0,#0,#2
        0x00019410:    6031        1`      STR      r1,[r6,#0]
        0x00019412:    4631        1F      MOV      r1,r6
        0x00019414:    f8513b04    Q..;    LDR      r3,[r1],#4
        0x00019418:    2005        .       MOVS     r0,#5
        0x0001941a:    2203        ."      MOVS     r2,#3
        0x0001941c:    9500        ..      STR      r5,[sp,#0]
        0x0001941e:    f7fffb23    ..#.    BL       am_hal_delay_us_status_check ; 0x18a68
        0x00019422:    2800        .(      CMP      r0,#0
        0x00019424:    d13e        >.      BNE      0x194a4 ; am_hal_pwrctrl_sram_config + 172
        0x00019426:    6870        ph      LDR      r0,[r6,#4]
        0x00019428:    6831        1h      LDR      r1,[r6,#0]
        0x0001942a:    4048        H@      EORS     r0,r0,r1
        0x0001942c:    0780        ..      LSLS     r0,r0,#30
        0x0001942e:    d001        ..      BEQ      0x19434 ; am_hal_pwrctrl_sram_config + 60
        0x00019430:    2001        .       MOVS     r0,#1
        0x00019432:    e037        7.      B        0x194a4 ; am_hal_pwrctrl_sram_config + 172
        0x00019434:    7860        `x      LDRB     r0,[r4,#1]
        0x00019436:    68b1        .h      LDR      r1,[r6,#8]
        0x00019438:    f3600183    `...    BFI      r1,r0,#2,#2
        0x0001943c:    60b1        .`      STR      r1,[r6,#8]
        0x0001943e:    78a0        .x      LDRB     r0,[r4,#2]
        0x00019440:    68b1        .h      LDR      r1,[r6,#8]
        0x00019442:    f0000003    ....    AND      r0,r0,#3
        0x00019446:    f02101c0    !...    BIC      r1,r1,#0xc0
        0x0001944a:    ea411080    A...    ORR      r0,r1,r0,LSL #6
        0x0001944e:    60b0        .`      STR      r0,[r6,#8]
        0x00019450:    78e0        .x      LDRB     r0,[r4,#3]
        0x00019452:    68b1        .h      LDR      r1,[r6,#8]
        0x00019454:    f0000003    ....    AND      r0,r0,#3
        0x00019458:    f4217140    !.@q    BIC      r1,r1,#0x300
        0x0001945c:    ea412000    A..     ORR      r0,r1,r0,LSL #8
        0x00019460:    60b0        .`      STR      r0,[r6,#8]
        0x00019462:    7920         y      LDRB     r0,[r4,#4]
        0x00019464:    68b1        .h      LDR      r1,[r6,#8]
        0x00019466:    f3601105    `...    BFI      r1,r0,#4,#2
        0x0001946a:    60b1        .`      STR      r1,[r6,#8]
        0x0001946c:    7960        `y      LDRB     r0,[r4,#5]
        0x0001946e:    2803        .(      CMP      r0,#3
        0x00019470:    d813        ..      BHI      0x1949a ; am_hal_pwrctrl_sram_config + 162
        0x00019472:    e8dff000    ....    TBB      [pc,r0]
    $d.7
        0x00019476:    0602        ..      DCW    1538
        0x00019478:    0e09        ..      DCW    3593
    $t.8
        0x0001947a:    68b0        .h      LDR      r0,[r6,#8]
        0x0001947c:    f0400003    @...    ORR      r0,r0,#3
        0x00019480:    e00a        ..      B        0x19498 ; am_hal_pwrctrl_sram_config + 160
        0x00019482:    68b0        .h      LDR      r0,[r6,#8]
        0x00019484:    2102        .!      MOVS     r1,#2
        0x00019486:    e001        ..      B        0x1948c ; am_hal_pwrctrl_sram_config + 148
        0x00019488:    68b0        .h      LDR      r0,[r6,#8]
        0x0001948a:    2101        .!      MOVS     r1,#1
        0x0001948c:    f3610001    a...    BFI      r0,r1,#0,#2
        0x00019490:    e002        ..      B        0x19498 ; am_hal_pwrctrl_sram_config + 160
        0x00019492:    68b0        .h      LDR      r0,[r6,#8]
        0x00019494:    f0200003     ...    BIC      r0,r0,#3
        0x00019498:    60b0        .`      STR      r0,[r6,#8]
        0x0001949a:    69f0        .i      LDR      r0,[r6,#0x1c]
        0x0001949c:    f4206040     .@`    BIC      r0,r0,#0xc00
        0x000194a0:    61f0        .a      STR      r0,[r6,#0x1c]
        0x000194a2:    2000        .       MOVS     r0,#0
        0x000194a4:    b002        ..      ADD      sp,sp,#8
        0x000194a6:    bd70        p.      POP      {r4-r6,pc}
    am_hal_reset_status_get
        0x000194a8:    b3c0        ..      CBZ      r0,0x1951c ; am_hal_reset_status_get + 116
        0x000194aa:    f24003b8    @...    MOVW     r3,#0xb8
        0x000194ae:    f2c10300    ....    MOVT     r3,#0x1000
        0x000194b2:    6819        .h      LDR      r1,[r3,#0]
        0x000194b4:    b921        !.      CBNZ     r1,0x194c0 ; am_hal_reset_status_get + 24
        0x000194b6:    f648015c    H.\.    MOV      r1,#0x885c
        0x000194ba:    f2c40100    ....    MOVT     r1,#0x4000
        0x000194be:    6809        .h      LDR      r1,[r1,#0]
        0x000194c0:    468c        .F      MOV      r12,r1
        0x000194c2:    f36f2cdf    o..,    BFC      r12,#11,#21
        0x000194c6:    f8c3c000    ....    STR      r12,[r3,#0]
        0x000194ca:    b2cb        ..      UXTB     r3,r1
        0x000194cc:    f0010201    ....    AND      r2,r1,#1
        0x000194d0:    7082        .p      STRB     r2,[r0,#2]
        0x000194d2:    f3c30240    ..@.    UBFX     r2,r3,#1,#1
        0x000194d6:    70c2        .p      STRB     r2,[r0,#3]
        0x000194d8:    f3c30280    ....    UBFX     r2,r3,#2,#1
        0x000194dc:    7102        .q      STRB     r2,[r0,#4]
        0x000194de:    f3c302c0    ....    UBFX     r2,r3,#3,#1
        0x000194e2:    7142        Bq      STRB     r2,[r0,#5]
        0x000194e4:    f3c31200    ....    UBFX     r2,r3,#4,#1
        0x000194e8:    7182        .q      STRB     r2,[r0,#6]
        0x000194ea:    f3c31240    ..@.    UBFX     r2,r3,#5,#1
        0x000194ee:    71c2        .q      STRB     r2,[r0,#7]
        0x000194f0:    f3c31280    ....    UBFX     r2,r3,#6,#1
        0x000194f4:    7202        .r      STRB     r2,[r0,#8]
        0x000194f6:    09da        ..      LSRS     r2,r3,#7
        0x000194f8:    7242        Br      STRB     r2,[r0,#9]
        0x000194fa:    f3c12200    ..."    UBFX     r2,r1,#8,#1
        0x000194fe:    f3c12140    ..@!    UBFX     r1,r1,#9,#1
        0x00019502:    72c1        .r      STRB     r1,[r0,#0xb]
        0x00019504:    ea4f219c    O..!    LSR      r1,r12,#10
        0x00019508:    7301        .s      STRB     r1,[r0,#0xc]
        0x0001950a:    2100        .!      MOVS     r1,#0
        0x0001950c:    f8a0c000    ....    STRH     r12,[r0,#0]
        0x00019510:    7282        .r      STRB     r2,[r0,#0xa]
        0x00019512:    7341        As      STRB     r1,[r0,#0xd]
        0x00019514:    fabcf08c    ....    CLZ      r0,r12
        0x00019518:    0940        @.      LSRS     r0,r0,#5
        0x0001951a:    4770        pG      BX       lr
        0x0001951c:    2006        .       MOVS     r0,#6
        0x0001951e:    4770        pG      BX       lr
    am_hal_rtc_osc_disable
        0x00019520:    f6440100    D...    MOVW     r1,#0x4800
        0x00019524:    f2c40100    ....    MOVT     r1,#0x4000
        0x00019528:    6808        .h      LDR      r0,[r1,#0]
        0x0001952a:    f0400210    @...    ORR      r2,r0,#0x10
        0x0001952e:    2000        .       MOVS     r0,#0
        0x00019530:    600a        .`      STR      r2,[r1,#0]
        0x00019532:    4770        pG      BX       lr
    am_hal_sysctrl_sleep
        0x00019534:    e92d41f0    -..A    PUSH     {r4-r8,lr}
        0x00019538:    b084        ..      SUB      sp,sp,#0x10
        0x0001953a:    a902        ..      ADD      r1,sp,#8
        0x0001953c:    f1b15f80    ..._    CMP      r1,#0x10000000
        0x00019540:    d344        D.      BCC      0x195cc ; am_hal_sysctrl_sleep + 152
        0x00019542:    4604        .F      MOV      r4,r0
        0x00019544:    2000        .       MOVS     r0,#0
        0x00019546:    f2c10006    ....    MOVT     r0,#0x1006
        0x0001954a:    4281        .B      CMP      r1,r0
        0x0001954c:    d23e        >.      BCS      0x195cc ; am_hal_sysctrl_sleep + 152
        0x0001954e:    f64e5510    N..U    MOV      r5,#0xed10
        0x00019552:    f2410608    A...    MOV      r6,#0x1008
        0x00019556:    f2ce0500    ....    MOVT     r5,#0xe000
        0x0001955a:    f2c40602    ....    MOVT     r6,#0x4002
        0x0001955e:    f7fffb99    ....    BL       am_hal_interrupt_master_disable ; 0x18c94
        0x00019562:    9001        ..      STR      r0,[sp,#4]
        0x00019564:    f8d60100    ....    LDR      r0,[r6,#0x100]
        0x00019568:    b38c        ..      CBZ      r4,0x195ce ; am_hal_sysctrl_sleep + 154
        0x0001956a:    f2403770    @.p7    MOVW     r7,#0x370
        0x0001956e:    f64f61e0    O..a    MOV      r1,#0xfee0
        0x00019572:    f2c40702    ....    MOVT     r7,#0x4002
        0x00019576:    f6cf71ff    ...q    MOVT     r1,#0xffff
        0x0001957a:    5879        yX      LDR      r1,[r7,r1]
        0x0001957c:    07c9        ..      LSLS     r1,r1,#31
        0x0001957e:    d126        &.      BNE      0x195ce ; am_hal_sysctrl_sleep + 154
        0x00019580:    f0000030    ..0.    AND      r0,r0,#0x30
        0x00019584:    f64f4890    O..H    MOV      r8,#0xfc90
        0x00019588:    2830        0(      CMP      r0,#0x30
        0x0001958a:    f6cf78ff    ...x    MOVT     r8,#0xffff
        0x0001958e:    d106        ..      BNE      0x1959e ; am_hal_sysctrl_sleep + 106
        0x00019590:    6830        0h      LDR      r0,[r6,#0]
        0x00019592:    f64f71ff    O..q    MOV      r1,#0xffff
        0x00019596:    f2c01133    ..3.    MOVT     r1,#0x133
        0x0001959a:    4208        .B      TST      r0,r1
        0x0001959c:    d042        B.      BEQ      0x19624 ; am_hal_sysctrl_sleep + 240
        0x0001959e:    2400        .$      MOVS     r4,#0
        0x000195a0:    f8570008    W...    LDR      r0,[r7,r8]
        0x000195a4:    f4104f70    ..pO    TST      r0,#0xf000
        0x000195a8:    d10a        ..      BNE      0x195c0 ; am_hal_sysctrl_sleep + 140
        0x000195aa:    6830        0h      LDR      r0,[r6,#0]
        0x000195ac:    01c0        ..      LSLS     r0,r0,#7
        0x000195ae:    d407        ..      BMI      0x195c0 ; am_hal_sysctrl_sleep + 140
        0x000195b0:    f10d000f    ....    ADD      r0,sp,#0xf
        0x000195b4:    f7fffe2b    ..+.    BL       am_hal_pwrctrl_mcu_mode_status ; 0x1920e
        0x000195b8:    f89d000f    ....    LDRB     r0,[sp,#0xf]
        0x000195bc:    2802        .(      CMP      r0,#2
        0x000195be:    d14c        L.      BNE      0x1965a ; am_hal_sysctrl_sleep + 294
        0x000195c0:    2600        .&      MOVS     r6,#0
        0x000195c2:    6828        (h      LDR      r0,[r5,#0]
        0x000195c4:    f0400004    @...    ORR      r0,r0,#4
        0x000195c8:    e006        ..      B        0x195d8 ; am_hal_sysctrl_sleep + 164
        0x000195ca:    bf00        ..      NOP      
        0x000195cc:    e7fe        ..      B        0x195cc ; am_hal_sysctrl_sleep + 152
        0x000195ce:    6828        (h      LDR      r0,[r5,#0]
        0x000195d0:    2400        .$      MOVS     r4,#0
        0x000195d2:    f0200004     ...    BIC      r0,r0,#4
        0x000195d6:    2600        .&      MOVS     r6,#0
        0x000195d8:    6028        (`      STR      r0,[r5,#0]
        0x000195da:    2001        .       MOVS     r0,#1
        0x000195dc:    2100        .!      MOVS     r1,#0
        0x000195de:    f7fff8ed    ....    BL       am_hal_daxi_control ; 0x187bc
        0x000195e2:    bf30        0.      WFI      
        0x000195e4:    f3bf8f6f    ..o.    ISB      
        0x000195e8:    b116        ..      CBZ      r6,0x195f0 ; am_hal_sysctrl_sleep + 188
        0x000195ea:    2001        .       MOVS     r0,#1
        0x000195ec:    f7fffdd6    ....    BL       am_hal_pwrctrl_mcu_mode_select ; 0x1919c
        0x000195f0:    b194        ..      CBZ      r4,0x19618 ; am_hal_sysctrl_sleep + 228
        0x000195f2:    2001        .       MOVS     r0,#1
        0x000195f4:    f000fd53    ..S.    BL       buck_ldo_update_override ; 0x1a09e
        0x000195f8:    f2403070    @.p0    MOVW     r0,#0x370
        0x000195fc:    f2c40002    ....    MOVT     r0,#0x4002
        0x00019600:    6901        .i      LDR      r1,[r0,#0x10]
        0x00019602:    f0414100    A..A    ORR      r1,r1,#0x80000000
        0x00019606:    6101        .a      STR      r1,[r0,#0x10]
        0x00019608:    6901        .i      LDR      r1,[r0,#0x10]
        0x0001960a:    f0414180    A..A    ORR      r1,r1,#0x40000000
        0x0001960e:    6101        .a      STR      r1,[r0,#0x10]
        0x00019610:    6801        .h      LDR      r1,[r0,#0]
        0x00019612:    f021717c    !.|q    BIC      r1,r1,#0x3f00000
        0x00019616:    6001        .`      STR      r1,[r0,#0]
        0x00019618:    9801        ..      LDR      r0,[sp,#4]
        0x0001961a:    f7fffb43    ..C.    BL       am_hal_interrupt_master_set ; 0x18ca4
        0x0001961e:    b004        ..      ADD      sp,sp,#0x10
        0x00019620:    e8bd81f0    ....    POP      {r4-r8,pc}
        0x00019624:    f240004c    @.L.    MOVW     r0,#0x4c
        0x00019628:    f2c10000    ....    MOVT     r0,#0x1000
        0x0001962c:    6800        .h      LDR      r0,[r0,#0]
        0x0001962e:    6839        9h      LDR      r1,[r7,#0]
        0x00019630:    f3605119    `..Q    BFI      r1,r0,#20,#6
        0x00019634:    6039        9`      STR      r1,[r7,#0]
        0x00019636:    6938        8i      LDR      r0,[r7,#0x10]
        0x00019638:    f0204000     ..@    BIC      r0,r0,#0x80000000
        0x0001963c:    6138        8a      STR      r0,[r7,#0x10]
        0x0001963e:    6938        8i      LDR      r0,[r7,#0x10]
        0x00019640:    f0204080     ..@    BIC      r0,r0,#0x40000000
        0x00019644:    6138        8a      STR      r0,[r7,#0x10]
        0x00019646:    f8570008    W...    LDR      r0,[r7,r8]
        0x0001964a:    f4104f7f    ...O    TST      r0,#0xff00
        0x0001964e:    d002        ..      BEQ      0x19656 ; am_hal_sysctrl_sleep + 290
        0x00019650:    2000        .       MOVS     r0,#0
        0x00019652:    f000fd24    ..$.    BL       buck_ldo_update_override ; 0x1a09e
        0x00019656:    2401        .$      MOVS     r4,#1
        0x00019658:    e7a2        ..      B        0x195a0 ; am_hal_sysctrl_sleep + 108
        0x0001965a:    2002        .       MOVS     r0,#2
        0x0001965c:    f7fffd9e    ....    BL       am_hal_pwrctrl_mcu_mode_select ; 0x1919c
        0x00019660:    2601        .&      MOVS     r6,#1
        0x00019662:    e7ae        ..      B        0x195c2 ; am_hal_sysctrl_sleep + 142
    am_hal_tpiu_enable
        0x00019664:    f24a3280    J..2    MOV      r2,#0xa380
        0x00019668:    2104        .!      MOVS     r1,#4
        0x0001966a:    f5a04361    ..aC    SUB      r3,r0,#0xe100
        0x0001966e:    f2c0021d    ....    MOVT     r2,#0x1d
        0x00019672:    f2ce0104    ....    MOVT     r1,#0xe004
        0x00019676:    f04f0c00    O...    MOV      r12,#0
        0x0001967a:    4293        .B      CMP      r3,r2
        0x0001967c:    f6464300    F..C    MOVW     r3,#0x6c00
        0x00019680:    f8c1c300    ....    STR      r12,[r1,#0x300]
        0x00019684:    bf84        ..      ITT      HI
        0x00019686:    f2442040    D.@     MOVHI    r0,#0x4240
        0x0001968a:    f2c0000f    ....    MOVTHI   r0,#0xf
        0x0001968e:    f2c023dc    ...#    MOVT     r3,#0x2dc
        0x00019692:    fbb3f0f0    ....    UDIV     r0,r3,r0
        0x00019696:    2201        ."      MOVS     r2,#1
        0x00019698:    3801        .8      SUBS     r0,#1
        0x0001969a:    b280        ..      UXTH     r0,r0
        0x0001969c:    600a        .`      STR      r2,[r1,#0]
        0x0001969e:    60c8        .`      STR      r0,[r1,#0xc]
        0x000196a0:    2002        .       MOVS     r0,#2
        0x000196a2:    f8c100ec    ....    STR      r0,[r1,#0xec]
        0x000196a6:    f6407100    @..q    MOVW     r1,#0xf00
        0x000196aa:    f2ce0104    ....    MOVT     r1,#0xe004
        0x000196ae:    f8c1c000    ....    STR      r12,[r1,#0]
        0x000196b2:    f2402150    @.P!    MOVW     r1,#0x250
        0x000196b6:    f2c40102    ....    MOVT     r1,#0x4002
        0x000196ba:    680a        .h      LDR      r2,[r1,#0]
        0x000196bc:    f3600243    `.C.    BFI      r2,r0,#1,#3
        0x000196c0:    600a        .`      STR      r2,[r1,#0]
        0x000196c2:    6808        .h      LDR      r0,[r1,#0]
        0x000196c4:    f0400201    @...    ORR      r2,r0,#1
        0x000196c8:    2064        d       MOVS     r0,#0x64
        0x000196ca:    600a        .`      STR      r2,[r1,#0]
        0x000196cc:    f7ffb986    ....    B        am_hal_delay_us ; 0x189dc
    am_hal_wdt_config
        0x000196d0:    b108        ..      CBZ      r0,0x196d6 ; am_hal_wdt_config + 6
        0x000196d2:    2001        .       MOVS     r0,#1
        0x000196d4:    4770        pG      BX       lr
        0x000196d6:    6848        Hh      LDR      r0,[r1,#4]
        0x000196d8:    780a        .x      LDRB     r2,[r1,#0]
        0x000196da:    0400        ..      LSLS     r0,r0,#16
        0x000196dc:    fa3ff080    ?...    UXTB16   r0,r0
        0x000196e0:    7b0b        .{      LDRB     r3,[r1,#0xc]
        0x000196e2:    f362601a    b..`    BFI      r0,r2,#24,#3
        0x000196e6:    7a0a        .z      LDRB     r2,[r1,#8]
        0x000196e8:    ea402003    @..     ORR      r0,r0,r3,LSL #8
        0x000196ec:    784b        Kx      LDRB     r3,[r1,#1]
        0x000196ee:    2a00        .*      CMP      r2,#0
        0x000196f0:    f2440200    D...    MOVW     r2,#0x4000
        0x000196f4:    bf18        ..      IT       NE
        0x000196f6:    3004        .0      ADDNE    r0,#4
        0x000196f8:    f2c40202    ....    MOVT     r2,#0x4002
        0x000196fc:    2b00        .+      CMP      r3,#0
        0x000196fe:    bf18        ..      IT       NE
        0x00019700:    3002        .0      ADDNE    r0,#2
        0x00019702:    6010        .`      STR      r0,[r2,#0]
        0x00019704:    7a08        .z      LDRB     r0,[r1,#8]
        0x00019706:    f04f4180    O..A    MOV      r1,#0x40000000
        0x0001970a:    680a        .h      LDR      r2,[r1,#0]
        0x0001970c:    f000007f    ....    AND      r0,r0,#0x7f
        0x00019710:    f0220202    "...    BIC      r2,r2,#2
        0x00019714:    ea420040    B.@.    ORR      r0,r2,r0,LSL #1
        0x00019718:    6008        .`      STR      r0,[r1,#0]
        0x0001971a:    2000        .       MOVS     r0,#0
        0x0001971c:    4770        pG      BX       lr
    am_hal_wdt_interrupt_clear
        0x0001971e:    b108        ..      CBZ      r0,0x19724 ; am_hal_wdt_interrupt_clear + 6
        0x00019720:    2001        .       MOVS     r0,#1
        0x00019722:    4770        pG      BX       lr
        0x00019724:    f2442008    D..     MOV      r0,#0x4208
        0x00019728:    f2c40002    ....    MOVT     r0,#0x4002
        0x0001972c:    6001        .`      STR      r1,[r0,#0]
        0x0001972e:    2000        .       MOVS     r0,#0
        0x00019730:    4770        pG      BX       lr
    am_hal_wdt_interrupt_enable
        0x00019732:    b108        ..      CBZ      r0,0x19738 ; am_hal_wdt_interrupt_enable + 6
        0x00019734:    2001        .       MOVS     r0,#1
        0x00019736:    4770        pG      BX       lr
        0x00019738:    f2442000    D..     MOVW     r0,#0x4200
        0x0001973c:    f2c40002    ....    MOVT     r0,#0x4002
        0x00019740:    6802        .h      LDR      r2,[r0,#0]
        0x00019742:    4311        .C      ORRS     r1,r1,r2
        0x00019744:    6001        .`      STR      r1,[r0,#0]
        0x00019746:    2000        .       MOVS     r0,#0
        0x00019748:    4770        pG      BX       lr
    am_hal_wdt_interrupt_status_get
        0x0001974a:    b142        B.      CBZ      r2,0x1975e ; am_hal_wdt_interrupt_status_get + 20
        0x0001974c:    b940        @.      CBNZ     r0,0x19760 ; am_hal_wdt_interrupt_status_get + 22
        0x0001974e:    f2442000    D..     MOVW     r0,#0x4200
        0x00019752:    f2c40002    ....    MOVT     r0,#0x4002
        0x00019756:    6842        Bh      LDR      r2,[r0,#4]
        0x00019758:    6800        .h      LDR      r0,[r0,#0]
        0x0001975a:    4010        .@      ANDS     r0,r0,r2
        0x0001975c:    e007        ..      B        0x1976e ; am_hal_wdt_interrupt_status_get + 36
        0x0001975e:    b108        ..      CBZ      r0,0x19764 ; am_hal_wdt_interrupt_status_get + 26
        0x00019760:    2001        .       MOVS     r0,#1
        0x00019762:    4770        pG      BX       lr
        0x00019764:    f2442000    D..     MOVW     r0,#0x4200
        0x00019768:    f2c40002    ....    MOVT     r0,#0x4002
        0x0001976c:    6840        @h      LDR      r0,[r0,#4]
        0x0001976e:    6008        .`      STR      r0,[r1,#0]
        0x00019770:    2000        .       MOVS     r0,#0
        0x00019772:    4770        pG      BX       lr
    am_hal_wdt_restart
        0x00019774:    b108        ..      CBZ      r0,0x1977a ; am_hal_wdt_restart + 6
        0x00019776:    2001        .       MOVS     r0,#1
        0x00019778:    4770        pG      BX       lr
        0x0001977a:    f2440004    D...    MOV      r0,#0x4004
        0x0001977e:    f2c40002    ....    MOVT     r0,#0x4002
        0x00019782:    21b2        .!      MOVS     r1,#0xb2
        0x00019784:    6001        .`      STR      r1,[r0,#0]
        0x00019786:    2000        .       MOVS     r0,#0
        0x00019788:    4770        pG      BX       lr
    am_hal_wdt_start
        0x0001978a:    b108        ..      CBZ      r0,0x19790 ; am_hal_wdt_start + 6
        0x0001978c:    2001        .       MOVS     r0,#1
        0x0001978e:    4770        pG      BX       lr
        0x00019790:    f2440000    D...    MOVW     r0,#0x4000
        0x00019794:    f2c40002    ....    MOVT     r0,#0x4002
        0x00019798:    22b2        ."      MOVS     r2,#0xb2
        0x0001979a:    6042        B`      STR      r2,[r0,#4]
        0x0001979c:    6802        .h      LDR      r2,[r0,#0]
        0x0001979e:    f0420201    B...    ORR      r2,r2,#1
        0x000197a2:    6002        .`      STR      r2,[r0,#0]
        0x000197a4:    b109        ..      CBZ      r1,0x197aa ; am_hal_wdt_start + 32
        0x000197a6:    213a        :!      MOVS     r1,#0x3a
        0x000197a8:    6081        .`      STR      r1,[r0,#8]
        0x000197aa:    2000        .       MOVS     r0,#0
        0x000197ac:    4770        pG      BX       lr
        0x000197ae:    0000        ..      MOVS     r0,r0
    am_util_delay_ms
        0x000197b0:    b580        ..      PUSH     {r7,lr}
        0x000197b2:    b082        ..      SUB      sp,sp,#8
        0x000197b4:    9001        ..      STR      r0,[sp,#4]
        0x000197b6:    9801        ..      LDR      r0,[sp,#4]
        0x000197b8:    f44f717a    O.zq    MOV      r1,#0x3e8
        0x000197bc:    4348        HC      MULS     r0,r1,r0
        0x000197be:    f7fff90d    ....    BL       am_hal_delay_us ; 0x189dc
        0x000197c2:    b002        ..      ADD      sp,sp,#8
        0x000197c4:    bd80        ..      POP      {r7,pc}
        0x000197c6:    0000        ..      MOVS     r0,r0
    am_util_faultisr_collect_data
        0x000197c8:    b580        ..      PUSH     {r7,lr}
        0x000197ca:    b096        ..      SUB      sp,sp,#0x58
        0x000197cc:    9015        ..      STR      r0,[sp,#0x54]
        0x000197ce:    2000        .       MOVS     r0,#0
        0x000197d0:    9008        ..      STR      r0,[sp,#0x20]
        0x000197d2:    9007        ..      STR      r0,[sp,#0x1c]
        0x000197d4:    9006        ..      STR      r0,[sp,#0x18]
        0x000197d6:    9005        ..      STR      r0,[sp,#0x14]
        0x000197d8:    9004        ..      STR      r0,[sp,#0x10]
        0x000197da:    9003        ..      STR      r0,[sp,#0xc]
        0x000197dc:    9002        ..      STR      r0,[sp,#8]
        0x000197de:    9802        ..      LDR      r0,[sp,#8]
        0x000197e0:    9013        ..      STR      r0,[sp,#0x4c]
        0x000197e2:    f64e5028    N.(P    MOV      r0,#0xed28
        0x000197e6:    f2ce0000    ....    MOVT     r0,#0xe000
        0x000197ea:    6800        .h      LDR      r0,[r0,#0]
        0x000197ec:    9013        ..      STR      r0,[sp,#0x4c]
        0x000197ee:    9813        ..      LDR      r0,[sp,#0x4c]
        0x000197f0:    f88d0050    ..P.    STRB     r0,[sp,#0x50]
        0x000197f4:    9813        ..      LDR      r0,[sp,#0x4c]
        0x000197f6:    0a00        ..      LSRS     r0,r0,#8
        0x000197f8:    f88d0051    ..Q.    STRB     r0,[sp,#0x51]
        0x000197fc:    9813        ..      LDR      r0,[sp,#0x4c]
        0x000197fe:    0c00        ..      LSRS     r0,r0,#16
        0x00019800:    f8ad0052    ..R.    STRH     r0,[sp,#0x52]
        0x00019804:    f64e5038    N.8P    MOV      r0,#0xed38
        0x00019808:    f2ce0000    ....    MOVT     r0,#0xe000
        0x0001980c:    6800        .h      LDR      r0,[r0,#0]
        0x0001980e:    9012        ..      STR      r0,[sp,#0x48]
        0x00019810:    9815        ..      LDR      r0,[sp,#0x54]
        0x00019812:    f000fbaf    ....    BL       am_valid_sp ; 0x19f74
        0x00019816:    b3d8        ..      CBZ      r0,0x19890 ; am_util_faultisr_collect_data + 200
        0x00019818:    e7ff        ..      B        0x1981a ; am_util_faultisr_collect_data + 82
        0x0001981a:    f89d0051    ..Q.    LDRB     r0,[sp,#0x51]
        0x0001981e:    0780        ..      LSLS     r0,r0,#30
        0x00019820:    2800        .(      CMP      r0,#0
        0x00019822:    d506        ..      BPL      0x19832 ; am_util_faultisr_collect_data + 106
        0x00019824:    e7ff        ..      B        0x19826 ; am_util_faultisr_collect_data + 94
        0x00019826:    9915        ..      LDR      r1,[sp,#0x54]
        0x00019828:    2006        .       MOVS     r0,#6
        0x0001982a:    f000feaf    ....    BL       getStackedReg ; 0x1a58c
        0x0001982e:    9001        ..      STR      r0,[sp,#4]
        0x00019830:    e003        ..      B        0x1983a ; am_util_faultisr_collect_data + 114
        0x00019832:    f04f30ff    O..0    MOV      r0,#0xffffffff
        0x00019836:    9001        ..      STR      r0,[sp,#4]
        0x00019838:    e7ff        ..      B        0x1983a ; am_util_faultisr_collect_data + 114
        0x0001983a:    9801        ..      LDR      r0,[sp,#4]
        0x0001983c:    9011        ..      STR      r0,[sp,#0x44]
        0x0001983e:    9915        ..      LDR      r1,[sp,#0x54]
        0x00019840:    2000        .       MOVS     r0,#0
        0x00019842:    f000fea3    ....    BL       getStackedReg ; 0x1a58c
        0x00019846:    9009        ..      STR      r0,[sp,#0x24]
        0x00019848:    9915        ..      LDR      r1,[sp,#0x54]
        0x0001984a:    2001        .       MOVS     r0,#1
        0x0001984c:    f000fe9e    ....    BL       getStackedReg ; 0x1a58c
        0x00019850:    900a        ..      STR      r0,[sp,#0x28]
        0x00019852:    9915        ..      LDR      r1,[sp,#0x54]
        0x00019854:    2002        .       MOVS     r0,#2
        0x00019856:    f000fe99    ....    BL       getStackedReg ; 0x1a58c
        0x0001985a:    900b        ..      STR      r0,[sp,#0x2c]
        0x0001985c:    9915        ..      LDR      r1,[sp,#0x54]
        0x0001985e:    2003        .       MOVS     r0,#3
        0x00019860:    f000fe94    ....    BL       getStackedReg ; 0x1a58c
        0x00019864:    900c        ..      STR      r0,[sp,#0x30]
        0x00019866:    9915        ..      LDR      r1,[sp,#0x54]
        0x00019868:    2004        .       MOVS     r0,#4
        0x0001986a:    f000fe8f    ....    BL       getStackedReg ; 0x1a58c
        0x0001986e:    900d        ..      STR      r0,[sp,#0x34]
        0x00019870:    9915        ..      LDR      r1,[sp,#0x54]
        0x00019872:    2005        .       MOVS     r0,#5
        0x00019874:    f000fe8a    ....    BL       getStackedReg ; 0x1a58c
        0x00019878:    900e        ..      STR      r0,[sp,#0x38]
        0x0001987a:    9915        ..      LDR      r1,[sp,#0x54]
        0x0001987c:    2006        .       MOVS     r0,#6
        0x0001987e:    f000fe85    ....    BL       getStackedReg ; 0x1a58c
        0x00019882:    900f        ..      STR      r0,[sp,#0x3c]
        0x00019884:    9915        ..      LDR      r1,[sp,#0x54]
        0x00019886:    2007        .       MOVS     r0,#7
        0x00019888:    f000fe80    ....    BL       getStackedReg ; 0x1a58c
        0x0001988c:    9010        ..      STR      r0,[sp,#0x40]
        0x0001988e:    e7ff        ..      B        0x19890 ; am_util_faultisr_collect_data + 200
        0x00019890:    a803        ..      ADD      r0,sp,#0xc
        0x00019892:    f7fff91a    ....    BL       am_hal_fault_status_get ; 0x18aca
        0x00019896:    2000        .       MOVS     r0,#0
        0x00019898:    9002        ..      STR      r0,[sp,#8]
        0x0001989a:    e7ff        ..      B        0x1989c ; am_util_faultisr_collect_data + 212
        0x0001989c:    e7fe        ..      B        0x1989c ; am_util_faultisr_collect_data + 212
        0x0001989e:    0000        ..      MOVS     r0,r0
    am_util_stdio_printf
        0x000198a0:    b083        ..      SUB      sp,sp,#0xc
        0x000198a2:    b580        ..      PUSH     {r7,lr}
        0x000198a4:    b085        ..      SUB      sp,sp,#0x14
        0x000198a6:    9309        ..      STR      r3,[sp,#0x24]
        0x000198a8:    9208        ..      STR      r2,[sp,#0x20]
        0x000198aa:    9107        ..      STR      r1,[sp,#0x1c]
        0x000198ac:    9003        ..      STR      r0,[sp,#0xc]
        0x000198ae:    f24020e0    @..     MOVW     r0,#0x2e0
        0x000198b2:    f2c10000    ....    MOVT     r0,#0x1000
        0x000198b6:    6800        .h      LDR      r0,[r0,#0]
        0x000198b8:    b918        ..      CBNZ     r0,0x198c2 ; am_util_stdio_printf + 34
        0x000198ba:    e7ff        ..      B        0x198bc ; am_util_stdio_printf + 28
        0x000198bc:    2000        .       MOVS     r0,#0
        0x000198be:    9004        ..      STR      r0,[sp,#0x10]
        0x000198c0:    e016        ..      B        0x198f0 ; am_util_stdio_printf + 80
        0x000198c2:    a807        ..      ADD      r0,sp,#0x1c
        0x000198c4:    9001        ..      STR      r0,[sp,#4]
        0x000198c6:    9903        ..      LDR      r1,[sp,#0xc]
        0x000198c8:    9a01        ..      LDR      r2,[sp,#4]
        0x000198ca:    f24020e4    @..     MOVW     r0,#0x2e4
        0x000198ce:    f2c10000    ....    MOVT     r0,#0x1000
        0x000198d2:    9000        ..      STR      r0,[sp,#0]
        0x000198d4:    f000f824    ..$.    BL       am_util_stdio_vsprintf ; 0x19920
        0x000198d8:    4601        .F      MOV      r1,r0
        0x000198da:    9800        ..      LDR      r0,[sp,#0]
        0x000198dc:    9102        ..      STR      r1,[sp,#8]
        0x000198de:    f24021e0    @..!    MOVW     r1,#0x2e0
        0x000198e2:    f2c10100    ....    MOVT     r1,#0x1000
        0x000198e6:    6809        .h      LDR      r1,[r1,#0]
        0x000198e8:    4788        .G      BLX      r1
        0x000198ea:    9802        ..      LDR      r0,[sp,#8]
        0x000198ec:    9004        ..      STR      r0,[sp,#0x10]
        0x000198ee:    e7ff        ..      B        0x198f0 ; am_util_stdio_printf + 80
        0x000198f0:    9804        ..      LDR      r0,[sp,#0x10]
        0x000198f2:    b005        ..      ADD      sp,sp,#0x14
        0x000198f4:    e8bd4080    ...@    POP      {r7,lr}
        0x000198f8:    b003        ..      ADD      sp,sp,#0xc
        0x000198fa:    4770        pG      BX       lr
    am_util_stdio_printf_init
        0x000198fc:    b081        ..      SUB      sp,sp,#4
        0x000198fe:    9000        ..      STR      r0,[sp,#0]
        0x00019900:    9800        ..      LDR      r0,[sp,#0]
        0x00019902:    f24021e0    @..!    MOVW     r1,#0x2e0
        0x00019906:    f2c10100    ....    MOVT     r1,#0x1000
        0x0001990a:    6008        .`      STR      r0,[r1,#0]
        0x0001990c:    b001        ..      ADD      sp,sp,#4
        0x0001990e:    4770        pG      BX       lr
    am_util_stdio_terminal_clear
        0x00019910:    b580        ..      PUSH     {r7,lr}
        0x00019912:    f64a4087    J..@    MOV      r0,#0xac87
        0x00019916:    f2c00001    ....    MOVT     r0,#1
        0x0001991a:    f7ffffc1    ....    BL       am_util_stdio_printf ; 0x198a0
        0x0001991e:    bd80        ..      POP      {r7,pc}
    am_util_stdio_vsprintf
        0x00019920:    b580        ..      PUSH     {r7,lr}
        0x00019922:    b09e        ..      SUB      sp,sp,#0x78
        0x00019924:    921d        ..      STR      r2,[sp,#0x74]
        0x00019926:    901c        ..      STR      r0,[sp,#0x70]
        0x00019928:    911b        ..      STR      r1,[sp,#0x6c]
        0x0001992a:    2000        .       MOVS     r0,#0
        0x0001992c:    9014        ..      STR      r0,[sp,#0x50]
        0x0001992e:    900e        ..      STR      r0,[sp,#0x38]
        0x00019930:    e7ff        ..      B        0x19932 ; am_util_stdio_vsprintf + 18
        0x00019932:    981b        ..      LDR      r0,[sp,#0x6c]
        0x00019934:    7800        .x      LDRB     r0,[r0,#0]
        0x00019936:    2800        .(      CMP      r0,#0
        0x00019938:    f0008312    ....    BEQ.W    0x19f60 ; am_util_stdio_vsprintf + 1600
        0x0001993c:    e7ff        ..      B        0x1993e ; am_util_stdio_vsprintf + 30
        0x0001993e:    2006        .       MOVS     r0,#6
        0x00019940:    9011        ..      STR      r0,[sp,#0x44]
        0x00019942:    981b        ..      LDR      r0,[sp,#0x6c]
        0x00019944:    7800        .x      LDRB     r0,[r0,#0]
        0x00019946:    2825        %(      CMP      r0,#0x25
        0x00019948:    d027        '.      BEQ      0x1999a ; am_util_stdio_vsprintf + 122
        0x0001994a:    e7ff        ..      B        0x1994c ; am_util_stdio_vsprintf + 44
        0x0001994c:    981c        ..      LDR      r0,[sp,#0x70]
        0x0001994e:    b1e8        ..      CBZ      r0,0x1998c ; am_util_stdio_vsprintf + 108
        0x00019950:    e7ff        ..      B        0x19952 ; am_util_stdio_vsprintf + 50
        0x00019952:    981b        ..      LDR      r0,[sp,#0x6c]
        0x00019954:    7800        .x      LDRB     r0,[r0,#0]
        0x00019956:    280a        .(      CMP      r0,#0xa
        0x00019958:    d111        ..      BNE      0x1997e ; am_util_stdio_vsprintf + 94
        0x0001995a:    e7ff        ..      B        0x1995c ; am_util_stdio_vsprintf + 60
        0x0001995c:    f24020c2    @..     MOV      r0,#0x2c2
        0x00019960:    f2c10000    ....    MOVT     r0,#0x1000
        0x00019964:    7800        .x      LDRB     r0,[r0,#0]
        0x00019966:    07c0        ..      LSLS     r0,r0,#31
        0x00019968:    b148        H.      CBZ      r0,0x1997e ; am_util_stdio_vsprintf + 94
        0x0001996a:    e7ff        ..      B        0x1996c ; am_util_stdio_vsprintf + 76
        0x0001996c:    991c        ..      LDR      r1,[sp,#0x70]
        0x0001996e:    1c48        H.      ADDS     r0,r1,#1
        0x00019970:    901c        ..      STR      r0,[sp,#0x70]
        0x00019972:    200d        .       MOVS     r0,#0xd
        0x00019974:    7008        .p      STRB     r0,[r1,#0]
        0x00019976:    9814        ..      LDR      r0,[sp,#0x50]
        0x00019978:    3001        .0      ADDS     r0,#1
        0x0001997a:    9014        ..      STR      r0,[sp,#0x50]
        0x0001997c:    e7ff        ..      B        0x1997e ; am_util_stdio_vsprintf + 94
        0x0001997e:    981b        ..      LDR      r0,[sp,#0x6c]
        0x00019980:    7800        .x      LDRB     r0,[r0,#0]
        0x00019982:    991c        ..      LDR      r1,[sp,#0x70]
        0x00019984:    1c4a        J.      ADDS     r2,r1,#1
        0x00019986:    921c        ..      STR      r2,[sp,#0x70]
        0x00019988:    7008        .p      STRB     r0,[r1,#0]
        0x0001998a:    e7ff        ..      B        0x1998c ; am_util_stdio_vsprintf + 108
        0x0001998c:    981b        ..      LDR      r0,[sp,#0x6c]
        0x0001998e:    3001        .0      ADDS     r0,#1
        0x00019990:    901b        ..      STR      r0,[sp,#0x6c]
        0x00019992:    9814        ..      LDR      r0,[sp,#0x50]
        0x00019994:    3001        .0      ADDS     r0,#1
        0x00019996:    9014        ..      STR      r0,[sp,#0x50]
        0x00019998:    e7cb        ..      B        0x19932 ; am_util_stdio_vsprintf + 18
        0x0001999a:    981b        ..      LDR      r0,[sp,#0x6c]
        0x0001999c:    3001        .0      ADDS     r0,#1
        0x0001999e:    901b        ..      STR      r0,[sp,#0x6c]
        0x000199a0:    2000        .       MOVS     r0,#0
        0x000199a2:    f88d0040    ..@.    STRB     r0,[sp,#0x40]
        0x000199a6:    f88d0041    ..A.    STRB     r0,[sp,#0x41]
        0x000199aa:    2020                MOVS     r0,#0x20
        0x000199ac:    f88d0042    ..B.    STRB     r0,[sp,#0x42]
        0x000199b0:    981b        ..      LDR      r0,[sp,#0x6c]
        0x000199b2:    7800        .x      LDRB     r0,[r0,#0]
        0x000199b4:    2830        0(      CMP      r0,#0x30
        0x000199b6:    d107        ..      BNE      0x199c8 ; am_util_stdio_vsprintf + 168
        0x000199b8:    e7ff        ..      B        0x199ba ; am_util_stdio_vsprintf + 154
        0x000199ba:    2030        0       MOVS     r0,#0x30
        0x000199bc:    f88d0042    ..B.    STRB     r0,[sp,#0x42]
        0x000199c0:    981b        ..      LDR      r0,[sp,#0x6c]
        0x000199c2:    3001        .0      ADDS     r0,#1
        0x000199c4:    901b        ..      STR      r0,[sp,#0x6c]
        0x000199c6:    e7ff        ..      B        0x199c8 ; am_util_stdio_vsprintf + 168
        0x000199c8:    981b        ..      LDR      r0,[sp,#0x6c]
        0x000199ca:    a915        ..      ADD      r1,sp,#0x54
        0x000199cc:    f000fbe6    ....    BL       decstr_to_int ; 0x1a19c
        0x000199d0:    9013        ..      STR      r0,[sp,#0x4c]
        0x000199d2:    9915        ..      LDR      r1,[sp,#0x54]
        0x000199d4:    981b        ..      LDR      r0,[sp,#0x6c]
        0x000199d6:    4408        .D      ADD      r0,r0,r1
        0x000199d8:    901b        ..      STR      r0,[sp,#0x6c]
        0x000199da:    981b        ..      LDR      r0,[sp,#0x6c]
        0x000199dc:    7800        .x      LDRB     r0,[r0,#0]
        0x000199de:    2873        s(      CMP      r0,#0x73
        0x000199e0:    d009        ..      BEQ      0x199f6 ; am_util_stdio_vsprintf + 214
        0x000199e2:    e7ff        ..      B        0x199e4 ; am_util_stdio_vsprintf + 196
        0x000199e4:    9813        ..      LDR      r0,[sp,#0x4c]
        0x000199e6:    f1b03fff    ...?    CMP      r0,#0xffffffff
        0x000199ea:    dc04        ..      BGT      0x199f6 ; am_util_stdio_vsprintf + 214
        0x000199ec:    e7ff        ..      B        0x199ee ; am_util_stdio_vsprintf + 206
        0x000199ee:    9813        ..      LDR      r0,[sp,#0x4c]
        0x000199f0:    4240        @B      RSBS     r0,r0,#0
        0x000199f2:    9013        ..      STR      r0,[sp,#0x4c]
        0x000199f4:    e7ff        ..      B        0x199f6 ; am_util_stdio_vsprintf + 214
        0x000199f6:    981b        ..      LDR      r0,[sp,#0x6c]
        0x000199f8:    7800        .x      LDRB     r0,[r0,#0]
        0x000199fa:    282e        .(      CMP      r0,#0x2e
        0x000199fc:    d10d        ..      BNE      0x19a1a ; am_util_stdio_vsprintf + 250
        0x000199fe:    e7ff        ..      B        0x19a00 ; am_util_stdio_vsprintf + 224
        0x00019a00:    981b        ..      LDR      r0,[sp,#0x6c]
        0x00019a02:    3001        .0      ADDS     r0,#1
        0x00019a04:    901b        ..      STR      r0,[sp,#0x6c]
        0x00019a06:    981b        ..      LDR      r0,[sp,#0x6c]
        0x00019a08:    a915        ..      ADD      r1,sp,#0x54
        0x00019a0a:    f000fbc7    ....    BL       decstr_to_int ; 0x1a19c
        0x00019a0e:    9011        ..      STR      r0,[sp,#0x44]
        0x00019a10:    9915        ..      LDR      r1,[sp,#0x54]
        0x00019a12:    981b        ..      LDR      r0,[sp,#0x6c]
        0x00019a14:    4408        .D      ADD      r0,r0,r1
        0x00019a16:    901b        ..      STR      r0,[sp,#0x6c]
        0x00019a18:    e7ff        ..      B        0x19a1a ; am_util_stdio_vsprintf + 250
        0x00019a1a:    981b        ..      LDR      r0,[sp,#0x6c]
        0x00019a1c:    7800        .x      LDRB     r0,[r0,#0]
        0x00019a1e:    286c        l(      CMP      r0,#0x6c
        0x00019a20:    d110        ..      BNE      0x19a44 ; am_util_stdio_vsprintf + 292
        0x00019a22:    e7ff        ..      B        0x19a24 ; am_util_stdio_vsprintf + 260
        0x00019a24:    981b        ..      LDR      r0,[sp,#0x6c]
        0x00019a26:    3001        .0      ADDS     r0,#1
        0x00019a28:    901b        ..      STR      r0,[sp,#0x6c]
        0x00019a2a:    981b        ..      LDR      r0,[sp,#0x6c]
        0x00019a2c:    7800        .x      LDRB     r0,[r0,#0]
        0x00019a2e:    286c        l(      CMP      r0,#0x6c
        0x00019a30:    d107        ..      BNE      0x19a42 ; am_util_stdio_vsprintf + 290
        0x00019a32:    e7ff        ..      B        0x19a34 ; am_util_stdio_vsprintf + 276
        0x00019a34:    981b        ..      LDR      r0,[sp,#0x6c]
        0x00019a36:    3001        .0      ADDS     r0,#1
        0x00019a38:    901b        ..      STR      r0,[sp,#0x6c]
        0x00019a3a:    2001        .       MOVS     r0,#1
        0x00019a3c:    f88d0040    ..@.    STRB     r0,[sp,#0x40]
        0x00019a40:    e7ff        ..      B        0x19a42 ; am_util_stdio_vsprintf + 290
        0x00019a42:    e7ff        ..      B        0x19a44 ; am_util_stdio_vsprintf + 292
        0x00019a44:    981b        ..      LDR      r0,[sp,#0x6c]
        0x00019a46:    7800        .x      LDRB     r0,[r0,#0]
        0x00019a48:    3846        F8      SUBS     r0,r0,#0x46
        0x00019a4a:    4601        .F      MOV      r1,r0
        0x00019a4c:    910b        ..      STR      r1,[sp,#0x2c]
        0x00019a4e:    2832        2(      CMP      r0,#0x32
        0x00019a50:    f2008273    ..s.    BHI.W    0x19f3a ; am_util_stdio_vsprintf + 1562
        0x00019a54:    990b        ..      LDR      r1,[sp,#0x2c]
        0x00019a56:    e8dff011    ....    TBH      [pc,r1,LSL #1]
    $d.4
        0x00019a5a:    0224        $.      DCW    548
        0x00019a5c:    02700270    p.p.    DCD    40895088
        0x00019a60:    02700270    p.p.    DCD    40895088
        0x00019a64:    02700270    p.p.    DCD    40895088
        0x00019a68:    02700270    p.p.    DCD    40895088
        0x00019a6c:    02700270    p.p.    DCD    40895088
        0x00019a70:    02700270    p.p.    DCD    40895088
        0x00019a74:    02700270    p.p.    DCD    40895088
        0x00019a78:    02700270    p.p.    DCD    40895088
        0x00019a7c:    00bf0270    p...    DCD    12518000
        0x00019a80:    02700270    p.p.    DCD    40895088
        0x00019a84:    02700270    p.p.    DCD    40895088
        0x00019a88:    02700270    p.p.    DCD    40895088
        0x00019a8c:    02700270    p.p.    DCD    40895088
        0x00019a90:    02700270    p.p.    DCD    40895088
        0x00019a94:    016f0033    3.o.    DCD    24051763
        0x00019a98:    02240270    p.$.    DCD    35914352
        0x00019a9c:    02700270    p.p.    DCD    40895088
        0x00019aa0:    0270016f    o.p.    DCD    40894831
        0x00019aa4:    02700270    p.p.    DCD    40895088
        0x00019aa8:    02700270    p.p.    DCD    40895088
        0x00019aac:    02700270    p.p.    DCD    40895088
        0x00019ab0:    02700270    p.p.    DCD    40895088
        0x00019ab4:    02700047    G.p.    DCD    40894535
        0x00019ab8:    02700119    ..p.    DCD    40894745
        0x00019abc:    00bb0270    p...    DCD    12255856
    $t.5
        0x00019ac0:    981d        ..      LDR      r0,[sp,#0x74]
        0x00019ac2:    1d01        ..      ADDS     r1,r0,#4
        0x00019ac4:    911d        ..      STR      r1,[sp,#0x74]
        0x00019ac6:    6800        .h      LDR      r0,[r0,#0]
        0x00019ac8:    f88d0043    ..C.    STRB     r0,[sp,#0x43]
        0x00019acc:    981c        ..      LDR      r0,[sp,#0x70]
        0x00019ace:    b138        8.      CBZ      r0,0x19ae0 ; am_util_stdio_vsprintf + 448
        0x00019ad0:    e7ff        ..      B        0x19ad2 ; am_util_stdio_vsprintf + 434
        0x00019ad2:    f89d0043    ..C.    LDRB     r0,[sp,#0x43]
        0x00019ad6:    991c        ..      LDR      r1,[sp,#0x70]
        0x00019ad8:    1c4a        J.      ADDS     r2,r1,#1
        0x00019ada:    921c        ..      STR      r2,[sp,#0x70]
        0x00019adc:    7008        .p      STRB     r0,[r1,#0]
        0x00019ade:    e7ff        ..      B        0x19ae0 ; am_util_stdio_vsprintf + 448
        0x00019ae0:    9814        ..      LDR      r0,[sp,#0x50]
        0x00019ae2:    3001        .0      ADDS     r0,#1
        0x00019ae4:    9014        ..      STR      r0,[sp,#0x50]
        0x00019ae6:    e236        6.      B        0x19f56 ; am_util_stdio_vsprintf + 1590
        0x00019ae8:    981d        ..      LDR      r0,[sp,#0x74]
        0x00019aea:    1d01        ..      ADDS     r1,r0,#4
        0x00019aec:    911d        ..      STR      r1,[sp,#0x74]
        0x00019aee:    6800        .h      LDR      r0,[r0,#0]
        0x00019af0:    901a        ..      STR      r0,[sp,#0x68]
        0x00019af2:    981a        ..      LDR      r0,[sp,#0x68]
        0x00019af4:    f000fe2c    ..,.    BL       simple_strlen ; 0x1a750
        0x00019af8:    900e        ..      STR      r0,[sp,#0x38]
        0x00019afa:    9813        ..      LDR      r0,[sp,#0x4c]
        0x00019afc:    2801        .(      CMP      r0,#1
        0x00019afe:    db25        %.      BLT      0x19b4c ; am_util_stdio_vsprintf + 556
        0x00019b00:    e7ff        ..      B        0x19b02 ; am_util_stdio_vsprintf + 482
        0x00019b02:    980e        ..      LDR      r0,[sp,#0x38]
        0x00019b04:    9913        ..      LDR      r1,[sp,#0x4c]
        0x00019b06:    4288        .B      CMP      r0,r1
        0x00019b08:    d21f        ..      BCS      0x19b4a ; am_util_stdio_vsprintf + 554
        0x00019b0a:    e7ff        ..      B        0x19b0c ; am_util_stdio_vsprintf + 492
        0x00019b0c:    990e        ..      LDR      r1,[sp,#0x38]
        0x00019b0e:    9813        ..      LDR      r0,[sp,#0x4c]
        0x00019b10:    1a40        @.      SUBS     r0,r0,r1
        0x00019b12:    9013        ..      STR      r0,[sp,#0x4c]
        0x00019b14:    981c        ..      LDR      r0,[sp,#0x70]
        0x00019b16:    f89d1042    ..B.    LDRB     r1,[sp,#0x42]
        0x00019b1a:    9a13        ..      LDR      r2,[sp,#0x4c]
        0x00019b1c:    f000fdf0    ....    BL       padbuffer ; 0x1a700
        0x00019b20:    9013        ..      STR      r0,[sp,#0x4c]
        0x00019b22:    981c        ..      LDR      r0,[sp,#0x70]
        0x00019b24:    b118        ..      CBZ      r0,0x19b2e ; am_util_stdio_vsprintf + 526
        0x00019b26:    e7ff        ..      B        0x19b28 ; am_util_stdio_vsprintf + 520
        0x00019b28:    9813        ..      LDR      r0,[sp,#0x4c]
        0x00019b2a:    900a        ..      STR      r0,[sp,#0x28]
        0x00019b2c:    e002        ..      B        0x19b34 ; am_util_stdio_vsprintf + 532
        0x00019b2e:    2000        .       MOVS     r0,#0
        0x00019b30:    900a        ..      STR      r0,[sp,#0x28]
        0x00019b32:    e7ff        ..      B        0x19b34 ; am_util_stdio_vsprintf + 532
        0x00019b34:    990a        ..      LDR      r1,[sp,#0x28]
        0x00019b36:    981c        ..      LDR      r0,[sp,#0x70]
        0x00019b38:    4408        .D      ADD      r0,r0,r1
        0x00019b3a:    901c        ..      STR      r0,[sp,#0x70]
        0x00019b3c:    9913        ..      LDR      r1,[sp,#0x4c]
        0x00019b3e:    9814        ..      LDR      r0,[sp,#0x50]
        0x00019b40:    4408        .D      ADD      r0,r0,r1
        0x00019b42:    9014        ..      STR      r0,[sp,#0x50]
        0x00019b44:    2000        .       MOVS     r0,#0
        0x00019b46:    9013        ..      STR      r0,[sp,#0x4c]
        0x00019b48:    e7ff        ..      B        0x19b4a ; am_util_stdio_vsprintf + 554
        0x00019b4a:    e7ff        ..      B        0x19b4c ; am_util_stdio_vsprintf + 556
        0x00019b4c:    e7ff        ..      B        0x19b4e ; am_util_stdio_vsprintf + 558
        0x00019b4e:    981a        ..      LDR      r0,[sp,#0x68]
        0x00019b50:    7800        .x      LDRB     r0,[r0,#0]
        0x00019b52:    b188        ..      CBZ      r0,0x19b78 ; am_util_stdio_vsprintf + 600
        0x00019b54:    e7ff        ..      B        0x19b56 ; am_util_stdio_vsprintf + 566
        0x00019b56:    981c        ..      LDR      r0,[sp,#0x70]
        0x00019b58:    b138        8.      CBZ      r0,0x19b6a ; am_util_stdio_vsprintf + 586
        0x00019b5a:    e7ff        ..      B        0x19b5c ; am_util_stdio_vsprintf + 572
        0x00019b5c:    981a        ..      LDR      r0,[sp,#0x68]
        0x00019b5e:    7800        .x      LDRB     r0,[r0,#0]
        0x00019b60:    991c        ..      LDR      r1,[sp,#0x70]
        0x00019b62:    1c4a        J.      ADDS     r2,r1,#1
        0x00019b64:    921c        ..      STR      r2,[sp,#0x70]
        0x00019b66:    7008        .p      STRB     r0,[r1,#0]
        0x00019b68:    e7ff        ..      B        0x19b6a ; am_util_stdio_vsprintf + 586
        0x00019b6a:    981a        ..      LDR      r0,[sp,#0x68]
        0x00019b6c:    3001        .0      ADDS     r0,#1
        0x00019b6e:    901a        ..      STR      r0,[sp,#0x68]
        0x00019b70:    9814        ..      LDR      r0,[sp,#0x50]
        0x00019b72:    3001        .0      ADDS     r0,#1
        0x00019b74:    9014        ..      STR      r0,[sp,#0x50]
        0x00019b76:    e7ea        ..      B        0x19b4e ; am_util_stdio_vsprintf + 558
        0x00019b78:    9813        ..      LDR      r0,[sp,#0x4c]
        0x00019b7a:    b340        @.      CBZ      r0,0x19bce ; am_util_stdio_vsprintf + 686
        0x00019b7c:    e7ff        ..      B        0x19b7e ; am_util_stdio_vsprintf + 606
        0x00019b7e:    9813        ..      LDR      r0,[sp,#0x4c]
        0x00019b80:    4240        @B      RSBS     r0,r0,#0
        0x00019b82:    9013        ..      STR      r0,[sp,#0x4c]
        0x00019b84:    980e        ..      LDR      r0,[sp,#0x38]
        0x00019b86:    9913        ..      LDR      r1,[sp,#0x4c]
        0x00019b88:    4288        .B      CMP      r0,r1
        0x00019b8a:    d21f        ..      BCS      0x19bcc ; am_util_stdio_vsprintf + 684
        0x00019b8c:    e7ff        ..      B        0x19b8e ; am_util_stdio_vsprintf + 622
        0x00019b8e:    990e        ..      LDR      r1,[sp,#0x38]
        0x00019b90:    9813        ..      LDR      r0,[sp,#0x4c]
        0x00019b92:    1a40        @.      SUBS     r0,r0,r1
        0x00019b94:    9013        ..      STR      r0,[sp,#0x4c]
        0x00019b96:    981c        ..      LDR      r0,[sp,#0x70]
        0x00019b98:    f89d1042    ..B.    LDRB     r1,[sp,#0x42]
        0x00019b9c:    9a13        ..      LDR      r2,[sp,#0x4c]
        0x00019b9e:    f000fdaf    ....    BL       padbuffer ; 0x1a700
        0x00019ba2:    9013        ..      STR      r0,[sp,#0x4c]
        0x00019ba4:    981c        ..      LDR      r0,[sp,#0x70]
        0x00019ba6:    b118        ..      CBZ      r0,0x19bb0 ; am_util_stdio_vsprintf + 656
        0x00019ba8:    e7ff        ..      B        0x19baa ; am_util_stdio_vsprintf + 650
        0x00019baa:    9813        ..      LDR      r0,[sp,#0x4c]
        0x00019bac:    9009        ..      STR      r0,[sp,#0x24]
        0x00019bae:    e002        ..      B        0x19bb6 ; am_util_stdio_vsprintf + 662
        0x00019bb0:    2000        .       MOVS     r0,#0
        0x00019bb2:    9009        ..      STR      r0,[sp,#0x24]
        0x00019bb4:    e7ff        ..      B        0x19bb6 ; am_util_stdio_vsprintf + 662
        0x00019bb6:    9909        ..      LDR      r1,[sp,#0x24]
        0x00019bb8:    981c        ..      LDR      r0,[sp,#0x70]
        0x00019bba:    4408        .D      ADD      r0,r0,r1
        0x00019bbc:    901c        ..      STR      r0,[sp,#0x70]
        0x00019bbe:    9913        ..      LDR      r1,[sp,#0x4c]
        0x00019bc0:    9814        ..      LDR      r0,[sp,#0x50]
        0x00019bc2:    4408        .D      ADD      r0,r0,r1
        0x00019bc4:    9014        ..      STR      r0,[sp,#0x50]
        0x00019bc6:    2000        .       MOVS     r0,#0
        0x00019bc8:    9013        ..      STR      r0,[sp,#0x4c]
        0x00019bca:    e7ff        ..      B        0x19bcc ; am_util_stdio_vsprintf + 684
        0x00019bcc:    e7ff        ..      B        0x19bce ; am_util_stdio_vsprintf + 686
        0x00019bce:    e1c2        ..      B        0x19f56 ; am_util_stdio_vsprintf + 1590
        0x00019bd0:    2001        .       MOVS     r0,#1
        0x00019bd2:    f88d0041    ..A.    STRB     r0,[sp,#0x41]
        0x00019bd6:    e7ff        ..      B        0x19bd8 ; am_util_stdio_vsprintf + 696
        0x00019bd8:    f89d0040    ..@.    LDRB     r0,[sp,#0x40]
        0x00019bdc:    07c0        ..      LSLS     r0,r0,#31
        0x00019bde:    b160        `.      CBZ      r0,0x19bfa ; am_util_stdio_vsprintf + 730
        0x00019be0:    e7ff        ..      B        0x19be2 ; am_util_stdio_vsprintf + 706
        0x00019be2:    981d        ..      LDR      r0,[sp,#0x74]
        0x00019be4:    3007        .0      ADDS     r0,#7
        0x00019be6:    f0200007     ...    BIC      r0,r0,#7
        0x00019bea:    f1000108    ....    ADD      r1,r0,#8
        0x00019bee:    911d        ..      STR      r1,[sp,#0x74]
        0x00019bf0:    6801        .h      LDR      r1,[r0,#0]
        0x00019bf2:    6840        @h      LDR      r0,[r0,#4]
        0x00019bf4:    9107        ..      STR      r1,[sp,#0x1c]
        0x00019bf6:    9008        ..      STR      r0,[sp,#0x20]
        0x00019bf8:    e007        ..      B        0x19c0a ; am_util_stdio_vsprintf + 746
        0x00019bfa:    981d        ..      LDR      r0,[sp,#0x74]
        0x00019bfc:    1d01        ..      ADDS     r1,r0,#4
        0x00019bfe:    911d        ..      STR      r1,[sp,#0x74]
        0x00019c00:    6801        .h      LDR      r1,[r0,#0]
        0x00019c02:    2000        .       MOVS     r0,#0
        0x00019c04:    9107        ..      STR      r1,[sp,#0x1c]
        0x00019c06:    9008        ..      STR      r0,[sp,#0x20]
        0x00019c08:    e7ff        ..      B        0x19c0a ; am_util_stdio_vsprintf + 746
        0x00019c0a:    9907        ..      LDR      r1,[sp,#0x1c]
        0x00019c0c:    9808        ..      LDR      r0,[sp,#0x20]
        0x00019c0e:    9118        ..      STR      r1,[sp,#0x60]
        0x00019c10:    9019        ..      STR      r0,[sp,#0x64]
        0x00019c12:    9813        ..      LDR      r0,[sp,#0x4c]
        0x00019c14:    b318        ..      CBZ      r0,0x19c5e ; am_util_stdio_vsprintf + 830
        0x00019c16:    e7ff        ..      B        0x19c18 ; am_util_stdio_vsprintf + 760
        0x00019c18:    9818        ..      LDR      r0,[sp,#0x60]
        0x00019c1a:    9919        ..      LDR      r1,[sp,#0x64]
        0x00019c1c:    f000fd1a    ....    BL       ndigits_in_hex ; 0x1a654
        0x00019c20:    4601        .F      MOV      r1,r0
        0x00019c22:    9813        ..      LDR      r0,[sp,#0x4c]
        0x00019c24:    1a40        @.      SUBS     r0,r0,r1
        0x00019c26:    9013        ..      STR      r0,[sp,#0x4c]
        0x00019c28:    981c        ..      LDR      r0,[sp,#0x70]
        0x00019c2a:    f89d1042    ..B.    LDRB     r1,[sp,#0x42]
        0x00019c2e:    9a13        ..      LDR      r2,[sp,#0x4c]
        0x00019c30:    f000fd66    ..f.    BL       padbuffer ; 0x1a700
        0x00019c34:    9013        ..      STR      r0,[sp,#0x4c]
        0x00019c36:    981c        ..      LDR      r0,[sp,#0x70]
        0x00019c38:    b118        ..      CBZ      r0,0x19c42 ; am_util_stdio_vsprintf + 802
        0x00019c3a:    e7ff        ..      B        0x19c3c ; am_util_stdio_vsprintf + 796
        0x00019c3c:    9813        ..      LDR      r0,[sp,#0x4c]
        0x00019c3e:    9006        ..      STR      r0,[sp,#0x18]
        0x00019c40:    e002        ..      B        0x19c48 ; am_util_stdio_vsprintf + 808
        0x00019c42:    2000        .       MOVS     r0,#0
        0x00019c44:    9006        ..      STR      r0,[sp,#0x18]
        0x00019c46:    e7ff        ..      B        0x19c48 ; am_util_stdio_vsprintf + 808
        0x00019c48:    9906        ..      LDR      r1,[sp,#0x18]
        0x00019c4a:    981c        ..      LDR      r0,[sp,#0x70]
        0x00019c4c:    4408        .D      ADD      r0,r0,r1
        0x00019c4e:    901c        ..      STR      r0,[sp,#0x70]
        0x00019c50:    9913        ..      LDR      r1,[sp,#0x4c]
        0x00019c52:    9814        ..      LDR      r0,[sp,#0x50]
        0x00019c54:    4408        .D      ADD      r0,r0,r1
        0x00019c56:    9014        ..      STR      r0,[sp,#0x50]
        0x00019c58:    2000        .       MOVS     r0,#0
        0x00019c5a:    9013        ..      STR      r0,[sp,#0x4c]
        0x00019c5c:    e7ff        ..      B        0x19c5e ; am_util_stdio_vsprintf + 830
        0x00019c5e:    9818        ..      LDR      r0,[sp,#0x60]
        0x00019c60:    9919        ..      LDR      r1,[sp,#0x64]
        0x00019c62:    9a1c        ..      LDR      r2,[sp,#0x70]
        0x00019c64:    f89d3041    ..A0    LDRB     r3,[sp,#0x41]
        0x00019c68:    f0030301    ....    AND      r3,r3,#1
        0x00019c6c:    f000fd8c    ....    BL       uint64_to_hexstr ; 0x1a788
        0x00019c70:    9012        ..      STR      r0,[sp,#0x48]
        0x00019c72:    981c        ..      LDR      r0,[sp,#0x70]
        0x00019c74:    b128        (.      CBZ      r0,0x19c82 ; am_util_stdio_vsprintf + 866
        0x00019c76:    e7ff        ..      B        0x19c78 ; am_util_stdio_vsprintf + 856
        0x00019c78:    9912        ..      LDR      r1,[sp,#0x48]
        0x00019c7a:    981c        ..      LDR      r0,[sp,#0x70]
        0x00019c7c:    4408        .D      ADD      r0,r0,r1
        0x00019c7e:    901c        ..      STR      r0,[sp,#0x70]
        0x00019c80:    e7ff        ..      B        0x19c82 ; am_util_stdio_vsprintf + 866
        0x00019c82:    9912        ..      LDR      r1,[sp,#0x48]
        0x00019c84:    9814        ..      LDR      r0,[sp,#0x50]
        0x00019c86:    4408        .D      ADD      r0,r0,r1
        0x00019c88:    9014        ..      STR      r0,[sp,#0x50]
        0x00019c8a:    e164        d.      B        0x19f56 ; am_util_stdio_vsprintf + 1590
        0x00019c8c:    f89d0040    ..@.    LDRB     r0,[sp,#0x40]
        0x00019c90:    07c0        ..      LSLS     r0,r0,#31
        0x00019c92:    b160        `.      CBZ      r0,0x19cae ; am_util_stdio_vsprintf + 910
        0x00019c94:    e7ff        ..      B        0x19c96 ; am_util_stdio_vsprintf + 886
        0x00019c96:    981d        ..      LDR      r0,[sp,#0x74]
        0x00019c98:    3007        .0      ADDS     r0,#7
        0x00019c9a:    f0200007     ...    BIC      r0,r0,#7
        0x00019c9e:    f1000108    ....    ADD      r1,r0,#8
        0x00019ca2:    911d        ..      STR      r1,[sp,#0x74]
        0x00019ca4:    6801        .h      LDR      r1,[r0,#0]
        0x00019ca6:    6840        @h      LDR      r0,[r0,#4]
        0x00019ca8:    9104        ..      STR      r1,[sp,#0x10]
        0x00019caa:    9005        ..      STR      r0,[sp,#0x14]
        0x00019cac:    e007        ..      B        0x19cbe ; am_util_stdio_vsprintf + 926
        0x00019cae:    981d        ..      LDR      r0,[sp,#0x74]
        0x00019cb0:    1d01        ..      ADDS     r1,r0,#4
        0x00019cb2:    911d        ..      STR      r1,[sp,#0x74]
        0x00019cb4:    6801        .h      LDR      r1,[r0,#0]
        0x00019cb6:    2000        .       MOVS     r0,#0
        0x00019cb8:    9104        ..      STR      r1,[sp,#0x10]
        0x00019cba:    9005        ..      STR      r0,[sp,#0x14]
        0x00019cbc:    e7ff        ..      B        0x19cbe ; am_util_stdio_vsprintf + 926
        0x00019cbe:    9904        ..      LDR      r1,[sp,#0x10]
        0x00019cc0:    9805        ..      LDR      r0,[sp,#0x14]
        0x00019cc2:    9118        ..      STR      r1,[sp,#0x60]
        0x00019cc4:    9019        ..      STR      r0,[sp,#0x64]
        0x00019cc6:    9813        ..      LDR      r0,[sp,#0x4c]
        0x00019cc8:    b318        ..      CBZ      r0,0x19d12 ; am_util_stdio_vsprintf + 1010
        0x00019cca:    e7ff        ..      B        0x19ccc ; am_util_stdio_vsprintf + 940
        0x00019ccc:    9818        ..      LDR      r0,[sp,#0x60]
        0x00019cce:    9919        ..      LDR      r1,[sp,#0x64]
        0x00019cd0:    f000fcf8    ....    BL       ndigits_in_u64 ; 0x1a6c4
        0x00019cd4:    4601        .F      MOV      r1,r0
        0x00019cd6:    9813        ..      LDR      r0,[sp,#0x4c]
        0x00019cd8:    1a40        @.      SUBS     r0,r0,r1
        0x00019cda:    9013        ..      STR      r0,[sp,#0x4c]
        0x00019cdc:    981c        ..      LDR      r0,[sp,#0x70]
        0x00019cde:    f89d1042    ..B.    LDRB     r1,[sp,#0x42]
        0x00019ce2:    9a13        ..      LDR      r2,[sp,#0x4c]
        0x00019ce4:    f000fd0c    ....    BL       padbuffer ; 0x1a700
        0x00019ce8:    9013        ..      STR      r0,[sp,#0x4c]
        0x00019cea:    981c        ..      LDR      r0,[sp,#0x70]
        0x00019cec:    b118        ..      CBZ      r0,0x19cf6 ; am_util_stdio_vsprintf + 982
        0x00019cee:    e7ff        ..      B        0x19cf0 ; am_util_stdio_vsprintf + 976
        0x00019cf0:    9813        ..      LDR      r0,[sp,#0x4c]
        0x00019cf2:    9003        ..      STR      r0,[sp,#0xc]
        0x00019cf4:    e002        ..      B        0x19cfc ; am_util_stdio_vsprintf + 988
        0x00019cf6:    2000        .       MOVS     r0,#0
        0x00019cf8:    9003        ..      STR      r0,[sp,#0xc]
        0x00019cfa:    e7ff        ..      B        0x19cfc ; am_util_stdio_vsprintf + 988
        0x00019cfc:    9903        ..      LDR      r1,[sp,#0xc]
        0x00019cfe:    981c        ..      LDR      r0,[sp,#0x70]
        0x00019d00:    4408        .D      ADD      r0,r0,r1
        0x00019d02:    901c        ..      STR      r0,[sp,#0x70]
        0x00019d04:    9913        ..      LDR      r1,[sp,#0x4c]
        0x00019d06:    9814        ..      LDR      r0,[sp,#0x50]
        0x00019d08:    4408        .D      ADD      r0,r0,r1
        0x00019d0a:    9014        ..      STR      r0,[sp,#0x50]
        0x00019d0c:    2000        .       MOVS     r0,#0
        0x00019d0e:    9013        ..      STR      r0,[sp,#0x4c]
        0x00019d10:    e7ff        ..      B        0x19d12 ; am_util_stdio_vsprintf + 1010
        0x00019d12:    9818        ..      LDR      r0,[sp,#0x60]
        0x00019d14:    9919        ..      LDR      r1,[sp,#0x64]
        0x00019d16:    9a1c        ..      LDR      r2,[sp,#0x70]
        0x00019d18:    f000fd96    ....    BL       uint64_to_str ; 0x1a848
        0x00019d1c:    9012        ..      STR      r0,[sp,#0x48]
        0x00019d1e:    981c        ..      LDR      r0,[sp,#0x70]
        0x00019d20:    b128        (.      CBZ      r0,0x19d2e ; am_util_stdio_vsprintf + 1038
        0x00019d22:    e7ff        ..      B        0x19d24 ; am_util_stdio_vsprintf + 1028
        0x00019d24:    9912        ..      LDR      r1,[sp,#0x48]
        0x00019d26:    981c        ..      LDR      r0,[sp,#0x70]
        0x00019d28:    4408        .D      ADD      r0,r0,r1
        0x00019d2a:    901c        ..      STR      r0,[sp,#0x70]
        0x00019d2c:    e7ff        ..      B        0x19d2e ; am_util_stdio_vsprintf + 1038
        0x00019d2e:    9912        ..      LDR      r1,[sp,#0x48]
        0x00019d30:    9814        ..      LDR      r0,[sp,#0x50]
        0x00019d32:    4408        .D      ADD      r0,r0,r1
        0x00019d34:    9014        ..      STR      r0,[sp,#0x50]
        0x00019d36:    e10e        ..      B        0x19f56 ; am_util_stdio_vsprintf + 1590
        0x00019d38:    f89d0040    ..@.    LDRB     r0,[sp,#0x40]
        0x00019d3c:    07c0        ..      LSLS     r0,r0,#31
        0x00019d3e:    b160        `.      CBZ      r0,0x19d5a ; am_util_stdio_vsprintf + 1082
        0x00019d40:    e7ff        ..      B        0x19d42 ; am_util_stdio_vsprintf + 1058
        0x00019d42:    981d        ..      LDR      r0,[sp,#0x74]
        0x00019d44:    3007        .0      ADDS     r0,#7
        0x00019d46:    f0200007     ...    BIC      r0,r0,#7
        0x00019d4a:    f1000108    ....    ADD      r1,r0,#8
        0x00019d4e:    911d        ..      STR      r1,[sp,#0x74]
        0x00019d50:    6801        .h      LDR      r1,[r0,#0]
        0x00019d52:    6840        @h      LDR      r0,[r0,#4]
        0x00019d54:    9101        ..      STR      r1,[sp,#4]
        0x00019d56:    9002        ..      STR      r0,[sp,#8]
        0x00019d58:    e007        ..      B        0x19d6a ; am_util_stdio_vsprintf + 1098
        0x00019d5a:    981d        ..      LDR      r0,[sp,#0x74]
        0x00019d5c:    1d01        ..      ADDS     r1,r0,#4
        0x00019d5e:    911d        ..      STR      r1,[sp,#0x74]
        0x00019d60:    6801        .h      LDR      r1,[r0,#0]
        0x00019d62:    17c8        ..      ASRS     r0,r1,#31
        0x00019d64:    9101        ..      STR      r1,[sp,#4]
        0x00019d66:    9002        ..      STR      r0,[sp,#8]
        0x00019d68:    e7ff        ..      B        0x19d6a ; am_util_stdio_vsprintf + 1098
        0x00019d6a:    9901        ..      LDR      r1,[sp,#4]
        0x00019d6c:    9802        ..      LDR      r0,[sp,#8]
        0x00019d6e:    9116        ..      STR      r1,[sp,#0x58]
        0x00019d70:    9017        ..      STR      r0,[sp,#0x5c]
        0x00019d72:    9817        ..      LDR      r0,[sp,#0x5c]
        0x00019d74:    f1b03fff    ...?    CMP      r0,#0xffffffff
        0x00019d78:    dc0c        ..      BGT      0x19d94 ; am_util_stdio_vsprintf + 1140
        0x00019d7a:    e7ff        ..      B        0x19d7c ; am_util_stdio_vsprintf + 1116
        0x00019d7c:    9816        ..      LDR      r0,[sp,#0x58]
        0x00019d7e:    9a17        ..      LDR      r2,[sp,#0x5c]
        0x00019d80:    4241        AB      RSBS     r1,r0,#0
        0x00019d82:    f04f0000    O...    MOV      r0,#0
        0x00019d86:    4190        .A      SBCS     r0,r0,r2
        0x00019d88:    9118        ..      STR      r1,[sp,#0x60]
        0x00019d8a:    9019        ..      STR      r0,[sp,#0x64]
        0x00019d8c:    2001        .       MOVS     r0,#1
        0x00019d8e:    f88d003f    ..?.    STRB     r0,[sp,#0x3f]
        0x00019d92:    e007        ..      B        0x19da4 ; am_util_stdio_vsprintf + 1156
        0x00019d94:    9816        ..      LDR      r0,[sp,#0x58]
        0x00019d96:    9917        ..      LDR      r1,[sp,#0x5c]
        0x00019d98:    9119        ..      STR      r1,[sp,#0x64]
        0x00019d9a:    9018        ..      STR      r0,[sp,#0x60]
        0x00019d9c:    2000        .       MOVS     r0,#0
        0x00019d9e:    f88d003f    ..?.    STRB     r0,[sp,#0x3f]
        0x00019da2:    e7ff        ..      B        0x19da4 ; am_util_stdio_vsprintf + 1156
        0x00019da4:    9813        ..      LDR      r0,[sp,#0x4c]
        0x00019da6:    2800        .(      CMP      r0,#0
        0x00019da8:    d055        U.      BEQ      0x19e56 ; am_util_stdio_vsprintf + 1334
        0x00019daa:    e7ff        ..      B        0x19dac ; am_util_stdio_vsprintf + 1164
        0x00019dac:    9818        ..      LDR      r0,[sp,#0x60]
        0x00019dae:    9919        ..      LDR      r1,[sp,#0x64]
        0x00019db0:    f000fc70    ..p.    BL       ndigits_in_i64 ; 0x1a694
        0x00019db4:    4601        .F      MOV      r1,r0
        0x00019db6:    9813        ..      LDR      r0,[sp,#0x4c]
        0x00019db8:    1a40        @.      SUBS     r0,r0,r1
        0x00019dba:    9013        ..      STR      r0,[sp,#0x4c]
        0x00019dbc:    f89d003f    ..?.    LDRB     r0,[sp,#0x3f]
        0x00019dc0:    07c0        ..      LSLS     r0,r0,#31
        0x00019dc2:    b1b0        ..      CBZ      r0,0x19df2 ; am_util_stdio_vsprintf + 1234
        0x00019dc4:    e7ff        ..      B        0x19dc6 ; am_util_stdio_vsprintf + 1190
        0x00019dc6:    9813        ..      LDR      r0,[sp,#0x4c]
        0x00019dc8:    3801        .8      SUBS     r0,#1
        0x00019dca:    9013        ..      STR      r0,[sp,#0x4c]
        0x00019dcc:    f89d0042    ..B.    LDRB     r0,[sp,#0x42]
        0x00019dd0:    2830        0(      CMP      r0,#0x30
        0x00019dd2:    d10d        ..      BNE      0x19df0 ; am_util_stdio_vsprintf + 1232
        0x00019dd4:    e7ff        ..      B        0x19dd6 ; am_util_stdio_vsprintf + 1206
        0x00019dd6:    981c        ..      LDR      r0,[sp,#0x70]
        0x00019dd8:    b130        0.      CBZ      r0,0x19de8 ; am_util_stdio_vsprintf + 1224
        0x00019dda:    e7ff        ..      B        0x19ddc ; am_util_stdio_vsprintf + 1212
        0x00019ddc:    991c        ..      LDR      r1,[sp,#0x70]
        0x00019dde:    1c48        H.      ADDS     r0,r1,#1
        0x00019de0:    901c        ..      STR      r0,[sp,#0x70]
        0x00019de2:    202d        -       MOVS     r0,#0x2d
        0x00019de4:    7008        .p      STRB     r0,[r1,#0]
        0x00019de6:    e7ff        ..      B        0x19de8 ; am_util_stdio_vsprintf + 1224
        0x00019de8:    9814        ..      LDR      r0,[sp,#0x50]
        0x00019dea:    3001        .0      ADDS     r0,#1
        0x00019dec:    9014        ..      STR      r0,[sp,#0x50]
        0x00019dee:    e7ff        ..      B        0x19df0 ; am_util_stdio_vsprintf + 1232
        0x00019df0:    e7ff        ..      B        0x19df2 ; am_util_stdio_vsprintf + 1234
        0x00019df2:    981c        ..      LDR      r0,[sp,#0x70]
        0x00019df4:    f89d1042    ..B.    LDRB     r1,[sp,#0x42]
        0x00019df8:    9a13        ..      LDR      r2,[sp,#0x4c]
        0x00019dfa:    f000fc81    ....    BL       padbuffer ; 0x1a700
        0x00019dfe:    9013        ..      STR      r0,[sp,#0x4c]
        0x00019e00:    981c        ..      LDR      r0,[sp,#0x70]
        0x00019e02:    b118        ..      CBZ      r0,0x19e0c ; am_util_stdio_vsprintf + 1260
        0x00019e04:    e7ff        ..      B        0x19e06 ; am_util_stdio_vsprintf + 1254
        0x00019e06:    9813        ..      LDR      r0,[sp,#0x4c]
        0x00019e08:    9000        ..      STR      r0,[sp,#0]
        0x00019e0a:    e002        ..      B        0x19e12 ; am_util_stdio_vsprintf + 1266
        0x00019e0c:    2000        .       MOVS     r0,#0
        0x00019e0e:    9000        ..      STR      r0,[sp,#0]
        0x00019e10:    e7ff        ..      B        0x19e12 ; am_util_stdio_vsprintf + 1266
        0x00019e12:    9900        ..      LDR      r1,[sp,#0]
        0x00019e14:    981c        ..      LDR      r0,[sp,#0x70]
        0x00019e16:    4408        .D      ADD      r0,r0,r1
        0x00019e18:    901c        ..      STR      r0,[sp,#0x70]
        0x00019e1a:    9913        ..      LDR      r1,[sp,#0x4c]
        0x00019e1c:    9814        ..      LDR      r0,[sp,#0x50]
        0x00019e1e:    4408        .D      ADD      r0,r0,r1
        0x00019e20:    9014        ..      STR      r0,[sp,#0x50]
        0x00019e22:    2000        .       MOVS     r0,#0
        0x00019e24:    9013        ..      STR      r0,[sp,#0x4c]
        0x00019e26:    f89d003f    ..?.    LDRB     r0,[sp,#0x3f]
        0x00019e2a:    07c0        ..      LSLS     r0,r0,#31
        0x00019e2c:    b190        ..      CBZ      r0,0x19e54 ; am_util_stdio_vsprintf + 1332
        0x00019e2e:    e7ff        ..      B        0x19e30 ; am_util_stdio_vsprintf + 1296
        0x00019e30:    f89d0042    ..B.    LDRB     r0,[sp,#0x42]
        0x00019e34:    2820         (      CMP      r0,#0x20
        0x00019e36:    d10d        ..      BNE      0x19e54 ; am_util_stdio_vsprintf + 1332
        0x00019e38:    e7ff        ..      B        0x19e3a ; am_util_stdio_vsprintf + 1306
        0x00019e3a:    981c        ..      LDR      r0,[sp,#0x70]
        0x00019e3c:    b130        0.      CBZ      r0,0x19e4c ; am_util_stdio_vsprintf + 1324
        0x00019e3e:    e7ff        ..      B        0x19e40 ; am_util_stdio_vsprintf + 1312
        0x00019e40:    991c        ..      LDR      r1,[sp,#0x70]
        0x00019e42:    1c48        H.      ADDS     r0,r1,#1
        0x00019e44:    901c        ..      STR      r0,[sp,#0x70]
        0x00019e46:    202d        -       MOVS     r0,#0x2d
        0x00019e48:    7008        .p      STRB     r0,[r1,#0]
        0x00019e4a:    e7ff        ..      B        0x19e4c ; am_util_stdio_vsprintf + 1324
        0x00019e4c:    9814        ..      LDR      r0,[sp,#0x50]
        0x00019e4e:    3001        .0      ADDS     r0,#1
        0x00019e50:    9014        ..      STR      r0,[sp,#0x50]
        0x00019e52:    e7ff        ..      B        0x19e54 ; am_util_stdio_vsprintf + 1332
        0x00019e54:    e012        ..      B        0x19e7c ; am_util_stdio_vsprintf + 1372
        0x00019e56:    f89d003f    ..?.    LDRB     r0,[sp,#0x3f]
        0x00019e5a:    07c0        ..      LSLS     r0,r0,#31
        0x00019e5c:    b168        h.      CBZ      r0,0x19e7a ; am_util_stdio_vsprintf + 1370
        0x00019e5e:    e7ff        ..      B        0x19e60 ; am_util_stdio_vsprintf + 1344
        0x00019e60:    981c        ..      LDR      r0,[sp,#0x70]
        0x00019e62:    b130        0.      CBZ      r0,0x19e72 ; am_util_stdio_vsprintf + 1362
        0x00019e64:    e7ff        ..      B        0x19e66 ; am_util_stdio_vsprintf + 1350
        0x00019e66:    991c        ..      LDR      r1,[sp,#0x70]
        0x00019e68:    1c48        H.      ADDS     r0,r1,#1
        0x00019e6a:    901c        ..      STR      r0,[sp,#0x70]
        0x00019e6c:    202d        -       MOVS     r0,#0x2d
        0x00019e6e:    7008        .p      STRB     r0,[r1,#0]
        0x00019e70:    e7ff        ..      B        0x19e72 ; am_util_stdio_vsprintf + 1362
        0x00019e72:    9814        ..      LDR      r0,[sp,#0x50]
        0x00019e74:    3001        .0      ADDS     r0,#1
        0x00019e76:    9014        ..      STR      r0,[sp,#0x50]
        0x00019e78:    e7ff        ..      B        0x19e7a ; am_util_stdio_vsprintf + 1370
        0x00019e7a:    e7ff        ..      B        0x19e7c ; am_util_stdio_vsprintf + 1372
        0x00019e7c:    9818        ..      LDR      r0,[sp,#0x60]
        0x00019e7e:    9919        ..      LDR      r1,[sp,#0x64]
        0x00019e80:    9a1c        ..      LDR      r2,[sp,#0x70]
        0x00019e82:    f000fce1    ....    BL       uint64_to_str ; 0x1a848
        0x00019e86:    9012        ..      STR      r0,[sp,#0x48]
        0x00019e88:    981c        ..      LDR      r0,[sp,#0x70]
        0x00019e8a:    b128        (.      CBZ      r0,0x19e98 ; am_util_stdio_vsprintf + 1400
        0x00019e8c:    e7ff        ..      B        0x19e8e ; am_util_stdio_vsprintf + 1390
        0x00019e8e:    9912        ..      LDR      r1,[sp,#0x48]
        0x00019e90:    981c        ..      LDR      r0,[sp,#0x70]
        0x00019e92:    4408        .D      ADD      r0,r0,r1
        0x00019e94:    901c        ..      STR      r0,[sp,#0x70]
        0x00019e96:    e7ff        ..      B        0x19e98 ; am_util_stdio_vsprintf + 1400
        0x00019e98:    9912        ..      LDR      r1,[sp,#0x48]
        0x00019e9a:    9814        ..      LDR      r0,[sp,#0x50]
        0x00019e9c:    4408        .D      ADD      r0,r0,r1
        0x00019e9e:    9014        ..      STR      r0,[sp,#0x50]
        0x00019ea0:    e059        Y.      B        0x19f56 ; am_util_stdio_vsprintf + 1590
        0x00019ea2:    981c        ..      LDR      r0,[sp,#0x70]
        0x00019ea4:    2800        .(      CMP      r0,#0
        0x00019ea6:    d047        G.      BEQ      0x19f38 ; am_util_stdio_vsprintf + 1560
        0x00019ea8:    e7ff        ..      B        0x19eaa ; am_util_stdio_vsprintf + 1418
        0x00019eaa:    981d        ..      LDR      r0,[sp,#0x74]
        0x00019eac:    3007        .0      ADDS     r0,#7
        0x00019eae:    f0200007     ...    BIC      r0,r0,#7
        0x00019eb2:    f1000108    ....    ADD      r1,r0,#8
        0x00019eb6:    911d        ..      STR      r1,[sp,#0x74]
        0x00019eb8:    ed900b00    ....    VLDR     d0,[r0,#0]
        0x00019ebc:    ec510b10    Q...    VMOV     r0,r1,d0
        0x00019ec0:    f000fd06    ....    BL       __aeabi_d2f ; 0x1a8d0
        0x00019ec4:    900d        ..      STR      r0,[sp,#0x34]
        0x00019ec6:    991c        ..      LDR      r1,[sp,#0x70]
        0x00019ec8:    2014        .       MOVS     r0,#0x14
        0x00019eca:    6008        .`      STR      r0,[r1,#0]
        0x00019ecc:    ed9d0a0d    ....    VLDR     s0,[sp,#0x34]
        0x00019ed0:    981c        ..      LDR      r0,[sp,#0x70]
        0x00019ed2:    9911        ..      LDR      r1,[sp,#0x44]
        0x00019ed4:    f000fa42    ..B.    BL       ftoa ; 0x1a35c
        0x00019ed8:    9012        ..      STR      r0,[sp,#0x48]
        0x00019eda:    9812        ..      LDR      r0,[sp,#0x48]
        0x00019edc:    f1b03fff    ...?    CMP      r0,#0xffffffff
        0x00019ee0:    dc21        !.      BGT      0x19f26 ; am_util_stdio_vsprintf + 1542
        0x00019ee2:    e7ff        ..      B        0x19ee4 ; am_util_stdio_vsprintf + 1476
        0x00019ee4:    9812        ..      LDR      r0,[sp,#0x48]
        0x00019ee6:    3001        .0      ADDS     r0,#1
        0x00019ee8:    b930        0.      CBNZ     r0,0x19ef8 ; am_util_stdio_vsprintf + 1496
        0x00019eea:    e7ff        ..      B        0x19eec ; am_util_stdio_vsprintf + 1484
        0x00019eec:    f6426030    B.0`    MOV      r0,#0x2e30
        0x00019ef0:    f2c00030    ..0.    MOVT     r0,#0x30
        0x00019ef4:    900c        ..      STR      r0,[sp,#0x30]
        0x00019ef6:    e010        ..      B        0x19f1a ; am_util_stdio_vsprintf + 1530
        0x00019ef8:    9812        ..      LDR      r0,[sp,#0x48]
        0x00019efa:    3002        .0      ADDS     r0,#2
        0x00019efc:    b930        0.      CBNZ     r0,0x19f0c ; am_util_stdio_vsprintf + 1516
        0x00019efe:    e7ff        ..      B        0x19f00 ; am_util_stdio_vsprintf + 1504
        0x00019f00:    f6426023    B.#`    MOV      r0,#0x2e23
        0x00019f04:    f2c00023    ..#.    MOVT     r0,#0x23
        0x00019f08:    900c        ..      STR      r0,[sp,#0x30]
        0x00019f0a:    e005        ..      B        0x19f18 ; am_util_stdio_vsprintf + 1528
        0x00019f0c:    f642603f    B.?`    MOV      r0,#0x2e3f
        0x00019f10:    f2c0003f    ..?.    MOVT     r0,#0x3f
        0x00019f14:    900c        ..      STR      r0,[sp,#0x30]
        0x00019f16:    e7ff        ..      B        0x19f18 ; am_util_stdio_vsprintf + 1528
        0x00019f18:    e7ff        ..      B        0x19f1a ; am_util_stdio_vsprintf + 1530
        0x00019f1a:    980c        ..      LDR      r0,[sp,#0x30]
        0x00019f1c:    991c        ..      LDR      r1,[sp,#0x70]
        0x00019f1e:    6008        .`      STR      r0,[r1,#0]
        0x00019f20:    2003        .       MOVS     r0,#3
        0x00019f22:    9012        ..      STR      r0,[sp,#0x48]
        0x00019f24:    e7ff        ..      B        0x19f26 ; am_util_stdio_vsprintf + 1542
        0x00019f26:    9912        ..      LDR      r1,[sp,#0x48]
        0x00019f28:    9814        ..      LDR      r0,[sp,#0x50]
        0x00019f2a:    4408        .D      ADD      r0,r0,r1
        0x00019f2c:    9014        ..      STR      r0,[sp,#0x50]
        0x00019f2e:    9912        ..      LDR      r1,[sp,#0x48]
        0x00019f30:    981c        ..      LDR      r0,[sp,#0x70]
        0x00019f32:    4408        .D      ADD      r0,r0,r1
        0x00019f34:    901c        ..      STR      r0,[sp,#0x70]
        0x00019f36:    e7ff        ..      B        0x19f38 ; am_util_stdio_vsprintf + 1560
        0x00019f38:    e00d        ..      B        0x19f56 ; am_util_stdio_vsprintf + 1590
        0x00019f3a:    981c        ..      LDR      r0,[sp,#0x70]
        0x00019f3c:    b138        8.      CBZ      r0,0x19f4e ; am_util_stdio_vsprintf + 1582
        0x00019f3e:    e7ff        ..      B        0x19f40 ; am_util_stdio_vsprintf + 1568
        0x00019f40:    981b        ..      LDR      r0,[sp,#0x6c]
        0x00019f42:    7800        .x      LDRB     r0,[r0,#0]
        0x00019f44:    991c        ..      LDR      r1,[sp,#0x70]
        0x00019f46:    1c4a        J.      ADDS     r2,r1,#1
        0x00019f48:    921c        ..      STR      r2,[sp,#0x70]
        0x00019f4a:    7008        .p      STRB     r0,[r1,#0]
        0x00019f4c:    e7ff        ..      B        0x19f4e ; am_util_stdio_vsprintf + 1582
        0x00019f4e:    9814        ..      LDR      r0,[sp,#0x50]
        0x00019f50:    3001        .0      ADDS     r0,#1
        0x00019f52:    9014        ..      STR      r0,[sp,#0x50]
        0x00019f54:    e7ff        ..      B        0x19f56 ; am_util_stdio_vsprintf + 1590
        0x00019f56:    981b        ..      LDR      r0,[sp,#0x6c]
        0x00019f58:    3001        .0      ADDS     r0,#1
        0x00019f5a:    901b        ..      STR      r0,[sp,#0x6c]
        0x00019f5c:    f7ffbce9    ....    B.W      0x19932 ; am_util_stdio_vsprintf + 18
        0x00019f60:    981c        ..      LDR      r0,[sp,#0x70]
        0x00019f62:    b120         .      CBZ      r0,0x19f6e ; am_util_stdio_vsprintf + 1614
        0x00019f64:    e7ff        ..      B        0x19f66 ; am_util_stdio_vsprintf + 1606
        0x00019f66:    991c        ..      LDR      r1,[sp,#0x70]
        0x00019f68:    2000        .       MOVS     r0,#0
        0x00019f6a:    7008        .p      STRB     r0,[r1,#0]
        0x00019f6c:    e7ff        ..      B        0x19f6e ; am_util_stdio_vsprintf + 1614
        0x00019f6e:    9814        ..      LDR      r0,[sp,#0x50]
        0x00019f70:    b01e        ..      ADD      sp,sp,#0x78
        0x00019f72:    bd80        ..      POP      {r7,pc}
    am_valid_sp
        0x00019f74:    b082        ..      SUB      sp,sp,#8
        0x00019f76:    9001        ..      STR      r0,[sp,#4]
        0x00019f78:    9901        ..      LDR      r1,[sp,#4]
        0x00019f7a:    2000        .       MOVS     r0,#0
        0x00019f7c:    f1b15f80    ..._    CMP      r1,#0x10000000
        0x00019f80:    9000        ..      STR      r0,[sp,#0]
        0x00019f82:    d30a        ..      BCC      0x19f9a ; am_valid_sp + 38
        0x00019f84:    e7ff        ..      B        0x19f86 ; am_valid_sp + 18
        0x00019f86:    9901        ..      LDR      r1,[sp,#4]
        0x00019f88:    2200        ."      MOVS     r2,#0
        0x00019f8a:    f2c10216    ....    MOVT     r2,#0x1016
        0x00019f8e:    2000        .       MOVS     r0,#0
        0x00019f90:    4291        .B      CMP      r1,r2
        0x00019f92:    bf38        8.      IT       CC
        0x00019f94:    2001        .       MOVCC    r0,#1
        0x00019f96:    9000        ..      STR      r0,[sp,#0]
        0x00019f98:    e7ff        ..      B        0x19f9a ; am_valid_sp + 38
        0x00019f9a:    9800        ..      LDR      r0,[sp,#0]
        0x00019f9c:    f0000001    ....    AND      r0,r0,#1
        0x00019fa0:    b002        ..      ADD      sp,sp,#8
        0x00019fa2:    4770        pG      BX       lr
    am_watchdog_isr
        0x00019fa4:    b580        ..      PUSH     {r7,lr}
        0x00019fa6:    b084        ..      SUB      sp,sp,#0x10
        0x00019fa8:    2000        .       MOVS     r0,#0
        0x00019faa:    9001        ..      STR      r0,[sp,#4]
        0x00019fac:    a903        ..      ADD      r1,sp,#0xc
        0x00019fae:    2201        ."      MOVS     r2,#1
        0x00019fb0:    f7fffbcb    ....    BL       am_hal_wdt_interrupt_status_get ; 0x1974a
        0x00019fb4:    9801        ..      LDR      r0,[sp,#4]
        0x00019fb6:    9903        ..      LDR      r1,[sp,#0xc]
        0x00019fb8:    f7fffbb1    ....    BL       am_hal_wdt_interrupt_clear ; 0x1971e
        0x00019fbc:    f24060ec    @..`    MOV      r0,#0x6ec
        0x00019fc0:    f2c10000    ....    MOVT     r0,#0x1000
        0x00019fc4:    9002        ..      STR      r0,[sp,#8]
        0x00019fc6:    7801        .x      LDRB     r1,[r0,#0]
        0x00019fc8:    f64a4058    J.X@    MOV      r0,#0xac58
        0x00019fcc:    f2c00001    ....    MOVT     r0,#1
        0x00019fd0:    f7fffc66    ..f.    BL       am_util_stdio_printf ; 0x198a0
        0x00019fd4:    9802        ..      LDR      r0,[sp,#8]
        0x00019fd6:    7800        .x      LDRB     r0,[r0,#0]
        0x00019fd8:    2803        .(      CMP      r0,#3
        0x00019fda:    dc04        ..      BGT      0x19fe6 ; am_watchdog_isr + 66
        0x00019fdc:    e7ff        ..      B        0x19fde ; am_watchdog_isr + 58
        0x00019fde:    2000        .       MOVS     r0,#0
        0x00019fe0:    f7fffbc8    ....    BL       am_hal_wdt_restart ; 0x19774
        0x00019fe4:    e00c        ..      B        0x1a000 ; am_watchdog_isr + 92
        0x00019fe6:    f64a4033    J.3@    MOV      r0,#0xac33
        0x00019fea:    f2c00001    ....    MOVT     r0,#1
        0x00019fee:    f7fffc57    ..W.    BL       am_util_stdio_printf ; 0x198a0
        0x00019ff2:    f64a30f8    J..0    MOV      r0,#0xabf8
        0x00019ff6:    f2c00001    ....    MOVT     r0,#1
        0x00019ffa:    f7fffc51    ..Q.    BL       am_util_stdio_printf ; 0x198a0
        0x00019ffe:    e7ff        ..      B        0x1a000 ; am_watchdog_isr + 92
        0x0001a000:    2064        d       MOVS     r0,#0x64
        0x0001a002:    f7fffbd5    ....    BL       am_util_delay_ms ; 0x197b0
        0x0001a006:    f24061ec    @..a    MOV      r1,#0x6ec
        0x0001a00a:    f2c10100    ....    MOVT     r1,#0x1000
        0x0001a00e:    7808        .x      LDRB     r0,[r1,#0]
        0x0001a010:    3001        .0      ADDS     r0,#1
        0x0001a012:    7008        .p      STRB     r0,[r1,#0]
        0x0001a014:    b004        ..      ADD      sp,sp,#0x10
        0x0001a016:    bd80        ..      POP      {r7,pc}
    buck_ldo_override_init
        0x0001a018:    b510        ..      PUSH     {r4,lr}
        0x0001a01a:    b082        ..      SUB      sp,sp,#8
        0x0001a01c:    2460        `$      MOVS     r4,#0x60
        0x0001a01e:    2000        .       MOVS     r0,#0
        0x0001a020:    f2c40402    ....    MOVT     r4,#0x4002
        0x0001a024:    9001        ..      STR      r0,[sp,#4]
        0x0001a026:    6820         h      LDR      r0,[r4,#0]
        0x0001a028:    f4403000    @..0    ORR      r0,r0,#0x20000
        0x0001a02c:    6020         `      STR      r0,[r4,#0]
        0x0001a02e:    6820         h      LDR      r0,[r4,#0]
        0x0001a030:    f4402080    @..     ORR      r0,r0,#0x40000
        0x0001a034:    6020         `      STR      r0,[r4,#0]
        0x0001a036:    6820         h      LDR      r0,[r4,#0]
        0x0001a038:    f4402000    @..     ORR      r0,r0,#0x80000
        0x0001a03c:    6020         `      STR      r0,[r4,#0]
        0x0001a03e:    6820         h      LDR      r0,[r4,#0]
        0x0001a040:    f4403080    @..0    ORR      r0,r0,#0x10000
        0x0001a044:    6020         `      STR      r0,[r4,#0]
        0x0001a046:    a801        ..      ADD      r0,sp,#4
        0x0001a048:    f7fef9a0    ....    BL       TrimVersionGet ; 0x1838c
        0x0001a04c:    9801        ..      LDR      r0,[sp,#4]
        0x0001a04e:    2801        .(      CMP      r0,#1
        0x0001a050:    d80b        ..      BHI      0x1a06a ; buck_ldo_override_init + 82
        0x0001a052:    6a20         j      LDR      r0,[r4,#0x20]
        0x0001a054:    f36f209f    o..     BFC      r0,#10,#22
        0x0001a058:    2807        .(      CMP      r0,#7
        0x0001a05a:    d306        ..      BCC      0x1a06a ; buck_ldo_override_init + 82
        0x0001a05c:    6a20         j      LDR      r0,[r4,#0x20]
        0x0001a05e:    6a21        !j      LDR      r1,[r4,#0x20]
        0x0001a060:    f20030fa    ...0    ADD      r0,r0,#0x3fa
        0x0001a064:    f3600109    `...    BFI      r1,r0,#0,#10
        0x0001a068:    6221        !b      STR      r1,[r4,#0x20]
        0x0001a06a:    6820         h      LDR      r0,[r4,#0]
        0x0001a06c:    f0200010     ...    BIC      r0,r0,#0x10
        0x0001a070:    6020         `      STR      r0,[r4,#0]
        0x0001a072:    6820         h      LDR      r0,[r4,#0]
        0x0001a074:    f040000e    @...    ORR      r0,r0,#0xe
        0x0001a078:    6020         `      STR      r0,[r4,#0]
        0x0001a07a:    6820         h      LDR      r0,[r4,#0]
        0x0001a07c:    f0400001    @...    ORR      r0,r0,#1
        0x0001a080:    6020         `      STR      r0,[r4,#0]
        0x0001a082:    6820         h      LDR      r0,[r4,#0]
        0x0001a084:    f4207000     ..p    BIC      r0,r0,#0x200
        0x0001a088:    6020         `      STR      r0,[r4,#0]
        0x0001a08a:    6820         h      LDR      r0,[r4,#0]
        0x0001a08c:    f44070e0    @..p    ORR      r0,r0,#0x1c0
        0x0001a090:    6020         `      STR      r0,[r4,#0]
        0x0001a092:    6820         h      LDR      r0,[r4,#0]
        0x0001a094:    f0400020    @. .    ORR      r0,r0,#0x20
        0x0001a098:    6020         `      STR      r0,[r4,#0]
        0x0001a09a:    b002        ..      ADD      sp,sp,#8
        0x0001a09c:    bd10        ..      POP      {r4,pc}
    buck_ldo_update_override
        0x0001a09e:    2160        `!      MOVS     r1,#0x60
        0x0001a0a0:    f2c40102    ....    MOVT     r1,#0x4002
        0x0001a0a4:    680a        .h      LDR      r2,[r1,#0]
        0x0001a0a6:    f4223280    "..2    BIC      r2,r2,#0x10000
        0x0001a0aa:    f3604210    `..B    BFI      r2,r0,#16,#1
        0x0001a0ae:    600a        .`      STR      r2,[r1,#0]
        0x0001a0b0:    680a        .h      LDR      r2,[r1,#0]
        0x0001a0b2:    f0220201    "...    BIC      r2,r2,#1
        0x0001a0b6:    4402        .D      ADD      r2,r2,r0
        0x0001a0b8:    600a        .`      STR      r2,[r1,#0]
        0x0001a0ba:    680a        .h      LDR      r2,[r1,#0]
        0x0001a0bc:    f0220220    ". .    BIC      r2,r2,#0x20
        0x0001a0c0:    f3601245    `.E.    BFI      r2,r0,#5,#1
        0x0001a0c4:    600a        .`      STR      r2,[r1,#0]
        0x0001a0c6:    4770        pG      BX       lr
    crypto_boost_trims
        0x0001a0c8:    e92d41f0    -..A    PUSH     {r4-r8,lr}
        0x0001a0cc:    b082        ..      SUB      sp,sp,#8
        0x0001a0ce:    f24026c0    @..&    MOVW     r6,#0x2c0
        0x0001a0d2:    f2c10600    ....    MOVT     r6,#0x1000
        0x0001a0d6:    7832        2x      LDRB     r2,[r6,#0]
        0x0001a0d8:    4604        .F      MOV      r4,r0
        0x0001a0da:    fab2f082    ....    CLZ      r0,r2
        0x0001a0de:    0940        @.      LSRS     r0,r0,#5
        0x0001a0e0:    4060        `@      EORS     r0,r0,r4
        0x0001a0e2:    bf1c        ..      ITT      NE
        0x0001a0e4:    b002        ..      ADDNE    sp,sp,#8
        0x0001a0e6:    e8bd81f0    ....    POPNE    {r4-r8,pc}
        0x0001a0ea:    f2400888    @...    MOVW     r8,#0x88
        0x0001a0ee:    460d        .F      MOV      r5,r1
        0x0001a0f0:    f2c40802    ....    MOVT     r8,#0x4002
        0x0001a0f4:    f7fefdce    ....    BL       am_hal_interrupt_master_disable ; 0x18c94
        0x0001a0f8:    9001        ..      STR      r0,[sp,#4]
        0x0001a0fa:    f24020c8    @..     MOVW     r0,#0x2c8
        0x0001a0fe:    f2c10000    ....    MOVT     r0,#0x1000
        0x0001a102:    6801        .h      LDR      r1,[r0,#0]
        0x0001a104:    7034        4p      STRB     r4,[r6,#0]
        0x0001a106:    2c00        .,      CMP      r4,#0
        0x0001a108:    bf08        ..      IT       EQ
        0x0001a10a:    426d        mB      RSBEQ    r5,r5,#0
        0x0001a10c:    4429        )D      ADD      r1,r1,r5
        0x0001a10e:    6001        .`      STR      r1,[r0,#0]
        0x0001a110:    f24020c4    @..     MOVW     r0,#0x2c4
        0x0001a114:    293f        ?)      CMP      r1,#0x3f
        0x0001a116:    f04f063f    O.?.    MOV      r6,#0x3f
        0x0001a11a:    f2c10000    ....    MOVT     r0,#0x1000
        0x0001a11e:    bf38        8.      IT       CC
        0x0001a120:    460e        .F      MOVCC    r6,r1
        0x0001a122:    2900        .)      CMP      r1,#0
        0x0001a124:    6801        .h      LDR      r1,[r0,#0]
        0x0001a126:    f04f073f    O.?.    MOV      r7,#0x3f
        0x0001a12a:    4429        )D      ADD      r1,r1,r5
        0x0001a12c:    bf48        H.      IT       MI
        0x0001a12e:    2600        .&      MOVMI    r6,#0
        0x0001a130:    293f        ?)      CMP      r1,#0x3f
        0x0001a132:    bf38        8.      IT       CC
        0x0001a134:    460f        .F      MOVCC    r7,r1
        0x0001a136:    2900        .)      CMP      r1,#0
        0x0001a138:    bf48        H.      IT       MI
        0x0001a13a:    2700        .'      MOVMI    r7,#0
        0x0001a13c:    6001        .`      STR      r1,[r0,#0]
        0x0001a13e:    b194        ..      CBZ      r4,0x1a166 ; crypto_boost_trims + 158
        0x0001a140:    f8d802e4    ....    LDR      r0,[r8,#0x2e4]
        0x0001a144:    f020707c     .|p    BIC      r0,r0,#0x3f00000
        0x0001a148:    ea405006    @..P    ORR      r0,r0,r6,LSL #20
        0x0001a14c:    f8c802e4    ....    STR      r0,[r8,#0x2e4]
        0x0001a150:    2014        .       MOVS     r0,#0x14
        0x0001a152:    f7fefc43    ..C.    BL       am_hal_delay_us ; 0x189dc
        0x0001a156:    f8d80000    ....    LDR      r0,[r8,#0]
        0x0001a15a:    f020003f     .?.    BIC      r0,r0,#0x3f
        0x0001a15e:    4338        8C      ORRS     r0,r0,r7
        0x0001a160:    f8c80000    ....    STR      r0,[r8,#0]
        0x0001a164:    e011        ..      B        0x1a18a ; crypto_boost_trims + 194
        0x0001a166:    f8d80000    ....    LDR      r0,[r8,#0]
        0x0001a16a:    f020003f     .?.    BIC      r0,r0,#0x3f
        0x0001a16e:    4338        8C      ORRS     r0,r0,r7
        0x0001a170:    f8c80000    ....    STR      r0,[r8,#0]
        0x0001a174:    2014        .       MOVS     r0,#0x14
        0x0001a176:    f7fefc31    ..1.    BL       am_hal_delay_us ; 0x189dc
        0x0001a17a:    f8d802e4    ....    LDR      r0,[r8,#0x2e4]
        0x0001a17e:    f020707c     .|p    BIC      r0,r0,#0x3f00000
        0x0001a182:    ea405006    @..P    ORR      r0,r0,r6,LSL #20
        0x0001a186:    f8c802e4    ....    STR      r0,[r8,#0x2e4]
        0x0001a18a:    9801        ..      LDR      r0,[sp,#4]
        0x0001a18c:    f7fefd8a    ....    BL       am_hal_interrupt_master_set ; 0x18ca4
        0x0001a190:    2014        .       MOVS     r0,#0x14
        0x0001a192:    b002        ..      ADD      sp,sp,#8
        0x0001a194:    e8bd41f0    ...A    POP      {r4-r8,lr}
        0x0001a198:    f7febc20    .. .    B        am_hal_delay_us ; 0x189dc
    decstr_to_int
        0x0001a19c:    b087        ..      SUB      sp,sp,#0x1c
        0x0001a19e:    9006        ..      STR      r0,[sp,#0x18]
        0x0001a1a0:    9105        ..      STR      r1,[sp,#0x14]
        0x0001a1a2:    2000        .       MOVS     r0,#0
        0x0001a1a4:    f88d0013    ....    STRB     r0,[sp,#0x13]
        0x0001a1a8:    9003        ..      STR      r0,[sp,#0xc]
        0x0001a1aa:    9002        ..      STR      r0,[sp,#8]
        0x0001a1ac:    9806        ..      LDR      r0,[sp,#0x18]
        0x0001a1ae:    7800        .x      LDRB     r0,[r0,#0]
        0x0001a1b0:    282d        -(      CMP      r0,#0x2d
        0x0001a1b2:    d10a        ..      BNE      0x1a1ca ; decstr_to_int + 46
        0x0001a1b4:    e7ff        ..      B        0x1a1b6 ; decstr_to_int + 26
        0x0001a1b6:    2001        .       MOVS     r0,#1
        0x0001a1b8:    f88d0013    ....    STRB     r0,[sp,#0x13]
        0x0001a1bc:    9806        ..      LDR      r0,[sp,#0x18]
        0x0001a1be:    3001        .0      ADDS     r0,#1
        0x0001a1c0:    9006        ..      STR      r0,[sp,#0x18]
        0x0001a1c2:    9802        ..      LDR      r0,[sp,#8]
        0x0001a1c4:    3001        .0      ADDS     r0,#1
        0x0001a1c6:    9002        ..      STR      r0,[sp,#8]
        0x0001a1c8:    e7ff        ..      B        0x1a1ca ; decstr_to_int + 46
        0x0001a1ca:    e7ff        ..      B        0x1a1cc ; decstr_to_int + 48
        0x0001a1cc:    9806        ..      LDR      r0,[sp,#0x18]
        0x0001a1ce:    7801        .x      LDRB     r1,[r0,#0]
        0x0001a1d0:    2000        .       MOVS     r0,#0
        0x0001a1d2:    2930        0)      CMP      r1,#0x30
        0x0001a1d4:    9001        ..      STR      r0,[sp,#4]
        0x0001a1d6:    db08        ..      BLT      0x1a1ea ; decstr_to_int + 78
        0x0001a1d8:    e7ff        ..      B        0x1a1da ; decstr_to_int + 62
        0x0001a1da:    9806        ..      LDR      r0,[sp,#0x18]
        0x0001a1dc:    7801        .x      LDRB     r1,[r0,#0]
        0x0001a1de:    2000        .       MOVS     r0,#0
        0x0001a1e0:    293a        :)      CMP      r1,#0x3a
        0x0001a1e2:    bfb8        ..      IT       LT
        0x0001a1e4:    2001        .       MOVLT    r0,#1
        0x0001a1e6:    9001        ..      STR      r0,[sp,#4]
        0x0001a1e8:    e7ff        ..      B        0x1a1ea ; decstr_to_int + 78
        0x0001a1ea:    9801        ..      LDR      r0,[sp,#4]
        0x0001a1ec:    07c0        ..      LSLS     r0,r0,#31
        0x0001a1ee:    b190        ..      CBZ      r0,0x1a216 ; decstr_to_int + 122
        0x0001a1f0:    e7ff        ..      B        0x1a1f2 ; decstr_to_int + 86
        0x0001a1f2:    9802        ..      LDR      r0,[sp,#8]
        0x0001a1f4:    3001        .0      ADDS     r0,#1
        0x0001a1f6:    9002        ..      STR      r0,[sp,#8]
        0x0001a1f8:    9803        ..      LDR      r0,[sp,#0xc]
        0x0001a1fa:    eb000080    ....    ADD      r0,r0,r0,LSL #2
        0x0001a1fe:    0040        @.      LSLS     r0,r0,#1
        0x0001a200:    9003        ..      STR      r0,[sp,#0xc]
        0x0001a202:    9806        ..      LDR      r0,[sp,#0x18]
        0x0001a204:    7800        .x      LDRB     r0,[r0,#0]
        0x0001a206:    9903        ..      LDR      r1,[sp,#0xc]
        0x0001a208:    4408        .D      ADD      r0,r0,r1
        0x0001a20a:    3830        08      SUBS     r0,r0,#0x30
        0x0001a20c:    9003        ..      STR      r0,[sp,#0xc]
        0x0001a20e:    9806        ..      LDR      r0,[sp,#0x18]
        0x0001a210:    3001        .0      ADDS     r0,#1
        0x0001a212:    9006        ..      STR      r0,[sp,#0x18]
        0x0001a214:    e7da        ..      B        0x1a1cc ; decstr_to_int + 48
        0x0001a216:    9805        ..      LDR      r0,[sp,#0x14]
        0x0001a218:    b120         .      CBZ      r0,0x1a224 ; decstr_to_int + 136
        0x0001a21a:    e7ff        ..      B        0x1a21c ; decstr_to_int + 128
        0x0001a21c:    9802        ..      LDR      r0,[sp,#8]
        0x0001a21e:    9905        ..      LDR      r1,[sp,#0x14]
        0x0001a220:    6008        .`      STR      r0,[r1,#0]
        0x0001a222:    e7ff        ..      B        0x1a224 ; decstr_to_int + 136
        0x0001a224:    f89d0013    ....    LDRB     r0,[sp,#0x13]
        0x0001a228:    07c0        ..      LSLS     r0,r0,#31
        0x0001a22a:    b120         .      CBZ      r0,0x1a236 ; decstr_to_int + 154
        0x0001a22c:    e7ff        ..      B        0x1a22e ; decstr_to_int + 146
        0x0001a22e:    9803        ..      LDR      r0,[sp,#0xc]
        0x0001a230:    4240        @B      RSBS     r0,r0,#0
        0x0001a232:    9000        ..      STR      r0,[sp,#0]
        0x0001a234:    e002        ..      B        0x1a23c ; decstr_to_int + 160
        0x0001a236:    9803        ..      LDR      r0,[sp,#0xc]
        0x0001a238:    9000        ..      STR      r0,[sp,#0]
        0x0001a23a:    e7ff        ..      B        0x1a23c ; decstr_to_int + 160
        0x0001a23c:    9800        ..      LDR      r0,[sp,#0]
        0x0001a23e:    b007        ..      ADD      sp,sp,#0x1c
        0x0001a240:    4770        pG      BX       lr
        0x0001a242:    0000        ..      MOVS     r0,r0
    divu64_10
        0x0001a244:    b08c        ..      SUB      sp,sp,#0x30
        0x0001a246:    9109        ..      STR      r1,[sp,#0x24]
        0x0001a248:    9008        ..      STR      r0,[sp,#0x20]
        0x0001a24a:    9809        ..      LDR      r0,[sp,#0x24]
        0x0001a24c:    2800        .(      CMP      r0,#0
        0x0001a24e:    d05b        [.      BEQ      0x1a308 ; divu64_10 + 196
        0x0001a250:    e7ff        ..      B        0x1a252 ; divu64_10 + 14
        0x0001a252:    9b08        ..      LDR      r3,[sp,#0x20]
        0x0001a254:    9a09        ..      LDR      r2,[sp,#0x24]
        0x0001a256:    ea5f0052    _.R.    LSRS.W   r0,r2,#1
        0x0001a25a:    ea4f0133    O.3.    RRX      r1,r3
        0x0001a25e:    089b        ..      LSRS     r3,r3,#2
        0x0001a260:    ea437382    C..s    ORR      r3,r3,r2,LSL #30
        0x0001a264:    18c9        ..      ADDS     r1,r1,r3
        0x0001a266:    eb400092    @...    ADC      r0,r0,r2,LSR #2
        0x0001a26a:    9106        ..      STR      r1,[sp,#0x18]
        0x0001a26c:    9007        ..      STR      r0,[sp,#0x1c]
        0x0001a26e:    9906        ..      LDR      r1,[sp,#0x18]
        0x0001a270:    9807        ..      LDR      r0,[sp,#0x1c]
        0x0001a272:    090a        ..      LSRS     r2,r1,#4
        0x0001a274:    ea427200    B..r    ORR      r2,r2,r0,LSL #28
        0x0001a278:    1889        ..      ADDS     r1,r1,r2
        0x0001a27a:    eb401010    @...    ADC      r0,r0,r0,LSR #4
        0x0001a27e:    9106        ..      STR      r1,[sp,#0x18]
        0x0001a280:    9007        ..      STR      r0,[sp,#0x1c]
        0x0001a282:    9906        ..      LDR      r1,[sp,#0x18]
        0x0001a284:    9807        ..      LDR      r0,[sp,#0x1c]
        0x0001a286:    0a0a        ..      LSRS     r2,r1,#8
        0x0001a288:    ea426200    B..b    ORR      r2,r2,r0,LSL #24
        0x0001a28c:    1889        ..      ADDS     r1,r1,r2
        0x0001a28e:    eb402010    @..     ADC      r0,r0,r0,LSR #8
        0x0001a292:    9106        ..      STR      r1,[sp,#0x18]
        0x0001a294:    9007        ..      STR      r0,[sp,#0x1c]
        0x0001a296:    9906        ..      LDR      r1,[sp,#0x18]
        0x0001a298:    9807        ..      LDR      r0,[sp,#0x1c]
        0x0001a29a:    0c0a        ..      LSRS     r2,r1,#16
        0x0001a29c:    ea424200    B..B    ORR      r2,r2,r0,LSL #16
        0x0001a2a0:    1889        ..      ADDS     r1,r1,r2
        0x0001a2a2:    eb404010    @..@    ADC      r0,r0,r0,LSR #16
        0x0001a2a6:    9106        ..      STR      r1,[sp,#0x18]
        0x0001a2a8:    9007        ..      STR      r0,[sp,#0x1c]
        0x0001a2aa:    9906        ..      LDR      r1,[sp,#0x18]
        0x0001a2ac:    9807        ..      LDR      r0,[sp,#0x1c]
        0x0001a2ae:    1809        ..      ADDS     r1,r1,r0
        0x0001a2b0:    f1400000    @...    ADC      r0,r0,#0
        0x0001a2b4:    9106        ..      STR      r1,[sp,#0x18]
        0x0001a2b6:    9007        ..      STR      r0,[sp,#0x1c]
        0x0001a2b8:    9806        ..      LDR      r0,[sp,#0x18]
        0x0001a2ba:    9907        ..      LDR      r1,[sp,#0x1c]
        0x0001a2bc:    08c0        ..      LSRS     r0,r0,#3
        0x0001a2be:    ea407041    @.Ap    ORR      r0,r0,r1,LSL #29
        0x0001a2c2:    08c9        ..      LSRS     r1,r1,#3
        0x0001a2c4:    9107        ..      STR      r1,[sp,#0x1c]
        0x0001a2c6:    9006        ..      STR      r0,[sp,#0x18]
        0x0001a2c8:    9908        ..      LDR      r1,[sp,#0x20]
        0x0001a2ca:    9809        ..      LDR      r0,[sp,#0x24]
        0x0001a2cc:    9a06        ..      LDR      r2,[sp,#0x18]
        0x0001a2ce:    f8ddc01c    ....    LDR      r12,[sp,#0x1c]
        0x0001a2d2:    230a        .#      MOVS     r3,#0xa
        0x0001a2d4:    fba23203    ...2    UMULL    r3,r2,r2,r3
        0x0001a2d8:    eb0c0c8c    ....    ADD      r12,r12,r12,LSL #2
        0x0001a2dc:    eb02024c    ..L.    ADD      r2,r2,r12,LSL #1
        0x0001a2e0:    1ac9        ..      SUBS     r1,r1,r3
        0x0001a2e2:    4190        .A      SBCS     r0,r0,r2
        0x0001a2e4:    9104        ..      STR      r1,[sp,#0x10]
        0x0001a2e6:    9005        ..      STR      r0,[sp,#0x14]
        0x0001a2e8:    9906        ..      LDR      r1,[sp,#0x18]
        0x0001a2ea:    9807        ..      LDR      r0,[sp,#0x1c]
        0x0001a2ec:    9b04        ..      LDR      r3,[sp,#0x10]
        0x0001a2ee:    9a05        ..      LDR      r2,[sp,#0x14]
        0x0001a2f0:    3306        .3      ADDS     r3,#6
        0x0001a2f2:    f1420200    B...    ADC      r2,r2,#0
        0x0001a2f6:    091b        ..      LSRS     r3,r3,#4
        0x0001a2f8:    ea437302    C..s    ORR      r3,r3,r2,LSL #28
        0x0001a2fc:    18c9        ..      ADDS     r1,r1,r3
        0x0001a2fe:    eb401012    @...    ADC      r0,r0,r2,LSR #4
        0x0001a302:    910a        ..      STR      r1,[sp,#0x28]
        0x0001a304:    900b        ..      STR      r0,[sp,#0x2c]
        0x0001a306:    e025        %.      B        0x1a354 ; divu64_10 + 272
        0x0001a308:    9808        ..      LDR      r0,[sp,#0x20]
        0x0001a30a:    9001        ..      STR      r0,[sp,#4]
        0x0001a30c:    9901        ..      LDR      r1,[sp,#4]
        0x0001a30e:    0848        H.      LSRS     r0,r1,#1
        0x0001a310:    eb000091    ....    ADD      r0,r0,r1,LSR #2
        0x0001a314:    9003        ..      STR      r0,[sp,#0xc]
        0x0001a316:    9803        ..      LDR      r0,[sp,#0xc]
        0x0001a318:    eb001010    ....    ADD      r0,r0,r0,LSR #4
        0x0001a31c:    9003        ..      STR      r0,[sp,#0xc]
        0x0001a31e:    9803        ..      LDR      r0,[sp,#0xc]
        0x0001a320:    eb002010    ...     ADD      r0,r0,r0,LSR #8
        0x0001a324:    9003        ..      STR      r0,[sp,#0xc]
        0x0001a326:    9803        ..      LDR      r0,[sp,#0xc]
        0x0001a328:    eb004010    ...@    ADD      r0,r0,r0,LSR #16
        0x0001a32c:    9003        ..      STR      r0,[sp,#0xc]
        0x0001a32e:    9803        ..      LDR      r0,[sp,#0xc]
        0x0001a330:    08c0        ..      LSRS     r0,r0,#3
        0x0001a332:    9003        ..      STR      r0,[sp,#0xc]
        0x0001a334:    9801        ..      LDR      r0,[sp,#4]
        0x0001a336:    9903        ..      LDR      r1,[sp,#0xc]
        0x0001a338:    eb010181    ....    ADD      r1,r1,r1,LSL #2
        0x0001a33c:    eba00041    ..A.    SUB      r0,r0,r1,LSL #1
        0x0001a340:    9002        ..      STR      r0,[sp,#8]
        0x0001a342:    9803        ..      LDR      r0,[sp,#0xc]
        0x0001a344:    9902        ..      LDR      r1,[sp,#8]
        0x0001a346:    3106        .1      ADDS     r1,#6
        0x0001a348:    eb001011    ....    ADD      r0,r0,r1,LSR #4
        0x0001a34c:    2100        .!      MOVS     r1,#0
        0x0001a34e:    910b        ..      STR      r1,[sp,#0x2c]
        0x0001a350:    900a        ..      STR      r0,[sp,#0x28]
        0x0001a352:    e7ff        ..      B        0x1a354 ; divu64_10 + 272
        0x0001a354:    980a        ..      LDR      r0,[sp,#0x28]
        0x0001a356:    990b        ..      LDR      r1,[sp,#0x2c]
        0x0001a358:    b00c        ..      ADD      sp,sp,#0x30
        0x0001a35a:    4770        pG      BX       lr
    ftoa
        0x0001a35c:    b580        ..      PUSH     {r7,lr}
        0x0001a35e:    b090        ..      SUB      sp,sp,#0x40
        0x0001a360:    ed8d0a0e    ....    VSTR     s0,[sp,#0x38]
        0x0001a364:    900d        ..      STR      r0,[sp,#0x34]
        0x0001a366:    910c        ..      STR      r1,[sp,#0x30]
        0x0001a368:    980d        ..      LDR      r0,[sp,#0x34]
        0x0001a36a:    6800        .h      LDR      r0,[r0,#0]
        0x0001a36c:    9009        ..      STR      r0,[sp,#0x24]
        0x0001a36e:    9809        ..      LDR      r0,[sp,#0x24]
        0x0001a370:    2803        .(      CMP      r0,#3
        0x0001a372:    dc04        ..      BGT      0x1a37e ; ftoa + 34
        0x0001a374:    e7ff        ..      B        0x1a376 ; ftoa + 26
        0x0001a376:    f06f0002    o...    MVN      r0,#2
        0x0001a37a:    900f        ..      STR      r0,[sp,#0x3c]
        0x0001a37c:    e103        ..      B        0x1a586 ; ftoa + 554
        0x0001a37e:    ed9d0a0e    ....    VLDR     s0,[sp,#0x38]
        0x0001a382:    eeb50a40    ..@.    VCMP.F32 s0,#0.0
        0x0001a386:    eef1fa10    ....    VMRS     APSR_nzcv,FPSCR
        0x0001a38a:    d109        ..      BNE      0x1a3a0 ; ftoa + 68
        0x0001a38c:    e7ff        ..      B        0x1a38e ; ftoa + 50
        0x0001a38e:    990d        ..      LDR      r1,[sp,#0x34]
        0x0001a390:    f6426030    B.0`    MOV      r0,#0x2e30
        0x0001a394:    f2c00030    ..0.    MOVT     r0,#0x30
        0x0001a398:    6008        .`      STR      r0,[r1,#0]
        0x0001a39a:    2003        .       MOVS     r0,#3
        0x0001a39c:    900f        ..      STR      r0,[sp,#0x3c]
        0x0001a39e:    e0f2        ..      B        0x1a586 ; ftoa + 554
        0x0001a3a0:    980d        ..      LDR      r0,[sp,#0x34]
        0x0001a3a2:    9005        ..      STR      r0,[sp,#0x14]
        0x0001a3a4:    980e        ..      LDR      r0,[sp,#0x38]
        0x0001a3a6:    900b        ..      STR      r0,[sp,#0x2c]
        0x0001a3a8:    980b        ..      LDR      r0,[sp,#0x2c]
        0x0001a3aa:    0dc1        ..      LSRS     r1,r0,#23
        0x0001a3ac:    f06f007e    o.~.    MVN      r0,#0x7e
        0x0001a3b0:    fa50f081    P...    UXTAB    r0,r0,r1
        0x0001a3b4:    900a        ..      STR      r0,[sp,#0x28]
        0x0001a3b6:    980b        ..      LDR      r0,[sp,#0x2c]
        0x0001a3b8:    f4400000    @...    ORR      r0,r0,#0x800000
        0x0001a3bc:    f020407f     ..@    BIC      r0,r0,#0xff000000
        0x0001a3c0:    9008        ..      STR      r0,[sp,#0x20]
        0x0001a3c2:    2000        .       MOVS     r0,#0
        0x0001a3c4:    9006        ..      STR      r0,[sp,#0x18]
        0x0001a3c6:    9007        ..      STR      r0,[sp,#0x1c]
        0x0001a3c8:    980a        ..      LDR      r0,[sp,#0x28]
        0x0001a3ca:    281f        .(      CMP      r0,#0x1f
        0x0001a3cc:    db04        ..      BLT      0x1a3d8 ; ftoa + 124
        0x0001a3ce:    e7ff        ..      B        0x1a3d0 ; ftoa + 116
        0x0001a3d0:    f06f0001    o...    MVN      r0,#1
        0x0001a3d4:    900f        ..      STR      r0,[sp,#0x3c]
        0x0001a3d6:    e0d6        ..      B        0x1a586 ; ftoa + 554
        0x0001a3d8:    980a        ..      LDR      r0,[sp,#0x28]
        0x0001a3da:    f1100f18    ....    CMN      r0,#0x18
        0x0001a3de:    dc04        ..      BGT      0x1a3ea ; ftoa + 142
        0x0001a3e0:    e7ff        ..      B        0x1a3e2 ; ftoa + 134
        0x0001a3e2:    f04f30ff    O..0    MOV      r0,#0xffffffff
        0x0001a3e6:    900f        ..      STR      r0,[sp,#0x3c]
        0x0001a3e8:    e0cd        ..      B        0x1a586 ; ftoa + 554
        0x0001a3ea:    980a        ..      LDR      r0,[sp,#0x28]
        0x0001a3ec:    2817        .(      CMP      r0,#0x17
        0x0001a3ee:    db06        ..      BLT      0x1a3fe ; ftoa + 162
        0x0001a3f0:    e7ff        ..      B        0x1a3f2 ; ftoa + 150
        0x0001a3f2:    9808        ..      LDR      r0,[sp,#0x20]
        0x0001a3f4:    990a        ..      LDR      r1,[sp,#0x28]
        0x0001a3f6:    3917        .9      SUBS     r1,r1,#0x17
        0x0001a3f8:    4088        .@      LSLS     r0,r0,r1
        0x0001a3fa:    9007        ..      STR      r0,[sp,#0x1c]
        0x0001a3fc:    e01a        ..      B        0x1a434 ; ftoa + 216
        0x0001a3fe:    980a        ..      LDR      r0,[sp,#0x28]
        0x0001a400:    2800        .(      CMP      r0,#0
        0x0001a402:    d40e        ..      BMI      0x1a422 ; ftoa + 198
        0x0001a404:    e7ff        ..      B        0x1a406 ; ftoa + 170
        0x0001a406:    9808        ..      LDR      r0,[sp,#0x20]
        0x0001a408:    990a        ..      LDR      r1,[sp,#0x28]
        0x0001a40a:    f1c10117    ....    RSB      r1,r1,#0x17
        0x0001a40e:    4108        .A      ASRS     r0,r0,r1
        0x0001a410:    9007        ..      STR      r0,[sp,#0x1c]
        0x0001a412:    9808        ..      LDR      r0,[sp,#0x20]
        0x0001a414:    990a        ..      LDR      r1,[sp,#0x28]
        0x0001a416:    3101        .1      ADDS     r1,#1
        0x0001a418:    4088        .@      LSLS     r0,r0,r1
        0x0001a41a:    f020407f     ..@    BIC      r0,r0,#0xff000000
        0x0001a41e:    9006        ..      STR      r0,[sp,#0x18]
        0x0001a420:    e007        ..      B        0x1a432 ; ftoa + 214
        0x0001a422:    9808        ..      LDR      r0,[sp,#0x20]
        0x0001a424:    f020407f     ..@    BIC      r0,r0,#0xff000000
        0x0001a428:    990a        ..      LDR      r1,[sp,#0x28]
        0x0001a42a:    43c9        .C      MVNS     r1,r1
        0x0001a42c:    40c8        .@      LSRS     r0,r0,r1
        0x0001a42e:    9006        ..      STR      r0,[sp,#0x18]
        0x0001a430:    e7ff        ..      B        0x1a432 ; ftoa + 214
        0x0001a432:    e7ff        ..      B        0x1a434 ; ftoa + 216
        0x0001a434:    e7ff        ..      B        0x1a436 ; ftoa + 218
        0x0001a436:    e7ff        ..      B        0x1a438 ; ftoa + 220
        0x0001a438:    980b        ..      LDR      r0,[sp,#0x2c]
        0x0001a43a:    f1b03fff    ...?    CMP      r0,#0xffffffff
        0x0001a43e:    dc06        ..      BGT      0x1a44e ; ftoa + 242
        0x0001a440:    e7ff        ..      B        0x1a442 ; ftoa + 230
        0x0001a442:    990d        ..      LDR      r1,[sp,#0x34]
        0x0001a444:    1c48        H.      ADDS     r0,r1,#1
        0x0001a446:    900d        ..      STR      r0,[sp,#0x34]
        0x0001a448:    202d        -       MOVS     r0,#0x2d
        0x0001a44a:    7008        .p      STRB     r0,[r1,#0]
        0x0001a44c:    e7ff        ..      B        0x1a44e ; ftoa + 242
        0x0001a44e:    9807        ..      LDR      r0,[sp,#0x1c]
        0x0001a450:    b930        0.      CBNZ     r0,0x1a460 ; ftoa + 260
        0x0001a452:    e7ff        ..      B        0x1a454 ; ftoa + 248
        0x0001a454:    990d        ..      LDR      r1,[sp,#0x34]
        0x0001a456:    1c48        H.      ADDS     r0,r1,#1
        0x0001a458:    900d        ..      STR      r0,[sp,#0x34]
        0x0001a45a:    2030        0       MOVS     r0,#0x30
        0x0001a45c:    7008        .p      STRB     r0,[r1,#0]
        0x0001a45e:    e01f        ..      B        0x1a4a0 ; ftoa + 324
        0x0001a460:    9807        ..      LDR      r0,[sp,#0x1c]
        0x0001a462:    2801        .(      CMP      r0,#1
        0x0001a464:    db06        ..      BLT      0x1a474 ; ftoa + 280
        0x0001a466:    e7ff        ..      B        0x1a468 ; ftoa + 268
        0x0001a468:    9807        ..      LDR      r0,[sp,#0x1c]
        0x0001a46a:    17c1        ..      ASRS     r1,r0,#31
        0x0001a46c:    9a0d        ..      LDR      r2,[sp,#0x34]
        0x0001a46e:    f000f9eb    ....    BL       uint64_to_str ; 0x1a848
        0x0001a472:    e00b        ..      B        0x1a48c ; ftoa + 304
        0x0001a474:    990d        ..      LDR      r1,[sp,#0x34]
        0x0001a476:    1c48        H.      ADDS     r0,r1,#1
        0x0001a478:    900d        ..      STR      r0,[sp,#0x34]
        0x0001a47a:    202d        -       MOVS     r0,#0x2d
        0x0001a47c:    7008        .p      STRB     r0,[r1,#0]
        0x0001a47e:    9807        ..      LDR      r0,[sp,#0x1c]
        0x0001a480:    4240        @B      RSBS     r0,r0,#0
        0x0001a482:    17c1        ..      ASRS     r1,r0,#31
        0x0001a484:    9a0d        ..      LDR      r2,[sp,#0x34]
        0x0001a486:    f000f9df    ....    BL       uint64_to_str ; 0x1a848
        0x0001a48a:    e7ff        ..      B        0x1a48c ; ftoa + 304
        0x0001a48c:    e7ff        ..      B        0x1a48e ; ftoa + 306
        0x0001a48e:    980d        ..      LDR      r0,[sp,#0x34]
        0x0001a490:    7800        .x      LDRB     r0,[r0,#0]
        0x0001a492:    b120         .      CBZ      r0,0x1a49e ; ftoa + 322
        0x0001a494:    e7ff        ..      B        0x1a496 ; ftoa + 314
        0x0001a496:    980d        ..      LDR      r0,[sp,#0x34]
        0x0001a498:    3001        .0      ADDS     r0,#1
        0x0001a49a:    900d        ..      STR      r0,[sp,#0x34]
        0x0001a49c:    e7f7        ..      B        0x1a48e ; ftoa + 306
        0x0001a49e:    e7ff        ..      B        0x1a4a0 ; ftoa + 324
        0x0001a4a0:    990d        ..      LDR      r1,[sp,#0x34]
        0x0001a4a2:    1c48        H.      ADDS     r0,r1,#1
        0x0001a4a4:    900d        ..      STR      r0,[sp,#0x34]
        0x0001a4a6:    202e        .       MOVS     r0,#0x2e
        0x0001a4a8:    7008        .p      STRB     r0,[r1,#0]
        0x0001a4aa:    9806        ..      LDR      r0,[sp,#0x18]
        0x0001a4ac:    b930        0.      CBNZ     r0,0x1a4bc ; ftoa + 352
        0x0001a4ae:    e7ff        ..      B        0x1a4b0 ; ftoa + 340
        0x0001a4b0:    990d        ..      LDR      r1,[sp,#0x34]
        0x0001a4b2:    1c48        H.      ADDS     r0,r1,#1
        0x0001a4b4:    900d        ..      STR      r0,[sp,#0x34]
        0x0001a4b6:    2030        0       MOVS     r0,#0x30
        0x0001a4b8:    7008        .p      STRB     r0,[r1,#0]
        0x0001a4ba:    e05c        \.      B        0x1a576 ; ftoa + 538
        0x0001a4bc:    9909        ..      LDR      r1,[sp,#0x24]
        0x0001a4be:    980d        ..      LDR      r0,[sp,#0x34]
        0x0001a4c0:    9a05        ..      LDR      r2,[sp,#0x14]
        0x0001a4c2:    1a80        ..      SUBS     r0,r0,r2
        0x0001a4c4:    43c0        .C      MVNS     r0,r0
        0x0001a4c6:    4408        .D      ADD      r0,r0,r1
        0x0001a4c8:    9002        ..      STR      r0,[sp,#8]
        0x0001a4ca:    9802        ..      LDR      r0,[sp,#8]
        0x0001a4cc:    990c        ..      LDR      r1,[sp,#0x30]
        0x0001a4ce:    4288        .B      CMP      r0,r1
        0x0001a4d0:    dd03        ..      BLE      0x1a4da ; ftoa + 382
        0x0001a4d2:    e7ff        ..      B        0x1a4d4 ; ftoa + 376
        0x0001a4d4:    980c        ..      LDR      r0,[sp,#0x30]
        0x0001a4d6:    9001        ..      STR      r0,[sp,#4]
        0x0001a4d8:    e002        ..      B        0x1a4e0 ; ftoa + 388
        0x0001a4da:    9802        ..      LDR      r0,[sp,#8]
        0x0001a4dc:    9001        ..      STR      r0,[sp,#4]
        0x0001a4de:    e7ff        ..      B        0x1a4e0 ; ftoa + 388
        0x0001a4e0:    9801        ..      LDR      r0,[sp,#4]
        0x0001a4e2:    9002        ..      STR      r0,[sp,#8]
        0x0001a4e4:    2000        .       MOVS     r0,#0
        0x0001a4e6:    9003        ..      STR      r0,[sp,#0xc]
        0x0001a4e8:    e7ff        ..      B        0x1a4ea ; ftoa + 398
        0x0001a4ea:    9803        ..      LDR      r0,[sp,#0xc]
        0x0001a4ec:    9902        ..      LDR      r1,[sp,#8]
        0x0001a4ee:    4288        .B      CMP      r0,r1
        0x0001a4f0:    da15        ..      BGE      0x1a51e ; ftoa + 450
        0x0001a4f2:    e7ff        ..      B        0x1a4f4 ; ftoa + 408
        0x0001a4f4:    9806        ..      LDR      r0,[sp,#0x18]
        0x0001a4f6:    eb000080    ....    ADD      r0,r0,r0,LSL #2
        0x0001a4fa:    0040        @.      LSLS     r0,r0,#1
        0x0001a4fc:    9006        ..      STR      r0,[sp,#0x18]
        0x0001a4fe:    f89d001b    ....    LDRB     r0,[sp,#0x1b]
        0x0001a502:    3030        00      ADDS     r0,r0,#0x30
        0x0001a504:    990d        ..      LDR      r1,[sp,#0x34]
        0x0001a506:    1c4a        J.      ADDS     r2,r1,#1
        0x0001a508:    920d        ..      STR      r2,[sp,#0x34]
        0x0001a50a:    7008        .p      STRB     r0,[r1,#0]
        0x0001a50c:    9806        ..      LDR      r0,[sp,#0x18]
        0x0001a50e:    f020407f     ..@    BIC      r0,r0,#0xff000000
        0x0001a512:    9006        ..      STR      r0,[sp,#0x18]
        0x0001a514:    e7ff        ..      B        0x1a516 ; ftoa + 442
        0x0001a516:    9803        ..      LDR      r0,[sp,#0xc]
        0x0001a518:    3001        .0      ADDS     r0,#1
        0x0001a51a:    9003        ..      STR      r0,[sp,#0xc]
        0x0001a51c:    e7e5        ..      B        0x1a4ea ; ftoa + 398
        0x0001a51e:    9806        ..      LDR      r0,[sp,#0x18]
        0x0001a520:    eb000080    ....    ADD      r0,r0,r0,LSL #2
        0x0001a524:    f34050c7    @..P    SBFX     r0,r0,#23,#8
        0x0001a528:    2805        .(      CMP      r0,#5
        0x0001a52a:    db23        #.      BLT      0x1a574 ; ftoa + 536
        0x0001a52c:    e7ff        ..      B        0x1a52e ; ftoa + 466
        0x0001a52e:    980d        ..      LDR      r0,[sp,#0x34]
        0x0001a530:    3801        .8      SUBS     r0,#1
        0x0001a532:    9004        ..      STR      r0,[sp,#0x10]
        0x0001a534:    e7ff        ..      B        0x1a536 ; ftoa + 474
        0x0001a536:    9804        ..      LDR      r0,[sp,#0x10]
        0x0001a538:    9905        ..      LDR      r1,[sp,#0x14]
        0x0001a53a:    4288        .B      CMP      r0,r1
        0x0001a53c:    d319        ..      BCC      0x1a572 ; ftoa + 534
        0x0001a53e:    e7ff        ..      B        0x1a540 ; ftoa + 484
        0x0001a540:    9804        ..      LDR      r0,[sp,#0x10]
        0x0001a542:    7800        .x      LDRB     r0,[r0,#0]
        0x0001a544:    282e        .(      CMP      r0,#0x2e
        0x0001a546:    d101        ..      BNE      0x1a54c ; ftoa + 496
        0x0001a548:    e7ff        ..      B        0x1a54a ; ftoa + 494
        0x0001a54a:    e00e        ..      B        0x1a56a ; ftoa + 526
        0x0001a54c:    9804        ..      LDR      r0,[sp,#0x10]
        0x0001a54e:    7800        .x      LDRB     r0,[r0,#0]
        0x0001a550:    2839        9(      CMP      r0,#0x39
        0x0001a552:    d104        ..      BNE      0x1a55e ; ftoa + 514
        0x0001a554:    e7ff        ..      B        0x1a556 ; ftoa + 506
        0x0001a556:    9904        ..      LDR      r1,[sp,#0x10]
        0x0001a558:    2030        0       MOVS     r0,#0x30
        0x0001a55a:    7008        .p      STRB     r0,[r1,#0]
        0x0001a55c:    e004        ..      B        0x1a568 ; ftoa + 524
        0x0001a55e:    9904        ..      LDR      r1,[sp,#0x10]
        0x0001a560:    7808        .x      LDRB     r0,[r1,#0]
        0x0001a562:    3001        .0      ADDS     r0,#1
        0x0001a564:    7008        .p      STRB     r0,[r1,#0]
        0x0001a566:    e004        ..      B        0x1a572 ; ftoa + 534
        0x0001a568:    e7ff        ..      B        0x1a56a ; ftoa + 526
        0x0001a56a:    9804        ..      LDR      r0,[sp,#0x10]
        0x0001a56c:    3801        .8      SUBS     r0,#1
        0x0001a56e:    9004        ..      STR      r0,[sp,#0x10]
        0x0001a570:    e7e1        ..      B        0x1a536 ; ftoa + 474
        0x0001a572:    e7ff        ..      B        0x1a574 ; ftoa + 536
        0x0001a574:    e7ff        ..      B        0x1a576 ; ftoa + 538
        0x0001a576:    990d        ..      LDR      r1,[sp,#0x34]
        0x0001a578:    2000        .       MOVS     r0,#0
        0x0001a57a:    7008        .p      STRB     r0,[r1,#0]
        0x0001a57c:    980d        ..      LDR      r0,[sp,#0x34]
        0x0001a57e:    9905        ..      LDR      r1,[sp,#0x14]
        0x0001a580:    1a40        @.      SUBS     r0,r0,r1
        0x0001a582:    900f        ..      STR      r0,[sp,#0x3c]
        0x0001a584:    e7ff        ..      B        0x1a586 ; ftoa + 554
        0x0001a586:    980f        ..      LDR      r0,[sp,#0x3c]
        0x0001a588:    b010        ..      ADD      sp,sp,#0x40
        0x0001a58a:    bd80        ..      POP      {r7,pc}
    getStackedReg
        0x0001a58c:    0080        ..      LSLS     r0,r0,#2
        0x0001a58e:    1840        @.      ADDS     r0,r0,r1
        0x0001a590:    6800        .h      LDR      r0,[r0,#0]
        0x0001a592:    4770        pG      BX       lr
    main
        0x0001a594:    b580        ..      PUSH     {r7,lr}
        0x0001a596:    b08a        ..      SUB      sp,sp,#0x28
        0x0001a598:    2000        .       MOVS     r0,#0
        0x0001a59a:    9004        ..      STR      r0,[sp,#0x10]
        0x0001a59c:    9009        ..      STR      r0,[sp,#0x24]
        0x0001a59e:    f64a10f2    J...    MOV      r0,#0xa9f2
        0x0001a5a2:    f2c00001    ....    MOVT     r0,#1
        0x0001a5a6:    f7fef8a4    ....    BL       am_hal_cachectrl_config ; 0x186f2
        0x0001a5aa:    f7fef8c4    ....    BL       am_hal_cachectrl_enable ; 0x18736
        0x0001a5ae:    f7fdff8a    ....    BL       am_bsp_low_power_init ; 0x184c6
        0x0001a5b2:    f2400000    @...    MOVW     r0,#0
        0x0001a5b6:    f2c10000    ....    MOVT     r0,#0x1000
        0x0001a5ba:    2103        .!      MOVS     r1,#3
        0x0001a5bc:    f7fdff8e    ....    BL       am_devices_led_array_init ; 0x184dc
        0x0001a5c0:    f7fdff37    ..7.    BL       am_bsp_itm_printf_enable ; 0x18432
        0x0001a5c4:    f7fff9a4    ....    BL       am_util_stdio_terminal_clear ; 0x19910
        0x0001a5c8:    f64a4020    J. @    MOV      r0,#0xac20
        0x0001a5cc:    f2c00001    ....    MOVT     r0,#1
        0x0001a5d0:    f7fff966    ..f.    BL       am_util_stdio_printf ; 0x198a0
        0x0001a5d4:    a805        ..      ADD      r0,sp,#0x14
        0x0001a5d6:    f7feff67    ..g.    BL       am_hal_reset_status_get ; 0x194a8
        0x0001a5da:    f8bd1014    ....    LDRH     r1,[sp,#0x14]
        0x0001a5de:    f24060e4    @..`    MOV      r0,#0x6e4
        0x0001a5e2:    f2c10000    ....    MOVT     r0,#0x1000
        0x0001a5e6:    6001        .`      STR      r1,[r0,#0]
        0x0001a5e8:    6801        .h      LDR      r1,[r0,#0]
        0x0001a5ea:    f64a4069    J.i@    MOV      r0,#0xac69
        0x0001a5ee:    f2c00001    ....    MOVT     r0,#1
        0x0001a5f2:    f7fff955    ..U.    BL       am_util_stdio_printf ; 0x198a0
        0x0001a5f6:    9804        ..      LDR      r0,[sp,#0x10]
        0x0001a5f8:    f2400138    @.8.    MOVW     r1,#0x38
        0x0001a5fc:    f2c10100    ....    MOVT     r1,#0x1000
        0x0001a600:    f7fff866    ..f.    BL       am_hal_wdt_config ; 0x196d0
        0x0001a604:    9804        ..      LDR      r0,[sp,#0x10]
        0x0001a606:    2101        .!      MOVS     r1,#1
        0x0001a608:    9103        ..      STR      r1,[sp,#0xc]
        0x0001a60a:    f7fff892    ....    BL       am_hal_wdt_interrupt_enable ; 0x19732
        0x0001a60e:    9803        ..      LDR      r0,[sp,#0xc]
        0x0001a610:    2104        .!      MOVS     r1,#4
        0x0001a612:    f7fdfeed    ....    BL       __NVIC_SetPriority ; 0x183f0
        0x0001a616:    9803        ..      LDR      r0,[sp,#0xc]
        0x0001a618:    f7fdfed2    ....    BL       __NVIC_EnableIRQ ; 0x183c0
        0x0001a61c:    f7fefb3e    ..>.    BL       am_hal_interrupt_master_enable ; 0x18c9c
        0x0001a620:    9904        ..      LDR      r1,[sp,#0x10]
        0x0001a622:    4608        .F      MOV      r0,r1
        0x0001a624:    f7fff8b1    ....    BL       am_hal_wdt_start ; 0x1978a
        0x0001a628:    e7ff        ..      B        0x1a62a ; main + 150
        0x0001a62a:    f7fefb33    ..3.    BL       am_hal_interrupt_master_disable ; 0x18c94
        0x0001a62e:    f2400000    @...    MOVW     r0,#0
        0x0001a632:    f2c10000    ....    MOVT     r0,#0x1000
        0x0001a636:    9001        ..      STR      r0,[sp,#4]
        0x0001a638:    2100        .!      MOVS     r1,#0
        0x0001a63a:    9102        ..      STR      r1,[sp,#8]
        0x0001a63c:    f7fdffce    ....    BL       am_devices_led_off ; 0x185dc
        0x0001a640:    2001        .       MOVS     r0,#1
        0x0001a642:    f7feff77    ..w.    BL       am_hal_sysctrl_sleep ; 0x19534
        0x0001a646:    9801        ..      LDR      r0,[sp,#4]
        0x0001a648:    9902        ..      LDR      r1,[sp,#8]
        0x0001a64a:    f7fef80d    ....    BL       am_devices_led_on ; 0x18668
        0x0001a64e:    f7fefb25    ..%.    BL       am_hal_interrupt_master_enable ; 0x18c9c
        0x0001a652:    e7ea        ..      B        0x1a62a ; main + 150
    ndigits_in_hex
        0x0001a654:    b084        ..      SUB      sp,sp,#0x10
        0x0001a656:    9103        ..      STR      r1,[sp,#0xc]
        0x0001a658:    9002        ..      STR      r0,[sp,#8]
        0x0001a65a:    9802        ..      LDR      r0,[sp,#8]
        0x0001a65c:    9903        ..      LDR      r1,[sp,#0xc]
        0x0001a65e:    4308        .C      ORRS     r0,r0,r1
        0x0001a660:    fab0f080    ....    CLZ      r0,r0
        0x0001a664:    0940        @.      LSRS     r0,r0,#5
        0x0001a666:    9001        ..      STR      r0,[sp,#4]
        0x0001a668:    e7ff        ..      B        0x1a66a ; ndigits_in_hex + 22
        0x0001a66a:    9802        ..      LDR      r0,[sp,#8]
        0x0001a66c:    9903        ..      LDR      r1,[sp,#0xc]
        0x0001a66e:    4308        .C      ORRS     r0,r0,r1
        0x0001a670:    b160        `.      CBZ      r0,0x1a68c ; ndigits_in_hex + 56
        0x0001a672:    e7ff        ..      B        0x1a674 ; ndigits_in_hex + 32
        0x0001a674:    9802        ..      LDR      r0,[sp,#8]
        0x0001a676:    9903        ..      LDR      r1,[sp,#0xc]
        0x0001a678:    0900        ..      LSRS     r0,r0,#4
        0x0001a67a:    ea407001    @..p    ORR      r0,r0,r1,LSL #28
        0x0001a67e:    0909        ..      LSRS     r1,r1,#4
        0x0001a680:    9103        ..      STR      r1,[sp,#0xc]
        0x0001a682:    9002        ..      STR      r0,[sp,#8]
        0x0001a684:    9801        ..      LDR      r0,[sp,#4]
        0x0001a686:    3001        .0      ADDS     r0,#1
        0x0001a688:    9001        ..      STR      r0,[sp,#4]
        0x0001a68a:    e7ee        ..      B        0x1a66a ; ndigits_in_hex + 22
        0x0001a68c:    9801        ..      LDR      r0,[sp,#4]
        0x0001a68e:    b004        ..      ADD      sp,sp,#0x10
        0x0001a690:    4770        pG      BX       lr
        0x0001a692:    0000        ..      MOVS     r0,r0
    ndigits_in_i64
        0x0001a694:    b580        ..      PUSH     {r7,lr}
        0x0001a696:    b082        ..      SUB      sp,sp,#8
        0x0001a698:    9101        ..      STR      r1,[sp,#4]
        0x0001a69a:    9000        ..      STR      r0,[sp,#0]
        0x0001a69c:    9801        ..      LDR      r0,[sp,#4]
        0x0001a69e:    f1b03fff    ...?    CMP      r0,#0xffffffff
        0x0001a6a2:    dc09        ..      BGT      0x1a6b8 ; ndigits_in_i64 + 36
        0x0001a6a4:    e7ff        ..      B        0x1a6a6 ; ndigits_in_i64 + 18
        0x0001a6a6:    9800        ..      LDR      r0,[sp,#0]
        0x0001a6a8:    9a01        ..      LDR      r2,[sp,#4]
        0x0001a6aa:    4241        AB      RSBS     r1,r0,#0
        0x0001a6ac:    f04f0000    O...    MOV      r0,#0
        0x0001a6b0:    4190        .A      SBCS     r0,r0,r2
        0x0001a6b2:    9100        ..      STR      r1,[sp,#0]
        0x0001a6b4:    9001        ..      STR      r0,[sp,#4]
        0x0001a6b6:    e7ff        ..      B        0x1a6b8 ; ndigits_in_i64 + 36
        0x0001a6b8:    9800        ..      LDR      r0,[sp,#0]
        0x0001a6ba:    9901        ..      LDR      r1,[sp,#4]
        0x0001a6bc:    f000f802    ....    BL       ndigits_in_u64 ; 0x1a6c4
        0x0001a6c0:    b002        ..      ADD      sp,sp,#8
        0x0001a6c2:    bd80        ..      POP      {r7,pc}
    ndigits_in_u64
        0x0001a6c4:    b580        ..      PUSH     {r7,lr}
        0x0001a6c6:    b084        ..      SUB      sp,sp,#0x10
        0x0001a6c8:    9103        ..      STR      r1,[sp,#0xc]
        0x0001a6ca:    9002        ..      STR      r0,[sp,#8]
        0x0001a6cc:    9802        ..      LDR      r0,[sp,#8]
        0x0001a6ce:    9903        ..      LDR      r1,[sp,#0xc]
        0x0001a6d0:    4308        .C      ORRS     r0,r0,r1
        0x0001a6d2:    fab0f080    ....    CLZ      r0,r0
        0x0001a6d6:    0940        @.      LSRS     r0,r0,#5
        0x0001a6d8:    9001        ..      STR      r0,[sp,#4]
        0x0001a6da:    e7ff        ..      B        0x1a6dc ; ndigits_in_u64 + 24
        0x0001a6dc:    9802        ..      LDR      r0,[sp,#8]
        0x0001a6de:    9903        ..      LDR      r1,[sp,#0xc]
        0x0001a6e0:    4308        .C      ORRS     r0,r0,r1
        0x0001a6e2:    b150        P.      CBZ      r0,0x1a6fa ; ndigits_in_u64 + 54
        0x0001a6e4:    e7ff        ..      B        0x1a6e6 ; ndigits_in_u64 + 34
        0x0001a6e6:    9802        ..      LDR      r0,[sp,#8]
        0x0001a6e8:    9903        ..      LDR      r1,[sp,#0xc]
        0x0001a6ea:    f7fffdab    ....    BL       divu64_10 ; 0x1a244
        0x0001a6ee:    9103        ..      STR      r1,[sp,#0xc]
        0x0001a6f0:    9002        ..      STR      r0,[sp,#8]
        0x0001a6f2:    9801        ..      LDR      r0,[sp,#4]
        0x0001a6f4:    3001        .0      ADDS     r0,#1
        0x0001a6f6:    9001        ..      STR      r0,[sp,#4]
        0x0001a6f8:    e7f0        ..      B        0x1a6dc ; ndigits_in_u64 + 24
        0x0001a6fa:    9801        ..      LDR      r0,[sp,#4]
        0x0001a6fc:    b004        ..      ADD      sp,sp,#0x10
        0x0001a6fe:    bd80        ..      POP      {r7,pc}
    padbuffer
        0x0001a700:    b085        ..      SUB      sp,sp,#0x14
        0x0001a702:    9003        ..      STR      r0,[sp,#0xc]
        0x0001a704:    f88d100b    ....    STRB     r1,[sp,#0xb]
        0x0001a708:    9201        ..      STR      r2,[sp,#4]
        0x0001a70a:    2000        .       MOVS     r0,#0
        0x0001a70c:    9000        ..      STR      r0,[sp,#0]
        0x0001a70e:    9801        ..      LDR      r0,[sp,#4]
        0x0001a710:    2800        .(      CMP      r0,#0
        0x0001a712:    dc03        ..      BGT      0x1a71c ; padbuffer + 28
        0x0001a714:    e7ff        ..      B        0x1a716 ; padbuffer + 22
        0x0001a716:    9800        ..      LDR      r0,[sp,#0]
        0x0001a718:    9004        ..      STR      r0,[sp,#0x10]
        0x0001a71a:    e016        ..      B        0x1a74a ; padbuffer + 74
        0x0001a71c:    e7ff        ..      B        0x1a71e ; padbuffer + 30
        0x0001a71e:    9801        ..      LDR      r0,[sp,#4]
        0x0001a720:    1e41        A.      SUBS     r1,r0,#1
        0x0001a722:    9101        ..      STR      r1,[sp,#4]
        0x0001a724:    b170        p.      CBZ      r0,0x1a744 ; padbuffer + 68
        0x0001a726:    e7ff        ..      B        0x1a728 ; padbuffer + 40
        0x0001a728:    9803        ..      LDR      r0,[sp,#0xc]
        0x0001a72a:    b138        8.      CBZ      r0,0x1a73c ; padbuffer + 60
        0x0001a72c:    e7ff        ..      B        0x1a72e ; padbuffer + 46
        0x0001a72e:    f89d000b    ....    LDRB     r0,[sp,#0xb]
        0x0001a732:    9903        ..      LDR      r1,[sp,#0xc]
        0x0001a734:    1c4a        J.      ADDS     r2,r1,#1
        0x0001a736:    9203        ..      STR      r2,[sp,#0xc]
        0x0001a738:    7008        .p      STRB     r0,[r1,#0]
        0x0001a73a:    e7ff        ..      B        0x1a73c ; padbuffer + 60
        0x0001a73c:    9800        ..      LDR      r0,[sp,#0]
        0x0001a73e:    3001        .0      ADDS     r0,#1
        0x0001a740:    9000        ..      STR      r0,[sp,#0]
        0x0001a742:    e7ec        ..      B        0x1a71e ; padbuffer + 30
        0x0001a744:    9800        ..      LDR      r0,[sp,#0]
        0x0001a746:    9004        ..      STR      r0,[sp,#0x10]
        0x0001a748:    e7ff        ..      B        0x1a74a ; padbuffer + 74
        0x0001a74a:    9804        ..      LDR      r0,[sp,#0x10]
        0x0001a74c:    b005        ..      ADD      sp,sp,#0x14
        0x0001a74e:    4770        pG      BX       lr
    simple_strlen
        0x0001a750:    b083        ..      SUB      sp,sp,#0xc
        0x0001a752:    9001        ..      STR      r0,[sp,#4]
        0x0001a754:    2000        .       MOVS     r0,#0
        0x0001a756:    9000        ..      STR      r0,[sp,#0]
        0x0001a758:    9801        ..      LDR      r0,[sp,#4]
        0x0001a75a:    b918        ..      CBNZ     r0,0x1a764 ; simple_strlen + 20
        0x0001a75c:    e7ff        ..      B        0x1a75e ; simple_strlen + 14
        0x0001a75e:    9800        ..      LDR      r0,[sp,#0]
        0x0001a760:    9002        ..      STR      r0,[sp,#8]
        0x0001a762:    e00d        ..      B        0x1a780 ; simple_strlen + 48
        0x0001a764:    e7ff        ..      B        0x1a766 ; simple_strlen + 22
        0x0001a766:    9801        ..      LDR      r0,[sp,#4]
        0x0001a768:    1c41        A.      ADDS     r1,r0,#1
        0x0001a76a:    9101        ..      STR      r1,[sp,#4]
        0x0001a76c:    7800        .x      LDRB     r0,[r0,#0]
        0x0001a76e:    b120         .      CBZ      r0,0x1a77a ; simple_strlen + 42
        0x0001a770:    e7ff        ..      B        0x1a772 ; simple_strlen + 34
        0x0001a772:    9800        ..      LDR      r0,[sp,#0]
        0x0001a774:    3001        .0      ADDS     r0,#1
        0x0001a776:    9000        ..      STR      r0,[sp,#0]
        0x0001a778:    e7f5        ..      B        0x1a766 ; simple_strlen + 22
        0x0001a77a:    9800        ..      LDR      r0,[sp,#0]
        0x0001a77c:    9002        ..      STR      r0,[sp,#8]
        0x0001a77e:    e7ff        ..      B        0x1a780 ; simple_strlen + 48
        0x0001a780:    9802        ..      LDR      r0,[sp,#8]
        0x0001a782:    b003        ..      ADD      sp,sp,#0xc
        0x0001a784:    4770        pG      BX       lr
        0x0001a786:    0000        ..      MOVS     r0,r0
    uint64_to_hexstr
        0x0001a788:    b08c        ..      SUB      sp,sp,#0x30
        0x0001a78a:    910b        ..      STR      r1,[sp,#0x2c]
        0x0001a78c:    900a        ..      STR      r0,[sp,#0x28]
        0x0001a78e:    9209        ..      STR      r2,[sp,#0x24]
        0x0001a790:    f88d3023    ..#0    STRB     r3,[sp,#0x23]
        0x0001a794:    2000        .       MOVS     r0,#0
        0x0001a796:    9006        ..      STR      r0,[sp,#0x18]
        0x0001a798:    980a        ..      LDR      r0,[sp,#0x28]
        0x0001a79a:    990b        ..      LDR      r1,[sp,#0x2c]
        0x0001a79c:    4308        .C      ORRS     r0,r0,r1
        0x0001a79e:    b940        @.      CBNZ     r0,0x1a7b2 ; uint64_to_hexstr + 42
        0x0001a7a0:    e7ff        ..      B        0x1a7a2 ; uint64_to_hexstr + 26
        0x0001a7a2:    9a06        ..      LDR      r2,[sp,#0x18]
        0x0001a7a4:    1c50        P.      ADDS     r0,r2,#1
        0x0001a7a6:    9006        ..      STR      r0,[sp,#0x18]
        0x0001a7a8:    f10d0103    ....    ADD      r1,sp,#3
        0x0001a7ac:    2030        0       MOVS     r0,#0x30
        0x0001a7ae:    5488        .T      STRB     r0,[r1,r2]
        0x0001a7b0:    e7ff        ..      B        0x1a7b2 ; uint64_to_hexstr + 42
        0x0001a7b2:    e7ff        ..      B        0x1a7b4 ; uint64_to_hexstr + 44
        0x0001a7b4:    980a        ..      LDR      r0,[sp,#0x28]
        0x0001a7b6:    990b        ..      LDR      r1,[sp,#0x2c]
        0x0001a7b8:    4308        .C      ORRS     r0,r0,r1
        0x0001a7ba:    b350        P.      CBZ      r0,0x1a812 ; uint64_to_hexstr + 138
        0x0001a7bc:    e7ff        ..      B        0x1a7be ; uint64_to_hexstr + 54
        0x0001a7be:    f89d0028    ..(.    LDRB     r0,[sp,#0x28]
        0x0001a7c2:    f000000f    ....    AND      r0,r0,#0xf
        0x0001a7c6:    f88d0017    ....    STRB     r0,[sp,#0x17]
        0x0001a7ca:    f89d0017    ....    LDRB     r0,[sp,#0x17]
        0x0001a7ce:    280a        .(      CMP      r0,#0xa
        0x0001a7d0:    db0d        ..      BLT      0x1a7ee ; uint64_to_hexstr + 102
        0x0001a7d2:    e7ff        ..      B        0x1a7d4 ; uint64_to_hexstr + 76
        0x0001a7d4:    f89d0023    ..#.    LDRB     r0,[sp,#0x23]
        0x0001a7d8:    07c0        ..      LSLS     r0,r0,#31
        0x0001a7da:    2107        .!      MOVS     r1,#7
        0x0001a7dc:    2800        .(      CMP      r0,#0
        0x0001a7de:    bf18        ..      IT       NE
        0x0001a7e0:    2127        '!      MOVNE    r1,#0x27
        0x0001a7e2:    f89d0017    ....    LDRB     r0,[sp,#0x17]
        0x0001a7e6:    4408        .D      ADD      r0,r0,r1
        0x0001a7e8:    f88d0017    ....    STRB     r0,[sp,#0x17]
        0x0001a7ec:    e7ff        ..      B        0x1a7ee ; uint64_to_hexstr + 102
        0x0001a7ee:    f89d0017    ....    LDRB     r0,[sp,#0x17]
        0x0001a7f2:    3030        00      ADDS     r0,r0,#0x30
        0x0001a7f4:    9a06        ..      LDR      r2,[sp,#0x18]
        0x0001a7f6:    1c51        Q.      ADDS     r1,r2,#1
        0x0001a7f8:    9106        ..      STR      r1,[sp,#0x18]
        0x0001a7fa:    f10d0103    ....    ADD      r1,sp,#3
        0x0001a7fe:    5488        .T      STRB     r0,[r1,r2]
        0x0001a800:    980a        ..      LDR      r0,[sp,#0x28]
        0x0001a802:    990b        ..      LDR      r1,[sp,#0x2c]
        0x0001a804:    0900        ..      LSRS     r0,r0,#4
        0x0001a806:    ea407001    @..p    ORR      r0,r0,r1,LSL #28
        0x0001a80a:    0909        ..      LSRS     r1,r1,#4
        0x0001a80c:    910b        ..      STR      r1,[sp,#0x2c]
        0x0001a80e:    900a        ..      STR      r0,[sp,#0x28]
        0x0001a810:    e7d0        ..      B        0x1a7b4 ; uint64_to_hexstr + 44
        0x0001a812:    9806        ..      LDR      r0,[sp,#0x18]
        0x0001a814:    9007        ..      STR      r0,[sp,#0x1c]
        0x0001a816:    9809        ..      LDR      r0,[sp,#0x24]
        0x0001a818:    b198        ..      CBZ      r0,0x1a842 ; uint64_to_hexstr + 186
        0x0001a81a:    e7ff        ..      B        0x1a81c ; uint64_to_hexstr + 148
        0x0001a81c:    e7ff        ..      B        0x1a81e ; uint64_to_hexstr + 150
        0x0001a81e:    9806        ..      LDR      r0,[sp,#0x18]
        0x0001a820:    1e41        A.      SUBS     r1,r0,#1
        0x0001a822:    9106        ..      STR      r1,[sp,#0x18]
        0x0001a824:    b148        H.      CBZ      r0,0x1a83a ; uint64_to_hexstr + 178
        0x0001a826:    e7ff        ..      B        0x1a828 ; uint64_to_hexstr + 160
        0x0001a828:    9906        ..      LDR      r1,[sp,#0x18]
        0x0001a82a:    f10d0003    ....    ADD      r0,sp,#3
        0x0001a82e:    5c40        @\      LDRB     r0,[r0,r1]
        0x0001a830:    9909        ..      LDR      r1,[sp,#0x24]
        0x0001a832:    1c4a        J.      ADDS     r2,r1,#1
        0x0001a834:    9209        ..      STR      r2,[sp,#0x24]
        0x0001a836:    7008        .p      STRB     r0,[r1,#0]
        0x0001a838:    e7f1        ..      B        0x1a81e ; uint64_to_hexstr + 150
        0x0001a83a:    9909        ..      LDR      r1,[sp,#0x24]
        0x0001a83c:    2000        .       MOVS     r0,#0
        0x0001a83e:    7008        .p      STRB     r0,[r1,#0]
        0x0001a840:    e7ff        ..      B        0x1a842 ; uint64_to_hexstr + 186
        0x0001a842:    9807        ..      LDR      r0,[sp,#0x1c]
        0x0001a844:    b00c        ..      ADD      sp,sp,#0x30
        0x0001a846:    4770        pG      BX       lr
    uint64_to_str
        0x0001a848:    b580        ..      PUSH     {r7,lr}
        0x0001a84a:    b090        ..      SUB      sp,sp,#0x40
        0x0001a84c:    910f        ..      STR      r1,[sp,#0x3c]
        0x0001a84e:    900e        ..      STR      r0,[sp,#0x38]
        0x0001a850:    920d        ..      STR      r2,[sp,#0x34]
        0x0001a852:    2000        .       MOVS     r0,#0
        0x0001a854:    9005        ..      STR      r0,[sp,#0x14]
        0x0001a856:    9004        ..      STR      r0,[sp,#0x10]
        0x0001a858:    e7ff        ..      B        0x1a85a ; uint64_to_str + 18
        0x0001a85a:    980e        ..      LDR      r0,[sp,#0x38]
        0x0001a85c:    990f        ..      LDR      r1,[sp,#0x3c]
        0x0001a85e:    f7fffcf1    ....    BL       divu64_10 ; 0x1a244
        0x0001a862:    9101        ..      STR      r1,[sp,#4]
        0x0001a864:    9000        ..      STR      r0,[sp,#0]
        0x0001a866:    980e        ..      LDR      r0,[sp,#0x38]
        0x0001a868:    9900        ..      LDR      r1,[sp,#0]
        0x0001a86a:    eb010181    ....    ADD      r1,r1,r1,LSL #2
        0x0001a86e:    eba00041    ..A.    SUB      r0,r0,r1,LSL #1
        0x0001a872:    9003        ..      STR      r0,[sp,#0xc]
        0x0001a874:    9803        ..      LDR      r0,[sp,#0xc]
        0x0001a876:    3030        00      ADDS     r0,r0,#0x30
        0x0001a878:    9a05        ..      LDR      r2,[sp,#0x14]
        0x0001a87a:    1c51        Q.      ADDS     r1,r2,#1
        0x0001a87c:    9105        ..      STR      r1,[sp,#0x14]
        0x0001a87e:    f10d011b    ....    ADD      r1,sp,#0x1b
        0x0001a882:    5488        .T      STRB     r0,[r1,r2]
        0x0001a884:    9800        ..      LDR      r0,[sp,#0]
        0x0001a886:    9901        ..      LDR      r1,[sp,#4]
        0x0001a888:    910f        ..      STR      r1,[sp,#0x3c]
        0x0001a88a:    900e        ..      STR      r0,[sp,#0x38]
        0x0001a88c:    e7ff        ..      B        0x1a88e ; uint64_to_str + 70
        0x0001a88e:    980e        ..      LDR      r0,[sp,#0x38]
        0x0001a890:    990f        ..      LDR      r1,[sp,#0x3c]
        0x0001a892:    4308        .C      ORRS     r0,r0,r1
        0x0001a894:    2800        .(      CMP      r0,#0
        0x0001a896:    d1e0        ..      BNE      0x1a85a ; uint64_to_str + 18
        0x0001a898:    e7ff        ..      B        0x1a89a ; uint64_to_str + 82
        0x0001a89a:    9805        ..      LDR      r0,[sp,#0x14]
        0x0001a89c:    9004        ..      STR      r0,[sp,#0x10]
        0x0001a89e:    980d        ..      LDR      r0,[sp,#0x34]
        0x0001a8a0:    b198        ..      CBZ      r0,0x1a8ca ; uint64_to_str + 130
        0x0001a8a2:    e7ff        ..      B        0x1a8a4 ; uint64_to_str + 92
        0x0001a8a4:    e7ff        ..      B        0x1a8a6 ; uint64_to_str + 94
        0x0001a8a6:    9805        ..      LDR      r0,[sp,#0x14]
        0x0001a8a8:    1e41        A.      SUBS     r1,r0,#1
        0x0001a8aa:    9105        ..      STR      r1,[sp,#0x14]
        0x0001a8ac:    b148        H.      CBZ      r0,0x1a8c2 ; uint64_to_str + 122
        0x0001a8ae:    e7ff        ..      B        0x1a8b0 ; uint64_to_str + 104
        0x0001a8b0:    9905        ..      LDR      r1,[sp,#0x14]
        0x0001a8b2:    f10d001b    ....    ADD      r0,sp,#0x1b
        0x0001a8b6:    5c40        @\      LDRB     r0,[r0,r1]
        0x0001a8b8:    990d        ..      LDR      r1,[sp,#0x34]
        0x0001a8ba:    1c4a        J.      ADDS     r2,r1,#1
        0x0001a8bc:    920d        ..      STR      r2,[sp,#0x34]
        0x0001a8be:    7008        .p      STRB     r0,[r1,#0]
        0x0001a8c0:    e7f1        ..      B        0x1a8a6 ; uint64_to_str + 94
        0x0001a8c2:    990d        ..      LDR      r1,[sp,#0x34]
        0x0001a8c4:    2000        .       MOVS     r0,#0
        0x0001a8c6:    7008        .p      STRB     r0,[r1,#0]
        0x0001a8c8:    e7ff        ..      B        0x1a8ca ; uint64_to_str + 130
        0x0001a8ca:    9804        ..      LDR      r0,[sp,#0x10]
        0x0001a8cc:    b010        ..      ADD      sp,sp,#0x40
        0x0001a8ce:    bd80        ..      POP      {r7,pc}
    $t
    x$fpl$d2f
    $v0
    __aeabi_d2f
    _d2f
        0x0001a8d0:    f0214200    !..B    BIC      r2,r1,#0x80000000
        0x0001a8d4:    f0014300    ...C    AND      r3,r1,#0x80000000
        0x0001a8d8:    f1a25260    ..`R    SUB      r2,r2,#0x38000000
        0x0001a8dc:    f5b21f80    ....    CMP      r2,#0x100000
        0x0001a8e0:    bf28        (.      IT       CS
        0x0001a8e2:    f1d26c7f    ...l    RSBSCS   r12,r2,#0xff00000
        0x0001a8e6:    d90b        ..      BLS      0x1a900 ; __aeabi_d2f + 48
        0x0001a8e8:    ea5f1c00    _...    LSLS     r12,r0,#4
        0x0001a8ec:    ea4302c2    C...    ORR      r2,r3,r2,LSL #3
        0x0001a8f0:    eb427050    B.Pp    ADC      r0,r2,r0,LSR #29
        0x0001a8f4:    bf18        ..      IT       NE
        0x0001a8f6:    4770        pG      BXNE     lr
        0x0001a8f8:    bf28        (.      IT       CS
        0x0001a8fa:    f0200001     ...    BICCS    r0,r0,#1
        0x0001a8fe:    4770        pG      BX       lr
        0x0001a900:    f5b21f80    ....    CMP      r2,#0x100000
        0x0001a904:    bfbc        ..      ITT      LT
        0x0001a906:    4618        .F      MOVLT    r0,r3
        0x0001a908:    4770        pG      BXLT     lr
        0x0001a90a:    ea4f0c41    O.A.    LSL      r12,r1,#1
        0x0001a90e:    f51c1f00    ....    CMN      r12,#0x200000
        0x0001a912:    d202        ..      BCS      0x1a91a ; __aeabi_d2f + 74
        0x0001a914:    4608        .F      MOV      r0,r1
        0x0001a916:    f000b867    ..g.    B.W      __fpl_fretinf ; 0x1a9e8
        0x0001a91a:    b570        p.      PUSH     {r4-r6,lr}
        0x0001a91c:    f000f809    ....    BL       __fpl_dnaninf ; 0x1a932
    $d
        0x0001a920:    89000000    ....    DCD    2298478592
    $t
        0x0001a924:    f7ffbff6    ....    B.W      0x1a914 ; __aeabi_d2f + 68
        0x0001a928:    f04f4000    O..@    MOV      r0,#0x80000000
        0x0001a92c:    f5a00080    ....    SUB      r0,r0,#0x400000
        0x0001a930:    4770        pG      BX       lr
    x$fpl$dnaninf
    $v0
    __fpl_dnaninf
        0x0001a932:    f10e0e02    ....    ADD      lr,lr,#2
        0x0001a936:    f02e0e03    ....    BIC      lr,lr,#3
        0x0001a93a:    f85e6b04    ^..k    LDR      r6,[lr],#4
        0x0001a93e:    4236        6B      TST      r6,r6
        0x0001a940:    d405        ..      BMI      0x1a94e ; __fpl_dnaninf + 28
        0x0001a942:    2a01        .*      CMP      r2,#1
        0x0001a944:    eb430503    C...    ADC      r5,r3,r3
        0x0001a948:    f5151f00    ....    CMN      r5,#0x200000
        0x0001a94c:    d812        ..      BHI      0x1a974 ; __fpl_dnaninf + 66
        0x0001a94e:    2801        .(      CMP      r0,#1
        0x0001a950:    eb410c01    A...    ADC      r12,r1,r1
        0x0001a954:    f51c1f00    ....    CMN      r12,#0x200000
        0x0001a958:    d80c        ..      BHI      0x1a974 ; __fpl_dnaninf + 66
        0x0001a95a:    d10e        ..      BNE      0x1a97a ; __fpl_dnaninf + 72
        0x0001a95c:    ea4f7cd1    O..|    LSR      r12,r1,#31
        0x0001a960:    eb0c0c4c    ..L.    ADD      r12,r12,r12,LSL #1
        0x0001a964:    f10c0c02    ....    ADD      r12,r12,#2
        0x0001a968:    f5151f00    ....    CMN      r5,#0x200000
        0x0001a96c:    bf08        ..      IT       EQ
        0x0001a96e:    eb4c7cd3    L..|    ADCEQ    r12,r12,r3,LSR #31
        0x0001a972:    e004        ..      B        0x1a97e ; __fpl_dnaninf + 76
        0x0001a974:    f04f0c08    O...    MOV      r12,#8
        0x0001a978:    e001        ..      B        0x1a97e ; __fpl_dnaninf + 76
        0x0001a97a:    ea4f7cd3    O..|    LSR      r12,r3,#31
        0x0001a97e:    eb0c054c    ..L.    ADD      r5,r12,r12,LSL #1
        0x0001a982:    fa26f605    &...    LSR      r6,r6,r5
        0x0001a986:    f0060607    ....    AND      r6,r6,#7
        0x0001a98a:    f1b60c04    ....    SUBS     r12,r6,#4
        0x0001a98e:    d206        ..      BCS      0x1a99e ; __fpl_dnaninf + 108
        0x0001a990:    eb0e0c86    ....    ADD      r12,lr,r6,LSL #2
        0x0001a994:    e8bd4070    ..p@    POP      {r4-r6,lr}
        0x0001a998:    f04c0c01    L...    ORR      r12,r12,#1
        0x0001a99c:    4760        `G      BX       r12
        0x0001a99e:    e8dff00c    ....    TBB      [pc,r12]
    $d
        0x0001a9a2:    0b09        ..      DCW    2825
        0x0001a9a4:    0202        ..      DCW    514
    $t
        0x0001a9a6:    f04f4100    O..A    MOV      r1,#0x80000000
        0x0001a9aa:    f5a12100    ...!    SUB      r1,r1,#0x80000
        0x0001a9ae:    f04f0000    O...    MOV      r0,#0
        0x0001a9b2:    bd70        p.      POP      {r4-r6,pc}
        0x0001a9b4:    4619        .F      MOV      r1,r3
        0x0001a9b6:    4610        .F      MOV      r0,r2
        0x0001a9b8:    2801        .(      CMP      r0,#1
        0x0001a9ba:    eb510401    Q...    ADCS     r4,r1,r1
        0x0001a9be:    bf18        ..      IT       NE
        0x0001a9c0:    f5d41400    ....    RSBSNE   r4,r4,#0x200000
        0x0001a9c4:    bf84        ..      ITT      HI
        0x0001a9c6:    2000        .       MOVHI    r0,#0
        0x0001a9c8:    f0014100    ...A    ANDHI    r1,r1,#0x80000000
        0x0001a9cc:    bd70        p.      POP      {r4-r6,pc}
    x$fpl$fpinit
    $v0
    _fp_init
        0x0001a9ce:    eef10a10    ....    VMRS     r0,FPSCR
        0x0001a9d2:    f64f71ff    O..q    MOV      r1,#0xffff
        0x0001a9d6:    f2c031c0    ...1    MOVT     r1,#0x3c0
        0x0001a9da:    ea200001     ...    BIC      r0,r0,r1
        0x0001a9de:    f0407040    @.@p    ORR      r0,r0,#0x3000000
        0x0001a9e2:    eee10a10    ....    VMSR     FPSCR,r0
    __fplib_config_fpu_vfp
    __fplib_config_pureend_doubles
        0x0001a9e6:    4770        pG      BX       lr
    x$fpl$fretinf
    $v0
    __fpl_fretinf
        0x0001a9e8:    21ff        .!      MOVS     r1,#0xff
        0x0001a9ea:    ea4150d0    A..P    ORR      r0,r1,r0,LSR #23
        0x0001a9ee:    05c0        ..      LSLS     r0,r0,#23
        0x0001a9f0:    4770        pG      BX       lr
    $d.realdata
    x$fpl$usenofp
    __I$use$fp
    am_hal_cachectrl_defaults
        0x0001a9f2:    030e        ..      DCW    782
        0x0001a9f4:    00          .       DCB    0
    am_hal_daxi_defaults
        0x0001a9f5:    000102      ...     DCB    0,1,2
        0x0001a9f8:    00000100    ....    DCD    256
    am_hal_gpio_pincfg_opendrain
        0x0001a9fc:    00000283    ....    DCD    643
    am_hal_gpio_pincfg_output
        0x0001aa00:    00000183    ....    DCD    387
    am_hal_gpio_pincfg_tristate
        0x0001aa04:    00000383    ....    DCD    899
    am_hal_pwrctrl_peripheral_control
        0x0001aa08:    40021004    ...@    DCD    1073876996
        0x0001aa0c:    00000001    ....    DCD    1
        0x0001aa10:    40021008    ...@    DCD    1073877000
        0x0001aa14:    00000001    ....    DCD    1
        0x0001aa18:    40021004    ...@    DCD    1073876996
        0x0001aa1c:    00000002    ....    DCD    2
        0x0001aa20:    40021008    ...@    DCD    1073877000
        0x0001aa24:    0000001e    ....    DCD    30
        0x0001aa28:    40021004    ...@    DCD    1073876996
        0x0001aa2c:    00000004    ....    DCD    4
        0x0001aa30:    40021008    ...@    DCD    1073877000
        0x0001aa34:    0000001e    ....    DCD    30
        0x0001aa38:    40021004    ...@    DCD    1073876996
        0x0001aa3c:    00000008    ....    DCD    8
        0x0001aa40:    40021008    ...@    DCD    1073877000
        0x0001aa44:    0000001e    ....    DCD    30
        0x0001aa48:    40021004    ...@    DCD    1073876996
        0x0001aa4c:    00000010    ....    DCD    16
        0x0001aa50:    40021008    ...@    DCD    1073877000
        0x0001aa54:    0000001e    ....    DCD    30
        0x0001aa58:    40021004    ...@    DCD    1073876996
        0x0001aa5c:    00000020     ...    DCD    32
        0x0001aa60:    40021008    ...@    DCD    1073877000
        0x0001aa64:    000001e0    ....    DCD    480
        0x0001aa68:    40021004    ...@    DCD    1073876996
        0x0001aa6c:    00000040    @...    DCD    64
        0x0001aa70:    40021008    ...@    DCD    1073877000
        0x0001aa74:    000001e0    ....    DCD    480
        0x0001aa78:    40021004    ...@    DCD    1073876996
        0x0001aa7c:    00000080    ....    DCD    128
        0x0001aa80:    40021008    ...@    DCD    1073877000
        0x0001aa84:    000001e0    ....    DCD    480
        0x0001aa88:    40021004    ...@    DCD    1073876996
        0x0001aa8c:    00000100    ....    DCD    256
        0x0001aa90:    40021008    ...@    DCD    1073877000
        0x0001aa94:    000001e0    ....    DCD    480
        0x0001aa98:    40021004    ...@    DCD    1073876996
        0x0001aa9c:    00000200    ....    DCD    512
        0x0001aaa0:    40021008    ...@    DCD    1073877000
        0x0001aaa4:    00001e00    ....    DCD    7680
        0x0001aaa8:    40021004    ...@    DCD    1073876996
        0x0001aaac:    00000400    ....    DCD    1024
        0x0001aab0:    40021008    ...@    DCD    1073877000
        0x0001aab4:    00001e00    ....    DCD    7680
        0x0001aab8:    40021004    ...@    DCD    1073876996
        0x0001aabc:    00000800    ....    DCD    2048
        0x0001aac0:    40021008    ...@    DCD    1073877000
        0x0001aac4:    00001e00    ....    DCD    7680
        0x0001aac8:    40021004    ...@    DCD    1073876996
        0x0001aacc:    00001000    ....    DCD    4096
        0x0001aad0:    40021008    ...@    DCD    1073877000
        0x0001aad4:    00001e00    ....    DCD    7680
        0x0001aad8:    40021004    ...@    DCD    1073876996
        0x0001aadc:    00002000    . ..    DCD    8192
        0x0001aae0:    40021008    ...@    DCD    1073877000
        0x0001aae4:    00002000    . ..    DCD    8192
        0x0001aae8:    40021004    ...@    DCD    1073876996
        0x0001aaec:    00004000    .@..    DCD    16384
        0x0001aaf0:    40021008    ...@    DCD    1073877000
        0x0001aaf4:    0001c000    ....    DCD    114688
        0x0001aaf8:    40021004    ...@    DCD    1073876996
        0x0001aafc:    00008000    ....    DCD    32768
        0x0001ab00:    40021008    ...@    DCD    1073877000
        0x0001ab04:    0001c000    ....    DCD    114688
        0x0001ab08:    40021004    ...@    DCD    1073876996
        0x0001ab0c:    00010000    ....    DCD    65536
        0x0001ab10:    40021008    ...@    DCD    1073877000
        0x0001ab14:    0001c000    ....    DCD    114688
        0x0001ab18:    40021004    ...@    DCD    1073876996
        0x0001ab1c:    00020000    ....    DCD    131072
        0x0001ab20:    40021008    ...@    DCD    1073877000
        0x0001ab24:    00020000    ....    DCD    131072
        0x0001ab28:    40021004    ...@    DCD    1073876996
        0x0001ab2c:    00100000    ....    DCD    1048576
        0x0001ab30:    40021008    ...@    DCD    1073877000
        0x0001ab34:    00100000    ....    DCD    1048576
        0x0001ab38:    40021004    ...@    DCD    1073876996
        0x0001ab3c:    00200000    .. .    DCD    2097152
        0x0001ab40:    40021008    ...@    DCD    1073877000
        0x0001ab44:    00200000    .. .    DCD    2097152
        0x0001ab48:    40021004    ...@    DCD    1073876996
        0x0001ab4c:    01000000    ....    DCD    16777216
        0x0001ab50:    40021008    ...@    DCD    1073877000
        0x0001ab54:    01000000    ....    DCD    16777216
        0x0001ab58:    4002100c    ...@    DCD    1073877004
        0x0001ab5c:    00000001    ....    DCD    1
        0x0001ab60:    40021010    ...@    DCD    1073877008
        0x0001ab64:    00000047    G...    DCD    71
        0x0001ab68:    4002100c    ...@    DCD    1073877004
        0x0001ab6c:    00000002    ....    DCD    2
        0x0001ab70:    40021010    ...@    DCD    1073877008
        0x0001ab74:    00000047    G...    DCD    71
        0x0001ab78:    4002100c    ...@    DCD    1073877004
        0x0001ab7c:    00000004    ....    DCD    4
        0x0001ab80:    40021010    ...@    DCD    1073877008
        0x0001ab84:    00000047    G...    DCD    71
        0x0001ab88:    4002100c    ...@    DCD    1073877004
        0x0001ab8c:    00000040    @...    DCD    64
        0x0001ab90:    40021010    ...@    DCD    1073877008
        0x0001ab94:    00000047    G...    DCD    71
    g_ui32RMpintbl
        0x0001ab98:    00000000    ....    DCD    0
        0x0001ab9c:    00000000    ....    DCD    0
        0x0001aba0:    00000000    ....    DCD    0
        0x0001aba4:    00000000    ....    DCD    0
    g_DefaultMcuMemCfg
        0x0001aba8:    07070102    ....    DCD    117899522
        0x0001abac:    0001        ..      DCW    1
    g_DefaultSRAMCfg
        0x0001abae:    0003        ..      DCW    3
        0x0001abb0:    03000000    ....    DCD    50331648
    g_am_hal_bootrom_helper
        0x0001abb4:    0800004d    M...    DCD    134217805
        0x0001abb8:    08000051    Q...    DCD    134217809
        0x0001abbc:    08000055    U...    DCD    134217813
        0x0001abc0:    08000059    Y...    DCD    134217817
        0x0001abc4:    0800006d    m...    DCD    134217837
        0x0001abc8:    08000075    u...    DCD    134217845
        0x0001abcc:    08000079    y...    DCD    134217849
        0x0001abd0:    08000081    ....    DCD    134217857
        0x0001abd4:    08000099    ....    DCD    134217881
        0x0001abd8:    0800009d    ....    DCD    134217885
    __tagsym$$used.7
    sGlobalAccess
        0x0001abdc:    0001acd8    ....    DCD    109784
        0x0001abe0:    0001acc4    ....    DCD    109764
        0x0001abe4:    0001ac9c    ....    DCD    109724
        0x0001abe8:    0001acb0    ....    DCD    109744
        0x0001abec:    10060004    ....    DCD    268828676
        0x0001abf0:    10060018    ....    DCD    268828696
        0x0001abf4:    1006002c    ,...    DCD    268828716
    .L.str.2
        0x0001abf8:    65736552    Rese    DCD    1702061394
        0x0001abfc:    6e697474    ttin    DCD    1852404852
        0x0001ac00:    434d2067    g MC    DCD    1129128039
        0x0001ac04:    68772055    U wh    DCD    1752637525
        0x0001ac08:    77206e65    en w    DCD    1998614117
        0x0001ac0c:    68637461    atch    DCD    1751348321
        0x0001ac10:    20676f64    dog     DCD    543649636
        0x0001ac14:    69707865    expi    DCD    1768978533
        0x0001ac18:    2e736572    res.    DCD    779314546
        0x0001ac1c:    000a2e2e    ....    DCD    667182
    .L.str.3
        0x0001ac20:    63746157    Watc    DCD    1668571479
        0x0001ac24:    676f6468    hdog    DCD    1735353448
        0x0001ac28:    61784520     Exa    DCD    1635271968
        0x0001ac2c:    656c706d    mple    DCD    1701605485
        0x0001ac30:    0a2e        ..      DCW    2606
        0x0001ac32:    00          .       DCB    0
    .L.str.1
        0x0001ac33:    0a          .       DCB    10
        0x0001ac34:    6f6c6c41    Allo    DCD    1869376577
        0x0001ac38:    676e6977    wing    DCD    1735289207
        0x0001ac3c:    74617720     wat    DCD    1952544544
        0x0001ac40:    6f646863    chdo    DCD    1868851299
        0x0001ac44:    6f742067    g to    DCD    1869881447
        0x0001ac48:    65656b20     kee    DCD    1701145376
        0x0001ac4c:    75722070    p ru    DCD    1970413680
        0x0001ac50:    6e696e6e    nnin    DCD    1852403310
        0x0001ac54:    000a2e67    g...    DCD    667239
    .L.str
        0x0001ac58:    65746e49    Inte    DCD    1702129225
        0x0001ac5c:    70757272    rrup    DCD    1886745202
        0x0001ac60:    3a232074    t #:    DCD    975380596
        0x0001ac64:    0a642520     %d.    DCD    174335264
        0x0001ac68:    00          .       DCB    0
    .L.str.4
        0x0001ac69:    526573      Res     DCB    82,101,115
        0x0001ac6c:    53207465    et S    DCD    1394635877
        0x0001ac70:    75746174    tatu    DCD    1970561396
        0x0001ac74:    65522073    s Re    DCD    1699881075
        0x0001ac78:    74736967    gist    DCD    1953720679
        0x0001ac7c:    3d207265    er =    DCD    1025536613
        0x0001ac80:    25783020     0x%    DCD    628633632
        0x0001ac84:    0a78        x.      DCW    2680
        0x0001ac86:    00          .       DCB    0
    .L.str
        0x0001ac87:    0a          .       DCB    10
        0x0001ac88:    0a0a0a0a    ....    DCD    168430090
        0x0001ac8c:    0a0a0a0a    ....    DCD    168430090
        0x0001ac90:    0a0a0a0a    ....    DCD    168430090
        0x0001ac94:    0a0a0a0a    ....    DCD    168430090
        0x0001ac98:    0000000a    ....    DCD    10
    __tagsym$$used.1
    ui32DSP0Allowed
        0x0001ac9c:    00000000    ....    DCD    0
        0x0001aca0:    00000000    ....    DCD    0
        0x0001aca4:    00000000    ....    DCD    0
        0x0001aca8:    00000000    ....    DCD    0
        0x0001acac:    00000000    ....    DCD    0
    __tagsym$$used.2
    ui32DSP1Allowed
        0x0001acb0:    00000000    ....    DCD    0
        0x0001acb4:    00000000    ....    DCD    0
        0x0001acb8:    00000000    ....    DCD    0
        0x0001acbc:    00000000    ....    DCD    0
        0x0001acc0:    00000000    ....    DCD    0
    __tagsym$$used.0
    ui32MCUAllowed
        0x0001acc4:    00000000    ....    DCD    0
        0x0001acc8:    00000000    ....    DCD    0
        0x0001accc:    00000000    ....    DCD    0
        0x0001acd0:    00000000    ....    DCD    0
        0x0001acd4:    00000000    ....    DCD    0
    __tagsym$$used.3
    ui32SharedAccess
        0x0001acd8:    00000000    ....    DCD    0
        0x0001acdc:    00000000    ....    DCD    0
        0x0001ace0:    00000000    ....    DCD    0
        0x0001ace4:    00000000    ....    DCD    0
        0x0001ace8:    00000000    ....    DCD    0
    Region$$Table$$Base
        0x0001acec:    0001ad20     ...    DCD    109856
        0x0001acf0:    10000000    ....    DCD    268435456
        0x0001acf4:    00000058    X...    DCD    88
        0x0001acf8:    00018270    p...    DCD    98928
        0x0001acfc:    0001ad78    x...    DCD    109944
        0x0001ad00:    10060000    ....    DCD    268828672
        0x0001ad04:    00000040    @...    DCD    64
        0x0001ad08:    00018270    p...    DCD    98928
        0x0001ad0c:    0001ad78    x...    DCD    109944
        0x0001ad10:    10000058    X...    DCD    268435544
        0x0001ad14:    00001698    ....    DCD    5784
        0x0001ad18:    0001828c    ....    DCD    98956
    Region$$Table$$Limit

** Section #2 'MCU_TCM' (SHT_PROGBITS) [SHF_ALLOC + SHF_WRITE]
    Size   : 88 bytes (alignment 8)
    Address: 0x10000000

    0x10000000:   0c 00 00 00 04 00 00 00 0f 00 00 00 04 00 00 00    ................
    0x10000010:   10 00 00 00 04 00 00 00 00 01 02 00 01 00 00 00    ................
    0x10000020:   92 24 01 80 20 01 00 00 6d db 02 40 d1 02 00 00    .$.. ...m..@....
    0x10000030:   02 04 00 00 01 00 00 00 02 01 00 00 0c 00 00 00    ................
    0x10000040:   01 00 00 00 f0 00 00 00 ff ff ff ff ff ff ff ff    ................
    0x10000050:   08 1e 0c 40 18 1e 0c 40                            ...@...@


** Section #3 'MCU_TCM' (SHT_NOBITS) [SHF_ALLOC + SHF_WRITE]
    Size   : 5784 bytes (alignment 8)
    Address: 0x10000058


** Section #4 'SHARED_SRAM' (SHT_PROGBITS) [SHF_ALLOC + SHF_WRITE]
    Size   : 64 bytes (alignment 4)
    Address: 0x10060000

    0x10060000:   dc ab 01 00 00 00 00 00 00 00 00 00 00 00 00 00    ................
    0x10060010:   00 00 00 00 00 00 00 00 00 00 00 00 00 00 00 00    ................
    0x10060020:   00 00 00 00 00 00 00 00 00 00 00 00 00 00 00 00    ................
    0x10060030:   00 00 00 00 00 00 00 00 00 00 00 00 00 00 00 00    ................


** Section #5 '.debug_abbrev' (SHT_PROGBITS)
    Size   : 1487 bytes


** Section #6 '.debug_frame' (SHT_PROGBITS)
    Size   : 5000 bytes


** Section #7 '.debug_info' (SHT_PROGBITS)
    Size   : 6876 bytes


** Section #8 '.debug_line' (SHT_PROGBITS)
    Size   : 6902 bytes


** Section #9 '.debug_str' (SHT_PROGBITS)
    Size   : 6320 bytes


** Section #10 '.debug_ranges' (SHT_PROGBITS)
    Size   : 352 bytes


** Section #11 '.symtab' (SHT_SYMTAB)
    Size   : 7728 bytes (alignment 4)
    String table #12 '.strtab'
    Last local symbol no. 235

    Symbol table .symtab (482 symbols, 235 local)

      #  Symbol Name                Value      Bind  Sec  Type  Vis  Size
    ========================================================================

      1  $d                         0x00018000   Lc    1   --   De 
      2  $t                         0x00018200   Lc    1   --   De 
      3  $d                         0x00018230   Lc    1   --   De 
      4  $t                         0x00018234   Lc    1   --   De 
      5  $d                         0x00018268   Lc    1   --   De 
      6  $t                         0x00018270   Lc    1   --   De 
      7  $d                         0x000182de   Lc    1   --   De 
      8  $t                         0x000182ec   Lc    1   --   De 
      9  $d                         0x00018354   Lc    1   --   De 
     10  $t                         0x00018358   Lc    1   --   De 
     11  $d                         0x00018360   Lc    1   --   De 
     12  $t                         0x00018364   Lc    1   --   De 
     13  $t.0                       0x00018368   Lc    1   --   De 
     14  $d.4                       0x00018388   Lc    1   --   De 
     15  $t.17                      0x0001838c   Lc    1   --   De 
     16  $d.9                       0x000187c8   Lc    1   --   De 
     17  $t.10                      0x000187cc   Lc    1   --   De 
     18  $d.2                       0x00018b84   Lc    1   --   De 
     19  $t.5                       0x00018b94   Lc    1   --   De 
     20  $d.6                       0x00018ba4   Lc    1   --   De 
     21  $t.7                       0x00018baa   Lc    1   --   De 
     22  $d.20                      0x00018d92   Lc    1   --   De 
     23  $t.21                      0x00018d96   Lc    1   --   De 
     24  $d.3                       0x00019168   Lc    1   --   De 
     25  $t.4                       0x00019170   Lc    1   --   De 
     26  $d.7                       0x00019476   Lc    1   --   De 
     27  $t.8                       0x0001947a   Lc    1   --   De 
     28  $d.4                       0x00019a5a   Lc    1   --   De 
     29  $t.5                       0x00019ac0   Lc    1   --   De 
     30  $t                         0x0001a8d0   Lc    1   --   De 
     31  $d                         0x0001a920   Lc    1   --   De 
     32  $t                         0x0001a924   Lc    1   --   De 
     33  $d                         0x0001a9a2   Lc    1   --   De 
     34  $t                         0x0001a9a6   Lc    1   --   De 
     35  $d.realdata                0x0001a9f2   Lc    1   --   De 
     36  $d.realdata                0x10000000   Lc    2   --   De 
     37  $d.realdata                0x10060000   Lc    4   --   De 
     38  am_resources.c             0x00000000   Lc  Abs  File  De 
     39  __tagsym$$used.0           0x0001acc4   Lc    1   --   De 
     40  __tagsym$$used.1           0x0001ac9c   Lc    1   --   De 
     41  __tagsym$$used.2           0x0001acb0   Lc    1   --   De 
     42  __tagsym$$used.3           0x0001acd8   Lc    1   --   De 
     43  __tagsym$$used.4           0x10060004   Lc    4   --   De 
     44  __tagsym$$used.5           0x10060018   Lc    4   --   De 
     45  __tagsym$$used.6           0x1006002c   Lc    4   --   De 
     46  __tagsym$$used.7           0x0001abdc   Lc    1   --   De 
     47  __tagsym$$used.8           0x10060000   Lc    4   --   De 
     48  watchdog.c                 0x00000000   Lc  Abs  File  De 
     49  __NVIC_SetPriority         0x000183f1   Lc    1  Code  De   0x42
     50  __NVIC_EnableIRQ           0x000183c1   Lc    1  Code  De   0x30
     51  .L.str.2                   0x0001abf8   Lc    1  Data  De   0x28
     52  .L.str.3                   0x0001ac20   Lc    1  Data  De   0x13
     53  .L.str.1                   0x0001ac33   Lc    1  Data  De   0x25
     54  .L.str                     0x0001ac58   Lc    1  Data  De   0x11
     55  .L.str.4                   0x0001ac69   Lc    1  Data  De   0x1e
     56  am_util_delay.c            0x00000000   Lc  Abs  File  De 
     57  am_util_faultisr.c         0x00000000   Lc  Abs  File  De 
     58  am_util_stdio.c            0x00000000   Lc  Abs  File  De 
     59  decstr_to_int              0x0001a19d   Lc    1  Code  De   0xa6
     60  simple_strlen              0x0001a751   Lc    1  Code  De   0x36
     61  padbuffer                  0x0001a701   Lc    1  Code  De   0x50
     62  ndigits_in_hex             0x0001a655   Lc    1  Code  De   0x3e
     63  uint64_to_hexstr           0x0001a789   Lc    1  Code  De   0xc0
     64  ndigits_in_u64             0x0001a6c5   Lc    1  Code  De   0x3c
     65  uint64_to_str              0x0001a849   Lc    1  Code  De   0x88
     66  ndigits_in_i64             0x0001a695   Lc    1  Code  De   0x30
     67  ftoa                       0x0001a35d   Lc    1  Code  De   0x230
     68  divu64_10                  0x0001a245   Lc    1  Code  De   0x118
     69  g_bTxtXlate                0x100002c2   Lc    3  Data  De   0x1
     70  g_prfbuf                   0x100002e4   Lc    3  Data  De   0x400
     71  .L.str                     0x0001ac87   Lc    1  Data  De   0x13
     72  am_devices_led.c           0x00000000   Lc  Abs  File  De 
     73  ../keil6/startup_keil6.s   0x00000000   Lc  Abs  File  De 
     74  STACK                      0x100006f0   Lc    3  Sect  De   0x1000
     75  StackMem                   0x100006f0   Lc    3  Data  De 
     76  HEAP                       0x100006f0   Lc    3  Sect  De 
     77  HeapMem                    0x100006f0   Lc    3  Data  De 
     78  RESET                      0x00018000   Lc    1  Sect  De   0x234
     79  $v0                        0x00018200   Lc    1   --   De 
     80  am_cryptosec_isr           0x0001822f   Lc    1  Code  De 
     81  am_default_isr             0x0001822f   Lc    1  Code  De   0x2
     82  .text                      0x000182d4   Lc    1  Sect  De   0x18
     83  $v0                        0x000182d4   Lc    1   --   De 
     84  am_hal_cachectrl.c         0x00000000   Lc  Abs  File  De 
     85  am_hal_fault.c             0x00000000   Lc  Abs  File  De 
     86  am_hal_interrupt.c         0x00000000   Lc  Abs  File  De 
     87  am_hal_reset.c             0x00000000   Lc  Abs  File  De 
     88  am_hal_sysctrl.c           0x00000000   Lc  Abs  File  De 
     89  am_hal_utils.c             0x00000000   Lc  Abs  File  De 
     90  am_hal_gpio.c              0x00000000   Lc  Abs  File  De 
     91  g_ui32DSpintbl             0x00018b84   Lc    1   --   De 
     92  g_ui32RMpintbl             0x0001ab98   Lc    1  Data  De   0x10
     93  am_hal_wdt.c               0x00000000   Lc  Abs  File  De 
     94  am_bsp.c                   0x00000000   Lc  Abs  File  De 
     95  g_ePrintInterface          0x100002c3   Lc    3  Data  De   0x1
     96  am_hal_bootrom_helper.c    0x00000000   Lc  Abs  File  De 
     97  am_hal_itm.c               0x00000000   Lc  Abs  File  De 
     98  am_hal_rtc.c               0x00000000   Lc  Abs  File  De 
     99  am_hal_tpiu.c              0x00000000   Lc  Abs  File  De 
    100  am_hal_uart.c              0x00000000   Lc  Abs  File  De 
    101  am_hal_dcu.c               0x00000000   Lc  Abs  File  De 
    102  am_hal_pin.c               0x00000000   Lc  Abs  File  De 
    103  am_hal_pwrctrl.c           0x00000000   Lc  Abs  File  De 
    104  TrimVersionGet             0x0001838d   Lc    1  Code  De   0x32
    105  g_bBoostForCryptoApplied   0x100002c0   Lc    3  Data  De   0x1
    106  g_i32LatestVddfActTrim     0x100002c8   Lc    3  Data  De   0x4
    107  g_i32LatestLDOActTrim      0x100002c4   Lc    3  Data  De   0x4
    108  g_ui32VDDFAdjustCodes      0x100006e8   Lc    3  Data  De   0x4
    109  g_bOrigTrimsStored         0x100002c1   Lc    3  Data  De   0x1
    110  g_orig_ACTTRIMVDDF         0x100002cc   Lc    3  Data  De   0x4
    111  g_orig_MEMLDOACTIVETRIM    0x100002d4   Lc    3  Data  De   0x4
    112  g_orig_LPTRIMVDDF          0x100002d0   Lc    3  Data  De   0x4
    113  g_orig_MEMLPLDOTRIM        0x100002d8   Lc    3  Data  De   0x4
    114  g_orig_TVRGVREFTRIM        0x100002dc   Lc    3  Data  De   0x4
    115  am_bsp_pins.c              0x00000000   Lc  Abs  File  De 
    116  am_hal_mram.c              0x00000000   Lc  Abs  File  De 
    117  am_hal_queue.c             0x00000000   Lc  Abs  File  De 
    118  dc.s                       0x00000000   Lc  Abs  File  De 
    119  ../clib/heapaux.c          0x00000000   Lc  Abs  File  De 
    120  .text                      0x000182ec   Lc    1  Sect  De 
    121  ../clib/angel/startup.s    0x00000000   Lc  Abs  File  De 
    122  !!!main                    0x00018234   Lc    1  Sect  De   0x8
    123  ../clib/angel/handlers.s   0x00000000   Lc  Abs  File  De 
    124  !!handler_copy             0x00018270   Lc    1  Sect  De   0x1a
    125  ../fplib/d2f.s             0x00000000   Lc  Abs  File  De 
    126  x$fpl$d2f                  0x0001a8d0   Lc    1  Sect  De   0x62
    127  $v0                        0x0001a8d0   Lc    1   --   De 
    128  ../clib/angel/kernel.s     0x00000000   Lc  Abs  File  De 
    129  .ARM.Collect$$rtentry$$00000000
                                    0x000182b4   Lc    1  Sect  De 
    130  ../fplib/dnaninf.s         0x00000000   Lc  Abs  File  De 
    131  x$fpl$dnaninf              0x0001a932   Lc    1  Sect  De   0x9c
    132  $v0                        0x0001a932   Lc    1   --   De 
    133  ../fplib/fretinf.s         0x00000000   Lc  Abs  File  De 
    134  x$fpl$fretinf              0x0001a9e8   Lc    1  Sect  De   0xa
    135  $v0                        0x0001a9e8   Lc    1   --   De 
    136  ../fplib/usenofp.s         0x00000000   Lc  Abs  File  De 
    137  x$fpl$usenofp              0x0001a9f2   Lc    1  Sect  De 
    138  ../clib/angel/kernel.s     0x00000000   Lc  Abs  File  De 
    139  .ARM.Collect$$rtentry$$00000002
                                    0x000182b4   Lc    1  Sect  De 
    140  .ARM.Collect$$rtentry$$00000009
                                    0x000182ba   Lc    1  Sect  De 
    141  .ARM.Collect$$rtentry$$0000000A
                                    0x000182ba   Lc    1  Sect  De   0x4
    142  .ARM.Collect$$rtentry$$0000000C
                                    0x000182be   Lc    1  Sect  De 
    143  .ARM.Collect$$rtentry$$0000000D
                                    0x000182be   Lc    1  Sect  De   0x8
    144  ../clib/angel/kernel.s     0x00000000   Lc  Abs  File  De 
    145  .ARM.Collect$$rtentry$$00000004
                                    0x000182b4   Lc    1  Sect  De   0x6
    146  ../clib/angel/sys.s        0x00000000   Lc  Abs  File  De 
    147  .text                      0x000182f2   Lc    1  Sect  De   0x4a
    148  ../clib/stdlib.c           0x00000000   Lc  Abs  File  De 
    149  .text                      0x0001833c   Lc    1  Sect  De 
    150  ../clib/angel/boardlib.s   0x00000000   Lc  Abs  File  De 
    151  ../clib/angel/boardlib.s   0x00000000   Lc  Abs  File  De 
    152  ../clib/angel/boardlib.s   0x00000000   Lc  Abs  File  De 
    153  ../clib/libinit.s          0x00000000   Lc  Abs  File  De 
    154  .ARM.Collect$$libinit$$00000000
                                    0x000182a8   Lc    1  Sect  De   0x2
    155  ../clib/angel/sys.s        0x00000000   Lc  Abs  File  De 
    156  .text                      0x00018350   Lc    1  Sect  De   0x8
    157  .bss                       0x10000058   Lc    3  Sect  De   0x60
    158  ../clib/angel/kernel.s     0x00000000   Lc  Abs  File  De 
    159  .ARM.Collect$$rtexit$$00000000
                                    0x000182c6   Lc    1  Sect  De   0x2
    160  ../clib/libinit.s          0x00000000   Lc  Abs  File  De 
    161  .ARM.Collect$$libinit$$00000001
                                    0x000182aa   Lc    1  Sect  De   0x4
    162  .ARM.Collect$$libinit$$00000004
                                    0x000182ae   Lc    1  Sect  De 
    163  .ARM.Collect$$libinit$$0000000A
                                    0x000182ae   Lc    1  Sect  De 
    164  .ARM.Collect$$libinit$$0000000C
                                    0x000182ae   Lc    1  Sect  De 
    165  .ARM.Collect$$libinit$$0000000E
                                    0x000182ae   Lc    1  Sect  De 
    166  .ARM.Collect$$libinit$$00000011
                                    0x000182ae   Lc    1  Sect  De 
    167  .ARM.Collect$$libinit$$00000013
                                    0x000182ae   Lc    1  Sect  De 
    168  .ARM.Collect$$libinit$$00000015
                                    0x000182ae   Lc    1  Sect  De 
    169  .ARM.Collect$$libinit$$00000017
                                    0x000182ae   Lc    1  Sect  De 
    170  .ARM.Collect$$libinit$$00000019
                                    0x000182ae   Lc    1  Sect  De 
    171  .ARM.Collect$$libinit$$0000001B
                                    0x000182ae   Lc    1  Sect  De 
    172  .ARM.Collect$$libinit$$0000001D
                                    0x000182ae   Lc    1  Sect  De 
    173  .ARM.Collect$$libinit$$0000001F
                                    0x000182ae   Lc    1  Sect  De 
    174  .ARM.Collect$$libinit$$00000021
                                    0x000182ae   Lc    1  Sect  De 
    175  .ARM.Collect$$libinit$$00000023
                                    0x000182ae   Lc    1  Sect  De 
    176  .ARM.Collect$$libinit$$00000025
                                    0x000182ae   Lc    1  Sect  De 
    177  .ARM.Collect$$libinit$$0000002C
                                    0x000182ae   Lc    1  Sect  De 
    178  .ARM.Collect$$libinit$$0000002E
                                    0x000182ae   Lc    1  Sect  De 
    179  .ARM.Collect$$libinit$$00000030
                                    0x000182ae   Lc    1  Sect  De 
    180  .ARM.Collect$$libinit$$00000032
                                    0x000182ae   Lc    1  Sect  De 
    181  .ARM.Collect$$libinit$$00000033
                                    0x000182ae   Lc    1  Sect  De   0x2
    182  ../clib/angel/kernel.s     0x00000000   Lc  Abs  File  De 
    183  .ARM.Collect$$rtexit$$00000002
                                    0x000182c8   Lc    1  Sect  De 
    184  .ARM.Collect$$rtexit$$00000003
                                    0x000182c8   Lc    1  Sect  De   0x4
    185  .ARM.Collect$$rtexit$$00000004
                                    0x000182cc   Lc    1  Sect  De   0x6
    186  ../clib/armsys.c           0x00000000   Lc  Abs  File  De 
    187  ../clib/armsys.c           0x00000000   Lc  Abs  File  De 
    188  ../fplib/fpinit.s          0x00000000   Lc  Abs  File  De 
    189  x$fpl$fpinit               0x0001a9ce   Lc    1  Sect  De   0x1a
    190  $v0                        0x0001a9ce   Lc    1   --   De 
    191  ../clib/angel/sysapp.c     0x00000000   Lc  Abs  File  De 
    192  .text                      0x00018358   Lc    1  Sect  De 
    193  ../clib/angel/sysapp.c     0x00000000   Lc  Abs  File  De 
    194  ../clib/angel/boardlib.s   0x00000000   Lc  Abs  File  De 
    195  ../clib/armsys.c           0x00000000   Lc  Abs  File  De 
    196  ../clib/armsys.c           0x00000000   Lc  Abs  File  De 
    197  ../clib/libinit.s          0x00000000   Lc  Abs  File  De 
    198  .ARM.Collect$$libshutdown$$00000000
                                    0x000182b0   Lc    1  Sect  De   0x2
    199  ../clib/angel/sysapp.c     0x00000000   Lc  Abs  File  De 
    200  ../clib/angel/sysapp.c     0x00000000   Lc  Abs  File  De 
    201  ../clib/angel/sys.s        0x00000000   Lc  Abs  File  De 
    202  .text                      0x00018364   Lc    1  Sect  De   0x2
    203  ../clib/angel/sys.s        0x00000000   Lc  Abs  File  De 
    204  .text                      0x00018366   Lc    1  Sect  De 
    205  ../clib/heapalloc.c        0x00000000   Lc  Abs  File  De 
    206  ../clib/signal.c           0x00000000   Lc  Abs  File  De 
    207  ../clib/signal.c           0x00000000   Lc  Abs  File  De 
    208  ../clib/libinit.s          0x00000000   Lc  Abs  File  De 
    209  .ARM.Collect$$libshutdown$$00000002
                                    0x000182b2   Lc    1  Sect  De 
    210  .ARM.Collect$$libshutdown$$00000004
                                    0x000182b2   Lc    1  Sect  De 
    211  .ARM.Collect$$libshutdown$$00000007
                                    0x000182b2   Lc    1  Sect  De 
    212  .ARM.Collect$$libshutdown$$0000000A
                                    0x000182b2   Lc    1  Sect  De 
    213  .ARM.Collect$$libshutdown$$0000000C
                                    0x000182b2   Lc    1  Sect  De 
    214  .ARM.Collect$$libshutdown$$0000000F
                                    0x000182b2   Lc    1  Sect  De 
    215  .ARM.Collect$$libshutdown$$00000010
                                    0x000182b2   Lc    1  Sect  De   0x2
    216  ../clib/angel/rt.s         0x00000000   Lc  Abs  File  De 
    217  ../clib/signal.c           0x00000000   Lc  Abs  File  De 
    218  ../clib/signal.c           0x00000000   Lc  Abs  File  De 
    219  ../clib/signal.c           0x00000000   Lc  Abs  File  De 
    220  ../clib/signal.c           0x00000000   Lc  Abs  File  De 
    221  ../clib/angel/sysapp.c     0x00000000   Lc  Abs  File  De 
    222  ../clib/angel/sysapp.c     0x00000000   Lc  Abs  File  De 
    223  ../clib/signal.s           0x00000000   Lc  Abs  File  De 
    224  ../clib/signal.c           0x00000000   Lc  Abs  File  De 
    225  ../clib/signal.c           0x00000000   Lc  Abs  File  De 
    226  ../clib/signal.c           0x00000000   Lc  Abs  File  De 
    227  ../clib/signal.c           0x00000000   Lc  Abs  File  De 
    228  ../clib/signal.c           0x00000000   Lc  Abs  File  De 
    229  ../clib/signal.c           0x00000000   Lc  Abs  File  De 
    230  ../clib/signal.c           0x00000000   Lc  Abs  File  De 
    231  ../clib/signal.c           0x00000000   Lc  Abs  File  De 
    232  ../clib/angel/scatter.s    0x00000000   Lc  Abs  File  De 
    233  !!!scatter                 0x0001823c   Lc    1  Sect  De   0x34
    234  ../clib/angel/handlers.s   0x00000000   Lc  Abs  File  De 
    235  !!handler_zi               0x0001828c   Lc    1  Sect  De   0x1c
    236  BuildAttributes$$THM_ISAv4$E$P$D$K$B$S$7EM$VFPi3$EXTD16$VFPS$VFMA$PE$A:L22UL41UL21$X:L11$S22US41US21$IEEE1$IW$~IW$USESV6$~STKCKD$USESV7$~SHL$OSPACE$ROPI$EBA8$UX$STANDARDLIB$REQ8$PRES8$EABIv2
                                    0x00000000   Gb  Abs   --   Hi 
    237  __Vectors                  0x00018000   Gb    1  Data  Hi 
    238  __Patchable                0x00018190   Gb    1  Data  Hi 
    239  Reset_Handler              0x00018201   Wk    1  Code  Hi   0x1c
    240  NMI_Handler                0x0001821f   Wk    1  Code  Hi   0x2
    241  MemManage_Handler          0x00018221   Wk    1  Code  Hi   0x2
    242  BusFault_Handler           0x00018223   Wk    1  Code  Hi   0x2
    243  UsageFault_Handler         0x00018225   Wk    1  Code  Hi   0x2
    244  SVC_Handler                0x00018227   Wk    1  Code  Hi   0x2
    245  DebugMon_Handler           0x00018229   Wk    1  Code  Hi   0x2
    246  PendSV_Handler             0x0001822b   Wk    1  Code  Hi   0x2
    247  SysTick_Handler            0x0001822d   Wk    1  Code  Hi   0x2
    248  am_adc_isr                 0x0001822f   Wk    1  Code  Hi 
    249  am_audadc0_isr             0x0001822f   Wk    1  Code  Hi 
    250  am_brownout_isr            0x0001822f   Wk    1  Code  Hi 
    251  am_cachecpu_isr            0x0001822f   Wk    1  Code  Hi 
    252  am_clkgen_isr              0x0001822f   Wk    1  Code  Hi 
    253  am_ctimer_isr              0x0001822f   Wk    1  Code  Hi 
    254  am_disp_isr                0x0001822f   Wk    1  Code  Hi 
    255  am_dsi_isr                 0x0001822f   Wk    1  Code  Hi 
    256  am_dspi2s0_isr             0x0001822f   Wk    1  Code  Hi 
    257  am_dspi2s1_isr             0x0001822f   Wk    1  Code  Hi 
    258  am_dspi2s2_isr             0x0001822f   Wk    1  Code  Hi 
    259  am_dspi2s3_isr             0x0001822f   Wk    1  Code  Hi 
    260  am_gpio0_001f_isr          0x0001822f   Wk    1  Code  Hi 
    261  am_gpio0_203f_isr          0x0001822f   Wk    1  Code  Hi 
    262  am_gpio0_405f_isr          0x0001822f   Wk    1  Code  Hi 
    263  am_gpio0_607f_isr          0x0001822f   Wk    1  Code  Hi 
    264  am_gpio1_001f_isr          0x0001822f   Wk    1  Code  Hi 
    265  am_gpio1_203f_isr          0x0001822f   Wk    1  Code  Hi 
    266  am_gpio1_405f_isr          0x0001822f   Wk    1  Code  Hi 
    267  am_gpio1_607f_isr          0x0001822f   Wk    1  Code  Hi 
    268  am_gpu_isr                 0x0001822f   Wk    1  Code  Hi 
    269  am_iomaster0_isr           0x0001822f   Wk    1  Code  Hi 
    270  am_iomaster1_isr           0x0001822f   Wk    1  Code  Hi 
    271  am_iomaster2_isr           0x0001822f   Wk    1  Code  Hi 
    272  am_iomaster3_isr           0x0001822f   Wk    1  Code  Hi 
    273  am_iomaster4_isr           0x0001822f   Wk    1  Code  Hi 
    274  am_iomaster5_isr           0x0001822f   Wk    1  Code  Hi 
    275  am_iomaster6_isr           0x0001822f   Wk    1  Code  Hi 
    276  am_iomaster7_isr           0x0001822f   Wk    1  Code  Hi 
    277  am_ioslave_acc_isr         0x0001822f   Wk    1  Code  Hi 
    278  am_ioslave_ios_isr         0x0001822f   Wk    1  Code  Hi 
    279  am_mspi0_isr               0x0001822f   Wk    1  Code  Hi 
    280  am_mspi1_isr               0x0001822f   Wk    1  Code  Hi 
    281  am_mspi2_isr               0x0001822f   Wk    1  Code  Hi 
    282  am_pdm0_isr                0x0001822f   Wk    1  Code  Hi 
    283  am_pdm1_isr                0x0001822f   Wk    1  Code  Hi 
    284  am_pdm2_isr                0x0001822f   Wk    1  Code  Hi 
    285  am_pdm3_isr                0x0001822f   Wk    1  Code  Hi 
    286  am_rtc_isr                 0x0001822f   Wk    1  Code  Hi 
    287  am_sdio_isr                0x0001822f   Wk    1  Code  Hi 
    288  am_stimer_cmpr0_isr        0x0001822f   Wk    1  Code  Hi 
    289  am_stimer_cmpr1_isr        0x0001822f   Wk    1  Code  Hi 
    290  am_stimer_cmpr2_isr        0x0001822f   Wk    1  Code  Hi 
    291  am_stimer_cmpr3_isr        0x0001822f   Wk    1  Code  Hi 
    292  am_stimer_cmpr4_isr        0x0001822f   Wk    1  Code  Hi 
    293  am_stimer_cmpr5_isr        0x0001822f   Wk    1  Code  Hi 
    294  am_stimer_cmpr6_isr        0x0001822f   Wk    1  Code  Hi 
    295  am_stimer_cmpr7_isr        0x0001822f   Wk    1  Code  Hi 
    296  am_stimerof_isr            0x0001822f   Wk    1  Code  Hi 
    297  am_timer00_isr             0x0001822f   Wk    1  Code  Hi 
    298  am_timer01_isr             0x0001822f   Wk    1  Code  Hi 
    299  am_timer02_isr             0x0001822f   Wk    1  Code  Hi 
    300  am_timer03_isr             0x0001822f   Wk    1  Code  Hi 
    301  am_timer04_isr             0x0001822f   Wk    1  Code  Hi 
    302  am_timer05_isr             0x0001822f   Wk    1  Code  Hi 
    303  am_timer06_isr             0x0001822f   Wk    1  Code  Hi 
    304  am_timer07_isr             0x0001822f   Wk    1  Code  Hi 
    305  am_timer08_isr             0x0001822f   Wk    1  Code  Hi 
    306  am_timer09_isr             0x0001822f   Wk    1  Code  Hi 
    307  am_timer10_isr             0x0001822f   Wk    1  Code  Hi 
    308  am_timer11_isr             0x0001822f   Wk    1  Code  Hi 
    309  am_timer12_isr             0x0001822f   Wk    1  Code  Hi 
    310  am_timer13_isr             0x0001822f   Wk    1  Code  Hi 
    311  am_timer14_isr             0x0001822f   Wk    1  Code  Hi 
    312  am_timer15_isr             0x0001822f   Wk    1  Code  Hi 
    313  am_uart1_isr               0x0001822f   Wk    1  Code  Hi 
    314  am_uart2_isr               0x0001822f   Wk    1  Code  Hi 
    315  am_uart3_isr               0x0001822f   Wk    1  Code  Hi 
    316  am_uart_isr                0x0001822f   Wk    1  Code  Hi 
    317  am_usb_isr                 0x0001822f   Wk    1  Code  Hi 
    318  am_vcomp_isr               0x0001822f   Wk    1  Code  Hi 
    319  __main                     0x00018235   Gb    1  Code  Hi   0x8
    320  __scatterload              0x0001823d   Gb    1  Code  Hi 
    321  __scatterload_rt2          0x0001823d   Gb    1  Code  Hi   0x2c
    322  __scatterload_rt2_thumb_only
                                    0x0001823d   Gb    1  Code  Hi 
    323  __scatterload_null         0x0001824b   Gb    1  Code  Hi 
    324  __scatterload_copy         0x00018271   Gb    1  Code  Hi   0x1a
    325  __scatterload_zeroinit     0x0001828d   Gb    1  Code  Hi   0x1c
    326  __rt_lib_init              0x000182a9   Gb    1  Code  De 
    327  __rt_lib_init_fp_1         0x000182ab   Gb    1  Code  Hi 
    328  __rt_lib_init_alloca_1     0x000182af   Gb    1  Code  Hi 
    329  __rt_lib_init_argv_1       0x000182af   Gb    1  Code  Hi 
    330  __rt_lib_init_atexit_1     0x000182af   Gb    1  Code  Hi 
    331  __rt_lib_init_clock_1      0x000182af   Gb    1  Code  Hi 
    332  __rt_lib_init_cpp_1        0x000182af   Gb    1  Code  Hi 
    333  __rt_lib_init_exceptions_1 0x000182af   Gb    1  Code  Hi 
    334  __rt_lib_init_fp_trap_1    0x000182af   Gb    1  Code  Hi 
    335  __rt_lib_init_getenv_1     0x000182af   Gb    1  Code  Hi 
    336  __rt_lib_init_heap_1       0x000182af   Gb    1  Code  Hi 
    337  __rt_lib_init_lc_collate_1 0x000182af   Gb    1  Code  Hi 
    338  __rt_lib_init_lc_ctype_1   0x000182af   Gb    1  Code  Hi 
    339  __rt_lib_init_lc_monetary_1
                                    0x000182af   Gb    1  Code  Hi 
    340  __rt_lib_init_lc_numeric_1 0x000182af   Gb    1  Code  Hi 
    341  __rt_lib_init_lc_time_1    0x000182af   Gb    1  Code  Hi 
    342  __rt_lib_init_preinit_1    0x000182af   Gb    1  Code  Hi 
    343  __rt_lib_init_rand_1       0x000182af   Gb    1  Code  Hi 
    344  __rt_lib_init_return       0x000182af   Gb    1  Code  Hi 
    345  __rt_lib_init_signal_1     0x000182af   Gb    1  Code  Hi 
    346  __rt_lib_init_stdio_1      0x000182af   Gb    1  Code  Hi 
    347  __rt_lib_init_user_alloc_1 0x000182af   Gb    1  Code  Hi 
    348  __rt_lib_shutdown          0x000182b1   Gb    1  Code  De 
    349  __rt_lib_shutdown_cpp_1    0x000182b3   Gb    1  Code  Hi 
    350  __rt_lib_shutdown_fp_trap_1
                                    0x000182b3   Gb    1  Code  Hi 
    351  __rt_lib_shutdown_heap_1   0x000182b3   Gb    1  Code  Hi 
    352  __rt_lib_shutdown_return   0x000182b3   Gb    1  Code  Hi 
    353  __rt_lib_shutdown_signal_1 0x000182b3   Gb    1  Code  Hi 
    354  __rt_lib_shutdown_stdio_1  0x000182b3   Gb    1  Code  Hi 
    355  __rt_lib_shutdown_user_alloc_1
                                    0x000182b3   Gb    1  Code  Hi 
    356  __rt_entry                 0x000182b5   Gb    1  Code  Hi 
    357  __rt_entry_presh_1         0x000182b5   Gb    1  Code  Hi 
    358  __rt_entry_sh              0x000182b5   Gb    1  Code  Hi 
    359  __rt_entry_li              0x000182bb   Gb    1  Code  Hi 
    360  __rt_entry_postsh_1        0x000182bb   Gb    1  Code  Hi 
    361  __rt_entry_main            0x000182bf   Gb    1  Code  Hi 
    362  __rt_entry_postli_1        0x000182bf   Gb    1  Code  Hi 
    363  __rt_exit                  0x000182c7   Gb    1  Code  De 
    364  __rt_exit_ls               0x000182c9   Gb    1  Code  Hi 
    365  __rt_exit_prels_1          0x000182c9   Gb    1  Code  Hi 
    366  __rt_exit_exit             0x000182cd   Gb    1  Code  Hi 
    367  __user_initial_stackheap   0x000182d5   Gb    1  Code  Hi   0xa
    368  __use_two_region_memory    0x000182ed   Gb    1  Code  Hi   0x2
    369  __rt_heap_escrow$2region   0x000182ef   Gb    1  Code  De   0x2
    370  __rt_heap_expand$2region   0x000182f1   Gb    1  Code  De   0x2
    371  __user_setup_stackheap     0x000182f3   Gb    1  Code  De   0x4a
    372  exit                       0x0001833d   Gb    1  Code  De   0x12
    373  __user_libspace            0x00018351   Wk    1  Code  De   0x8
    374  __user_perproc_libspace    0x00018351   Wk    1  Code  De 
    375  __user_perthread_libspace  0x00018351   Wk    1  Code  De 
    376  _sys_exit                  0x00018359   Gb    1  Code  De   0x8
    377  __I$use$semihosting        0x00018365   Gb    1  Code  Hi 
    378  __use_no_semihosting_swi   0x00018365   Gb    1  Code  Hi   0x2
    379  __semihosting_library_function
                                    0x00018367   Gb    1  Code  Hi 
    380  HardFault_Handler          0x00018369   Gb    1  Code  Hi   0x1e
    381  am_bsp_itm_printf_enable   0x00018433   Gb    1  Code  Hi   0x94
    382  am_bsp_low_power_init      0x000184c7   Gb    1  Code  Hi   0x16
    383  am_devices_led_array_init  0x000184dd   Gb    1  Code  Hi   0x42
    384  am_devices_led_init        0x00018521   Gb    1  Code  Hi   0xba
    385  am_devices_led_off         0x000185dd   Gb    1  Code  Hi   0x8a
    386  am_devices_led_on          0x00018669   Gb    1  Code  Hi   0x8a
    387  am_hal_cachectrl_config    0x000186f3   Gb    1  Code  Hi   0x44
    388  am_hal_cachectrl_enable    0x00018737   Gb    1  Code  Hi   0x1e
    389  am_hal_daxi_config         0x00018755   Gb    1  Code  Hi   0x66
    390  am_hal_daxi_control        0x000187bd   Gb    1  Code  Hi   0x98
    391  am_hal_dcu_get             0x00018855   Gb    1  Code  Hi   0x9a
    392  am_hal_dcu_update          0x000188f1   Gb    1  Code  Hi   0xec
    393  am_hal_delay_us            0x000189dd   Gb    1  Code  Hi   0x36
    394  am_hal_delay_us_status_change
                                    0x00018a15   Gb    1  Code  Hi   0x54
    395  am_hal_delay_us_status_check
                                    0x00018a69   Gb    1  Code  Hi   0x62
    396  am_hal_fault_status_get    0x00018acb   Gb    1  Code  Hi   0x3a
    397  am_hal_gpio_pinconfig      0x00018b05   Gb    1  Code  Hi   0x80
    398  am_hal_gpio_state_write    0x00018b95   Gb    1  Code  Hi   0x100
    399  am_hal_interrupt_master_disable
                                    0x00018c95   Gb    1  Code  Hi   0x8
    400  am_hal_interrupt_master_enable
                                    0x00018c9d   Gb    1  Code  Hi   0x8
    401  am_hal_interrupt_master_set
                                    0x00018ca5   Gb    1  Code  Hi   0x6
    402  am_hal_itm_enable          0x00018cad   Gb    1  Code  Hi   0x42
    403  am_hal_itm_print           0x00018cf1   Gb    1  Code  Hi   0x2e
    404  am_hal_mram_info_read      0x00018d21   Gb    1  Code  Hi   0x60
    405  am_hal_pwrctrl_control     0x00018d81   Gb    1  Code  Hi   0x1c0
    406  am_hal_pwrctrl_low_power_init
                                    0x00018f41   Gb    1  Code  Hi   0x160
    407  am_hal_pwrctrl_mcu_memory_config
                                    0x000190a1   Gb    1  Code  Hi   0xfa
    408  am_hal_pwrctrl_mcu_mode_select
                                    0x0001919d   Gb    1  Code  Hi   0x72
    409  am_hal_pwrctrl_mcu_mode_status
                                    0x0001920f   Gb    1  Code  Hi   0x16
    410  am_hal_pwrctrl_periph_disable
                                    0x00019225   Gb    1  Code  Hi   0x120
    411  am_hal_pwrctrl_periph_enable
                                    0x00019345   Gb    1  Code  Hi   0xb2
    412  am_hal_pwrctrl_sram_config 0x000193f9   Gb    1  Code  Hi   0xb0
    413  am_hal_reset_status_get    0x000194a9   Gb    1  Code  Hi   0x78
    414  am_hal_rtc_osc_disable     0x00019521   Gb    1  Code  Hi   0x14
    415  am_hal_sysctrl_sleep       0x00019535   Gb    1  Code  Hi   0x130
    416  am_hal_tpiu_enable         0x00019665   Gb    1  Code  Hi   0x6c
    417  am_hal_wdt_config          0x000196d1   Gb    1  Code  Hi   0x4e
    418  am_hal_wdt_interrupt_clear 0x0001971f   Gb    1  Code  Hi   0x14
    419  am_hal_wdt_interrupt_enable
                                    0x00019733   Gb    1  Code  Hi   0x18
    420  am_hal_wdt_interrupt_status_get
                                    0x0001974b   Gb    1  Code  Hi   0x2a
    421  am_hal_wdt_restart         0x00019775   Gb    1  Code  Hi   0x16
    422  am_hal_wdt_start           0x0001978b   Gb    1  Code  Hi   0x24
    423  am_util_delay_ms           0x000197b1   Gb    1  Code  Hi   0x16
    424  am_util_faultisr_collect_data
                                    0x000197c9   Gb    1  Code  Hi   0xd6
    425  am_util_stdio_printf       0x000198a1   Gb    1  Code  Hi   0x5c
    426  am_util_stdio_printf_init  0x000198fd   Gb    1  Code  Hi   0x14
    427  am_util_stdio_terminal_clear
                                    0x00019911   Gb    1  Code  Hi   0x10
    428  am_util_stdio_vsprintf     0x00019921   Gb    1  Code  Hi   0x654
    429  am_valid_sp                0x00019f75   Gb    1  Code  Hi   0x30
    430  am_watchdog_isr            0x00019fa5   Gb    1  Code  Hi   0x74
    431  buck_ldo_override_init     0x0001a019   Gb    1  Code  Hi   0x86
    432  buck_ldo_update_override   0x0001a09f   Gb    1  Code  Hi   0x2a
    433  crypto_boost_trims         0x0001a0c9   Gb    1  Code  Hi   0xd4
    434  getStackedReg              0x0001a58d   Gb    1  Code  Hi   0x8
    435  main                       0x0001a595   Gb    1  Code  Hi   0xc0
    436  __aeabi_d2f                0x0001a8d1   Gb    1  Code  De 
    437  _d2f                       0x0001a8d1   Gb    1  Code  De   0x62
    438  __fpl_dnaninf              0x0001a933   Gb    1  Code  De   0x9c
    439  _fp_init                   0x0001a9cf   Gb    1  Code  De   0x1a
    440  __fplib_config_fpu_vfp     0x0001a9e7   Gb    1  Code  De 
    441  __fplib_config_pureend_doubles
                                    0x0001a9e7   Gb    1  Code  De 
    442  __fpl_fretinf              0x0001a9e9   Gb    1  Code  De   0xa
    443  __I$use$fp                 0x0001a9f2   Gb    1   --   De 
    444  am_hal_cachectrl_defaults  0x0001a9f2   Gb    1  Data  Hi   0x3
    445  am_hal_daxi_defaults       0x0001a9f5   Gb    1  Data  Hi   0x5
    446  am_hal_gpio_pincfg_opendrain
                                    0x0001a9fc   Gb    1  Data  Hi   0x4
    447  am_hal_gpio_pincfg_output  0x0001aa00   Gb    1  Data  Hi   0x4
    448  am_hal_gpio_pincfg_tristate
                                    0x0001aa04   Gb    1  Data  Hi   0x4
    449  am_hal_pwrctrl_peripheral_control
                                    0x0001aa08   Gb    1  Data  Hi   0x190
    450  g_DefaultMcuMemCfg         0x0001aba8   Gb    1  Data  Hi   0x6
    451  g_DefaultSRAMCfg           0x0001abae   Gb    1  Data  Hi   0x6
    452  g_am_hal_bootrom_helper    0x0001abb4   Gb    1  Data  Hi   0x28
    453  sGlobalAccess              0x0001abdc   Gb    1  Data  Hi   0x1c
    454  ui32DSP0Allowed            0x0001ac9c   Gb    1  Data  Hi   0x14
    455  ui32DSP1Allowed            0x0001acb0   Gb    1  Data  Hi   0x14
    456  ui32MCUAllowed             0x0001acc4   Gb    1  Data  Hi   0x14
    457  ui32SharedAccess           0x0001acd8   Gb    1  Data  Hi   0x14
    458  Region$$Table$$Base        0x0001acec   Gb    1   --   Hi 
    459  Region$$Table$$Limit       0x0001ad1c   Gb    1   --   Hi 
    460  am_bsp_psLEDs              0x10000000   Gb    2  Data  Hi   0x18
    461  gDaxiConfig                0x10000018   Gb    2  Data  Hi   0x5
    462  gDcuDisable                0x10000020   Gb    2  Data  Hi   0x8
    463  gDcuEnable                 0x10000028   Gb    2  Data  Hi   0x8
    464  g_AM_BSP_GPIO_ITM_SWO      0x10000030   Gb    2  Data  Hi   0x4
    465  g_eCurrPwrMode             0x10000034   Gb    2  Data  Hi   0x1
    466  g_sWatchdogConfig          0x10000038   Gb    2  Data  Hi   0x10
    467  g_ui32TrimVer              0x10000048   Gb    2  Data  Hi   0x4
    468  g_ui32origSimobuckVDDStrim 0x1000004c   Gb    2  Data  Hi   0x4
    469  gpDcuEnable                0x10000050   Gb    2  Data  Hi   0x4
    470  gpDcuLock                  0x10000054   Gb    2  Data  Hi   0x4
    471  __libspace_start           0x10000058   Gb    3  Data  De   0x60
    472  __temporary_stack_top$libspace
                                    0x100000b8   Gb    3  Data  De 
    473  gAmHalResetStatus          0x100000b8   Gb    3  Data  Hi   0x4
    474  gFaultStack                0x100000bc   Gb    3  Data  Hi   0x200
    475  gStartOff                  0x100002bc   Gb    3  Data  Hi   0x4
    476  g_pfnCharPrint             0x100002e0   Gb    3  Data  Hi   0x4
    477  g_ui32ResetStatus          0x100006e4   Gb    3  Data  Hi   0x4
    478  g_ui8NumWatchdogInterrupts 0x100006ec   Gb    3  Data  Hi   0x1
    479  psGlobalAccessPtr          0x10060000   Gb    4  Data  Hi   0x4
    480  ui32MCUClaimed             0x10060004   Gb    4  Data  Hi   0x14
    481  ui32DSP0Claimed            0x10060018   Gb    4  Data  Hi   0x14
    482  ui32DSP1Claimed            0x1006002c   Gb    4  Data  Hi   0x14


** Section #12 '.strtab' (SHT_STRTAB)
    Size   : 7976 bytes

            #  Offset String
        ====================================

            1      1: $d
            2      4: $t
            3      7: $t.0
            4     12: $d.4
            5     17: $t.17
            6     23: $d.9
            7     28: $t.10
            8     34: $d.2
            9     39: $t.5
           10     44: $d.6
           11     49: $t.7
           12     54: $d.20
           13     60: $t.21
           14     66: $d.3
           15     71: $t.4
           16     76: $d.7
           17     81: $t.8
           18     86: $d.realdata
           19     98: am_resources.c
           20    113: __tagsym$$used.0
           21    130: __tagsym$$used.1
           22    147: __tagsym$$used.2
           23    164: __tagsym$$used.3
           24    181: __tagsym$$used.4
           25    198: __tagsym$$used.5
           26    215: __tagsym$$used.6
           27    232: __tagsym$$used.7
           28    249: __tagsym$$used.8
           29    266: watchdog.c
           30    277: __NVIC_SetPriority
           31    296: __NVIC_EnableIRQ
           32    313: .L.str.2
           33    322: .L.str.3
           34    331: .L.str.1
           35    340: .L.str
           36    347: .L.str.4
           37    356: am_util_delay.c
           38    372: am_util_faultisr.c
           39    391: am_util_stdio.c
           40    407: decstr_to_int
           41    421: simple_strlen
           42    435: padbuffer
           43    445: ndigits_in_hex
           44    460: uint64_to_hexstr
           45    477: ndigits_in_u64
           46    492: uint64_to_str
           47    506: ndigits_in_i64
           48    521: ftoa
           49    526: divu64_10
           50    536: g_bTxtXlate
           51    548: g_prfbuf
           52    557: am_devices_led.c
           53    574: ../keil6/startup_keil6.s
           54    599: STACK
           55    605: StackMem
           56    614: HEAP
           57    619: HeapMem
           58    627: RESET
           59    633: $v0
           60    637: am_cryptosec_isr
           61    654: am_default_isr
           62    669: .text
           63    675: am_hal_cachectrl.c
           64    694: am_hal_fault.c
           65    709: am_hal_interrupt.c
           66    728: am_hal_reset.c
           67    743: am_hal_sysctrl.c
           68    760: am_hal_utils.c
           69    775: am_hal_gpio.c
           70    789: g_ui32DSpintbl
           71    804: g_ui32RMpintbl
           72    819: am_hal_wdt.c
           73    832: am_bsp.c
           74    841: g_ePrintInterface
           75    859: am_hal_bootrom_helper.c
           76    883: am_hal_itm.c
           77    896: am_hal_rtc.c
           78    909: am_hal_tpiu.c
           79    923: am_hal_uart.c
           80    937: am_hal_dcu.c
           81    950: am_hal_pin.c
           82    963: am_hal_pwrctrl.c
           83    980: TrimVersionGet
           84    995: g_bBoostForCryptoApplied
           85   1020: g_i32LatestVddfActTrim
           86   1043: g_i32LatestLDOActTrim
           87   1065: g_ui32VDDFAdjustCodes
           88   1087: g_bOrigTrimsStored
           89   1106: g_orig_ACTTRIMVDDF
           90   1125: g_orig_MEMLDOACTIVETRIM
           91   1149: g_orig_LPTRIMVDDF
           92   1167: g_orig_MEMLPLDOTRIM
           93   1187: g_orig_TVRGVREFTRIM
           94   1207: am_bsp_pins.c
           95   1221: am_hal_mram.c
           96   1235: am_hal_queue.c
           97   1250: dc.s
           98   1255: ../clib/heapaux.c
           99   1273: ../clib/angel/startup.s
          100   1297: !!!main
          101   1305: ../clib/angel/handlers.s
          102   1330: !!handler_copy
          103   1345: ../fplib/d2f.s
          104   1360: x$fpl$d2f
          105   1370: ../clib/angel/kernel.s
          106   1393: .ARM.Collect$$rtentry$$00000000
          107   1425: ../fplib/dnaninf.s
          108   1444: x$fpl$dnaninf
          109   1458: ../fplib/fretinf.s
          110   1477: x$fpl$fretinf
          111   1491: ../fplib/usenofp.s
          112   1510: x$fpl$usenofp
          113   1524: .ARM.Collect$$rtentry$$00000002
          114   1556: .ARM.Collect$$rtentry$$00000009
          115   1588: .ARM.Collect$$rtentry$$0000000A
          116   1620: .ARM.Collect$$rtentry$$0000000C
          117   1652: .ARM.Collect$$rtentry$$0000000D
          118   1684: .ARM.Collect$$rtentry$$00000004
          119   1716: ../clib/angel/sys.s
          120   1736: ../clib/stdlib.c
          121   1753: ../clib/angel/boardlib.s
          122   1778: ../clib/libinit.s
          123   1796: .ARM.Collect$$libinit$$00000000
          124   1828: .bss
          125   1833: .ARM.Collect$$rtexit$$00000000
          126   1864: .ARM.Collect$$libinit$$00000001
          127   1896: .ARM.Collect$$libinit$$00000004
          128   1928: .ARM.Collect$$libinit$$0000000A
          129   1960: .ARM.Collect$$libinit$$0000000C
          130   1992: .ARM.Collect$$libinit$$0000000E
          131   2024: .ARM.Collect$$libinit$$00000011
          132   2056: .ARM.Collect$$libinit$$00000013
          133   2088: .ARM.Collect$$libinit$$00000015
          134   2120: .ARM.Collect$$libinit$$00000017
          135   2152: .ARM.Collect$$libinit$$00000019
          136   2184: .ARM.Collect$$libinit$$0000001B
          137   2216: .ARM.Collect$$libinit$$0000001D
          138   2248: .ARM.Collect$$libinit$$0000001F
          139   2280: .ARM.Collect$$libinit$$00000021
          140   2312: .ARM.Collect$$libinit$$00000023
          141   2344: .ARM.Collect$$libinit$$00000025
          142   2376: .ARM.Collect$$libinit$$0000002C
          143   2408: .ARM.Collect$$libinit$$0000002E
          144   2440: .ARM.Collect$$libinit$$00000030
          145   2472: .ARM.Collect$$libinit$$00000032
          146   2504: .ARM.Collect$$libinit$$00000033
          147   2536: .ARM.Collect$$rtexit$$00000002
          148   2567: .ARM.Collect$$rtexit$$00000003
          149   2598: .ARM.Collect$$rtexit$$00000004
          150   2629: ../clib/armsys.c
          151   2646: ../fplib/fpinit.s
          152   2664: x$fpl$fpinit
          153   2677: ../clib/angel/sysapp.c
          154   2700: .ARM.Collect$$libshutdown$$00000000
          155   2736: ../clib/heapalloc.c
          156   2756: ../clib/signal.c
          157   2773: .ARM.Collect$$libshutdown$$00000002
          158   2809: .ARM.Collect$$libshutdown$$00000004
          159   2845: .ARM.Collect$$libshutdown$$00000007
          160   2881: .ARM.Collect$$libshutdown$$0000000A
          161   2917: .ARM.Collect$$libshutdown$$0000000C
          162   2953: .ARM.Collect$$libshutdown$$0000000F
          163   2989: .ARM.Collect$$libshutdown$$00000010
          164   3025: ../clib/angel/rt.s
          165   3044: ../clib/signal.s
          166   3061: ../clib/angel/scatter.s
          167   3085: !!!scatter
          168   3096: !!handler_zi
          169   3109: BuildAttributes$$THM_ISAv4$E$P$D$K$B$S$7EM$VFPi3$EXTD16$VFPS$VFMA$PE$A:L22UL41UL21$X:L11$S22US41US21$IEEE1$IW$~IW$USESV6$~STKCKD$USESV7$~SHL$OSPACE$ROPI$EBA8$UX$STANDARDLIB$REQ8$PRES8$EABIv2
          170   3300: __Vectors
          171   3310: __Patchable
          172   3322: Reset_Handler
          173   3336: NMI_Handler
          174   3348: MemManage_Handler
          175   3366: BusFault_Handler
          176   3383: UsageFault_Handler
          177   3402: SVC_Handler
          178   3414: DebugMon_Handler
          179   3431: PendSV_Handler
          180   3446: SysTick_Handler
          181   3462: am_adc_isr
          182   3473: am_audadc0_isr
          183   3488: am_brownout_isr
          184   3504: am_cachecpu_isr
          185   3520: am_clkgen_isr
          186   3534: am_ctimer_isr
          187   3548: am_disp_isr
          188   3560: am_dsi_isr
          189   3571: am_dspi2s0_isr
          190   3586: am_dspi2s1_isr
          191   3601: am_dspi2s2_isr
          192   3616: am_dspi2s3_isr
          193   3631: am_gpio0_001f_isr
          194   3649: am_gpio0_203f_isr
          195   3667: am_gpio0_405f_isr
          196   3685: am_gpio0_607f_isr
          197   3703: am_gpio1_001f_isr
          198   3721: am_gpio1_203f_isr
          199   3739: am_gpio1_405f_isr
          200   3757: am_gpio1_607f_isr
          201   3775: am_gpu_isr
          202   3786: am_iomaster0_isr
          203   3803: am_iomaster1_isr
          204   3820: am_iomaster2_isr
          205   3837: am_iomaster3_isr
          206   3854: am_iomaster4_isr
          207   3871: am_iomaster5_isr
          208   3888: am_iomaster6_isr
          209   3905: am_iomaster7_isr
          210   3922: am_ioslave_acc_isr
          211   3941: am_ioslave_ios_isr
          212   3960: am_mspi0_isr
          213   3973: am_mspi1_isr
          214   3986: am_mspi2_isr
          215   3999: am_pdm0_isr
          216   4011: am_pdm1_isr
          217   4023: am_pdm2_isr
          218   4035: am_pdm3_isr
          219   4047: am_rtc_isr
          220   4058: am_sdio_isr
          221   4070: am_stimer_cmpr0_isr
          222   4090: am_stimer_cmpr1_isr
          223   4110: am_stimer_cmpr2_isr
          224   4130: am_stimer_cmpr3_isr
          225   4150: am_stimer_cmpr4_isr
          226   4170: am_stimer_cmpr5_isr
          227   4190: am_stimer_cmpr6_isr
          228   4210: am_stimer_cmpr7_isr
          229   4230: am_stimerof_isr
          230   4246: am_timer00_isr
          231   4261: am_timer01_isr
          232   4276: am_timer02_isr
          233   4291: am_timer03_isr
          234   4306: am_timer04_isr
          235   4321: am_timer05_isr
          236   4336: am_timer06_isr
          237   4351: am_timer07_isr
          238   4366: am_timer08_isr
          239   4381: am_timer09_isr
          240   4396: am_timer10_isr
          241   4411: am_timer11_isr
          242   4426: am_timer12_isr
          243   4441: am_timer13_isr
          244   4456: am_timer14_isr
          245   4471: am_timer15_isr
          246   4486: am_uart1_isr
          247   4499: am_uart2_isr
          248   4512: am_uart3_isr
          249   4525: am_uart_isr
          250   4537: am_usb_isr
          251   4548: am_vcomp_isr
          252   4561: __main
          253   4568: __scatterload
          254   4582: __scatterload_rt2
          255   4600: __scatterload_rt2_thumb_only
          256   4629: __scatterload_null
          257   4648: __scatterload_copy
          258   4667: __scatterload_zeroinit
          259   4690: __rt_lib_init
          260   4704: __rt_lib_init_fp_1
          261   4723: __rt_lib_init_alloca_1
          262   4746: __rt_lib_init_argv_1
          263   4767: __rt_lib_init_atexit_1
          264   4790: __rt_lib_init_clock_1
          265   4812: __rt_lib_init_cpp_1
          266   4832: __rt_lib_init_exceptions_1
          267   4859: __rt_lib_init_fp_trap_1
          268   4883: __rt_lib_init_getenv_1
          269   4906: __rt_lib_init_heap_1
          270   4927: __rt_lib_init_lc_collate_1
          271   4954: __rt_lib_init_lc_ctype_1
          272   4979: __rt_lib_init_lc_monetary_1
          273   5007: __rt_lib_init_lc_numeric_1
          274   5034: __rt_lib_init_lc_time_1
          275   5058: __rt_lib_init_preinit_1
          276   5082: __rt_lib_init_rand_1
          277   5103: __rt_lib_init_return
          278   5124: __rt_lib_init_signal_1
          279   5147: __rt_lib_init_stdio_1
          280   5169: __rt_lib_init_user_alloc_1
          281   5196: __rt_lib_shutdown
          282   5214: __rt_lib_shutdown_cpp_1
          283   5238: __rt_lib_shutdown_fp_trap_1
          284   5266: __rt_lib_shutdown_heap_1
          285   5291: __rt_lib_shutdown_return
          286   5316: __rt_lib_shutdown_signal_1
          287   5343: __rt_lib_shutdown_stdio_1
          288   5369: __rt_lib_shutdown_user_alloc_1
          289   5400: __rt_entry
          290   5411: __rt_entry_presh_1
          291   5430: __rt_entry_sh
          292   5444: __rt_entry_li
          293   5458: __rt_entry_postsh_1
          294   5478: __rt_entry_main
          295   5494: __rt_entry_postli_1
          296   5514: __rt_exit
          297   5524: __rt_exit_ls
          298   5537: __rt_exit_prels_1
          299   5555: __rt_exit_exit
          300   5570: __user_initial_stackheap
          301   5595: __use_two_region_memory
          302   5619: __rt_heap_escrow$2region
          303   5644: __rt_heap_expand$2region
          304   5669: __user_setup_stackheap
          305   5692: exit
          306   5697: __user_libspace
          307   5713: __user_perproc_libspace
          308   5737: __user_perthread_libspace
          309   5763: _sys_exit
          310   5773: __I$use$semihosting
          311   5793: __use_no_semihosting_swi
          312   5818: __semihosting_library_function
          313   5849: HardFault_Handler
          314   5867: am_bsp_itm_printf_enable
          315   5892: am_bsp_low_power_init
          316   5914: am_devices_led_array_init
          317   5940: am_devices_led_init
          318   5960: am_devices_led_off
          319   5979: am_devices_led_on
          320   5997: am_hal_cachectrl_config
          321   6021: am_hal_cachectrl_enable
          322   6045: am_hal_daxi_config
          323   6064: am_hal_daxi_control
          324   6084: am_hal_dcu_get
          325   6099: am_hal_dcu_update
          326   6117: am_hal_delay_us
          327   6133: am_hal_delay_us_status_change
          328   6163: am_hal_delay_us_status_check
          329   6192: am_hal_fault_status_get
          330   6216: am_hal_gpio_pinconfig
          331   6238: am_hal_gpio_state_write
          332   6262: am_hal_interrupt_master_disable
          333   6294: am_hal_interrupt_master_enable
          334   6325: am_hal_interrupt_master_set
          335   6353: am_hal_itm_enable
          336   6371: am_hal_itm_print
          337   6388: am_hal_mram_info_read
          338   6410: am_hal_pwrctrl_control
          339   6433: am_hal_pwrctrl_low_power_init
          340   6463: am_hal_pwrctrl_mcu_memory_config
          341   6496: am_hal_pwrctrl_mcu_mode_select
          342   6527: am_hal_pwrctrl_mcu_mode_status
          343   6558: am_hal_pwrctrl_periph_disable
          344   6588: am_hal_pwrctrl_periph_enable
          345   6617: am_hal_pwrctrl_sram_config
          346   6644: am_hal_reset_status_get
          347   6668: am_hal_rtc_osc_disable
          348   6691: am_hal_sysctrl_sleep
          349   6712: am_hal_tpiu_enable
          350   6731: am_hal_wdt_config
          351   6749: am_hal_wdt_interrupt_clear
          352   6776: am_hal_wdt_interrupt_enable
          353   6804: am_hal_wdt_interrupt_status_get
          354   6836: am_hal_wdt_restart
          355   6855: am_hal_wdt_start
          356   6872: am_util_delay_ms
          357   6889: am_util_faultisr_collect_data
          358   6919: am_util_stdio_printf
          359   6940: am_util_stdio_printf_init
          360   6966: am_util_stdio_terminal_clear
          361   6995: am_util_stdio_vsprintf
          362   7018: am_valid_sp
          363   7030: am_watchdog_isr
          364   7046: buck_ldo_override_init
          365   7069: buck_ldo_update_override
          366   7094: crypto_boost_trims
          367   7113: getStackedReg
          368   7127: main
          369   7132: __aeabi_d2f
          370   7144: _d2f
          371   7149: __fpl_dnaninf
          372   7163: _fp_init
          373   7172: __fplib_config_fpu_vfp
          374   7195: __fplib_config_pureend_doubles
          375   7226: __fpl_fretinf
          376   7240: __I$use$fp
          377   7251: am_hal_cachectrl_defaults
          378   7277: am_hal_daxi_defaults
          379   7298: am_hal_gpio_pincfg_opendrain
          380   7327: am_hal_gpio_pincfg_output
          381   7353: am_hal_gpio_pincfg_tristate
          382   7381: am_hal_pwrctrl_peripheral_control
          383   7415: g_DefaultMcuMemCfg
          384   7434: g_DefaultSRAMCfg
          385   7451: g_am_hal_bootrom_helper
          386   7475: sGlobalAccess
          387   7489: ui32DSP0Allowed
          388   7505: ui32DSP1Allowed
          389   7521: ui32MCUAllowed
          390   7536: ui32SharedAccess
          391   7553: Region$$Table$$Base
          392   7573: Region$$Table$$Limit
          393   7594: am_bsp_psLEDs
          394   7608: gDaxiConfig
          395   7620: gDcuDisable
          396   7632: gDcuEnable
          397   7643: g_AM_BSP_GPIO_ITM_SWO
          398   7665: g_eCurrPwrMode
          399   7680: g_sWatchdogConfig
          400   7698: g_ui32TrimVer
          401   7712: g_ui32origSimobuckVDDStrim
          402   7739: gpDcuEnable
          403   7751: gpDcuLock
          404   7761: __libspace_start
          405   7778: __temporary_stack_top$libspace
          406   7809: gAmHalResetStatus
          407   7827: gFaultStack
          408   7839: gStartOff
          409   7849: g_pfnCharPrint
          410   7864: g_ui32ResetStatus
          411   7882: g_ui8NumWatchdogInterrupts
          412   7909: psGlobalAccessPtr
          413   7927: ui32MCUClaimed
          414   7942: ui32DSP0Claimed
          415   7958: ui32DSP1Claimed
          416   7974: 
          417   7975: 


** Section #13 '.note' (SHT_NOTE)
    Size   : 32 bytes (alignment 4)


** Section #14 '.comment' (SHT_PROGBITS)
    Size   : 1540 bytes


** Section #15 '.shstrtab' (SHT_STRTAB)
    Size   : 148 bytes

            #  Offset String
        ====================================

            1      1: MCU_MRAM
            2     10: MCU_TCM
            3     18: SHARED_SRAM
            4     30: .debug_abbrev
            5     44: .debug_frame
            6     57: .debug_info
            7     69: .debug_line
            8     81: .debug_str
            9     92: .debug_ranges
           10    106: .symtab
           11    114: .strtab
           12    122: .note
           13    128: .comment
           14    137: .shstrtab
           15    147: 


