
========================================================================

** ELF Header Information

    File Name: bin\prime.axf

    Machine class: ELFCLASS32 (32-bit)
    Data encoding: ELFDATA2LSB (Little endian)
    Header version: EV_CURRENT (Current version)
    Operating System ABI: none
    ABI Version: 0
    File Type: ET_EXEC (Executable) (2)
    Machine: EM_ARM (ARM)

    Image Entry point: 0x00018235
    Flags: EF_ARM_HASENTRY + EF_ARM_ABI_FLOAT_HARD (0x05000402)

    ARM ELF revision: 5 (ABI version 2)

    Conforms to Hard float procedure-call standard

    Built with
    Component: ARM Compiler 6.16 Tool: armasm [5dfea300]
    Component: ARM Compiler 6.16 Tool: armlink [5dfeaa00]

    Header size: 52 bytes (0x34)
    Program header entry size: 32 bytes (0x20)
    Section header entry size: 40 bytes (0x28)

    Program header entries: 1
    Section header entries: 17

    Program header offset: 71996 (0x0001193c)
    Section header offset: 72028 (0x0001195c)

    Section header string table index: 16

========================================================================

** Program header #0 (PT_LOAD) [PF_X + PF_W + PF_R + PF_ARM_ENTRY]
    Size : 13944 bytes (11776 bytes in file)
    Virtual address: 0x00018000 (Alignment 8)


========================================================================

** Section #1 'MCU_MRAM' (SHT_PROGBITS) [SHF_ALLOC + SHF_EXECINSTR]
    Size   : 11688 bytes (alignment 4)
    Address: 0x00018000

    $d
    RESET
    __Vectors
        0x00018000:    10000890    ....    DCD    268437648
        0x00018004:    00018201    ....    DCD    98817
        0x00018008:    0001821f    ....    DCD    98847
        0x0001800c:    0001821d    ....    DCD    98845
        0x00018010:    00018221    !...    DCD    98849
        0x00018014:    00018223    #...    DCD    98851
        0x00018018:    00018225    %...    DCD    98853
        0x0001801c:    00000000    ....    DCD    0
        0x00018020:    00000000    ....    DCD    0
        0x00018024:    00000000    ....    DCD    0
        0x00018028:    00000000    ....    DCD    0
        0x0001802c:    00018227    '...    DCD    98855
        0x00018030:    00018229    )...    DCD    98857
        0x00018034:    00000000    ....    DCD    0
        0x00018038:    0001822b    +...    DCD    98859
        0x0001803c:    0001822d    -...    DCD    98861
        0x00018040:    0001822f    /...    DCD    98863
        0x00018044:    0001822f    /...    DCD    98863
        0x00018048:    0001822f    /...    DCD    98863
        0x0001804c:    0001822f    /...    DCD    98863
        0x00018050:    0001822f    /...    DCD    98863
        0x00018054:    0001822f    /...    DCD    98863
        0x00018058:    0001822f    /...    DCD    98863
        0x0001805c:    0001822f    /...    DCD    98863
        0x00018060:    0001822f    /...    DCD    98863
        0x00018064:    0001822f    /...    DCD    98863
        0x00018068:    0001822f    /...    DCD    98863
        0x0001806c:    0001822f    /...    DCD    98863
        0x00018070:    0001822f    /...    DCD    98863
        0x00018074:    0001822f    /...    DCD    98863
        0x00018078:    0001822f    /...    DCD    98863
        0x0001807c:    0001822f    /...    DCD    98863
        0x00018080:    0001822f    /...    DCD    98863
        0x00018084:    0001822f    /...    DCD    98863
        0x00018088:    0001822f    /...    DCD    98863
        0x0001808c:    0001822f    /...    DCD    98863
        0x00018090:    0001822f    /...    DCD    98863
        0x00018094:    0001822f    /...    DCD    98863
        0x00018098:    0001822f    /...    DCD    98863
        0x0001809c:    0001822f    /...    DCD    98863
        0x000180a0:    0001822f    /...    DCD    98863
        0x000180a4:    0001822f    /...    DCD    98863
        0x000180a8:    0001822f    /...    DCD    98863
        0x000180ac:    0001822f    /...    DCD    98863
        0x000180b0:    0001822f    /...    DCD    98863
        0x000180b4:    0001822f    /...    DCD    98863
        0x000180b8:    0001822f    /...    DCD    98863
        0x000180bc:    0001822f    /...    DCD    98863
        0x000180c0:    0001822f    /...    DCD    98863
        0x000180c4:    0001822f    /...    DCD    98863
        0x000180c8:    0001822f    /...    DCD    98863
        0x000180cc:    0001822f    /...    DCD    98863
        0x000180d0:    0001822f    /...    DCD    98863
        0x000180d4:    0001822f    /...    DCD    98863
        0x000180d8:    0001822f    /...    DCD    98863
        0x000180dc:    0001822f    /...    DCD    98863
        0x000180e0:    0001822f    /...    DCD    98863
        0x000180e4:    0001822f    /...    DCD    98863
        0x000180e8:    0001822f    /...    DCD    98863
        0x000180ec:    0001822f    /...    DCD    98863
        0x000180f0:    0001822f    /...    DCD    98863
        0x000180f4:    0001822f    /...    DCD    98863
        0x000180f8:    0001822f    /...    DCD    98863
        0x000180fc:    0001822f    /...    DCD    98863
        0x00018100:    0001822f    /...    DCD    98863
        0x00018104:    0001822f    /...    DCD    98863
        0x00018108:    0001822f    /...    DCD    98863
        0x0001810c:    0001822f    /...    DCD    98863
        0x00018110:    0001822f    /...    DCD    98863
        0x00018114:    0001822f    /...    DCD    98863
        0x00018118:    0001822f    /...    DCD    98863
        0x0001811c:    0001822f    /...    DCD    98863
        0x00018120:    0001822f    /...    DCD    98863
        0x00018124:    0001822f    /...    DCD    98863
        0x00018128:    0001822f    /...    DCD    98863
        0x0001812c:    0001822f    /...    DCD    98863
        0x00018130:    0001822f    /...    DCD    98863
        0x00018134:    0001822f    /...    DCD    98863
        0x00018138:    0001822f    /...    DCD    98863
        0x0001813c:    0001822f    /...    DCD    98863
        0x00018140:    0001822f    /...    DCD    98863
        0x00018144:    0001822f    /...    DCD    98863
        0x00018148:    0001822f    /...    DCD    98863
        0x0001814c:    0001822f    /...    DCD    98863
        0x00018150:    0001822f    /...    DCD    98863
        0x00018154:    0001822f    /...    DCD    98863
        0x00018158:    0001822f    /...    DCD    98863
        0x0001815c:    0001822f    /...    DCD    98863
        0x00018160:    0001822f    /...    DCD    98863
        0x00018164:    0001822f    /...    DCD    98863
        0x00018168:    0001822f    /...    DCD    98863
        0x0001816c:    0001822f    /...    DCD    98863
        0x00018170:    0001822f    /...    DCD    98863
        0x00018174:    0001822f    /...    DCD    98863
        0x00018178:    0001822f    /...    DCD    98863
        0x0001817c:    0001822f    /...    DCD    98863
        0x00018180:    0001822f    /...    DCD    98863
        0x00018184:    0001822f    /...    DCD    98863
        0x00018188:    0001822f    /...    DCD    98863
        0x0001818c:    0001822f    /...    DCD    98863
    __Patchable
        0x00018190:    00000000    ....    DCD    0
        0x00018194:    00000000    ....    DCD    0
        0x00018198:    00000000    ....    DCD    0
        0x0001819c:    00000000    ....    DCD    0
        0x000181a0:    00000000    ....    DCD    0
        0x000181a4:    00000000    ....    DCD    0
        0x000181a8:    00000000    ....    DCD    0
        0x000181ac:    00000000    ....    DCD    0
        0x000181b0:    00000000    ....    DCD    0
        0x000181b4:    00000000    ....    DCD    0
        0x000181b8:    00000000    ....    DCD    0
        0x000181bc:    00000000    ....    DCD    0
        0x000181c0:    00000000    ....    DCD    0
        0x000181c4:    00000000    ....    DCD    0
        0x000181c8:    00000000    ....    DCD    0
        0x000181cc:    00000000    ....    DCD    0
        0x000181d0:    00000000    ....    DCD    0
        0x000181d4:    00000000    ....    DCD    0
        0x000181d8:    00000000    ....    DCD    0
        0x000181dc:    00000000    ....    DCD    0
        0x000181e0:    00000000    ....    DCD    0
        0x000181e4:    00000000    ....    DCD    0
        0x000181e8:    00000000    ....    DCD    0
        0x000181ec:    00000000    ....    DCD    0
        0x000181f0:    00000000    ....    DCD    0
        0x000181f4:    00000000    ....    DCD    0
        0x000181f8:    00000000    ....    DCD    0
        0x000181fc:    00000000    ....    DCD    0
    $t
    $v0
    Reset_Handler
        0x00018200:    f64e5088    N..P    MOV      r0,#0xed88
        0x00018204:    f2ce0000    ....    MOVT     r0,#0xe000
        0x00018208:    6801        .h      LDR      r1,[r0,#0]
        0x0001820a:    f4410170    A.p.    ORR      r1,r1,#0xf00000
        0x0001820e:    6001        .`      STR      r1,[r0,#0]
        0x00018210:    f3bf8f4f    ..O.    DSB      
        0x00018214:    f3bf8f6f    ..o.    ISB      
        0x00018218:    4805        .H      LDR      r0,[pc,#20] ; [0x18230] = 0x18235
        0x0001821a:    4700        .G      BX       r0
    HardFault_Handler
        0x0001821c:    e7fe        ..      B        HardFault_Handler ; 0x1821c
    NMI_Handler
        0x0001821e:    e7fe        ..      B        NMI_Handler ; 0x1821e
    MemManage_Handler
        0x00018220:    e7fe        ..      B        MemManage_Handler ; 0x18220
    BusFault_Handler
        0x00018222:    e7fe        ..      B        BusFault_Handler ; 0x18222
    UsageFault_Handler
        0x00018224:    e7fe        ..      B        UsageFault_Handler ; 0x18224
    SVC_Handler
        0x00018226:    e7fe        ..      B        SVC_Handler ; 0x18226
    DebugMon_Handler
        0x00018228:    e7fe        ..      B        DebugMon_Handler ; 0x18228
    PendSV_Handler
        0x0001822a:    e7fe        ..      B        PendSV_Handler ; 0x1822a
    SysTick_Handler
        0x0001822c:    e7fe        ..      B        SysTick_Handler ; 0x1822c
    am_cryptosec_isr
    am_default_isr
    am_adc_isr
    am_audadc0_isr
    am_brownout_isr
    am_cachecpu_isr
    am_clkgen_isr
    am_ctimer_isr
    am_disp_isr
    am_dsi_isr
    am_dspi2s0_isr
    am_dspi2s1_isr
    am_dspi2s2_isr
    am_dspi2s3_isr
    am_gpio0_001f_isr
    am_gpio0_203f_isr
    am_gpio0_405f_isr
    am_gpio0_607f_isr
    am_gpio1_001f_isr
    am_gpio1_203f_isr
    am_gpio1_405f_isr
    am_gpio1_607f_isr
    am_gpu_isr
    am_iomaster0_isr
    am_iomaster1_isr
    am_iomaster2_isr
    am_iomaster3_isr
    am_iomaster4_isr
    am_iomaster5_isr
    am_iomaster6_isr
    am_iomaster7_isr
    am_ioslave_acc_isr
    am_ioslave_ios_isr
    am_mspi0_isr
    am_mspi1_isr
    am_mspi2_isr
    am_pdm0_isr
    am_pdm1_isr
    am_pdm2_isr
    am_pdm3_isr
    am_rtc_isr
    am_sdio_isr
    am_stimer_cmpr0_isr
    am_stimer_cmpr1_isr
    am_stimer_cmpr2_isr
    am_stimer_cmpr3_isr
    am_stimer_cmpr4_isr
    am_stimer_cmpr5_isr
    am_stimer_cmpr6_isr
    am_stimer_cmpr7_isr
    am_stimerof_isr
    am_timer00_isr
    am_timer01_isr
    am_timer02_isr
    am_timer03_isr
    am_timer04_isr
    am_timer05_isr
    am_timer06_isr
    am_timer07_isr
    am_timer08_isr
    am_timer09_isr
    am_timer10_isr
    am_timer11_isr
    am_timer12_isr
    am_timer13_isr
    am_timer14_isr
    am_timer15_isr
    am_uart1_isr
    am_uart2_isr
    am_uart3_isr
    am_uart_isr
    am_usb_isr
    am_vcomp_isr
    am_watchdog_isr
        0x0001822e:    e7fe        ..      B        am_cryptosec_isr ; 0x1822e
    $d
        0x00018230:    00018235    5...    DCD    98869
    $t
    !!!main
    __main
        0x00018234:    f000f802    ....    BL       __scatterload ; 0x1823c
        0x00018238:    f000f83c    ..<.    BL       __rt_entry ; 0x182b4
    !!!scatter
    __scatterload
    __scatterload_rt2
    __scatterload_rt2_thumb_only
        0x0001823c:    a00a        ..      ADR      r0,{pc}+0x2c ; 0x18268
        0x0001823e:    e8900c00    ....    LDM      r0,{r10,r11}
        0x00018242:    4482        .D      ADD      r10,r10,r0
        0x00018244:    4483        .D      ADD      r11,r11,r0
        0x00018246:    f1aa0701    ....    SUB      r7,r10,#1
    __scatterload_null
        0x0001824a:    45da        .E      CMP      r10,r11
        0x0001824c:    d101        ..      BNE      0x18252 ; __scatterload_null + 8
        0x0001824e:    f000f831    ..1.    BL       __rt_entry ; 0x182b4
        0x00018252:    f2af0e09    ....    ADR      lr,{pc}-7 ; 0x1824b
        0x00018256:    e8ba000f    ....    LDM      r10!,{r0-r3}
        0x0001825a:    f0130f01    ....    TST      r3,#1
        0x0001825e:    bf18        ..      IT       NE
        0x00018260:    1afb        ..      SUBNE    r3,r7,r3
        0x00018262:    f0430301    C...    ORR      r3,r3,#1
        0x00018266:    4718        .G      BX       r3
    $d
        0x00018268:    00002b10    .+..    DCD    11024
        0x0001826c:    00002b40    @+..    DCD    11072
    $t
    !!handler_copy
    __scatterload_copy
        0x00018270:    3a10        .:      SUBS     r2,r2,#0x10
        0x00018272:    bf24        $.      ITT      CS
        0x00018274:    c878        x.      LDMCS    r0!,{r3-r6}
        0x00018276:    c178        x.      STMCS    r1!,{r3-r6}
        0x00018278:    d8fa        ..      BHI      __scatterload_copy ; 0x18270
        0x0001827a:    0752        R.      LSLS     r2,r2,#29
        0x0001827c:    bf24        $.      ITT      CS
        0x0001827e:    c830        0.      LDMCS    r0!,{r4,r5}
        0x00018280:    c130        0.      STMCS    r1!,{r4,r5}
        0x00018282:    bf44        D.      ITT      MI
        0x00018284:    6804        .h      LDRMI    r4,[r0,#0]
        0x00018286:    600c        .`      STRMI    r4,[r1,#0]
        0x00018288:    4770        pG      BX       lr
        0x0001828a:    0000        ..      MOVS     r0,r0
    !!handler_zi
    __scatterload_zeroinit
        0x0001828c:    2300        .#      MOVS     r3,#0
        0x0001828e:    2400        .$      MOVS     r4,#0
        0x00018290:    2500        .%      MOVS     r5,#0
        0x00018292:    2600        .&      MOVS     r6,#0
        0x00018294:    3a10        .:      SUBS     r2,r2,#0x10
        0x00018296:    bf28        (.      IT       CS
        0x00018298:    c178        x.      STMCS    r1!,{r3-r6}
        0x0001829a:    d8fb        ..      BHI      0x18294 ; __scatterload_zeroinit + 8
        0x0001829c:    0752        R.      LSLS     r2,r2,#29
        0x0001829e:    bf28        (.      IT       CS
        0x000182a0:    c130        0.      STMCS    r1!,{r4,r5}
        0x000182a2:    bf48        H.      IT       MI
        0x000182a4:    600b        .`      STRMI    r3,[r1,#0]
        0x000182a6:    4770        pG      BX       lr
    .ARM.Collect$$libinit$$00000000
    __rt_lib_init
        0x000182a8:    b51f        ..      PUSH     {r0-r4,lr}
    .ARM.Collect$$libinit$$00000001
    __rt_lib_init_fp_1
        0x000182aa:    f002fb0c    ....    BL       _fp_init ; 0x1a8c6
    .ARM.Collect$$libinit$$00000004
    .ARM.Collect$$libinit$$0000000A
    .ARM.Collect$$libinit$$0000000C
    .ARM.Collect$$libinit$$0000000E
    .ARM.Collect$$libinit$$00000011
    .ARM.Collect$$libinit$$00000013
    .ARM.Collect$$libinit$$00000015
    .ARM.Collect$$libinit$$00000017
    .ARM.Collect$$libinit$$00000019
    .ARM.Collect$$libinit$$0000001B
    .ARM.Collect$$libinit$$0000001D
    .ARM.Collect$$libinit$$0000001F
    .ARM.Collect$$libinit$$00000021
    .ARM.Collect$$libinit$$00000023
    .ARM.Collect$$libinit$$00000025
    .ARM.Collect$$libinit$$0000002C
    .ARM.Collect$$libinit$$0000002E
    .ARM.Collect$$libinit$$00000030
    .ARM.Collect$$libinit$$00000032
    .ARM.Collect$$libinit$$00000033
    __rt_lib_init_alloca_1
    __rt_lib_init_argv_1
    __rt_lib_init_atexit_1
    __rt_lib_init_clock_1
    __rt_lib_init_cpp_1
    __rt_lib_init_exceptions_1
    __rt_lib_init_fp_trap_1
    __rt_lib_init_getenv_1
    __rt_lib_init_heap_1
    __rt_lib_init_lc_collate_1
    __rt_lib_init_lc_ctype_1
    __rt_lib_init_lc_monetary_1
    __rt_lib_init_lc_numeric_1
    __rt_lib_init_lc_time_1
    __rt_lib_init_preinit_1
    __rt_lib_init_rand_1
    __rt_lib_init_return
    __rt_lib_init_signal_1
    __rt_lib_init_stdio_1
    __rt_lib_init_user_alloc_1
        0x000182ae:    bd1f        ..      POP      {r0-r4,pc}
    .ARM.Collect$$libshutdown$$00000000
    __rt_lib_shutdown
        0x000182b0:    b510        ..      PUSH     {r4,lr}
    .ARM.Collect$$libshutdown$$00000002
    .ARM.Collect$$libshutdown$$00000004
    .ARM.Collect$$libshutdown$$00000007
    .ARM.Collect$$libshutdown$$0000000A
    .ARM.Collect$$libshutdown$$0000000C
    .ARM.Collect$$libshutdown$$0000000F
    .ARM.Collect$$libshutdown$$00000010
    __rt_lib_shutdown_cpp_1
    __rt_lib_shutdown_fp_trap_1
    __rt_lib_shutdown_heap_1
    __rt_lib_shutdown_return
    __rt_lib_shutdown_signal_1
    __rt_lib_shutdown_stdio_1
    __rt_lib_shutdown_user_alloc_1
        0x000182b2:    bd10        ..      POP      {r4,pc}
    .ARM.Collect$$rtentry$$00000000
    .ARM.Collect$$rtentry$$00000002
    .ARM.Collect$$rtentry$$00000004
    __rt_entry
    __rt_entry_presh_1
    __rt_entry_sh
        0x000182b4:    f000f895    ....    BL       __user_setup_stackheap ; 0x183e2
        0x000182b8:    4611        .F      MOV      r1,r2
    .ARM.Collect$$rtentry$$00000009
    .ARM.Collect$$rtentry$$0000000A
    __rt_entry_li
    __rt_entry_postsh_1
        0x000182ba:    f7fffff5    ....    BL       __rt_lib_init ; 0x182a8
    .ARM.Collect$$rtentry$$0000000C
    .ARM.Collect$$rtentry$$0000000D
    __rt_entry_main
    __rt_entry_postli_1
        0x000182be:    f001ffab    ....    BL       main ; 0x1a218
        0x000182c2:    f000f8b3    ....    BL       exit ; 0x1842c
    .ARM.Collect$$rtexit$$00000000
    __rt_exit
        0x000182c6:    b403        ..      PUSH     {r0,r1}
    .ARM.Collect$$rtexit$$00000002
    .ARM.Collect$$rtexit$$00000003
    __rt_exit_ls
    __rt_exit_prels_1
        0x000182c8:    f7fffff2    ....    BL       __rt_lib_shutdown ; 0x182b0
    .ARM.Collect$$rtexit$$00000004
    __rt_exit_exit
        0x000182cc:    bc03        ..      POP      {r0,r1}
        0x000182ce:    f000f8bb    ....    BL       _sys_exit ; 0x18448
        0x000182d2:    0000        ..      MOVS     r0,r0
    .text
    $v0
    __user_initial_stackheap
        0x000182d4:    4802        .H      LDR      r0,[pc,#8] ; [0x182e0] = 0x10000490
        0x000182d6:    4903        .I      LDR      r1,[pc,#12] ; [0x182e4] = 0x10000890
        0x000182d8:    4a01        .J      LDR      r2,[pc,#4] ; [0x182e0] = 0x10000490
        0x000182da:    4b03        .K      LDR      r3,[pc,#12] ; [0x182e8] = 0x10000490
        0x000182dc:    4770        pG      BX       lr
    $d
        0x000182de:    0000        ..      DCW    0
        0x000182e0:    10000490    ....    DCD    268436624
        0x000182e4:    10000890    ....    DCD    268437648
        0x000182e8:    10000490    ....    DCD    268436624
    $t
    .text
    __aeabi_uldivmod
    _ll_udiv
        0x000182ec:    ea530c02    S...    ORRS     r12,r3,r2
        0x000182f0:    f0008069    ..i.    BEQ.W    0x183c6 ; __aeabi_uldivmod + 218
        0x000182f4:    e92d4bf0    -..K    PUSH     {r4-r9,r11,lr}
        0x000182f8:    f04f0600    O...    MOV      r6,#0
        0x000182fc:    2b00        .+      CMP      r3,#0
        0x000182fe:    bf1f        ..      ITTTT    NE
        0x00018300:    fab3f583    ....    CLZNE    r5,r3
        0x00018304:    fa03f405    ....    LSLNE    r4,r3,r5
        0x00018308:    fa24f605    $...    LSRNE    r6,r4,r5
        0x0001830c:    405e        ^@      EORNE    r6,r6,r3
        0x0001830e:    bf12        ..      ITEE     NE
        0x00018310:    4316        .C      ORRNE    r6,r6,r2
        0x00018312:    fab2f582    ....    CLZEQ    r5,r2
        0x00018316:    fa02f405    ....    LSLEQ    r4,r2,r5
        0x0001831a:    f1c50520    .. .    RSB      r5,r5,#0x20
        0x0001831e:    bf1e        ..      ITTT     NE
        0x00018320:    fa22fc05    "...    LSRNE    r12,r2,r5
        0x00018324:    ea44040c    D...    ORRNE    r4,r4,r12
        0x00018328:    3520         5      ADDNE    r5,r5,#0x20
        0x0001832a:    ea564c04    V..L    ORRS     r12,r6,r4,LSL #16
        0x0001832e:    ea4f4414    O..D    LSR      r4,r4,#16
        0x00018332:    bf18        ..      IT       NE
        0x00018334:    1c64        d.      ADDNE    r4,r4,#1
        0x00018336:    f04f0800    O...    MOV      r8,#0
        0x0001833a:    f04f0900    O...    MOV      r9,#0
        0x0001833e:    4290        .B      CMP      r0,r2
        0x00018340:    eb710c03    q...    SBCS     r12,r1,r3
        0x00018344:    d339        9.      BCC      0x183ba ; __aeabi_uldivmod + 206
        0x00018346:    2900        .)      CMP      r1,#0
        0x00018348:    bf19        ..      ITTEE    NE
        0x0001834a:    fab1f781    ....    CLZNE    r7,r1
        0x0001834e:    fa01f607    ....    LSLNE    r6,r1,r7
        0x00018352:    fab0f780    ....    CLZEQ    r7,r0
        0x00018356:    fa00f607    ....    LSLEQ    r6,r0,r7
        0x0001835a:    f1c70720    .. .    RSB      r7,r7,#0x20
        0x0001835e:    bf1e        ..      ITTT     NE
        0x00018360:    fa20fc07     ...    LSRNE    r12,r0,r7
        0x00018364:    ea46060c    F...    ORRNE    r6,r6,r12
        0x00018368:    3720         7      ADDNE    r7,r7,#0x20
        0x0001836a:    fbb6fcf4    ....    UDIV     r12,r6,r4
        0x0001836e:    eba70705    ....    SUB      r7,r7,r5
        0x00018372:    3f10        .?      SUBS     r7,r7,#0x10
        0x00018374:    f0070b1f    ....    AND      r11,r7,#0x1f
        0x00018378:    f1cb0620    .. .    RSB      r6,r11,#0x20
        0x0001837c:    fa2cf606    ,...    LSR      r6,r12,r6
        0x00018380:    fa0cfb0b    ....    LSL      r11,r12,r11
        0x00018384:    bf44        D.      ITT      MI
        0x00018386:    46b3        .F      MOVMI    r11,r6
        0x00018388:    2600        .&      MOVMI    r6,#0
        0x0001838a:    2f20         /      CMP      r7,#0x20
        0x0001838c:    bfa4        ..      ITT      GE
        0x0001838e:    465e        ^F      MOVGE    r6,r11
        0x00018390:    f04f0b00    O...    MOVGE    r11,#0
        0x00018394:    ea5b0c06    [...    ORRS     r12,r11,r6
        0x00018398:    bf08        ..      IT       EQ
        0x0001839a:    f04f0b01    O...    MOVEQ    r11,#1
        0x0001839e:    eb19090b    ....    ADDS     r9,r9,r11
        0x000183a2:    eb480806    H...    ADC      r8,r8,r6
        0x000183a6:    fbab7c02    ...|    UMULL    r7,r12,r11,r2
        0x000183aa:    fb06cc02    ....    MLA      r12,r6,r2,r12
        0x000183ae:    fb0bcc03    ....    MLA      r12,r11,r3,r12
        0x000183b2:    1bc0        ..      SUBS     r0,r0,r7
        0x000183b4:    eb71010c    q...    SBCS     r1,r1,r12
        0x000183b8:    e7c1        ..      B        0x1833e ; __aeabi_uldivmod + 82
        0x000183ba:    460b        .F      MOV      r3,r1
        0x000183bc:    4602        .F      MOV      r2,r0
        0x000183be:    4641        AF      MOV      r1,r8
        0x000183c0:    4648        HF      MOV      r0,r9
        0x000183c2:    e8bd8bf0    ....    POP      {r4-r9,r11,pc}
        0x000183c6:    b513        ..      PUSH     {r0,r1,r4,lr}
        0x000183c8:    4308        .C      ORRS     r0,r0,r1
        0x000183ca:    bf18        ..      IT       NE
        0x000183cc:    f04f30ff    O..0    MOVNE    r0,#0xffffffff
        0x000183d0:    4601        .F      MOV      r1,r0
        0x000183d2:    f3af8000    ....    NOP.W    
        0x000183d6:    e8bd401c    ...@    POP      {r2-r4,lr}
        0x000183da:    4770        pG      BX       lr
    .text
    __use_two_region_memory
        0x000183dc:    4770        pG      BX       lr
    __rt_heap_escrow$2region
        0x000183de:    4770        pG      BX       lr
    __rt_heap_expand$2region
        0x000183e0:    4770        pG      BX       lr
    .text
    __user_setup_stackheap
        0x000183e2:    4675        uF      MOV      r5,lr
        0x000183e4:    f000f82c    ..,.    BL       __user_libspace ; 0x18440
        0x000183e8:    46ae        .F      MOV      lr,r5
        0x000183ea:    0005        ..      MOVS     r5,r0
        0x000183ec:    4669        iF      MOV      r1,sp
        0x000183ee:    4653        SF      MOV      r3,r10
        0x000183f0:    f0200007     ...    BIC      r0,r0,#7
        0x000183f4:    4685        .F      MOV      sp,r0
        0x000183f6:    b018        ..      ADD      sp,sp,#0x60
        0x000183f8:    b520         .      PUSH     {r5,lr}
        0x000183fa:    f7ffff6b    ..k.    BL       __user_initial_stackheap ; 0x182d4
        0x000183fe:    e8bd4020    .. @    POP      {r5,lr}
        0x00018402:    f04f0600    O...    MOV      r6,#0
        0x00018406:    f04f0700    O...    MOV      r7,#0
        0x0001840a:    f04f0800    O...    MOV      r8,#0
        0x0001840e:    f04f0b00    O...    MOV      r11,#0
        0x00018412:    46ac        .F      MOV      r12,r5
        0x00018414:    e8ac09c0    ....    STM      r12!,{r6-r8,r11}
        0x00018418:    e8ac09c0    ....    STM      r12!,{r6-r8,r11}
        0x0001841c:    e8ac09c0    ....    STM      r12!,{r6-r8,r11}
        0x00018420:    e8ac09c0    ....    STM      r12!,{r6-r8,r11}
        0x00018424:    f0210107    !...    BIC      r1,r1,#7
        0x00018428:    468d        .F      MOV      sp,r1
        0x0001842a:    4770        pG      BX       lr
    .text
    exit
        0x0001842c:    b510        ..      PUSH     {r4,lr}
        0x0001842e:    4604        .F      MOV      r4,r0
        0x00018430:    f3af8000    ....    NOP.W    
        0x00018434:    4620         F      MOV      r0,r4
        0x00018436:    e8bd4010    ...@    POP      {r4,lr}
        0x0001843a:    f7ffbf44    ..D.    B.W      __rt_exit ; 0x182c6
        0x0001843e:    0000        ..      MOVS     r0,r0
    .text
    __user_libspace
    __user_perproc_libspace
    __user_perthread_libspace
        0x00018440:    4800        .H      LDR      r0,[pc,#0] ; [0x18444] = 0x10000018
        0x00018442:    4770        pG      BX       lr
    $d
        0x00018444:    10000018    ....    DCD    268435480
    $t
    .text
    _sys_exit
        0x00018448:    4901        .I      LDR      r1,[pc,#4] ; [0x18450] = 0x20026
        0x0001844a:    2018        .       MOVS     r0,#0x18
        0x0001844c:    beab        ..      BKPT     #0xab
        0x0001844e:    e7fe        ..      B        0x1844e ; _sys_exit + 6
    $d
        0x00018450:    00020026    &...    DCD    131110
    $t
    .text
    __I$use$semihosting
    __use_no_semihosting_swi
        0x00018454:    4770        pG      BX       lr
    $t.24
    TrimVersionGet
    .text
    __semihosting_library_function
        0x00018456:    b5b0        ..      PUSH     {r4,r5,r7,lr}
        0x00018458:    f2400510    @...    MOVW     r5,#0x10
        0x0001845c:    f2c10500    ....    MOVT     r5,#0x1000
        0x00018460:    6829        )h      LDR      r1,[r5,#0]
        0x00018462:    4604        .F      MOV      r4,r0
        0x00018464:    1c4a        J.      ADDS     r2,r1,#1
        0x00018466:    d10c        ..      BNE      0x18482 ; TrimVersionGet + 44
        0x00018468:    2001        .       MOVS     r0,#1
        0x0001846a:    f24041c4    @..A    MOV      r1,#0x4c4
        0x0001846e:    2201        ."      MOVS     r2,#1
        0x00018470:    462b        +F      MOV      r3,r5
        0x00018472:    f000fbcd    ....    BL       am_hal_mram_info_read ; 0x18c10
        0x00018476:    b910        ..      CBNZ     r0,0x1847e ; TrimVersionGet + 40
        0x00018478:    6829        )h      LDR      r1,[r5,#0]
        0x0001847a:    1c48        H.      ADDS     r0,r1,#1
        0x0001847c:    d101        ..      BNE      0x18482 ; TrimVersionGet + 44
        0x0001847e:    2100        .!      MOVS     r1,#0
        0x00018480:    6029        )`      STR      r1,[r5,#0]
        0x00018482:    b104        ..      CBZ      r4,0x18486 ; TrimVersionGet + 48
        0x00018484:    6021        !`      STR      r1,[r4,#0]
        0x00018486:    bdb0        ..      POP      {r4,r5,r7,pc}
    am_bsp_low_power_init
        0x00018488:    b580        ..      PUSH     {r7,lr}
        0x0001848a:    f000fccb    ....    BL       am_hal_pwrctrl_low_power_init ; 0x18e24
        0x0001848e:    2000        .       MOVS     r0,#0
        0x00018490:    2100        .!      MOVS     r1,#0
        0x00018492:    f000fbed    ....    BL       am_hal_pwrctrl_control ; 0x18c70
        0x00018496:    e8bd4080    ...@    POP      {r7,lr}
        0x0001849a:    f000bfab    ....    B.W      am_hal_rtc_osc_disable ; 0x193f4
    am_bsp_uart_printf_disable
        0x0001849e:    b570        p.      PUSH     {r4-r6,lr}
        0x000184a0:    f240355b    @.[5    MOV      r5,#0x35b
        0x000184a4:    f2c10500    ....    MOVT     r5,#0x1000
        0x000184a8:    7828        (x      LDRB     r0,[r5,#0]
        0x000184aa:    2802        .(      CMP      r0,#2
        0x000184ac:    bf18        ..      IT       NE
        0x000184ae:    bd70        p.      POPNE    {r4-r6,pc}
        0x000184b0:    f2404484    @..D    MOV      r4,#0x484
        0x000184b4:    f2c10400    ....    MOVT     r4,#0x1000
        0x000184b8:    6820         h      LDR      r0,[r4,#0]
        0x000184ba:    f001f96b    ..k.    BL       am_hal_uart_tx_flush ; 0x19794
        0x000184be:    2000        .       MOVS     r0,#0
        0x000184c0:    2600        .&      MOVS     r6,#0
        0x000184c2:    f001f9e8    ....    BL       am_util_stdio_printf_init ; 0x19896
        0x000184c6:    6820         h      LDR      r0,[r4,#0]
        0x000184c8:    2102        .!      MOVS     r1,#2
        0x000184ca:    2200        ."      MOVS     r2,#0
        0x000184cc:    f001f8aa    ....    BL       am_hal_uart_power_control ; 0x19624
        0x000184d0:    6820         h      LDR      r0,[r4,#0]
        0x000184d2:    f001f85b    ..[.    BL       am_hal_uart_deinitialize ; 0x1958c
        0x000184d6:    f64a00f8    J...    MOV      r0,#0xa8f8
        0x000184da:    f2c00001    ....    MOVT     r0,#1
        0x000184de:    6804        .h      LDR      r4,[r0,#0]
        0x000184e0:    203c        <       MOVS     r0,#0x3c
        0x000184e2:    4621        !F      MOV      r1,r4
        0x000184e4:    f000fb5e    ..^.    BL       am_hal_gpio_pinconfig ; 0x18ba4
        0x000184e8:    202f        /       MOVS     r0,#0x2f
        0x000184ea:    4621        !F      MOV      r1,r4
        0x000184ec:    f000fb5a    ..Z.    BL       am_hal_gpio_pinconfig ; 0x18ba4
        0x000184f0:    702e        .p      STRB     r6,[r5,#0]
        0x000184f2:    bd70        p.      POP      {r4-r6,pc}
    am_bsp_uart_printf_enable
        0x000184f4:    b510        ..      PUSH     {r4,lr}
        0x000184f6:    f2404484    @..D    MOV      r4,#0x484
        0x000184fa:    f2c10400    ....    MOVT     r4,#0x1000
        0x000184fe:    2000        .       MOVS     r0,#0
        0x00018500:    4621        !F      MOV      r1,r4
        0x00018502:    f001f857    ..W.    BL       am_hal_uart_initialize ; 0x195b4
        0x00018506:    b9f8        ..      CBNZ     r0,0x18548 ; am_bsp_uart_printf_enable + 84
        0x00018508:    6820         h      LDR      r0,[r4,#0]
        0x0001850a:    2100        .!      MOVS     r1,#0
        0x0001850c:    2200        ."      MOVS     r2,#0
        0x0001850e:    f001f889    ....    BL       am_hal_uart_power_control ; 0x19624
        0x00018512:    b9c8        ..      CBNZ     r0,0x18548 ; am_bsp_uart_printf_enable + 84
        0x00018514:    6820         h      LDR      r0,[r4,#0]
        0x00018516:    f64a3150    J.P1    MOV      r1,#0xab50
        0x0001851a:    f2c00101    ....    MOVT     r1,#1
        0x0001851e:    f000ff73    ..s.    BL       am_hal_uart_configure ; 0x19408
        0x00018522:    b988        ..      CBNZ     r0,0x18548 ; am_bsp_uart_printf_enable + 84
        0x00018524:    f240000c    @...    MOVW     r0,#0xc
        0x00018528:    f2c10000    ....    MOVT     r0,#0x1000
        0x0001852c:    6801        .h      LDR      r1,[r0,#0]
        0x0001852e:    203c        <       MOVS     r0,#0x3c
        0x00018530:    f000fb38    ..8.    BL       am_hal_gpio_pinconfig ; 0x18ba4
        0x00018534:    b940        @.      CBNZ     r0,0x18548 ; am_bsp_uart_printf_enable + 84
        0x00018536:    f2400008    @...    MOVW     r0,#8
        0x0001853a:    f2c10000    ....    MOVT     r0,#0x1000
        0x0001853e:    6801        .h      LDR      r1,[r0,#0]
        0x00018540:    202f        /       MOVS     r0,#0x2f
        0x00018542:    f000fb2f    ../.    BL       am_hal_gpio_pinconfig ; 0x18ba4
        0x00018546:    b110        ..      CBZ      r0,0x1854e ; am_bsp_uart_printf_enable + 90
        0x00018548:    f04f30ff    O..0    MOV      r0,#0xffffffff
        0x0001854c:    bd10        ..      POP      {r4,pc}
        0x0001854e:    f240305b    @.[0    MOV      r0,#0x35b
        0x00018552:    f2c10000    ....    MOVT     r0,#0x1000
        0x00018556:    2102        .!      MOVS     r1,#2
        0x00018558:    7001        .p      STRB     r1,[r0,#0]
        0x0001855a:    f248506d    H.mP    MOV      r0,#0x856d
        0x0001855e:    f2c00001    ....    MOVT     r0,#1
        0x00018562:    f001f998    ....    BL       am_util_stdio_printf_init ; 0x19896
        0x00018566:    2000        .       MOVS     r0,#0
        0x00018568:    bd10        ..      POP      {r4,pc}
        0x0001856a:    0000        ..      MOVS     r0,r0
    am_bsp_uart_string_print
        0x0001856c:    b510        ..      PUSH     {r4,lr}
        0x0001856e:    b08a        ..      SUB      sp,sp,#0x28
        0x00018570:    2400        .$      MOVS     r4,#0
        0x00018572:    9409        ..      STR      r4,[sp,#0x24]
        0x00018574:    5d01        .]      LDRB     r1,[r0,r4]
        0x00018576:    3401        .4      ADDS     r4,#1
        0x00018578:    2900        .)      CMP      r1,#0
        0x0001857a:    d1fb        ..      BNE      0x18574 ; am_bsp_uart_string_print + 8
        0x0001857c:    9002        ..      STR      r0,[sp,#8]
        0x0001857e:    1e60        `.      SUBS     r0,r4,#1
        0x00018580:    9003        ..      STR      r0,[sp,#0xc]
        0x00018582:    a809        ..      ADD      r0,sp,#0x24
        0x00018584:    2100        .!      MOVS     r1,#0
        0x00018586:    9004        ..      STR      r0,[sp,#0x10]
        0x00018588:    f04f30ff    O..0    MOV      r0,#0xffffffff
        0x0001858c:    e9cd0105    ....    STRD     r0,r1,[sp,#0x14]
        0x00018590:    f2404084    @..@    MOV      r0,#0x484
        0x00018594:    f2c10000    ....    MOVT     r0,#0x1000
        0x00018598:    6800        .h      LDR      r0,[r0,#0]
        0x0001859a:    f88d1004    ....    STRB     r1,[sp,#4]
        0x0001859e:    9107        ..      STR      r1,[sp,#0x1c]
        0x000185a0:    9108        ..      STR      r1,[sp,#0x20]
        0x000185a2:    a901        ..      ADD      r1,sp,#4
        0x000185a4:    f001f89c    ....    BL       am_hal_uart_transfer ; 0x196e0
        0x000185a8:    9809        ..      LDR      r0,[sp,#0x24]
        0x000185aa:    3001        .0      ADDS     r0,#1
        0x000185ac:    42a0        .B      CMP      r0,r4
        0x000185ae:    bf04        ..      ITT      EQ
        0x000185b0:    b00a        ..      ADDEQ    sp,sp,#0x28
        0x000185b2:    bd10        ..      POPEQ    {r4,pc}
        0x000185b4:    e7fe        ..      B        0x185b4 ; am_bsp_uart_string_print + 72
    am_hal_cachectrl_config
        0x000185b6:    b5b0        ..      PUSH     {r4,r5,r7,lr}
        0x000185b8:    b082        ..      SUB      sp,sp,#8
        0x000185ba:    4604        .F      MOV      r4,r0
        0x000185bc:    f000fb20    .. .    BL       am_hal_interrupt_master_disable ; 0x18c00
        0x000185c0:    9001        ..      STR      r0,[sp,#4]
        0x000185c2:    f04f4590    O..E    MOV      r5,#0x48000000
        0x000185c6:    6828        (h      LDR      r0,[r5,#0]
        0x000185c8:    f4207040     .@p    BIC      r0,r0,#0x300
        0x000185cc:    6028        (`      STR      r0,[r5,#0]
        0x000185ce:    9801        ..      LDR      r0,[sp,#4]
        0x000185d0:    f000fb1a    ....    BL       am_hal_interrupt_master_set ; 0x18c08
        0x000185d4:    78a1        .x      LDRB     r1,[r4,#2]
        0x000185d6:    7820         x      LDRB     r0,[r4,#0]
        0x000185d8:    7862        bx      LDRB     r2,[r4,#1]
        0x000185da:    0049        I.      LSLS     r1,r1,#1
        0x000185dc:    b2c9        ..      UXTB     r1,r1
        0x000185de:    f0020203    ....    AND      r2,r2,#3
        0x000185e2:    f3601107    `...    BFI      r1,r0,#4,#4
        0x000185e6:    ea412002    A..     ORR      r0,r1,r2,LSL #8
        0x000185ea:    f4401080    @...    ORR      r0,r0,#0x100000
        0x000185ee:    f4406180    @..a    ORR      r1,r0,#0x400
        0x000185f2:    2000        .       MOVS     r0,#0
        0x000185f4:    6029        )`      STR      r1,[r5,#0]
        0x000185f6:    b002        ..      ADD      sp,sp,#8
        0x000185f8:    bdb0        ..      POP      {r4,r5,r7,pc}
        0x000185fa:    0000        ..      MOVS     r0,r0
    am_hal_cachectrl_control
        0x000185fc:    b580        ..      PUSH     {r7,lr}
        0x000185fe:    b082        ..      SUB      sp,sp,#8
        0x00018600:    3801        .8      SUBS     r0,#1
        0x00018602:    2804        .(      CMP      r0,#4
        0x00018604:    d846        F.      BHI      0x18694 ; am_hal_cachectrl_control + 152
        0x00018606:    e8dff000    ....    TBB      [pc,r0]
    $d.4
        0x0001860a:    1403        ..      DCW    5123
        0x0001860c:    003b2a1b    .*;.    DCD    3877403
    $t.5
        0x00018610:    2108        .!      MOVS     r1,#8
        0x00018612:    f6c40100    ....    MOVT     r1,#0x4800
        0x00018616:    2001        .       MOVS     r0,#1
        0x00018618:    6008        .`      STR      r0,[r1,#0]
        0x0001861a:    2000        .       MOVS     r0,#0
        0x0001861c:    f2c470ff    ...p    MOVT     r0,#0x47ff
        0x00018620:    6800        .h      LDR      r0,[r0,#0]
        0x00018622:    2064        d       MOVS     r0,#0x64
        0x00018624:    2204        ."      MOVS     r2,#4
        0x00018626:    2304        .#      MOVS     r3,#4
        0x00018628:    b002        ..      ADD      sp,sp,#8
        0x0001862a:    e8bd4080    ...@    POP      {r7,lr}
        0x0001862e:    f000ba5d    ..].    B.W      am_hal_delay_us_status_change ; 0x18aec
        0x00018632:    f04f4090    O..@    MOV      r0,#0x48000000
        0x00018636:    6800        .h      LDR      r0,[r0,#0]
        0x00018638:    01c0        ..      LSLS     r0,r0,#7
        0x0001863a:    d42d        -.      BMI      0x18698 ; am_hal_cachectrl_control + 156
        0x0001863c:    2007        .       MOVS     r0,#7
        0x0001863e:    e035        5.      B        0x186ac ; am_hal_cachectrl_control + 176
        0x00018640:    f000fade    ....    BL       am_hal_interrupt_master_disable ; 0x18c00
        0x00018644:    9001        ..      STR      r0,[sp,#4]
        0x00018646:    f04f4090    O..@    MOV      r0,#0x48000000
        0x0001864a:    6801        .h      LDR      r1,[r0,#0]
        0x0001864c:    f0417180    A..q    ORR      r1,r1,#0x1000000
        0x00018650:    6001        .`      STR      r1,[r0,#0]
        0x00018652:    2000        .       MOVS     r0,#0
        0x00018654:    f2c470ff    ...p    MOVT     r0,#0x47ff
        0x00018658:    6800        .h      LDR      r0,[r0,#0]
        0x0001865a:    9801        ..      LDR      r0,[sp,#4]
        0x0001865c:    e00d        ..      B        0x1867a ; am_hal_cachectrl_control + 126
        0x0001865e:    f000facf    ....    BL       am_hal_interrupt_master_disable ; 0x18c00
        0x00018662:    9000        ..      STR      r0,[sp,#0]
        0x00018664:    f04f4090    O..@    MOV      r0,#0x48000000
        0x00018668:    6801        .h      LDR      r1,[r0,#0]
        0x0001866a:    f0217180    !..q    BIC      r1,r1,#0x1000000
        0x0001866e:    6001        .`      STR      r1,[r0,#0]
        0x00018670:    2000        .       MOVS     r0,#0
        0x00018672:    f2c470ff    ...p    MOVT     r0,#0x47ff
        0x00018676:    6800        .h      LDR      r0,[r0,#0]
        0x00018678:    9800        ..      LDR      r0,[sp,#0]
        0x0001867a:    f000fac5    ....    BL       am_hal_interrupt_master_set ; 0x18c08
        0x0001867e:    e014        ..      B        0x186aa ; am_hal_cachectrl_control + 174
        0x00018680:    b141        A.      CBZ      r1,0x18694 ; am_hal_cachectrl_control + 152
        0x00018682:    6848        Hh      LDR      r0,[r1,#4]
        0x00018684:    220f        ."      MOVS     r2,#0xf
        0x00018686:    f2ce0200    ....    MOVT     r2,#0xe000
        0x0001868a:    4210        .B      TST      r0,r2
        0x0001868c:    d102        ..      BNE      0x18694 ; am_hal_cachectrl_control + 152
        0x0001868e:    688b        .h      LDR      r3,[r1,#8]
        0x00018690:    4213        .B      TST      r3,r2
        0x00018692:    d00d        ..      BEQ      0x186b0 ; am_hal_cachectrl_control + 180
        0x00018694:    2006        .       MOVS     r0,#6
        0x00018696:    e009        ..      B        0x186ac ; am_hal_cachectrl_control + 176
        0x00018698:    2008        .       MOVS     r0,#8
        0x0001869a:    f6c40000    ....    MOVT     r0,#0x4800
        0x0001869e:    2102        .!      MOVS     r1,#2
        0x000186a0:    6001        .`      STR      r1,[r0,#0]
        0x000186a2:    2000        .       MOVS     r0,#0
        0x000186a4:    f2c470ff    ...p    MOVT     r0,#0x47ff
        0x000186a8:    6800        .h      LDR      r0,[r0,#0]
        0x000186aa:    2000        .       MOVS     r0,#0
        0x000186ac:    b002        ..      ADD      sp,sp,#8
        0x000186ae:    bd80        ..      POP      {r7,pc}
        0x000186b0:    780a        .x      LDRB     r2,[r1,#0]
        0x000186b2:    2a01        .*      CMP      r2,#1
        0x000186b4:    d00a        ..      BEQ      0x186cc ; am_hal_cachectrl_control + 208
        0x000186b6:    2a00        .*      CMP      r2,#0
        0x000186b8:    d1ec        ..      BNE      0x18694 ; am_hal_cachectrl_control + 152
        0x000186ba:    2208        ."      MOVS     r2,#8
        0x000186bc:    f6c40200    ....    MOVT     r2,#0x4800
        0x000186c0:    6090        .`      STR      r0,[r2,#8]
        0x000186c2:    320c        .2      ADDS     r2,r2,#0xc
        0x000186c4:    f06f0c04    o...    MVN      r12,#4
        0x000186c8:    2302        .#      MOVS     r3,#2
        0x000186ca:    e007        ..      B        0x186dc ; am_hal_cachectrl_control + 224
        0x000186cc:    2208        ."      MOVS     r2,#8
        0x000186ce:    f6c40200    ....    MOVT     r2,#0x4800
        0x000186d2:    6110        .a      STR      r0,[r2,#0x10]
        0x000186d4:    3214        .2      ADDS     r2,r2,#0x14
        0x000186d6:    f06f0c08    o...    MVN      r12,#8
        0x000186da:    2303        .#      MOVS     r3,#3
        0x000186dc:    6888        .h      LDR      r0,[r1,#8]
        0x000186de:    6010        .`      STR      r0,[r2,#0]
        0x000186e0:    7848        Hx      LDRB     r0,[r1,#1]
        0x000186e2:    f04f4190    O..A    MOV      r1,#0x48000000
        0x000186e6:    680a        .h      LDR      r2,[r1,#0]
        0x000186e8:    4098        .@      LSLS     r0,r0,r3
        0x000186ea:    b2c0        ..      UXTB     r0,r0
        0x000186ec:    ea02020c    ....    AND      r2,r2,r12
        0x000186f0:    4310        .C      ORRS     r0,r0,r2
        0x000186f2:    6008        .`      STR      r0,[r1,#0]
        0x000186f4:    e7d5        ..      B        0x186a2 ; am_hal_cachectrl_control + 166
    am_hal_cachectrl_enable
        0x000186f6:    f04f4090    O..@    MOV      r0,#0x48000000
        0x000186fa:    6801        .h      LDR      r1,[r0,#0]
        0x000186fc:    f0410101    A...    ORR      r1,r1,#1
        0x00018700:    6001        .`      STR      r1,[r0,#0]
        0x00018702:    2108        .!      MOVS     r1,#8
        0x00018704:    f6c40100    ....    MOVT     r1,#0x4800
        0x00018708:    6808        .h      LDR      r0,[r1,#0]
        0x0001870a:    f0400201    @...    ORR      r2,r0,#1
        0x0001870e:    2000        .       MOVS     r0,#0
        0x00018710:    600a        .`      STR      r2,[r1,#0]
        0x00018712:    4770        pG      BX       lr
    am_hal_clkgen_control
        0x00018714:    b510        ..      PUSH     {r4,lr}
        0x00018716:    4602        .F      MOV      r2,r0
        0x00018718:    281e        .(      CMP      r0,#0x1e
        0x0001871a:    f04f0006    O...    MOV      r0,#6
        0x0001871e:    bf88        ..      IT       HI
        0x00018720:    bd10        ..      POPHI    {r4,pc}
        0x00018722:    e8dff012    ....    TBH      [pc,r2,LSL #1]
    $d.1
        0x00018726:    001f        ..      DCW    31
        0x00018728:    00300027    '.0.    DCD    3145767
        0x0001872c:    00400037    7.@.    DCD    4194359
        0x00018730:    00710068    h.q.    DCD    7405672
        0x00018734:    00a00091    ....    DCD    10485905
        0x00018738:    010d010d    ....    DCD    17629453
        0x0001873c:    010d010d    ....    DCD    17629453
        0x00018740:    010d010d    ....    DCD    17629453
        0x00018744:    010d010d    ....    DCD    17629453
        0x00018748:    010d010d    ....    DCD    17629453
        0x0001874c:    00b400ac    ....    DCD    11796652
        0x00018750:    00c400bc    ....    DCD    12845244
        0x00018754:    00d400cb    ....    DCD    13893835
        0x00018758:    00e400dc    ....    DCD    14942428
        0x0001875c:    00f400ec    ....    DCD    15991020
        0x00018760:    010400fb    ....    DCD    17039611
    $t.2
        0x00018764:    f244000c    D...    MOV      r0,#0x400c
        0x00018768:    f2c40000    ....    MOVT     r0,#0x4000
        0x0001876c:    6801        .h      LDR      r1,[r0,#0]
        0x0001876e:    f0210180    !...    BIC      r1,r1,#0x80
        0x00018772:    e006        ..      B        0x18782 ; am_hal_clkgen_control + 110
        0x00018774:    f244000c    D...    MOV      r0,#0x400c
        0x00018778:    f2c40000    ....    MOVT     r0,#0x4000
        0x0001877c:    6801        .h      LDR      r1,[r0,#0]
        0x0001877e:    f0410180    A...    ORR      r1,r1,#0x80
        0x00018782:    6001        .`      STR      r1,[r0,#0]
        0x00018784:    e0db        ..      B        0x1893e ; am_hal_clkgen_control + 554
        0x00018786:    2900        .)      CMP      r1,#0
        0x00018788:    f00080dd    ....    BEQ.W    0x18946 ; am_hal_clkgen_control + 562
        0x0001878c:    6808        .h      LDR      r0,[r1,#0]
        0x0001878e:    f0400001    @...    ORR      r0,r0,#1
        0x00018792:    e0dc        ..      B        0x1894e ; am_hal_clkgen_control + 570
        0x00018794:    f244000c    D...    MOV      r0,#0x400c
        0x00018798:    f2c40000    ....    MOVT     r0,#0x4000
        0x0001879c:    6941        Ai      LDR      r1,[r0,#0x14]
        0x0001879e:    f0210101    !...    BIC      r1,r1,#1
        0x000187a2:    6141        Aa      STR      r1,[r0,#0x14]
        0x000187a4:    e0cb        ..      B        0x1893e ; am_hal_clkgen_control + 554
        0x000187a6:    f244000c    D...    MOV      r0,#0x400c
        0x000187aa:    f2c40000    ....    MOVT     r0,#0x4000
        0x000187ae:    6bc2        .k      LDR      r2,[r0,#0x3c]
        0x000187b0:    2402        .$      MOVS     r4,#2
        0x000187b2:    f0220201    "...    BIC      r2,r2,#1
        0x000187b6:    63c2        .c      STR      r2,[r0,#0x3c]
        0x000187b8:    6c03        .l      LDR      r3,[r0,#0x40]
        0x000187ba:    f64452d0    D..R    MOV      r2,#0x4dd0
        0x000187be:    f0430307    C...    ORR      r3,r3,#7
        0x000187c2:    6403        .d      STR      r3,[r0,#0x40]
        0x000187c4:    6c43        Cl      LDR      r3,[r0,#0x44]
        0x000187c6:    f2c00262    ..b.    MOVT     r2,#0x62
        0x000187ca:    f3640301    d...    BFI      r3,r4,#0,#2
        0x000187ce:    6443        Cd      STR      r3,[r0,#0x44]
        0x000187d0:    b121        !.      CBZ      r1,0x187dc ; am_hal_clkgen_control + 200
        0x000187d2:    6809        .h      LDR      r1,[r1,#0]
        0x000187d4:    2900        .)      CMP      r1,#0
        0x000187d6:    bf18        ..      IT       NE
        0x000187d8:    f44f0200    O...    MOVNE    r2,#0x800000
        0x000187dc:    f64f73fc    O..s    MOV      r3,#0xfffc
        0x000187e0:    6c41        Al      LDR      r1,[r0,#0x44]
        0x000187e2:    f6c773ff    ...s    MOVT     r3,#0x7fff
        0x000187e6:    3307        .3      ADDS     r3,#7
        0x000187e8:    4019        .@      ANDS     r1,r1,r3
        0x000187ea:    4311        .C      ORRS     r1,r1,r2
        0x000187ec:    6441        Ad      STR      r1,[r0,#0x44]
        0x000187ee:    6bc1        .k      LDR      r1,[r0,#0x3c]
        0x000187f0:    f0410101    A...    ORR      r1,r1,#1
        0x000187f4:    e006        ..      B        0x18804 ; am_hal_clkgen_control + 240
        0x000187f6:    f244000c    D...    MOV      r0,#0x400c
        0x000187fa:    f2c40000    ....    MOVT     r0,#0x4000
        0x000187fe:    6bc1        .k      LDR      r1,[r0,#0x3c]
        0x00018800:    f0210101    !...    BIC      r1,r1,#1
        0x00018804:    63c1        .c      STR      r1,[r0,#0x3c]
        0x00018806:    e09a        ..      B        0x1893e ; am_hal_clkgen_control + 554
        0x00018808:    2900        .)      CMP      r1,#0
        0x0001880a:    f000809a    ....    BEQ.W    0x18942 ; am_hal_clkgen_control + 558
        0x0001880e:    6808        .h      LDR      r0,[r1,#0]
        0x00018810:    2801        .(      CMP      r0,#1
        0x00018812:    f0408096    @...    BNE.W    0x18942 ; am_hal_clkgen_control + 558
        0x00018816:    f244040c    D...    MOV      r4,#0x400c
        0x0001881a:    f2c40400    ....    MOVT     r4,#0x4000
        0x0001881e:    6960        `i      LDR      r0,[r4,#0x14]
        0x00018820:    f6464300    F..C    MOVW     r3,#0x6c00
        0x00018824:    f0200001     ...    BIC      r0,r0,#1
        0x00018828:    6160        `a      STR      r0,[r4,#0x14]
        0x0001882a:    6c20         l      LDR      r0,[r4,#0x40]
        0x0001882c:    f2c023dc    ...#    MOVT     r3,#0x2dc
        0x00018830:    f0400007    @...    ORR      r0,r0,#7
        0x00018834:    6420         d      STR      r0,[r4,#0x40]
        0x00018836:    684a        Jh      LDR      r2,[r1,#4]
        0x00018838:    1e50        P.      SUBS     r0,r2,#1
        0x0001883a:    4298        .B      CMP      r0,r3
        0x0001883c:    f080808d    ....    BCS.W    0x1895a ; am_hal_clkgen_control + 582
        0x00018840:    f44f1c00    O...    MOV      r12,#0x200000
        0x00018844:    2002        .       MOVS     r0,#2
        0x00018846:    e091        ..      B        0x1896c ; am_hal_clkgen_control + 600
        0x00018848:    f244000c    D...    MOV      r0,#0x400c
        0x0001884c:    f2c40000    ....    MOVT     r0,#0x4000
        0x00018850:    6b81        .k      LDR      r1,[r0,#0x38]
        0x00018852:    0689        ..      LSLS     r1,r1,#26
        0x00018854:    d473        s.      BMI      0x1893e ; am_hal_clkgen_control + 554
        0x00018856:    6b81        .k      LDR      r1,[r0,#0x38]
        0x00018858:    f0410120    A. .    ORR      r1,r1,#0x20
        0x0001885c:    6381        .c      STR      r1,[r0,#0x38]
        0x0001885e:    200a        .       MOVS     r0,#0xa
        0x00018860:    f000f928    ..(.    BL       am_hal_delay_us ; 0x18ab4
        0x00018864:    e06b        k.      B        0x1893e ; am_hal_clkgen_control + 554
        0x00018866:    f244000c    D...    MOV      r0,#0x400c
        0x0001886a:    f2c40000    ....    MOVT     r0,#0x4000
        0x0001886e:    6b81        .k      LDR      r1,[r0,#0x38]
        0x00018870:    0689        ..      LSLS     r1,r1,#26
        0x00018872:    d564        d.      BPL      0x1893e ; am_hal_clkgen_control + 554
        0x00018874:    6b81        .k      LDR      r1,[r0,#0x38]
        0x00018876:    f0210120    !. .    BIC      r1,r1,#0x20
        0x0001887a:    6381        .c      STR      r1,[r0,#0x38]
        0x0001887c:    e05f        _.      B        0x1893e ; am_hal_clkgen_control + 554
        0x0001887e:    f244000c    D...    MOV      r0,#0x400c
        0x00018882:    f2c40000    ....    MOVT     r0,#0x4000
        0x00018886:    6f81        .o      LDR      r1,[r0,#0x78]
        0x00018888:    f0410180    A...    ORR      r1,r1,#0x80
        0x0001888c:    e056        V.      B        0x1893c ; am_hal_clkgen_control + 552
        0x0001888e:    f244000c    D...    MOV      r0,#0x400c
        0x00018892:    f2c40000    ....    MOVT     r0,#0x4000
        0x00018896:    6f81        .o      LDR      r1,[r0,#0x78]
        0x00018898:    f0210180    !...    BIC      r1,r1,#0x80
        0x0001889c:    e04e        N.      B        0x1893c ; am_hal_clkgen_control + 552
        0x0001889e:    f244000c    D...    MOV      r0,#0x400c
        0x000188a2:    f2c40000    ....    MOVT     r0,#0x4000
        0x000188a6:    6f81        .o      LDR      r1,[r0,#0x78]
        0x000188a8:    f0210130    !.0.    BIC      r1,r1,#0x30
        0x000188ac:    e046        F.      B        0x1893c ; am_hal_clkgen_control + 552
        0x000188ae:    f244000c    D...    MOV      r0,#0x400c
        0x000188b2:    f2c40000    ....    MOVT     r0,#0x4000
        0x000188b6:    6f81        .o      LDR      r1,[r0,#0x78]
        0x000188b8:    2201        ."      MOVS     r2,#1
        0x000188ba:    e005        ..      B        0x188c8 ; am_hal_clkgen_control + 436
        0x000188bc:    f244000c    D...    MOV      r0,#0x400c
        0x000188c0:    f2c40000    ....    MOVT     r0,#0x4000
        0x000188c4:    6f81        .o      LDR      r1,[r0,#0x78]
        0x000188c6:    2202        ."      MOVS     r2,#2
        0x000188c8:    f3621105    b...    BFI      r1,r2,#4,#2
        0x000188cc:    e036        6.      B        0x1893c ; am_hal_clkgen_control + 552
        0x000188ce:    f244000c    D...    MOV      r0,#0x400c
        0x000188d2:    f2c40000    ....    MOVT     r0,#0x4000
        0x000188d6:    6f81        .o      LDR      r1,[r0,#0x78]
        0x000188d8:    f0410130    A.0.    ORR      r1,r1,#0x30
        0x000188dc:    e02e        ..      B        0x1893c ; am_hal_clkgen_control + 552
        0x000188de:    f244000c    D...    MOV      r0,#0x400c
        0x000188e2:    f2c40000    ....    MOVT     r0,#0x4000
        0x000188e6:    6f81        .o      LDR      r1,[r0,#0x78]
        0x000188e8:    f0410108    A...    ORR      r1,r1,#8
        0x000188ec:    e026        &.      B        0x1893c ; am_hal_clkgen_control + 552
        0x000188ee:    f244000c    D...    MOV      r0,#0x400c
        0x000188f2:    f2c40000    ....    MOVT     r0,#0x4000
        0x000188f6:    6f81        .o      LDR      r1,[r0,#0x78]
        0x000188f8:    f0210108    !...    BIC      r1,r1,#8
        0x000188fc:    e01e        ..      B        0x1893c ; am_hal_clkgen_control + 552
        0x000188fe:    f244000c    D...    MOV      r0,#0x400c
        0x00018902:    f2c40000    ....    MOVT     r0,#0x4000
        0x00018906:    6f81        .o      LDR      r1,[r0,#0x78]
        0x00018908:    f0210103    !...    BIC      r1,r1,#3
        0x0001890c:    e016        ..      B        0x1893c ; am_hal_clkgen_control + 552
        0x0001890e:    f244000c    D...    MOV      r0,#0x400c
        0x00018912:    f2c40000    ....    MOVT     r0,#0x4000
        0x00018916:    6f81        .o      LDR      r1,[r0,#0x78]
        0x00018918:    2201        ."      MOVS     r2,#1
        0x0001891a:    e005        ..      B        0x18928 ; am_hal_clkgen_control + 532
        0x0001891c:    f244000c    D...    MOV      r0,#0x400c
        0x00018920:    f2c40000    ....    MOVT     r0,#0x4000
        0x00018924:    6f81        .o      LDR      r1,[r0,#0x78]
        0x00018926:    2202        ."      MOVS     r2,#2
        0x00018928:    f3620101    b...    BFI      r1,r2,#0,#2
        0x0001892c:    e006        ..      B        0x1893c ; am_hal_clkgen_control + 552
        0x0001892e:    f244000c    D...    MOV      r0,#0x400c
        0x00018932:    f2c40000    ....    MOVT     r0,#0x4000
        0x00018936:    6f81        .o      LDR      r1,[r0,#0x78]
        0x00018938:    f0410103    A...    ORR      r1,r1,#3
        0x0001893c:    6781        .g      STR      r1,[r0,#0x78]
        0x0001893e:    2000        .       MOVS     r0,#0
        0x00018940:    bd10        ..      POP      {r4,pc}
        0x00018942:    2006        .       MOVS     r0,#6
        0x00018944:    bd10        ..      POP      {r4,pc}
        0x00018946:    f64b0001    K...    MOV      r0,#0xb801
        0x0001894a:    f2c000a5    ....    MOVT     r0,#0xa5
        0x0001894e:    f244010c    D...    MOV      r1,#0x400c
        0x00018952:    f2c40100    ....    MOVT     r1,#0x4000
        0x00018956:    6148        Ha      STR      r0,[r1,#0x14]
        0x00018958:    e7f1        ..      B        0x1893e ; am_hal_clkgen_control + 554
        0x0001895a:    f24d73ff    M..s    MOV      r3,#0xd7ff
        0x0001895e:    f2c053b8    ...S    MOVT     r3,#0x5b8
        0x00018962:    4298        .B      CMP      r0,r3
        0x00018964:    d815        ..      BHI      0x18992 ; am_hal_clkgen_control + 638
        0x00018966:    f44f0c80    O...    MOV      r12,#0x400000
        0x0001896a:    2003        .       MOVS     r0,#3
        0x0001896c:    6c63        cl      LDR      r3,[r4,#0x44]
        0x0001896e:    f0230303    #...    BIC      r3,r3,#3
        0x00018972:    4418        .D      ADD      r0,r0,r3
        0x00018974:    6460        `d      STR      r0,[r4,#0x44]
        0x00018976:    688b        .h      LDR      r3,[r1,#8]
        0x00018978:    0850        P.      LSRS     r0,r2,#1
        0x0001897a:    2100        .!      MOVS     r1,#0
        0x0001897c:    fbec0103    ....    UMLAL    r0,r1,r12,r3
        0x00018980:    2300        .#      MOVS     r3,#0
        0x00018982:    f7fffcb3    ....    BL       __aeabi_uldivmod ; 0x182ec
        0x00018986:    0f42        B.      LSRS     r2,r0,#29
        0x00018988:    ea4202c1    B...    ORR      r2,r2,r1,LSL #3
        0x0001898c:    ea427151    B.Qq    ORR      r1,r2,r1,LSR #29
        0x00018990:    b109        ..      CBZ      r1,0x18996 ; am_hal_clkgen_control + 642
        0x00018992:    2005        .       MOVS     r0,#5
        0x00018994:    bd10        ..      POP      {r4,pc}
        0x00018996:    f64f72fc    O..r    MOV      r2,#0xfffc
        0x0001899a:    6c61        al      LDR      r1,[r4,#0x44]
        0x0001899c:    f6c772ff    ...r    MOVT     r2,#0x7fff
        0x000189a0:    ea020080    ....    AND      r0,r2,r0,LSL #2
        0x000189a4:    3207        .2      ADDS     r2,#7
        0x000189a6:    4011        .@      ANDS     r1,r1,r2
        0x000189a8:    4408        .D      ADD      r0,r0,r1
        0x000189aa:    6460        `d      STR      r0,[r4,#0x44]
        0x000189ac:    6be0        .k      LDR      r0,[r4,#0x3c]
        0x000189ae:    f0400001    @...    ORR      r0,r0,#1
        0x000189b2:    63e0        .c      STR      r0,[r4,#0x3c]
        0x000189b4:    e7c3        ..      B        0x1893e ; am_hal_clkgen_control + 554
    am_hal_daxi_config
        0x000189b6:    b5b0        ..      PUSH     {r4,r5,r7,lr}
        0x000189b8:    b082        ..      SUB      sp,sp,#8
        0x000189ba:    2550        P%      MOVS     r5,#0x50
        0x000189bc:    4604        .F      MOV      r4,r0
        0x000189be:    f6c40500    ....    MOVT     r5,#0x4800
        0x000189c2:    f000f91d    ....    BL       am_hal_interrupt_master_disable ; 0x18c00
        0x000189c6:    9001        ..      STR      r0,[sp,#4]
        0x000189c8:    2001        .       MOVS     r0,#1
        0x000189ca:    f000f827    ..'.    BL       am_hal_daxi_control ; 0x18a1c
        0x000189ce:    b1cc        ..      CBZ      r4,0x18a04 ; am_hal_daxi_config + 78
        0x000189d0:    7860        `x      LDRB     r0,[r4,#1]
        0x000189d2:    7922        "y      LDRB     r2,[r4,#4]
        0x000189d4:    78a1        .x      LDRB     r1,[r4,#2]
        0x000189d6:    78e3        .x      LDRB     r3,[r4,#3]
        0x000189d8:    f0020201    ....    AND      r2,r2,#1
        0x000189dc:    f000007f    ....    AND      r0,r0,#0x7f
        0x000189e0:    ea420040    B.@.    ORR      r0,r2,r0,LSL #1
        0x000189e4:    f363200b    c..     BFI      r0,r3,#8,#4
        0x000189e8:    f001011f    ....    AND      r1,r1,#0x1f
        0x000189ec:    ea404001    @..@    ORR      r0,r0,r1,LSL #16
        0x000189f0:    6028        (`      STR      r0,[r5,#0]
        0x000189f2:    7920         y      LDRB     r0,[r4,#4]
        0x000189f4:    f2400100    @...    MOVW     r1,#0
        0x000189f8:    f2c10100    ....    MOVT     r1,#0x1000
        0x000189fc:    7108        .q      STRB     r0,[r1,#4]
        0x000189fe:    6820         h      LDR      r0,[r4,#0]
        0x00018a00:    6008        .`      STR      r0,[r1,#0]
        0x00018a02:    e001        ..      B        0x18a08 ; am_hal_daxi_config + 82
        0x00018a04:    2006        .       MOVS     r0,#6
        0x00018a06:    6028        (`      STR      r0,[r5,#0]
        0x00018a08:    2000        .       MOVS     r0,#0
        0x00018a0a:    f2c470ff    ...p    MOVT     r0,#0x47ff
        0x00018a0e:    6800        .h      LDR      r0,[r0,#0]
        0x00018a10:    9801        ..      LDR      r0,[sp,#4]
        0x00018a12:    f000f8f9    ....    BL       am_hal_interrupt_master_set ; 0x18c08
        0x00018a16:    2000        .       MOVS     r0,#0
        0x00018a18:    b002        ..      ADD      sp,sp,#8
        0x00018a1a:    bdb0        ..      POP      {r4,r5,r7,pc}
    am_hal_daxi_control
        0x00018a1c:    b510        ..      PUSH     {r4,lr}
        0x00018a1e:    b082        ..      SUB      sp,sp,#8
        0x00018a20:    2803        .(      CMP      r0,#3
        0x00018a22:    d821        !.      BHI      0x18a68 ; am_hal_daxi_control + 76
        0x00018a24:    e8dff000    ....    TBB      [pc,r0]
    $d.9
        0x00018a28:    19142202    ."..    DCD    420749826
    $t.10
        0x00018a2c:    2054        T       MOVS     r0,#0x54
        0x00018a2e:    f6c40000    ....    MOVT     r0,#0x4800
        0x00018a32:    f8501c04    P...    LDR      r1,[r0,#-4]
        0x00018a36:    0749        I.      LSLS     r1,r1,#29
        0x00018a38:    d438        8.      BMI      0x18aac ; am_hal_daxi_control + 144
        0x00018a3a:    f3bf8f4f    ..O.    DSB      
        0x00018a3e:    6801        .h      LDR      r1,[r0,#0]
        0x00018a40:    f0410102    A...    ORR      r1,r1,#2
        0x00018a44:    6001        .`      STR      r1,[r0,#0]
        0x00018a46:    2000        .       MOVS     r0,#0
        0x00018a48:    f2c470ff    ...p    MOVT     r0,#0x47ff
        0x00018a4c:    6800        .h      LDR      r0,[r0,#0]
        0x00018a4e:    e02d        -.      B        0x18aac ; am_hal_daxi_control + 144
        0x00018a50:    2000        .       MOVS     r0,#0
        0x00018a52:    2400        .$      MOVS     r4,#0
        0x00018a54:    f7ffffaf    ....    BL       am_hal_daxi_config ; 0x189b6
        0x00018a58:    e029        ).      B        0x18aae ; am_hal_daxi_control + 146
        0x00018a5a:    f2400000    @...    MOVW     r0,#0
        0x00018a5e:    f2c10000    ....    MOVT     r0,#0x1000
        0x00018a62:    f7ffffa8    ....    BL       am_hal_daxi_config ; 0x189b6
        0x00018a66:    e021        !.      B        0x18aac ; am_hal_daxi_control + 144
        0x00018a68:    2406        .$      MOVS     r4,#6
        0x00018a6a:    e020         .      B        0x18aae ; am_hal_daxi_control + 146
        0x00018a6c:    2454        T$      MOVS     r4,#0x54
        0x00018a6e:    f6c40400    ....    MOVT     r4,#0x4800
        0x00018a72:    f000f8c5    ....    BL       am_hal_interrupt_master_disable ; 0x18c00
        0x00018a76:    9001        ..      STR      r0,[sp,#4]
        0x00018a78:    f8540c04    T...    LDR      r0,[r4,#-4]
        0x00018a7c:    0740        @.      LSLS     r0,r0,#29
        0x00018a7e:    d40f        ..      BMI      0x18aa0 ; am_hal_daxi_control + 132
        0x00018a80:    f3bf8f4f    ..O.    DSB      
        0x00018a84:    6820         h      LDR      r0,[r4,#0]
        0x00018a86:    f0400001    @...    ORR      r0,r0,#1
        0x00018a8a:    6020         `      STR      r0,[r4,#0]
        0x00018a8c:    2000        .       MOVS     r0,#0
        0x00018a8e:    f2c470ff    ...p    MOVT     r0,#0x47ff
        0x00018a92:    6801        .h      LDR      r1,[r0,#0]
        0x00018a94:    6821        !h      LDR      r1,[r4,#0]
        0x00018a96:    f0410102    A...    ORR      r1,r1,#2
        0x00018a9a:    6021        !`      STR      r1,[r4,#0]
        0x00018a9c:    6800        .h      LDR      r0,[r0,#0]
        0x00018a9e:    bf00        ..      NOP      
        0x00018aa0:    6820         h      LDR      r0,[r4,#0]
        0x00018aa2:    0740        @.      LSLS     r0,r0,#29
        0x00018aa4:    d5fc        ..      BPL      0x18aa0 ; am_hal_daxi_control + 132
        0x00018aa6:    9801        ..      LDR      r0,[sp,#4]
        0x00018aa8:    f000f8ae    ....    BL       am_hal_interrupt_master_set ; 0x18c08
        0x00018aac:    2400        .$      MOVS     r4,#0
        0x00018aae:    4620         F      MOV      r0,r4
        0x00018ab0:    b002        ..      ADD      sp,sp,#8
        0x00018ab2:    bd10        ..      POP      {r4,pc}
    am_hal_delay_us
        0x00018ab4:    f2410100    A...    MOVW     r1,#0x1000
        0x00018ab8:    f2c40102    ....    MOVT     r1,#0x4002
        0x00018abc:    6809        .h      LDR      r1,[r1,#0]
        0x00018abe:    2205        ."      MOVS     r2,#5
        0x00018ac0:    f0010118    ....    AND      r1,r1,#0x18
        0x00018ac4:    2910        .)      CMP      r1,#0x10
        0x00018ac6:    bf08        ..      IT       EQ
        0x00018ac8:    2206        ."      MOVEQ    r2,#6
        0x00018aca:    fa00f002    ....    LSL      r0,r0,r2
        0x00018ace:    f04f010f    O...    MOV      r1,#0xf
        0x00018ad2:    bf08        ..      IT       EQ
        0x00018ad4:    2115        .!      MOVEQ    r1,#0x15
        0x00018ad6:    4281        .B      CMP      r1,r0
        0x00018ad8:    bf28        (.      IT       CS
        0x00018ada:    4770        pG      BXCS     lr
        0x00018adc:    1a40        @.      SUBS     r0,r0,r1
        0x00018ade:    f64a3128    J.(1    MOV      r1,#0xab28
        0x00018ae2:    f2c00101    ....    MOVT     r1,#1
        0x00018ae6:    6a49        Ij      LDR      r1,[r1,#0x24]
        0x00018ae8:    4708        .G      BX       r1
        0x00018aea:    0000        ..      MOVS     r0,r0
    am_hal_delay_us_status_change
        0x00018aec:    e92d43f0    -..C    PUSH     {r4-r9,lr}
        0x00018af0:    b081        ..      SUB      sp,sp,#4
        0x00018af2:    460d        .F      MOV      r5,r1
        0x00018af4:    6809        .h      LDR      r1,[r1,#0]
        0x00018af6:    4011        .@      ANDS     r1,r1,r2
        0x00018af8:    4299        .B      CMP      r1,r3
        0x00018afa:    d01b        ..      BEQ      0x18b34 ; am_hal_delay_us_status_change + 72
        0x00018afc:    f64a3128    J.(1    MOV      r1,#0xab28
        0x00018b00:    f2c00101    ....    MOVT     r1,#1
        0x00018b04:    6a4f        Oj      LDR      r7,[r1,#0x24]
        0x00018b06:    f2410900    A...    MOVW     r9,#0x1000
        0x00018b0a:    4698        .F      MOV      r8,r3
        0x00018b0c:    4616        .F      MOV      r6,r2
        0x00018b0e:    1c44        D.      ADDS     r4,r0,#1
        0x00018b10:    f2c40902    ....    MOVT     r9,#0x4002
        0x00018b14:    3c01        .<      SUBS     r4,#1
        0x00018b16:    d00f        ..      BEQ      0x18b38 ; am_hal_delay_us_status_change + 76
        0x00018b18:    f8d90000    ....    LDR      r0,[r9,#0]
        0x00018b1c:    f0000018    ....    AND      r0,r0,#0x18
        0x00018b20:    2810        .(      CMP      r0,#0x10
        0x00018b22:    f04f0011    O...    MOV      r0,#0x11
        0x00018b26:    bf08        ..      IT       EQ
        0x00018b28:    202b        +       MOVEQ    r0,#0x2b
        0x00018b2a:    47b8        .G      BLX      r7
        0x00018b2c:    6828        (h      LDR      r0,[r5,#0]
        0x00018b2e:    4030        0@      ANDS     r0,r0,r6
        0x00018b30:    4540        @E      CMP      r0,r8
        0x00018b32:    d1ef        ..      BNE      0x18b14 ; am_hal_delay_us_status_change + 40
        0x00018b34:    2000        .       MOVS     r0,#0
        0x00018b36:    e000        ..      B        0x18b3a ; am_hal_delay_us_status_change + 78
        0x00018b38:    2004        .       MOVS     r0,#4
        0x00018b3a:    b001        ..      ADD      sp,sp,#4
        0x00018b3c:    e8bd83f0    ....    POP      {r4-r9,pc}
    am_hal_delay_us_status_check
        0x00018b40:    e92d47f0    -..G    PUSH     {r4-r10,lr}
        0x00018b44:    4607        .F      MOV      r7,r0
        0x00018b46:    f64a3028    J.(0    MOV      r0,#0xab28
        0x00018b4a:    f2c00001    ....    MOVT     r0,#1
        0x00018b4e:    f8dd8020    .. .    LDR      r8,[sp,#0x20]
        0x00018b52:    6a44        Dj      LDR      r4,[r0,#0x24]
        0x00018b54:    f2410a00    A...    MOVW     r10,#0x1000
        0x00018b58:    4699        .F      MOV      r9,r3
        0x00018b5a:    4615        .F      MOV      r5,r2
        0x00018b5c:    460e        .F      MOV      r6,r1
        0x00018b5e:    f2c40a02    ....    MOVT     r10,#0x4002
        0x00018b62:    bf00        ..      NOP      
        0x00018b64:    6830        0h      LDR      r0,[r6,#0]
        0x00018b66:    f1b80f00    ....    CMP      r8,#0
        0x00018b6a:    ea000005    ....    AND      r0,r0,r5
        0x00018b6e:    d003        ..      BEQ      0x18b78 ; am_hal_delay_us_status_check + 56
        0x00018b70:    4548        HE      CMP      r0,r9
        0x00018b72:    d103        ..      BNE      0x18b7c ; am_hal_delay_us_status_check + 60
        0x00018b74:    e00f        ..      B        0x18b96 ; am_hal_delay_us_status_check + 86
        0x00018b76:    bf00        ..      NOP      
        0x00018b78:    4548        HE      CMP      r0,r9
        0x00018b7a:    d10c        ..      BNE      0x18b96 ; am_hal_delay_us_status_check + 86
        0x00018b7c:    b177        w.      CBZ      r7,0x18b9c ; am_hal_delay_us_status_check + 92
        0x00018b7e:    f8da0000    ....    LDR      r0,[r10,#0]
        0x00018b82:    3f01        .?      SUBS     r7,#1
        0x00018b84:    f0000018    ....    AND      r0,r0,#0x18
        0x00018b88:    2810        .(      CMP      r0,#0x10
        0x00018b8a:    f04f0011    O...    MOV      r0,#0x11
        0x00018b8e:    bf08        ..      IT       EQ
        0x00018b90:    202b        +       MOVEQ    r0,#0x2b
        0x00018b92:    47a0        .G      BLX      r4
        0x00018b94:    e7e6        ..      B        0x18b64 ; am_hal_delay_us_status_check + 36
        0x00018b96:    2000        .       MOVS     r0,#0
        0x00018b98:    e8bd87f0    ....    POP      {r4-r10,pc}
        0x00018b9c:    2004        .       MOVS     r0,#4
        0x00018b9e:    e8bd87f0    ....    POP      {r4-r10,pc}
        0x00018ba2:    0000        ..      MOVS     r0,r0
    am_hal_gpio_pinconfig
        0x00018ba4:    b081        ..      SUB      sp,sp,#4
        0x00018ba6:    287f        .(      CMP      r0,#0x7f
        0x00018ba8:    9100        ..      STR      r1,[sp,#0]
        0x00018baa:    d901        ..      BLS      0x18bb0 ; am_hal_gpio_pinconfig + 12
        0x00018bac:    2005        .       MOVS     r0,#5
        0x00018bae:    e01c        ..      B        0x18bea ; am_hal_gpio_pinconfig + 70
        0x00018bb0:    0509        ..      LSLS     r1,r1,#20
        0x00018bb2:    d508        ..      BPL      0x18bc6 ; am_hal_gpio_pinconfig + 34
        0x00018bb4:    0941        A.      LSRS     r1,r0,#5
        0x00018bb6:    a20e        ..      ADR      r2,{pc}+0x3a ; 0x18bf0
        0x00018bb8:    f8521021    R.!.    LDR      r1,[r2,r1,LSL #2]
        0x00018bbc:    f000021f    ....    AND      r2,r0,#0x1f
        0x00018bc0:    40d1        .@      LSRS     r1,r1,r2
        0x00018bc2:    07c9        ..      LSLS     r1,r1,#31
        0x00018bc4:    d010        ..      BEQ      0x18be8 ; am_hal_gpio_pinconfig + 68
        0x00018bc6:    f2402100    @..!    MOVW     r1,#0x200
        0x00018bca:    f2c40101    ....    MOVT     r1,#0x4001
        0x00018bce:    2273        s"      MOVS     r2,#0x73
        0x00018bd0:    600a        .`      STR      r2,[r1,#0]
        0x00018bd2:    9a00        ..      LDR      r2,[sp,#0]
        0x00018bd4:    f64f6300    O..c    MOVW     r3,#0xfe00
        0x00018bd8:    eb010080    ....    ADD      r0,r1,r0,LSL #2
        0x00018bdc:    f6cf73ff    ...s    MOVT     r3,#0xffff
        0x00018be0:    50c2        .P      STR      r2,[r0,r3]
        0x00018be2:    2000        .       MOVS     r0,#0
        0x00018be4:    6008        .`      STR      r0,[r1,#0]
        0x00018be6:    e000        ..      B        0x18bea ; am_hal_gpio_pinconfig + 70
        0x00018be8:    2007        .       MOVS     r0,#7
        0x00018bea:    b001        ..      ADD      sp,sp,#4
        0x00018bec:    4770        pG      BX       lr
        0x00018bee:    bf00        ..      NOP      
    $d.2
    g_ui32DSpintbl
        0x00018bf0:    8fc007e0    ....    DCD    2411726816
        0x00018bf4:    e3fbffff    ....    DCD    3824943103
        0x00018bf8:    01ffffff    ....    DCD    33554431
        0x00018bfc:    00000000    ....    DCD    0
    $t.1
    am_hal_interrupt_master_disable
        0x00018c00:    f3ef8010    ....    MRS      r0,PRIMASK
        0x00018c04:    b672        r.      CPSID    i
        0x00018c06:    4770        pG      BX       lr
    am_hal_interrupt_master_set
        0x00018c08:    f3808810    ....    MSR      PRIMASK,r0
        0x00018c0c:    4770        pG      BX       lr
        0x00018c0e:    0000        ..      MOVS     r0,r0
    am_hal_mram_info_read
        0x00018c10:    2801        .(      CMP      r0,#1
        0x00018c12:    d00e        ..      BEQ      0x18c32 ; am_hal_mram_info_read + 34
        0x00018c14:    bb50        P.      CBNZ     r0,0x18c6c ; am_hal_mram_info_read + 92
        0x00018c16:    2000        .       MOVS     r0,#0
        0x00018c18:    ebb02f51    ..Q/    CMP      r0,r1,LSR #9
        0x00018c1c:    f04f0002    O...    MOV      r0,#2
        0x00018c20:    d123        #.      BNE      0x18c6a ; am_hal_mram_info_read + 90
        0x00018c22:    eb020c01    ....    ADD      r12,r2,r1
        0x00018c26:    f5bc7f00    ....    CMP      r12,#0x200
        0x00018c2a:    d81e        ..      BHI      0x18c6a ; am_hal_mram_info_read + 90
        0x00018c2c:    f04f4084    O..@    MOV      r0,#0x42000000
        0x00018c30:    e010        ..      B        0x18c54 ; am_hal_mram_info_read + 68
        0x00018c32:    f5a16090    ...`    SUB      r0,r1,#0x480
        0x00018c36:    09c0        ..      LSRS     r0,r0,#7
        0x00018c38:    2802        .(      CMP      r0,#2
        0x00018c3a:    f04f0002    O...    MOV      r0,#2
        0x00018c3e:    d814        ..      BHI      0x18c6a ; am_hal_mram_info_read + 90
        0x00018c40:    eb020c01    ....    ADD      r12,r2,r1
        0x00018c44:    f5bc6fc0    ...o    CMP      r12,#0x600
        0x00018c48:    bf88        ..      IT       HI
        0x00018c4a:    4770        pG      BXHI     lr
        0x00018c4c:    f2420000    B...    MOVW     r0,#0x2000
        0x00018c50:    f2c42000    ...     MOVT     r0,#0x4200
        0x00018c54:    b142        B.      CBZ      r2,0x18c68 ; am_hal_mram_info_read + 88
        0x00018c56:    eb000081    ....    ADD      r0,r0,r1,LSL #2
        0x00018c5a:    bf00        ..      NOP      
        0x00018c5c:    f8501b04    P...    LDR      r1,[r0],#4
        0x00018c60:    3a01        .:      SUBS     r2,#1
        0x00018c62:    f8431b04    C...    STR      r1,[r3],#4
        0x00018c66:    d1f9        ..      BNE      0x18c5c ; am_hal_mram_info_read + 76
        0x00018c68:    2000        .       MOVS     r0,#0
        0x00018c6a:    4770        pG      BX       lr
        0x00018c6c:    2001        .       MOVS     r0,#1
        0x00018c6e:    4770        pG      BX       lr
    am_hal_pwrctrl_control
        0x00018c70:    b510        ..      PUSH     {r4,lr}
        0x00018c72:    b082        ..      SUB      sp,sp,#8
        0x00018c74:    2200        ."      MOVS     r2,#0
        0x00018c76:    2804        .(      CMP      r0,#4
        0x00018c78:    9201        ..      STR      r2,[sp,#4]
        0x00018c7a:    f20080a3    ....    BHI.W    0x18dc4 ; am_hal_pwrctrl_control + 340
        0x00018c7e:    e8dff000    ....    TBB      [pc,r0]
    $d.22
        0x00018c82:    a303        ..      DCW    41731
        0x00018c84:    009a9387    ....    DCD    10130311
    $t.23
        0x00018c88:    f2401420    @. .    MOVW     r4,#0x120
        0x00018c8c:    a801        ..      ADD      r0,sp,#4
        0x00018c8e:    f2c40402    ....    MOVT     r4,#0x4002
        0x00018c92:    f7fffbe0    ....    BL       TrimVersionGet ; 0x18456
        0x00018c96:    9801        ..      LDR      r0,[sp,#4]
        0x00018c98:    2802        .(      CMP      r0,#2
        0x00018c9a:    d831        1.      BHI      0x18d00 ; am_hal_pwrctrl_control + 144
        0x00018c9c:    f8d41258    ..X.    LDR      r1,[r4,#0x258]
        0x00018ca0:    220a        ."      MOVS     r2,#0xa
        0x00018ca2:    f02151f8    !..Q    BIC      r1,r1,#0x1f000000
        0x00018ca6:    f8c41258    ..X.    STR      r1,[r4,#0x258]
        0x00018caa:    f8d41238    ..8.    LDR      r1,[r4,#0x238]
        0x00018cae:    f42101f8    !...    BIC      r1,r1,#0x7c0000
        0x00018cb2:    f8c41238    ..8.    STR      r1,[r4,#0x238]
        0x00018cb6:    f8d41224    ..$.    LDR      r1,[r4,#0x224]
        0x00018cba:    f362611c    b..a    BFI      r1,r2,#24,#5
        0x00018cbe:    f8c41224    ..$.    STR      r1,[r4,#0x224]
        0x00018cc2:    f8d41224    ..$.    LDR      r1,[r4,#0x224]
        0x00018cc6:    f36221ce    b..!    BFI      r1,r2,#11,#4
        0x00018cca:    f8c41224    ..$.    STR      r1,[r4,#0x224]
        0x00018cce:    f8d41238    ..8.    LDR      r1,[r4,#0x238]
        0x00018cd2:    220f        ."      MOVS     r2,#0xf
        0x00018cd4:    f362210c    b..!    BFI      r1,r2,#8,#5
        0x00018cd8:    f8c41238    ..8.    STR      r1,[r4,#0x238]
        0x00018cdc:    f8d41234    ..4.    LDR      r1,[r4,#0x234]
        0x00018ce0:    f44111f0    A...    ORR      r1,r1,#0x1e0000
        0x00018ce4:    f8c41234    ..4.    STR      r1,[r4,#0x234]
        0x00018ce8:    f8d41240    ..@.    LDR      r1,[r4,#0x240]
        0x00018cec:    f362519a    b..Q    BFI      r1,r2,#22,#5
        0x00018cf0:    f8c41240    ..@.    STR      r1,[r4,#0x240]
        0x00018cf4:    f8d41240    ..@.    LDR      r1,[r4,#0x240]
        0x00018cf8:    f44111f0    A...    ORR      r1,r1,#0x1e0000
        0x00018cfc:    f8c41240    ..@.    STR      r1,[r4,#0x240]
        0x00018d00:    f8d41228    ..(.    LDR      r1,[r4,#0x228]
        0x00018d04:    220a        ."      MOVS     r2,#0xa
        0x00018d06:    f362619d    b..a    BFI      r1,r2,#26,#4
        0x00018d0a:    f8c41228    ..(.    STR      r1,[r4,#0x228]
        0x00018d0e:    f8d41228    ..(.    LDR      r1,[r4,#0x228]
        0x00018d12:    2802        .(      CMP      r0,#2
        0x00018d14:    f3623150    b.P1    BFI      r1,r2,#13,#4
        0x00018d18:    f8c41228    ..(.    STR      r1,[r4,#0x228]
        0x00018d1c:    f8d4123c    ..<.    LDR      r1,[r4,#0x23c]
        0x00018d20:    f2400214    @...    MOVW     r2,#0x14
        0x00018d24:    f0417170    A.pq    ORR      r1,r1,#0x3c00000
        0x00018d28:    f8c4123c    ..<.    STR      r1,[r4,#0x23c]
        0x00018d2c:    f8d4123c    ..<.    LDR      r1,[r4,#0x23c]
        0x00018d30:    f2c10200    ....    MOVT     r2,#0x1000
        0x00018d34:    f44151f0    A..Q    ORR      r1,r1,#0x1e00
        0x00018d38:    f8c4123c    ..<.    STR      r1,[r4,#0x23c]
        0x00018d3c:    f8d41260    ..`.    LDR      r1,[r4,#0x260]
        0x00018d40:    f0414100    A..A    ORR      r1,r1,#0x80000000
        0x00018d44:    f8c41260    ..`.    STR      r1,[r4,#0x260]
        0x00018d48:    f8d41260    ..`.    LDR      r1,[r4,#0x260]
        0x00018d4c:    f0414180    A..A    ORR      r1,r1,#0x40000000
        0x00018d50:    f8c41260    ..`.    STR      r1,[r4,#0x260]
        0x00018d54:    f8d41250    ..P.    LDR      r1,[r4,#0x250]
        0x00018d58:    f3c15105    ...Q    UBFX     r1,r1,#20,#6
        0x00018d5c:    6011        .`      STR      r1,[r2,#0]
        0x00018d5e:    f8d41250    ..P.    LDR      r1,[r4,#0x250]
        0x00018d62:    f021717c    !.|q    BIC      r1,r1,#0x3f00000
        0x00018d66:    f8c41250    ..P.    STR      r1,[r4,#0x250]
        0x00018d6a:    f04f0107    O...    MOV      r1,#7
        0x00018d6e:    f8c4121c    ....    STR      r1,[r4,#0x21c]
        0x00018d72:    d837        7.      BHI      0x18de4 ; am_hal_pwrctrl_control + 372
        0x00018d74:    f8d40220    .. .    LDR      r0,[r4,#0x220]
        0x00018d78:    2101        .!      MOVS     r1,#1
        0x00018d7a:    f0207070     .pp    BIC      r0,r0,#0x3c00000
        0x00018d7e:    f8c40220    .. .    STR      r0,[r4,#0x220]
        0x00018d82:    f8d40220    .. .    LDR      r0,[r4,#0x220]
        0x00018d86:    f361108a    a...    BFI      r0,r1,#6,#5
        0x00018d8a:    f8c40220    .. .    STR      r0,[r4,#0x220]
        0x00018d8e:    e034        4.      B        0x18dfa ; am_hal_pwrctrl_control + 394
        0x00018d90:    f2401020    @. .    MOVW     r0,#0x120
        0x00018d94:    f2c40002    ....    MOVT     r0,#0x4002
        0x00018d98:    6841        Ah      LDR      r1,[r0,#4]
        0x00018d9a:    2220         "      MOVS     r2,#0x20
        0x00018d9c:    f3620187    b...    BFI      r1,r2,#2,#6
        0x00018da0:    6041        A`      STR      r1,[r0,#4]
        0x00018da2:    2101        .!      MOVS     r1,#1
        0x00018da4:    6001        .`      STR      r1,[r0,#0]
        0x00018da6:    e03a        :.      B        0x18e1e ; am_hal_pwrctrl_control + 430
        0x00018da8:    f2410104    A...    MOV      r1,#0x1004
        0x00018dac:    f2c40102    ....    MOVT     r1,#0x4002
        0x00018db0:    2000        .       MOVS     r0,#0
        0x00018db2:    6008        .`      STR      r0,[r1,#0]
        0x00018db4:    e034        4.      B        0x18e20 ; am_hal_pwrctrl_control + 432
        0x00018db6:    b129        ).      CBZ      r1,0x18dc4 ; am_hal_pwrctrl_control + 340
        0x00018db8:    f240307c    @.|0    MOVW     r0,#0x37c
        0x00018dbc:    f2c10000    ....    MOVT     r0,#0x1000
        0x00018dc0:    6800        .h      LDR      r0,[r0,#0]
        0x00018dc2:    6008        .`      STR      r0,[r1,#0]
        0x00018dc4:    2006        .       MOVS     r0,#6
        0x00018dc6:    e02b        +.      B        0x18e20 ; am_hal_pwrctrl_control + 432
        0x00018dc8:    f2410004    A...    MOV      r0,#0x1004
        0x00018dcc:    f2c40002    ....    MOVT     r0,#0x4002
        0x00018dd0:    6840        @h      LDR      r0,[r0,#4]
        0x00018dd2:    02c0        ..      LSLS     r0,r0,#11
        0x00018dd4:    d523        #.      BPL      0x18e1e ; am_hal_pwrctrl_control + 430
        0x00018dd6:    2014        .       MOVS     r0,#0x14
        0x00018dd8:    f000f96b    ..k.    BL       am_hal_pwrctrl_periph_disable ; 0x190b2
        0x00018ddc:    2800        .(      CMP      r0,#0
        0x00018dde:    bf08        ..      IT       EQ
        0x00018de0:    2000        .       MOVEQ    r0,#0
        0x00018de2:    e01d        ..      B        0x18e20 ; am_hal_pwrctrl_control + 432
        0x00018de4:    2806        .(      CMP      r0,#6
        0x00018de6:    d308        ..      BCC      0x18dfa ; am_hal_pwrctrl_control + 394
        0x00018de8:    200f        .       MOVS     r0,#0xf
        0x00018dea:    f8c4021c    ....    STR      r0,[r4,#0x21c]
        0x00018dee:    f8d40090    ....    LDR      r0,[r4,#0x90]
        0x00018df2:    f0200018     ...    BIC      r0,r0,#0x18
        0x00018df6:    f8c40090    ....    STR      r0,[r4,#0x90]
        0x00018dfa:    f2410004    A...    MOV      r0,#0x1004
        0x00018dfe:    f2c40002    ....    MOVT     r0,#0x4002
        0x00018e02:    f8d010fc    ....    LDR      r1,[r0,#0xfc]
        0x00018e06:    f0410101    A...    ORR      r1,r1,#1
        0x00018e0a:    f8c010fc    ....    STR      r1,[r0,#0xfc]
        0x00018e0e:    f8d40258    ..X.    LDR      r0,[r4,#0x258]
        0x00018e12:    f0404000    @..@    ORR      r0,r0,#0x80000000
        0x00018e16:    f8c40258    ..X.    STR      r0,[r4,#0x258]
        0x00018e1a:    f001f8db    ....    BL       buck_ldo_override_init ; 0x19fd4
        0x00018e1e:    2000        .       MOVS     r0,#0
        0x00018e20:    b002        ..      ADD      sp,sp,#8
        0x00018e22:    bd10        ..      POP      {r4,pc}
    am_hal_pwrctrl_low_power_init
        0x00018e24:    b570        p.      PUSH     {r4-r6,lr}
        0x00018e26:    b082        ..      SUB      sp,sp,#8
        0x00018e28:    f64f60c8    O..`    MOV      r0,#0xfec8
        0x00018e2c:    f2411540    A.@.    MOVW     r5,#0x1140
        0x00018e30:    f6cf70ff    ...p    MOVT     r0,#0xffff
        0x00018e34:    f2c40502    ....    MOVT     r5,#0x4002
        0x00018e38:    5828        (X      LDR      r0,[r5,r0]
        0x00018e3a:    f2403158    @.X1    MOVW     r1,#0x358
        0x00018e3e:    f3c05000    ...P    UBFX     r0,r0,#20,#1
        0x00018e42:    f2c10100    ....    MOVT     r1,#0x1000
        0x00018e46:    7008        .p      STRB     r0,[r1,#0]
        0x00018e48:    f64a301c    J..0    MOV      r0,#0xab1c
        0x00018e4c:    2444        D$      MOVS     r4,#0x44
        0x00018e4e:    f2c00001    ....    MOVT     r0,#1
        0x00018e52:    f2c40402    ....    MOVT     r4,#0x4002
        0x00018e56:    f000f8af    ....    BL       am_hal_pwrctrl_mcu_memory_config ; 0x18fb8
        0x00018e5a:    f64a3022    J."0    MOV      r0,#0xab22
        0x00018e5e:    f2c00001    ....    MOVT     r0,#1
        0x00018e62:    f000fa0f    ....    BL       am_hal_pwrctrl_sram_config ; 0x19284
        0x00018e66:    f2440644    D.D.    MOV      r6,#0x4044
        0x00018e6a:    f2c40600    ....    MOVT     r6,#0x4000
        0x00018e6e:    6830        0h      LDR      r0,[r6,#0]
        0x00018e70:    f440007c    @.|.    ORR      r0,r0,#0xfc0000
        0x00018e74:    6030        0`      STR      r0,[r6,#0]
        0x00018e76:    2000        .       MOVS     r0,#0
        0x00018e78:    6028        (`      STR      r0,[r5,#0]
        0x00018e7a:    6068        h`      STR      r0,[r5,#4]
        0x00018e7c:    60a8        .`      STR      r0,[r5,#8]
        0x00018e7e:    60e8        .`      STR      r0,[r5,#0xc]
        0x00018e80:    6128        (a      STR      r0,[r5,#0x10]
        0x00018e82:    6168        ha      STR      r0,[r5,#0x14]
        0x00018e84:    61a8        .a      STR      r0,[r5,#0x18]
        0x00018e86:    61e8        .a      STR      r0,[r5,#0x1c]
        0x00018e88:    6228        (b      STR      r0,[r5,#0x20]
        0x00018e8a:    6268        hb      STR      r0,[r5,#0x24]
        0x00018e8c:    62a8        .b      STR      r0,[r5,#0x28]
        0x00018e8e:    62e8        .b      STR      r0,[r5,#0x2c]
        0x00018e90:    6328        (c      STR      r0,[r5,#0x30]
        0x00018e92:    6368        hc      STR      r0,[r5,#0x34]
        0x00018e94:    63a8        .c      STR      r0,[r5,#0x38]
        0x00018e96:    63e8        .c      STR      r0,[r5,#0x3c]
        0x00018e98:    6428        (d      STR      r0,[r5,#0x40]
        0x00018e9a:    6468        hd      STR      r0,[r5,#0x44]
        0x00018e9c:    64a8        .d      STR      r0,[r5,#0x48]
        0x00018e9e:    f64a00f3    J...    MOV      r0,#0xa8f3
        0x00018ea2:    f2c00001    ....    MOVT     r0,#1
        0x00018ea6:    f7fffd86    ....    BL       am_hal_daxi_config ; 0x189b6
        0x00018eaa:    2064        d       MOVS     r0,#0x64
        0x00018eac:    f7fffe02    ....    BL       am_hal_delay_us ; 0x18ab4
        0x00018eb0:    6830        0h      LDR      r0,[r6,#0]
        0x00018eb2:    2104        .!      MOVS     r1,#4
        0x00018eb4:    f0400040    @.@.    ORR      r0,r0,#0x40
        0x00018eb8:    6030        0`      STR      r0,[r6,#0]
        0x00018eba:    f8d40338    ..8.    LDR      r0,[r4,#0x338]
        0x00018ebe:    f04060b0    @..`    ORR      r0,r0,#0x5800000
        0x00018ec2:    f44000fd    @...    ORR      r0,r0,#0x7e8000
        0x00018ec6:    f8c40338    ..8.    STR      r0,[r4,#0x338]
        0x00018eca:    f8d40400    ....    LDR      r0,[r4,#0x400]
        0x00018ece:    f361200f    a..     BFI      r0,r1,#8,#8
        0x00018ed2:    f2403159    @.Y1    MOV      r1,#0x359
        0x00018ed6:    f8c40400    ....    STR      r0,[r4,#0x400]
        0x00018eda:    f2c10100    ....    MOVT     r1,#0x1000
        0x00018ede:    7808        .x      LDRB     r0,[r1,#0]
        0x00018ee0:    2801        .(      CMP      r0,#1
        0x00018ee2:    d10a        ..      BNE      0x18efa ; am_hal_pwrctrl_low_power_init + 214
        0x00018ee4:    f2403064    @.d0    MOVW     r0,#0x364
        0x00018ee8:    f2403170    @.p1    MOVW     r1,#0x370
        0x00018eec:    f2c10000    ....    MOVT     r0,#0x1000
        0x00018ef0:    f2c10100    ....    MOVT     r1,#0x1000
        0x00018ef4:    6800        .h      LDR      r0,[r0,#0]
        0x00018ef6:    680a        .h      LDR      r2,[r1,#0]
        0x00018ef8:    e032        2.      B        0x18f60 ; am_hal_pwrctrl_low_power_init + 316
        0x00018efa:    f8d40328    ..(.    LDR      r0,[r4,#0x328]
        0x00018efe:    f2403264    @.d2    MOVW     r2,#0x364
        0x00018f02:    f3c05005    ...P    UBFX     r0,r0,#20,#6
        0x00018f06:    f2c10200    ....    MOVT     r2,#0x1000
        0x00018f0a:    6010        .`      STR      r0,[r2,#0]
        0x00018f0c:    6c62        bl      LDR      r2,[r4,#0x44]
        0x00018f0e:    f2403370    @.p3    MOVW     r3,#0x370
        0x00018f12:    f002023f    ..?.    AND      r2,r2,#0x3f
        0x00018f16:    f2c10300    ....    MOVT     r3,#0x1000
        0x00018f1a:    601a        .`      STR      r2,[r3,#0]
        0x00018f1c:    f8d43328    ..(3    LDR      r3,[r4,#0x328]
        0x00018f20:    f240366c    @.l6    MOVW     r6,#0x36c
        0x00018f24:    0e9b        ..      LSRS     r3,r3,#26
        0x00018f26:    f2c10600    ....    MOVT     r6,#0x1000
        0x00018f2a:    6033        3`      STR      r3,[r6,#0]
        0x00018f2c:    6c63        cl      LDR      r3,[r4,#0x44]
        0x00018f2e:    f2403674    @.t6    MOVW     r6,#0x374
        0x00018f32:    f3c34385    ...C    UBFX     r3,r3,#18,#6
        0x00018f36:    f2c10600    ....    MOVT     r6,#0x1000
        0x00018f3a:    6033        3`      STR      r3,[r6,#0]
        0x00018f3c:    6823        #h      LDR      r3,[r4,#0]
        0x00018f3e:    f2403678    @.x6    MOVW     r6,#0x378
        0x00018f42:    f3c313c6    ....    UBFX     r3,r3,#7,#7
        0x00018f46:    f2c10600    ....    MOVT     r6,#0x1000
        0x00018f4a:    6033        3`      STR      r3,[r6,#0]
        0x00018f4c:    6be3        .k      LDR      r3,[r4,#0x3c]
        0x00018f4e:    f2403668    @.h6    MOVW     r6,#0x368
        0x00018f52:    f36f239f    o..#    BFC      r3,#10,#22
        0x00018f56:    f2c10600    ....    MOVT     r6,#0x1000
        0x00018f5a:    6033        3`      STR      r3,[r6,#0]
        0x00018f5c:    2301        .#      MOVS     r3,#1
        0x00018f5e:    700b        .p      STRB     r3,[r1,#0]
        0x00018f60:    f2403160    @.`1    MOVW     r1,#0x360
        0x00018f64:    f2c10100    ....    MOVT     r1,#0x1000
        0x00018f68:    6008        .`      STR      r0,[r1,#0]
        0x00018f6a:    f240305c    @.\0    MOVW     r0,#0x35c
        0x00018f6e:    f2c10000    ....    MOVT     r0,#0x1000
        0x00018f72:    f2404488    @..D    MOVW     r4,#0x488
        0x00018f76:    6002        .`      STR      r2,[r0,#0]
        0x00018f78:    f2c10400    ....    MOVT     r4,#0x1000
        0x00018f7c:    2000        .       MOVS     r0,#0
        0x00018f7e:    6020         `      STR      r0,[r4,#0]
        0x00018f80:    ab01        ..      ADD      r3,sp,#4
        0x00018f82:    2001        .       MOVS     r0,#1
        0x00018f84:    f44f6192    O..a    MOV      r1,#0x490
        0x00018f88:    2201        ."      MOVS     r2,#1
        0x00018f8a:    f7fffe41    ..A.    BL       am_hal_mram_info_read ; 0x18c10
        0x00018f8e:    b978        x.      CBNZ     r0,0x18fb0 ; am_hal_pwrctrl_low_power_init + 396
        0x00018f90:    9801        ..      LDR      r0,[sp,#4]
        0x00018f92:    f0100f06    ....    TST      r0,#6
        0x00018f96:    d003        ..      BEQ      0x18fa0 ; am_hal_pwrctrl_low_power_init + 380
        0x00018f98:    0781        ..      LSLS     r1,r0,#30
        0x00018f9a:    d403        ..      BMI      0x18fa4 ; am_hal_pwrctrl_low_power_init + 384
        0x00018f9c:    2006        .       MOVS     r0,#6
        0x00018f9e:    e006        ..      B        0x18fae ; am_hal_pwrctrl_low_power_init + 394
        0x00018fa0:    2003        .       MOVS     r0,#3
        0x00018fa2:    e004        ..      B        0x18fae ; am_hal_pwrctrl_low_power_init + 394
        0x00018fa4:    0740        @.      LSLS     r0,r0,#29
        0x00018fa6:    f04f0000    O...    MOV      r0,#0
        0x00018faa:    bf58        X.      IT       PL
        0x00018fac:    2009        .       MOVPL    r0,#9
        0x00018fae:    6020         `      STR      r0,[r4,#0]
        0x00018fb0:    2000        .       MOVS     r0,#0
        0x00018fb2:    b002        ..      ADD      sp,sp,#8
        0x00018fb4:    bd70        p.      POP      {r4-r6,pc}
        0x00018fb6:    0000        ..      MOVS     r0,r0
    am_hal_pwrctrl_mcu_memory_config
        0x00018fb8:    b570        p.      PUSH     {r4-r6,lr}
        0x00018fba:    b082        ..      SUB      sp,sp,#8
        0x00018fbc:    4606        .F      MOV      r6,r0
        0x00018fbe:    7800        .x      LDRB     r0,[r0,#0]
        0x00018fc0:    f2410514    A...    MOV      r5,#0x1014
        0x00018fc4:    2802        .(      CMP      r0,#2
        0x00018fc6:    f2c40502    ....    MOVT     r5,#0x4002
        0x00018fca:    d006        ..      BEQ      0x18fda ; am_hal_pwrctrl_mcu_memory_config + 34
        0x00018fcc:    2801        .(      CMP      r0,#1
        0x00018fce:    d00c        ..      BEQ      0x18fea ; am_hal_pwrctrl_mcu_memory_config + 50
        0x00018fd0:    b998        ..      CBNZ     r0,0x18ffa ; am_hal_pwrctrl_mcu_memory_config + 66
        0x00018fd2:    6828        (h      LDR      r0,[r5,#0]
        0x00018fd4:    f0200010     ...    BIC      r0,r0,#0x10
        0x00018fd8:    e00a        ..      B        0x18ff0 ; am_hal_pwrctrl_mcu_memory_config + 56
        0x00018fda:    6828        (h      LDR      r0,[r5,#0]
        0x00018fdc:    f0400010    @...    ORR      r0,r0,#0x10
        0x00018fe0:    6028        (`      STR      r0,[r5,#0]
        0x00018fe2:    6828        (h      LDR      r0,[r5,#0]
        0x00018fe4:    f0400020    @. .    ORR      r0,r0,#0x20
        0x00018fe8:    e006        ..      B        0x18ff8 ; am_hal_pwrctrl_mcu_memory_config + 64
        0x00018fea:    6828        (h      LDR      r0,[r5,#0]
        0x00018fec:    f0400010    @...    ORR      r0,r0,#0x10
        0x00018ff0:    6028        (`      STR      r0,[r5,#0]
        0x00018ff2:    6828        (h      LDR      r0,[r5,#0]
        0x00018ff4:    f0200020     . .    BIC      r0,r0,#0x20
        0x00018ff8:    6028        (`      STR      r0,[r5,#0]
        0x00018ffa:    78b0        .x      LDRB     r0,[r6,#2]
        0x00018ffc:    6829        )h      LDR      r1,[r5,#0]
        0x00018ffe:    2401        .$      MOVS     r4,#1
        0x00019000:    f3600102    `...    BFI      r1,r0,#0,#3
        0x00019004:    6029        )`      STR      r1,[r5,#0]
        0x00019006:    7930        0y      LDRB     r0,[r6,#4]
        0x00019008:    6829        )h      LDR      r1,[r5,#0]
        0x0001900a:    f000001f    ....    AND      r0,r0,#0x1f
        0x0001900e:    f0210108    !...    BIC      r1,r1,#8
        0x00019012:    ea4100c0    A...    ORR      r0,r1,r0,LSL #3
        0x00019016:    6028        (`      STR      r0,[r5,#0]
        0x00019018:    4629        )F      MOV      r1,r5
        0x0001901a:    f8513b04    Q..;    LDR      r3,[r1],#4
        0x0001901e:    2005        .       MOVS     r0,#5
        0x00019020:    223f        ?"      MOVS     r2,#0x3f
        0x00019022:    9400        ..      STR      r4,[sp,#0]
        0x00019024:    f7fffd8c    ....    BL       am_hal_delay_us_status_check ; 0x18b40
        0x00019028:    2800        .(      CMP      r0,#0
        0x0001902a:    d132        2.      BNE      0x19092 ; am_hal_pwrctrl_mcu_memory_config + 218
        0x0001902c:    6868        hh      LDR      r0,[r5,#4]
        0x0001902e:    6829        )h      LDR      r1,[r5,#0]
        0x00019030:    4048        H@      EORS     r0,r0,r1
        0x00019032:    06c0        ..      LSLS     r0,r0,#27
        0x00019034:    d42c        ,.      BMI      0x19090 ; am_hal_pwrctrl_mcu_memory_config + 216
        0x00019036:    6868        hh      LDR      r0,[r5,#4]
        0x00019038:    6829        )h      LDR      r1,[r5,#0]
        0x0001903a:    4048        H@      EORS     r0,r0,r1
        0x0001903c:    0680        ..      LSLS     r0,r0,#26
        0x0001903e:    d427        '.      BMI      0x19090 ; am_hal_pwrctrl_mcu_memory_config + 216
        0x00019040:    6868        hh      LDR      r0,[r5,#4]
        0x00019042:    6829        )h      LDR      r1,[r5,#0]
        0x00019044:    4048        H@      EORS     r0,r0,r1
        0x00019046:    0740        @.      LSLS     r0,r0,#29
        0x00019048:    d122        ".      BNE      0x19090 ; am_hal_pwrctrl_mcu_memory_config + 216
        0x0001904a:    6868        hh      LDR      r0,[r5,#4]
        0x0001904c:    6829        )h      LDR      r1,[r5,#0]
        0x0001904e:    4048        H@      EORS     r0,r0,r1
        0x00019050:    0700        ..      LSLS     r0,r0,#28
        0x00019052:    d41d        ..      BMI      0x19090 ; am_hal_pwrctrl_mcu_memory_config + 216
        0x00019054:    7870        px      LDRB     r0,[r6,#1]
        0x00019056:    68a9        .h      LDR      r1,[r5,#8]
        0x00019058:    2800        .(      CMP      r0,#0
        0x0001905a:    f0210110    !...    BIC      r1,r1,#0x10
        0x0001905e:    bf08        ..      IT       EQ
        0x00019060:    3110        .1      ADDEQ    r1,r1,#0x10
        0x00019062:    60a9        .`      STR      r1,[r5,#8]
        0x00019064:    7970        py      LDRB     r0,[r6,#5]
        0x00019066:    68a9        .h      LDR      r1,[r5,#8]
        0x00019068:    2800        .(      CMP      r0,#0
        0x0001906a:    f0210108    !...    BIC      r1,r1,#8
        0x0001906e:    bf08        ..      IT       EQ
        0x00019070:    3108        .1      ADDEQ    r1,r1,#8
        0x00019072:    60a9        .`      STR      r1,[r5,#8]
        0x00019074:    78f1        .x      LDRB     r1,[r6,#3]
        0x00019076:    2000        .       MOVS     r0,#0
        0x00019078:    2907        .)      CMP      r1,#7
        0x0001907a:    d80a        ..      BHI      0x19092 ; am_hal_pwrctrl_mcu_memory_config + 218
        0x0001907c:    e8dff001    ....    TBB      [pc,r1]
    $d.3
        0x00019080:    0e090b04    ....    DCD    235473668
        0x00019084:    13090909    ....    DCD    319359241
    $t.4
        0x00019088:    68a8        .h      LDR      r0,[r5,#8]
        0x0001908a:    f0400007    @...    ORR      r0,r0,#7
        0x0001908e:    e00d        ..      B        0x190ac ; am_hal_pwrctrl_mcu_memory_config + 244
        0x00019090:    2001        .       MOVS     r0,#1
        0x00019092:    b002        ..      ADD      sp,sp,#8
        0x00019094:    bd70        p.      POP      {r4-r6,pc}
        0x00019096:    68a8        .h      LDR      r0,[r5,#8]
        0x00019098:    2106        .!      MOVS     r1,#6
        0x0001909a:    e001        ..      B        0x190a0 ; am_hal_pwrctrl_mcu_memory_config + 232
        0x0001909c:    68a8        .h      LDR      r0,[r5,#8]
        0x0001909e:    2104        .!      MOVS     r1,#4
        0x000190a0:    f3610002    a...    BFI      r0,r1,#0,#3
        0x000190a4:    e002        ..      B        0x190ac ; am_hal_pwrctrl_mcu_memory_config + 244
        0x000190a6:    68a8        .h      LDR      r0,[r5,#8]
        0x000190a8:    f0200007     ...    BIC      r0,r0,#7
        0x000190ac:    60a8        .`      STR      r0,[r5,#8]
        0x000190ae:    2000        .       MOVS     r0,#0
        0x000190b0:    e7ef        ..      B        0x19092 ; am_hal_pwrctrl_mcu_memory_config + 218
    am_hal_pwrctrl_periph_disable
        0x000190b2:    e92d43f0    -..C    PUSH     {r4-r9,lr}
        0x000190b6:    b083        ..      SUB      sp,sp,#0xc
        0x000190b8:    2821        !(      CMP      r0,#0x21
        0x000190ba:    d901        ..      BLS      0x190c0 ; am_hal_pwrctrl_periph_disable + 14
        0x000190bc:    2406        .$      MOVS     r4,#6
        0x000190be:    e083        ..      B        0x191c8 ; am_hal_pwrctrl_periph_disable + 278
        0x000190c0:    f64a01fc    J...    MOV      r1,#0xa8fc
        0x000190c4:    f2c00101    ....    MOVT     r1,#1
        0x000190c8:    0102        ..      LSLS     r2,r0,#4
        0x000190ca:    f8518002    Q...    LDR      r8,[r1,r2]
        0x000190ce:    eb011500    ....    ADD      r5,r1,r0,LSL #4
        0x000190d2:    686f        oh      LDR      r7,[r5,#4]
        0x000190d4:    f8d81000    ....    LDR      r1,[r8,#0]
        0x000190d8:    4239        9B      TST      r1,r7
        0x000190da:    d074        t.      BEQ      0x191c6 ; am_hal_pwrctrl_periph_disable + 276
        0x000190dc:    2814        .(      CMP      r0,#0x14
        0x000190de:    d12c        ,.      BNE      0x1913a ; am_hal_pwrctrl_periph_disable + 136
        0x000190e0:    f64076e0    @..v    MOVW     r6,#0xfe0
        0x000190e4:    f2c4060c    ....    MOVT     r6,#0x400c
        0x000190e8:    6830        0h      LDR      r0,[r6,#0]
        0x000190ea:    28c0        .(      CMP      r0,#0xc0
        0x000190ec:    d125        %.      BNE      0x1913a ; am_hal_pwrctrl_periph_disable + 136
        0x000190ee:    f640297c    @.|)    MOV      r9,#0xa7c
        0x000190f2:    f2c4090c    ....    MOVT     r9,#0x400c
        0x000190f6:    2064        d       MOVS     r0,#0x64
        0x000190f8:    4649        IF      MOV      r1,r9
        0x000190fa:    2201        ."      MOVS     r2,#1
        0x000190fc:    2301        .#      MOVS     r3,#1
        0x000190fe:    f7fffcf5    ....    BL       am_hal_delay_us_status_change ; 0x18aec
        0x00019102:    4604        .F      MOV      r4,r0
        0x00019104:    2800        .(      CMP      r0,#0
        0x00019106:    d15f        _.      BNE      0x191c8 ; am_hal_pwrctrl_periph_disable + 278
        0x00019108:    f5066173    ..sa    ADD      r1,r6,#0xf30
        0x0001910c:    2064        d       MOVS     r0,#0x64
        0x0001910e:    2201        ."      MOVS     r2,#1
        0x00019110:    2301        .#      MOVS     r3,#1
        0x00019112:    f7fffceb    ....    BL       am_hal_delay_us_status_change ; 0x18aec
        0x00019116:    4604        .F      MOV      r4,r0
        0x00019118:    2800        .(      CMP      r0,#0
        0x0001911a:    d155        U.      BNE      0x191c8 ; am_hal_pwrctrl_periph_disable + 278
        0x0001911c:    f8d90004    ....    LDR      r0,[r9,#4]
        0x00019120:    f0400001    @...    ORR      r0,r0,#1
        0x00019124:    f8c90004    ....    STR      r0,[r9,#4]
        0x00019128:    f2404088    @..@    MOVW     r0,#0x488
        0x0001912c:    f2c10000    ....    MOVT     r0,#0x1000
        0x00019130:    6801        .h      LDR      r1,[r0,#0]
        0x00019132:    b111        ..      CBZ      r1,0x1913a ; am_hal_pwrctrl_periph_disable + 136
        0x00019134:    2000        .       MOVS     r0,#0
        0x00019136:    f000ff79    ..y.    BL       crypto_boost_trims ; 0x1a02c
        0x0001913a:    e9d56502    ...e    LDRD     r6,r5,[r5,#8]
        0x0001913e:    f7fffd5f    .._.    BL       am_hal_interrupt_master_disable ; 0x18c00
        0x00019142:    9002        ..      STR      r0,[sp,#8]
        0x00019144:    f8d80000    ....    LDR      r0,[r8,#0]
        0x00019148:    43b8        .C      BICS     r0,r0,r7
        0x0001914a:    f8c80000    ....    STR      r0,[r8,#0]
        0x0001914e:    9802        ..      LDR      r0,[sp,#8]
        0x00019150:    f7fffd5a    ..Z.    BL       am_hal_interrupt_master_set ; 0x18c08
        0x00019154:    2400        .$      MOVS     r4,#0
        0x00019156:    2005        .       MOVS     r0,#5
        0x00019158:    4631        1F      MOV      r1,r6
        0x0001915a:    462a        *F      MOV      r2,r5
        0x0001915c:    462b        +F      MOV      r3,r5
        0x0001915e:    9400        ..      STR      r4,[sp,#0]
        0x00019160:    f7fffcee    ....    BL       am_hal_delay_us_status_check ; 0x18b40
        0x00019164:    b380        ..      CBZ      r0,0x191c8 ; am_hal_pwrctrl_periph_disable + 278
        0x00019166:    f5b57ff0    ....    CMP      r5,#0x1e0
        0x0001916a:    f04f0400    O...    MOV      r4,#0
        0x0001916e:    db0c        ..      BLT      0x1918a ; am_hal_pwrctrl_periph_disable + 216
        0x00019170:    d014        ..      BEQ      0x1919c ; am_hal_pwrctrl_periph_disable + 234
        0x00019172:    f5b53fe0    ...?    CMP      r5,#0x1c000
        0x00019176:    d019        ..      BEQ      0x191ac ; am_hal_pwrctrl_periph_disable + 250
        0x00019178:    f5b55ff0    ..._    CMP      r5,#0x1e00
        0x0001917c:    d124        $.      BNE      0x191c8 ; am_hal_pwrctrl_periph_disable + 278
        0x0001917e:    f8d80000    ....    LDR      r0,[r8,#0]
        0x00019182:    f4105ff0    ..._    TST      r0,#0x1e00
        0x00019186:    d11c        ..      BNE      0x191c2 ; am_hal_pwrctrl_periph_disable + 272
        0x00019188:    e01d        ..      B        0x191c6 ; am_hal_pwrctrl_periph_disable + 276
        0x0001918a:    2d1e        .-      CMP      r5,#0x1e
        0x0001918c:    d014        ..      BEQ      0x191b8 ; am_hal_pwrctrl_periph_disable + 262
        0x0001918e:    2dff        .-      CMP      r5,#0xff
        0x00019190:    d11a        ..      BNE      0x191c8 ; am_hal_pwrctrl_periph_disable + 278
        0x00019192:    f8d80000    ....    LDR      r0,[r8,#0]
        0x00019196:    0600        ..      LSLS     r0,r0,#24
        0x00019198:    d113        ..      BNE      0x191c2 ; am_hal_pwrctrl_periph_disable + 272
        0x0001919a:    e014        ..      B        0x191c6 ; am_hal_pwrctrl_periph_disable + 276
        0x0001919c:    f8d80000    ....    LDR      r0,[r8,#0]
        0x000191a0:    f4107ff0    ....    TST      r0,#0x1e0
        0x000191a4:    bf18        ..      IT       NE
        0x000191a6:    f8d80000    ....    LDRNE    r0,[r8,#0]
        0x000191aa:    e00c        ..      B        0x191c6 ; am_hal_pwrctrl_periph_disable + 276
        0x000191ac:    f8d80000    ....    LDR      r0,[r8,#0]
        0x000191b0:    f4103fe0    ...?    TST      r0,#0x1c000
        0x000191b4:    d105        ..      BNE      0x191c2 ; am_hal_pwrctrl_periph_disable + 272
        0x000191b6:    e006        ..      B        0x191c6 ; am_hal_pwrctrl_periph_disable + 276
        0x000191b8:    f8d80000    ....    LDR      r0,[r8,#0]
        0x000191bc:    f0100f1e    ....    TST      r0,#0x1e
        0x000191c0:    d001        ..      BEQ      0x191c6 ; am_hal_pwrctrl_periph_disable + 276
        0x000191c2:    f8d80000    ....    LDR      r0,[r8,#0]
        0x000191c6:    2400        .$      MOVS     r4,#0
        0x000191c8:    4620         F      MOV      r0,r4
        0x000191ca:    b003        ..      ADD      sp,sp,#0xc
        0x000191cc:    e8bd83f0    ....    POP      {r4-r9,pc}
    am_hal_pwrctrl_periph_enable
        0x000191d0:    e92d43f0    -..C    PUSH     {r4-r9,lr}
        0x000191d4:    b083        ..      SUB      sp,sp,#0xc
        0x000191d6:    2821        !(      CMP      r0,#0x21
        0x000191d8:    d901        ..      BLS      0x191de ; am_hal_pwrctrl_periph_enable + 14
        0x000191da:    2706        .'      MOVS     r7,#6
        0x000191dc:    e00d        ..      B        0x191fa ; am_hal_pwrctrl_periph_enable + 42
        0x000191de:    4606        .F      MOV      r6,r0
        0x000191e0:    f64a01fc    J...    MOV      r1,#0xa8fc
        0x000191e4:    f2c00101    ....    MOVT     r1,#1
        0x000191e8:    0132        2.      LSLS     r2,r6,#4
        0x000191ea:    588f        .X      LDR      r7,[r1,r2]
        0x000191ec:    eb011000    ....    ADD      r0,r1,r0,LSL #4
        0x000191f0:    6844        Dh      LDR      r4,[r0,#4]
        0x000191f2:    6839        9h      LDR      r1,[r7,#0]
        0x000191f4:    4221        !B      TST      r1,r4
        0x000191f6:    d004        ..      BEQ      0x19202 ; am_hal_pwrctrl_periph_enable + 50
        0x000191f8:    2700        .'      MOVS     r7,#0
        0x000191fa:    4638        8F      MOV      r0,r7
        0x000191fc:    b003        ..      ADD      sp,sp,#0xc
        0x000191fe:    e8bd83f0    ....    POP      {r4-r9,pc}
        0x00019202:    e9d09502    ....    LDRD     r9,r5,[r0,#8]
        0x00019206:    f2404888    @..H    MOVW     r8,#0x488
        0x0001920a:    2e14        ..      CMP      r6,#0x14
        0x0001920c:    f2c10800    ....    MOVT     r8,#0x1000
        0x00019210:    d105        ..      BNE      0x1921e ; am_hal_pwrctrl_periph_enable + 78
        0x00019212:    f8d81000    ....    LDR      r1,[r8,#0]
        0x00019216:    b111        ..      CBZ      r1,0x1921e ; am_hal_pwrctrl_periph_enable + 78
        0x00019218:    2001        .       MOVS     r0,#1
        0x0001921a:    f000ff07    ....    BL       crypto_boost_trims ; 0x1a02c
        0x0001921e:    f7fffcef    ....    BL       am_hal_interrupt_master_disable ; 0x18c00
        0x00019222:    9002        ..      STR      r0,[sp,#8]
        0x00019224:    6838        8h      LDR      r0,[r7,#0]
        0x00019226:    4320         C      ORRS     r0,r0,r4
        0x00019228:    6038        8`      STR      r0,[r7,#0]
        0x0001922a:    9802        ..      LDR      r0,[sp,#8]
        0x0001922c:    f7fffcec    ....    BL       am_hal_interrupt_master_set ; 0x18c08
        0x00019230:    2701        .'      MOVS     r7,#1
        0x00019232:    2005        .       MOVS     r0,#5
        0x00019234:    4649        IF      MOV      r1,r9
        0x00019236:    462a        *F      MOV      r2,r5
        0x00019238:    462b        +F      MOV      r3,r5
        0x0001923a:    9700        ..      STR      r7,[sp,#0]
        0x0001923c:    f7fffc80    ....    BL       am_hal_delay_us_status_check ; 0x18b40
        0x00019240:    b150        P.      CBZ      r0,0x19258 ; am_hal_pwrctrl_periph_enable + 136
        0x00019242:    4607        .F      MOV      r7,r0
        0x00019244:    2e14        ..      CMP      r6,#0x14
        0x00019246:    d1d8        ..      BNE      0x191fa ; am_hal_pwrctrl_periph_enable + 42
        0x00019248:    f8d81000    ....    LDR      r1,[r8,#0]
        0x0001924c:    2900        .)      CMP      r1,#0
        0x0001924e:    d0d4        ..      BEQ      0x191fa ; am_hal_pwrctrl_periph_enable + 42
        0x00019250:    2000        .       MOVS     r0,#0
        0x00019252:    f000feeb    ....    BL       crypto_boost_trims ; 0x1a02c
        0x00019256:    e7d0        ..      B        0x191fa ; am_hal_pwrctrl_periph_enable + 42
        0x00019258:    2e14        ..      CMP      r6,#0x14
        0x0001925a:    d10b        ..      BNE      0x19274 ; am_hal_pwrctrl_periph_enable + 164
        0x0001925c:    f6417110    A..q    MOV      r1,#0x1f10
        0x00019260:    f2c4010c    ....    MOVT     r1,#0x400c
        0x00019264:    2064        d       MOVS     r0,#0x64
        0x00019266:    2201        ."      MOVS     r2,#1
        0x00019268:    2301        .#      MOVS     r3,#1
        0x0001926a:    f7fffc3f    ..?.    BL       am_hal_delay_us_status_change ; 0x18aec
        0x0001926e:    4607        .F      MOV      r7,r0
        0x00019270:    2800        .(      CMP      r0,#0
        0x00019272:    d1c2        ..      BNE      0x191fa ; am_hal_pwrctrl_periph_enable + 42
        0x00019274:    f8d90000    ....    LDR      r0,[r9,#0]
        0x00019278:    4028        (@      ANDS     r0,r0,r5
        0x0001927a:    fab0f080    ....    CLZ      r0,r0
        0x0001927e:    0947        G.      LSRS     r7,r0,#5
        0x00019280:    e7bb        ..      B        0x191fa ; am_hal_pwrctrl_periph_enable + 42
        0x00019282:    0000        ..      MOVS     r0,r0
    am_hal_pwrctrl_sram_config
        0x00019284:    b570        p.      PUSH     {r4-r6,lr}
        0x00019286:    b082        ..      SUB      sp,sp,#8
        0x00019288:    f2410624    A.$.    MOV      r6,#0x1024
        0x0001928c:    f2c40602    ....    MOVT     r6,#0x4002
        0x00019290:    4604        .F      MOV      r4,r0
        0x00019292:    7800        .x      LDRB     r0,[r0,#0]
        0x00019294:    6831        1h      LDR      r1,[r6,#0]
        0x00019296:    2501        .%      MOVS     r5,#1
        0x00019298:    f3600101    `...    BFI      r1,r0,#0,#2
        0x0001929c:    6031        1`      STR      r1,[r6,#0]
        0x0001929e:    4631        1F      MOV      r1,r6
        0x000192a0:    f8513b04    Q..;    LDR      r3,[r1],#4
        0x000192a4:    2005        .       MOVS     r0,#5
        0x000192a6:    2203        ."      MOVS     r2,#3
        0x000192a8:    9500        ..      STR      r5,[sp,#0]
        0x000192aa:    f7fffc49    ..I.    BL       am_hal_delay_us_status_check ; 0x18b40
        0x000192ae:    2800        .(      CMP      r0,#0
        0x000192b0:    d13a        :.      BNE      0x19328 ; am_hal_pwrctrl_sram_config + 164
        0x000192b2:    6870        ph      LDR      r0,[r6,#4]
        0x000192b4:    6831        1h      LDR      r1,[r6,#0]
        0x000192b6:    4048        H@      EORS     r0,r0,r1
        0x000192b8:    0780        ..      LSLS     r0,r0,#30
        0x000192ba:    d001        ..      BEQ      0x192c0 ; am_hal_pwrctrl_sram_config + 60
        0x000192bc:    2001        .       MOVS     r0,#1
        0x000192be:    e033        3.      B        0x19328 ; am_hal_pwrctrl_sram_config + 164
        0x000192c0:    7860        `x      LDRB     r0,[r4,#1]
        0x000192c2:    68b1        .h      LDR      r1,[r6,#8]
        0x000192c4:    f3600183    `...    BFI      r1,r0,#2,#2
        0x000192c8:    60b1        .`      STR      r1,[r6,#8]
        0x000192ca:    78a0        .x      LDRB     r0,[r4,#2]
        0x000192cc:    68b1        .h      LDR      r1,[r6,#8]
        0x000192ce:    f0000003    ....    AND      r0,r0,#3
        0x000192d2:    f02101c0    !...    BIC      r1,r1,#0xc0
        0x000192d6:    ea411080    A...    ORR      r0,r1,r0,LSL #6
        0x000192da:    60b0        .`      STR      r0,[r6,#8]
        0x000192dc:    78e0        .x      LDRB     r0,[r4,#3]
        0x000192de:    68b1        .h      LDR      r1,[r6,#8]
        0x000192e0:    f0000003    ....    AND      r0,r0,#3
        0x000192e4:    f4217140    !.@q    BIC      r1,r1,#0x300
        0x000192e8:    ea412000    A..     ORR      r0,r1,r0,LSL #8
        0x000192ec:    60b0        .`      STR      r0,[r6,#8]
        0x000192ee:    7920         y      LDRB     r0,[r4,#4]
        0x000192f0:    68b1        .h      LDR      r1,[r6,#8]
        0x000192f2:    f3601105    `...    BFI      r1,r0,#4,#2
        0x000192f6:    60b1        .`      STR      r1,[r6,#8]
        0x000192f8:    7960        `y      LDRB     r0,[r4,#5]
        0x000192fa:    2803        .(      CMP      r0,#3
        0x000192fc:    d813        ..      BHI      0x19326 ; am_hal_pwrctrl_sram_config + 162
        0x000192fe:    e8dff000    ....    TBB      [pc,r0]
    $d.7
        0x00019302:    0602        ..      DCW    1538
        0x00019304:    0e09        ..      DCW    3593
    $t.8
        0x00019306:    68b0        .h      LDR      r0,[r6,#8]
        0x00019308:    f0400003    @...    ORR      r0,r0,#3
        0x0001930c:    e00a        ..      B        0x19324 ; am_hal_pwrctrl_sram_config + 160
        0x0001930e:    68b0        .h      LDR      r0,[r6,#8]
        0x00019310:    2102        .!      MOVS     r1,#2
        0x00019312:    e001        ..      B        0x19318 ; am_hal_pwrctrl_sram_config + 148
        0x00019314:    68b0        .h      LDR      r0,[r6,#8]
        0x00019316:    2101        .!      MOVS     r1,#1
        0x00019318:    f3610001    a...    BFI      r0,r1,#0,#2
        0x0001931c:    e002        ..      B        0x19324 ; am_hal_pwrctrl_sram_config + 160
        0x0001931e:    68b0        .h      LDR      r0,[r6,#8]
        0x00019320:    f0200003     ...    BIC      r0,r0,#3
        0x00019324:    60b0        .`      STR      r0,[r6,#8]
        0x00019326:    2000        .       MOVS     r0,#0
        0x00019328:    b002        ..      ADD      sp,sp,#8
        0x0001932a:    bd70        p.      POP      {r4-r6,pc}
    am_hal_queue_item_add
        0x0001932c:    b5f0        ..      PUSH     {r4-r7,lr}
        0x0001932e:    b081        ..      SUB      sp,sp,#4
        0x00019330:    4604        .F      MOV      r4,r0
        0x00019332:    6900        .i      LDR      r0,[r0,#0x10]
        0x00019334:    460d        .F      MOV      r5,r1
        0x00019336:    fb00f702    ....    MUL      r7,r0,r2
        0x0001933a:    f7fffc61    ..a.    BL       am_hal_interrupt_master_disable ; 0x18c00
        0x0001933e:    9000        ..      STR      r0,[sp,#0]
        0x00019340:    68e1        .h      LDR      r1,[r4,#0xc]
        0x00019342:    68a0        .h      LDR      r0,[r4,#8]
        0x00019344:    eba10c00    ....    SUB      r12,r1,r0
        0x00019348:    45bc        .E      CMP      r12,r7
        0x0001934a:    d318        ..      BCC      0x1937e ; am_hal_queue_item_add + 82
        0x0001934c:    b1a7        ..      CBZ      r7,0x19378 ; am_hal_queue_item_add + 76
        0x0001934e:    462a        *F      MOV      r2,r5
        0x00019350:    463b        ;F      MOV      r3,r7
        0x00019352:    bf00        ..      NOP      
        0x00019354:    b125        %.      CBZ      r5,0x19360 ; am_hal_queue_item_add + 52
        0x00019356:    7811        .x      LDRB     r1,[r2,#0]
        0x00019358:    6960        `i      LDR      r0,[r4,#0x14]
        0x0001935a:    6826        &h      LDR      r6,[r4,#0]
        0x0001935c:    5581        .U      STRB     r1,[r0,r6]
        0x0001935e:    68e1        .h      LDR      r1,[r4,#0xc]
        0x00019360:    6820         h      LDR      r0,[r4,#0]
        0x00019362:    3b01        .;      SUBS     r3,#1
        0x00019364:    f1000001    ....    ADD      r0,r0,#1
        0x00019368:    fbb0f6f1    ....    UDIV     r6,r0,r1
        0x0001936c:    f1020201    ....    ADD      r2,r2,#1
        0x00019370:    fb060011    ....    MLS      r0,r6,r1,r0
        0x00019374:    6020         `      STR      r0,[r4,#0]
        0x00019376:    d1ed        ..      BNE      0x19354 ; am_hal_queue_item_add + 40
        0x00019378:    68a1        .h      LDR      r1,[r4,#8]
        0x0001937a:    4439        9D      ADD      r1,r1,r7
        0x0001937c:    60a1        .`      STR      r1,[r4,#8]
        0x0001937e:    9800        ..      LDR      r0,[sp,#0]
        0x00019380:    2400        .$      MOVS     r4,#0
        0x00019382:    45bc        .E      CMP      r12,r7
        0x00019384:    bf28        (.      IT       CS
        0x00019386:    2401        .$      MOVCS    r4,#1
        0x00019388:    f7fffc3e    ..>.    BL       am_hal_interrupt_master_set ; 0x18c08
        0x0001938c:    4620         F      MOV      r0,r4
        0x0001938e:    b001        ..      ADD      sp,sp,#4
        0x00019390:    bdf0        ..      POP      {r4-r7,pc}
        0x00019392:    0000        ..      MOVS     r0,r0
    am_hal_queue_item_get
        0x00019394:    b5f0        ..      PUSH     {r4-r7,lr}
        0x00019396:    b081        ..      SUB      sp,sp,#4
        0x00019398:    4604        .F      MOV      r4,r0
        0x0001939a:    6900        .i      LDR      r0,[r0,#0x10]
        0x0001939c:    460d        .F      MOV      r5,r1
        0x0001939e:    fb00f702    ....    MUL      r7,r0,r2
        0x000193a2:    f7fffc2d    ..-.    BL       am_hal_interrupt_master_disable ; 0x18c00
        0x000193a6:    9000        ..      STR      r0,[sp,#0]
        0x000193a8:    f8d4c008    ....    LDR      r12,[r4,#8]
        0x000193ac:    45bc        .E      CMP      r12,r7
        0x000193ae:    d317        ..      BCC      0x193e0 ; am_hal_queue_item_get + 76
        0x000193b0:    b19f        ..      CBZ      r7,0x193da ; am_hal_queue_item_get + 70
        0x000193b2:    4629        )F      MOV      r1,r5
        0x000193b4:    463a        :F      MOV      r2,r7
        0x000193b6:    bf00        ..      NOP      
        0x000193b8:    b11d        ..      CBZ      r5,0x193c2 ; am_hal_queue_item_get + 46
        0x000193ba:    6863        ch      LDR      r3,[r4,#4]
        0x000193bc:    6960        `i      LDR      r0,[r4,#0x14]
        0x000193be:    5cc0        .\      LDRB     r0,[r0,r3]
        0x000193c0:    7008        .p      STRB     r0,[r1,#0]
        0x000193c2:    6860        `h      LDR      r0,[r4,#4]
        0x000193c4:    68e3        .h      LDR      r3,[r4,#0xc]
        0x000193c6:    3001        .0      ADDS     r0,#1
        0x000193c8:    fbb0f6f3    ....    UDIV     r6,r0,r3
        0x000193cc:    3a01        .:      SUBS     r2,#1
        0x000193ce:    fb060013    ....    MLS      r0,r6,r3,r0
        0x000193d2:    f1010101    ....    ADD      r1,r1,#1
        0x000193d6:    6060        ``      STR      r0,[r4,#4]
        0x000193d8:    d1ee        ..      BNE      0x193b8 ; am_hal_queue_item_get + 36
        0x000193da:    68a1        .h      LDR      r1,[r4,#8]
        0x000193dc:    1bc9        ..      SUBS     r1,r1,r7
        0x000193de:    60a1        .`      STR      r1,[r4,#8]
        0x000193e0:    9800        ..      LDR      r0,[sp,#0]
        0x000193e2:    2400        .$      MOVS     r4,#0
        0x000193e4:    45bc        .E      CMP      r12,r7
        0x000193e6:    bf28        (.      IT       CS
        0x000193e8:    2401        .$      MOVCS    r4,#1
        0x000193ea:    f7fffc0d    ....    BL       am_hal_interrupt_master_set ; 0x18c08
        0x000193ee:    4620         F      MOV      r0,r4
        0x000193f0:    b001        ..      ADD      sp,sp,#4
        0x000193f2:    bdf0        ..      POP      {r4-r7,pc}
    am_hal_rtc_osc_disable
        0x000193f4:    f6440100    D...    MOVW     r1,#0x4800
        0x000193f8:    f2c40100    ....    MOVT     r1,#0x4000
        0x000193fc:    6808        .h      LDR      r0,[r1,#0]
        0x000193fe:    f0400210    @...    ORR      r2,r0,#0x10
        0x00019402:    2000        .       MOVS     r0,#0
        0x00019404:    600a        .`      STR      r2,[r1,#0]
        0x00019406:    4770        pG      BX       lr
    am_hal_uart_configure
        0x00019408:    b5f0        ..      PUSH     {r4-r7,lr}
        0x0001940a:    6802        .h      LDR      r2,[r0,#0]
        0x0001940c:    f6496306    I..c    MOV      r3,#0x9e06
        0x00019410:    f022427e    ".~B    BIC      r2,r2,#0xfe000000
        0x00019414:    f2c013ea    ....    MOVT     r3,#0x1ea
        0x00019418:    429a        .B      CMP      r2,r3
        0x0001941a:    d13e        >.      BNE      0x1949a ; am_hal_uart_configure + 146
        0x0001941c:    f8d0c024    ..$.    LDR      r12,[r0,#0x24]
        0x00019420:    f24c0430    L.0.    MOV      r4,#0xc030
        0x00019424:    ea4f330c    O..3    LSL      r3,r12,#12
        0x00019428:    f2c40401    ....    MOVT     r4,#0x4001
        0x0001942c:    f04f0e00    O...    MOV      lr,#0
        0x00019430:    f844e003    D...    STR      lr,[r4,r3]
        0x00019434:    58e2        .X      LDR      r2,[r4,r3]
        0x00019436:    f24e3660    N.`6    MOV      r6,#0xe360
        0x0001943a:    f0420208    B...    ORR      r2,r2,#8
        0x0001943e:    50e2        .P      STR      r2,[r4,r3]
        0x00019440:    680a        .h      LDR      r2,[r1,#0]
        0x00019442:    58e5        .X      LDR      r5,[r4,r3]
        0x00019444:    f2c00616    ....    MOVT     r6,#0x16
        0x00019448:    f0250560    %.`.    BIC      r5,r5,#0x60
        0x0001944c:    2710        .'      MOVS     r7,#0x10
        0x0001944e:    42b2        .B      CMP      r2,r6
        0x00019450:    bf88        ..      IT       HI
        0x00019452:    2750        P'      MOVHI    r7,#0x50
        0x00019454:    ea450207    E...    ORR      r2,r5,r7
        0x00019458:    50e2        .P      STR      r2,[r4,r3]
        0x0001945a:    58e2        .X      LDR      r2,[r4,r3]
        0x0001945c:    f0220201    "...    BIC      r2,r2,#1
        0x00019460:    50e2        .P      STR      r2,[r4,r3]
        0x00019462:    58e2        .X      LDR      r2,[r4,r3]
        0x00019464:    f4227200    "..r    BIC      r2,r2,#0x200
        0x00019468:    50e2        .P      STR      r2,[r4,r3]
        0x0001946a:    58e2        .X      LDR      r2,[r4,r3]
        0x0001946c:    f4227280    "..r    BIC      r2,r2,#0x100
        0x00019470:    50e2        .P      STR      r2,[r4,r3]
        0x00019472:    680a        .h      LDR      r2,[r1,#0]
        0x00019474:    58e3        .X      LDR      r3,[r4,r3]
        0x00019476:    f3c31302    ....    UBFX     r3,r3,#4,#3
        0x0001947a:    3b01        .;      SUBS     r3,#1
        0x0001947c:    2b05        .+      CMP      r3,#5
        0x0001947e:    d20e        ..      BCS      0x1949e ; am_hal_uart_configure + 150
        0x00019480:    a73d        =.      ADR      r7,{pc}+0xf8 ; 0x19578
        0x00019482:    f8573023    W.#0    LDR      r3,[r7,r3,LSL #2]
        0x00019486:    ebb31f02    ....    CMP      r3,r2,LSL #4
        0x0001948a:    d20e        ..      BCS      0x194aa ; am_hal_uart_configure + 162
        0x0001948c:    2100        .!      MOVS     r1,#0
        0x0001948e:    6281        .b      STR      r1,[r0,#0x28]
        0x00019490:    2002        .       MOVS     r0,#2
        0x00019492:    f6c00000    ....    MOVT     r0,#0x800
        0x00019496:    1c41        A.      ADDS     r1,r0,#1
        0x00019498:    e06b        k.      B        0x19572 ; am_hal_uart_configure + 362
        0x0001949a:    2102        .!      MOVS     r1,#2
        0x0001949c:    e069        i.      B        0x19572 ; am_hal_uart_configure + 362
        0x0001949e:    2102        .!      MOVS     r1,#2
        0x000194a0:    f6c00100    ....    MOVT     r1,#0x800
        0x000194a4:    f8c0e028    ..(.    STR      lr,[r0,#0x28]
        0x000194a8:    e063        c.      B        0x19572 ; am_hal_uart_configure + 362
        0x000194aa:    0112        ..      LSLS     r2,r2,#4
        0x000194ac:    019e        ..      LSLS     r6,r3,#6
        0x000194ae:    f24c0700    L...    MOVW     r7,#0xc000
        0x000194b2:    fbb6f6f2    ....    UDIV     r6,r6,r2
        0x000194b6:    fbb3f5f2    ....    UDIV     r5,r3,r2
        0x000194ba:    f2c40701    ....    MOVT     r7,#0x4001
        0x000194be:    eb07320c    ...2    ADD      r2,r7,r12,LSL #12
        0x000194c2:    eba61785    ....    SUB      r7,r6,r5,LSL #6
        0x000194c6:    08be        ..      LSRS     r6,r7,#2
        0x000194c8:    eb061605    ....    ADD      r6,r6,r5,LSL #4
        0x000194cc:    fbb3f3f6    ....    UDIV     r3,r3,r6
        0x000194d0:    6255        Ub      STR      r5,[r2,#0x24]
        0x000194d2:    6297        .b      STR      r7,[r2,#0x28]
        0x000194d4:    6283        .b      STR      r3,[r0,#0x28]
        0x000194d6:    6b10        .k      LDR      r0,[r2,#0x30]
        0x000194d8:    f4204080     ..@    BIC      r0,r0,#0x4000
        0x000194dc:    6310        .c      STR      r0,[r2,#0x30]
        0x000194de:    6b10        .k      LDR      r0,[r2,#0x30]
        0x000194e0:    f4204000     ..@    BIC      r0,r0,#0x8000
        0x000194e4:    6310        .c      STR      r0,[r2,#0x30]
        0x000194e6:    8908        ..      LDRH     r0,[r1,#8]
        0x000194e8:    6b13        .k      LDR      r3,[r2,#0x30]
        0x000194ea:    4318        .C      ORRS     r0,r0,r3
        0x000194ec:    6310        .c      STR      r0,[r2,#0x30]
        0x000194ee:    7948        Hy      LDRB     r0,[r1,#5]
        0x000194f0:    2801        .(      CMP      r0,#1
        0x000194f2:    d002        ..      BEQ      0x194fa ; am_hal_uart_configure + 242
        0x000194f4:    b920         .      CBNZ     r0,0x19500 ; am_hal_uart_configure + 248
        0x000194f6:    2000        .       MOVS     r0,#0
        0x000194f8:    e000        ..      B        0x194fc ; am_hal_uart_configure + 244
        0x000194fa:    2004        .       MOVS     r0,#4
        0x000194fc:    2302        .#      MOVS     r3,#2
        0x000194fe:    e001        ..      B        0x19504 ; am_hal_uart_configure + 252
        0x00019500:    2300        .#      MOVS     r3,#0
        0x00019502:    2000        .       MOVS     r0,#0
        0x00019504:    6ad7        .j      LDR      r7,[r2,#0x2c]
        0x00019506:    f0270701    '...    BIC      r7,r7,#1
        0x0001950a:    62d7        .b      STR      r7,[r2,#0x2c]
        0x0001950c:    6ad7        .j      LDR      r7,[r2,#0x2c]
        0x0001950e:    f0270702    '...    BIC      r7,r7,#2
        0x00019512:    433b        ;C      ORRS     r3,r3,r7
        0x00019514:    62d3        .b      STR      r3,[r2,#0x2c]
        0x00019516:    6ad3        .j      LDR      r3,[r2,#0x2c]
        0x00019518:    f0230304    #...    BIC      r3,r3,#4
        0x0001951c:    4318        .C      ORRS     r0,r0,r3
        0x0001951e:    62d0        .b      STR      r0,[r2,#0x2c]
        0x00019520:    7988        .y      LDRB     r0,[r1,#6]
        0x00019522:    6ad3        .j      LDR      r3,[r2,#0x2c]
        0x00019524:    f36003c3    `...    BFI      r3,r0,#3,#1
        0x00019528:    62d3        .b      STR      r3,[r2,#0x2c]
        0x0001952a:    6ad0        .j      LDR      r0,[r2,#0x2c]
        0x0001952c:    f0400010    @...    ORR      r0,r0,#0x10
        0x00019530:    62d0        .b      STR      r0,[r2,#0x2c]
        0x00019532:    7908        .y      LDRB     r0,[r1,#4]
        0x00019534:    6ad3        .j      LDR      r3,[r2,#0x2c]
        0x00019536:    f3601346    `.F.    BFI      r3,r0,#5,#2
        0x0001953a:    62d3        .b      STR      r3,[r2,#0x2c]
        0x0001953c:    6ad0        .j      LDR      r0,[r2,#0x2c]
        0x0001953e:    f0200080     ...    BIC      r0,r0,#0x80
        0x00019542:    62d0        .b      STR      r0,[r2,#0x2c]
        0x00019544:    7a88        .z      LDRB     r0,[r1,#0xa]
        0x00019546:    6b53        Sk      LDR      r3,[r2,#0x34]
        0x00019548:    f3600302    `...    BFI      r3,r0,#0,#3
        0x0001954c:    6353        Sc      STR      r3,[r2,#0x34]
        0x0001954e:    7ac8        .z      LDRB     r0,[r1,#0xb]
        0x00019550:    6b51        Qk      LDR      r1,[r2,#0x34]
        0x00019552:    f36001c5    `...    BFI      r1,r0,#3,#3
        0x00019556:    6351        Qc      STR      r1,[r2,#0x34]
        0x00019558:    6b10        .k      LDR      r0,[r2,#0x30]
        0x0001955a:    2100        .!      MOVS     r1,#0
        0x0001955c:    f0400001    @...    ORR      r0,r0,#1
        0x00019560:    6310        .c      STR      r0,[r2,#0x30]
        0x00019562:    6b10        .k      LDR      r0,[r2,#0x30]
        0x00019564:    f4407000    @..p    ORR      r0,r0,#0x200
        0x00019568:    6310        .c      STR      r0,[r2,#0x30]
        0x0001956a:    6b10        .k      LDR      r0,[r2,#0x30]
        0x0001956c:    f4407080    @..p    ORR      r0,r0,#0x100
        0x00019570:    6310        .c      STR      r0,[r2,#0x30]
        0x00019572:    4608        .F      MOV      r0,r1
        0x00019574:    bdf0        ..      POP      {r4-r7,pc}
        0x00019576:    bf00        ..      NOP      
    $d.8
        0x00019578:    016e3600    .6n.    DCD    24000000
        0x0001957c:    00b71b00    ....    DCD    12000000
        0x00019580:    005b8d80    ..[.    DCD    6000000
        0x00019584:    002dc6c0    ..-.    DCD    3000000
        0x00019588:    02dc6c00    .l..    DCD    48000000
    $t.1
    am_hal_uart_deinitialize
        0x0001958c:    b180        ..      CBZ      r0,0x195b0 ; am_hal_uart_deinitialize + 36
        0x0001958e:    4601        .F      MOV      r1,r0
        0x00019590:    6800        .h      LDR      r0,[r0,#0]
        0x00019592:    f6496306    I..c    MOV      r3,#0x9e06
        0x00019596:    f020427e     .~B    BIC      r2,r0,#0xfe000000
        0x0001959a:    f2c013ea    ....    MOVT     r3,#0x1ea
        0x0001959e:    429a        .B      CMP      r2,r3
        0x000195a0:    d106        ..      BNE      0x195b0 ; am_hal_uart_deinitialize + 36
        0x000195a2:    f000407e    ..~@    AND      r0,r0,#0xfe000000
        0x000195a6:    6008        .`      STR      r0,[r1,#0]
        0x000195a8:    2000        .       MOVS     r0,#0
        0x000195aa:    6248        Hb      STR      r0,[r1,#0x24]
        0x000195ac:    7108        .q      STRB     r0,[r1,#4]
        0x000195ae:    4770        pG      BX       lr
        0x000195b0:    2002        .       MOVS     r0,#2
        0x000195b2:    4770        pG      BX       lr
    am_hal_uart_initialize
        0x000195b4:    b5b0        ..      PUSH     {r4,r5,r7,lr}
        0x000195b6:    2803        .(      CMP      r0,#3
        0x000195b8:    bf84        ..      ITT      HI
        0x000195ba:    2005        .       MOVHI    r0,#5
        0x000195bc:    bdb0        ..      POPHI    {r4,r5,r7,pc}
        0x000195be:    b379        y.      CBZ      r1,0x19620 ; am_hal_uart_initialize + 108
        0x000195c0:    680b        .h      LDR      r3,[r1,#0]
        0x000195c2:    f6496c06    I..l    MOV      r12,#0x9e06
        0x000195c6:    4602        .F      MOV      r2,r0
        0x000195c8:    f2c01cea    ....    MOVT     r12,#0x1ea
        0x000195cc:    b133        3.      CBZ      r3,0x195dc ; am_hal_uart_initialize + 40
        0x000195ce:    681b        .h      LDR      r3,[r3,#0]
        0x000195d0:    f023437e    #.~C    BIC      r3,r3,#0xfe000000
        0x000195d4:    4563        cE      CMP      r3,r12
        0x000195d6:    bf04        ..      ITT      EQ
        0x000195d8:    2007        .       MOVEQ    r0,#7
        0x000195da:    bdb0        ..      POPEQ    {r4,r5,r7,pc}
        0x000195dc:    f2400578    @.x.    MOVW     r5,#0x78
        0x000195e0:    f04f0eb8    O...    MOV      lr,#0xb8
        0x000195e4:    f2c10500    ....    MOVT     r5,#0x1000
        0x000195e8:    fb02f00e    ....    MUL      r0,r2,lr
        0x000195ec:    582c        ,X      LDR      r4,[r5,r0]
        0x000195ee:    fb02530e    ...S    MLA      r3,r2,lr,r5
        0x000195f2:    f004447e    ..~D    AND      r4,r4,#0xfe000000
        0x000195f6:    4464        dD      ADD      r4,r4,r12
        0x000195f8:    502c        ,P      STR      r4,[r5,r0]
        0x000195fa:    2000        .       MOVS     r0,#0
        0x000195fc:    e9c32009    ...     STRD     r2,r0,[r3,#0x24]
        0x00019600:    2201        ."      MOVS     r2,#1
        0x00019602:    7118        .q      STRB     r0,[r3,#4]
        0x00019604:    f883002c    ..,.    STRB     r0,[r3,#0x2c]
        0x00019608:    f8830054    ..T.    STRB     r0,[r3,#0x54]
        0x0001960c:    f883007c    ..|.    STRB     r0,[r3,#0x7c]
        0x00019610:    f8830098    ....    STRB     r0,[r3,#0x98]
        0x00019614:    6798        .g      STR      r0,[r3,#0x78]
        0x00019616:    6518        .e      STR      r0,[r3,#0x50]
        0x00019618:    f88320b4    ...     STRB     r2,[r3,#0xb4]
        0x0001961c:    600b        .`      STR      r3,[r1,#0]
        0x0001961e:    bdb0        ..      POP      {r4,r5,r7,pc}
        0x00019620:    2006        .       MOVS     r0,#6
        0x00019622:    bdb0        ..      POP      {r4,r5,r7,pc}
    am_hal_uart_power_control
        0x00019624:    b5b0        ..      PUSH     {r4,r5,r7,lr}
        0x00019626:    4604        .F      MOV      r4,r0
        0x00019628:    6800        .h      LDR      r0,[r0,#0]
        0x0001962a:    f6496306    I..c    MOV      r3,#0x9e06
        0x0001962e:    f020407e     .~@    BIC      r0,r0,#0xfe000000
        0x00019632:    f2c013ea    ....    MOVT     r3,#0x1ea
        0x00019636:    4298        .B      CMP      r0,r3
        0x00019638:    d127        '.      BNE      0x1968a ; am_hal_uart_power_control + 102
        0x0001963a:    6a65        ej      LDR      r5,[r4,#0x24]
        0x0001963c:    1e48        H.      SUBS     r0,r1,#1
        0x0001963e:    2802        .(      CMP      r0,#2
        0x00019640:    f1050009    ....    ADD      r0,r5,#9
        0x00019644:    d224        $.      BCS      0x19690 ; am_hal_uart_power_control + 108
        0x00019646:    f24c0100    L...    MOVW     r1,#0xc000
        0x0001964a:    f2c40101    ....    MOVT     r1,#0x4001
        0x0001964e:    b18a        ..      CBZ      r2,0x19674 ; am_hal_uart_power_control + 80
        0x00019650:    eb013205    ...2    ADD      r2,r1,r5,LSL #12
        0x00019654:    6a13        .j      LDR      r3,[r2,#0x20]
        0x00019656:    60a3        .`      STR      r3,[r4,#8]
        0x00019658:    6a53        Sj      LDR      r3,[r2,#0x24]
        0x0001965a:    60e3        .`      STR      r3,[r4,#0xc]
        0x0001965c:    6a93        .j      LDR      r3,[r2,#0x28]
        0x0001965e:    6123        #a      STR      r3,[r4,#0x10]
        0x00019660:    6ad3        .j      LDR      r3,[r2,#0x2c]
        0x00019662:    6163        ca      STR      r3,[r4,#0x14]
        0x00019664:    6b13        .k      LDR      r3,[r2,#0x30]
        0x00019666:    61a3        .a      STR      r3,[r4,#0x18]
        0x00019668:    6b53        Sk      LDR      r3,[r2,#0x34]
        0x0001966a:    61e3        .a      STR      r3,[r4,#0x1c]
        0x0001966c:    6b92        .k      LDR      r2,[r2,#0x38]
        0x0001966e:    6222        "b      STR      r2,[r4,#0x20]
        0x00019670:    2201        ."      MOVS     r2,#1
        0x00019672:    7122        "q      STRB     r2,[r4,#4]
        0x00019674:    eb013105    ...1    ADD      r1,r1,r5,LSL #12
        0x00019678:    f04f32ff    O..2    MOV      r2,#0xffffffff
        0x0001967c:    2500        .%      MOVS     r5,#0
        0x0001967e:    b2c0        ..      UXTB     r0,r0
        0x00019680:    644a        Jd      STR      r2,[r1,#0x44]
        0x00019682:    630d        .c      STR      r5,[r1,#0x30]
        0x00019684:    f7fffd15    ....    BL       am_hal_pwrctrl_periph_disable ; 0x190b2
        0x00019688:    e000        ..      B        0x1968c ; am_hal_uart_power_control + 104
        0x0001968a:    2502        .%      MOVS     r5,#2
        0x0001968c:    4628        (F      MOV      r0,r5
        0x0001968e:    bdb0        ..      POP      {r4,r5,r7,pc}
        0x00019690:    b9e1        ..      CBNZ     r1,0x196cc ; am_hal_uart_power_control + 168
        0x00019692:    b1ea        ..      CBZ      r2,0x196d0 ; am_hal_uart_power_control + 172
        0x00019694:    7921        !y      LDRB     r1,[r4,#4]
        0x00019696:    b301        ..      CBZ      r1,0x196da ; am_hal_uart_power_control + 182
        0x00019698:    b2c0        ..      UXTB     r0,r0
        0x0001969a:    f7fffd99    ....    BL       am_hal_pwrctrl_periph_enable ; 0x191d0
        0x0001969e:    f24c0100    L...    MOVW     r1,#0xc000
        0x000196a2:    68a0        .h      LDR      r0,[r4,#8]
        0x000196a4:    f2c40101    ....    MOVT     r1,#0x4001
        0x000196a8:    eb013105    ...1    ADD      r1,r1,r5,LSL #12
        0x000196ac:    6208        .b      STR      r0,[r1,#0x20]
        0x000196ae:    68e0        .h      LDR      r0,[r4,#0xc]
        0x000196b0:    2500        .%      MOVS     r5,#0
        0x000196b2:    6248        Hb      STR      r0,[r1,#0x24]
        0x000196b4:    6920         i      LDR      r0,[r4,#0x10]
        0x000196b6:    6288        .b      STR      r0,[r1,#0x28]
        0x000196b8:    6960        `i      LDR      r0,[r4,#0x14]
        0x000196ba:    62c8        .b      STR      r0,[r1,#0x2c]
        0x000196bc:    69a0        .i      LDR      r0,[r4,#0x18]
        0x000196be:    6308        .c      STR      r0,[r1,#0x30]
        0x000196c0:    69e0        .i      LDR      r0,[r4,#0x1c]
        0x000196c2:    6348        Hc      STR      r0,[r1,#0x34]
        0x000196c4:    6a20         j      LDR      r0,[r4,#0x20]
        0x000196c6:    6388        .c      STR      r0,[r1,#0x38]
        0x000196c8:    7125        %q      STRB     r5,[r4,#4]
        0x000196ca:    e7df        ..      B        0x1968c ; am_hal_uart_power_control + 104
        0x000196cc:    2506        .%      MOVS     r5,#6
        0x000196ce:    e7dd        ..      B        0x1968c ; am_hal_uart_power_control + 104
        0x000196d0:    b2c0        ..      UXTB     r0,r0
        0x000196d2:    f7fffd7d    ..}.    BL       am_hal_pwrctrl_periph_enable ; 0x191d0
        0x000196d6:    2500        .%      MOVS     r5,#0
        0x000196d8:    e7d8        ..      B        0x1968c ; am_hal_uart_power_control + 104
        0x000196da:    2507        .%      MOVS     r5,#7
        0x000196dc:    e7d6        ..      B        0x1968c ; am_hal_uart_power_control + 104
        0x000196de:    0000        ..      MOVS     r0,r0
    am_hal_uart_transfer
        0x000196e0:    b570        p.      PUSH     {r4-r6,lr}
        0x000196e2:    460c        .F      MOV      r4,r1
        0x000196e4:    7809        .x      LDRB     r1,[r1,#0]
        0x000196e6:    2903        .)      CMP      r1,#3
        0x000196e8:    d80a        ..      BHI      0x19700 ; am_hal_uart_transfer + 32
        0x000196ea:    4605        .F      MOV      r5,r0
        0x000196ec:    e8dff001    ....    TBB      [pc,r1]
    $d.12
        0x000196f0:    2c260a02    ..&,    DCD    740690434
    $t.13
        0x000196f4:    4628        (F      MOV      r0,r5
        0x000196f6:    4621        !F      MOV      r1,r4
        0x000196f8:    f000ff45    ..E.    BL       nonblocking_write ; 0x1a586
        0x000196fc:    b350        P.      CBZ      r0,0x19754 ; am_hal_uart_transfer + 116
        0x000196fe:    bd70        p.      POP      {r4-r6,pc}
        0x00019700:    2001        .       MOVS     r0,#1
        0x00019702:    bd70        p.      POP      {r4-r6,pc}
        0x00019704:    4628        (F      MOV      r0,r5
        0x00019706:    4621        !F      MOV      r1,r4
        0x00019708:    f000fea7    ....    BL       nonblocking_read ; 0x1a45a
        0x0001970c:    2800        .(      CMP      r0,#0
        0x0001970e:    d1f6        ..      BNE      0x196fe ; am_hal_uart_transfer + 30
        0x00019710:    f895002c    ..,.    LDRB     r0,[r5,#0x2c]
        0x00019714:    b398        ..      CBZ      r0,0x1977e ; am_hal_uart_transfer + 158
        0x00019716:    2600        .&      MOVS     r6,#0
        0x00019718:    4628        (F      MOV      r0,r5
        0x0001971a:    f000febb    ....    BL       nonblocking_read_sm ; 0x1a494
        0x0001971e:    f44f707a    O.zp    MOV      r0,#0x3e8
        0x00019722:    f7fff9c7    ....    BL       am_hal_delay_us ; 0x18ab4
        0x00019726:    6920         i      LDR      r0,[r4,#0x10]
        0x00019728:    1c41        A.      ADDS     r1,r0,#1
        0x0001972a:    d002        ..      BEQ      0x19732 ; am_hal_uart_transfer + 82
        0x0001972c:    3601        .6      ADDS     r6,#1
        0x0001972e:    4286        .B      CMP      r6,r0
        0x00019730:    d027        '.      BEQ      0x19782 ; am_hal_uart_transfer + 162
        0x00019732:    f895002c    ..,.    LDRB     r0,[r5,#0x2c]
        0x00019736:    2800        .(      CMP      r0,#0
        0x00019738:    d1ee        ..      BNE      0x19718 ; am_hal_uart_transfer + 56
        0x0001973a:    e020         .      B        0x1977e ; am_hal_uart_transfer + 158
        0x0001973c:    4628        (F      MOV      r0,r5
        0x0001973e:    4621        !F      MOV      r1,r4
        0x00019740:    e8bd4070    ..p@    POP      {r4-r6,lr}
        0x00019744:    f000bf1f    ....    B.W      nonblocking_write ; 0x1a586
        0x00019748:    4628        (F      MOV      r0,r5
        0x0001974a:    4621        !F      MOV      r1,r4
        0x0001974c:    e8bd4070    ..p@    POP      {r4-r6,lr}
        0x00019750:    f000be83    ....    B.W      nonblocking_read ; 0x1a45a
        0x00019754:    f8950054    ..T.    LDRB     r0,[r5,#0x54]
        0x00019758:    b188        ..      CBZ      r0,0x1977e ; am_hal_uart_transfer + 158
        0x0001975a:    2600        .&      MOVS     r6,#0
        0x0001975c:    4628        (F      MOV      r0,r5
        0x0001975e:    f000ff2f    ../.    BL       nonblocking_write_sm ; 0x1a5c0
        0x00019762:    f44f707a    O.zp    MOV      r0,#0x3e8
        0x00019766:    f7fff9a5    ....    BL       am_hal_delay_us ; 0x18ab4
        0x0001976a:    6920         i      LDR      r0,[r4,#0x10]
        0x0001976c:    1c41        A.      ADDS     r1,r0,#1
        0x0001976e:    d002        ..      BEQ      0x19776 ; am_hal_uart_transfer + 150
        0x00019770:    3601        .6      ADDS     r6,#1
        0x00019772:    4286        .B      CMP      r6,r0
        0x00019774:    d009        ..      BEQ      0x1978a ; am_hal_uart_transfer + 170
        0x00019776:    f8950054    ..T.    LDRB     r0,[r5,#0x54]
        0x0001977a:    2800        .(      CMP      r0,#0
        0x0001977c:    d1ee        ..      BNE      0x1975c ; am_hal_uart_transfer + 124
        0x0001977e:    2000        .       MOVS     r0,#0
        0x00019780:    bd70        p.      POP      {r4-r6,pc}
        0x00019782:    2000        .       MOVS     r0,#0
        0x00019784:    f885002c    ..,.    STRB     r0,[r5,#0x2c]
        0x00019788:    e002        ..      B        0x19790 ; am_hal_uart_transfer + 176
        0x0001978a:    2000        .       MOVS     r0,#0
        0x0001978c:    f8850054    ..T.    STRB     r0,[r5,#0x54]
        0x00019790:    2004        .       MOVS     r0,#4
        0x00019792:    bd70        p.      POP      {r4-r6,pc}
    am_hal_uart_tx_flush
        0x00019794:    b5f0        ..      PUSH     {r4-r7,lr}
        0x00019796:    b081        ..      SUB      sp,sp,#4
        0x00019798:    4604        .F      MOV      r4,r0
        0x0001979a:    6a40        @j      LDR      r0,[r0,#0x24]
        0x0001979c:    f89410b4    ....    LDRB     r1,[r4,#0xb4]
        0x000197a0:    b111        ..      CBZ      r1,0x197a8 ; am_hal_uart_tx_flush + 20
        0x000197a2:    2000        .       MOVS     r0,#0
        0x000197a4:    b001        ..      ADD      sp,sp,#4
        0x000197a6:    bdf0        ..      POP      {r4-r7,pc}
        0x000197a8:    f24c0238    L.8.    MOV      r2,#0xc038
        0x000197ac:    0301        ..      LSLS     r1,r0,#12
        0x000197ae:    f2c40201    ....    MOVT     r2,#0x4001
        0x000197b2:    5851        QX      LDR      r1,[r2,r1]
        0x000197b4:    07c9        ..      LSLS     r1,r1,#31
        0x000197b6:    d134        4.      BNE      0x19822 ; am_hal_uart_tx_flush + 142
        0x000197b8:    f894107c    ..|.    LDRB     r1,[r4,#0x7c]
        0x000197bc:    f24c0200    L...    MOVW     r2,#0xc000
        0x000197c0:    f2c40201    ....    MOVT     r2,#0x4001
        0x000197c4:    eb023500    ...5    ADD      r5,r2,r0,LSL #12
        0x000197c8:    b1a9        ..      CBZ      r1,0x197f6 ; am_hal_uart_tx_flush + 98
        0x000197ca:    f8d40088    ....    LDR      r0,[r4,#0x88]
        0x000197ce:    b190        ..      CBZ      r0,0x197f6 ; am_hal_uart_tx_flush + 98
        0x000197d0:    f2442640    D.@&    MOV      r6,#0x4240
        0x000197d4:    f2c0060f    ....    MOVT     r6,#0xf
        0x000197d8:    270a        .'      MOVS     r7,#0xa
        0x000197da:    bf00        ..      NOP      
        0x000197dc:    6aa0        .j      LDR      r0,[r4,#0x28]
        0x000197de:    fbb6f0f0    ....    UDIV     r0,r6,r0
        0x000197e2:    eb000080    ....    ADD      r0,r0,r0,LSL #2
        0x000197e6:    eb070040    ..@.    ADD      r0,r7,r0,LSL #1
        0x000197ea:    f7fff963    ..c.    BL       am_hal_delay_us ; 0x18ab4
        0x000197ee:    f8d40088    ....    LDR      r0,[r4,#0x88]
        0x000197f2:    2800        .(      CMP      r0,#0
        0x000197f4:    d1f2        ..      BNE      0x197dc ; am_hal_uart_tx_flush + 72
        0x000197f6:    69a8        .i      LDR      r0,[r5,#0x18]
        0x000197f8:    0700        ..      LSLS     r0,r0,#28
        0x000197fa:    d5d2        ..      BPL      0x197a2 ; am_hal_uart_tx_flush + 14
        0x000197fc:    f2442640    D.@&    MOV      r6,#0x4240
        0x00019800:    f2c0060f    ....    MOVT     r6,#0xf
        0x00019804:    270a        .'      MOVS     r7,#0xa
        0x00019806:    bf00        ..      NOP      
        0x00019808:    6aa0        .j      LDR      r0,[r4,#0x28]
        0x0001980a:    fbb6f0f0    ....    UDIV     r0,r6,r0
        0x0001980e:    eb000080    ....    ADD      r0,r0,r0,LSL #2
        0x00019812:    eb070040    ..@.    ADD      r0,r7,r0,LSL #1
        0x00019816:    f7fff94d    ..M.    BL       am_hal_delay_us ; 0x18ab4
        0x0001981a:    69a8        .i      LDR      r0,[r5,#0x18]
        0x0001981c:    0700        ..      LSLS     r0,r0,#28
        0x0001981e:    d4f3        ..      BMI      0x19808 ; am_hal_uart_tx_flush + 116
        0x00019820:    e7bf        ..      B        0x197a2 ; am_hal_uart_tx_flush + 14
        0x00019822:    f89400b4    ....    LDRB     r0,[r4,#0xb4]
        0x00019826:    2800        .(      CMP      r0,#0
        0x00019828:    d1bb        ..      BNE      0x197a2 ; am_hal_uart_tx_flush + 14
        0x0001982a:    f2442540    D.@%    MOV      r5,#0x4240
        0x0001982e:    f2c0050f    ....    MOVT     r5,#0xf
        0x00019832:    260a        .&      MOVS     r6,#0xa
        0x00019834:    6aa0        .j      LDR      r0,[r4,#0x28]
        0x00019836:    fbb5f0f0    ....    UDIV     r0,r5,r0
        0x0001983a:    eb000080    ....    ADD      r0,r0,r0,LSL #2
        0x0001983e:    eb060040    ..@.    ADD      r0,r6,r0,LSL #1
        0x00019842:    f7fff937    ..7.    BL       am_hal_delay_us ; 0x18ab4
        0x00019846:    f89400b4    ....    LDRB     r0,[r4,#0xb4]
        0x0001984a:    2800        .(      CMP      r0,#0
        0x0001984c:    d0f2        ..      BEQ      0x19834 ; am_hal_uart_tx_flush + 160
        0x0001984e:    e7a8        ..      B        0x197a2 ; am_hal_uart_tx_flush + 14
    am_util_stdio_printf
        0x00019850:    b083        ..      SUB      sp,sp,#0xc
        0x00019852:    b5b0        ..      PUSH     {r4,r5,r7,lr}
        0x00019854:    b081        ..      SUB      sp,sp,#4
        0x00019856:    f10d0c14    ....    ADD      r12,sp,#0x14
        0x0001985a:    f2403480    @..4    MOVW     r4,#0x380
        0x0001985e:    e88c000e    ....    STM      r12,{r1-r3}
        0x00019862:    f2c10400    ....    MOVT     r4,#0x1000
        0x00019866:    6821        !h      LDR      r1,[r4,#0]
        0x00019868:    b171        q.      CBZ      r1,0x19888 ; am_util_stdio_printf + 56
        0x0001986a:    f2403584    @..5    MOVW     r5,#0x384
        0x0001986e:    f2c10500    ....    MOVT     r5,#0x1000
        0x00019872:    4601        .F      MOV      r1,r0
        0x00019874:    aa05        ..      ADD      r2,sp,#0x14
        0x00019876:    4628        (F      MOV      r0,r5
        0x00019878:    9200        ..      STR      r2,[sp,#0]
        0x0001987a:    f000f821    ..!.    BL       am_util_stdio_vsprintf ; 0x198c0
        0x0001987e:    6821        !h      LDR      r1,[r4,#0]
        0x00019880:    4604        .F      MOV      r4,r0
        0x00019882:    4628        (F      MOV      r0,r5
        0x00019884:    4788        .G      BLX      r1
        0x00019886:    e000        ..      B        0x1988a ; am_util_stdio_printf + 58
        0x00019888:    2400        .$      MOVS     r4,#0
        0x0001988a:    4620         F      MOV      r0,r4
        0x0001988c:    b001        ..      ADD      sp,sp,#4
        0x0001988e:    e8bd40b0    ...@    POP      {r4,r5,r7,lr}
        0x00019892:    b003        ..      ADD      sp,sp,#0xc
        0x00019894:    4770        pG      BX       lr
    am_util_stdio_printf_init
        0x00019896:    f2403180    @..1    MOVW     r1,#0x380
        0x0001989a:    f2c10100    ....    MOVT     r1,#0x1000
        0x0001989e:    6008        .`      STR      r0,[r1,#0]
        0x000198a0:    4770        pG      BX       lr
        0x000198a2:    0000        ..      MOVS     r0,r0
    am_util_stdio_terminal_clear
        0x000198a4:    a001        ..      ADR      r0,{pc}+8 ; 0x198ac
        0x000198a6:    f7ffbfd3    ....    B.W      am_util_stdio_printf ; 0x19850
        0x000198aa:    bf00        ..      NOP      
    $d.14
        0x000198ac:    0a0a0a0a    ....    DCD    168430090
        0x000198b0:    0a0a0a0a    ....    DCD    168430090
        0x000198b4:    0a0a0a0a    ....    DCD    168430090
        0x000198b8:    0a0a0a0a    ....    DCD    168430090
        0x000198bc:    00000a0a    ....    DCD    2570
    $t.3
    am_util_stdio_vsprintf
        0x000198c0:    e92d4ff0    -..O    PUSH     {r4-r11,lr}
        0x000198c4:    b08b        ..      SUB      sp,sp,#0x2c
        0x000198c6:    4683        .F      MOV      r11,r0
        0x000198c8:    a806        ..      ADD      r0,sp,#0x18
        0x000198ca:    f240385a    @.Z8    MOV      r8,#0x35a
        0x000198ce:    4617        .F      MOV      r7,r2
        0x000198d0:    1e46        F.      SUBS     r6,r0,#1
        0x000198d2:    f10d0914    ....    ADD      r9,sp,#0x14
        0x000198d6:    f2c10800    ....    MOVT     r8,#0x1000
        0x000198da:    240d        .$      MOVS     r4,#0xd
        0x000198dc:    2500        .%      MOVS     r5,#0
        0x000198de:    1c48        H.      ADDS     r0,r1,#1
        0x000198e0:    f8101c01    ....    LDRB     r1,[r0,#-1]
        0x000198e4:    2900        .)      CMP      r1,#0
        0x000198e6:    f000836b    ..k.    BEQ.W    0x19fc0 ; am_util_stdio_vsprintf + 1792
        0x000198ea:    2925        %)      CMP      r1,#0x25
        0x000198ec:    d016        ..      BEQ      0x1991c ; am_util_stdio_vsprintf + 92
        0x000198ee:    f1bb0f00    ....    CMP      r11,#0
        0x000198f2:    d00d        ..      BEQ      0x19910 ; am_util_stdio_vsprintf + 80
        0x000198f4:    290a        .)      CMP      r1,#0xa
        0x000198f6:    d107        ..      BNE      0x19908 ; am_util_stdio_vsprintf + 72
        0x000198f8:    f8982000    ...     LDRB     r2,[r8,#0]
        0x000198fc:    b122        ".      CBZ      r2,0x19908 ; am_util_stdio_vsprintf + 72
        0x000198fe:    f80b4b01    ...K    STRB     r4,[r11],#1
        0x00019902:    f8101c01    ....    LDRB     r1,[r0,#-1]
        0x00019906:    3501        .5      ADDS     r5,#1
        0x00019908:    f80b1b01    ....    STRB     r1,[r11],#1
        0x0001990c:    e002        ..      B        0x19914 ; am_util_stdio_vsprintf + 84
        0x0001990e:    bf00        ..      NOP      
        0x00019910:    f04f0b00    O...    MOV      r11,#0
        0x00019914:    3501        .5      ADDS     r5,#1
        0x00019916:    3001        .0      ADDS     r0,#1
        0x00019918:    e7e2        ..      B        0x198e0 ; am_util_stdio_vsprintf + 32
        0x0001991a:    bf00        ..      NOP      
        0x0001991c:    4604        .F      MOV      r4,r0
        0x0001991e:    f814ab01    ....    LDRB     r10,[r4],#1
        0x00019922:    9604        ..      STR      r6,[sp,#0x10]
        0x00019924:    46d0        .F      MOV      r8,r10
        0x00019926:    f1ba0f30    ..0.    CMP      r10,#0x30
        0x0001992a:    bf1c        ..      ITT      NE
        0x0001992c:    4604        .F      MOVNE    r4,r0
        0x0001992e:    f04f0820    O. .    MOVNE    r8,#0x20
        0x00019932:    4620         F      MOV      r0,r4
        0x00019934:    4649        IF      MOV      r1,r9
        0x00019936:    f000fbe3    ....    BL       decstr_to_int ; 0x1a100
        0x0001993a:    9a05        ..      LDR      r2,[sp,#0x14]
        0x0001993c:    4649        IF      MOV      r1,r9
        0x0001993e:    5ca6        .\      LDRB     r6,[r4,r2]
        0x00019940:    4681        .F      MOV      r9,r0
        0x00019942:    2e73        s.      CMP      r6,#0x73
        0x00019944:    bf18        ..      IT       NE
        0x00019946:    f1c90900    ....    RSBNE    r9,r9,#0
        0x0001994a:    2800        .(      CMP      r0,#0
        0x0001994c:    bf58        X.      IT       PL
        0x0001994e:    4681        .F      MOVPL    r9,r0
        0x00019950:    2e2e        ..      CMP      r6,#0x2e
        0x00019952:    eb040c02    ....    ADD      r12,r4,r2
        0x00019956:    d10b        ..      BNE      0x19970 ; am_util_stdio_vsprintf + 176
        0x00019958:    463c        <F      MOV      r4,r7
        0x0001995a:    f10c0701    ....    ADD      r7,r12,#1
        0x0001995e:    4638        8F      MOV      r0,r7
        0x00019960:    f000fbce    ....    BL       decstr_to_int ; 0x1a100
        0x00019964:    9a05        ..      LDR      r2,[sp,#0x14]
        0x00019966:    5cbe        .\      LDRB     r6,[r7,r2]
        0x00019968:    eb070c02    ....    ADD      r12,r7,r2
        0x0001996c:    4627        'F      MOV      r7,r4
        0x0001996e:    e000        ..      B        0x19972 ; am_util_stdio_vsprintf + 178
        0x00019970:    2006        .       MOVS     r0,#6
        0x00019972:    2e6c        l.      CMP      r6,#0x6c
        0x00019974:    d112        ..      BNE      0x1999c ; am_util_stdio_vsprintf + 220
        0x00019976:    4663        cF      MOV      r3,r12
        0x00019978:    f8131f01    ....    LDRB     r1,[r3,#1]!
        0x0001997c:    396c        l9      SUBS     r1,r1,#0x6c
        0x0001997e:    fab1f181    ....    CLZ      r1,r1
        0x00019982:    ea4f1251    O.Q.    LSR      r2,r1,#5
        0x00019986:    f04f0101    O...    MOV      r1,#1
        0x0001998a:    bf04        ..      ITT      EQ
        0x0001998c:    2102        .!      MOVEQ    r1,#2
        0x0001998e:    f10c0302    ....    ADDEQ    r3,r12,#2
        0x00019992:    f81c6001    ...`    LDRB     r6,[r12,r1]
        0x00019996:    469c        .F      MOV      r12,r3
        0x00019998:    e001        ..      B        0x1999e ; am_util_stdio_vsprintf + 222
        0x0001999a:    bf00        ..      NOP      
        0x0001999c:    2200        ."      MOVS     r2,#0
        0x0001999e:    2e72        r.      CMP      r6,#0x72
        0x000199a0:    dc13        ..      BGT      0x199ca ; am_util_stdio_vsprintf + 266
        0x000199a2:    f1a60163    ..c.    SUB      r1,r6,#0x63
        0x000199a6:    2906        .)      CMP      r1,#6
        0x000199a8:    d81c        ..      BHI      0x199e4 ; am_util_stdio_vsprintf + 292
        0x000199aa:    e8dff001    ....    TBB      [pc,r1]
    $d.4
        0x000199ae:    0480        ..      DCW    1152
        0x000199b0:    70702f70    p/pp    DCD    1886400368
        0x000199b4:    0004        ..      DCW    4
    $t.5
        0x000199b6:    2a00        .*      CMP      r2,#0
        0x000199b8:    f000808c    ....    BEQ.W    0x19ad4 ; am_util_stdio_vsprintf + 532
        0x000199bc:    1df8        ..      ADDS     r0,r7,#7
        0x000199be:    f0200707     ...    BIC      r7,r0,#7
        0x000199c2:    687c        |h      LDR      r4,[r7,#4]
        0x000199c4:    f8570b08    W...    LDR      r0,[r7],#8
        0x000199c8:    e087        ..      B        0x19ada ; am_util_stdio_vsprintf + 538
        0x000199ca:    2e73        s.      CMP      r6,#0x73
        0x000199cc:    f00080a2    ....    BEQ.W    0x19b14 ; am_util_stdio_vsprintf + 596
        0x000199d0:    2e75        u.      CMP      r6,#0x75
        0x000199d2:    f00080b5    ....    BEQ.W    0x19b40 ; am_util_stdio_vsprintf + 640
        0x000199d6:    2e78        x.      CMP      r6,#0x78
        0x000199d8:    d159        Y.      BNE      0x19a8e ; am_util_stdio_vsprintf + 462
        0x000199da:    f8cdc00c    ....    STR      r12,[sp,#0xc]
        0x000199de:    f04f0c27    O.'.    MOV      r12,#0x27
        0x000199e2:    e007        ..      B        0x199f4 ; am_util_stdio_vsprintf + 308
        0x000199e4:    2e46        F.      CMP      r6,#0x46
        0x000199e6:    d011        ..      BEQ      0x19a0c ; am_util_stdio_vsprintf + 332
        0x000199e8:    2e58        X.      CMP      r6,#0x58
        0x000199ea:    d150        P.      BNE      0x19a8e ; am_util_stdio_vsprintf + 462
        0x000199ec:    f8cdc00c    ....    STR      r12,[sp,#0xc]
        0x000199f0:    f04f0c07    O...    MOV      r12,#7
        0x000199f4:    f8dde010    ....    LDR      lr,[sp,#0x10]
        0x000199f8:    2a00        .*      CMP      r2,#0
        0x000199fa:    f00080ab    ....    BEQ.W    0x19b54 ; am_util_stdio_vsprintf + 660
        0x000199fe:    1df9        ..      ADDS     r1,r7,#7
        0x00019a00:    f0210707    !...    BIC      r7,r1,#7
        0x00019a04:    687c        |h      LDR      r4,[r7,#4]
        0x00019a06:    f8571b08    W...    LDR      r1,[r7],#8
        0x00019a0a:    e0a6        ..      B        0x19b5a ; am_util_stdio_vsprintf + 666
        0x00019a0c:    f1bb0f00    ....    CMP      r11,#0
        0x00019a10:    f00080c4    ....    BEQ.W    0x19b9c ; am_util_stdio_vsprintf + 732
        0x00019a14:    4604        .F      MOV      r4,r0
        0x00019a16:    1df8        ..      ADDS     r0,r7,#7
        0x00019a18:    f0200807     ...    BIC      r8,r0,#7
        0x00019a1c:    ed980b00    ....    VLDR     d0,[r8,#0]
        0x00019a20:    46e1        .F      MOV      r9,r12
        0x00019a22:    ec510b10    Q...    VMOV     r0,r1,d0
        0x00019a26:    f000fecf    ....    BL       __aeabi_d2f ; 0x1a7c8
        0x00019a2a:    2114        .!      MOVS     r1,#0x14
        0x00019a2c:    f8cb1000    ....    STR      r1,[r11,#0]
        0x00019a30:    f6426123    B.#a    MOV      r1,#0x2e23
        0x00019a34:    ee000a10    ....    VMOV     s0,r0
        0x00019a38:    f2c00123    ..#.    MOVT     r1,#0x23
        0x00019a3c:    f1011e0d    ....    ADD      lr,r1,#0xd000d
        0x00019a40:    eeb50a40    ..@.    VCMP.F32 s0,#0.0
        0x00019a44:    f64f76fe    O..v    MOV      r6,#0xfffe
        0x00019a48:    46cc        .F      MOV      r12,r9
        0x00019a4a:    eef1fa10    ....    VMRS     APSR_nzcv,FPSCR
        0x00019a4e:    4671        qF      MOV      r1,lr
        0x00019a50:    f2c006ff    ....    MOVT     r6,#0xff
        0x00019a54:    f000829f    ....    BEQ.W    0x19f96 ; am_util_stdio_vsprintf + 1750
        0x00019a58:    f3c052c7    ...R    UBFX     r2,r0,#23,#8
        0x00019a5c:    f6426123    B.#a    MOV      r1,#0x2e23
        0x00019a60:    2a9d        .*      CMP      r2,#0x9d
        0x00019a62:    f2c00123    ..#.    MOVT     r1,#0x23
        0x00019a66:    f2008296    ....    BHI.W    0x19f96 ; am_util_stdio_vsprintf + 1750
        0x00019a6a:    2a68        h*      CMP      r2,#0x68
        0x00019a6c:    4671        qF      MOV      r1,lr
        0x00019a6e:    f0c08292    ....    BCC.W    0x19f96 ; am_util_stdio_vsprintf + 1750
        0x00019a72:    4603        .F      MOV      r3,r0
        0x00019a74:    2101        .!      MOVS     r1,#1
        0x00019a76:    2a96        .*      CMP      r2,#0x96
        0x00019a78:    f36153df    a..S    BFI      r3,r1,#23,#9
        0x00019a7c:    f0c08209    ....    BCC.W    0x19e92 ; am_util_stdio_vsprintf + 1490
        0x00019a80:    f1a20196    ....    SUB      r1,r2,#0x96
        0x00019a84:    fa03f101    ....    LSL      r1,r3,r1
        0x00019a88:    f04f0a00    O...    MOV      r10,#0
        0x00019a8c:    e212        ..      B        0x19eb4 ; am_util_stdio_vsprintf + 1524
        0x00019a8e:    f1bb0f00    ....    CMP      r11,#0
        0x00019a92:    bf14        ..      ITE      NE
        0x00019a94:    f80b6b01    ...k    STRBNE   r6,[r11],#1
        0x00019a98:    f04f0b00    O...    MOVEQ    r11,#0
        0x00019a9c:    f240385a    @.Z8    MOV      r8,#0x35a
        0x00019aa0:    9e04        ..      LDR      r6,[sp,#0x10]
        0x00019aa2:    f10d0914    ....    ADD      r9,sp,#0x14
        0x00019aa6:    f2c10800    ....    MOVT     r8,#0x1000
        0x00019aaa:    240d        .$      MOVS     r4,#0xd
        0x00019aac:    e010        ..      B        0x19ad0 ; am_util_stdio_vsprintf + 528
        0x00019aae:    f1bb0f00    ....    CMP      r11,#0
        0x00019ab2:    bf1a        ..      ITTE     NE
        0x00019ab4:    6838        8h      LDRNE    r0,[r7,#0]
        0x00019ab6:    f80b0b01    ....    STRBNE   r0,[r11],#1
        0x00019aba:    f04f0b00    O...    MOVEQ    r11,#0
        0x00019abe:    f240385a    @.Z8    MOV      r8,#0x35a
        0x00019ac2:    9e04        ..      LDR      r6,[sp,#0x10]
        0x00019ac4:    f10d0914    ....    ADD      r9,sp,#0x14
        0x00019ac8:    f2c10800    ....    MOVT     r8,#0x1000
        0x00019acc:    240d        .$      MOVS     r4,#0xd
        0x00019ace:    3704        .7      ADDS     r7,#4
        0x00019ad0:    3501        .5      ADDS     r5,#1
        0x00019ad2:    e26f        o.      B        0x19fb4 ; am_util_stdio_vsprintf + 1780
        0x00019ad4:    f8570b04    W...    LDR      r0,[r7],#4
        0x00019ad8:    17c4        ..      ASRS     r4,r0,#31
        0x00019ada:    eb1070e4    ...p    ADDS     r0,r0,r4,ASR #31
        0x00019ade:    9e04        ..      LDR      r6,[sp,#0x10]
        0x00019ae0:    ea807ee4    ...~    EOR      lr,r0,r4,ASR #31
        0x00019ae4:    eb4470e4    D..p    ADC      r0,r4,r4,ASR #31
        0x00019ae8:    f1b90f00    ....    CMP      r9,#0
        0x00019aec:    ea8071e4    ...q    EOR      r1,r0,r4,ASR #31
        0x00019af0:    e9cdc703    ....    STRD     r12,r7,[sp,#0xc]
        0x00019af4:    d046        F.      BEQ      0x19b84 ; am_util_stdio_vsprintf + 708
        0x00019af6:    ea5e0001    ^...    ORRS     r0,lr,r1
        0x00019afa:    e9cd1e01    ....    STRD     r1,lr,[sp,#4]
        0x00019afe:    d07b        {.      BEQ      0x19bf8 ; am_util_stdio_vsprintf + 824
        0x00019b00:    2700        .'      MOVS     r7,#0
        0x00019b02:    4670        pF      MOV      r0,lr
        0x00019b04:    f000fb28    ..(.    BL       divu64_10 ; 0x1a158
        0x00019b08:    ea500201    P...    ORRS     r2,r0,r1
        0x00019b0c:    f1070701    ....    ADD      r7,r7,#1
        0x00019b10:    d1f8        ..      BNE      0x19b04 ; am_util_stdio_vsprintf + 580
        0x00019b12:    e072        r.      B        0x19bfa ; am_util_stdio_vsprintf + 826
        0x00019b14:    f8571b04    W...    LDR      r1,[r7],#4
        0x00019b18:    2900        .)      CMP      r1,#0
        0x00019b1a:    f0008109    ....    BEQ.W    0x19d30 ; am_util_stdio_vsprintf + 1136
        0x00019b1e:    7808        .x      LDRB     r0,[r1,#0]
        0x00019b20:    9e04        ..      LDR      r6,[sp,#0x10]
        0x00019b22:    2800        .(      CMP      r0,#0
        0x00019b24:    f04f040d    O...    MOV      r4,#0xd
        0x00019b28:    46be        .F      MOV      lr,r7
        0x00019b2a:    f000812b    ..+.    BEQ.W    0x19d84 ; am_util_stdio_vsprintf + 1220
        0x00019b2e:    1c4a        J.      ADDS     r2,r1,#1
        0x00019b30:    2300        .#      MOVS     r3,#0
        0x00019b32:    bf00        ..      NOP      
        0x00019b34:    5cd7        .\      LDRB     r7,[r2,r3]
        0x00019b36:    1c58        X.      ADDS     r0,r3,#1
        0x00019b38:    2f00        ./      CMP      r7,#0
        0x00019b3a:    4603        .F      MOV      r3,r0
        0x00019b3c:    d1fa        ..      BNE      0x19b34 ; am_util_stdio_vsprintf + 628
        0x00019b3e:    e122        ".      B        0x19d86 ; am_util_stdio_vsprintf + 1222
        0x00019b40:    2a00        .*      CMP      r2,#0
        0x00019b42:    d03d        =.      BEQ      0x19bc0 ; am_util_stdio_vsprintf + 768
        0x00019b44:    1df8        ..      ADDS     r0,r7,#7
        0x00019b46:    f0200707     ...    BIC      r7,r0,#7
        0x00019b4a:    f8d7a004    ....    LDR      r10,[r7,#4]
        0x00019b4e:    f8574b08    W..K    LDR      r4,[r7],#8
        0x00019b52:    e039        9.      B        0x19bc8 ; am_util_stdio_vsprintf + 776
        0x00019b54:    f8571b04    W...    LDR      r1,[r7],#4
        0x00019b58:    2400        .$      MOVS     r4,#0
        0x00019b5a:    f1b90f00    ....    CMP      r9,#0
        0x00019b5e:    d027        '.      BEQ      0x19bb0 ; am_util_stdio_vsprintf + 752
        0x00019b60:    46ba        .F      MOV      r10,r7
        0x00019b62:    ea510204    Q...    ORRS     r2,r1,r4
        0x00019b66:    f000808d    ....    BEQ.W    0x19c84 ; am_util_stdio_vsprintf + 964
        0x00019b6a:    2700        .'      MOVS     r7,#0
        0x00019b6c:    460b        .F      MOV      r3,r1
        0x00019b6e:    4622        "F      MOV      r2,r4
        0x00019b70:    091b        ..      LSRS     r3,r3,#4
        0x00019b72:    ea437302    C..s    ORR      r3,r3,r2,LSL #28
        0x00019b76:    ea431612    C...    ORR      r6,r3,r2,LSR #4
        0x00019b7a:    0912        ..      LSRS     r2,r2,#4
        0x00019b7c:    3701        .7      ADDS     r7,#1
        0x00019b7e:    2e00        ..      CMP      r6,#0
        0x00019b80:    d1f6        ..      BNE      0x19b70 ; am_util_stdio_vsprintf + 688
        0x00019b82:    e080        ..      B        0x19c86 ; am_util_stdio_vsprintf + 966
        0x00019b84:    f1b43fff    ...?    CMP      r4,#0xffffffff
        0x00019b88:    f34080de    @...    BLE.W    0x19d48 ; am_util_stdio_vsprintf + 1160
        0x00019b8c:    f240385a    @.Z8    MOV      r8,#0x35a
        0x00019b90:    465f        _F      MOV      r7,r11
        0x00019b92:    f10d0914    ....    ADD      r9,sp,#0x14
        0x00019b96:    f2c10800    ....    MOVT     r8,#0x1000
        0x00019b9a:    e071        q.      B        0x19c80 ; am_util_stdio_vsprintf + 960
        0x00019b9c:    f240385a    @.Z8    MOV      r8,#0x35a
        0x00019ba0:    9e04        ..      LDR      r6,[sp,#0x10]
        0x00019ba2:    f04f0b00    O...    MOV      r11,#0
        0x00019ba6:    f10d0914    ....    ADD      r9,sp,#0x14
        0x00019baa:    f2c10800    ....    MOVT     r8,#0x1000
        0x00019bae:    e12e        ..      B        0x19e0e ; am_util_stdio_vsprintf + 1358
        0x00019bb0:    f240385a    @.Z8    MOV      r8,#0x35a
        0x00019bb4:    a806        ..      ADD      r0,sp,#0x18
        0x00019bb6:    f10d0914    ....    ADD      r9,sp,#0x14
        0x00019bba:    f2c10800    ....    MOVT     r8,#0x1000
        0x00019bbe:    e081        ..      B        0x19cc4 ; am_util_stdio_vsprintf + 1028
        0x00019bc0:    f8574b04    W..K    LDR      r4,[r7],#4
        0x00019bc4:    f04f0a00    O...    MOV      r10,#0
        0x00019bc8:    9e04        ..      LDR      r6,[sp,#0x10]
        0x00019bca:    f1b90f00    ....    CMP      r9,#0
        0x00019bce:    f8cdc00c    ....    STR      r12,[sp,#0xc]
        0x00019bd2:    f00080b2    ....    BEQ.W    0x19d3a ; am_util_stdio_vsprintf + 1146
        0x00019bd6:    ea54000a    T...    ORRS     r0,r4,r10
        0x00019bda:    9704        ..      STR      r7,[sp,#0x10]
        0x00019bdc:    f00080e8    ....    BEQ.W    0x19db0 ; am_util_stdio_vsprintf + 1264
        0x00019be0:    2700        .'      MOVS     r7,#0
        0x00019be2:    4620         F      MOV      r0,r4
        0x00019be4:    4651        QF      MOV      r1,r10
        0x00019be6:    bf00        ..      NOP      
        0x00019be8:    f000fab6    ....    BL       divu64_10 ; 0x1a158
        0x00019bec:    ea500201    P...    ORRS     r2,r0,r1
        0x00019bf0:    f1070701    ....    ADD      r7,r7,#1
        0x00019bf4:    d1f8        ..      BNE      0x19be8 ; am_util_stdio_vsprintf + 808
        0x00019bf6:    e0dc        ..      B        0x19db2 ; am_util_stdio_vsprintf + 1266
        0x00019bf8:    2701        .'      MOVS     r7,#1
        0x00019bfa:    f1b43fff    ...?    CMP      r4,#0xffffffff
        0x00019bfe:    eba90307    ....    SUB      r3,r9,r7
        0x00019c02:    dd02        ..      BLE      0x19c0a ; am_util_stdio_vsprintf + 842
        0x00019c04:    f10d0914    ....    ADD      r9,sp,#0x14
        0x00019c08:    e012        ..      B        0x19c30 ; am_util_stdio_vsprintf + 880
        0x00019c0a:    f1ba0f30    ..0.    CMP      r10,#0x30
        0x00019c0e:    f1a30301    ....    SUB      r3,r3,#1
        0x00019c12:    f10d0914    ....    ADD      r9,sp,#0x14
        0x00019c16:    d10b        ..      BNE      0x19c30 ; am_util_stdio_vsprintf + 880
        0x00019c18:    f1bb0f00    ....    CMP      r11,#0
        0x00019c1c:    bf1a        ..      ITTE     NE
        0x00019c1e:    212d        -!      MOVNE    r1,#0x2d
        0x00019c20:    f80b1b01    ....    STRBNE   r1,[r11],#1
        0x00019c24:    f04f0b00    O...    MOVEQ    r11,#0
        0x00019c28:    e9dd1e01    ....    LDRD     r1,lr,[sp,#4]
        0x00019c2c:    3501        .5      ADDS     r5,#1
        0x00019c2e:    e001        ..      B        0x19c34 ; am_util_stdio_vsprintf + 884
        0x00019c30:    e9dd1e01    ....    LDRD     r1,lr,[sp,#4]
        0x00019c34:    2b01        .+      CMP      r3,#1
        0x00019c36:    db09        ..      BLT      0x19c4c ; am_util_stdio_vsprintf + 908
        0x00019c38:    4618        .F      MOV      r0,r3
        0x00019c3a:    465a        ZF      MOV      r2,r11
        0x00019c3c:    2a00        .*      CMP      r2,#0
        0x00019c3e:    bf14        ..      ITE      NE
        0x00019c40:    f8028b01    ....    STRBNE   r8,[r2],#1
        0x00019c44:    2200        ."      MOVEQ    r2,#0
        0x00019c46:    3801        .8      SUBS     r0,#1
        0x00019c48:    d1f8        ..      BNE      0x19c3c ; am_util_stdio_vsprintf + 892
        0x00019c4a:    e000        ..      B        0x19c4e ; am_util_stdio_vsprintf + 910
        0x00019c4c:    2300        .#      MOVS     r3,#0
        0x00019c4e:    f1bb0f00    ....    CMP      r11,#0
        0x00019c52:    465f        _F      MOV      r7,r11
        0x00019c54:    f240385a    @.Z8    MOV      r8,#0x35a
        0x00019c58:    bf18        ..      IT       NE
        0x00019c5a:    441f        .D      ADDNE    r7,r3
        0x00019c5c:    f1ba0f30    ..0.    CMP      r10,#0x30
        0x00019c60:    441d        .D      ADD      r5,r5,r3
        0x00019c62:    f2c10800    ....    MOVT     r8,#0x1000
        0x00019c66:    d00b        ..      BEQ      0x19c80 ; am_util_stdio_vsprintf + 960
        0x00019c68:    f1b43fff    ...?    CMP      r4,#0xffffffff
        0x00019c6c:    dc08        ..      BGT      0x19c80 ; am_util_stdio_vsprintf + 960
        0x00019c6e:    f1bb0f00    ....    CMP      r11,#0
        0x00019c72:    f04f040d    O...    MOV      r4,#0xd
        0x00019c76:    d077        w.      BEQ      0x19d68 ; am_util_stdio_vsprintf + 1192
        0x00019c78:    202d        -       MOVS     r0,#0x2d
        0x00019c7a:    f8070b01    ....    STRB     r0,[r7],#1
        0x00019c7e:    e074        t.      B        0x19d6a ; am_util_stdio_vsprintf + 1194
        0x00019c80:    240d        .$      MOVS     r4,#0xd
        0x00019c82:    e073        s.      B        0x19d6c ; am_util_stdio_vsprintf + 1196
        0x00019c84:    2701        .'      MOVS     r7,#1
        0x00019c86:    eba90307    ....    SUB      r3,r9,r7
        0x00019c8a:    2b01        .+      CMP      r3,#1
        0x00019c8c:    db0c        ..      BLT      0x19ca8 ; am_util_stdio_vsprintf + 1000
        0x00019c8e:    eba70709    ....    SUB      r7,r7,r9
        0x00019c92:    465e        ^F      MOV      r6,r11
        0x00019c94:    f10d0914    ....    ADD      r9,sp,#0x14
        0x00019c98:    2e00        ..      CMP      r6,#0
        0x00019c9a:    bf14        ..      ITE      NE
        0x00019c9c:    f8068b01    ....    STRBNE   r8,[r6],#1
        0x00019ca0:    2600        .&      MOVEQ    r6,#0
        0x00019ca2:    3701        .7      ADDS     r7,#1
        0x00019ca4:    d3f8        ..      BCC      0x19c98 ; am_util_stdio_vsprintf + 984
        0x00019ca6:    e002        ..      B        0x19cae ; am_util_stdio_vsprintf + 1006
        0x00019ca8:    2300        .#      MOVS     r3,#0
        0x00019caa:    f10d0914    ....    ADD      r9,sp,#0x14
        0x00019cae:    f240385a    @.Z8    MOV      r8,#0x35a
        0x00019cb2:    441d        .D      ADD      r5,r5,r3
        0x00019cb4:    a806        ..      ADD      r0,sp,#0x18
        0x00019cb6:    f2c10800    ....    MOVT     r8,#0x1000
        0x00019cba:    4657        WF      MOV      r7,r10
        0x00019cbc:    f1bb0f00    ....    CMP      r11,#0
        0x00019cc0:    bf18        ..      IT       NE
        0x00019cc2:    449b        .D      ADDNE    r11,r11,r3
        0x00019cc4:    46ba        .F      MOV      r10,r7
        0x00019cc6:    ea510204    Q...    ORRS     r2,r1,r4
        0x00019cca:    d015        ..      BEQ      0x19cf8 ; am_util_stdio_vsprintf + 1080
        0x00019ccc:    2300        .#      MOVS     r3,#0
        0x00019cce:    bf00        ..      NOP      
        0x00019cd0:    f001020f    ....    AND      r2,r1,#0xf
        0x00019cd4:    0909        ..      LSRS     r1,r1,#4
        0x00019cd6:    ea417104    A..q    ORR      r1,r1,r4,LSL #28
        0x00019cda:    f1020630    ..0.    ADD      r6,r2,#0x30
        0x00019cde:    2a09        .*      CMP      r2,#9
        0x00019ce0:    f1030701    ....    ADD      r7,r3,#1
        0x00019ce4:    ea411214    A...    ORR      r2,r1,r4,LSR #4
        0x00019ce8:    bf88        ..      IT       HI
        0x00019cea:    4466        fD      ADDHI    r6,r6,r12
        0x00019cec:    54c6        .T      STRB     r6,[r0,r3]
        0x00019cee:    0924        $.      LSRS     r4,r4,#4
        0x00019cf0:    2a00        .*      CMP      r2,#0
        0x00019cf2:    463b        ;F      MOV      r3,r7
        0x00019cf4:    d1ec        ..      BNE      0x19cd0 ; am_util_stdio_vsprintf + 1040
        0x00019cf6:    e003        ..      B        0x19d00 ; am_util_stdio_vsprintf + 1088
        0x00019cf8:    2030        0       MOVS     r0,#0x30
        0x00019cfa:    f88d0018    ....    STRB     r0,[sp,#0x18]
        0x00019cfe:    2701        .'      MOVS     r7,#1
        0x00019d00:    f8ddc00c    ....    LDR      r12,[sp,#0xc]
        0x00019d04:    f1bb0f00    ....    CMP      r11,#0
        0x00019d08:    4676        vF      MOV      r6,lr
        0x00019d0a:    f04f040d    O...    MOV      r4,#0xd
        0x00019d0e:    d008        ..      BEQ      0x19d22 ; am_util_stdio_vsprintf + 1122
        0x00019d10:    4639        9F      MOV      r1,r7
        0x00019d12:    4658        XF      MOV      r0,r11
        0x00019d14:    5c72        r\      LDRB     r2,[r6,r1]
        0x00019d16:    3901        .9      SUBS     r1,#1
        0x00019d18:    f8002b01    ...+    STRB     r2,[r0],#1
        0x00019d1c:    d1fa        ..      BNE      0x19d14 ; am_util_stdio_vsprintf + 1108
        0x00019d1e:    2100        .!      MOVS     r1,#0
        0x00019d20:    7001        .p      STRB     r1,[r0,#0]
        0x00019d22:    f1bb0f00    ....    CMP      r11,#0
        0x00019d26:    bf18        ..      IT       NE
        0x00019d28:    44bb        .D      ADDNE    r11,r11,r7
        0x00019d2a:    443d        =D      ADD      r5,r5,r7
        0x00019d2c:    4657        WF      MOV      r7,r10
        0x00019d2e:    e141        A.      B        0x19fb4 ; am_util_stdio_vsprintf + 1780
        0x00019d30:    9e04        ..      LDR      r6,[sp,#0x10]
        0x00019d32:    46be        .F      MOV      lr,r7
        0x00019d34:    2000        .       MOVS     r0,#0
        0x00019d36:    240d        .$      MOVS     r4,#0xd
        0x00019d38:    e025        %.      B        0x19d86 ; am_util_stdio_vsprintf + 1222
        0x00019d3a:    f240385a    @.Z8    MOV      r8,#0x35a
        0x00019d3e:    f10d0914    ....    ADD      r9,sp,#0x14
        0x00019d42:    f2c10800    ....    MOVT     r8,#0x1000
        0x00019d46:    e056        V.      B        0x19df6 ; am_util_stdio_vsprintf + 1334
        0x00019d48:    f240385a    @.Z8    MOV      r8,#0x35a
        0x00019d4c:    f1bb0f00    ....    CMP      r11,#0
        0x00019d50:    f10d0914    ....    ADD      r9,sp,#0x14
        0x00019d54:    f2c10800    ....    MOVT     r8,#0x1000
        0x00019d58:    f04f040d    O...    MOV      r4,#0xd
        0x00019d5c:    d004        ..      BEQ      0x19d68 ; am_util_stdio_vsprintf + 1192
        0x00019d5e:    202d        -       MOVS     r0,#0x2d
        0x00019d60:    f80b0b01    ....    STRB     r0,[r11],#1
        0x00019d64:    465f        _F      MOV      r7,r11
        0x00019d66:    e000        ..      B        0x19d6a ; am_util_stdio_vsprintf + 1194
        0x00019d68:    2700        .'      MOVS     r7,#0
        0x00019d6a:    3501        .5      ADDS     r5,#1
        0x00019d6c:    4670        pF      MOV      r0,lr
        0x00019d6e:    463a        :F      MOV      r2,r7
        0x00019d70:    f000fcd4    ....    BL       uint64_to_str ; 0x1a71c
        0x00019d74:    2f00        ./      CMP      r7,#0
        0x00019d76:    bf18        ..      IT       NE
        0x00019d78:    4407        .D      ADDNE    r7,r0
        0x00019d7a:    46bb        .F      MOV      r11,r7
        0x00019d7c:    e9ddc703    ....    LDRD     r12,r7,[sp,#0xc]
        0x00019d80:    4405        .D      ADD      r5,r5,r0
        0x00019d82:    e117        ..      B        0x19fb4 ; am_util_stdio_vsprintf + 1780
        0x00019d84:    2000        .       MOVS     r0,#0
        0x00019d86:    f1b90f01    ....    CMP      r9,#1
        0x00019d8a:    db4a        J.      BLT      0x19e22 ; am_util_stdio_vsprintf + 1378
        0x00019d8c:    4581        .E      CMP      r9,r0
        0x00019d8e:    d948        H.      BLS      0x19e22 ; am_util_stdio_vsprintf + 1378
        0x00019d90:    eba90200    ....    SUB      r2,r9,r0
        0x00019d94:    2a01        .*      CMP      r2,#1
        0x00019d96:    db3c        <.      BLT      0x19e12 ; am_util_stdio_vsprintf + 1362
        0x00019d98:    eba00309    ....    SUB      r3,r0,r9
        0x00019d9c:    465f        _F      MOV      r7,r11
        0x00019d9e:    bf00        ..      NOP      
        0x00019da0:    2f00        ./      CMP      r7,#0
        0x00019da2:    bf14        ..      ITE      NE
        0x00019da4:    f8078b01    ....    STRBNE   r8,[r7],#1
        0x00019da8:    2700        .'      MOVEQ    r7,#0
        0x00019daa:    3301        .3      ADDS     r3,#1
        0x00019dac:    d3f8        ..      BCC      0x19da0 ; am_util_stdio_vsprintf + 1248
        0x00019dae:    e031        1.      B        0x19e14 ; am_util_stdio_vsprintf + 1364
        0x00019db0:    2701        .'      MOVS     r7,#1
        0x00019db2:    eba90007    ....    SUB      r0,r9,r7
        0x00019db6:    2801        .(      CMP      r0,#1
        0x00019db8:    db10        ..      BLT      0x19ddc ; am_util_stdio_vsprintf + 1308
        0x00019dba:    eba70109    ....    SUB      r1,r7,r9
        0x00019dbe:    9f04        ..      LDR      r7,[sp,#0x10]
        0x00019dc0:    465a        ZF      MOV      r2,r11
        0x00019dc2:    f10d0914    ....    ADD      r9,sp,#0x14
        0x00019dc6:    bf00        ..      NOP      
        0x00019dc8:    2a00        .*      CMP      r2,#0
        0x00019dca:    bf14        ..      ITE      NE
        0x00019dcc:    f8028b01    ....    STRBNE   r8,[r2],#1
        0x00019dd0:    2200        ."      MOVEQ    r2,#0
        0x00019dd2:    3101        .1      ADDS     r1,#1
        0x00019dd4:    d3f8        ..      BCC      0x19dc8 ; am_util_stdio_vsprintf + 1288
        0x00019dd6:    f240385a    @.Z8    MOV      r8,#0x35a
        0x00019dda:    e005        ..      B        0x19de8 ; am_util_stdio_vsprintf + 1320
        0x00019ddc:    f240385a    @.Z8    MOV      r8,#0x35a
        0x00019de0:    9f04        ..      LDR      r7,[sp,#0x10]
        0x00019de2:    2000        .       MOVS     r0,#0
        0x00019de4:    f10d0914    ....    ADD      r9,sp,#0x14
        0x00019de8:    f2c10800    ....    MOVT     r8,#0x1000
        0x00019dec:    4405        .D      ADD      r5,r5,r0
        0x00019dee:    f1bb0f00    ....    CMP      r11,#0
        0x00019df2:    bf18        ..      IT       NE
        0x00019df4:    4483        .D      ADDNE    r11,r11,r0
        0x00019df6:    4620         F      MOV      r0,r4
        0x00019df8:    4651        QF      MOV      r1,r10
        0x00019dfa:    465a        ZF      MOV      r2,r11
        0x00019dfc:    f000fc8e    ....    BL       uint64_to_str ; 0x1a71c
        0x00019e00:    f1bb0f00    ....    CMP      r11,#0
        0x00019e04:    bf18        ..      IT       NE
        0x00019e06:    4483        .D      ADDNE    r11,r11,r0
        0x00019e08:    f8ddc00c    ....    LDR      r12,[sp,#0xc]
        0x00019e0c:    4405        .D      ADD      r5,r5,r0
        0x00019e0e:    240d        .$      MOVS     r4,#0xd
        0x00019e10:    e0d0        ..      B        0x19fb4 ; am_util_stdio_vsprintf + 1780
        0x00019e12:    2200        ."      MOVS     r2,#0
        0x00019e14:    4415        .D      ADD      r5,r5,r2
        0x00019e16:    f04f0900    O...    MOV      r9,#0
        0x00019e1a:    f1bb0f00    ....    CMP      r11,#0
        0x00019e1e:    bf18        ..      IT       NE
        0x00019e20:    4493        .D      ADDNE    r11,r11,r2
        0x00019e22:    780a        .x      LDRB     r2,[r1,#0]
        0x00019e24:    b17a        z.      CBZ      r2,0x19e46 ; am_util_stdio_vsprintf + 1414
        0x00019e26:    3101        .1      ADDS     r1,#1
        0x00019e28:    4677        wF      MOV      r7,lr
        0x00019e2a:    bf00        ..      NOP      
        0x00019e2c:    f1bb0f00    ....    CMP      r11,#0
        0x00019e30:    bf14        ..      ITE      NE
        0x00019e32:    f80b2b01    ...+    STRBNE   r2,[r11],#1
        0x00019e36:    f04f0b00    O...    MOVEQ    r11,#0
        0x00019e3a:    f8112b01    ...+    LDRB     r2,[r1],#1
        0x00019e3e:    3501        .5      ADDS     r5,#1
        0x00019e40:    2a00        .*      CMP      r2,#0
        0x00019e42:    d1f3        ..      BNE      0x19e2c ; am_util_stdio_vsprintf + 1388
        0x00019e44:    e000        ..      B        0x19e48 ; am_util_stdio_vsprintf + 1416
        0x00019e46:    4677        wF      MOV      r7,lr
        0x00019e48:    f1b90f00    ....    CMP      r9,#0
        0x00019e4c:    f00080ac    ....    BEQ.W    0x19fa8 ; am_util_stdio_vsprintf + 1768
        0x00019e50:    f1c90100    ....    RSB      r1,r9,#0
        0x00019e54:    4288        .B      CMP      r0,r1
        0x00019e56:    f08080a7    ....    BCS.W    0x19fa8 ; am_util_stdio_vsprintf + 1768
        0x00019e5a:    1a09        ..      SUBS     r1,r1,r0
        0x00019e5c:    2901        .)      CMP      r1,#1
        0x00019e5e:    db0b        ..      BLT      0x19e78 ; am_util_stdio_vsprintf + 1464
        0x00019e60:    4448        HD      ADD      r0,r0,r9
        0x00019e62:    465a        ZF      MOV      r2,r11
        0x00019e64:    f10d0914    ....    ADD      r9,sp,#0x14
        0x00019e68:    2a00        .*      CMP      r2,#0
        0x00019e6a:    bf14        ..      ITE      NE
        0x00019e6c:    f8028b01    ....    STRBNE   r8,[r2],#1
        0x00019e70:    2200        ."      MOVEQ    r2,#0
        0x00019e72:    3001        .0      ADDS     r0,#1
        0x00019e74:    d3f8        ..      BCC      0x19e68 ; am_util_stdio_vsprintf + 1448
        0x00019e76:    e002        ..      B        0x19e7e ; am_util_stdio_vsprintf + 1470
        0x00019e78:    2100        .!      MOVS     r1,#0
        0x00019e7a:    f10d0914    ....    ADD      r9,sp,#0x14
        0x00019e7e:    f240385a    @.Z8    MOV      r8,#0x35a
        0x00019e82:    f2c10800    ....    MOVT     r8,#0x1000
        0x00019e86:    f1bb0f00    ....    CMP      r11,#0
        0x00019e8a:    bf18        ..      IT       NE
        0x00019e8c:    448b        .D      ADDNE    r11,r11,r1
        0x00019e8e:    440d        .D      ADD      r5,r5,r1
        0x00019e90:    e090        ..      B        0x19fb4 ; am_util_stdio_vsprintf + 1780
        0x00019e92:    2a7f        .*      CMP      r2,#0x7f
        0x00019e94:    d309        ..      BCC      0x19eaa ; am_util_stdio_vsprintf + 1514
        0x00019e96:    f1c20196    ....    RSB      r1,r2,#0x96
        0x00019e9a:    3a7e        ~:      SUBS     r2,r2,#0x7e
        0x00019e9c:    fa03f202    ....    LSL      r2,r3,r2
        0x00019ea0:    fa23f101    #...    LSR      r1,r3,r1
        0x00019ea4:    f0224a7f    "..J    BIC      r10,r2,#0xff000000
        0x00019ea8:    e004        ..      B        0x19eb4 ; am_util_stdio_vsprintf + 1524
        0x00019eaa:    f1c2017e    ..~.    RSB      r1,r2,#0x7e
        0x00019eae:    fa23fa01    #...    LSR      r10,r3,r1
        0x00019eb2:    2100        .!      MOVS     r1,#0
        0x00019eb4:    f1b03fff    ...?    CMP      r0,#0xffffffff
        0x00019eb8:    465f        _F      MOV      r7,r11
        0x00019eba:    dc03        ..      BGT      0x19ec4 ; am_util_stdio_vsprintf + 1540
        0x00019ebc:    465f        _F      MOV      r7,r11
        0x00019ebe:    202d        -       MOVS     r0,#0x2d
        0x00019ec0:    f8070b01    ....    STRB     r0,[r7],#1
        0x00019ec4:    b131        1.      CBZ      r1,0x19ed4 ; am_util_stdio_vsprintf + 1556
        0x00019ec6:    2901        .)      CMP      r1,#1
        0x00019ec8:    f8cde008    ....    STR      lr,[sp,#8]
        0x00019ecc:    db06        ..      BLT      0x19edc ; am_util_stdio_vsprintf + 1564
        0x00019ece:    4608        .F      MOV      r0,r1
        0x00019ed0:    2100        .!      MOVS     r1,#0
        0x00019ed2:    e008        ..      B        0x19ee6 ; am_util_stdio_vsprintf + 1574
        0x00019ed4:    2130        0!      MOVS     r1,#0x30
        0x00019ed6:    f8071b01    ....    STRB     r1,[r7],#1
        0x00019eda:    e011        ..      B        0x19f00 ; am_util_stdio_vsprintf + 1600
        0x00019edc:    202d        -       MOVS     r0,#0x2d
        0x00019ede:    f8070b01    ....    STRB     r0,[r7],#1
        0x00019ee2:    4248        HB      RSBS     r0,r1,#0
        0x00019ee4:    17c1        ..      ASRS     r1,r0,#31
        0x00019ee6:    463a        :F      MOV      r2,r7
        0x00019ee8:    f000fc18    ....    BL       uint64_to_str ; 0x1a71c
        0x00019eec:    f8dde008    ....    LDR      lr,[sp,#8]
        0x00019ef0:    46cc        .F      MOV      r12,r9
        0x00019ef2:    2130        0!      MOVS     r1,#0x30
        0x00019ef4:    3f01        .?      SUBS     r7,#1
        0x00019ef6:    bf00        ..      NOP      
        0x00019ef8:    f8170f01    ....    LDRB     r0,[r7,#1]!
        0x00019efc:    2800        .(      CMP      r0,#0
        0x00019efe:    d1fb        ..      BNE      0x19ef8 ; am_util_stdio_vsprintf + 1592
        0x00019f00:    4638        8F      MOV      r0,r7
        0x00019f02:    222e        ."      MOVS     r2,#0x2e
        0x00019f04:    f1ba0f00    ....    CMP      r10,#0
        0x00019f08:    f8002b01    ...+    STRB     r2,[r0],#1
        0x00019f0c:    d014        ..      BEQ      0x19f38 ; am_util_stdio_vsprintf + 1656
        0x00019f0e:    ebab0100    ....    SUB      r1,r11,r0
        0x00019f12:    3113        .1      ADDS     r1,r1,#0x13
        0x00019f14:    42a1        .B      CMP      r1,r4
        0x00019f16:    bfc8        ..      IT       GT
        0x00019f18:    4621        !F      MOVGT    r1,r4
        0x00019f1a:    2901        .)      CMP      r1,#1
        0x00019f1c:    db10        ..      BLT      0x19f40 ; am_util_stdio_vsprintf + 1664
        0x00019f1e:    2730        0'      MOVS     r7,#0x30
        0x00019f20:    240d        .$      MOVS     r4,#0xd
        0x00019f22:    eb0a028a    ....    ADD      r2,r10,r10,LSL #2
        0x00019f26:    eb0753d2    ...S    ADD      r3,r7,r2,LSR #23
        0x00019f2a:    f8003b01    ...;    STRB     r3,[r0],#1
        0x00019f2e:    3901        .9      SUBS     r1,#1
        0x00019f30:    ea060a42    ..B.    AND      r10,r6,r2,LSL #1
        0x00019f34:    d1f5        ..      BNE      0x19f22 ; am_util_stdio_vsprintf + 1634
        0x00019f36:    e004        ..      B        0x19f42 ; am_util_stdio_vsprintf + 1666
        0x00019f38:    1cb8        ..      ADDS     r0,r7,#2
        0x00019f3a:    7079        yp      STRB     r1,[r7,#1]
        0x00019f3c:    240d        .$      MOVS     r4,#0xd
        0x00019f3e:    e015        ..      B        0x19f6c ; am_util_stdio_vsprintf + 1708
        0x00019f40:    240d        .$      MOVS     r4,#0xd
        0x00019f42:    1e41        A.      SUBS     r1,r0,#1
        0x00019f44:    4559        YE      CMP      r1,r11
        0x00019f46:    d311        ..      BCC      0x19f6c ; am_util_stdio_vsprintf + 1708
        0x00019f48:    eb0a028a    ....    ADD      r2,r10,r10,LSL #2
        0x00019f4c:    0052        R.      LSLS     r2,r2,#1
        0x00019f4e:    f1b26fa0    ...o    CMP      r2,#0x5000000
        0x00019f52:    db0b        ..      BLT      0x19f6c ; am_util_stdio_vsprintf + 1708
        0x00019f54:    9e04        ..      LDR      r6,[sp,#0x10]
        0x00019f56:    780a        .x      LDRB     r2,[r1,#0]
        0x00019f58:    2a2e        .*      CMP      r2,#0x2e
        0x00019f5a:    d003        ..      BEQ      0x19f64 ; am_util_stdio_vsprintf + 1700
        0x00019f5c:    2a39        9*      CMP      r2,#0x39
        0x00019f5e:    d12c        ,.      BNE      0x19fba ; am_util_stdio_vsprintf + 1786
        0x00019f60:    2230        0"      MOVS     r2,#0x30
        0x00019f62:    700a        .p      STRB     r2,[r1,#0]
        0x00019f64:    3901        .9      SUBS     r1,#1
        0x00019f66:    4559        YE      CMP      r1,r11
        0x00019f68:    d2f5        ..      BCS      0x19f56 ; am_util_stdio_vsprintf + 1686
        0x00019f6a:    e000        ..      B        0x19f6e ; am_util_stdio_vsprintf + 1710
        0x00019f6c:    9e04        ..      LDR      r6,[sp,#0x10]
        0x00019f6e:    eba0010b    ....    SUB      r1,r0,r11
        0x00019f72:    f1b13fff    ...?    CMP      r1,#0xffffffff
        0x00019f76:    f04f0200    O...    MOV      r2,#0
        0x00019f7a:    7002        .p      STRB     r2,[r0,#0]
        0x00019f7c:    dc10        ..      BGT      0x19fa0 ; am_util_stdio_vsprintf + 1760
        0x00019f7e:    f6426223    B.#b    MOV      r2,#0x2e23
        0x00019f82:    1c48        H.      ADDS     r0,r1,#1
        0x00019f84:    f2c00223    ..#.    MOVT     r2,#0x23
        0x00019f88:    bf18        ..      IT       NE
        0x00019f8a:    f1021e1c    ....    ADDNE    lr,r2,#0x1c001c
        0x00019f8e:    1c88        ..      ADDS     r0,r1,#2
        0x00019f90:    bf08        ..      IT       EQ
        0x00019f92:    4696        .F      MOVEQ    lr,r2
        0x00019f94:    4671        qF      MOV      r1,lr
        0x00019f96:    9e04        ..      LDR      r6,[sp,#0x10]
        0x00019f98:    f8cb1000    ....    STR      r1,[r11,#0]
        0x00019f9c:    2103        .!      MOVS     r1,#3
        0x00019f9e:    240d        .$      MOVS     r4,#0xd
        0x00019fa0:    f1080708    ....    ADD      r7,r8,#8
        0x00019fa4:    440d        .D      ADD      r5,r5,r1
        0x00019fa6:    448b        .D      ADD      r11,r11,r1
        0x00019fa8:    f240385a    @.Z8    MOV      r8,#0x35a
        0x00019fac:    f10d0914    ....    ADD      r9,sp,#0x14
        0x00019fb0:    f2c10800    ....    MOVT     r8,#0x1000
        0x00019fb4:    f10c0101    ....    ADD      r1,r12,#1
        0x00019fb8:    e491        ..      B        0x198de ; am_util_stdio_vsprintf + 30
        0x00019fba:    3201        .2      ADDS     r2,#1
        0x00019fbc:    700a        .p      STRB     r2,[r1,#0]
        0x00019fbe:    e7d6        ..      B        0x19f6e ; am_util_stdio_vsprintf + 1710
        0x00019fc0:    f1bb0f00    ....    CMP      r11,#0
        0x00019fc4:    bf1c        ..      ITT      NE
        0x00019fc6:    2000        .       MOVNE    r0,#0
        0x00019fc8:    f88b0000    ....    STRBNE   r0,[r11,#0]
        0x00019fcc:    4628        (F      MOV      r0,r5
        0x00019fce:    b00b        ..      ADD      sp,sp,#0x2c
        0x00019fd0:    e8bd8ff0    ....    POP      {r4-r11,pc}
    buck_ldo_override_init
        0x00019fd4:    2060        `       MOVS     r0,#0x60
        0x00019fd6:    f2c40002    ....    MOVT     r0,#0x4002
        0x00019fda:    6801        .h      LDR      r1,[r0,#0]
        0x00019fdc:    f4413100    A..1    ORR      r1,r1,#0x20000
        0x00019fe0:    6001        .`      STR      r1,[r0,#0]
        0x00019fe2:    6801        .h      LDR      r1,[r0,#0]
        0x00019fe4:    f4412180    A..!    ORR      r1,r1,#0x40000
        0x00019fe8:    6001        .`      STR      r1,[r0,#0]
        0x00019fea:    6801        .h      LDR      r1,[r0,#0]
        0x00019fec:    f4412100    A..!    ORR      r1,r1,#0x80000
        0x00019ff0:    6001        .`      STR      r1,[r0,#0]
        0x00019ff2:    6801        .h      LDR      r1,[r0,#0]
        0x00019ff4:    f4413180    A..1    ORR      r1,r1,#0x10000
        0x00019ff8:    6001        .`      STR      r1,[r0,#0]
        0x00019ffa:    6801        .h      LDR      r1,[r0,#0]
        0x00019ffc:    f0210110    !...    BIC      r1,r1,#0x10
        0x0001a000:    6001        .`      STR      r1,[r0,#0]
        0x0001a002:    6801        .h      LDR      r1,[r0,#0]
        0x0001a004:    f041010e    A...    ORR      r1,r1,#0xe
        0x0001a008:    6001        .`      STR      r1,[r0,#0]
        0x0001a00a:    6801        .h      LDR      r1,[r0,#0]
        0x0001a00c:    f0410101    A...    ORR      r1,r1,#1
        0x0001a010:    6001        .`      STR      r1,[r0,#0]
        0x0001a012:    6801        .h      LDR      r1,[r0,#0]
        0x0001a014:    f4217100    !..q    BIC      r1,r1,#0x200
        0x0001a018:    6001        .`      STR      r1,[r0,#0]
        0x0001a01a:    6801        .h      LDR      r1,[r0,#0]
        0x0001a01c:    f44171e0    A..q    ORR      r1,r1,#0x1c0
        0x0001a020:    6001        .`      STR      r1,[r0,#0]
        0x0001a022:    6801        .h      LDR      r1,[r0,#0]
        0x0001a024:    f0410120    A. .    ORR      r1,r1,#0x20
        0x0001a028:    6001        .`      STR      r1,[r0,#0]
        0x0001a02a:    4770        pG      BX       lr
    crypto_boost_trims
        0x0001a02c:    e92d41f0    -..A    PUSH     {r4-r8,lr}
        0x0001a030:    b082        ..      SUB      sp,sp,#8
        0x0001a032:    f2403658    @.X6    MOVW     r6,#0x358
        0x0001a036:    f2c10600    ....    MOVT     r6,#0x1000
        0x0001a03a:    7832        2x      LDRB     r2,[r6,#0]
        0x0001a03c:    4604        .F      MOV      r4,r0
        0x0001a03e:    fab2f082    ....    CLZ      r0,r2
        0x0001a042:    0940        @.      LSRS     r0,r0,#5
        0x0001a044:    4060        `@      EORS     r0,r0,r4
        0x0001a046:    bf1c        ..      ITT      NE
        0x0001a048:    b002        ..      ADDNE    sp,sp,#8
        0x0001a04a:    e8bd81f0    ....    POPNE    {r4-r8,pc}
        0x0001a04e:    f2400888    @...    MOVW     r8,#0x88
        0x0001a052:    460d        .F      MOV      r5,r1
        0x0001a054:    f2c40802    ....    MOVT     r8,#0x4002
        0x0001a058:    f7fefdd2    ....    BL       am_hal_interrupt_master_disable ; 0x18c00
        0x0001a05c:    9001        ..      STR      r0,[sp,#4]
        0x0001a05e:    f2403060    @.`0    MOVW     r0,#0x360
        0x0001a062:    f2c10000    ....    MOVT     r0,#0x1000
        0x0001a066:    6801        .h      LDR      r1,[r0,#0]
        0x0001a068:    7034        4p      STRB     r4,[r6,#0]
        0x0001a06a:    2c00        .,      CMP      r4,#0
        0x0001a06c:    bf08        ..      IT       EQ
        0x0001a06e:    426d        mB      RSBEQ    r5,r5,#0
        0x0001a070:    4429        )D      ADD      r1,r1,r5
        0x0001a072:    6001        .`      STR      r1,[r0,#0]
        0x0001a074:    f240305c    @.\0    MOVW     r0,#0x35c
        0x0001a078:    293f        ?)      CMP      r1,#0x3f
        0x0001a07a:    f04f063f    O.?.    MOV      r6,#0x3f
        0x0001a07e:    f2c10000    ....    MOVT     r0,#0x1000
        0x0001a082:    bf38        8.      IT       CC
        0x0001a084:    460e        .F      MOVCC    r6,r1
        0x0001a086:    2900        .)      CMP      r1,#0
        0x0001a088:    6801        .h      LDR      r1,[r0,#0]
        0x0001a08a:    f04f073f    O.?.    MOV      r7,#0x3f
        0x0001a08e:    4429        )D      ADD      r1,r1,r5
        0x0001a090:    bf48        H.      IT       MI
        0x0001a092:    2600        .&      MOVMI    r6,#0
        0x0001a094:    293f        ?)      CMP      r1,#0x3f
        0x0001a096:    bf38        8.      IT       CC
        0x0001a098:    460f        .F      MOVCC    r7,r1
        0x0001a09a:    2900        .)      CMP      r1,#0
        0x0001a09c:    bf48        H.      IT       MI
        0x0001a09e:    2700        .'      MOVMI    r7,#0
        0x0001a0a0:    6001        .`      STR      r1,[r0,#0]
        0x0001a0a2:    b194        ..      CBZ      r4,0x1a0ca ; crypto_boost_trims + 158
        0x0001a0a4:    f8d802e4    ....    LDR      r0,[r8,#0x2e4]
        0x0001a0a8:    f020707c     .|p    BIC      r0,r0,#0x3f00000
        0x0001a0ac:    ea405006    @..P    ORR      r0,r0,r6,LSL #20
        0x0001a0b0:    f8c802e4    ....    STR      r0,[r8,#0x2e4]
        0x0001a0b4:    2014        .       MOVS     r0,#0x14
        0x0001a0b6:    f7fefcfd    ....    BL       am_hal_delay_us ; 0x18ab4
        0x0001a0ba:    f8d80000    ....    LDR      r0,[r8,#0]
        0x0001a0be:    f020003f     .?.    BIC      r0,r0,#0x3f
        0x0001a0c2:    4338        8C      ORRS     r0,r0,r7
        0x0001a0c4:    f8c80000    ....    STR      r0,[r8,#0]
        0x0001a0c8:    e011        ..      B        0x1a0ee ; crypto_boost_trims + 194
        0x0001a0ca:    f8d80000    ....    LDR      r0,[r8,#0]
        0x0001a0ce:    f020003f     .?.    BIC      r0,r0,#0x3f
        0x0001a0d2:    4338        8C      ORRS     r0,r0,r7
        0x0001a0d4:    f8c80000    ....    STR      r0,[r8,#0]
        0x0001a0d8:    2014        .       MOVS     r0,#0x14
        0x0001a0da:    f7fefceb    ....    BL       am_hal_delay_us ; 0x18ab4
        0x0001a0de:    f8d802e4    ....    LDR      r0,[r8,#0x2e4]
        0x0001a0e2:    f020707c     .|p    BIC      r0,r0,#0x3f00000
        0x0001a0e6:    ea405006    @..P    ORR      r0,r0,r6,LSL #20
        0x0001a0ea:    f8c802e4    ....    STR      r0,[r8,#0x2e4]
        0x0001a0ee:    9801        ..      LDR      r0,[sp,#4]
        0x0001a0f0:    f7fefd8a    ....    BL       am_hal_interrupt_master_set ; 0x18c08
        0x0001a0f4:    2014        .       MOVS     r0,#0x14
        0x0001a0f6:    b002        ..      ADD      sp,sp,#8
        0x0001a0f8:    e8bd41f0    ...A    POP      {r4-r8,lr}
        0x0001a0fc:    f7febcda    ....    B        am_hal_delay_us ; 0x18ab4
    decstr_to_int
        0x0001a100:    b510        ..      PUSH     {r4,lr}
        0x0001a102:    4603        .F      MOV      r3,r0
        0x0001a104:    f813cb01    ....    LDRB     r12,[r3],#1
        0x0001a108:    f1bc0e2d    ..-.    SUBS     lr,r12,#0x2d
        0x0001a10c:    bf18        ..      IT       NE
        0x0001a10e:    4603        .F      MOVNE    r3,r0
        0x0001a110:    781a        .x      LDRB     r2,[r3,#0]
        0x0001a112:    fabefe8e    ....    CLZ      lr,lr
        0x0001a116:    f1a20030    ..0.    SUB      r0,r2,#0x30
        0x0001a11a:    2809        .(      CMP      r0,#9
        0x0001a11c:    ea4f1e5e    O.^.    LSR      lr,lr,#5
        0x0001a120:    d811        ..      BHI      0x1a146 ; decstr_to_int + 70
        0x0001a122:    3301        .3      ADDS     r3,#1
        0x0001a124:    2000        .       MOVS     r0,#0
        0x0001a126:    bf00        ..      NOP      
        0x0001a128:    eb000080    ....    ADD      r0,r0,r0,LSL #2
        0x0001a12c:    eb020040    ..@.    ADD      r0,r2,r0,LSL #1
        0x0001a130:    f8132b01    ...+    LDRB     r2,[r3],#1
        0x0001a134:    f10e0e01    ....    ADD      lr,lr,#1
        0x0001a138:    f1a20430    ..0.    SUB      r4,r2,#0x30
        0x0001a13c:    2c0a        .,      CMP      r4,#0xa
        0x0001a13e:    f1a00030    ..0.    SUB      r0,r0,#0x30
        0x0001a142:    d3f1        ..      BCC      0x1a128 ; decstr_to_int + 40
        0x0001a144:    e000        ..      B        0x1a148 ; decstr_to_int + 72
        0x0001a146:    2000        .       MOVS     r0,#0
        0x0001a148:    b109        ..      CBZ      r1,0x1a14e ; decstr_to_int + 78
        0x0001a14a:    f8c1e000    ....    STR      lr,[r1,#0]
        0x0001a14e:    f1bc0f2d    ..-.    CMP      r12,#0x2d
        0x0001a152:    bf08        ..      IT       EQ
        0x0001a154:    4240        @B      RSBEQ    r0,r0,#0
        0x0001a156:    bd10        ..      POP      {r4,pc}
    divu64_10
        0x0001a158:    b999        ..      CBNZ     r1,0x1a182 ; divu64_10 + 42
        0x0001a15a:    0841        A.      LSRS     r1,r0,#1
        0x0001a15c:    eb010190    ....    ADD      r1,r1,r0,LSR #2
        0x0001a160:    eb011111    ....    ADD      r1,r1,r1,LSR #4
        0x0001a164:    eb012111    ...!    ADD      r1,r1,r1,LSR #8
        0x0001a168:    eb014111    ...A    ADD      r1,r1,r1,LSR #16
        0x0001a16c:    08ca        ..      LSRS     r2,r1,#3
        0x0001a16e:    eb020282    ....    ADD      r2,r2,r2,LSL #2
        0x0001a172:    eba00042    ..B.    SUB      r0,r0,r2,LSL #1
        0x0001a176:    3006        .0      ADDS     r0,#6
        0x0001a178:    0900        ..      LSRS     r0,r0,#4
        0x0001a17a:    eb0000d1    ....    ADD      r0,r0,r1,LSR #3
        0x0001a17e:    2100        .!      MOVS     r1,#0
        0x0001a180:    4770        pG      BX       lr
        0x0001a182:    b510        ..      PUSH     {r4,lr}
        0x0001a184:    ea5f0c51    _.Q.    LSRS     r12,r1,#1
        0x0001a188:    ea4f0290    O...    LSR      r2,r0,#2
        0x0001a18c:    ea4f0330    O.0.    RRX      r3,r0
        0x0001a190:    ea427281    B..r    ORR      r2,r2,r1,LSL #30
        0x0001a194:    eb130e02    ....    ADDS     lr,r3,r2
        0x0001a198:    eb4c0391    L...    ADC      r3,r12,r1,LSR #2
        0x0001a19c:    ea4f121e    O...    LSR      r2,lr,#4
        0x0001a1a0:    ea427203    B..r    ORR      r2,r2,r3,LSL #28
        0x0001a1a4:    ea4f1c13    O...    LSR      r12,r3,#4
        0x0001a1a8:    eb1e0e02    ....    ADDS     lr,lr,r2
        0x0001a1ac:    eb43030c    C...    ADC      r3,r3,r12
        0x0001a1b0:    ea4f221e    O.."    LSR      r2,lr,#8
        0x0001a1b4:    ea426203    B..b    ORR      r2,r2,r3,LSL #24
        0x0001a1b8:    ea4f2c13    O..,    LSR      r12,r3,#8
        0x0001a1bc:    eb1e0e02    ....    ADDS     lr,lr,r2
        0x0001a1c0:    eb43030c    C...    ADC      r3,r3,r12
        0x0001a1c4:    ea4f421e    O..B    LSR      r2,lr,#16
        0x0001a1c8:    ea424203    B..B    ORR      r2,r2,r3,LSL #16
        0x0001a1cc:    ea4f4c13    O..L    LSR      r12,r3,#16
        0x0001a1d0:    eb12020e    ....    ADDS     r2,r2,lr
        0x0001a1d4:    eb43030c    C...    ADC      r3,r3,r12
        0x0001a1d8:    18d2        ..      ADDS     r2,r2,r3
        0x0001a1da:    f1430c00    C...    ADC      r12,r3,#0
        0x0001a1de:    08d2        ..      LSRS     r2,r2,#3
        0x0001a1e0:    ea42724c    B.Lr    ORR      r2,r2,r12,LSL #29
        0x0001a1e4:    f06f0309    o...    MVN      r3,#9
        0x0001a1e8:    fba2e303    ....    UMULL    lr,r3,r2,r3
        0x0001a1ec:    ea4f04dc    O...    LSR      r4,r12,#3
        0x0001a1f0:    1a9b        ..      SUBS     r3,r3,r2
        0x0001a1f2:    eb040484    ....    ADD      r4,r4,r4,LSL #2
        0x0001a1f6:    eba30344    ..D.    SUB      r3,r3,r4,LSL #1
        0x0001a1fa:    eb10000e    ....    ADDS     r0,r0,lr
        0x0001a1fe:    4159        YA      ADCS     r1,r1,r3
        0x0001a200:    3006        .0      ADDS     r0,#6
        0x0001a202:    f1410100    A...    ADC      r1,r1,#0
        0x0001a206:    0900        ..      LSRS     r0,r0,#4
        0x0001a208:    ea407001    @..p    ORR      r0,r0,r1,LSL #28
        0x0001a20c:    090b        ..      LSRS     r3,r1,#4
        0x0001a20e:    1880        ..      ADDS     r0,r0,r2
        0x0001a210:    eb4301dc    C...    ADC      r1,r3,r12,LSR #3
        0x0001a214:    bd10        ..      POP      {r4,pc}
        0x0001a216:    0000        ..      MOVS     r0,r0
    main
        0x0001a218:    b084        ..      SUB      sp,sp,#0x10
        0x0001a21a:    f64a00ea    J...    MOV      r0,#0xa8ea
        0x0001a21e:    f2c00001    ....    MOVT     r0,#1
        0x0001a222:    8881        ..      LDRH     r1,[r0,#4]
        0x0001a224:    6800        .h      LDR      r0,[r0,#0]
        0x0001a226:    f2442440    D.@$    MOV      r4,#0x4240
        0x0001a22a:    f24325a2    C..%    MOV      r5,#0x32a2
        0x0001a22e:    9002        ..      STR      r0,[sp,#8]
        0x0001a230:    2000        .       MOVS     r0,#0
        0x0001a232:    f2c0040f    ....    MOVT     r4,#0xf
        0x0001a236:    f2c00501    ....    MOVT     r5,#1
        0x0001a23a:    f8ad100c    ....    STRH     r1,[sp,#0xc]
        0x0001a23e:    f8ad0004    ....    STRH     r0,[sp,#4]
        0x0001a242:    9000        ..      STR      r0,[sp,#0]
        0x0001a244:    f7fef920    .. .    BL       am_bsp_low_power_init ; 0x18488
        0x0001a248:    f000f8d6    ....    BL       min_power_settings ; 0x1a3f8
        0x0001a24c:    f64a00f0    J...    MOV      r0,#0xa8f0
        0x0001a250:    f2c00001    ....    MOVT     r0,#1
        0x0001a254:    f7fef9af    ....    BL       am_hal_cachectrl_config ; 0x185b6
        0x0001a258:    f7fefa4d    ..M.    BL       am_hal_cachectrl_enable ; 0x186f6
        0x0001a25c:    a802        ..      ADD      r0,sp,#8
        0x0001a25e:    f7fefeab    ....    BL       am_hal_pwrctrl_mcu_memory_config ; 0x18fb8
        0x0001a262:    4668        hF      MOV      r0,sp
        0x0001a264:    f7fff80e    ....    BL       am_hal_pwrctrl_sram_config ; 0x19284
        0x0001a268:    f7fef944    ..D.    BL       am_bsp_uart_printf_enable ; 0x184f4
        0x0001a26c:    f7fffb1a    ....    BL       am_util_stdio_terminal_clear ; 0x198a4
        0x0001a270:    f64a4090    J..@    MOV      r0,#0xac90
        0x0001a274:    f2c00001    ....    MOVT     r0,#1
        0x0001a278:    f7fffaea    ....    BL       am_util_stdio_printf ; 0x19850
        0x0001a27c:    f64a30e4    J..0    MOV      r0,#0xabe4
        0x0001a280:    f2c00001    ....    MOVT     r0,#1
        0x0001a284:    4621        !F      MOV      r1,r4
        0x0001a286:    f7fffae3    ....    BL       am_util_stdio_printf ; 0x19850
        0x0001a28a:    f64a40ae    J..@    MOV      r0,#0xacae
        0x0001a28e:    f64a41c3    J..A    MOV      r1,#0xacc3
        0x0001a292:    f2c00001    ....    MOVT     r0,#1
        0x0001a296:    f2c00101    ....    MOVT     r1,#1
        0x0001a29a:    f7fffad9    ....    BL       am_util_stdio_printf ; 0x19850
        0x0001a29e:    f64a3160    J.`1    MOV      r1,#0xab60
        0x0001a2a2:    a030        0.      ADR      r0,{pc}+0xc2 ; 0x1a364
        0x0001a2a4:    f2c00101    ....    MOVT     r1,#1
        0x0001a2a8:    f7fffad2    ....    BL       am_util_stdio_printf ; 0x19850
        0x0001a2ac:    f64a365c    J.\6    MOV      r6,#0xab5c
        0x0001a2b0:    f2c00601    ....    MOVT     r6,#1
        0x0001a2b4:    7873        sx      LDRB     r3,[r6,#1]
        0x0001a2b6:    78b2        .x      LDRB     r2,[r6,#2]
        0x0001a2b8:    78f1        .x      LDRB     r1,[r6,#3]
        0x0001a2ba:    a030        0.      ADR      r0,{pc}+0xc2 ; 0x1a37c
        0x0001a2bc:    f7fffac8    ....    BL       am_util_stdio_printf ; 0x19850
        0x0001a2c0:    f9960000    ....    LDRSB    r0,[r6,#0]
        0x0001a2c4:    a136        6.      ADR      r1,{pc}+0xdc ; 0x1a3a0
        0x0001a2c6:    f1b03fff    ...?    CMP      r0,#0xffffffff
        0x0001a2ca:    a037        7.      ADR      r0,{pc}+0xde ; 0x1a3a8
        0x0001a2cc:    a232        2.      ADR      r2,{pc}+0xcc ; 0x1a398
        0x0001a2ce:    bfc8        ..      IT       GT
        0x0001a2d0:    4611        .F      MOVGT    r1,r2
        0x0001a2d2:    f7fffabd    ....    BL       am_util_stdio_printf ; 0x19850
        0x0001a2d6:    a03e        >.      ADR      r0,{pc}+0xfa ; 0x1a3d0
        0x0001a2d8:    f7fffaba    ....    BL       am_util_stdio_printf ; 0x19850
        0x0001a2dc:    f2427010    B..p    MOV      r0,#0x2710
        0x0001a2e0:    f7fefbe8    ....    BL       am_hal_delay_us ; 0x18ab4
        0x0001a2e4:    f7fef8db    ....    BL       am_bsp_uart_printf_disable ; 0x1849e
        0x0001a2e8:    f64a482a    J.*H    MOV      r8,#0xac2a
        0x0001a2ec:    f64a4750    J.PG    MOV      r7,#0xac50
        0x0001a2f0:    2601        .&      MOVS     r6,#1
        0x0001a2f2:    2003        .       MOVS     r0,#3
        0x0001a2f4:    f2c00801    ....    MOVT     r8,#1
        0x0001a2f8:    f2c00701    ....    MOVT     r7,#1
        0x0001a2fc:    2804        .(      CMP      r0,#4
        0x0001a2fe:    d201        ..      BCS      0x1a304 ; main + 236
        0x0001a300:    2101        .!      MOVS     r1,#1
        0x0001a302:    e010        ..      B        0x1a326 ; main + 270
        0x0001a304:    2203        ."      MOVS     r2,#3
        0x0001a306:    bf00        ..      NOP      
        0x0001a308:    1e51        Q.      SUBS     r1,r2,#1
        0x0001a30a:    fbb0f3f1    ....    UDIV     r3,r0,r1
        0x0001a30e:    fb030111    ....    MLS      r1,r3,r1,r0
        0x0001a312:    b129        ).      CBZ      r1,0x1a320 ; main + 264
        0x0001a314:    fb02f302    ....    MUL      r3,r2,r2
        0x0001a318:    4283        .B      CMP      r3,r0
        0x0001a31a:    f1020201    ....    ADD      r2,r2,#1
        0x0001a31e:    d9f3        ..      BLS      0x1a308 ; main + 240
        0x0001a320:    2900        .)      CMP      r1,#0
        0x0001a322:    bf18        ..      IT       NE
        0x0001a324:    2101        .!      MOVNE    r1,#1
        0x0001a326:    3001        .0      ADDS     r0,#1
        0x0001a328:    42a0        .B      CMP      r0,r4
        0x0001a32a:    440e        .D      ADD      r6,r6,r1
        0x0001a32c:    d1e6        ..      BNE      0x1a2fc ; main + 228
        0x0001a32e:    f7fef8e1    ....    BL       am_bsp_uart_printf_enable ; 0x184f4
        0x0001a332:    42ae        .B      CMP      r6,r5
        0x0001a334:    d104        ..      BNE      0x1a340 ; main + 296
        0x0001a336:    4640        @F      MOV      r0,r8
        0x0001a338:    4621        !F      MOV      r1,r4
        0x0001a33a:    462a        *F      MOV      r2,r5
        0x0001a33c:    e003        ..      B        0x1a346 ; main + 302
        0x0001a33e:    bf00        ..      NOP      
        0x0001a340:    4638        8F      MOV      r0,r7
        0x0001a342:    4629        )F      MOV      r1,r5
        0x0001a344:    4632        2F      MOV      r2,r6
        0x0001a346:    f7fffa83    ....    BL       am_util_stdio_printf ; 0x19850
        0x0001a34a:    f2427010    B..p    MOV      r0,#0x2710
        0x0001a34e:    f7fefbb1    ....    BL       am_hal_delay_us ; 0x18ab4
        0x0001a352:    f7fef8a4    ....    BL       am_bsp_uart_printf_disable ; 0x1849e
        0x0001a356:    2001        .       MOVS     r0,#1
        0x0001a358:    2100        .!      MOVS     r1,#0
        0x0001a35a:    2601        .&      MOVS     r6,#1
        0x0001a35c:    f7fef94e    ..N.    BL       am_hal_cachectrl_control ; 0x185fc
        0x0001a360:    2003        .       MOVS     r0,#3
        0x0001a362:    e7cb        ..      B        0x1a2fc ; main + 228
    $d.3
        0x0001a364:    204c4148    HAL     DCD    541868360
        0x0001a368:    706d6f43    Comp    DCD    1886220099
        0x0001a36c:    72656c69    iler    DCD    1919249513
        0x0001a370:    2020203a    :       DCD    538976314
        0x0001a374:    0a732520     %s.    DCD    175318304
        0x0001a378:    00000000    ....    DCD    0
        0x0001a37c:    204c4148    HAL     DCD    541868360
        0x0001a380:    204b4453    SDK     DCD    541803603
        0x0001a384:    73726576    vers    DCD    1936876918
        0x0001a388:    3a6e6f69    ion:    DCD    980316009
        0x0001a38c:    2e642520     %d.    DCD    778315040
        0x0001a390:    252e6425    %d.%    DCD    623797285
        0x0001a394:    00000a64    d...    DCD    2660
        0x0001a398:    49534d43    CMSI    DCD    1230196035
        0x0001a39c:    00000053    S...    DCD    83
        0x0001a3a0:    525f4d41    AM_R    DCD    1381977409
        0x0001a3a4:    00004745    EG..    DCD    18245
        0x0001a3a8:    204c4148    HAL     DCD    541868360
        0x0001a3ac:    706d6f63    comp    DCD    1886220131
        0x0001a3b0:    64656c69    iled    DCD    1684368489
        0x0001a3b4:    74697720     wit    DCD    1953068832
        0x0001a3b8:    73252068    h %s    DCD    1931812968
        0x0001a3bc:    7974732d    -sty    DCD    2037674797
        0x0001a3c0:    7220656c    le r    DCD    1914725740
        0x0001a3c4:    73696765    egis    DCD    1936287589
        0x0001a3c8:    73726574    ters    DCD    1936876916
        0x0001a3cc:    0000000a    ....    DCD    10
        0x0001a3d0:    746e450a    .Ent    DCD    1953383690
        0x0001a3d4:    6e697265    erin    DCD    1852404325
        0x0001a3d8:    72702067    g pr    DCD    1919950951
        0x0001a3dc:    20656d69    ime     DCD    543518057
        0x0001a3e0:    636c6163    calc    DCD    1668047203
        0x0001a3e4:    74616c75    ulat    DCD    1952541813
        0x0001a3e8:    206e6f69    ion     DCD    544108393
        0x0001a3ec:    706f6f6c    loop    DCD    1886351212
        0x0001a3f0:    0a2e2e2e    ....    DCD    170798638
        0x0001a3f4:    00000000    ....    DCD    0
    $t.0
    min_power_settings
        0x0001a3f8:    b510        ..      PUSH     {r4,lr}
        0x0001a3fa:    2001        .       MOVS     r0,#1
        0x0001a3fc:    2100        .!      MOVS     r1,#0
        0x0001a3fe:    f7fef989    ....    BL       am_hal_clkgen_control ; 0x18714
        0x0001a402:    f24c0008    L...    MOV      r0,#0xc008
        0x0001a406:    f2c40000    ....    MOVT     r0,#0x4000
        0x0001a40a:    2137        7!      MOVS     r1,#0x37
        0x0001a40c:    f2401480    @...    MOVW     r4,#0x180
        0x0001a410:    6001        .`      STR      r1,[r0,#0]
        0x0001a412:    f2c40402    ....    MOVT     r4,#0x4002
        0x0001a416:    6820         h      LDR      r0,[r4,#0]
        0x0001a418:    f0400001    @...    ORR      r0,r0,#1
        0x0001a41c:    6020         `      STR      r0,[r4,#0]
        0x0001a41e:    6820         h      LDR      r0,[r4,#0]
        0x0001a420:    f0200002     ...    BIC      r0,r0,#2
        0x0001a424:    6020         `      STR      r0,[r4,#0]
        0x0001a426:    6820         h      LDR      r0,[r4,#0]
        0x0001a428:    f0400004    @...    ORR      r0,r0,#4
        0x0001a42c:    6020         `      STR      r0,[r4,#0]
        0x0001a42e:    2014        .       MOVS     r0,#0x14
        0x0001a430:    f7fefe3f    ..?.    BL       am_hal_pwrctrl_periph_disable ; 0x190b2
        0x0001a434:    f8d401fc    ....    LDR      r0,[r4,#0x1fc]
        0x0001a438:    f4202080     ..     BIC      r0,r0,#0x40000
        0x0001a43c:    f8c401fc    ....    STR      r0,[r4,#0x1fc]
        0x0001a440:    f8d401fc    ....    LDR      r0,[r4,#0x1fc]
        0x0001a444:    f4201000     ...    BIC      r0,r0,#0x200000
        0x0001a448:    f8c401fc    ....    STR      r0,[r4,#0x1fc]
        0x0001a44c:    f8d401fc    ....    LDR      r0,[r4,#0x1fc]
        0x0001a450:    f0207080     ..p    BIC      r0,r0,#0x1000000
        0x0001a454:    f8c401fc    ....    STR      r0,[r4,#0x1fc]
        0x0001a458:    bd10        ..      POP      {r4,pc}
    nonblocking_read
        0x0001a45a:    b510        ..      PUSH     {r4,lr}
        0x0001a45c:    b190        ..      CBZ      r0,0x1a484 ; nonblocking_read + 42
        0x0001a45e:    4604        .F      MOV      r4,r0
        0x0001a460:    6800        .h      LDR      r0,[r0,#0]
        0x0001a462:    f6496206    I..b    MOV      r2,#0x9e06
        0x0001a466:    f020407e     .~@    BIC      r0,r0,#0xfe000000
        0x0001a46a:    f2c012ea    ....    MOVT     r2,#0x1ea
        0x0001a46e:    4290        .B      CMP      r0,r2
        0x0001a470:    d108        ..      BNE      0x1a484 ; nonblocking_read + 42
        0x0001a472:    68c8        .h      LDR      r0,[r1,#0xc]
        0x0001a474:    b108        ..      CBZ      r0,0x1a47a ; nonblocking_read + 32
        0x0001a476:    2200        ."      MOVS     r2,#0
        0x0001a478:    6002        .`      STR      r2,[r0,#0]
        0x0001a47a:    4620         F      MOV      r0,r4
        0x0001a47c:    f000f924    ..$.    BL       read_transaction_save ; 0x1a6c8
        0x0001a480:    b110        ..      CBZ      r0,0x1a488 ; nonblocking_read + 46
        0x0001a482:    bd10        ..      POP      {r4,pc}
        0x0001a484:    2002        .       MOVS     r0,#2
        0x0001a486:    bd10        ..      POP      {r4,pc}
        0x0001a488:    4620         F      MOV      r0,r4
        0x0001a48a:    f000f803    ....    BL       nonblocking_read_sm ; 0x1a494
        0x0001a48e:    2000        .       MOVS     r0,#0
        0x0001a490:    bd10        ..      POP      {r4,pc}
        0x0001a492:    0000        ..      MOVS     r0,r0
    nonblocking_read_sm
        0x0001a494:    b5b0        ..      PUSH     {r4,r5,r7,lr}
        0x0001a496:    b08a        ..      SUB      sp,sp,#0x28
        0x0001a498:    4604        .F      MOV      r4,r0
        0x0001a49a:    f8900098    ....    LDRB     r0,[r0,#0x98]
        0x0001a49e:    b1f8        ..      CBZ      r0,0x1a4e0 ; nonblocking_read_sm + 76
        0x0001a4a0:    f7fefbae    ....    BL       am_hal_interrupt_master_disable ; 0x18c00
        0x0001a4a4:    9001        ..      STR      r0,[sp,#4]
        0x0001a4a6:    6a60        `j      LDR      r0,[r4,#0x24]
        0x0001a4a8:    f24c0100    L...    MOVW     r1,#0xc000
        0x0001a4ac:    f2c40101    ....    MOVT     r1,#0x4001
        0x0001a4b0:    eb013000    ...0    ADD      r0,r1,r0,LSL #12
        0x0001a4b4:    2200        ."      MOVS     r2,#0
        0x0001a4b6:    a902        ..      ADD      r1,sp,#8
        0x0001a4b8:    6983        .i      LDR      r3,[r0,#0x18]
        0x0001a4ba:    06db        ..      LSLS     r3,r3,#27
        0x0001a4bc:    d408        ..      BMI      0x1a4d0 ; nonblocking_read_sm + 60
        0x0001a4be:    6803        .h      LDR      r3,[r0,#0]
        0x0001a4c0:    f4136f70    ..po    TST      r3,#0xf00
        0x0001a4c4:    d109        ..      BNE      0x1a4da ; nonblocking_read_sm + 70
        0x0001a4c6:    548b        .T      STRB     r3,[r1,r2]
        0x0001a4c8:    3201        .2      ADDS     r2,#1
        0x0001a4ca:    2a20         *      CMP      r2,#0x20
        0x0001a4cc:    d1f4        ..      BNE      0x1a4b8 ; nonblocking_read_sm + 36
        0x0001a4ce:    2220         "      MOVS     r2,#0x20
        0x0001a4d0:    f104009c    ....    ADD      r0,r4,#0x9c
        0x0001a4d4:    a902        ..      ADD      r1,sp,#8
        0x0001a4d6:    f7feff29    ..).    BL       am_hal_queue_item_add ; 0x1932c
        0x0001a4da:    9801        ..      LDR      r0,[sp,#4]
        0x0001a4dc:    f7fefb94    ....    BL       am_hal_interrupt_master_set ; 0x18c08
        0x0001a4e0:    f894002c    ..,.    LDRB     r0,[r4,#0x2c]
        0x0001a4e4:    2800        .(      CMP      r0,#0
        0x0001a4e6:    d04c        L.      BEQ      0x1a582 ; nonblocking_read_sm + 238
        0x0001a4e8:    f7fefb8a    ....    BL       am_hal_interrupt_master_disable ; 0x18c00
        0x0001a4ec:    9002        ..      STR      r0,[sp,#8]
        0x0001a4ee:    6d20         m      LDR      r0,[r4,#0x50]
        0x0001a4f0:    f8941098    ....    LDRB     r1,[r4,#0x98]
        0x0001a4f4:    6ba2        .k      LDR      r2,[r4,#0x38]
        0x0001a4f6:    2900        .)      CMP      r1,#0
        0x0001a4f8:    6b61        ak      LDR      r1,[r4,#0x34]
        0x0001a4fa:    eba20200    ....    SUB      r2,r2,r0
        0x0001a4fe:    4401        .D      ADD      r1,r1,r0
        0x0001a500:    d012        ..      BEQ      0x1a528 ; nonblocking_read_sm + 148
        0x0001a502:    f8d450a4    ...P    LDR      r5,[r4,#0xa4]
        0x0001a506:    f104009c    ....    ADD      r0,r4,#0x9c
        0x0001a50a:    42aa        .B      CMP      r2,r5
        0x0001a50c:    bf38        8.      IT       CC
        0x0001a50e:    4615        .F      MOVCC    r5,r2
        0x0001a510:    462a        *F      MOV      r2,r5
        0x0001a512:    f7feff3f    ..?.    BL       am_hal_queue_item_get ; 0x19394
        0x0001a516:    b9f8        ..      CBNZ     r0,0x1a558 ; nonblocking_read_sm + 196
        0x0001a518:    6c62        bl      LDR      r2,[r4,#0x44]
        0x0001a51a:    2000        .       MOVS     r0,#0
        0x0001a51c:    f884002c    ..,.    STRB     r0,[r4,#0x2c]
        0x0001a520:    b1d2        ..      CBZ      r2,0x1a558 ; nonblocking_read_sm + 196
        0x0001a522:    6ca1        .l      LDR      r1,[r4,#0x48]
        0x0001a524:    2001        .       MOVS     r0,#1
        0x0001a526:    e02b        +.      B        0x1a580 ; nonblocking_read_sm + 236
        0x0001a528:    b1aa        ..      CBZ      r2,0x1a556 ; nonblocking_read_sm + 194
        0x0001a52a:    6a60        `j      LDR      r0,[r4,#0x24]
        0x0001a52c:    f24c0300    L...    MOVW     r3,#0xc000
        0x0001a530:    f2c40301    ....    MOVT     r3,#0x4001
        0x0001a534:    eb033000    ...0    ADD      r0,r3,r0,LSL #12
        0x0001a538:    2500        .%      MOVS     r5,#0
        0x0001a53a:    bf00        ..      NOP      
        0x0001a53c:    6983        .i      LDR      r3,[r0,#0x18]
        0x0001a53e:    06db        ..      LSLS     r3,r3,#27
        0x0001a540:    d40a        ..      BMI      0x1a558 ; nonblocking_read_sm + 196
        0x0001a542:    6803        .h      LDR      r3,[r0,#0]
        0x0001a544:    f4136f70    ..po    TST      r3,#0xf00
        0x0001a548:    d106        ..      BNE      0x1a558 ; nonblocking_read_sm + 196
        0x0001a54a:    554b        KU      STRB     r3,[r1,r5]
        0x0001a54c:    3501        .5      ADDS     r5,#1
        0x0001a54e:    42aa        .B      CMP      r2,r5
        0x0001a550:    d1f4        ..      BNE      0x1a53c ; nonblocking_read_sm + 168
        0x0001a552:    4615        .F      MOV      r5,r2
        0x0001a554:    e000        ..      B        0x1a558 ; nonblocking_read_sm + 196
        0x0001a556:    2500        .%      MOVS     r5,#0
        0x0001a558:    6d20         m      LDR      r0,[r4,#0x50]
        0x0001a55a:    4428        (D      ADD      r0,r0,r5
        0x0001a55c:    6520         e      STR      r0,[r4,#0x50]
        0x0001a55e:    9802        ..      LDR      r0,[sp,#8]
        0x0001a560:    f7fefb52    ..R.    BL       am_hal_interrupt_master_set ; 0x18c08
        0x0001a564:    6be0        .k      LDR      r0,[r4,#0x3c]
        0x0001a566:    6d21        !m      LDR      r1,[r4,#0x50]
        0x0001a568:    6001        .`      STR      r1,[r0,#0]
        0x0001a56a:    6ba0        .k      LDR      r0,[r4,#0x38]
        0x0001a56c:    6d21        !m      LDR      r1,[r4,#0x50]
        0x0001a56e:    4281        .B      CMP      r1,r0
        0x0001a570:    d107        ..      BNE      0x1a582 ; nonblocking_read_sm + 238
        0x0001a572:    6c62        bl      LDR      r2,[r4,#0x44]
        0x0001a574:    2000        .       MOVS     r0,#0
        0x0001a576:    f884002c    ..,.    STRB     r0,[r4,#0x2c]
        0x0001a57a:    b112        ..      CBZ      r2,0x1a582 ; nonblocking_read_sm + 238
        0x0001a57c:    6ca1        .l      LDR      r1,[r4,#0x48]
        0x0001a57e:    2000        .       MOVS     r0,#0
        0x0001a580:    4790        .G      BLX      r2
        0x0001a582:    b00a        ..      ADD      sp,sp,#0x28
        0x0001a584:    bdb0        ..      POP      {r4,r5,r7,pc}
    nonblocking_write
        0x0001a586:    b510        ..      PUSH     {r4,lr}
        0x0001a588:    b190        ..      CBZ      r0,0x1a5b0 ; nonblocking_write + 42
        0x0001a58a:    4604        .F      MOV      r4,r0
        0x0001a58c:    6800        .h      LDR      r0,[r0,#0]
        0x0001a58e:    f6496206    I..b    MOV      r2,#0x9e06
        0x0001a592:    f020407e     .~@    BIC      r0,r0,#0xfe000000
        0x0001a596:    f2c012ea    ....    MOVT     r2,#0x1ea
        0x0001a59a:    4290        .B      CMP      r0,r2
        0x0001a59c:    d108        ..      BNE      0x1a5b0 ; nonblocking_write + 42
        0x0001a59e:    68c8        .h      LDR      r0,[r1,#0xc]
        0x0001a5a0:    b108        ..      CBZ      r0,0x1a5a6 ; nonblocking_write + 32
        0x0001a5a2:    2200        ."      MOVS     r2,#0
        0x0001a5a4:    6002        .`      STR      r2,[r0,#0]
        0x0001a5a6:    4620         F      MOV      r0,r4
        0x0001a5a8:    f000f8e2    ....    BL       write_transaction_save ; 0x1a770
        0x0001a5ac:    b110        ..      CBZ      r0,0x1a5b4 ; nonblocking_write + 46
        0x0001a5ae:    bd10        ..      POP      {r4,pc}
        0x0001a5b0:    2002        .       MOVS     r0,#2
        0x0001a5b2:    bd10        ..      POP      {r4,pc}
        0x0001a5b4:    4620         F      MOV      r0,r4
        0x0001a5b6:    f000f803    ....    BL       nonblocking_write_sm ; 0x1a5c0
        0x0001a5ba:    2000        .       MOVS     r0,#0
        0x0001a5bc:    bd10        ..      POP      {r4,pc}
        0x0001a5be:    0000        ..      MOVS     r0,r0
    nonblocking_write_sm
        0x0001a5c0:    e92d41f0    -..A    PUSH     {r4-r8,lr}
        0x0001a5c4:    b084        ..      SUB      sp,sp,#0x10
        0x0001a5c6:    4604        .F      MOV      r4,r0
        0x0001a5c8:    f8900054    ..T.    LDRB     r0,[r0,#0x54]
        0x0001a5cc:    b3e8        ..      CBZ      r0,0x1a64a ; nonblocking_write_sm + 138
        0x0001a5ce:    f7fefb17    ....    BL       am_hal_interrupt_master_disable ; 0x18c00
        0x0001a5d2:    9001        ..      STR      r0,[sp,#4]
        0x0001a5d4:    6fa0        .o      LDR      r0,[r4,#0x78]
        0x0001a5d6:    f894107c    ..|.    LDRB     r1,[r4,#0x7c]
        0x0001a5da:    6e22        "n      LDR      r2,[r4,#0x60]
        0x0001a5dc:    2900        .)      CMP      r1,#0
        0x0001a5de:    6de1        .m      LDR      r1,[r4,#0x5c]
        0x0001a5e0:    eba20200    ....    SUB      r2,r2,r0
        0x0001a5e4:    4401        .D      ADD      r1,r1,r0
        0x0001a5e6:    d015        ..      BEQ      0x1a614 ; nonblocking_write_sm + 84
        0x0001a5e8:    f8d43088    ...0    LDR      r3,[r4,#0x88]
        0x0001a5ec:    f8d4708c    ...p    LDR      r7,[r4,#0x8c]
        0x0001a5f0:    f1040080    ....    ADD      r0,r4,#0x80
        0x0001a5f4:    1afd        ..      SUBS     r5,r7,r3
        0x0001a5f6:    42aa        .B      CMP      r2,r5
        0x0001a5f8:    bf38        8.      IT       CC
        0x0001a5fa:    4615        .F      MOVCC    r5,r2
        0x0001a5fc:    462a        *F      MOV      r2,r5
        0x0001a5fe:    f7fefe95    ....    BL       am_hal_queue_item_add ; 0x1932c
        0x0001a602:    b9e0        ..      CBNZ     r0,0x1a63e ; nonblocking_write_sm + 126
        0x0001a604:    6ee2        .n      LDR      r2,[r4,#0x6c]
        0x0001a606:    2000        .       MOVS     r0,#0
        0x0001a608:    f8840054    ..T.    STRB     r0,[r4,#0x54]
        0x0001a60c:    b1ba        ..      CBZ      r2,0x1a63e ; nonblocking_write_sm + 126
        0x0001a60e:    6f21        !o      LDR      r1,[r4,#0x70]
        0x0001a610:    2001        .       MOVS     r0,#1
        0x0001a612:    e055        U.      B        0x1a6c0 ; nonblocking_write_sm + 256
        0x0001a614:    b192        ..      CBZ      r2,0x1a63c ; nonblocking_write_sm + 124
        0x0001a616:    6a60        `j      LDR      r0,[r4,#0x24]
        0x0001a618:    f24c0300    L...    MOVW     r3,#0xc000
        0x0001a61c:    f2c40301    ....    MOVT     r3,#0x4001
        0x0001a620:    eb033000    ...0    ADD      r0,r3,r0,LSL #12
        0x0001a624:    2500        .%      MOVS     r5,#0
        0x0001a626:    bf00        ..      NOP      
        0x0001a628:    6983        .i      LDR      r3,[r0,#0x18]
        0x0001a62a:    069b        ..      LSLS     r3,r3,#26
        0x0001a62c:    d407        ..      BMI      0x1a63e ; nonblocking_write_sm + 126
        0x0001a62e:    5d4b        K]      LDRB     r3,[r1,r5]
        0x0001a630:    3501        .5      ADDS     r5,#1
        0x0001a632:    42aa        .B      CMP      r2,r5
        0x0001a634:    6003        .`      STR      r3,[r0,#0]
        0x0001a636:    d1f7        ..      BNE      0x1a628 ; nonblocking_write_sm + 104
        0x0001a638:    4615        .F      MOV      r5,r2
        0x0001a63a:    e000        ..      B        0x1a63e ; nonblocking_write_sm + 126
        0x0001a63c:    2500        .%      MOVS     r5,#0
        0x0001a63e:    6fa0        .o      LDR      r0,[r4,#0x78]
        0x0001a640:    4428        (D      ADD      r0,r0,r5
        0x0001a642:    67a0        .g      STR      r0,[r4,#0x78]
        0x0001a644:    9801        ..      LDR      r0,[sp,#4]
        0x0001a646:    f7fefadf    ....    BL       am_hal_interrupt_master_set ; 0x18c08
        0x0001a64a:    f894007c    ..|.    LDRB     r0,[r4,#0x7c]
        0x0001a64e:    b330        0.      CBZ      r0,0x1a69e ; nonblocking_write_sm + 222
        0x0001a650:    6a65        ej      LDR      r5,[r4,#0x24]
        0x0001a652:    f24c0800    L...    MOVW     r8,#0xc000
        0x0001a656:    f2c40801    ....    MOVT     r8,#0x4001
        0x0001a65a:    f7fefad1    ....    BL       am_hal_interrupt_master_disable ; 0x18c00
        0x0001a65e:    9002        ..      STR      r0,[sp,#8]
        0x0001a660:    eb083705    ...7    ADD      r7,r8,r5,LSL #12
        0x0001a664:    69b8        .i      LDR      r0,[r7,#0x18]
        0x0001a666:    0680        ..      LSLS     r0,r0,#26
        0x0001a668:    d416        ..      BMI      0x1a698 ; nonblocking_write_sm + 216
        0x0001a66a:    f1040580    ....    ADD      r5,r4,#0x80
        0x0001a66e:    f10d060f    ....    ADD      r6,sp,#0xf
        0x0001a672:    bf00        ..      NOP      
        0x0001a674:    4628        (F      MOV      r0,r5
        0x0001a676:    4631        1F      MOV      r1,r6
        0x0001a678:    2201        ."      MOVS     r2,#1
        0x0001a67a:    f7fefe8b    ....    BL       am_hal_queue_item_get ; 0x19394
        0x0001a67e:    b158        X.      CBZ      r0,0x1a698 ; nonblocking_write_sm + 216
        0x0001a680:    6a60        `j      LDR      r0,[r4,#0x24]
        0x0001a682:    f89d100f    ....    LDRB     r1,[sp,#0xf]
        0x0001a686:    eb083000    ...0    ADD      r0,r8,r0,LSL #12
        0x0001a68a:    6982        .i      LDR      r2,[r0,#0x18]
        0x0001a68c:    0692        ..      LSLS     r2,r2,#26
        0x0001a68e:    bf58        X.      IT       PL
        0x0001a690:    6001        .`      STRPL    r1,[r0,#0]
        0x0001a692:    69b8        .i      LDR      r0,[r7,#0x18]
        0x0001a694:    0680        ..      LSLS     r0,r0,#26
        0x0001a696:    d5ed        ..      BPL      0x1a674 ; nonblocking_write_sm + 180
        0x0001a698:    9802        ..      LDR      r0,[sp,#8]
        0x0001a69a:    f7fefab5    ....    BL       am_hal_interrupt_master_set ; 0x18c08
        0x0001a69e:    6e60        `n      LDR      r0,[r4,#0x64]
        0x0001a6a0:    6fa1        .o      LDR      r1,[r4,#0x78]
        0x0001a6a2:    6001        .`      STR      r1,[r0,#0]
        0x0001a6a4:    6e20         n      LDR      r0,[r4,#0x60]
        0x0001a6a6:    6fa1        .o      LDR      r1,[r4,#0x78]
        0x0001a6a8:    4281        .B      CMP      r1,r0
        0x0001a6aa:    d10a        ..      BNE      0x1a6c2 ; nonblocking_write_sm + 258
        0x0001a6ac:    f8940054    ..T.    LDRB     r0,[r4,#0x54]
        0x0001a6b0:    b138        8.      CBZ      r0,0x1a6c2 ; nonblocking_write_sm + 258
        0x0001a6b2:    6ee2        .n      LDR      r2,[r4,#0x6c]
        0x0001a6b4:    2000        .       MOVS     r0,#0
        0x0001a6b6:    f8840054    ..T.    STRB     r0,[r4,#0x54]
        0x0001a6ba:    b112        ..      CBZ      r2,0x1a6c2 ; nonblocking_write_sm + 258
        0x0001a6bc:    6f21        !o      LDR      r1,[r4,#0x70]
        0x0001a6be:    2000        .       MOVS     r0,#0
        0x0001a6c0:    4790        .G      BLX      r2
        0x0001a6c2:    b004        ..      ADD      sp,sp,#0x10
        0x0001a6c4:    e8bd81f0    ....    POP      {r4-r8,pc}
    read_transaction_save
        0x0001a6c8:    b5b0        ..      PUSH     {r4,r5,r7,lr}
        0x0001a6ca:    b082        ..      SUB      sp,sp,#8
        0x0001a6cc:    460d        .F      MOV      r5,r1
        0x0001a6ce:    4604        .F      MOV      r4,r0
        0x0001a6d0:    f7fefa96    ....    BL       am_hal_interrupt_master_disable ; 0x18c00
        0x0001a6d4:    9001        ..      STR      r0,[sp,#4]
        0x0001a6d6:    f894002c    ..,.    LDRB     r0,[r4,#0x2c]
        0x0001a6da:    b118        ..      CBZ      r0,0x1a6e4 ; read_transaction_save + 28
        0x0001a6dc:    2505        .%      MOVS     r5,#5
        0x0001a6de:    f6c00500    ....    MOVT     r5,#0x800
        0x0001a6e2:    e015        ..      B        0x1a710 ; read_transaction_save + 72
        0x0001a6e4:    2001        .       MOVS     r0,#1
        0x0001a6e6:    f884002c    ..,.    STRB     r0,[r4,#0x2c]
        0x0001a6ea:    7828        (x      LDRB     r0,[r5,#0]
        0x0001a6ec:    6869        ih      LDR      r1,[r5,#4]
        0x0001a6ee:    f8840030    ..0.    STRB     r0,[r4,#0x30]
        0x0001a6f2:    6361        ac      STR      r1,[r4,#0x34]
        0x0001a6f4:    e9d50102    ....    LDRD     r0,r1,[r5,#8]
        0x0001a6f8:    e9c4010e    ....    STRD     r0,r1,[r4,#0x38]
        0x0001a6fc:    e9d50104    ....    LDRD     r0,r1,[r5,#0x10]
        0x0001a700:    e9c40110    ....    STRD     r0,r1,[r4,#0x40]
        0x0001a704:    e9d50106    ....    LDRD     r0,r1,[r5,#0x18]
        0x0001a708:    2500        .%      MOVS     r5,#0
        0x0001a70a:    e9c40112    ....    STRD     r0,r1,[r4,#0x48]
        0x0001a70e:    6525        %e      STR      r5,[r4,#0x50]
        0x0001a710:    9801        ..      LDR      r0,[sp,#4]
        0x0001a712:    f7fefa79    ..y.    BL       am_hal_interrupt_master_set ; 0x18c08
        0x0001a716:    4628        (F      MOV      r0,r5
        0x0001a718:    b002        ..      ADD      sp,sp,#8
        0x0001a71a:    bdb0        ..      POP      {r4,r5,r7,pc}
    uint64_to_str
        0x0001a71c:    b5f0        ..      PUSH     {r4-r7,lr}
        0x0001a71e:    b087        ..      SUB      sp,sp,#0x1c
        0x0001a720:    4614        .F      MOV      r4,r2
        0x0001a722:    4605        .F      MOV      r5,r0
        0x0001a724:    2000        .       MOVS     r0,#0
        0x0001a726:    f10d0603    ....    ADD      r6,sp,#3
        0x0001a72a:    bf00        ..      NOP      
        0x0001a72c:    4607        .F      MOV      r7,r0
        0x0001a72e:    4628        (F      MOV      r0,r5
        0x0001a730:    f7fffd12    ....    BL       divu64_10 ; 0x1a158
        0x0001a734:    4602        .F      MOV      r2,r0
        0x0001a736:    eb000080    ....    ADD      r0,r0,r0,LSL #2
        0x0001a73a:    eba50040    ..@.    SUB      r0,r5,r0,LSL #1
        0x0001a73e:    f1000330    ..0.    ADD      r3,r0,#0x30
        0x0001a742:    1c78        x.      ADDS     r0,r7,#1
        0x0001a744:    55f3        .U      STRB     r3,[r6,r7]
        0x0001a746:    ea520701    R...    ORRS     r7,r2,r1
        0x0001a74a:    4615        .F      MOV      r5,r2
        0x0001a74c:    d1ee        ..      BNE      0x1a72c ; uint64_to_str + 16
        0x0001a74e:    b16c        l.      CBZ      r4,0x1a76c ; uint64_to_str + 80
        0x0001a750:    2801        .(      CMP      r0,#1
        0x0001a752:    f8043b01    ...;    STRB     r3,[r4],#1
        0x0001a756:    d007        ..      BEQ      0x1a768 ; uint64_to_str + 76
        0x0001a758:    1eb1        ..      SUBS     r1,r6,#2
        0x0001a75a:    4602        .F      MOV      r2,r0
        0x0001a75c:    5c8b        .\      LDRB     r3,[r1,r2]
        0x0001a75e:    3a01        .:      SUBS     r2,#1
        0x0001a760:    2a01        .*      CMP      r2,#1
        0x0001a762:    f8043b01    ...;    STRB     r3,[r4],#1
        0x0001a766:    d1f9        ..      BNE      0x1a75c ; uint64_to_str + 64
        0x0001a768:    2100        .!      MOVS     r1,#0
        0x0001a76a:    7021        !p      STRB     r1,[r4,#0]
        0x0001a76c:    b007        ..      ADD      sp,sp,#0x1c
        0x0001a76e:    bdf0        ..      POP      {r4-r7,pc}
    write_transaction_save
        0x0001a770:    b5b0        ..      PUSH     {r4,r5,r7,lr}
        0x0001a772:    b082        ..      SUB      sp,sp,#8
        0x0001a774:    460d        .F      MOV      r5,r1
        0x0001a776:    4604        .F      MOV      r4,r0
        0x0001a778:    f7fefa42    ..B.    BL       am_hal_interrupt_master_disable ; 0x18c00
        0x0001a77c:    9001        ..      STR      r0,[sp,#4]
        0x0001a77e:    f8940054    ..T.    LDRB     r0,[r4,#0x54]
        0x0001a782:    b118        ..      CBZ      r0,0x1a78c ; write_transaction_save + 28
        0x0001a784:    2504        .%      MOVS     r5,#4
        0x0001a786:    f6c00500    ....    MOVT     r5,#0x800
        0x0001a78a:    e017        ..      B        0x1a7bc ; write_transaction_save + 76
        0x0001a78c:    2001        .       MOVS     r0,#1
        0x0001a78e:    f8840054    ..T.    STRB     r0,[r4,#0x54]
        0x0001a792:    7828        (x      LDRB     r0,[r5,#0]
        0x0001a794:    6869        ih      LDR      r1,[r5,#4]
        0x0001a796:    f8840058    ..X.    STRB     r0,[r4,#0x58]
        0x0001a79a:    65e1        .e      STR      r1,[r4,#0x5c]
        0x0001a79c:    e9d50102    ....    LDRD     r0,r1,[r5,#8]
        0x0001a7a0:    e9c40118    ....    STRD     r0,r1,[r4,#0x60]
        0x0001a7a4:    e9d50104    ....    LDRD     r0,r1,[r5,#0x10]
        0x0001a7a8:    e9c4011a    ....    STRD     r0,r1,[r4,#0x68]
        0x0001a7ac:    e9d50106    ....    LDRD     r0,r1,[r5,#0x18]
        0x0001a7b0:    2500        .%      MOVS     r5,#0
        0x0001a7b2:    e9c4011c    ....    STRD     r0,r1,[r4,#0x70]
        0x0001a7b6:    67a5        .g      STR      r5,[r4,#0x78]
        0x0001a7b8:    f88450b4    ...P    STRB     r5,[r4,#0xb4]
        0x0001a7bc:    9801        ..      LDR      r0,[sp,#4]
        0x0001a7be:    f7fefa23    ..#.    BL       am_hal_interrupt_master_set ; 0x18c08
        0x0001a7c2:    4628        (F      MOV      r0,r5
        0x0001a7c4:    b002        ..      ADD      sp,sp,#8
        0x0001a7c6:    bdb0        ..      POP      {r4,r5,r7,pc}
    $t
    x$fpl$d2f
    $v0
    __aeabi_d2f
    _d2f
        0x0001a7c8:    f0214200    !..B    BIC      r2,r1,#0x80000000
        0x0001a7cc:    f0014300    ...C    AND      r3,r1,#0x80000000
        0x0001a7d0:    f1a25260    ..`R    SUB      r2,r2,#0x38000000
        0x0001a7d4:    f5b21f80    ....    CMP      r2,#0x100000
        0x0001a7d8:    bf28        (.      IT       CS
        0x0001a7da:    f1d26c7f    ...l    RSBSCS   r12,r2,#0xff00000
        0x0001a7de:    d90b        ..      BLS      0x1a7f8 ; __aeabi_d2f + 48
        0x0001a7e0:    ea5f1c00    _...    LSLS     r12,r0,#4
        0x0001a7e4:    ea4302c2    C...    ORR      r2,r3,r2,LSL #3
        0x0001a7e8:    eb427050    B.Pp    ADC      r0,r2,r0,LSR #29
        0x0001a7ec:    bf18        ..      IT       NE
        0x0001a7ee:    4770        pG      BXNE     lr
        0x0001a7f0:    bf28        (.      IT       CS
        0x0001a7f2:    f0200001     ...    BICCS    r0,r0,#1
        0x0001a7f6:    4770        pG      BX       lr
        0x0001a7f8:    f5b21f80    ....    CMP      r2,#0x100000
        0x0001a7fc:    bfbc        ..      ITT      LT
        0x0001a7fe:    4618        .F      MOVLT    r0,r3
        0x0001a800:    4770        pG      BXLT     lr
        0x0001a802:    ea4f0c41    O.A.    LSL      r12,r1,#1
        0x0001a806:    f51c1f00    ....    CMN      r12,#0x200000
        0x0001a80a:    d202        ..      BCS      0x1a812 ; __aeabi_d2f + 74
        0x0001a80c:    4608        .F      MOV      r0,r1
        0x0001a80e:    f000b867    ..g.    B.W      __fpl_fretinf ; 0x1a8e0
        0x0001a812:    b570        p.      PUSH     {r4-r6,lr}
        0x0001a814:    f000f809    ....    BL       __fpl_dnaninf ; 0x1a82a
    $d
        0x0001a818:    89000000    ....    DCD    2298478592
    $t
        0x0001a81c:    f7ffbff6    ....    B.W      0x1a80c ; __aeabi_d2f + 68
        0x0001a820:    f04f4000    O..@    MOV      r0,#0x80000000
        0x0001a824:    f5a00080    ....    SUB      r0,r0,#0x400000
        0x0001a828:    4770        pG      BX       lr
    x$fpl$dnaninf
    $v0
    __fpl_dnaninf
        0x0001a82a:    f10e0e02    ....    ADD      lr,lr,#2
        0x0001a82e:    f02e0e03    ....    BIC      lr,lr,#3
        0x0001a832:    f85e6b04    ^..k    LDR      r6,[lr],#4
        0x0001a836:    4236        6B      TST      r6,r6
        0x0001a838:    d405        ..      BMI      0x1a846 ; __fpl_dnaninf + 28
        0x0001a83a:    2a01        .*      CMP      r2,#1
        0x0001a83c:    eb430503    C...    ADC      r5,r3,r3
        0x0001a840:    f5151f00    ....    CMN      r5,#0x200000
        0x0001a844:    d812        ..      BHI      0x1a86c ; __fpl_dnaninf + 66
        0x0001a846:    2801        .(      CMP      r0,#1
        0x0001a848:    eb410c01    A...    ADC      r12,r1,r1
        0x0001a84c:    f51c1f00    ....    CMN      r12,#0x200000
        0x0001a850:    d80c        ..      BHI      0x1a86c ; __fpl_dnaninf + 66
        0x0001a852:    d10e        ..      BNE      0x1a872 ; __fpl_dnaninf + 72
        0x0001a854:    ea4f7cd1    O..|    LSR      r12,r1,#31
        0x0001a858:    eb0c0c4c    ..L.    ADD      r12,r12,r12,LSL #1
        0x0001a85c:    f10c0c02    ....    ADD      r12,r12,#2
        0x0001a860:    f5151f00    ....    CMN      r5,#0x200000
        0x0001a864:    bf08        ..      IT       EQ
        0x0001a866:    eb4c7cd3    L..|    ADCEQ    r12,r12,r3,LSR #31
        0x0001a86a:    e004        ..      B        0x1a876 ; __fpl_dnaninf + 76
        0x0001a86c:    f04f0c08    O...    MOV      r12,#8
        0x0001a870:    e001        ..      B        0x1a876 ; __fpl_dnaninf + 76
        0x0001a872:    ea4f7cd3    O..|    LSR      r12,r3,#31
        0x0001a876:    eb0c054c    ..L.    ADD      r5,r12,r12,LSL #1
        0x0001a87a:    fa26f605    &...    LSR      r6,r6,r5
        0x0001a87e:    f0060607    ....    AND      r6,r6,#7
        0x0001a882:    f1b60c04    ....    SUBS     r12,r6,#4
        0x0001a886:    d206        ..      BCS      0x1a896 ; __fpl_dnaninf + 108
        0x0001a888:    eb0e0c86    ....    ADD      r12,lr,r6,LSL #2
        0x0001a88c:    e8bd4070    ..p@    POP      {r4-r6,lr}
        0x0001a890:    f04c0c01    L...    ORR      r12,r12,#1
        0x0001a894:    4760        `G      BX       r12
        0x0001a896:    e8dff00c    ....    TBB      [pc,r12]
    $d
        0x0001a89a:    0b09        ..      DCW    2825
        0x0001a89c:    0202        ..      DCW    514
    $t
        0x0001a89e:    f04f4100    O..A    MOV      r1,#0x80000000
        0x0001a8a2:    f5a12100    ...!    SUB      r1,r1,#0x80000
        0x0001a8a6:    f04f0000    O...    MOV      r0,#0
        0x0001a8aa:    bd70        p.      POP      {r4-r6,pc}
        0x0001a8ac:    4619        .F      MOV      r1,r3
        0x0001a8ae:    4610        .F      MOV      r0,r2
        0x0001a8b0:    2801        .(      CMP      r0,#1
        0x0001a8b2:    eb510401    Q...    ADCS     r4,r1,r1
        0x0001a8b6:    bf18        ..      IT       NE
        0x0001a8b8:    f5d41400    ....    RSBSNE   r4,r4,#0x200000
        0x0001a8bc:    bf84        ..      ITT      HI
        0x0001a8be:    2000        .       MOVHI    r0,#0
        0x0001a8c0:    f0014100    ...A    ANDHI    r1,r1,#0x80000000
        0x0001a8c4:    bd70        p.      POP      {r4-r6,pc}
    x$fpl$fpinit
    $v0
    _fp_init
        0x0001a8c6:    eef10a10    ....    VMRS     r0,FPSCR
        0x0001a8ca:    f64f71ff    O..q    MOV      r1,#0xffff
        0x0001a8ce:    f2c031c0    ...1    MOVT     r1,#0x3c0
        0x0001a8d2:    ea200001     ...    BIC      r0,r0,r1
        0x0001a8d6:    f0407040    @.@p    ORR      r0,r0,#0x3000000
        0x0001a8da:    eee10a10    ....    VMSR     FPSCR,r0
    __fplib_config_fpu_vfp
    __fplib_config_pureend_doubles
        0x0001a8de:    4770        pG      BX       lr
    x$fpl$fretinf
    $v0
    __fpl_fretinf
        0x0001a8e0:    21ff        .!      MOVS     r1,#0xff
        0x0001a8e2:    ea4150d0    A..P    ORR      r0,r1,r0,LSR #23
        0x0001a8e6:    05c0        ..      LSLS     r0,r0,#23
        0x0001a8e8:    4770        pG      BX       lr
    $d.realdata
    .L__const.main.McuMemCfg
    x$fpl$usenofp
    __I$use$fp
        0x0001a8ea:    0002        ..      DCW    2
        0x0001a8ec:    01010101    ....    DCD    16843009
    am_hal_cachectrl_defaults
        0x0001a8f0:    030e        ..      DCW    782
        0x0001a8f2:    00          .       DCB    0
    am_hal_daxi_defaults
        0x0001a8f3:    00          .       DCB    0
        0x0001a8f4:    010f0201    ....    DCD    17760769
    am_hal_gpio_pincfg_disabled
        0x0001a8f8:    00000003    ....    DCD    3
    am_hal_pwrctrl_peripheral_control
        0x0001a8fc:    40021004    ...@    DCD    1073876996
        0x0001a900:    00000001    ....    DCD    1
        0x0001a904:    40021008    ...@    DCD    1073877000
        0x0001a908:    00000001    ....    DCD    1
        0x0001a90c:    40021004    ...@    DCD    1073876996
        0x0001a910:    00000002    ....    DCD    2
        0x0001a914:    40021008    ...@    DCD    1073877000
        0x0001a918:    0000001e    ....    DCD    30
        0x0001a91c:    40021004    ...@    DCD    1073876996
        0x0001a920:    00000004    ....    DCD    4
        0x0001a924:    40021008    ...@    DCD    1073877000
        0x0001a928:    0000001e    ....    DCD    30
        0x0001a92c:    40021004    ...@    DCD    1073876996
        0x0001a930:    00000008    ....    DCD    8
        0x0001a934:    40021008    ...@    DCD    1073877000
        0x0001a938:    0000001e    ....    DCD    30
        0x0001a93c:    40021004    ...@    DCD    1073876996
        0x0001a940:    00000010    ....    DCD    16
        0x0001a944:    40021008    ...@    DCD    1073877000
        0x0001a948:    0000001e    ....    DCD    30
        0x0001a94c:    40021004    ...@    DCD    1073876996
        0x0001a950:    00000020     ...    DCD    32
        0x0001a954:    40021008    ...@    DCD    1073877000
        0x0001a958:    000001e0    ....    DCD    480
        0x0001a95c:    40021004    ...@    DCD    1073876996
        0x0001a960:    00000040    @...    DCD    64
        0x0001a964:    40021008    ...@    DCD    1073877000
        0x0001a968:    000001e0    ....    DCD    480
        0x0001a96c:    40021004    ...@    DCD    1073876996
        0x0001a970:    00000080    ....    DCD    128
        0x0001a974:    40021008    ...@    DCD    1073877000
        0x0001a978:    000001e0    ....    DCD    480
        0x0001a97c:    40021004    ...@    DCD    1073876996
        0x0001a980:    00000100    ....    DCD    256
        0x0001a984:    40021008    ...@    DCD    1073877000
        0x0001a988:    000001e0    ....    DCD    480
        0x0001a98c:    40021004    ...@    DCD    1073876996
        0x0001a990:    00000200    ....    DCD    512
        0x0001a994:    40021008    ...@    DCD    1073877000
        0x0001a998:    00001e00    ....    DCD    7680
        0x0001a99c:    40021004    ...@    DCD    1073876996
        0x0001a9a0:    00000400    ....    DCD    1024
        0x0001a9a4:    40021008    ...@    DCD    1073877000
        0x0001a9a8:    00001e00    ....    DCD    7680
        0x0001a9ac:    40021004    ...@    DCD    1073876996
        0x0001a9b0:    00000800    ....    DCD    2048
        0x0001a9b4:    40021008    ...@    DCD    1073877000
        0x0001a9b8:    00001e00    ....    DCD    7680
        0x0001a9bc:    40021004    ...@    DCD    1073876996
        0x0001a9c0:    00001000    ....    DCD    4096
        0x0001a9c4:    40021008    ...@    DCD    1073877000
        0x0001a9c8:    00001e00    ....    DCD    7680
        0x0001a9cc:    40021004    ...@    DCD    1073876996
        0x0001a9d0:    00002000    . ..    DCD    8192
        0x0001a9d4:    40021008    ...@    DCD    1073877000
        0x0001a9d8:    00002000    . ..    DCD    8192
        0x0001a9dc:    40021004    ...@    DCD    1073876996
        0x0001a9e0:    00004000    .@..    DCD    16384
        0x0001a9e4:    40021008    ...@    DCD    1073877000
        0x0001a9e8:    0001c000    ....    DCD    114688
        0x0001a9ec:    40021004    ...@    DCD    1073876996
        0x0001a9f0:    00008000    ....    DCD    32768
        0x0001a9f4:    40021008    ...@    DCD    1073877000
        0x0001a9f8:    0001c000    ....    DCD    114688
        0x0001a9fc:    40021004    ...@    DCD    1073876996
        0x0001aa00:    00010000    ....    DCD    65536
        0x0001aa04:    40021008    ...@    DCD    1073877000
        0x0001aa08:    0001c000    ....    DCD    114688
        0x0001aa0c:    40021004    ...@    DCD    1073876996
        0x0001aa10:    00020000    ....    DCD    131072
        0x0001aa14:    40021008    ...@    DCD    1073877000
        0x0001aa18:    00020000    ....    DCD    131072
        0x0001aa1c:    40021004    ...@    DCD    1073876996
        0x0001aa20:    00040000    ....    DCD    262144
        0x0001aa24:    40021008    ...@    DCD    1073877000
        0x0001aa28:    00040000    ....    DCD    262144
        0x0001aa2c:    40021004    ...@    DCD    1073876996
        0x0001aa30:    00080000    ....    DCD    524288
        0x0001aa34:    40021008    ...@    DCD    1073877000
        0x0001aa38:    00080000    ....    DCD    524288
        0x0001aa3c:    40021004    ...@    DCD    1073876996
        0x0001aa40:    00100000    ....    DCD    1048576
        0x0001aa44:    40021008    ...@    DCD    1073877000
        0x0001aa48:    00100000    ....    DCD    1048576
        0x0001aa4c:    40021004    ...@    DCD    1073876996
        0x0001aa50:    00200000    .. .    DCD    2097152
        0x0001aa54:    40021008    ...@    DCD    1073877000
        0x0001aa58:    00200000    .. .    DCD    2097152
        0x0001aa5c:    40021004    ...@    DCD    1073876996
        0x0001aa60:    00400000    ..@.    DCD    4194304
        0x0001aa64:    40021008    ...@    DCD    1073877000
        0x0001aa68:    00400000    ..@.    DCD    4194304
        0x0001aa6c:    40021004    ...@    DCD    1073876996
        0x0001aa70:    00800000    ....    DCD    8388608
        0x0001aa74:    40021008    ...@    DCD    1073877000
        0x0001aa78:    00800000    ....    DCD    8388608
        0x0001aa7c:    40021004    ...@    DCD    1073876996
        0x0001aa80:    01000000    ....    DCD    16777216
        0x0001aa84:    40021008    ...@    DCD    1073877000
        0x0001aa88:    01000000    ....    DCD    16777216
        0x0001aa8c:    4002100c    ...@    DCD    1073877004
        0x0001aa90:    00000001    ....    DCD    1
        0x0001aa94:    40021010    ...@    DCD    1073877008
        0x0001aa98:    000000ff    ....    DCD    255
        0x0001aa9c:    4002100c    ...@    DCD    1073877004
        0x0001aaa0:    00000002    ....    DCD    2
        0x0001aaa4:    40021010    ...@    DCD    1073877008
        0x0001aaa8:    000000ff    ....    DCD    255
        0x0001aaac:    4002100c    ...@    DCD    1073877004
        0x0001aab0:    00000004    ....    DCD    4
        0x0001aab4:    40021010    ...@    DCD    1073877008
        0x0001aab8:    000000ff    ....    DCD    255
        0x0001aabc:    4002100c    ...@    DCD    1073877004
        0x0001aac0:    00000008    ....    DCD    8
        0x0001aac4:    40021010    ...@    DCD    1073877008
        0x0001aac8:    000000ff    ....    DCD    255
        0x0001aacc:    4002100c    ...@    DCD    1073877004
        0x0001aad0:    00000010    ....    DCD    16
        0x0001aad4:    40021010    ...@    DCD    1073877008
        0x0001aad8:    000000ff    ....    DCD    255
        0x0001aadc:    4002100c    ...@    DCD    1073877004
        0x0001aae0:    00000020     ...    DCD    32
        0x0001aae4:    40021010    ...@    DCD    1073877008
        0x0001aae8:    000000ff    ....    DCD    255
        0x0001aaec:    4002100c    ...@    DCD    1073877004
        0x0001aaf0:    00000040    @...    DCD    64
        0x0001aaf4:    40021010    ...@    DCD    1073877008
        0x0001aaf8:    000000ff    ....    DCD    255
        0x0001aafc:    4002100c    ...@    DCD    1073877004
        0x0001ab00:    00000080    ....    DCD    128
        0x0001ab04:    40021010    ...@    DCD    1073877008
        0x0001ab08:    000000ff    ....    DCD    255
        0x0001ab0c:    4002100c    ...@    DCD    1073877004
        0x0001ab10:    00000400    ....    DCD    1024
        0x0001ab14:    40021010    ...@    DCD    1073877008
        0x0001ab18:    00000400    ....    DCD    1024
    g_DefaultMcuMemCfg
        0x0001ab1c:    07070102    ....    DCD    117899522
        0x0001ab20:    0001        ..      DCW    1
    g_DefaultSRAMCfg
        0x0001ab22:    0003        ..      DCW    3
        0x0001ab24:    03000000    ....    DCD    50331648
    g_am_hal_bootrom_helper
        0x0001ab28:    0800004d    M...    DCD    134217805
        0x0001ab2c:    08000051    Q...    DCD    134217809
        0x0001ab30:    08000055    U...    DCD    134217813
        0x0001ab34:    08000059    Y...    DCD    134217817
        0x0001ab38:    0800006d    m...    DCD    134217837
        0x0001ab3c:    08000075    u...    DCD    134217845
        0x0001ab40:    08000079    y...    DCD    134217849
        0x0001ab44:    08000081    ....    DCD    134217857
        0x0001ab48:    08000099    ....    DCD    134217881
        0x0001ab4c:    0800009d    ....    DCD    134217885
    g_sBspUartConfig
        0x0001ab50:    0001c200    ....    DCD    115200
        0x0001ab54:    00000203    ....    DCD    515
        0x0001ab58:    02020000    ....    DCD    33685504
    g_ui32HALversion
        0x0001ab5c:    04040100    ....    DCD    67371264
    g_ui8HALcompiler
        0x0001ab60:    20434347    GCC     DCD    541279047
        0x0001ab64:    6e616c43    Clan    DCD    1851878467
        0x0001ab68:    33312067    g 13    DCD    858857575
        0x0001ab6c:    302e302e    .0.0    DCD    808333358
        0x0001ab70:    73732820     (ss    DCD    1936926752
        0x0001ab74:    2f2f3a68    h://    DCD    791624296
        0x0001ab78:    672d7364    ds-g    DCD    1731031908
        0x0001ab7c:    69727265    erri    DCD    1769108069
        0x0001ab80:    72612f74    t/ar    DCD    1918971764
        0x0001ab84:    6d6f636d    mcom    DCD    1836016493
        0x0001ab88:    656c6970    pile    DCD    1701603696
        0x0001ab8c:    6c6c2f72    r/ll    DCD    1819029362
        0x0001ab90:    702d6d76    vm-p    DCD    1882025334
        0x0001ab94:    656a6f72    roje    DCD    1701474162
        0x0001ab98:    31207463    ct 1    DCD    824210531
        0x0001ab9c:    37373566    f577    DCD    926365030
        0x0001aba0:    66366430    0d6f    DCD    1714840624
        0x0001aba4:    65653237    72ee    DCD    1701130807
        0x0001aba8:    61626534    4eba    DCD    1633838388
        0x0001abac:    39353132    2159    DCD    959787314
        0x0001abb0:    62323930    092b    DCD    1647458608
        0x0001abb4:    63346662    bf4c    DCD    1664378466
        0x0001abb8:    31386262    bb81    DCD    825778786
        0x0001abbc:    33656239    9be3    DCD    862282297
        0x0001abc0:    29613332    23a)    DCD    694235954
        0x0001abc4:    00000000    ....    DCD    0
    __tagsym$$used.7
    sGlobalAccess
        0x0001abc8:    0001ad64    d...    DCD    109924
        0x0001abcc:    0001ad50    P...    DCD    109904
        0x0001abd0:    0001ad28    (...    DCD    109864
        0x0001abd4:    0001ad3c    <...    DCD    109884
        0x0001abd8:    1001f004    ....    DCD    268562436
        0x0001abdc:    1001f018    ....    DCD    268562456
        0x0001abe0:    1001f02c    ,...    DCD    268562476
    .L.str.1
        0x0001abe4:    7361654d    Meas    DCD    1935762765
        0x0001abe8:    20657275    ure     DCD    543519349
        0x0001abec:    65776f70    powe    DCD    1702326128
        0x0001abf0:    68772072    r wh    DCD    1752637554
        0x0001abf4:    20656c69    ile     DCD    543517801
        0x0001abf8:    706d6f63    comp    DCD    1886220131
        0x0001abfc:    6e697475    utin    DCD    1852404853
        0x0001ac00:    68742067    g th    DCD    1752440935
        0x0001ac04:    756e2065    e nu    DCD    1970151525
        0x0001ac08:    7265626d    mber    DCD    1919246957
        0x0001ac0c:    20666f20     of     DCD    543584032
        0x0001ac10:    6d697270    prim    DCD    1835627120
        0x0001ac14:    756e2065    e nu    DCD    1970151525
        0x0001ac18:    7265626d    mber    DCD    1919246957
        0x0001ac1c:    70752073    s up    DCD    1886724211
        0x0001ac20:    206f7420     to     DCD    544175136
        0x0001ac24:    0a2e6425    %d..    DCD    170812453
        0x0001ac28:    000a        ..      DCW    10
    .L.str.10
        0x0001ac2a:    6150        Pa      DCW    24912
        0x0001ac2c:    203a7373    ss:     DCD    540701555
        0x0001ac30:    626d756e    numb    DCD    1651340654
        0x0001ac34:    6f207265    er o    DCD    1864397413
        0x0001ac38:    72702066    f pr    DCD    1919950950
        0x0001ac3c:    73656d69    imes    DCD    1936026985
        0x0001ac40:    726f6620     for    DCD    1919903264
        0x0001ac44:    20642520     %d     DCD    543434016
        0x0001ac48:    25207369    is %    DCD    622883689
        0x0001ac4c:    000a2e64    d...    DCD    667236
    .L.str.11
        0x0001ac50:    4f525245    ERRO    DCD    1330795077
        0x0001ac54:    49203a52    R: I    DCD    1226848850
        0x0001ac58:    6c61766e    nval    DCD    1818326638
        0x0001ac5c:    72206469    id r    DCD    1914725481
        0x0001ac60:    6c757365    esul    DCD    1819636581
        0x0001ac64:    45202e74    t. E    DCD    1159736948
        0x0001ac68:    63657078    xpec    DCD    1667592312
        0x0001ac6c:    20646574    ted     DCD    543450484
        0x0001ac70:    626d756e    numb    DCD    1651340654
        0x0001ac74:    6f207265    er o    DCD    1864397413
        0x0001ac78:    72702066    f pr    DCD    1919950950
        0x0001ac7c:    73656d69    imes    DCD    1936026985
        0x0001ac80:    25203d20     = %    DCD    622869792
        0x0001ac84:    67202c64    d, g    DCD    1730161764
        0x0001ac88:    2520746f    ot %    DCD    622883951
        0x0001ac8c:    000a2e64    d...    DCD    667236
    .L.str
        0x0001ac90:    69626d41    Ambi    DCD    1768058177
        0x0001ac94:    694d2071    q Mi    DCD    1766662257
        0x0001ac98:    206f7263    cro     DCD    544174691
        0x0001ac9c:    69727027    'pri    DCD    1769107495
        0x0001aca0:    2027656d    me'     DCD    539452781
        0x0001aca4:    6d617865    exam    DCD    1835104357
        0x0001aca8:    2e656c70    ple.    DCD    778398832
        0x0001acac:    000a        ..      DCW    10
    .L.str.2
        0x0001acae:    7041        Ap      DCW    28737
        0x0001acb0:    6f432070    p Co    DCD    1866670192
        0x0001acb4:    6c69706d    mpil    DCD    1818849389
        0x0001acb8:    203a7265    er:     DCD    540701285
        0x0001acbc:    25202020       %    DCD    622862368
        0x0001acc0:    0a73        s.      DCW    2675
        0x0001acc2:    00          .       DCB    0
    .L.str.3
        0x0001acc3:    47          G       DCB    71
        0x0001acc4:    43204343    CC C    DCD    1126187843
        0x0001acc8:    676e616c    lang    DCD    1735287148
        0x0001accc:    2e333120     13.    DCD    775106848
        0x0001acd0:    20302e30    0.0     DCD    540028464
        0x0001acd4:    68737328    (ssh    DCD    1752396584
        0x0001acd8:    642f2f3a    ://d    DCD    1680813882
        0x0001acdc:    65672d73    s-ge    DCD    1701260659
        0x0001ace0:    74697272    rrit    DCD    1953067634
        0x0001ace4:    6d72612f    /arm    DCD    1836212527
        0x0001ace8:    706d6f63    comp    DCD    1886220131
        0x0001acec:    72656c69    iler    DCD    1919249513
        0x0001acf0:    766c6c2f    /llv    DCD    1986817071
        0x0001acf4:    72702d6d    m-pr    DCD    1919954285
        0x0001acf8:    63656a6f    ojec    DCD    1667590767
        0x0001acfc:    66312074    t 1f    DCD    1714495604
        0x0001ad00:    30373735    5770    DCD    808924981
        0x0001ad04:    37663664    d6f7    DCD    929445476
        0x0001ad08:    34656532    2ee4    DCD    879060274
        0x0001ad0c:    32616265    eba2    DCD    845242981
        0x0001ad10:    30393531    1590    DCD    809055537
        0x0001ad14:    62623239    92bb    DCD    1650602553
        0x0001ad18:    62633466    f4cb    DCD    1650668646
        0x0001ad1c:    39313862    b819    DCD    959527010
        0x0001ad20:    32336562    be32    DCD    842229090
        0x0001ad24:    00296133    3a).    DCD    2711859
    __tagsym$$used.1
    ui32DSP0Allowed
        0x0001ad28:    00000000    ....    DCD    0
        0x0001ad2c:    00000000    ....    DCD    0
        0x0001ad30:    00000000    ....    DCD    0
        0x0001ad34:    00000000    ....    DCD    0
        0x0001ad38:    00000000    ....    DCD    0
    __tagsym$$used.2
    ui32DSP1Allowed
        0x0001ad3c:    00000000    ....    DCD    0
        0x0001ad40:    00000000    ....    DCD    0
        0x0001ad44:    00000000    ....    DCD    0
        0x0001ad48:    00000000    ....    DCD    0
        0x0001ad4c:    00000000    ....    DCD    0
    __tagsym$$used.0
    ui32MCUAllowed
        0x0001ad50:    00000000    ....    DCD    0
        0x0001ad54:    00000000    ....    DCD    0
        0x0001ad58:    00000000    ....    DCD    0
        0x0001ad5c:    00000000    ....    DCD    0
        0x0001ad60:    00000000    ....    DCD    0
    __tagsym$$used.3
    ui32SharedAccess
        0x0001ad64:    00000000    ....    DCD    0
        0x0001ad68:    00000000    ....    DCD    0
        0x0001ad6c:    00000000    ....    DCD    0
        0x0001ad70:    00000000    ....    DCD    0
        0x0001ad74:    00000000    ....    DCD    0
    Region$$Table$$Base
        0x0001ad78:    0001ada8    ....    DCD    109992
        0x0001ad7c:    10000000    ....    DCD    268435456
        0x0001ad80:    00000018    ....    DCD    24
        0x0001ad84:    00018270    p...    DCD    98928
        0x0001ad88:    0001adc0    ....    DCD    110016
        0x0001ad8c:    1001f000    ....    DCD    268562432
        0x0001ad90:    00000040    @...    DCD    64
        0x0001ad94:    00018270    p...    DCD    98928
        0x0001ad98:    0001adc0    ....    DCD    110016
        0x0001ad9c:    10000018    ....    DCD    268435480
        0x0001ada0:    00000878    x...    DCD    2168
        0x0001ada4:    0001828c    ....    DCD    98956
    Region$$Table$$Limit

** Section #2 'MCU_TCM' (SHT_PROGBITS) [SHF_ALLOC + SHF_WRITE]
    Size   : 24 bytes (alignment 8)
    Address: 0x10000000

    0x10000000:   00 01 02 0f 01 00 00 00 04 00 00 00 04 04 00 00    ................
    0x10000010:   ff ff ff ff ff ff ff ff                            ........


** Section #3 'MCU_TCM' (SHT_NOBITS) [SHF_ALLOC + SHF_WRITE]
    Size   : 2168 bytes (alignment 8)
    Address: 0x10000018


** Section #4 'SHARED_SRAM' (SHT_PROGBITS) [SHF_ALLOC + SHF_WRITE]
    Size   : 64 bytes (alignment 4)
    Address: 0x1001f000

    0x1001f000:   c8 ab 01 00 00 00 00 00 00 00 00 00 00 00 00 00    ................
    0x1001f010:   00 00 00 00 00 00 00 00 00 00 00 00 00 00 00 00    ................
    0x1001f020:   00 00 00 00 00 00 00 00 00 00 00 00 00 00 00 00    ................
    0x1001f030:   00 00 00 00 00 00 00 00 00 00 00 00 00 00 00 00    ................


** Section #5 '.debug_abbrev' (SHT_PROGBITS)
    Size   : 1295 bytes


** Section #6 '.debug_frame' (SHT_PROGBITS)
    Size   : 4460 bytes


** Section #7 '.debug_info' (SHT_PROGBITS)
    Size   : 15247 bytes


** Section #8 '.debug_line' (SHT_PROGBITS)
    Size   : 3521 bytes


** Section #9 '.debug_loc' (SHT_PROGBITS)
    Size   : 6254 bytes


** Section #10 '.debug_str' (SHT_PROGBITS)
    Size   : 12117 bytes


** Section #11 '.debug_ranges' (SHT_PROGBITS)
    Size   : 280 bytes


** Section #12 '.symtab' (SHT_SYMTAB)
    Size   : 7616 bytes (alignment 4)
    String table #13 '.strtab'
    Last local symbol no. 248

    Symbol table .symtab (475 symbols, 248 local)

      #  Symbol Name                Value      Bind  Sec  Type  Vis  Size
    ========================================================================

      1  $d                         0x00018000   Lc    1   --   De 
      2  $t                         0x00018200   Lc    1   --   De 
      3  $d                         0x00018230   Lc    1   --   De 
      4  $t                         0x00018234   Lc    1   --   De 
      5  $d                         0x00018268   Lc    1   --   De 
      6  $t                         0x00018270   Lc    1   --   De 
      7  $d                         0x000182de   Lc    1   --   De 
      8  $t                         0x000182ec   Lc    1   --   De 
      9  $d                         0x00018444   Lc    1   --   De 
     10  $t                         0x00018448   Lc    1   --   De 
     11  $d                         0x00018450   Lc    1   --   De 
     12  $t                         0x00018454   Lc    1   --   De 
     13  $t.24                      0x00018456   Lc    1   --   De 
     14  $d.4                       0x0001860a   Lc    1   --   De 
     15  $t.5                       0x00018610   Lc    1   --   De 
     16  $d.1                       0x00018726   Lc    1   --   De 
     17  $t.2                       0x00018764   Lc    1   --   De 
     18  $d.9                       0x00018a28   Lc    1   --   De 
     19  $t.10                      0x00018a2c   Lc    1   --   De 
     20  $d.2                       0x00018bf0   Lc    1   --   De 
     21  $t.1                       0x00018c00   Lc    1   --   De 
     22  $d.22                      0x00018c82   Lc    1   --   De 
     23  $t.23                      0x00018c88   Lc    1   --   De 
     24  $d.3                       0x00019080   Lc    1   --   De 
     25  $t.4                       0x00019088   Lc    1   --   De 
     26  $d.7                       0x00019302   Lc    1   --   De 
     27  $t.8                       0x00019306   Lc    1   --   De 
     28  $d.8                       0x00019578   Lc    1   --   De 
     29  $t.1                       0x0001958c   Lc    1   --   De 
     30  $d.12                      0x000196f0   Lc    1   --   De 
     31  $t.13                      0x000196f4   Lc    1   --   De 
     32  $d.14                      0x000198ac   Lc    1   --   De 
     33  $t.3                       0x000198c0   Lc    1   --   De 
     34  $d.4                       0x000199ae   Lc    1   --   De 
     35  $t.5                       0x000199b6   Lc    1   --   De 
     36  $d.3                       0x0001a364   Lc    1   --   De 
     37  $t.0                       0x0001a3f8   Lc    1   --   De 
     38  $t                         0x0001a7c8   Lc    1   --   De 
     39  $d                         0x0001a818   Lc    1   --   De 
     40  $t                         0x0001a81c   Lc    1   --   De 
     41  $d                         0x0001a89a   Lc    1   --   De 
     42  $t                         0x0001a89e   Lc    1   --   De 
     43  $d.realdata                0x0001a8ea   Lc    1   --   De 
     44  $d.realdata                0x10000000   Lc    2   --   De 
     45  $d.realdata                0x1001f000   Lc    4   --   De 
     46  am_resources.c             0x00000000   Lc  Abs  File  De 
     47  __tagsym$$used.0           0x0001ad50   Lc    1   --   De 
     48  __tagsym$$used.1           0x0001ad28   Lc    1   --   De 
     49  __tagsym$$used.2           0x0001ad3c   Lc    1   --   De 
     50  __tagsym$$used.3           0x0001ad64   Lc    1   --   De 
     51  __tagsym$$used.4           0x1001f004   Lc    4   --   De 
     52  __tagsym$$used.5           0x1001f018   Lc    4   --   De 
     53  __tagsym$$used.6           0x1001f02c   Lc    4   --   De 
     54  __tagsym$$used.7           0x0001abc8   Lc    1   --   De 
     55  __tagsym$$used.8           0x1001f000   Lc    4   --   De 
     56  prime.c                    0x00000000   Lc  Abs  File  De 
     57  .L__const.main.McuMemCfg   0x0001a8ea   Lc    1  Data  De   0x6
     58  .L.str.1                   0x0001abe4   Lc    1  Data  De   0x46
     59  .L.str.10                  0x0001ac2a   Lc    1  Data  De   0x26
     60  .L.str.11                  0x0001ac50   Lc    1  Data  De   0x40
     61  .L.str                     0x0001ac90   Lc    1  Data  De   0x1e
     62  .L.str.2                   0x0001acae   Lc    1  Data  De   0x15
     63  .L.str.3                   0x0001acc3   Lc    1  Data  De   0x65
     64  prime_mpi.c                0x00000000   Lc  Abs  File  De 
     65  am_util_delay.c            0x00000000   Lc  Abs  File  De 
     66  am_util_stdio.c            0x00000000   Lc  Abs  File  De 
     67  decstr_to_int              0x0001a101   Lc    1  Code  De   0x58
     68  uint64_to_str              0x0001a71d   Lc    1  Code  De   0x54
     69  divu64_10                  0x0001a159   Lc    1  Code  De   0xbe
     70  g_bTxtXlate                0x1000035a   Lc    3  Data  De   0x1
     71  g_prfbuf                   0x10000384   Lc    3  Data  De   0x100
     72  am_devices_led.c           0x00000000   Lc  Abs  File  De 
     73  ../keil6/startup_keil6.s   0x00000000   Lc  Abs  File  De 
     74  STACK                      0x10000490   Lc    3  Sect  De   0x400
     75  StackMem                   0x10000490   Lc    3  Data  De 
     76  HEAP                       0x10000490   Lc    3  Sect  De 
     77  HeapMem                    0x10000490   Lc    3  Data  De 
     78  RESET                      0x00018000   Lc    1  Sect  De   0x234
     79  $v0                        0x00018200   Lc    1   --   De 
     80  am_cryptosec_isr           0x0001822f   Lc    1  Code  De 
     81  am_default_isr             0x0001822f   Lc    1  Code  De   0x2
     82  .text                      0x000182d4   Lc    1  Sect  De   0x18
     83  $v0                        0x000182d4   Lc    1   --   De 
     84  am_bsp.c                   0x00000000   Lc  Abs  File  De 
     85  g_ePrintInterface          0x1000035b   Lc    3  Data  De   0x1
     86  g_sCOMUART                 0x10000484   Lc    3  Data  De   0x4
     87  g_sBspUartConfig           0x0001ab50   Lc    1  Data  De   0xc
     88  am_hal_cachectrl.c         0x00000000   Lc  Abs  File  De 
     89  am_hal_clkgen.c            0x00000000   Lc  Abs  File  De 
     90  am_hal_utils.c             0x00000000   Lc  Abs  File  De 
     91  am_hal_global.c            0x00000000   Lc  Abs  File  De 
     92  am_hal_gpio.c              0x00000000   Lc  Abs  File  De 
     93  g_ui32DSpintbl             0x00018bf0   Lc    1   --   De 
     94  am_hal_pwrctrl.c           0x00000000   Lc  Abs  File  De 
     95  TrimVersionGet             0x00018457   Lc    1  Code  De   0x32
     96  g_bBoostForCryptoApplied   0x10000358   Lc    3  Data  De   0x1
     97  g_i32LatestVddfActTrim     0x10000360   Lc    3  Data  De   0x4
     98  g_i32LatestLDOActTrim      0x1000035c   Lc    3  Data  De   0x4
     99  g_ui32VDDFAdjustCodes      0x10000488   Lc    3  Data  De   0x4
    100  g_bOrigTrimsStored         0x10000359   Lc    3  Data  De   0x1
    101  g_orig_ACTTRIMVDDF         0x10000364   Lc    3  Data  De   0x4
    102  g_orig_MEMLDOACTIVETRIM    0x10000370   Lc    3  Data  De   0x4
    103  g_orig_LPTRIMVDDF          0x1000036c   Lc    3  Data  De   0x4
    104  g_orig_MEMLPLDOTRIM        0x10000374   Lc    3  Data  De   0x4
    105  g_orig_TVRGVREFTRIM        0x10000378   Lc    3  Data  De   0x4
    106  g_orig_CORELDOACTIVETRIM   0x10000368   Lc    3  Data  De   0x4
    107  g_pfTempMeasured           0x1000037c   Lc    3  Data  De   0x4
    108  am_bsp_pins.c              0x00000000   Lc  Abs  File  De 
    109  am_hal_bootrom_helper.c    0x00000000   Lc  Abs  File  De 
    110  am_hal_interrupt.c         0x00000000   Lc  Abs  File  De 
    111  am_hal_itm.c               0x00000000   Lc  Abs  File  De 
    112  am_hal_mram.c              0x00000000   Lc  Abs  File  De 
    113  am_hal_rtc.c               0x00000000   Lc  Abs  File  De 
    114  am_hal_tpiu.c              0x00000000   Lc  Abs  File  De 
    115  am_hal_uart.c              0x00000000   Lc  Abs  File  De 
    116  nonblocking_write          0x0001a587   Lc    1  Code  De   0x38
    117  nonblocking_read           0x0001a45b   Lc    1  Code  De   0x38
    118  nonblocking_read_sm        0x0001a495   Lc    1  Code  De   0xf2
    119  nonblocking_write_sm       0x0001a5c1   Lc    1  Code  De   0x108
    120  am_hal_adc.c               0x00000000   Lc  Abs  File  De 
    121  am_hal_dcu.c               0x00000000   Lc  Abs  File  De 
    122  am_hal_pin.c               0x00000000   Lc  Abs  File  De 
    123  am_hal_queue.c             0x00000000   Lc  Abs  File  De 
    124  dc.s                       0x00000000   Lc  Abs  File  De 
    125  ../clib/longlong.s         0x00000000   Lc  Abs  File  De 
    126  .text                      0x000182ec   Lc    1  Sect  De   0xf0
    127  ../clib/heapaux.c          0x00000000   Lc  Abs  File  De 
    128  .text                      0x000183dc   Lc    1  Sect  De 
    129  ../clib/angel/startup.s    0x00000000   Lc  Abs  File  De 
    130  !!!main                    0x00018234   Lc    1  Sect  De   0x8
    131  ../clib/angel/handlers.s   0x00000000   Lc  Abs  File  De 
    132  !!handler_copy             0x00018270   Lc    1  Sect  De   0x1a
    133  ../fplib/d2f.s             0x00000000   Lc  Abs  File  De 
    134  x$fpl$d2f                  0x0001a7c8   Lc    1  Sect  De   0x62
    135  $v0                        0x0001a7c8   Lc    1   --   De 
    136  ../clib/angel/kernel.s     0x00000000   Lc  Abs  File  De 
    137  .ARM.Collect$$rtentry$$00000000
                                    0x000182b4   Lc    1  Sect  De 
    138  ../clib/angel/rt.s         0x00000000   Lc  Abs  File  De 
    139  ../clib/angel/rt.s         0x00000000   Lc  Abs  File  De 
    140  ../fplib/dnaninf.s         0x00000000   Lc  Abs  File  De 
    141  x$fpl$dnaninf              0x0001a82a   Lc    1  Sect  De   0x9c
    142  $v0                        0x0001a82a   Lc    1   --   De 
    143  ../fplib/fretinf.s         0x00000000   Lc  Abs  File  De 
    144  x$fpl$fretinf              0x0001a8e0   Lc    1  Sect  De   0xa
    145  $v0                        0x0001a8e0   Lc    1   --   De 
    146  ../fplib/usenofp.s         0x00000000   Lc  Abs  File  De 
    147  x$fpl$usenofp              0x0001a8ea   Lc    1  Sect  De 
    148  ../clib/angel/kernel.s     0x00000000   Lc  Abs  File  De 
    149  .ARM.Collect$$rtentry$$00000002
                                    0x000182b4   Lc    1  Sect  De 
    150  .ARM.Collect$$rtentry$$00000009
                                    0x000182ba   Lc    1  Sect  De 
    151  .ARM.Collect$$rtentry$$0000000A
                                    0x000182ba   Lc    1  Sect  De   0x4
    152  .ARM.Collect$$rtentry$$0000000C
                                    0x000182be   Lc    1  Sect  De 
    153  .ARM.Collect$$rtentry$$0000000D
                                    0x000182be   Lc    1  Sect  De   0x8
    154  ../clib/angel/kernel.s     0x00000000   Lc  Abs  File  De 
    155  .ARM.Collect$$rtentry$$00000004
                                    0x000182b4   Lc    1  Sect  De   0x6
    156  ../clib/angel/rt.s         0x00000000   Lc  Abs  File  De 
    157  ../clib/angel/sys.s        0x00000000   Lc  Abs  File  De 
    158  .text                      0x000183e2   Lc    1  Sect  De   0x4a
    159  ../clib/stdlib.c           0x00000000   Lc  Abs  File  De 
    160  .text                      0x0001842c   Lc    1  Sect  De 
    161  ../clib/signal.c           0x00000000   Lc  Abs  File  De 
    162  ../clib/signal.c           0x00000000   Lc  Abs  File  De 
    163  ../clib/angel/boardlib.s   0x00000000   Lc  Abs  File  De 
    164  ../clib/angel/boardlib.s   0x00000000   Lc  Abs  File  De 
    165  ../clib/angel/boardlib.s   0x00000000   Lc  Abs  File  De 
    166  ../clib/libinit.s          0x00000000   Lc  Abs  File  De 
    167  .ARM.Collect$$libinit$$00000000
                                    0x000182a8   Lc    1  Sect  De   0x2
    168  ../clib/angel/sys.s        0x00000000   Lc  Abs  File  De 
    169  .text                      0x00018440   Lc    1  Sect  De   0x8
    170  .bss                       0x10000018   Lc    3  Sect  De   0x60
    171  ../clib/angel/kernel.s     0x00000000   Lc  Abs  File  De 
    172  .ARM.Collect$$rtexit$$00000000
                                    0x000182c6   Lc    1  Sect  De   0x2
    173  ../clib/angel/rt.s         0x00000000   Lc  Abs  File  De 
    174  ../clib/signal.c           0x00000000   Lc  Abs  File  De 
    175  ../clib/signal.c           0x00000000   Lc  Abs  File  De 
    176  ../clib/libinit.s          0x00000000   Lc  Abs  File  De 
    177  .ARM.Collect$$libinit$$00000001
                                    0x000182aa   Lc    1  Sect  De   0x4
    178  .ARM.Collect$$libinit$$00000004
                                    0x000182ae   Lc    1  Sect  De 
    179  .ARM.Collect$$libinit$$0000000A
                                    0x000182ae   Lc    1  Sect  De 
    180  .ARM.Collect$$libinit$$0000000C
                                    0x000182ae   Lc    1  Sect  De 
    181  .ARM.Collect$$libinit$$0000000E
                                    0x000182ae   Lc    1  Sect  De 
    182  .ARM.Collect$$libinit$$00000011
                                    0x000182ae   Lc    1  Sect  De 
    183  .ARM.Collect$$libinit$$00000013
                                    0x000182ae   Lc    1  Sect  De 
    184  .ARM.Collect$$libinit$$00000015
                                    0x000182ae   Lc    1  Sect  De 
    185  .ARM.Collect$$libinit$$00000017
                                    0x000182ae   Lc    1  Sect  De 
    186  .ARM.Collect$$libinit$$00000019
                                    0x000182ae   Lc    1  Sect  De 
    187  .ARM.Collect$$libinit$$0000001B
                                    0x000182ae   Lc    1  Sect  De 
    188  .ARM.Collect$$libinit$$0000001D
                                    0x000182ae   Lc    1  Sect  De 
    189  .ARM.Collect$$libinit$$0000001F
                                    0x000182ae   Lc    1  Sect  De 
    190  .ARM.Collect$$libinit$$00000021
                                    0x000182ae   Lc    1  Sect  De 
    191  .ARM.Collect$$libinit$$00000023
                                    0x000182ae   Lc    1  Sect  De 
    192  .ARM.Collect$$libinit$$00000025
                                    0x000182ae   Lc    1  Sect  De 
    193  .ARM.Collect$$libinit$$0000002C
                                    0x000182ae   Lc    1  Sect  De 
    194  .ARM.Collect$$libinit$$0000002E
                                    0x000182ae   Lc    1  Sect  De 
    195  .ARM.Collect$$libinit$$00000030
                                    0x000182ae   Lc    1  Sect  De 
    196  .ARM.Collect$$libinit$$00000032
                                    0x000182ae   Lc    1  Sect  De 
    197  .ARM.Collect$$libinit$$00000033
                                    0x000182ae   Lc    1  Sect  De   0x2
    198  ../clib/angel/sysapp.c     0x00000000   Lc  Abs  File  De 
    199  .text                      0x00018448   Lc    1  Sect  De 
    200  ../clib/angel/sysapp.c     0x00000000   Lc  Abs  File  De 
    201  ../clib/angel/kernel.s     0x00000000   Lc  Abs  File  De 
    202  .ARM.Collect$$rtexit$$00000002
                                    0x000182c8   Lc    1  Sect  De 
    203  .ARM.Collect$$rtexit$$00000003
                                    0x000182c8   Lc    1  Sect  De   0x4
    204  .ARM.Collect$$rtexit$$00000004
                                    0x000182cc   Lc    1  Sect  De   0x6
    205  ../clib/signal.c           0x00000000   Lc  Abs  File  De 
    206  ../clib/signal.c           0x00000000   Lc  Abs  File  De 
    207  ../clib/armsys.c           0x00000000   Lc  Abs  File  De 
    208  ../clib/armsys.c           0x00000000   Lc  Abs  File  De 
    209  ../fplib/fpinit.s          0x00000000   Lc  Abs  File  De 
    210  x$fpl$fpinit               0x0001a8c6   Lc    1  Sect  De   0x1a
    211  $v0                        0x0001a8c6   Lc    1   --   De 
    212  ../clib/angel/sysapp.c     0x00000000   Lc  Abs  File  De 
    213  ../clib/angel/sysapp.c     0x00000000   Lc  Abs  File  De 
    214  ../clib/angel/sys.s        0x00000000   Lc  Abs  File  De 
    215  .text                      0x00018454   Lc    1  Sect  De   0x2
    216  ../clib/angel/sys.s        0x00000000   Lc  Abs  File  De 
    217  .text                      0x00018456   Lc    1  Sect  De 
    218  ../clib/signal.s           0x00000000   Lc  Abs  File  De 
    219  ../clib/angel/boardlib.s   0x00000000   Lc  Abs  File  De 
    220  ../clib/armsys.c           0x00000000   Lc  Abs  File  De 
    221  ../clib/armsys.c           0x00000000   Lc  Abs  File  De 
    222  ../clib/libinit.s          0x00000000   Lc  Abs  File  De 
    223  .ARM.Collect$$libshutdown$$00000000
                                    0x000182b0   Lc    1  Sect  De   0x2
    224  ../clib/angel/sysapp.c     0x00000000   Lc  Abs  File  De 
    225  ../clib/angel/sysapp.c     0x00000000   Lc  Abs  File  De 
    226  ../clib/heapalloc.c        0x00000000   Lc  Abs  File  De 
    227  ../clib/signal.c           0x00000000   Lc  Abs  File  De 
    228  ../clib/signal.c           0x00000000   Lc  Abs  File  De 
    229  ../clib/signal.c           0x00000000   Lc  Abs  File  De 
    230  ../clib/signal.c           0x00000000   Lc  Abs  File  De 
    231  ../clib/signal.c           0x00000000   Lc  Abs  File  De 
    232  ../clib/signal.c           0x00000000   Lc  Abs  File  De 
    233  ../clib/signal.c           0x00000000   Lc  Abs  File  De 
    234  ../clib/signal.c           0x00000000   Lc  Abs  File  De 
    235  ../clib/signal.c           0x00000000   Lc  Abs  File  De 
    236  ../clib/signal.c           0x00000000   Lc  Abs  File  De 
    237  ../clib/libinit.s          0x00000000   Lc  Abs  File  De 
    238  .ARM.Collect$$libshutdown$$00000002
                                    0x000182b2   Lc    1  Sect  De 
    239  .ARM.Collect$$libshutdown$$00000004
                                    0x000182b2   Lc    1  Sect  De 
    240  .ARM.Collect$$libshutdown$$00000007
                                    0x000182b2   Lc    1  Sect  De 
    241  .ARM.Collect$$libshutdown$$0000000A
                                    0x000182b2   Lc    1  Sect  De 
    242  .ARM.Collect$$libshutdown$$0000000C
                                    0x000182b2   Lc    1  Sect  De 
    243  .ARM.Collect$$libshutdown$$0000000F
                                    0x000182b2   Lc    1  Sect  De 
    244  .ARM.Collect$$libshutdown$$00000010
                                    0x000182b2   Lc    1  Sect  De   0x2
    245  ../clib/angel/scatter.s    0x00000000   Lc  Abs  File  De 
    246  !!!scatter                 0x0001823c   Lc    1  Sect  De   0x34
    247  ../clib/angel/handlers.s   0x00000000   Lc  Abs  File  De 
    248  !!handler_zi               0x0001828c   Lc    1  Sect  De   0x1c
    249  BuildAttributes$$THM_ISAv4$E$P$D$K$B$S$7EM$VFPi3$EXTD16$VFPS$VFMA$PE$A:L22UL41UL21$X:L11$S22US41US21$IEEE1$IW$~IW$USESV6$~STKCKD$USESV7$~SHL$OSPACE$ROPI$EBA8$UX$STANDARDLIB$REQ8$PRES8$EABIv2
                                    0x00000000   Gb  Abs   --   Hi 
    250  __Vectors                  0x00018000   Gb    1  Data  Hi 
    251  __Patchable                0x00018190   Gb    1  Data  Hi 
    252  Reset_Handler              0x00018201   Wk    1  Code  Hi   0x1c
    253  HardFault_Handler          0x0001821d   Wk    1  Code  Hi   0x2
    254  NMI_Handler                0x0001821f   Wk    1  Code  Hi   0x2
    255  MemManage_Handler          0x00018221   Wk    1  Code  Hi   0x2
    256  BusFault_Handler           0x00018223   Wk    1  Code  Hi   0x2
    257  UsageFault_Handler         0x00018225   Wk    1  Code  Hi   0x2
    258  SVC_Handler                0x00018227   Wk    1  Code  Hi   0x2
    259  DebugMon_Handler           0x00018229   Wk    1  Code  Hi   0x2
    260  PendSV_Handler             0x0001822b   Wk    1  Code  Hi   0x2
    261  SysTick_Handler            0x0001822d   Wk    1  Code  Hi   0x2
    262  am_adc_isr                 0x0001822f   Wk    1  Code  Hi 
    263  am_audadc0_isr             0x0001822f   Wk    1  Code  Hi 
    264  am_brownout_isr            0x0001822f   Wk    1  Code  Hi 
    265  am_cachecpu_isr            0x0001822f   Wk    1  Code  Hi 
    266  am_clkgen_isr              0x0001822f   Wk    1  Code  Hi 
    267  am_ctimer_isr              0x0001822f   Wk    1  Code  Hi 
    268  am_disp_isr                0x0001822f   Wk    1  Code  Hi 
    269  am_dsi_isr                 0x0001822f   Wk    1  Code  Hi 
    270  am_dspi2s0_isr             0x0001822f   Wk    1  Code  Hi 
    271  am_dspi2s1_isr             0x0001822f   Wk    1  Code  Hi 
    272  am_dspi2s2_isr             0x0001822f   Wk    1  Code  Hi 
    273  am_dspi2s3_isr             0x0001822f   Wk    1  Code  Hi 
    274  am_gpio0_001f_isr          0x0001822f   Wk    1  Code  Hi 
    275  am_gpio0_203f_isr          0x0001822f   Wk    1  Code  Hi 
    276  am_gpio0_405f_isr          0x0001822f   Wk    1  Code  Hi 
    277  am_gpio0_607f_isr          0x0001822f   Wk    1  Code  Hi 
    278  am_gpio1_001f_isr          0x0001822f   Wk    1  Code  Hi 
    279  am_gpio1_203f_isr          0x0001822f   Wk    1  Code  Hi 
    280  am_gpio1_405f_isr          0x0001822f   Wk    1  Code  Hi 
    281  am_gpio1_607f_isr          0x0001822f   Wk    1  Code  Hi 
    282  am_gpu_isr                 0x0001822f   Wk    1  Code  Hi 
    283  am_iomaster0_isr           0x0001822f   Wk    1  Code  Hi 
    284  am_iomaster1_isr           0x0001822f   Wk    1  Code  Hi 
    285  am_iomaster2_isr           0x0001822f   Wk    1  Code  Hi 
    286  am_iomaster3_isr           0x0001822f   Wk    1  Code  Hi 
    287  am_iomaster4_isr           0x0001822f   Wk    1  Code  Hi 
    288  am_iomaster5_isr           0x0001822f   Wk    1  Code  Hi 
    289  am_iomaster6_isr           0x0001822f   Wk    1  Code  Hi 
    290  am_iomaster7_isr           0x0001822f   Wk    1  Code  Hi 
    291  am_ioslave_acc_isr         0x0001822f   Wk    1  Code  Hi 
    292  am_ioslave_ios_isr         0x0001822f   Wk    1  Code  Hi 
    293  am_mspi0_isr               0x0001822f   Wk    1  Code  Hi 
    294  am_mspi1_isr               0x0001822f   Wk    1  Code  Hi 
    295  am_mspi2_isr               0x0001822f   Wk    1  Code  Hi 
    296  am_pdm0_isr                0x0001822f   Wk    1  Code  Hi 
    297  am_pdm1_isr                0x0001822f   Wk    1  Code  Hi 
    298  am_pdm2_isr                0x0001822f   Wk    1  Code  Hi 
    299  am_pdm3_isr                0x0001822f   Wk    1  Code  Hi 
    300  am_rtc_isr                 0x0001822f   Wk    1  Code  Hi 
    301  am_sdio_isr                0x0001822f   Wk    1  Code  Hi 
    302  am_stimer_cmpr0_isr        0x0001822f   Wk    1  Code  Hi 
    303  am_stimer_cmpr1_isr        0x0001822f   Wk    1  Code  Hi 
    304  am_stimer_cmpr2_isr        0x0001822f   Wk    1  Code  Hi 
    305  am_stimer_cmpr3_isr        0x0001822f   Wk    1  Code  Hi 
    306  am_stimer_cmpr4_isr        0x0001822f   Wk    1  Code  Hi 
    307  am_stimer_cmpr5_isr        0x0001822f   Wk    1  Code  Hi 
    308  am_stimer_cmpr6_isr        0x0001822f   Wk    1  Code  Hi 
    309  am_stimer_cmpr7_isr        0x0001822f   Wk    1  Code  Hi 
    310  am_stimerof_isr            0x0001822f   Wk    1  Code  Hi 
    311  am_timer00_isr             0x0001822f   Wk    1  Code  Hi 
    312  am_timer01_isr             0x0001822f   Wk    1  Code  Hi 
    313  am_timer02_isr             0x0001822f   Wk    1  Code  Hi 
    314  am_timer03_isr             0x0001822f   Wk    1  Code  Hi 
    315  am_timer04_isr             0x0001822f   Wk    1  Code  Hi 
    316  am_timer05_isr             0x0001822f   Wk    1  Code  Hi 
    317  am_timer06_isr             0x0001822f   Wk    1  Code  Hi 
    318  am_timer07_isr             0x0001822f   Wk    1  Code  Hi 
    319  am_timer08_isr             0x0001822f   Wk    1  Code  Hi 
    320  am_timer09_isr             0x0001822f   Wk    1  Code  Hi 
    321  am_timer10_isr             0x0001822f   Wk    1  Code  Hi 
    322  am_timer11_isr             0x0001822f   Wk    1  Code  Hi 
    323  am_timer12_isr             0x0001822f   Wk    1  Code  Hi 
    324  am_timer13_isr             0x0001822f   Wk    1  Code  Hi 
    325  am_timer14_isr             0x0001822f   Wk    1  Code  Hi 
    326  am_timer15_isr             0x0001822f   Wk    1  Code  Hi 
    327  am_uart1_isr               0x0001822f   Wk    1  Code  Hi 
    328  am_uart2_isr               0x0001822f   Wk    1  Code  Hi 
    329  am_uart3_isr               0x0001822f   Wk    1  Code  Hi 
    330  am_uart_isr                0x0001822f   Wk    1  Code  Hi 
    331  am_usb_isr                 0x0001822f   Wk    1  Code  Hi 
    332  am_vcomp_isr               0x0001822f   Wk    1  Code  Hi 
    333  am_watchdog_isr            0x0001822f   Wk    1  Code  Hi 
    334  __main                     0x00018235   Gb    1  Code  Hi   0x8
    335  __scatterload              0x0001823d   Gb    1  Code  Hi 
    336  __scatterload_rt2          0x0001823d   Gb    1  Code  Hi   0x2c
    337  __scatterload_rt2_thumb_only
                                    0x0001823d   Gb    1  Code  Hi 
    338  __scatterload_null         0x0001824b   Gb    1  Code  Hi 
    339  __scatterload_copy         0x00018271   Gb    1  Code  Hi   0x1a
    340  __scatterload_zeroinit     0x0001828d   Gb    1  Code  Hi   0x1c
    341  __rt_lib_init              0x000182a9   Gb    1  Code  De 
    342  __rt_lib_init_fp_1         0x000182ab   Gb    1  Code  Hi 
    343  __rt_lib_init_alloca_1     0x000182af   Gb    1  Code  Hi 
    344  __rt_lib_init_argv_1       0x000182af   Gb    1  Code  Hi 
    345  __rt_lib_init_atexit_1     0x000182af   Gb    1  Code  Hi 
    346  __rt_lib_init_clock_1      0x000182af   Gb    1  Code  Hi 
    347  __rt_lib_init_cpp_1        0x000182af   Gb    1  Code  Hi 
    348  __rt_lib_init_exceptions_1 0x000182af   Gb    1  Code  Hi 
    349  __rt_lib_init_fp_trap_1    0x000182af   Gb    1  Code  Hi 
    350  __rt_lib_init_getenv_1     0x000182af   Gb    1  Code  Hi 
    351  __rt_lib_init_heap_1       0x000182af   Gb    1  Code  Hi 
    352  __rt_lib_init_lc_collate_1 0x000182af   Gb    1  Code  Hi 
    353  __rt_lib_init_lc_ctype_1   0x000182af   Gb    1  Code  Hi 
    354  __rt_lib_init_lc_monetary_1
                                    0x000182af   Gb    1  Code  Hi 
    355  __rt_lib_init_lc_numeric_1 0x000182af   Gb    1  Code  Hi 
    356  __rt_lib_init_lc_time_1    0x000182af   Gb    1  Code  Hi 
    357  __rt_lib_init_preinit_1    0x000182af   Gb    1  Code  Hi 
    358  __rt_lib_init_rand_1       0x000182af   Gb    1  Code  Hi 
    359  __rt_lib_init_return       0x000182af   Gb    1  Code  Hi 
    360  __rt_lib_init_signal_1     0x000182af   Gb    1  Code  Hi 
    361  __rt_lib_init_stdio_1      0x000182af   Gb    1  Code  Hi 
    362  __rt_lib_init_user_alloc_1 0x000182af   Gb    1  Code  Hi 
    363  __rt_lib_shutdown          0x000182b1   Gb    1  Code  De 
    364  __rt_lib_shutdown_cpp_1    0x000182b3   Gb    1  Code  Hi 
    365  __rt_lib_shutdown_fp_trap_1
                                    0x000182b3   Gb    1  Code  Hi 
    366  __rt_lib_shutdown_heap_1   0x000182b3   Gb    1  Code  Hi 
    367  __rt_lib_shutdown_return   0x000182b3   Gb    1  Code  Hi 
    368  __rt_lib_shutdown_signal_1 0x000182b3   Gb    1  Code  Hi 
    369  __rt_lib_shutdown_stdio_1  0x000182b3   Gb    1  Code  Hi 
    370  __rt_lib_shutdown_user_alloc_1
                                    0x000182b3   Gb    1  Code  Hi 
    371  __rt_entry                 0x000182b5   Gb    1  Code  Hi 
    372  __rt_entry_presh_1         0x000182b5   Gb    1  Code  Hi 
    373  __rt_entry_sh              0x000182b5   Gb    1  Code  Hi 
    374  __rt_entry_li              0x000182bb   Gb    1  Code  Hi 
    375  __rt_entry_postsh_1        0x000182bb   Gb    1  Code  Hi 
    376  __rt_entry_main            0x000182bf   Gb    1  Code  Hi 
    377  __rt_entry_postli_1        0x000182bf   Gb    1  Code  Hi 
    378  __rt_exit                  0x000182c7   Gb    1  Code  De 
    379  __rt_exit_ls               0x000182c9   Gb    1  Code  Hi 
    380  __rt_exit_prels_1          0x000182c9   Gb    1  Code  Hi 
    381  __rt_exit_exit             0x000182cd   Gb    1  Code  Hi 
    382  __user_initial_stackheap   0x000182d5   Gb    1  Code  Hi   0xa
    383  __aeabi_uldivmod           0x000182ed   Gb    1  Code  De 
    384  _ll_udiv                   0x000182ed   Gb    1  Code  De   0xf0
    385  __use_two_region_memory    0x000183dd   Gb    1  Code  Hi   0x2
    386  __rt_heap_escrow$2region   0x000183df   Gb    1  Code  De   0x2
    387  __rt_heap_expand$2region   0x000183e1   Gb    1  Code  De   0x2
    388  __user_setup_stackheap     0x000183e3   Gb    1  Code  De   0x4a
    389  exit                       0x0001842d   Gb    1  Code  De   0x12
    390  __user_libspace            0x00018441   Wk    1  Code  De   0x8
    391  __user_perproc_libspace    0x00018441   Wk    1  Code  De 
    392  __user_perthread_libspace  0x00018441   Wk    1  Code  De 
    393  _sys_exit                  0x00018449   Gb    1  Code  De   0x8
    394  __I$use$semihosting        0x00018455   Gb    1  Code  Hi 
    395  __use_no_semihosting_swi   0x00018455   Gb    1  Code  Hi   0x2
    396  __semihosting_library_function
                                    0x00018457   Gb    1  Code  Hi 
    397  am_bsp_low_power_init      0x00018489   Gb    1  Code  Hi   0x16
    398  am_bsp_uart_printf_disable 0x0001849f   Gb    1  Code  Hi   0x56
    399  am_bsp_uart_printf_enable  0x000184f5   Gb    1  Code  Hi   0x76
    400  am_bsp_uart_string_print   0x0001856d   Gb    1  Code  Hi   0x4a
    401  am_hal_cachectrl_config    0x000185b7   Gb    1  Code  Hi   0x44
    402  am_hal_cachectrl_control   0x000185fd   Gb    1  Code  Hi   0xfa
    403  am_hal_cachectrl_enable    0x000186f7   Gb    1  Code  Hi   0x1e
    404  am_hal_clkgen_control      0x00018715   Gb    1  Code  Hi   0x2a2
    405  am_hal_daxi_config         0x000189b7   Gb    1  Code  Hi   0x66
    406  am_hal_daxi_control        0x00018a1d   Gb    1  Code  Hi   0x98
    407  am_hal_delay_us            0x00018ab5   Gb    1  Code  Hi   0x36
    408  am_hal_delay_us_status_change
                                    0x00018aed   Gb    1  Code  Hi   0x54
    409  am_hal_delay_us_status_check
                                    0x00018b41   Gb    1  Code  Hi   0x62
    410  am_hal_gpio_pinconfig      0x00018ba5   Gb    1  Code  Hi   0x4c
    411  am_hal_interrupt_master_disable
                                    0x00018c01   Gb    1  Code  Hi   0x8
    412  am_hal_interrupt_master_set
                                    0x00018c09   Gb    1  Code  Hi   0x6
    413  am_hal_mram_info_read      0x00018c11   Gb    1  Code  Hi   0x60
    414  am_hal_pwrctrl_control     0x00018c71   Gb    1  Code  Hi   0x1b4
    415  am_hal_pwrctrl_low_power_init
                                    0x00018e25   Gb    1  Code  Hi   0x192
    416  am_hal_pwrctrl_mcu_memory_config
                                    0x00018fb9   Gb    1  Code  Hi   0xfa
    417  am_hal_pwrctrl_periph_disable
                                    0x000190b3   Gb    1  Code  Hi   0x11e
    418  am_hal_pwrctrl_periph_enable
                                    0x000191d1   Gb    1  Code  Hi   0xb2
    419  am_hal_pwrctrl_sram_config 0x00019285   Gb    1  Code  Hi   0xa8
    420  am_hal_queue_item_add      0x0001932d   Gb    1  Code  Hi   0x66
    421  am_hal_queue_item_get      0x00019395   Gb    1  Code  Hi   0x60
    422  am_hal_rtc_osc_disable     0x000193f5   Gb    1  Code  Hi   0x14
    423  am_hal_uart_configure      0x00019409   Gb    1  Code  Hi   0x170
    424  am_hal_uart_deinitialize   0x0001958d   Gb    1  Code  Hi   0x28
    425  am_hal_uart_initialize     0x000195b5   Gb    1  Code  Hi   0x70
    426  am_hal_uart_power_control  0x00019625   Gb    1  Code  Hi   0xba
    427  am_hal_uart_transfer       0x000196e1   Gb    1  Code  Hi   0xb4
    428  am_hal_uart_tx_flush       0x00019795   Gb    1  Code  Hi   0xbc
    429  am_util_stdio_printf       0x00019851   Gb    1  Code  Hi   0x46
    430  am_util_stdio_printf_init  0x00019897   Gb    1  Code  Hi   0xc
    431  am_util_stdio_terminal_clear
                                    0x000198a5   Gb    1  Code  Hi   0x8
    432  am_util_stdio_vsprintf     0x000198c1   Gb    1  Code  Hi   0x714
    433  buck_ldo_override_init     0x00019fd5   Gb    1  Code  Hi   0x58
    434  crypto_boost_trims         0x0001a02d   Gb    1  Code  Hi   0xd4
    435  main                       0x0001a219   Gb    1  Code  Hi   0x14c
    436  min_power_settings         0x0001a3f9   Gb    1  Code  Hi   0x62
    437  read_transaction_save      0x0001a6c9   Gb    1  Code  Hi   0x54
    438  write_transaction_save     0x0001a771   Gb    1  Code  Hi   0x58
    439  __aeabi_d2f                0x0001a7c9   Gb    1  Code  De 
    440  _d2f                       0x0001a7c9   Gb    1  Code  De   0x62
    441  __fpl_dnaninf              0x0001a82b   Gb    1  Code  De   0x9c
    442  _fp_init                   0x0001a8c7   Gb    1  Code  De   0x1a
    443  __fplib_config_fpu_vfp     0x0001a8df   Gb    1  Code  De 
    444  __fplib_config_pureend_doubles
                                    0x0001a8df   Gb    1  Code  De 
    445  __fpl_fretinf              0x0001a8e1   Gb    1  Code  De   0xa
    446  __I$use$fp                 0x0001a8ea   Gb    1   --   De 
    447  am_hal_cachectrl_defaults  0x0001a8f0   Gb    1  Data  Hi   0x3
    448  am_hal_daxi_defaults       0x0001a8f3   Gb    1  Data  Hi   0x5
    449  am_hal_gpio_pincfg_disabled
                                    0x0001a8f8   Gb    1  Data  Hi   0x4
    450  am_hal_pwrctrl_peripheral_control
                                    0x0001a8fc   Gb    1  Data  Hi   0x220
    451  g_DefaultMcuMemCfg         0x0001ab1c   Gb    1  Data  Hi   0x6
    452  g_DefaultSRAMCfg           0x0001ab22   Gb    1  Data  Hi   0x6
    453  g_am_hal_bootrom_helper    0x0001ab28   Gb    1  Data  Hi   0x28
    454  g_ui32HALversion           0x0001ab5c   Gb    1  Data  Hi   0x4
    455  g_ui8HALcompiler           0x0001ab60   Gb    1  Data  Hi   0x65
    456  sGlobalAccess              0x0001abc8   Gb    1  Data  Hi   0x1c
    457  ui32DSP0Allowed            0x0001ad28   Gb    1  Data  Hi   0x14
    458  ui32DSP1Allowed            0x0001ad3c   Gb    1  Data  Hi   0x14
    459  ui32MCUAllowed             0x0001ad50   Gb    1  Data  Hi   0x14
    460  ui32SharedAccess           0x0001ad64   Gb    1  Data  Hi   0x14
    461  Region$$Table$$Base        0x0001ad78   Gb    1   --   Hi 
    462  Region$$Table$$Limit       0x0001ada8   Gb    1   --   Hi 
    463  gDaxiConfig                0x10000000   Gb    2  Data  Hi   0x5
    464  g_AM_BSP_GPIO_COM_UART_RX  0x10000008   Gb    2  Data  Hi   0x4
    465  g_AM_BSP_GPIO_COM_UART_TX  0x1000000c   Gb    2  Data  Hi   0x4
    466  g_ui32TrimVer              0x10000010   Gb    2  Data  Hi   0x4
    467  g_ui32origSimobuckVDDStrim 0x10000014   Gb    2  Data  Hi   0x4
    468  __libspace_start           0x10000018   Gb    3  Data  De   0x60
    469  __temporary_stack_top$libspace
                                    0x10000078   Gb    3  Data  De 
    470  g_am_hal_uart_states       0x10000078   Gb    3  Data  Hi   0x2e0
    471  g_pfnCharPrint             0x10000380   Gb    3  Data  Hi   0x4
    472  psGlobalAccessPtr          0x1001f000   Gb    4  Data  Hi   0x4
    473  ui32MCUClaimed             0x1001f004   Gb    4  Data  Hi   0x14
    474  ui32DSP0Claimed            0x1001f018   Gb    4  Data  Hi   0x14
    475  ui32DSP1Claimed            0x1001f02c   Gb    4  Data  Hi   0x14


** Section #13 '.strtab' (SHT_STRTAB)
    Size   : 7672 bytes

            #  Offset String
        ====================================

            1      1: $d
            2      4: $t
            3      7: $t.24
            4     13: $d.4
            5     18: $t.5
            6     23: $d.1
            7     28: $t.2
            8     33: $d.9
            9     38: $t.10
           10     44: $d.2
           11     49: $t.1
           12     54: $d.22
           13     60: $t.23
           14     66: $d.3
           15     71: $t.4
           16     76: $d.7
           17     81: $t.8
           18     86: $d.8
           19     91: $d.12
           20     97: $t.13
           21    103: $d.14
           22    109: $t.3
           23    114: $t.0
           24    119: $d.realdata
           25    131: am_resources.c
           26    146: __tagsym$$used.0
           27    163: __tagsym$$used.1
           28    180: __tagsym$$used.2
           29    197: __tagsym$$used.3
           30    214: __tagsym$$used.4
           31    231: __tagsym$$used.5
           32    248: __tagsym$$used.6
           33    265: __tagsym$$used.7
           34    282: __tagsym$$used.8
           35    299: prime.c
           36    307: .L__const.main.McuMemCfg
           37    332: .L.str.1
           38    341: .L.str.10
           39    351: .L.str.11
           40    361: .L.str
           41    368: .L.str.2
           42    377: .L.str.3
           43    386: prime_mpi.c
           44    398: am_util_delay.c
           45    414: am_util_stdio.c
           46    430: decstr_to_int
           47    444: uint64_to_str
           48    458: divu64_10
           49    468: g_bTxtXlate
           50    480: g_prfbuf
           51    489: am_devices_led.c
           52    506: ../keil6/startup_keil6.s
           53    531: STACK
           54    537: StackMem
           55    546: HEAP
           56    551: HeapMem
           57    559: RESET
           58    565: $v0
           59    569: am_cryptosec_isr
           60    586: am_default_isr
           61    601: .text
           62    607: am_bsp.c
           63    616: g_ePrintInterface
           64    634: g_sCOMUART
           65    645: g_sBspUartConfig
           66    662: am_hal_cachectrl.c
           67    681: am_hal_clkgen.c
           68    697: am_hal_utils.c
           69    712: am_hal_global.c
           70    728: am_hal_gpio.c
           71    742: g_ui32DSpintbl
           72    757: am_hal_pwrctrl.c
           73    774: TrimVersionGet
           74    789: g_bBoostForCryptoApplied
           75    814: g_i32LatestVddfActTrim
           76    837: g_i32LatestLDOActTrim
           77    859: g_ui32VDDFAdjustCodes
           78    881: g_bOrigTrimsStored
           79    900: g_orig_ACTTRIMVDDF
           80    919: g_orig_MEMLDOACTIVETRIM
           81    943: g_orig_LPTRIMVDDF
           82    961: g_orig_MEMLPLDOTRIM
           83    981: g_orig_TVRGVREFTRIM
           84   1001: g_orig_CORELDOACTIVETRIM
           85   1026: g_pfTempMeasured
           86   1043: am_bsp_pins.c
           87   1057: am_hal_bootrom_helper.c
           88   1081: am_hal_interrupt.c
           89   1100: am_hal_itm.c
           90   1113: am_hal_mram.c
           91   1127: am_hal_rtc.c
           92   1140: am_hal_tpiu.c
           93   1154: am_hal_uart.c
           94   1168: nonblocking_write
           95   1186: nonblocking_read
           96   1203: nonblocking_read_sm
           97   1223: nonblocking_write_sm
           98   1244: am_hal_adc.c
           99   1257: am_hal_dcu.c
          100   1270: am_hal_pin.c
          101   1283: am_hal_queue.c
          102   1298: dc.s
          103   1303: ../clib/longlong.s
          104   1322: ../clib/heapaux.c
          105   1340: ../clib/angel/startup.s
          106   1364: !!!main
          107   1372: ../clib/angel/handlers.s
          108   1397: !!handler_copy
          109   1412: ../fplib/d2f.s
          110   1427: x$fpl$d2f
          111   1437: ../clib/angel/kernel.s
          112   1460: .ARM.Collect$$rtentry$$00000000
          113   1492: ../clib/angel/rt.s
          114   1511: ../fplib/dnaninf.s
          115   1530: x$fpl$dnaninf
          116   1544: ../fplib/fretinf.s
          117   1563: x$fpl$fretinf
          118   1577: ../fplib/usenofp.s
          119   1596: x$fpl$usenofp
          120   1610: .ARM.Collect$$rtentry$$00000002
          121   1642: .ARM.Collect$$rtentry$$00000009
          122   1674: .ARM.Collect$$rtentry$$0000000A
          123   1706: .ARM.Collect$$rtentry$$0000000C
          124   1738: .ARM.Collect$$rtentry$$0000000D
          125   1770: .ARM.Collect$$rtentry$$00000004
          126   1802: ../clib/angel/sys.s
          127   1822: ../clib/stdlib.c
          128   1839: ../clib/signal.c
          129   1856: ../clib/angel/boardlib.s
          130   1881: ../clib/libinit.s
          131   1899: .ARM.Collect$$libinit$$00000000
          132   1931: .bss
          133   1936: .ARM.Collect$$rtexit$$00000000
          134   1967: .ARM.Collect$$libinit$$00000001
          135   1999: .ARM.Collect$$libinit$$00000004
          136   2031: .ARM.Collect$$libinit$$0000000A
          137   2063: .ARM.Collect$$libinit$$0000000C
          138   2095: .ARM.Collect$$libinit$$0000000E
          139   2127: .ARM.Collect$$libinit$$00000011
          140   2159: .ARM.Collect$$libinit$$00000013
          141   2191: .ARM.Collect$$libinit$$00000015
          142   2223: .ARM.Collect$$libinit$$00000017
          143   2255: .ARM.Collect$$libinit$$00000019
          144   2287: .ARM.Collect$$libinit$$0000001B
          145   2319: .ARM.Collect$$libinit$$0000001D
          146   2351: .ARM.Collect$$libinit$$0000001F
          147   2383: .ARM.Collect$$libinit$$00000021
          148   2415: .ARM.Collect$$libinit$$00000023
          149   2447: .ARM.Collect$$libinit$$00000025
          150   2479: .ARM.Collect$$libinit$$0000002C
          151   2511: .ARM.Collect$$libinit$$0000002E
          152   2543: .ARM.Collect$$libinit$$00000030
          153   2575: .ARM.Collect$$libinit$$00000032
          154   2607: .ARM.Collect$$libinit$$00000033
          155   2639: ../clib/angel/sysapp.c
          156   2662: .ARM.Collect$$rtexit$$00000002
          157   2693: .ARM.Collect$$rtexit$$00000003
          158   2724: .ARM.Collect$$rtexit$$00000004
          159   2755: ../clib/armsys.c
          160   2772: ../fplib/fpinit.s
          161   2790: x$fpl$fpinit
          162   2803: ../clib/signal.s
          163   2820: .ARM.Collect$$libshutdown$$00000000
          164   2856: ../clib/heapalloc.c
          165   2876: .ARM.Collect$$libshutdown$$00000002
          166   2912: .ARM.Collect$$libshutdown$$00000004
          167   2948: .ARM.Collect$$libshutdown$$00000007
          168   2984: .ARM.Collect$$libshutdown$$0000000A
          169   3020: .ARM.Collect$$libshutdown$$0000000C
          170   3056: .ARM.Collect$$libshutdown$$0000000F
          171   3092: .ARM.Collect$$libshutdown$$00000010
          172   3128: ../clib/angel/scatter.s
          173   3152: !!!scatter
          174   3163: !!handler_zi
          175   3176: BuildAttributes$$THM_ISAv4$E$P$D$K$B$S$7EM$VFPi3$EXTD16$VFPS$VFMA$PE$A:L22UL41UL21$X:L11$S22US41US21$IEEE1$IW$~IW$USESV6$~STKCKD$USESV7$~SHL$OSPACE$ROPI$EBA8$UX$STANDARDLIB$REQ8$PRES8$EABIv2
          176   3367: __Vectors
          177   3377: __Patchable
          178   3389: Reset_Handler
          179   3403: HardFault_Handler
          180   3421: NMI_Handler
          181   3433: MemManage_Handler
          182   3451: BusFault_Handler
          183   3468: UsageFault_Handler
          184   3487: SVC_Handler
          185   3499: DebugMon_Handler
          186   3516: PendSV_Handler
          187   3531: SysTick_Handler
          188   3547: am_adc_isr
          189   3558: am_audadc0_isr
          190   3573: am_brownout_isr
          191   3589: am_cachecpu_isr
          192   3605: am_clkgen_isr
          193   3619: am_ctimer_isr
          194   3633: am_disp_isr
          195   3645: am_dsi_isr
          196   3656: am_dspi2s0_isr
          197   3671: am_dspi2s1_isr
          198   3686: am_dspi2s2_isr
          199   3701: am_dspi2s3_isr
          200   3716: am_gpio0_001f_isr
          201   3734: am_gpio0_203f_isr
          202   3752: am_gpio0_405f_isr
          203   3770: am_gpio0_607f_isr
          204   3788: am_gpio1_001f_isr
          205   3806: am_gpio1_203f_isr
          206   3824: am_gpio1_405f_isr
          207   3842: am_gpio1_607f_isr
          208   3860: am_gpu_isr
          209   3871: am_iomaster0_isr
          210   3888: am_iomaster1_isr
          211   3905: am_iomaster2_isr
          212   3922: am_iomaster3_isr
          213   3939: am_iomaster4_isr
          214   3956: am_iomaster5_isr
          215   3973: am_iomaster6_isr
          216   3990: am_iomaster7_isr
          217   4007: am_ioslave_acc_isr
          218   4026: am_ioslave_ios_isr
          219   4045: am_mspi0_isr
          220   4058: am_mspi1_isr
          221   4071: am_mspi2_isr
          222   4084: am_pdm0_isr
          223   4096: am_pdm1_isr
          224   4108: am_pdm2_isr
          225   4120: am_pdm3_isr
          226   4132: am_rtc_isr
          227   4143: am_sdio_isr
          228   4155: am_stimer_cmpr0_isr
          229   4175: am_stimer_cmpr1_isr
          230   4195: am_stimer_cmpr2_isr
          231   4215: am_stimer_cmpr3_isr
          232   4235: am_stimer_cmpr4_isr
          233   4255: am_stimer_cmpr5_isr
          234   4275: am_stimer_cmpr6_isr
          235   4295: am_stimer_cmpr7_isr
          236   4315: am_stimerof_isr
          237   4331: am_timer00_isr
          238   4346: am_timer01_isr
          239   4361: am_timer02_isr
          240   4376: am_timer03_isr
          241   4391: am_timer04_isr
          242   4406: am_timer05_isr
          243   4421: am_timer06_isr
          244   4436: am_timer07_isr
          245   4451: am_timer08_isr
          246   4466: am_timer09_isr
          247   4481: am_timer10_isr
          248   4496: am_timer11_isr
          249   4511: am_timer12_isr
          250   4526: am_timer13_isr
          251   4541: am_timer14_isr
          252   4556: am_timer15_isr
          253   4571: am_uart1_isr
          254   4584: am_uart2_isr
          255   4597: am_uart3_isr
          256   4610: am_uart_isr
          257   4622: am_usb_isr
          258   4633: am_vcomp_isr
          259   4646: am_watchdog_isr
          260   4662: __main
          261   4669: __scatterload
          262   4683: __scatterload_rt2
          263   4701: __scatterload_rt2_thumb_only
          264   4730: __scatterload_null
          265   4749: __scatterload_copy
          266   4768: __scatterload_zeroinit
          267   4791: __rt_lib_init
          268   4805: __rt_lib_init_fp_1
          269   4824: __rt_lib_init_alloca_1
          270   4847: __rt_lib_init_argv_1
          271   4868: __rt_lib_init_atexit_1
          272   4891: __rt_lib_init_clock_1
          273   4913: __rt_lib_init_cpp_1
          274   4933: __rt_lib_init_exceptions_1
          275   4960: __rt_lib_init_fp_trap_1
          276   4984: __rt_lib_init_getenv_1
          277   5007: __rt_lib_init_heap_1
          278   5028: __rt_lib_init_lc_collate_1
          279   5055: __rt_lib_init_lc_ctype_1
          280   5080: __rt_lib_init_lc_monetary_1
          281   5108: __rt_lib_init_lc_numeric_1
          282   5135: __rt_lib_init_lc_time_1
          283   5159: __rt_lib_init_preinit_1
          284   5183: __rt_lib_init_rand_1
          285   5204: __rt_lib_init_return
          286   5225: __rt_lib_init_signal_1
          287   5248: __rt_lib_init_stdio_1
          288   5270: __rt_lib_init_user_alloc_1
          289   5297: __rt_lib_shutdown
          290   5315: __rt_lib_shutdown_cpp_1
          291   5339: __rt_lib_shutdown_fp_trap_1
          292   5367: __rt_lib_shutdown_heap_1
          293   5392: __rt_lib_shutdown_return
          294   5417: __rt_lib_shutdown_signal_1
          295   5444: __rt_lib_shutdown_stdio_1
          296   5470: __rt_lib_shutdown_user_alloc_1
          297   5501: __rt_entry
          298   5512: __rt_entry_presh_1
          299   5531: __rt_entry_sh
          300   5545: __rt_entry_li
          301   5559: __rt_entry_postsh_1
          302   5579: __rt_entry_main
          303   5595: __rt_entry_postli_1
          304   5615: __rt_exit
          305   5625: __rt_exit_ls
          306   5638: __rt_exit_prels_1
          307   5656: __rt_exit_exit
          308   5671: __user_initial_stackheap
          309   5696: __aeabi_uldivmod
          310   5713: _ll_udiv
          311   5722: __use_two_region_memory
          312   5746: __rt_heap_escrow$2region
          313   5771: __rt_heap_expand$2region
          314   5796: __user_setup_stackheap
          315   5819: exit
          316   5824: __user_libspace
          317   5840: __user_perproc_libspace
          318   5864: __user_perthread_libspace
          319   5890: _sys_exit
          320   5900: __I$use$semihosting
          321   5920: __use_no_semihosting_swi
          322   5945: __semihosting_library_function
          323   5976: am_bsp_low_power_init
          324   5998: am_bsp_uart_printf_disable
          325   6025: am_bsp_uart_printf_enable
          326   6051: am_bsp_uart_string_print
          327   6076: am_hal_cachectrl_config
          328   6100: am_hal_cachectrl_control
          329   6125: am_hal_cachectrl_enable
          330   6149: am_hal_clkgen_control
          331   6171: am_hal_daxi_config
          332   6190: am_hal_daxi_control
          333   6210: am_hal_delay_us
          334   6226: am_hal_delay_us_status_change
          335   6256: am_hal_delay_us_status_check
          336   6285: am_hal_gpio_pinconfig
          337   6307: am_hal_interrupt_master_disable
          338   6339: am_hal_interrupt_master_set
          339   6367: am_hal_mram_info_read
          340   6389: am_hal_pwrctrl_control
          341   6412: am_hal_pwrctrl_low_power_init
          342   6442: am_hal_pwrctrl_mcu_memory_config
          343   6475: am_hal_pwrctrl_periph_disable
          344   6505: am_hal_pwrctrl_periph_enable
          345   6534: am_hal_pwrctrl_sram_config
          346   6561: am_hal_queue_item_add
          347   6583: am_hal_queue_item_get
          348   6605: am_hal_rtc_osc_disable
          349   6628: am_hal_uart_configure
          350   6650: am_hal_uart_deinitialize
          351   6675: am_hal_uart_initialize
          352   6698: am_hal_uart_power_control
          353   6724: am_hal_uart_transfer
          354   6745: am_hal_uart_tx_flush
          355   6766: am_util_stdio_printf
          356   6787: am_util_stdio_printf_init
          357   6813: am_util_stdio_terminal_clear
          358   6842: am_util_stdio_vsprintf
          359   6865: buck_ldo_override_init
          360   6888: crypto_boost_trims
          361   6907: main
          362   6912: min_power_settings
          363   6931: read_transaction_save
          364   6953: write_transaction_save
          365   6976: __aeabi_d2f
          366   6988: _d2f
          367   6993: __fpl_dnaninf
          368   7007: _fp_init
          369   7016: __fplib_config_fpu_vfp
          370   7039: __fplib_config_pureend_doubles
          371   7070: __fpl_fretinf
          372   7084: __I$use$fp
          373   7095: am_hal_cachectrl_defaults
          374   7121: am_hal_daxi_defaults
          375   7142: am_hal_gpio_pincfg_disabled
          376   7170: am_hal_pwrctrl_peripheral_control
          377   7204: g_DefaultMcuMemCfg
          378   7223: g_DefaultSRAMCfg
          379   7240: g_am_hal_bootrom_helper
          380   7264: g_ui32HALversion
          381   7281: g_ui8HALcompiler
          382   7298: sGlobalAccess
          383   7312: ui32DSP0Allowed
          384   7328: ui32DSP1Allowed
          385   7344: ui32MCUAllowed
          386   7359: ui32SharedAccess
          387   7376: Region$$Table$$Base
          388   7396: Region$$Table$$Limit
          389   7417: gDaxiConfig
          390   7429: g_AM_BSP_GPIO_COM_UART_RX
          391   7455: g_AM_BSP_GPIO_COM_UART_TX
          392   7481: g_ui32TrimVer
          393   7495: g_ui32origSimobuckVDDStrim
          394   7522: __libspace_start
          395   7539: __temporary_stack_top$libspace
          396   7570: g_am_hal_uart_states
          397   7591: g_pfnCharPrint
          398   7606: psGlobalAccessPtr
          399   7624: ui32MCUClaimed
          400   7639: ui32DSP0Claimed
          401   7655: ui32DSP1Claimed
          402   7671: 


** Section #14 '.note' (SHT_NOTE)
    Size   : 32 bytes (alignment 4)


** Section #15 '.comment' (SHT_PROGBITS)
    Size   : 1508 bytes


** Section #16 '.shstrtab' (SHT_STRTAB)
    Size   : 160 bytes

            #  Offset String
        ====================================

            1      1: MCU_MRAM
            2     10: MCU_TCM
            3     18: SHARED_SRAM
            4     30: .debug_abbrev
            5     44: .debug_frame
            6     57: .debug_info
            7     69: .debug_line
            8     81: .debug_loc
            9     92: .debug_str
           10    103: .debug_ranges
           11    117: .symtab
           12    125: .strtab
           13    133: .note
           14    139: .comment
           15    148: .shstrtab
           16    158: 
           17    159: 


