
========================================================================

** ELF Header Information

    File Name: bin\prime.axf

    Machine class: ELFCLASS32 (32-bit)
    Data encoding: ELFDATA2LSB (Little endian)
    Header version: EV_CURRENT (Current version)
    Operating System ABI: none
    ABI Version: 0
    File Type: ET_EXEC (Executable) (2)
    Machine: EM_ARM (ARM)

    Image Entry point: 0x0000c135
    Flags: EF_ARM_HASENTRY + EF_ARM_ABI_FLOAT_HARD (0x05000402)

    ARM ELF revision: 5 (ABI version 2)

    Conforms to Hard float procedure-call standard

    Built with
    Component: ARM Compiler 6.16 Tool: armasm [5dfea300]
    Component: ARM Compiler 6.16 Tool: armlink [5dfeaa00]

    Header size: 52 bytes (0x34)
    Program header entry size: 32 bytes (0x20)
    Section header entry size: 40 bytes (0x28)

    Program header entries: 1
    Section header entries: 17

    Program header offset: 56892 (0x0000de3c)
    Section header offset: 56924 (0x0000de5c)

    Section header string table index: 16

========================================================================

** Program header #0 (PT_LOAD) [PF_X + PF_W + PF_R + PF_ARM_ENTRY]
    Size : 15976 bytes (11296 bytes in file)
    Virtual address: 0x0000c000 (Alignment 8)


========================================================================

** Section #1 'ROMEM' (SHT_PROGBITS) [SHF_ALLOC + SHF_EXECINSTR]
    Size   : 11256 bytes (alignment 4)
    Address: 0x0000c000

    $d
    RESET
    __Vectors
        0x0000c000:    10001000    ....    DCD    268439552
        0x0000c004:    0000c101    ....    DCD    49409
        0x0000c008:    0000c11f    ....    DCD    49439
        0x0000c00c:    0000c2b3    ....    DCD    49843
        0x0000c010:    0000c121    !...    DCD    49441
        0x0000c014:    0000c123    #...    DCD    49443
        0x0000c018:    0000c125    %...    DCD    49445
        0x0000c01c:    00000000    ....    DCD    0
        0x0000c020:    00000000    ....    DCD    0
        0x0000c024:    00000000    ....    DCD    0
        0x0000c028:    00000000    ....    DCD    0
        0x0000c02c:    0000c127    '...    DCD    49447
        0x0000c030:    0000c129    )...    DCD    49449
        0x0000c034:    00000000    ....    DCD    0
        0x0000c038:    0000c12b    +...    DCD    49451
        0x0000c03c:    0000c12d    -...    DCD    49453
        0x0000c040:    0000c12f    /...    DCD    49455
        0x0000c044:    0000c12f    /...    DCD    49455
        0x0000c048:    0000c12f    /...    DCD    49455
        0x0000c04c:    0000c12f    /...    DCD    49455
        0x0000c050:    0000c12f    /...    DCD    49455
        0x0000c054:    0000c12f    /...    DCD    49455
        0x0000c058:    0000c12f    /...    DCD    49455
        0x0000c05c:    0000c12f    /...    DCD    49455
        0x0000c060:    0000c12f    /...    DCD    49455
        0x0000c064:    0000c12f    /...    DCD    49455
        0x0000c068:    0000c12f    /...    DCD    49455
        0x0000c06c:    0000c12f    /...    DCD    49455
        0x0000c070:    0000c12f    /...    DCD    49455
        0x0000c074:    0000c12f    /...    DCD    49455
        0x0000c078:    0000c12f    /...    DCD    49455
        0x0000c07c:    0000c12f    /...    DCD    49455
        0x0000c080:    0000c12f    /...    DCD    49455
        0x0000c084:    0000c12f    /...    DCD    49455
        0x0000c088:    0000c12f    /...    DCD    49455
        0x0000c08c:    0000c12f    /...    DCD    49455
        0x0000c090:    0000c12f    /...    DCD    49455
        0x0000c094:    0000c12f    /...    DCD    49455
        0x0000c098:    0000c12f    /...    DCD    49455
        0x0000c09c:    0000c12f    /...    DCD    49455
        0x0000c0a0:    0000c12f    /...    DCD    49455
        0x0000c0a4:    0000c12f    /...    DCD    49455
        0x0000c0a8:    0000c12f    /...    DCD    49455
        0x0000c0ac:    0000c12f    /...    DCD    49455
        0x0000c0b0:    0000c12f    /...    DCD    49455
        0x0000c0b4:    0000c12f    /...    DCD    49455
        0x0000c0b8:    0000c12f    /...    DCD    49455
        0x0000c0bc:    0000c12f    /...    DCD    49455
        0x0000c0c0:    0000c12f    /...    DCD    49455
        0x0000c0c4:    0000c12f    /...    DCD    49455
    __Patchable
        0x0000c0c8:    00000000    ....    DCD    0
        0x0000c0cc:    00000000    ....    DCD    0
        0x0000c0d0:    00000000    ....    DCD    0
        0x0000c0d4:    00000000    ....    DCD    0
        0x0000c0d8:    00000000    ....    DCD    0
        0x0000c0dc:    00000000    ....    DCD    0
        0x0000c0e0:    00000000    ....    DCD    0
        0x0000c0e4:    00000000    ....    DCD    0
        0x0000c0e8:    00000000    ....    DCD    0
        0x0000c0ec:    00000000    ....    DCD    0
        0x0000c0f0:    00000000    ....    DCD    0
        0x0000c0f4:    00000000    ....    DCD    0
        0x0000c0f8:    00000000    ....    DCD    0
        0x0000c0fc:    00000000    ....    DCD    0
    $t
    $v0
    Reset_Handler
        0x0000c100:    f64e5088    N..P    MOV      r0,#0xed88
        0x0000c104:    f2ce0000    ....    MOVT     r0,#0xe000
        0x0000c108:    6801        .h      LDR      r1,[r0,#0]
        0x0000c10a:    f4410170    A.p.    ORR      r1,r1,#0xf00000
        0x0000c10e:    6001        .`      STR      r1,[r0,#0]
        0x0000c110:    f3bf8f4f    ..O.    DSB      
        0x0000c114:    f3bf8f6f    ..o.    ISB      
        0x0000c118:    4805        .H      LDR      r0,[pc,#20] ; [0xc130] = 0xc135
        0x0000c11a:    4700        .G      BX       r0
        0x0000c11c:    e7fe        ..      B        0xc11c ; Reset_Handler + 28
    NMI_Handler
        0x0000c11e:    e7fe        ..      B        NMI_Handler ; 0xc11e
    MemManage_Handler
        0x0000c120:    e7fe        ..      B        MemManage_Handler ; 0xc120
    BusFault_Handler
        0x0000c122:    e7fe        ..      B        BusFault_Handler ; 0xc122
    UsageFault_Handler
        0x0000c124:    e7fe        ..      B        UsageFault_Handler ; 0xc124
    SVC_Handler
        0x0000c126:    e7fe        ..      B        SVC_Handler ; 0xc126
    DebugMon_Handler
        0x0000c128:    e7fe        ..      B        DebugMon_Handler ; 0xc128
    PendSV_Handler
        0x0000c12a:    e7fe        ..      B        PendSV_Handler ; 0xc12a
    SysTick_Handler
        0x0000c12c:    e7fe        ..      B        SysTick_Handler ; 0xc12c
    am_adc_isr
    am_ble_isr
    am_brownout_isr
    am_clkgen_isr
    am_ctimer_isr
    am_gpio_isr
    am_iomaster0_isr
    am_iomaster1_isr
    am_iomaster2_isr
    am_iomaster3_isr
    am_iomaster4_isr
    am_iomaster5_isr
    am_ioslave_acc_isr
    am_ioslave_ios_isr
    am_mspi0_isr
    am_mspi1_isr
    am_mspi2_isr
    am_pdm0_isr
    am_rtc_isr
    am_scard_isr
    am_software0_isr
    am_stimer_cmpr0_isr
    am_stimer_cmpr1_isr
    am_stimer_cmpr2_isr
    am_stimer_cmpr3_isr
    am_stimer_cmpr4_isr
    am_stimer_cmpr5_isr
    am_stimer_cmpr6_isr
    am_stimer_cmpr7_isr
    am_stimer_isr
    am_uart0_isr
    am_uart1_isr
    am_uart_isr
    am_vcomp_isr
    am_watchdog_isr
        0x0000c12e:    e7fe        ..      B        am_adc_isr ; 0xc12e
    $d
        0x0000c130:    0000c135    5...    DCD    49461
    $t
    !!!main
    __main
        0x0000c134:    f000f802    ....    BL       __scatterload ; 0xc13c
        0x0000c138:    f000f83c    ..<.    BL       __rt_entry ; 0xc1b4
    !!!scatter
    __scatterload
    __scatterload_rt2
    __scatterload_rt2_thumb_only
        0x0000c13c:    a00a        ..      ADR      r0,{pc}+0x2c ; 0xc168
        0x0000c13e:    e8900c00    ....    LDM      r0,{r10,r11}
        0x0000c142:    4482        .D      ADD      r10,r10,r0
        0x0000c144:    4483        .D      ADD      r11,r11,r0
        0x0000c146:    f1aa0701    ....    SUB      r7,r10,#1
    __scatterload_null
        0x0000c14a:    45da        .E      CMP      r10,r11
        0x0000c14c:    d101        ..      BNE      0xc152 ; __scatterload_null + 8
        0x0000c14e:    f000f831    ..1.    BL       __rt_entry ; 0xc1b4
        0x0000c152:    f2af0e09    ....    ADR      lr,{pc}-7 ; 0xc14b
        0x0000c156:    e8ba000f    ....    LDM      r10!,{r0-r3}
        0x0000c15a:    f0130f01    ....    TST      r3,#1
        0x0000c15e:    bf18        ..      IT       NE
        0x0000c160:    1afb        ..      SUBNE    r3,r7,r3
        0x0000c162:    f0430301    C...    ORR      r3,r3,#1
        0x0000c166:    4718        .G      BX       r3
    $d
        0x0000c168:    00002a60    `*..    DCD    10848
        0x0000c16c:    00002a90    .*..    DCD    10896
    $t
    !!handler_copy
    __scatterload_copy
        0x0000c170:    3a10        .:      SUBS     r2,r2,#0x10
        0x0000c172:    bf24        $.      ITT      CS
        0x0000c174:    c878        x.      LDMCS    r0!,{r3-r6}
        0x0000c176:    c178        x.      STMCS    r1!,{r3-r6}
        0x0000c178:    d8fa        ..      BHI      __scatterload_copy ; 0xc170
        0x0000c17a:    0752        R.      LSLS     r2,r2,#29
        0x0000c17c:    bf24        $.      ITT      CS
        0x0000c17e:    c830        0.      LDMCS    r0!,{r4,r5}
        0x0000c180:    c130        0.      STMCS    r1!,{r4,r5}
        0x0000c182:    bf44        D.      ITT      MI
        0x0000c184:    6804        .h      LDRMI    r4,[r0,#0]
        0x0000c186:    600c        .`      STRMI    r4,[r1,#0]
        0x0000c188:    4770        pG      BX       lr
        0x0000c18a:    0000        ..      MOVS     r0,r0
    !!handler_zi
    __scatterload_zeroinit
        0x0000c18c:    2300        .#      MOVS     r3,#0
        0x0000c18e:    2400        .$      MOVS     r4,#0
        0x0000c190:    2500        .%      MOVS     r5,#0
        0x0000c192:    2600        .&      MOVS     r6,#0
        0x0000c194:    3a10        .:      SUBS     r2,r2,#0x10
        0x0000c196:    bf28        (.      IT       CS
        0x0000c198:    c178        x.      STMCS    r1!,{r3-r6}
        0x0000c19a:    d8fb        ..      BHI      0xc194 ; __scatterload_zeroinit + 8
        0x0000c19c:    0752        R.      LSLS     r2,r2,#29
        0x0000c19e:    bf28        (.      IT       CS
        0x0000c1a0:    c130        0.      STMCS    r1!,{r4,r5}
        0x0000c1a2:    bf48        H.      IT       MI
        0x0000c1a4:    600b        .`      STRMI    r3,[r1,#0]
        0x0000c1a6:    4770        pG      BX       lr
    .ARM.Collect$$libinit$$00000000
    __rt_lib_init
        0x0000c1a8:    b51f        ..      PUSH     {r0-r4,lr}
    .ARM.Collect$$libinit$$00000001
    __rt_lib_init_fp_1
        0x0000c1aa:    f002f99a    ....    BL       _fp_init ; 0xe4e2
    .ARM.Collect$$libinit$$00000004
    .ARM.Collect$$libinit$$0000000A
    .ARM.Collect$$libinit$$0000000C
    .ARM.Collect$$libinit$$0000000E
    .ARM.Collect$$libinit$$00000011
    .ARM.Collect$$libinit$$00000013
    .ARM.Collect$$libinit$$00000015
    .ARM.Collect$$libinit$$00000017
    .ARM.Collect$$libinit$$00000019
    .ARM.Collect$$libinit$$0000001B
    .ARM.Collect$$libinit$$0000001D
    .ARM.Collect$$libinit$$0000001F
    .ARM.Collect$$libinit$$00000021
    .ARM.Collect$$libinit$$00000023
    .ARM.Collect$$libinit$$00000025
    .ARM.Collect$$libinit$$0000002C
    .ARM.Collect$$libinit$$0000002E
    .ARM.Collect$$libinit$$00000030
    .ARM.Collect$$libinit$$00000032
    .ARM.Collect$$libinit$$00000033
    __rt_lib_init_alloca_1
    __rt_lib_init_argv_1
    __rt_lib_init_atexit_1
    __rt_lib_init_clock_1
    __rt_lib_init_cpp_1
    __rt_lib_init_exceptions_1
    __rt_lib_init_fp_trap_1
    __rt_lib_init_getenv_1
    __rt_lib_init_heap_1
    __rt_lib_init_lc_collate_1
    __rt_lib_init_lc_ctype_1
    __rt_lib_init_lc_monetary_1
    __rt_lib_init_lc_numeric_1
    __rt_lib_init_lc_time_1
    __rt_lib_init_preinit_1
    __rt_lib_init_rand_1
    __rt_lib_init_return
    __rt_lib_init_signal_1
    __rt_lib_init_stdio_1
    __rt_lib_init_user_alloc_1
        0x0000c1ae:    bd1f        ..      POP      {r0-r4,pc}
    .ARM.Collect$$libshutdown$$00000000
    __rt_lib_shutdown
        0x0000c1b0:    b510        ..      PUSH     {r4,lr}
    .ARM.Collect$$libshutdown$$00000002
    .ARM.Collect$$libshutdown$$00000004
    .ARM.Collect$$libshutdown$$00000007
    .ARM.Collect$$libshutdown$$0000000A
    .ARM.Collect$$libshutdown$$0000000C
    .ARM.Collect$$libshutdown$$0000000F
    .ARM.Collect$$libshutdown$$00000010
    __rt_lib_shutdown_cpp_1
    __rt_lib_shutdown_fp_trap_1
    __rt_lib_shutdown_heap_1
    __rt_lib_shutdown_return
    __rt_lib_shutdown_signal_1
    __rt_lib_shutdown_stdio_1
    __rt_lib_shutdown_user_alloc_1
        0x0000c1b2:    bd10        ..      POP      {r4,pc}
    .ARM.Collect$$rtentry$$00000000
    .ARM.Collect$$rtentry$$00000002
    .ARM.Collect$$rtentry$$00000004
    __rt_entry
    __rt_entry_presh_1
    __rt_entry_sh
        0x0000c1b4:    f000f844    ..D.    BL       __user_setup_stackheap ; 0xc240
        0x0000c1b8:    4611        .F      MOV      r1,r2
    .ARM.Collect$$rtentry$$00000009
    .ARM.Collect$$rtentry$$0000000A
    __rt_entry_li
    __rt_entry_postsh_1
        0x0000c1ba:    f7fffff5    ....    BL       __rt_lib_init ; 0xc1a8
    .ARM.Collect$$rtentry$$0000000C
    .ARM.Collect$$rtentry$$0000000D
    __rt_entry_main
    __rt_entry_postli_1
        0x0000c1be:    f001fe9b    ....    BL       main ; 0xdef8
        0x0000c1c2:    f000f862    ..b.    BL       exit ; 0xc28a
    .ARM.Collect$$rtexit$$00000000
    __rt_exit
        0x0000c1c6:    b403        ..      PUSH     {r0,r1}
    .ARM.Collect$$rtexit$$00000002
    .ARM.Collect$$rtexit$$00000003
    __rt_exit_ls
    __rt_exit_prels_1
        0x0000c1c8:    f7fffff2    ....    BL       __rt_lib_shutdown ; 0xc1b0
    .ARM.Collect$$rtexit$$00000004
    __rt_exit_exit
        0x0000c1cc:    bc03        ..      POP      {r0,r1}
        0x0000c1ce:    f000f869    ..i.    BL       _sys_exit ; 0xc2a4
        0x0000c1d2:    0000        ..      MOVS     r0,r0
    .text
    $v0
    __user_initial_stackheap
        0x0000c1d4:    4802        .H      LDR      r0,[pc,#8] ; [0xc1e0] = 0x10001270
        0x0000c1d6:    4903        .I      LDR      r1,[pc,#12] ; [0xc1e4] = 0x10001000
        0x0000c1d8:    4a01        .J      LDR      r2,[pc,#4] ; [0xc1e0] = 0x10001270
        0x0000c1da:    4b03        .K      LDR      r3,[pc,#12] ; [0xc1e8] = 0x10000000
        0x0000c1dc:    4770        pG      BX       lr
    $d
        0x0000c1de:    0000        ..      DCW    0
        0x0000c1e0:    10001270    p...    DCD    268440176
        0x0000c1e4:    10001000    ....    DCD    268439552
        0x0000c1e8:    10000000    ....    DCD    268435456
    $t
    .text
    __aeabi_memclr4
    __aeabi_memclr8
    __rt_memclr_w
        0x0000c1ec:    f04f0200    O...    MOV      r2,#0
    _memset_w
        0x0000c1f0:    b500        ..      PUSH     {lr}
        0x0000c1f2:    4613        .F      MOV      r3,r2
        0x0000c1f4:    4694        .F      MOV      r12,r2
        0x0000c1f6:    4696        .F      MOV      lr,r2
        0x0000c1f8:    3920         9      SUBS     r1,r1,#0x20
        0x0000c1fa:    bf22        ".      ITTT     CS
        0x0000c1fc:    e8a0500c    ...P    STMCS    r0!,{r2,r3,r12,lr}
        0x0000c200:    e8a0500c    ...P    STMCS    r0!,{r2,r3,r12,lr}
        0x0000c204:    f1b10120    .. .    SUBSCS   r1,r1,#0x20
        0x0000c208:    f4bfaff7    ....    BCS.W    0xc1fa ; _memset_w + 10
        0x0000c20c:    0709        ..      LSLS     r1,r1,#28
        0x0000c20e:    bf28        (.      IT       CS
        0x0000c210:    e8a0500c    ...P    STMCS    r0!,{r2,r3,r12,lr}
        0x0000c214:    bf48        H.      IT       MI
        0x0000c216:    c00c        ..      STMMI    r0!,{r2,r3}
        0x0000c218:    f85deb04    ]...    POP      {lr}
        0x0000c21c:    0089        ..      LSLS     r1,r1,#2
        0x0000c21e:    bf28        (.      IT       CS
        0x0000c220:    f8402b04    @..+    STRCS    r2,[r0],#4
        0x0000c224:    bf08        ..      IT       EQ
        0x0000c226:    4770        pG      BXEQ     lr
        0x0000c228:    bf48        H.      IT       MI
        0x0000c22a:    f8202b02     ..+    STRHMI   r2,[r0],#2
        0x0000c22e:    f0114f80    ...O    TST      r1,#0x40000000
        0x0000c232:    bf18        ..      IT       NE
        0x0000c234:    f8002b01    ...+    STRBNE   r2,[r0],#1
        0x0000c238:    4770        pG      BX       lr
    .text
    __use_two_region_memory
        0x0000c23a:    4770        pG      BX       lr
    __rt_heap_escrow$2region
        0x0000c23c:    4770        pG      BX       lr
    __rt_heap_expand$2region
        0x0000c23e:    4770        pG      BX       lr
    .text
    __user_setup_stackheap
        0x0000c240:    4675        uF      MOV      r5,lr
        0x0000c242:    f000f82b    ..+.    BL       __user_libspace ; 0xc29c
        0x0000c246:    46ae        .F      MOV      lr,r5
        0x0000c248:    0005        ..      MOVS     r5,r0
        0x0000c24a:    4669        iF      MOV      r1,sp
        0x0000c24c:    4653        SF      MOV      r3,r10
        0x0000c24e:    f0200007     ...    BIC      r0,r0,#7
        0x0000c252:    4685        .F      MOV      sp,r0
        0x0000c254:    b018        ..      ADD      sp,sp,#0x60
        0x0000c256:    b520         .      PUSH     {r5,lr}
        0x0000c258:    f7ffffbc    ....    BL       __user_initial_stackheap ; 0xc1d4
        0x0000c25c:    e8bd4020    .. @    POP      {r5,lr}
        0x0000c260:    f04f0600    O...    MOV      r6,#0
        0x0000c264:    f04f0700    O...    MOV      r7,#0
        0x0000c268:    f04f0800    O...    MOV      r8,#0
        0x0000c26c:    f04f0b00    O...    MOV      r11,#0
        0x0000c270:    46ac        .F      MOV      r12,r5
        0x0000c272:    e8ac09c0    ....    STM      r12!,{r6-r8,r11}
        0x0000c276:    e8ac09c0    ....    STM      r12!,{r6-r8,r11}
        0x0000c27a:    e8ac09c0    ....    STM      r12!,{r6-r8,r11}
        0x0000c27e:    e8ac09c0    ....    STM      r12!,{r6-r8,r11}
        0x0000c282:    f0210107    !...    BIC      r1,r1,#7
        0x0000c286:    468d        .F      MOV      sp,r1
        0x0000c288:    4770        pG      BX       lr
    .text
    exit
        0x0000c28a:    b510        ..      PUSH     {r4,lr}
        0x0000c28c:    4604        .F      MOV      r4,r0
        0x0000c28e:    f3af8000    ....    NOP.W    
        0x0000c292:    4620         F      MOV      r0,r4
        0x0000c294:    e8bd4010    ...@    POP      {r4,lr}
        0x0000c298:    f7ffbf95    ....    B.W      __rt_exit ; 0xc1c6
    .text
    __user_libspace
    __user_perproc_libspace
    __user_perthread_libspace
        0x0000c29c:    4800        .H      LDR      r0,[pc,#0] ; [0xc2a0] = 0x10001028
        0x0000c29e:    4770        pG      BX       lr
    $d
        0x0000c2a0:    10001028    (...    DCD    268439592
    $t
    .text
    _sys_exit
        0x0000c2a4:    4901        .I      LDR      r1,[pc,#4] ; [0xc2ac] = 0x20026
        0x0000c2a6:    2018        .       MOVS     r0,#0x18
        0x0000c2a8:    beab        ..      BKPT     #0xab
        0x0000c2aa:    e7fe        ..      B        0xc2aa ; _sys_exit + 6
    $d
        0x0000c2ac:    00020026    &...    DCD    131110
    $t
    .text
    __I$use$semihosting
    __use_no_semihosting_swi
        0x0000c2b0:    4770        pG      BX       lr
    $t.0
    .text
    HardFault_Handler
    __semihosting_library_function
        0x0000c2b2:    b501        ..      PUSH     {r0,lr}
        0x0000c2b4:    f01e0f04    ....    TST      lr,#4
        0x0000c2b8:    bf0a        ..      ITET     EQ
        0x0000c2ba:    f3ef8008    ....    MRSEQ    r0,MSP
        0x0000c2be:    f3ef8009    ....    MRSNE    r0,PSP
        0x0000c2c2:    f1100008    ....    ADDSEQ   r0,r0,#8
        0x0000c2c6:    f001f971    ..q.    BL       am_util_faultisr_collect_data ; 0xd5ac
        0x0000c2ca:    bd01        ..      POP      {r0,pc}
    am_bsp_low_power_init
        0x0000c2cc:    b5f0        ..      PUSH     {r4-r7,lr}
        0x0000c2ce:    b081        ..      SUB      sp,sp,#4
        0x0000c2d0:    f000fd1d    ....    BL       am_hal_pwrctrl_low_power_init ; 0xcd0e
        0x0000c2d4:    f000fef0    ....    BL       am_hal_rtc_osc_disable ; 0xd0b8
        0x0000c2d8:    f24e70a0    N..p    MOV      r0,#0xe7a0
        0x0000c2dc:    f2c00000    ....    MOVT     r0,#0
        0x0000c2e0:    6804        .h      LDR      r4,[r0,#0]
        0x0000c2e2:    f2410700    A...    MOVW     r7,#0x1000
        0x0000c2e6:    2600        .&      MOVS     r6,#0
        0x0000c2e8:    f2c10700    ....    MOVT     r7,#0x1000
        0x0000c2ec:    f8575036    W.6P    LDR      r5,[r7,r6,LSL #3]
        0x0000c2f0:    4621        !F      MOV      r1,r4
        0x0000c2f2:    4628        (F      MOV      r0,r5
        0x0000c2f4:    f000fabe    ....    BL       am_hal_gpio_pinconfig ; 0xc874
        0x0000c2f8:    4628        (F      MOV      r0,r5
        0x0000c2fa:    2103        .!      MOVS     r1,#3
        0x0000c2fc:    f000fbc4    ....    BL       am_hal_gpio_state_write ; 0xca88
        0x0000c300:    4628        (F      MOV      r0,r5
        0x0000c302:    2100        .!      MOVS     r1,#0
        0x0000c304:    f000fbc0    ....    BL       am_hal_gpio_state_write ; 0xca88
        0x0000c308:    3601        .6      ADDS     r6,#1
        0x0000c30a:    2e05        ..      CMP      r6,#5
        0x0000c30c:    d1ee        ..      BNE      0xc2ec ; am_bsp_low_power_init + 32
        0x0000c30e:    b001        ..      ADD      sp,sp,#4
        0x0000c310:    bdf0        ..      POP      {r4-r7,pc}
    am_bsp_uart_printf_disable
        0x0000c312:    b510        ..      PUSH     {r4,lr}
        0x0000c314:    f2412464    A.d$    MOV      r4,#0x1264
        0x0000c318:    f2c10400    ....    MOVT     r4,#0x1000
        0x0000c31c:    6820         h      LDR      r0,[r4,#0]
        0x0000c31e:    f001f911    ....    BL       am_hal_uart_tx_flush ; 0xd544
        0x0000c322:    2000        .       MOVS     r0,#0
        0x0000c324:    f001f9ba    ....    BL       am_util_stdio_printf_init ; 0xd69c
        0x0000c328:    6820         h      LDR      r0,[r4,#0]
        0x0000c32a:    2102        .!      MOVS     r1,#2
        0x0000c32c:    2200        ."      MOVS     r2,#0
        0x0000c32e:    f001f809    ....    BL       am_hal_uart_power_control ; 0xd344
        0x0000c332:    6820         h      LDR      r0,[r4,#0]
        0x0000c334:    f000ffc8    ....    BL       am_hal_uart_deinitialize ; 0xd2c8
        0x0000c338:    f24e709c    N..p    MOV      r0,#0xe79c
        0x0000c33c:    f2c00000    ....    MOVT     r0,#0
        0x0000c340:    6804        .h      LDR      r4,[r0,#0]
        0x0000c342:    2016        .       MOVS     r0,#0x16
        0x0000c344:    4621        !F      MOV      r1,r4
        0x0000c346:    f000fa95    ....    BL       am_hal_gpio_pinconfig ; 0xc874
        0x0000c34a:    2017        .       MOVS     r0,#0x17
        0x0000c34c:    4621        !F      MOV      r1,r4
        0x0000c34e:    e8bd4010    ...@    POP      {r4,lr}
        0x0000c352:    f000ba8f    ....    B.W      am_hal_gpio_pinconfig ; 0xc874
    am_bsp_uart_printf_enable
        0x0000c356:    b510        ..      PUSH     {r4,lr}
        0x0000c358:    f2412068    A.h     MOV      r0,#0x1268
        0x0000c35c:    f2412464    A.d$    MOV      r4,#0x1264
        0x0000c360:    f2c10000    ....    MOVT     r0,#0x1000
        0x0000c364:    2102        .!      MOVS     r1,#2
        0x0000c366:    f2c10400    ....    MOVT     r4,#0x1000
        0x0000c36a:    6001        .`      STR      r1,[r0,#0]
        0x0000c36c:    2000        .       MOVS     r0,#0
        0x0000c36e:    4621        !F      MOV      r1,r4
        0x0000c370:    f000ffbe    ....    BL       am_hal_uart_initialize ; 0xd2f0
        0x0000c374:    6820         h      LDR      r0,[r4,#0]
        0x0000c376:    2100        .!      MOVS     r1,#0
        0x0000c378:    2200        ."      MOVS     r2,#0
        0x0000c37a:    f000ffe3    ....    BL       am_hal_uart_power_control ; 0xd344
        0x0000c37e:    6820         h      LDR      r0,[r4,#0]
        0x0000c380:    f64e0124    N.$.    MOV      r1,#0xe824
        0x0000c384:    f2c00100    ....    MOVT     r1,#0
        0x0000c388:    f000fea0    ....    BL       am_hal_uart_configure ; 0xd0cc
        0x0000c38c:    f24e7098    N..p    MOV      r0,#0xe798
        0x0000c390:    f2c00000    ....    MOVT     r0,#0
        0x0000c394:    6801        .h      LDR      r1,[r0,#0]
        0x0000c396:    2016        .       MOVS     r0,#0x16
        0x0000c398:    f000fa6c    ..l.    BL       am_hal_gpio_pinconfig ; 0xc874
        0x0000c39c:    f24e7094    N..p    MOV      r0,#0xe794
        0x0000c3a0:    f2c00000    ....    MOVT     r0,#0
        0x0000c3a4:    6801        .h      LDR      r1,[r0,#0]
        0x0000c3a6:    2017        .       MOVS     r0,#0x17
        0x0000c3a8:    f000fa64    ..d.    BL       am_hal_gpio_pinconfig ; 0xc874
        0x0000c3ac:    f24c30bd    L..0    MOV      r0,#0xc3bd
        0x0000c3b0:    f2c00000    ....    MOVT     r0,#0
        0x0000c3b4:    e8bd4010    ...@    POP      {r4,lr}
        0x0000c3b8:    f001b970    ..p.    B.W      am_util_stdio_printf_init ; 0xd69c
    am_bsp_uart_string_print
        0x0000c3bc:    b510        ..      PUSH     {r4,lr}
        0x0000c3be:    b086        ..      SUB      sp,sp,#0x18
        0x0000c3c0:    2400        .$      MOVS     r4,#0
        0x0000c3c2:    9405        ..      STR      r4,[sp,#0x14]
        0x0000c3c4:    5d01        .]      LDRB     r1,[r0,r4]
        0x0000c3c6:    3401        .4      ADDS     r4,#1
        0x0000c3c8:    2900        .)      CMP      r1,#0
        0x0000c3ca:    d1fb        ..      BNE      0xc3c4 ; am_bsp_uart_string_print + 8
        0x0000c3cc:    2100        .!      MOVS     r1,#0
        0x0000c3ce:    e9cd1000    ....    STRD     r1,r0,[sp,#0]
        0x0000c3d2:    1e60        `.      SUBS     r0,r4,#1
        0x0000c3d4:    9002        ..      STR      r0,[sp,#8]
        0x0000c3d6:    f04f30ff    O..0    MOV      r0,#0xffffffff
        0x0000c3da:    9003        ..      STR      r0,[sp,#0xc]
        0x0000c3dc:    f2412064    A.d     MOV      r0,#0x1264
        0x0000c3e0:    f2c10000    ....    MOVT     r0,#0x1000
        0x0000c3e4:    a905        ..      ADD      r1,sp,#0x14
        0x0000c3e6:    6800        .h      LDR      r0,[r0,#0]
        0x0000c3e8:    9104        ..      STR      r1,[sp,#0x10]
        0x0000c3ea:    4669        iF      MOV      r1,sp
        0x0000c3ec:    f001f820    .. .    BL       am_hal_uart_transfer ; 0xd430
        0x0000c3f0:    9805        ..      LDR      r0,[sp,#0x14]
        0x0000c3f2:    3001        .0      ADDS     r0,#1
        0x0000c3f4:    42a0        .B      CMP      r0,r4
        0x0000c3f6:    bf04        ..      ITT      EQ
        0x0000c3f8:    b006        ..      ADDEQ    sp,sp,#0x18
        0x0000c3fa:    bd10        ..      POPEQ    {r4,pc}
        0x0000c3fc:    e7fe        ..      B        0xc3fc ; am_bsp_uart_string_print + 64
    am_hal_burst_ldo_charge
        0x0000c3fe:    b510        ..      PUSH     {r4,lr}
        0x0000c400:    f6430038    C.8.    MOV      r0,#0x3838
        0x0000c404:    f2c50002    ....    MOVT     r0,#0x5002
        0x0000c408:    6800        .h      LDR      r0,[r0,#0]
        0x0000c40a:    0700        ..      LSLS     r0,r0,#28
        0x0000c40c:    bf48        H.      IT       MI
        0x0000c40e:    bd10        ..      POPMI    {r4,pc}
        0x0000c410:    2460        `$      MOVS     r4,#0x60
        0x0000c412:    f2c40402    ....    MOVT     r4,#0x4002
        0x0000c416:    6820         h      LDR      r0,[r4,#0]
        0x0000c418:    f0200080     ...    BIC      r0,r0,#0x80
        0x0000c41c:    6020         `      STR      r0,[r4,#0]
        0x0000c41e:    6820         h      LDR      r0,[r4,#0]
        0x0000c420:    f0200020     . .    BIC      r0,r0,#0x20
        0x0000c424:    6020         `      STR      r0,[r4,#0]
        0x0000c426:    6820         h      LDR      r0,[r4,#0]
        0x0000c428:    f0400040    @.@.    ORR      r0,r0,#0x40
        0x0000c42c:    6020         `      STR      r0,[r4,#0]
        0x0000c42e:    6820         h      LDR      r0,[r4,#0]
        0x0000c430:    f4407080    @..p    ORR      r0,r0,#0x100
        0x0000c434:    6020         `      STR      r0,[r4,#0]
        0x0000c436:    f2471000    G...    MOVW     r0,#0x7100
        0x0000c43a:    f2c00002    ....    MOVT     r0,#2
        0x0000c43e:    f000f9b5    ....    BL       am_hal_flash_delay ; 0xc7ac
        0x0000c442:    6860        `h      LDR      r0,[r4,#4]
        0x0000c444:    f0400008    @...    ORR      r0,r0,#8
        0x0000c448:    6060        ``      STR      r0,[r4,#4]
        0x0000c44a:    6860        `h      LDR      r0,[r4,#4]
        0x0000c44c:    f0400001    @...    ORR      r0,r0,#1
        0x0000c450:    6060        ``      STR      r0,[r4,#4]
        0x0000c452:    6860        `h      LDR      r0,[r4,#4]
        0x0000c454:    f0400004    @...    ORR      r0,r0,#4
        0x0000c458:    6060        ``      STR      r0,[r4,#4]
        0x0000c45a:    6860        `h      LDR      r0,[r4,#4]
        0x0000c45c:    f0200002     ...    BIC      r0,r0,#2
        0x0000c460:    6060        ``      STR      r0,[r4,#4]
        0x0000c462:    6860        `h      LDR      r0,[r4,#4]
        0x0000c464:    f0400010    @...    ORR      r0,r0,#0x10
        0x0000c468:    6060        ``      STR      r0,[r4,#4]
        0x0000c46a:    2020                MOVS     r0,#0x20
        0x0000c46c:    f000f99e    ....    BL       am_hal_flash_delay ; 0xc7ac
        0x0000c470:    6860        `h      LDR      r0,[r4,#4]
        0x0000c472:    f0400002    @...    ORR      r0,r0,#2
        0x0000c476:    6060        ``      STR      r0,[r4,#4]
        0x0000c478:    f44f40fa    O..@    MOV      r0,#0x7d00
        0x0000c47c:    f000f996    ....    BL       am_hal_flash_delay ; 0xc7ac
        0x0000c480:    6860        `h      LDR      r0,[r4,#4]
        0x0000c482:    f0200001     ...    BIC      r0,r0,#1
        0x0000c486:    6060        ``      STR      r0,[r4,#4]
        0x0000c488:    6860        `h      LDR      r0,[r4,#4]
        0x0000c48a:    f0200004     ...    BIC      r0,r0,#4
        0x0000c48e:    6060        ``      STR      r0,[r4,#4]
        0x0000c490:    6860        `h      LDR      r0,[r4,#4]
        0x0000c492:    f0200002     ...    BIC      r0,r0,#2
        0x0000c496:    6060        ``      STR      r0,[r4,#4]
        0x0000c498:    6820         h      LDR      r0,[r4,#0]
        0x0000c49a:    f0200040     .@.    BIC      r0,r0,#0x40
        0x0000c49e:    6020         `      STR      r0,[r4,#0]
        0x0000c4a0:    6820         h      LDR      r0,[r4,#0]
        0x0000c4a2:    f4207080     ..p    BIC      r0,r0,#0x100
        0x0000c4a6:    6020         `      STR      r0,[r4,#0]
        0x0000c4a8:    bd10        ..      POP      {r4,pc}
    am_hal_cachectrl_config
        0x0000c4aa:    b5b0        ..      PUSH     {r4,r5,r7,lr}
        0x0000c4ac:    b082        ..      SUB      sp,sp,#8
        0x0000c4ae:    4604        .F      MOV      r4,r0
        0x0000c4b0:    f000fb36    ..6.    BL       am_hal_interrupt_master_disable ; 0xcb20
        0x0000c4b4:    f2480500    H...    MOVW     r5,#0x8000
        0x0000c4b8:    9001        ..      STR      r0,[sp,#4]
        0x0000c4ba:    f2c40501    ....    MOVT     r5,#0x4001
        0x0000c4be:    6828        (h      LDR      r0,[r5,#0]
        0x0000c4c0:    f4207040     .@p    BIC      r0,r0,#0x300
        0x0000c4c4:    6028        (`      STR      r0,[r5,#0]
        0x0000c4c6:    9801        ..      LDR      r0,[sp,#4]
        0x0000c4c8:    f000fb2e    ....    BL       am_hal_interrupt_master_set ; 0xcb28
        0x0000c4cc:    78a1        .x      LDRB     r1,[r4,#2]
        0x0000c4ce:    7820         x      LDRB     r0,[r4,#0]
        0x0000c4d0:    7862        bx      LDRB     r2,[r4,#1]
        0x0000c4d2:    0049        I.      LSLS     r1,r1,#1
        0x0000c4d4:    b2c9        ..      UXTB     r1,r1
        0x0000c4d6:    f0020203    ....    AND      r2,r2,#3
        0x0000c4da:    f3601107    `...    BFI      r1,r0,#4,#4
        0x0000c4de:    ea412002    A..     ORR      r0,r1,r2,LSL #8
        0x0000c4e2:    f4401080    @...    ORR      r0,r0,#0x100000
        0x0000c4e6:    f4406180    @..a    ORR      r1,r0,#0x400
        0x0000c4ea:    2000        .       MOVS     r0,#0
        0x0000c4ec:    6029        )`      STR      r1,[r5,#0]
        0x0000c4ee:    b002        ..      ADD      sp,sp,#8
        0x0000c4f0:    bdb0        ..      POP      {r4,r5,r7,pc}
        0x0000c4f2:    0000        ..      MOVS     r0,r0
    am_hal_cachectrl_control
        0x0000c4f4:    b510        ..      PUSH     {r4,lr}
        0x0000c4f6:    b082        ..      SUB      sp,sp,#8
        0x0000c4f8:    1e42        B.      SUBS     r2,r0,#1
        0x0000c4fa:    2a10        .*      CMP      r2,#0x10
        0x0000c4fc:    f200807e    ..~.    BHI.W    0xc5fc ; am_hal_cachectrl_control + 264
        0x0000c500:    2001        .       MOVS     r0,#1
        0x0000c502:    e8dff002    ....    TBB      [pc,r2]
    $d.4
        0x0000c506:    097e        ~.      DCW    2430
        0x0000c508:    1a181512    ....    DCD    437785874
        0x0000c50c:    2f221f1c    .."/    DCD    790765340
        0x0000c510:    604f483e    >HO`    DCD    1615808574
        0x0000c514:    00716a65    ejq.    DCD    7432805
    $t.5
        0x0000c518:    f2480000    H...    MOVW     r0,#0x8000
        0x0000c51c:    f2c40001    ....    MOVT     r0,#0x4001
        0x0000c520:    6800        .h      LDR      r0,[r0,#0]
        0x0000c522:    01c0        ..      LSLS     r0,r0,#7
        0x0000c524:    d46c        l.      BMI      0xc600 ; am_hal_cachectrl_control + 268
        0x0000c526:    2407        .$      MOVS     r4,#7
        0x0000c528:    e071        q.      B        0xc60e ; am_hal_cachectrl_control + 282
        0x0000c52a:    f44f6088    O..`    MOV      r0,#0x440
        0x0000c52e:    e068        h.      B        0xc602 ; am_hal_cachectrl_control + 270
        0x0000c530:    f44f7008    O..p    MOV      r0,#0x220
        0x0000c534:    e065        e.      B        0xc602 ; am_hal_cachectrl_control + 270
        0x0000c536:    2040        @       MOVS     r0,#0x40
        0x0000c538:    e063        c.      B        0xc602 ; am_hal_cachectrl_control + 270
        0x0000c53a:    2020                MOVS     r0,#0x20
        0x0000c53c:    e061        a.      B        0xc602 ; am_hal_cachectrl_control + 270
        0x0000c53e:    f44f6080    O..`    MOV      r0,#0x400
        0x0000c542:    e05e        ^.      B        0xc602 ; am_hal_cachectrl_control + 270
        0x0000c544:    f44f7000    O..p    MOV      r0,#0x200
        0x0000c548:    e05b        [.      B        0xc602 ; am_hal_cachectrl_control + 270
        0x0000c54a:    f000fae9    ....    BL       am_hal_interrupt_master_disable ; 0xcb20
        0x0000c54e:    9001        ..      STR      r0,[sp,#4]
        0x0000c550:    f2480000    H...    MOVW     r0,#0x8000
        0x0000c554:    f2c40001    ....    MOVT     r0,#0x4001
        0x0000c558:    6801        .h      LDR      r1,[r0,#0]
        0x0000c55a:    f0417180    A..q    ORR      r1,r1,#0x1000000
        0x0000c55e:    6001        .`      STR      r1,[r0,#0]
        0x0000c560:    9801        ..      LDR      r0,[sp,#4]
        0x0000c562:    e00b        ..      B        0xc57c ; am_hal_cachectrl_control + 136
        0x0000c564:    f000fadc    ....    BL       am_hal_interrupt_master_disable ; 0xcb20
        0x0000c568:    9000        ..      STR      r0,[sp,#0]
        0x0000c56a:    f2480000    H...    MOVW     r0,#0x8000
        0x0000c56e:    f2c40001    ....    MOVT     r0,#0x4001
        0x0000c572:    6801        .h      LDR      r1,[r0,#0]
        0x0000c574:    f0217180    !..q    BIC      r1,r1,#0x1000000
        0x0000c578:    6001        .`      STR      r1,[r0,#0]
        0x0000c57a:    9800        ..      LDR      r0,[sp,#0]
        0x0000c57c:    f000fad4    ....    BL       am_hal_interrupt_master_set ; 0xcb28
        0x0000c580:    e044        D.      B        0xc60c ; am_hal_cachectrl_control + 280
        0x0000c582:    2000        .       MOVS     r0,#0
        0x0000c584:    f001fdf2    ....    BL       set_LPMMODE ; 0xe16c
        0x0000c588:    b360        `.      CBZ      r0,0xc5e4 ; am_hal_cachectrl_control + 240
        0x0000c58a:    2007        .       MOVS     r0,#7
        0x0000c58c:    f001fe46    ..F.    BL       set_SEDELAY ; 0xe21c
        0x0000c590:    b340        @.      CBZ      r0,0xc5e4 ; am_hal_cachectrl_control + 240
        0x0000c592:    2003        .       MOVS     r0,#3
        0x0000c594:    e023        #.      B        0xc5de ; am_hal_cachectrl_control + 234
        0x0000c596:    2001        .       MOVS     r0,#1
        0x0000c598:    2401        .$      MOVS     r4,#1
        0x0000c59a:    f001fde7    ....    BL       set_LPMMODE ; 0xe16c
        0x0000c59e:    b3b0        ..      CBZ      r0,0xc60e ; am_hal_cachectrl_control + 282
        0x0000c5a0:    2005        .       MOVS     r0,#5
        0x0000c5a2:    e005        ..      B        0xc5b0 ; am_hal_cachectrl_control + 188
        0x0000c5a4:    2001        .       MOVS     r0,#1
        0x0000c5a6:    2401        .$      MOVS     r4,#1
        0x0000c5a8:    f001fde0    ....    BL       set_LPMMODE ; 0xe16c
        0x0000c5ac:    b378        x.      CBZ      r0,0xc60e ; am_hal_cachectrl_control + 282
        0x0000c5ae:    2006        .       MOVS     r0,#6
        0x0000c5b0:    f001fe34    ..4.    BL       set_SEDELAY ; 0xe21c
        0x0000c5b4:    b1b0        ..      CBZ      r0,0xc5e4 ; am_hal_cachectrl_control + 240
        0x0000c5b6:    2001        .       MOVS     r0,#1
        0x0000c5b8:    2401        .$      MOVS     r4,#1
        0x0000c5ba:    f001fe05    ....    BL       set_RDWAIT ; 0xe1c8
        0x0000c5be:    2800        .(      CMP      r0,#0
        0x0000c5c0:    bf18        ..      IT       NE
        0x0000c5c2:    2400        .$      MOVNE    r4,#0
        0x0000c5c4:    e023        #.      B        0xc60e ; am_hal_cachectrl_control + 282
        0x0000c5c6:    b1c9        ..      CBZ      r1,0xc5fc ; am_hal_cachectrl_control + 264
        0x0000c5c8:    6808        .h      LDR      r0,[r1,#0]
        0x0000c5ca:    f001fdcf    ....    BL       set_LPMMODE ; 0xe16c
        0x0000c5ce:    e008        ..      B        0xc5e2 ; am_hal_cachectrl_control + 238
        0x0000c5d0:    b1a1        ..      CBZ      r1,0xc5fc ; am_hal_cachectrl_control + 264
        0x0000c5d2:    6808        .h      LDR      r0,[r1,#0]
        0x0000c5d4:    f001fe22    ..".    BL       set_SEDELAY ; 0xe21c
        0x0000c5d8:    e003        ..      B        0xc5e2 ; am_hal_cachectrl_control + 238
        0x0000c5da:    b179        y.      CBZ      r1,0xc5fc ; am_hal_cachectrl_control + 264
        0x0000c5dc:    6808        .h      LDR      r0,[r1,#0]
        0x0000c5de:    f001fdf3    ....    BL       set_RDWAIT ; 0xe1c8
        0x0000c5e2:    b998        ..      CBNZ     r0,0xc60c ; am_hal_cachectrl_control + 280
        0x0000c5e4:    2401        .$      MOVS     r4,#1
        0x0000c5e6:    e012        ..      B        0xc60e ; am_hal_cachectrl_control + 282
        0x0000c5e8:    b141        A.      CBZ      r1,0xc5fc ; am_hal_cachectrl_control + 264
        0x0000c5ea:    6848        Hh      LDR      r0,[r1,#4]
        0x0000c5ec:    220f        ."      MOVS     r2,#0xf
        0x0000c5ee:    f6cf0200    ....    MOVT     r2,#0xf800
        0x0000c5f2:    4210        .B      TST      r0,r2
        0x0000c5f4:    d102        ..      BNE      0xc5fc ; am_hal_cachectrl_control + 264
        0x0000c5f6:    688b        .h      LDR      r3,[r1,#8]
        0x0000c5f8:    4213        .B      TST      r3,r2
        0x0000c5fa:    d00b        ..      BEQ      0xc614 ; am_hal_cachectrl_control + 288
        0x0000c5fc:    2406        .$      MOVS     r4,#6
        0x0000c5fe:    e006        ..      B        0xc60e ; am_hal_cachectrl_control + 282
        0x0000c600:    2002        .       MOVS     r0,#2
        0x0000c602:    f2480100    H...    MOVW     r1,#0x8000
        0x0000c606:    f2c40101    ....    MOVT     r1,#0x4001
        0x0000c60a:    6088        .`      STR      r0,[r1,#8]
        0x0000c60c:    2400        .$      MOVS     r4,#0
        0x0000c60e:    4620         F      MOV      r0,r4
        0x0000c610:    b002        ..      ADD      sp,sp,#8
        0x0000c612:    bd10        ..      POP      {r4,pc}
        0x0000c614:    780a        .x      LDRB     r2,[r1,#0]
        0x0000c616:    2a01        .*      CMP      r2,#1
        0x0000c618:    d011        ..      BEQ      0xc63e ; am_hal_cachectrl_control + 330
        0x0000c61a:    2a00        .*      CMP      r2,#0
        0x0000c61c:    d1ee        ..      BNE      0xc5fc ; am_hal_cachectrl_control + 264
        0x0000c61e:    f2480200    H...    MOVW     r2,#0x8000
        0x0000c622:    f2c40201    ....    MOVT     r2,#0x4001
        0x0000c626:    6110        .a      STR      r0,[r2,#0x10]
        0x0000c628:    6888        .h      LDR      r0,[r1,#8]
        0x0000c62a:    6150        Pa      STR      r0,[r2,#0x14]
        0x0000c62c:    7848        Hx      LDRB     r0,[r1,#1]
        0x0000c62e:    6811        .h      LDR      r1,[r2,#0]
        0x0000c630:    f000003f    ..?.    AND      r0,r0,#0x3f
        0x0000c634:    f0210104    !...    BIC      r1,r1,#4
        0x0000c638:    ea410080    A...    ORR      r0,r1,r0,LSL #2
        0x0000c63c:    e00e        ..      B        0xc65c ; am_hal_cachectrl_control + 360
        0x0000c63e:    f2480200    H...    MOVW     r2,#0x8000
        0x0000c642:    f2c40201    ....    MOVT     r2,#0x4001
        0x0000c646:    6190        .a      STR      r0,[r2,#0x18]
        0x0000c648:    6888        .h      LDR      r0,[r1,#8]
        0x0000c64a:    61d0        .a      STR      r0,[r2,#0x1c]
        0x0000c64c:    7848        Hx      LDRB     r0,[r1,#1]
        0x0000c64e:    6811        .h      LDR      r1,[r2,#0]
        0x0000c650:    f000001f    ....    AND      r0,r0,#0x1f
        0x0000c654:    f0210108    !...    BIC      r1,r1,#8
        0x0000c658:    ea4100c0    A...    ORR      r0,r1,r0,LSL #3
        0x0000c65c:    6010        .`      STR      r0,[r2,#0]
        0x0000c65e:    e7d5        ..      B        0xc60c ; am_hal_cachectrl_control + 280
    am_hal_cachectrl_enable
        0x0000c660:    f2480100    H...    MOVW     r1,#0x8000
        0x0000c664:    f2c40101    ....    MOVT     r1,#0x4001
        0x0000c668:    6808        .h      LDR      r0,[r1,#0]
        0x0000c66a:    f0400201    @...    ORR      r2,r0,#1
        0x0000c66e:    2000        .       MOVS     r0,#0
        0x0000c670:    600a        .`      STR      r2,[r1,#0]
        0x0000c672:    4770        pG      BX       lr
    am_hal_clkgen_control
        0x0000c674:    b510        ..      PUSH     {r4,lr}
        0x0000c676:    f2410288    A...    MOV      r2,#0x1088
        0x0000c67a:    f2c10200    ....    MOVT     r2,#0x1000
        0x0000c67e:    6813        .h      LDR      r3,[r2,#0]
        0x0000c680:    460c        .F      MOV      r4,r1
        0x0000c682:    b92b        +.      CBNZ     r3,0xc690 ; am_hal_clkgen_control + 28
        0x0000c684:    f24f0100    O...    MOVW     r1,#0xf000
        0x0000c688:    f6c471ff    ...q    MOVT     r1,#0x4fff
        0x0000c68c:    6809        .h      LDR      r1,[r1,#0]
        0x0000c68e:    6011        .`      STR      r1,[r2,#0]
        0x0000c690:    2809        .(      CMP      r0,#9
        0x0000c692:    d80f        ..      BHI      0xc6b4 ; am_hal_clkgen_control + 64
        0x0000c694:    e8dff000    ....    TBB      [pc,r0]
    $d.1
        0x0000c698:    20181005    ...     DCD    538447877
        0x0000c69c:    544c4139    9ALT    DCD    1414283577
        0x0000c6a0:    775e        ^w      DCW    30558
    $t.2
        0x0000c6a2:    f244010c    D...    MOV      r1,#0x400c
        0x0000c6a6:    f2c40100    ....    MOVT     r1,#0x4000
        0x0000c6aa:    2047        G       MOVS     r0,#0x47
        0x0000c6ac:    6088        .`      STR      r0,[r1,#8]
        0x0000c6ae:    2000        .       MOVS     r0,#0
        0x0000c6b0:    60c8        .`      STR      r0,[r1,#0xc]
        0x0000c6b2:    e03b        ;.      B        0xc72c ; am_hal_clkgen_control + 184
        0x0000c6b4:    2006        .       MOVS     r0,#6
        0x0000c6b6:    bd10        ..      POP      {r4,pc}
        0x0000c6b8:    f244000c    D...    MOV      r0,#0x400c
        0x0000c6bc:    f2c40000    ....    MOVT     r0,#0x4000
        0x0000c6c0:    6801        .h      LDR      r1,[r0,#0]
        0x0000c6c2:    f0210101    !...    BIC      r1,r1,#1
        0x0000c6c6:    e042        B.      B        0xc74e ; am_hal_clkgen_control + 218
        0x0000c6c8:    f244000c    D...    MOV      r0,#0x400c
        0x0000c6cc:    f2c40000    ....    MOVT     r0,#0x4000
        0x0000c6d0:    6801        .h      LDR      r1,[r0,#0]
        0x0000c6d2:    f0210102    !...    BIC      r1,r1,#2
        0x0000c6d6:    e03a        :.      B        0xc74e ; am_hal_clkgen_control + 218
        0x0000c6d8:    f2401020    @. .    MOVW     r0,#0x120
        0x0000c6dc:    f64f61ec    O..a    MOV      r1,#0xfeec
        0x0000c6e0:    f2c40002    ....    MOVT     r0,#0x4002
        0x0000c6e4:    f6cf71ff    ...q    MOVT     r1,#0xffff
        0x0000c6e8:    5841        AX      LDR      r1,[r0,r1]
        0x0000c6ea:    b2c9        ..      UXTB     r1,r1
        0x0000c6ec:    2921        !)      CMP      r1,#0x21
        0x0000c6ee:    d304        ..      BCC      0xc6fa ; am_hal_clkgen_control + 134
        0x0000c6f0:    6801        .h      LDR      r1,[r0,#0]
        0x0000c6f2:    2201        ."      MOVS     r2,#1
        0x0000c6f4:    f3622109    b..!    BFI      r1,r2,#8,#2
        0x0000c6f8:    6001        .`      STR      r1,[r0,#0]
        0x0000c6fa:    f244000c    D...    MOV      r0,#0x400c
        0x0000c6fe:    f2c40000    ....    MOVT     r0,#0x4000
        0x0000c702:    6801        .h      LDR      r1,[r0,#0]
        0x0000c704:    f0410101    A...    ORR      r1,r1,#1
        0x0000c708:    e021        !.      B        0xc74e ; am_hal_clkgen_control + 218
        0x0000c70a:    f244000c    D...    MOV      r0,#0x400c
        0x0000c70e:    f2c40000    ....    MOVT     r0,#0x4000
        0x0000c712:    6801        .h      LDR      r1,[r0,#0]
        0x0000c714:    f0410102    A...    ORR      r1,r1,#2
        0x0000c718:    e019        ..      B        0xc74e ; am_hal_clkgen_control + 218
        0x0000c71a:    f244010c    D...    MOV      r1,#0x400c
        0x0000c71e:    f2c40100    ....    MOVT     r1,#0x4000
        0x0000c722:    2047        G       MOVS     r0,#0x47
        0x0000c724:    6088        .`      STR      r0,[r1,#8]
        0x0000c726:    2001        .       MOVS     r0,#1
        0x0000c728:    60c8        .`      STR      r0,[r1,#0xc]
        0x0000c72a:    2000        .       MOVS     r0,#0
        0x0000c72c:    6088        .`      STR      r0,[r1,#8]
        0x0000c72e:    bd10        ..      POP      {r4,pc}
        0x0000c730:    f244000c    D...    MOV      r0,#0x400c
        0x0000c734:    f2c40000    ....    MOVT     r0,#0x4000
        0x0000c738:    6801        .h      LDR      r1,[r0,#0]
        0x0000c73a:    f0210180    !...    BIC      r1,r1,#0x80
        0x0000c73e:    e006        ..      B        0xc74e ; am_hal_clkgen_control + 218
        0x0000c740:    f244000c    D...    MOV      r0,#0x400c
        0x0000c744:    f2c40000    ....    MOVT     r0,#0x4000
        0x0000c748:    6801        .h      LDR      r1,[r0,#0]
        0x0000c74a:    f0410180    A...    ORR      r1,r1,#0x80
        0x0000c74e:    6001        .`      STR      r1,[r0,#0]
        0x0000c750:    2000        .       MOVS     r0,#0
        0x0000c752:    bd10        ..      POP      {r4,pc}
        0x0000c754:    f2401020    @. .    MOVW     r0,#0x120
        0x0000c758:    f64f61ec    O..a    MOV      r1,#0xfeec
        0x0000c75c:    f2c40002    ....    MOVT     r0,#0x4002
        0x0000c760:    f6cf71ff    ...q    MOVT     r1,#0xffff
        0x0000c764:    5841        AX      LDR      r1,[r0,r1]
        0x0000c766:    b2c9        ..      UXTB     r1,r1
        0x0000c768:    2921        !)      CMP      r1,#0x21
        0x0000c76a:    d307        ..      BCC      0xc77c ; am_hal_clkgen_control + 264
        0x0000c76c:    6801        .h      LDR      r1,[r0,#0]
        0x0000c76e:    f4417140    A.@q    ORR      r1,r1,#0x300
        0x0000c772:    6001        .`      STR      r1,[r0,#0]
        0x0000c774:    f44f507a    O.zP    MOV      r0,#0x3e80
        0x0000c778:    f000f818    ....    BL       am_hal_flash_delay ; 0xc7ac
        0x0000c77c:    b164        d.      CBZ      r4,0xc798 ; am_hal_clkgen_control + 292
        0x0000c77e:    6820         h      LDR      r0,[r4,#0]
        0x0000c780:    f0400001    @...    ORR      r0,r0,#1
        0x0000c784:    e00c        ..      B        0xc7a0 ; am_hal_clkgen_control + 300
        0x0000c786:    f244000c    D...    MOV      r0,#0x400c
        0x0000c78a:    f2c40000    ....    MOVT     r0,#0x4000
        0x0000c78e:    6941        Ai      LDR      r1,[r0,#0x14]
        0x0000c790:    f0210101    !...    BIC      r1,r1,#1
        0x0000c794:    6141        Aa      STR      r1,[r0,#0x14]
        0x0000c796:    e7db        ..      B        0xc750 ; am_hal_clkgen_control + 220
        0x0000c798:    f64b0001    K...    MOV      r0,#0xb801
        0x0000c79c:    f2c00025    ..%.    MOVT     r0,#0x25
        0x0000c7a0:    f244010c    D...    MOV      r1,#0x400c
        0x0000c7a4:    f2c40100    ....    MOVT     r1,#0x4000
        0x0000c7a8:    6148        Ha      STR      r0,[r1,#0x14]
        0x0000c7aa:    e7d1        ..      B        0xc750 ; am_hal_clkgen_control + 220
    am_hal_flash_delay
        0x0000c7ac:    f2440134    D.4.    MOV      r1,#0x4034
        0x0000c7b0:    f2c40100    ....    MOVT     r1,#0x4000
        0x0000c7b4:    680a        .h      LDR      r2,[r1,#0]
        0x0000c7b6:    f3c20180    ....    UBFX     r1,r2,#2,#1
        0x0000c7ba:    4088        .@      LSLS     r0,r0,r1
        0x0000c7bc:    210e        .!      MOVS     r1,#0xe
        0x0000c7be:    f0120f04    ....    TST      r2,#4
        0x0000c7c2:    bf08        ..      IT       EQ
        0x0000c7c4:    210b        .!      MOVEQ    r1,#0xb
        0x0000c7c6:    4281        .B      CMP      r1,r0
        0x0000c7c8:    bf28        (.      IT       CS
        0x0000c7ca:    4770        pG      BXCS     lr
        0x0000c7cc:    1a40        @.      SUBS     r0,r0,r1
        0x0000c7ce:    219d        .!      MOVS     r1,#0x9d
        0x0000c7d0:    f6c00100    ....    MOVT     r1,#0x800
        0x0000c7d4:    4708        .G      BX       r1
        0x0000c7d6:    0000        ..      MOVS     r0,r0
    am_hal_flash_delay_status_check
        0x0000c7d8:    e92d4ff0    -..O    PUSH     {r4-r11,lr}
        0x0000c7dc:    b081        ..      SUB      sp,sp,#4
        0x0000c7de:    f8dd8028    ..(.    LDR      r8,[sp,#0x28]
        0x0000c7e2:    f2440934    D.4.    MOV      r9,#0x4034
        0x0000c7e6:    f2400b9d    @...    MOVW     r11,#0x9d
        0x0000c7ea:    461c        .F      MOV      r4,r3
        0x0000c7ec:    4615        .F      MOV      r5,r2
        0x0000c7ee:    460e        .F      MOV      r6,r1
        0x0000c7f0:    4607        .F      MOV      r7,r0
        0x0000c7f2:    f2c40900    ....    MOVT     r9,#0x4000
        0x0000c7f6:    f04f0a10    O...    MOV      r10,#0x10
        0x0000c7fa:    f6c00b00    ....    MOVT     r11,#0x800
        0x0000c7fe:    bf00        ..      NOP      
        0x0000c800:    6830        0h      LDR      r0,[r6,#0]
        0x0000c802:    f1b80f00    ....    CMP      r8,#0
        0x0000c806:    ea000005    ....    AND      r0,r0,r5
        0x0000c80a:    d003        ..      BEQ      0xc814 ; am_hal_flash_delay_status_check + 60
        0x0000c80c:    42a0        .B      CMP      r0,r4
        0x0000c80e:    d103        ..      BNE      0xc818 ; am_hal_flash_delay_status_check + 64
        0x0000c810:    e014        ..      B        0xc83c ; am_hal_flash_delay_status_check + 100
        0x0000c812:    bf00        ..      NOP      
        0x0000c814:    42a0        .B      CMP      r0,r4
        0x0000c816:    d111        ..      BNE      0xc83c ; am_hal_flash_delay_status_check + 100
        0x0000c818:    b197        ..      CBZ      r7,0xc840 ; am_hal_flash_delay_status_check + 104
        0x0000c81a:    f8d90000    ....    LDR      r0,[r9,#0]
        0x0000c81e:    3f01        .?      SUBS     r7,#1
        0x0000c820:    f3c00180    ....    UBFX     r1,r0,#2,#1
        0x0000c824:    f0100f04    ....    TST      r0,#4
        0x0000c828:    f06f000d    o...    MVN      r0,#0xd
        0x0000c82c:    bf08        ..      IT       EQ
        0x0000c82e:    f06f000a    o...    MVNEQ    r0,#0xa
        0x0000c832:    fa0af101    ....    LSL      r1,r10,r1
        0x0000c836:    4408        .D      ADD      r0,r0,r1
        0x0000c838:    47d8        .G      BLX      r11
        0x0000c83a:    e7e1        ..      B        0xc800 ; am_hal_flash_delay_status_check + 40
        0x0000c83c:    2000        .       MOVS     r0,#0
        0x0000c83e:    e000        ..      B        0xc842 ; am_hal_flash_delay_status_check + 106
        0x0000c840:    2004        .       MOVS     r0,#4
        0x0000c842:    b001        ..      ADD      sp,sp,#4
        0x0000c844:    e8bd8ff0    ....    POP      {r4-r11,pc}
    am_hal_flash_load_ui32
        0x0000c848:    2175        u!      MOVS     r1,#0x75
        0x0000c84a:    f6c00100    ....    MOVT     r1,#0x800
        0x0000c84e:    4708        .G      BX       r1
    am_hal_flash_store_ui32
        0x0000c850:    b580        ..      PUSH     {r7,lr}
        0x0000c852:    b084        ..      SUB      sp,sp,#0x10
        0x0000c854:    f24e5208    N..R    MOV      r2,#0xe508
        0x0000c858:    f2c00200    ....    MOVT     r2,#0
        0x0000c85c:    e9d23c00    ...<    LDRD     r3,r12,[r2,#0]
        0x0000c860:    6892        .h      LDR      r2,[r2,#8]
        0x0000c862:    e9cd3c01    ...<    STRD     r3,r12,[sp,#4]
        0x0000c866:    9203        ..      STR      r2,[sp,#0xc]
        0x0000c868:    aa01        ..      ADD      r2,sp,#4
        0x0000c86a:    3201        .2      ADDS     r2,#1
        0x0000c86c:    4790        .G      BLX      r2
        0x0000c86e:    b004        ..      ADD      sp,sp,#0x10
        0x0000c870:    bd80        ..      POP      {r7,pc}
        0x0000c872:    0000        ..      MOVS     r0,r0
    am_hal_gpio_pinconfig
        0x0000c874:    e92d4ff0    -..O    PUSH     {r4-r11,lr}
        0x0000c878:    b085        ..      SUB      sp,sp,#0x14
        0x0000c87a:    2849        I(      CMP      r0,#0x49
        0x0000c87c:    d904        ..      BLS      0xc888 ; am_hal_gpio_pinconfig + 20
        0x0000c87e:    2506        .%      MOVS     r5,#6
        0x0000c880:    4628        (F      MOV      r0,r5
        0x0000c882:    b005        ..      ADD      sp,sp,#0x14
        0x0000c884:    e8bd8ff0    ....    POP      {r4-r11,pc}
        0x0000c888:    b2ce        ..      UXTB     r6,r1
        0x0000c88a:    4604        .F      MOV      r4,r0
        0x0000c88c:    f2401200    @...    MOVW     r2,#0x100
        0x0000c890:    f0060307    ....    AND      r3,r6,#7
        0x0000c894:    2000        .       MOVS     r0,#0
        0x0000c896:    f6c00200    ....    MOVT     r2,#0x800
        0x0000c89a:    ebb01f56    ..V.    CMP      r0,r6,LSR #5
        0x0000c89e:    ea4f00c3    O...    LSL      r0,r3,#3
        0x0000c8a2:    d01d        ..      BEQ      0xc8e0 ; am_hal_gpio_pinconfig + 108
        0x0000c8a4:    0977        w.      LSRS     r7,r6,#5
        0x0000c8a6:    2ebf        ..      CMP      r6,#0xbf
        0x0000c8a8:    f0400001    @...    ORR      r0,r0,#1
        0x0000c8ac:    d80d        ..      BHI      0xc8ca ; am_hal_gpio_pinconfig + 86
        0x0000c8ae:    2f01        ./      CMP      r7,#1
        0x0000c8b0:    d00b        ..      BEQ      0xc8ca ; am_hal_gpio_pinconfig + 86
        0x0000c8b2:    f64e0650    N.P.    MOV      r6,#0xe850
        0x0000c8b6:    f2c00600    ....    MOVT     r6,#0
        0x0000c8ba:    5d36        6]      LDRB     r6,[r6,r4]
        0x0000c8bc:    4615        .F      MOV      r5,r2
        0x0000c8be:    07f6        ..      LSLS     r6,r6,#31
        0x0000c8c0:    d0de        ..      BEQ      0xc880 ; am_hal_gpio_pinconfig + 12
        0x0000c8c2:    ea401087    @...    ORR      r0,r0,r7,LSL #6
        0x0000c8c6:    3880        .8      SUBS     r0,r0,#0x80
        0x0000c8c8:    e00a        ..      B        0xc8e0 ; am_hal_gpio_pinconfig + 108
        0x0000c8ca:    2f06        ./      CMP      r7,#6
        0x0000c8cc:    d103        ..      BNE      0xc8d6 ; am_hal_gpio_pinconfig + 98
        0x0000c8ce:    2c14        .,      CMP      r4,#0x14
        0x0000c8d0:    d006        ..      BEQ      0xc8e0 ; am_hal_gpio_pinconfig + 108
        0x0000c8d2:    1c55        U.      ADDS     r5,r2,#1
        0x0000c8d4:    e7d4        ..      B        0xc880 ; am_hal_gpio_pinconfig + 12
        0x0000c8d6:    2c14        .,      CMP      r4,#0x14
        0x0000c8d8:    d102        ..      BNE      0xc8e0 ; am_hal_gpio_pinconfig + 108
        0x0000c8da:    2f01        ./      CMP      r7,#1
        0x0000c8dc:    4615        .F      MOV      r5,r2
        0x0000c8de:    d0cf        ..      BEQ      0xc880 ; am_hal_gpio_pinconfig + 12
        0x0000c8e0:    f3c107c1    ....    UBFX     r7,r1,#3,#2
        0x0000c8e4:    b197        ..      CBZ      r7,0xc90c ; am_hal_gpio_pinconfig + 152
        0x0000c8e6:    2f02        ./      CMP      r7,#2
        0x0000c8e8:    f1020502    ....    ADD      r5,r2,#2
        0x0000c8ec:    d008        ..      BEQ      0xc900 ; am_hal_gpio_pinconfig + 140
        0x0000c8ee:    2f01        ./      CMP      r7,#1
        0x0000c8f0:    d1c6        ..      BNE      0xc880 ; am_hal_gpio_pinconfig + 12
        0x0000c8f2:    2c24        $,      CMP      r4,#0x24
        0x0000c8f4:    d001        ..      BEQ      0xc8fa ; am_hal_gpio_pinconfig + 134
        0x0000c8f6:    2c03        .,      CMP      r4,#3
        0x0000c8f8:    d1c2        ..      BNE      0xc880 ; am_hal_gpio_pinconfig + 12
        0x0000c8fa:    f0400040    @.@.    ORR      r0,r0,#0x40
        0x0000c8fe:    e005        ..      B        0xc90c ; am_hal_gpio_pinconfig + 152
        0x0000c900:    2c29        ),      CMP      r4,#0x29
        0x0000c902:    d001        ..      BEQ      0xc908 ; am_hal_gpio_pinconfig + 148
        0x0000c904:    2c25        %,      CMP      r4,#0x25
        0x0000c906:    d1bb        ..      BNE      0xc880 ; am_hal_gpio_pinconfig + 12
        0x0000c908:    f0400080    @...    ORR      r0,r0,#0x80
        0x0000c90c:    f64e07ff    N...    MOV      r7,#0xe8ff
        0x0000c910:    f2c00700    ....    MOVT     r7,#0
        0x0000c914:    5d3f        ?]      LDRB     r7,[r7,r4]
        0x0000c916:    40df        .@      LSRS     r7,r7,r3
        0x0000c918:    07ff        ..      LSLS     r7,r7,#31
        0x0000c91a:    f64e2771    N.q'    MOV      r7,#0xea71
        0x0000c91e:    f2c00700    ....    MOVT     r7,#0
        0x0000c922:    5d3f        ?]      LDRB     r7,[r7,r4]
        0x0000c924:    bf18        ..      IT       NE
        0x0000c926:    f0400002    @...    ORRNE    r0,r0,#2
        0x0000c92a:    429f        .B      CMP      r7,r3
        0x0000c92c:    d127        '.      BNE      0xc97e ; am_hal_gpio_pinconfig + 266
        0x0000c92e:    0c0b        ..      LSRS     r3,r1,#16
        0x0000c930:    f003070d    ....    AND      r7,r3,#0xd
        0x0000c934:    2f0d        ./      CMP      r7,#0xd
        0x0000c936:    f1020503    ....    ADD      r5,r2,#3
        0x0000c93a:    d0a1        ..      BEQ      0xc880 ; am_hal_gpio_pinconfig + 12
        0x0000c93c:    07df        ..      LSLS     r7,r3,#31
        0x0000c93e:    d103        ..      BNE      0xc948 ; am_hal_gpio_pinconfig + 212
        0x0000c940:    f003070e    ....    AND      r7,r3,#0xe
        0x0000c944:    2f04        ./      CMP      r7,#4
        0x0000c946:    d89b        ..      BHI      0xc880 ; am_hal_gpio_pinconfig + 12
        0x0000c948:    01df        ..      LSLS     r7,r3,#7
        0x0000c94a:    f0030330    ..0.    AND      r3,r3,#0x30
        0x0000c94e:    f3c14642    ..BF    UBFX     r6,r1,#17,#3
        0x0000c952:    b2ff        ..      UXTB     r7,r7
        0x0000c954:    4433        3D      ADD      r3,r3,r6
        0x0000c956:    441f        .D      ADD      r7,r7,r3
        0x0000c958:    f64e1349    N.I.    MOV      r3,#0xe949
        0x0000c95c:    f2c00300    ....    MOVT     r3,#0
        0x0000c960:    eb030684    ....    ADD      r6,r3,r4,LSL #2
        0x0000c964:    2300        .#      MOVS     r3,#0
        0x0000c966:    bf00        ..      NOP      
        0x0000c968:    7835        5x      LDRB     r5,[r6,#0]
        0x0000c96a:    42af        .B      CMP      r7,r5
        0x0000c96c:    f0008083    ....    BEQ.W    0xca76 ; am_hal_gpio_pinconfig + 514
        0x0000c970:    3302        .3      ADDS     r3,#2
        0x0000c972:    2b08        .+      CMP      r3,#8
        0x0000c974:    f1060601    ....    ADD      r6,r6,#1
        0x0000c978:    d1f6        ..      BNE      0xc968 ; am_hal_gpio_pinconfig + 244
        0x0000c97a:    1d15        ..      ADDS     r5,r2,#4
        0x0000c97c:    e780        ..      B        0xc880 ; am_hal_gpio_pinconfig + 12
        0x0000c97e:    2202        ."      MOVS     r2,#2
        0x0000c980:    ea0222d1    ..."    AND      r2,r2,r1,LSR #11
        0x0000c984:    4310        .C      ORRS     r0,r0,r2
        0x0000c986:    2208        ."      MOVS     r2,#8
        0x0000c988:    f3c12381    ...#    UBFX     r3,r1,#10,#2
        0x0000c98c:    ea022291    ..."    AND      r2,r2,r1,LSR #10
        0x0000c990:    ea420243    B.C.    ORR      r2,r2,r3,LSL #1
        0x0000c994:    3b01        .;      SUBS     r3,#1
        0x0000c996:    1ecf        ..      SUBS     r7,r1,#3
        0x0000c998:    fab3f383    ....    CLZ      r3,r3
        0x0000c99c:    fab7f787    ....    CLZ      r7,r7
        0x0000c9a0:    095b        [.      LSRS     r3,r3,#5
        0x0000c9a2:    097f        ..      LSRS     r7,r7,#5
        0x0000c9a4:    433b        ;C      ORRS     r3,r3,r7
        0x0000c9a6:    f4114fc0    ...O    TST      r1,#0x6000
        0x0000c9aa:    9303        ..      STR      r3,[sp,#0xc]
        0x0000c9ac:    bf07        ..      ITTEE    EQ
        0x0000c9ae:    f3c133c0    ...3    UBFXEQ   r3,r1,#15,#1
        0x0000c9b2:    ea420c03    B...    ORREQ    r12,r2,r3
        0x0000c9b6:    f3c13380    ...3    UBFXNE   r3,r1,#14,#1
        0x0000c9ba:    eb020c03    ....    ADDNE    r12,r2,r3
        0x0000c9be:    0a09        ..      LSRS     r1,r1,#8
        0x0000c9c0:    f0010103    ....    AND      r1,r1,#3
        0x0000c9c4:    e8dff001    ....    TBB      [pc,r1]
    $d.1
        0x0000c9c8:    06080209    ....    DCD    101188105
    $t.2
        0x0000c9cc:    f0400004    @...    ORR      r0,r0,#4
        0x0000c9d0:    2100        .!      MOVS     r1,#0
        0x0000c9d2:    e002        ..      B        0xc9da ; am_hal_gpio_pinconfig + 358
        0x0000c9d4:    f0400004    @...    ORR      r0,r0,#4
        0x0000c9d8:    2101        .!      MOVS     r1,#1
        0x0000c9da:    f06f0303    o...    MVN      r3,#3
        0x0000c9de:    ea030a54    ..T.    AND      r10,r3,r4,LSR #1
        0x0000c9e2:    231c        .#      MOVS     r3,#0x1c
        0x0000c9e4:    2518        .%      MOVS     r5,#0x18
        0x0000c9e6:    ea030384    ....    AND      r3,r3,r4,LSL #2
        0x0000c9ea:    ea0502c4    ....    AND      r2,r5,r4,LSL #3
        0x0000c9ee:    250f        .%      MOVS     r5,#0xf
        0x0000c9f0:    409d        .@      LSLS     r5,r5,r3
        0x0000c9f2:    43ed        .C      MVNS     r5,r5
        0x0000c9f4:    2600        .&      MOVS     r6,#0
        0x0000c9f6:    9502        ..      STR      r5,[sp,#8]
        0x0000c9f8:    25ff        .%      MOVS     r5,#0xff
        0x0000c9fa:    fa00f802    ....    LSL      r8,r0,r2
        0x0000c9fe:    fa01f002    ....    LSL      r0,r1,r2
        0x0000ca02:    f2c40601    ....    MOVT     r6,#0x4001
        0x0000ca06:    4095        .@      LSLS     r5,r5,r2
        0x0000ca08:    9001        ..      STR      r0,[sp,#4]
        0x0000ca0a:    fa0cf003    ....    LSL      r0,r12,r3
        0x0000ca0e:    f1060b4c    ..L.    ADD      r11,r6,#0x4c
        0x0000ca12:    f0240703    $...    BIC      r7,r4,#3
        0x0000ca16:    f10609f8    ....    ADD      r9,r6,#0xf8
        0x0000ca1a:    43ed        .C      MVNS     r5,r5
        0x0000ca1c:    9000        ..      STR      r0,[sp,#0]
        0x0000ca1e:    f000f87f    ....    BL       am_hal_interrupt_master_disable ; 0xcb20
        0x0000ca22:    9903        ..      LDR      r1,[sp,#0xc]
        0x0000ca24:    9004        ..      STR      r0,[sp,#0x10]
        0x0000ca26:    b151        Q.      CBZ      r1,0xca3e ; am_hal_gpio_pinconfig + 458
        0x0000ca28:    f004001f    ....    AND      r0,r4,#0x1f
        0x0000ca2c:    2101        .!      MOVS     r1,#1
        0x0000ca2e:    fa01f000    ....    LSL      r0,r1,r0
        0x0000ca32:    f3c41141    ..A.    UBFX     r1,r4,#5,#2
        0x0000ca36:    eb060181    ....    ADD      r1,r6,r1,LSL #2
        0x0000ca3a:    f8c100c8    ....    STR      r0,[r1,#0xc8]
        0x0000ca3e:    2073        s       MOVS     r0,#0x73
        0x0000ca40:    6770        pg      STR      r0,[r6,#0x74]
        0x0000ca42:    59f0        .Y      LDR      r0,[r6,r7]
        0x0000ca44:    4028        (@      ANDS     r0,r0,r5
        0x0000ca46:    ea400008    @...    ORR      r0,r0,r8
        0x0000ca4a:    51f0        .Q      STR      r0,[r6,r7]
        0x0000ca4c:    f85a000b    Z...    LDR      r0,[r10,r11]
        0x0000ca50:    9902        ..      LDR      r1,[sp,#8]
        0x0000ca52:    4008        .@      ANDS     r0,r0,r1
        0x0000ca54:    9900        ..      LDR      r1,[sp,#0]
        0x0000ca56:    4308        .C      ORRS     r0,r0,r1
        0x0000ca58:    f84a000b    J...    STR      r0,[r10,r11]
        0x0000ca5c:    f8570009    W...    LDR      r0,[r7,r9]
        0x0000ca60:    9901        ..      LDR      r1,[sp,#4]
        0x0000ca62:    4028        (@      ANDS     r0,r0,r5
        0x0000ca64:    4308        .C      ORRS     r0,r0,r1
        0x0000ca66:    2500        .%      MOVS     r5,#0
        0x0000ca68:    f8470009    G...    STR      r0,[r7,r9]
        0x0000ca6c:    6775        ug      STR      r5,[r6,#0x74]
        0x0000ca6e:    9804        ..      LDR      r0,[sp,#0x10]
        0x0000ca70:    f000f85a    ..Z.    BL       am_hal_interrupt_master_set ; 0xcb28
        0x0000ca74:    e704        ..      B        0xc880 ; am_hal_gpio_pinconfig + 12
        0x0000ca76:    2208        ."      MOVS     r2,#8
        0x0000ca78:    ea0242d1    ...B    AND      r2,r2,r1,LSR #19
        0x0000ca7c:    ea430c02    C...    ORR      r12,r3,r2
        0x0000ca80:    2200        ."      MOVS     r2,#0
        0x0000ca82:    9203        ..      STR      r2,[sp,#0xc]
        0x0000ca84:    e79b        ..      B        0xc9be ; am_hal_gpio_pinconfig + 330
        0x0000ca86:    0000        ..      MOVS     r0,r0
    am_hal_gpio_state_write
        0x0000ca88:    b5b0        ..      PUSH     {r4,r5,r7,lr}
        0x0000ca8a:    b082        ..      SUB      sp,sp,#8
        0x0000ca8c:    2849        I(      CMP      r0,#0x49
        0x0000ca8e:    d901        ..      BLS      0xca94 ; am_hal_gpio_state_write + 12
        0x0000ca90:    2405        .$      MOVS     r4,#5
        0x0000ca92:    e040        @.      B        0xcb16 ; am_hal_gpio_state_write + 142
        0x0000ca94:    460d        .F      MOV      r5,r1
        0x0000ca96:    2905        .)      CMP      r1,#5
        0x0000ca98:    d901        ..      BLS      0xca9e ; am_hal_gpio_state_write + 22
        0x0000ca9a:    2406        .$      MOVS     r4,#6
        0x0000ca9c:    e03b        ;.      B        0xcb16 ; am_hal_gpio_state_write + 142
        0x0000ca9e:    4604        .F      MOV      r4,r0
        0x0000caa0:    f000f83e    ..>.    BL       am_hal_interrupt_master_disable ; 0xcb20
        0x0000caa4:    2d05        .-      CMP      r5,#5
        0x0000caa6:    9001        ..      STR      r0,[sp,#4]
        0x0000caa8:    d838        8.      BHI      0xcb1c ; am_hal_gpio_state_write + 148
        0x0000caaa:    f004001f    ....    AND      r0,r4,#0x1f
        0x0000caae:    2101        .!      MOVS     r1,#1
        0x0000cab0:    fa01f000    ....    LSL      r0,r1,r0
        0x0000cab4:    210c        .!      MOVS     r1,#0xc
        0x0000cab6:    ea0101d4    ....    AND      r1,r1,r4,LSR #3
        0x0000caba:    e8dff005    ....    TBB      [pc,r5]
    $d.6
        0x0000cabe:    0903        ..      DCW    2307
        0x0000cac0:    211b160f    ...!    DCD    555423247
    $t.7
        0x0000cac4:    228c        ."      MOVS     r2,#0x8c
        0x0000cac6:    f2c40201    ....    MOVT     r2,#0x4001
        0x0000caca:    4411        .D      ADD      r1,r1,r2
        0x0000cacc:    6188        .a      STR      r0,[r1,#0x18]
        0x0000cace:    e01e        ..      B        0xcb0e ; am_hal_gpio_state_write + 134
        0x0000cad0:    228c        ."      MOVS     r2,#0x8c
        0x0000cad2:    f2c40201    ....    MOVT     r2,#0x4001
        0x0000cad6:    4411        .D      ADD      r1,r1,r2
        0x0000cad8:    60c8        .`      STR      r0,[r1,#0xc]
        0x0000cada:    e018        ..      B        0xcb0e ; am_hal_gpio_state_write + 134
        0x0000cadc:    228c        ."      MOVS     r2,#0x8c
        0x0000cade:    f2c40201    ....    MOVT     r2,#0x4001
        0x0000cae2:    588b        .X      LDR      r3,[r1,r2]
        0x0000cae4:    4058        X@      EORS     r0,r0,r3
        0x0000cae6:    5088        .P      STR      r0,[r1,r2]
        0x0000cae8:    e011        ..      B        0xcb0e ; am_hal_gpio_state_write + 134
        0x0000caea:    228c        ."      MOVS     r2,#0x8c
        0x0000caec:    f2c40201    ....    MOVT     r2,#0x4001
        0x0000caf0:    4411        .D      ADD      r1,r1,r2
        0x0000caf2:    e00b        ..      B        0xcb0c ; am_hal_gpio_state_write + 132
        0x0000caf4:    228c        ."      MOVS     r2,#0x8c
        0x0000caf6:    f2c40201    ....    MOVT     r2,#0x4001
        0x0000cafa:    4411        .D      ADD      r1,r1,r2
        0x0000cafc:    6308        .c      STR      r0,[r1,#0x30]
        0x0000cafe:    e006        ..      B        0xcb0e ; am_hal_gpio_state_write + 134
        0x0000cb00:    228c        ."      MOVS     r2,#0x8c
        0x0000cb02:    f2c40201    ....    MOVT     r2,#0x4001
        0x0000cb06:    4411        .D      ADD      r1,r1,r2
        0x0000cb08:    6bca        .k      LDR      r2,[r1,#0x3c]
        0x0000cb0a:    4050        P@      EORS     r0,r0,r2
        0x0000cb0c:    63c8        .c      STR      r0,[r1,#0x3c]
        0x0000cb0e:    2400        .$      MOVS     r4,#0
        0x0000cb10:    9801        ..      LDR      r0,[sp,#4]
        0x0000cb12:    f000f809    ....    BL       am_hal_interrupt_master_set ; 0xcb28
        0x0000cb16:    4620         F      MOV      r0,r4
        0x0000cb18:    b002        ..      ADD      sp,sp,#8
        0x0000cb1a:    bdb0        ..      POP      {r4,r5,r7,pc}
        0x0000cb1c:    2406        .$      MOVS     r4,#6
        0x0000cb1e:    e7f7        ..      B        0xcb10 ; am_hal_gpio_state_write + 136
    am_hal_interrupt_master_disable
        0x0000cb20:    f3ef8010    ....    MRS      r0,PRIMASK
        0x0000cb24:    b672        r.      CPSID    i
        0x0000cb26:    4770        pG      BX       lr
    am_hal_interrupt_master_set
        0x0000cb28:    f3808810    ....    MSR      PRIMASK,r0
        0x0000cb2c:    4770        pG      BX       lr
    am_hal_mcuctrl_info_get
        0x0000cb2e:    b1e1        ..      CBZ      r1,0xcb6a ; am_hal_mcuctrl_info_get + 60
        0x0000cb30:    2802        .(      CMP      r0,#2
        0x0000cb32:    d01c        ..      BEQ      0xcb6e ; am_hal_mcuctrl_info_get + 64
        0x0000cb34:    2801        .(      CMP      r0,#1
        0x0000cb36:    d037        7.      BEQ      0xcba8 ; am_hal_mcuctrl_info_get + 122
        0x0000cb38:    b9b8        ..      CBNZ     r0,0xcb6a ; am_hal_mcuctrl_info_get + 60
        0x0000cb3a:    2000        .       MOVS     r0,#0
        0x0000cb3c:    f2c40002    ....    MOVT     r0,#0x4002
        0x0000cb40:    6982        .i      LDR      r2,[r0,#0x18]
        0x0000cb42:    b2d2        ..      UXTB     r2,r2
        0x0000cb44:    f3c21380    ....    UBFX     r3,r2,#6,#1
        0x0000cb48:    f3c20280    ....    UBFX     r2,r2,#2,#1
        0x0000cb4c:    700b        .p      STRB     r3,[r1,#0]
        0x0000cb4e:    704a        Jp      STRB     r2,[r1,#1]
        0x0000cb50:    f8d021a0    ...!    LDR      r2,[r0,#0x1a0]
        0x0000cb54:    f3c26281    ...b    UBFX     r2,r2,#26,#2
        0x0000cb58:    710a        .q      STRB     r2,[r1,#4]
        0x0000cb5a:    6940        @i      LDR      r0,[r0,#0x14]
        0x0000cb5c:    f3c00240    ..@.    UBFX     r2,r0,#1,#1
        0x0000cb60:    f0000001    ....    AND      r0,r0,#1
        0x0000cb64:    708a        .p      STRB     r2,[r1,#2]
        0x0000cb66:    70c8        .p      STRB     r0,[r1,#3]
        0x0000cb68:    e06c        l.      B        0xcc44 ; am_hal_mcuctrl_info_get + 278
        0x0000cb6a:    2006        .       MOVS     r0,#6
        0x0000cb6c:    4770        pG      BX       lr
        0x0000cb6e:    2000        .       MOVS     r0,#0
        0x0000cb70:    f2c40002    ....    MOVT     r0,#0x4002
        0x0000cb74:    f8d021cc    ...!    LDR      r2,[r0,#0x1cc]
        0x0000cb78:    b2d3        ..      UXTB     r3,r2
        0x0000cb7a:    f0020201    ....    AND      r2,r2,#1
        0x0000cb7e:    700a        .p      STRB     r2,[r1,#0]
        0x0000cb80:    f3c30240    ..@.    UBFX     r2,r3,#1,#1
        0x0000cb84:    720a        .r      STRB     r2,[r1,#8]
        0x0000cb86:    f3c30280    ....    UBFX     r2,r3,#2,#1
        0x0000cb8a:    740a        .t      STRB     r2,[r1,#0x10]
        0x0000cb8c:    f8d021c4    ...!    LDR      r2,[r0,#0x1c4]
        0x0000cb90:    60ca        .`      STR      r2,[r1,#0xc]
        0x0000cb92:    f8d021c0    ...!    LDR      r2,[r0,#0x1c0]
        0x0000cb96:    684b        Kh      LDR      r3,[r1,#4]
        0x0000cb98:    431a        .C      ORRS     r2,r2,r3
        0x0000cb9a:    604a        J`      STR      r2,[r1,#4]
        0x0000cb9c:    f8d001c8    ....    LDR      r0,[r0,#0x1c8]
        0x0000cba0:    694a        Ji      LDR      r2,[r1,#0x14]
        0x0000cba2:    4310        .C      ORRS     r0,r0,r2
        0x0000cba4:    6148        Ha      STR      r0,[r1,#0x14]
        0x0000cba6:    e04d        M.      B        0xcc44 ; am_hal_mcuctrl_info_get + 278
        0x0000cba8:    2000        .       MOVS     r0,#0
        0x0000cbaa:    f2c40002    ....    MOVT     r0,#0x4002
        0x0000cbae:    6802        .h      LDR      r2,[r0,#0]
        0x0000cbb0:    600a        .`      STR      r2,[r1,#0]
        0x0000cbb2:    6843        Ch      LDR      r3,[r0,#4]
        0x0000cbb4:    604b        K`      STR      r3,[r1,#4]
        0x0000cbb6:    6883        .h      LDR      r3,[r0,#8]
        0x0000cbb8:    608b        .`      STR      r3,[r1,#8]
        0x0000cbba:    68c3        .h      LDR      r3,[r0,#0xc]
        0x0000cbbc:    60cb        .`      STR      r3,[r1,#0xc]
        0x0000cbbe:    6903        .i      LDR      r3,[r0,#0x10]
        0x0000cbc0:    610b        .a      STR      r3,[r1,#0x10]
        0x0000cbc2:    6940        @i      LDR      r0,[r0,#0x14]
        0x0000cbc4:    f24e73a4    N..s    MOV      r3,#0xe7a4
        0x0000cbc8:    6148        Ha      STR      r0,[r1,#0x14]
        0x0000cbca:    2001        .       MOVS     r0,#1
        0x0000cbcc:    6188        .a      STR      r0,[r1,#0x18]
        0x0000cbce:    f3c25003    ...P    UBFX     r0,r2,#20,#4
        0x0000cbd2:    f2c00300    ....    MOVT     r3,#0
        0x0000cbd6:    f8530020    S. .    LDR      r0,[r3,r0,LSL #2]
        0x0000cbda:    f24e73e4    N..s    MOV      r3,#0xe7e4
        0x0000cbde:    f3c24203    ...B    UBFX     r2,r2,#16,#4
        0x0000cbe2:    f2c00300    ....    MOVT     r3,#0
        0x0000cbe6:    f8532022    S."     LDR      r2,[r3,r2,LSL #2]
        0x0000cbea:    e9c10207    ....    STRD     r0,r2,[r1,#0x1c]
        0x0000cbee:    f64070e0    @..p    MOVW     r0,#0xfe0
        0x0000cbf2:    f2cf0000    ....    MOVT     r0,#0xf000
        0x0000cbf6:    6802        .h      LDR      r2,[r0,#0]
        0x0000cbf8:    b2d2        ..      UXTB     r2,r2
        0x0000cbfa:    624a        Jb      STR      r2,[r1,#0x24]
        0x0000cbfc:    6843        Ch      LDR      r3,[r0,#4]
        0x0000cbfe:    f363220b    c.."    BFI      r2,r3,#8,#4
        0x0000cc02:    624a        Jb      STR      r2,[r1,#0x24]
        0x0000cc04:    6842        Bh      LDR      r2,[r0,#4]
        0x0000cc06:    f3c21203    ....    UBFX     r2,r2,#4,#4
        0x0000cc0a:    628a        .b      STR      r2,[r1,#0x28]
        0x0000cc0c:    6883        .h      LDR      r3,[r0,#8]
        0x0000cc0e:    f3631207    c...    BFI      r2,r3,#4,#4
        0x0000cc12:    628a        .b      STR      r2,[r1,#0x28]
        0x0000cc14:    6882        .h      LDR      r2,[r0,#8]
        0x0000cc16:    f00202f0    ....    AND      r2,r2,#0xf0
        0x0000cc1a:    62ca        .b      STR      r2,[r1,#0x2c]
        0x0000cc1c:    68c3        .h      LDR      r3,[r0,#0xc]
        0x0000cc1e:    f3c31303    ....    UBFX     r3,r3,#4,#4
        0x0000cc22:    441a        .D      ADD      r2,r2,r3
        0x0000cc24:    62ca        .b      STR      r2,[r1,#0x2c]
        0x0000cc26:    69c2        .i      LDR      r2,[r0,#0x1c]
        0x0000cc28:    0612        ..      LSLS     r2,r2,#24
        0x0000cc2a:    630a        .c      STR      r2,[r1,#0x30]
        0x0000cc2c:    6983        .i      LDR      r3,[r0,#0x18]
        0x0000cc2e:    f3634217    c..B    BFI      r2,r3,#16,#8
        0x0000cc32:    630a        .c      STR      r2,[r1,#0x30]
        0x0000cc34:    6943        Ci      LDR      r3,[r0,#0x14]
        0x0000cc36:    f363220f    c.."    BFI      r2,r3,#8,#8
        0x0000cc3a:    630a        .c      STR      r2,[r1,#0x30]
        0x0000cc3c:    6900        .i      LDR      r0,[r0,#0x10]
        0x0000cc3e:    b2c0        ..      UXTB     r0,r0
        0x0000cc40:    4410        .D      ADD      r0,r0,r2
        0x0000cc42:    6308        .c      STR      r0,[r1,#0x30]
        0x0000cc44:    2000        .       MOVS     r0,#0
        0x0000cc46:    4770        pG      BX       lr
    am_hal_pwrctrl_blebuck_trim
        0x0000cc48:    b510        ..      PUSH     {r4,lr}
        0x0000cc4a:    b082        ..      SUB      sp,sp,#8
        0x0000cc4c:    f2403468    @.h4    MOVW     r4,#0x368
        0x0000cc50:    f64f40a4    O..@    MOV      r0,#0xfca4
        0x0000cc54:    f2c40402    ....    MOVT     r4,#0x4002
        0x0000cc58:    f6cf70ff    ...p    MOVT     r0,#0xffff
        0x0000cc5c:    5820         X      LDR      r0,[r4,r0]
        0x0000cc5e:    f00000fe    ....    AND      r0,r0,#0xfe
        0x0000cc62:    2812        .(      CMP      r0,#0x12
        0x0000cc64:    d317        ..      BCC      0xcc96 ; am_hal_pwrctrl_blebuck_trim + 78
        0x0000cc66:    f7ffff5b    ..[.    BL       am_hal_interrupt_master_disable ; 0xcb20
        0x0000cc6a:    9001        ..      STR      r0,[sp,#4]
        0x0000cc6c:    6820         h      LDR      r0,[r4,#0]
        0x0000cc6e:    2119        .!      MOVS     r1,#0x19
        0x0000cc70:    f361108b    a...    BFI      r0,r1,#6,#6
        0x0000cc74:    6020         `      STR      r0,[r4,#0]
        0x0000cc76:    6820         h      LDR      r0,[r4,#0]
        0x0000cc78:    210c        .!      MOVS     r1,#0xc
        0x0000cc7a:    f3610005    a...    BFI      r0,r1,#0,#6
        0x0000cc7e:    6020         `      STR      r0,[r4,#0]
        0x0000cc80:    f244003c    D.<.    MOV      r0,#0x403c
        0x0000cc84:    f2c40000    ....    MOVT     r0,#0x4000
        0x0000cc88:    6801        .h      LDR      r1,[r0,#0]
        0x0000cc8a:    f4210180    !...    BIC      r1,r1,#0x400000
        0x0000cc8e:    6001        .`      STR      r1,[r0,#0]
        0x0000cc90:    9801        ..      LDR      r0,[sp,#4]
        0x0000cc92:    f7ffff49    ..I.    BL       am_hal_interrupt_master_set ; 0xcb28
        0x0000cc96:    b002        ..      ADD      sp,sp,#8
        0x0000cc98:    bd10        ..      POP      {r4,pc}
    am_hal_pwrctrl_bleif_workaround
        0x0000cc9a:    f6430138    C.8.    MOV      r1,#0x3838
        0x0000cc9e:    f2c50102    ....    MOVT     r1,#0x5002
        0x0000cca2:    460a        .F      MOV      r2,r1
        0x0000cca4:    f8520b38    R.8.    LDR      r0,[r2],#0x38
        0x0000cca8:    f0100008    ....    ANDS     r0,r0,#8
        0x0000ccac:    f2400088    @...    MOVW     r0,#0x88
        0x0000ccb0:    f2c40002    ....    MOVT     r0,#0x4002
        0x0000ccb4:    4603        .F      MOV      r3,r0
        0x0000ccb6:    bf08        ..      IT       EQ
        0x0000ccb8:    f1010334    ..4.    ADDEQ    r3,r1,#0x34
        0x0000ccbc:    6819        .h      LDR      r1,[r3,#0]
        0x0000ccbe:    bf18        ..      IT       NE
        0x0000ccc0:    f5007232    ..2r    ADDNE    r2,r0,#0x2c8
        0x0000ccc4:    6803        .h      LDR      r3,[r0,#0]
        0x0000ccc6:    f001013f    ..?.    AND      r1,r1,#0x3f
        0x0000ccca:    f023033f    #.?.    BIC      r3,r3,#0x3f
        0x0000ccce:    293c        <)      CMP      r1,#0x3c
        0x0000ccd0:    bf28        (.      IT       CS
        0x0000ccd2:    213c        <!      MOVCS    r1,#0x3c
        0x0000ccd4:    6003        .`      STR      r3,[r0,#0]
        0x0000ccd6:    6803        .h      LDR      r3,[r0,#0]
        0x0000ccd8:    3103        .1      ADDS     r1,#3
        0x0000ccda:    4319        .C      ORRS     r1,r1,r3
        0x0000ccdc:    6001        .`      STR      r1,[r0,#0]
        0x0000ccde:    6811        .h      LDR      r1,[r2,#0]
        0x0000cce0:    f8d022c8    ..."    LDR      r2,[r0,#0x2c8]
        0x0000cce4:    f3c14105    ...A    UBFX     r1,r1,#16,#6
        0x0000cce8:    f422127c    ".|.    BIC      r2,r2,#0x3f0000
        0x0000ccec:    293a        :)      CMP      r1,#0x3a
        0x0000ccee:    bf28        (.      IT       CS
        0x0000ccf0:    213a        :!      MOVCS    r1,#0x3a
        0x0000ccf2:    f8c022c8    ..."    STR      r2,[r0,#0x2c8]
        0x0000ccf6:    f44f22a0    O.."    MOV      r2,#0x50000
        0x0000ccfa:    eb024101    ...A    ADD      r1,r2,r1,LSL #16
        0x0000ccfe:    f8d022c8    ..."    LDR      r2,[r0,#0x2c8]
        0x0000cd02:    f401117c    ..|.    AND      r1,r1,#0x3f0000
        0x0000cd06:    4311        .C      ORRS     r1,r1,r2
        0x0000cd08:    f8c012c8    ....    STR      r1,[r0,#0x2c8]
        0x0000cd0c:    4770        pG      BX       lr
    am_hal_pwrctrl_low_power_init
        0x0000cd0e:    b5b0        ..      PUSH     {r4,r5,r7,lr}
        0x0000cd10:    b082        ..      SUB      sp,sp,#8
        0x0000cd12:    f2410088    A...    MOV      r0,#0x1088
        0x0000cd16:    f2c10000    ....    MOVT     r0,#0x1000
        0x0000cd1a:    6801        .h      LDR      r1,[r0,#0]
        0x0000cd1c:    b929        ).      CBNZ     r1,0xcd2a ; am_hal_pwrctrl_low_power_init + 28
        0x0000cd1e:    f24f0100    O...    MOVW     r1,#0xf000
        0x0000cd22:    f6c471ff    ...q    MOVT     r1,#0x4fff
        0x0000cd26:    6809        .h      LDR      r1,[r1,#0]
        0x0000cd28:    6001        .`      STR      r1,[r0,#0]
        0x0000cd2a:    f2403450    @.P4    MOVW     r4,#0x350
        0x0000cd2e:    f64f45bc    O..E    MOV      r5,#0xfcbc
        0x0000cd32:    f2c40402    ....    MOVT     r4,#0x4002
        0x0000cd36:    f6cf75ff    ...u    MOVT     r5,#0xffff
        0x0000cd3a:    5960        `Y      LDR      r0,[r4,r5]
        0x0000cd3c:    b2c0        ..      UXTB     r0,r0
        0x0000cd3e:    2821        !(      CMP      r0,#0x21
        0x0000cd40:    d34f        O.      BCC      0xcde2 ; am_hal_pwrctrl_low_power_init + 212
        0x0000cd42:    f241105c    A.\.    MOV      r0,#0x115c
        0x0000cd46:    f2c10000    ....    MOVT     r0,#0x1000
        0x0000cd4a:    7801        .x      LDRB     r1,[r0,#0]
        0x0000cd4c:    2900        .)      CMP      r1,#0
        0x0000cd4e:    d13e        >.      BNE      0xcdce ; am_hal_pwrctrl_low_power_init + 192
        0x0000cd50:    2101        .!      MOVS     r1,#1
        0x0000cd52:    7001        .p      STRB     r1,[r0,#0]
        0x0000cd54:    6820         h      LDR      r0,[r4,#0]
        0x0000cd56:    6822        "h      LDR      r2,[r4,#0]
        0x0000cd58:    f3c05085    ...P    UBFX     r0,r0,#22,#6
        0x0000cd5c:    380c        .8      SUBS     r0,r0,#0xc
        0x0000cd5e:    f04f0100    O...    MOV      r1,#0
        0x0000cd62:    bf38        8.      IT       CC
        0x0000cd64:    4608        .F      MOVCC    r0,r1
        0x0000cd66:    f022627c    ".|b    BIC      r2,r2,#0xfc00000
        0x0000cd6a:    ea425080    B..P    ORR      r0,r2,r0,LSL #22
        0x0000cd6e:    6020         `      STR      r0,[r4,#0]
        0x0000cd70:    6820         h      LDR      r0,[r4,#0]
        0x0000cd72:    6822        "h      LDR      r2,[r4,#0]
        0x0000cd74:    f3c02085    ...     UBFX     r0,r0,#10,#6
        0x0000cd78:    380d        .8      SUBS     r0,r0,#0xd
        0x0000cd7a:    bf38        8.      IT       CC
        0x0000cd7c:    4608        .F      MOVCC    r0,r1
        0x0000cd7e:    f422417c    ".|A    BIC      r1,r2,#0xfc00
        0x0000cd82:    ea412080    A..     ORR      r0,r1,r0,LSL #10
        0x0000cd86:    6020         `      STR      r0,[r4,#0]
        0x0000cd88:    6860        `h      LDR      r0,[r4,#4]
        0x0000cd8a:    2108        .!      MOVS     r1,#8
        0x0000cd8c:    f3615017    a..P    BFI      r0,r1,#20,#4
        0x0000cd90:    6060        ``      STR      r0,[r4,#4]
        0x0000cd92:    6860        `h      LDR      r0,[r4,#4]
        0x0000cd94:    2205        ."      MOVS     r2,#5
        0x0000cd96:    f3624013    b..@    BFI      r0,r2,#16,#4
        0x0000cd9a:    6060        ``      STR      r0,[r4,#4]
        0x0000cd9c:    68e0        .h      LDR      r0,[r4,#0xc]
        0x0000cd9e:    f3610003    a...    BFI      r0,r1,#0,#4
        0x0000cda2:    60e0        .`      STR      r0,[r4,#0xc]
        0x0000cda4:    68a0        .h      LDR      r0,[r4,#8]
        0x0000cda6:    2106        .!      MOVS     r1,#6
        0x0000cda8:    f36160de    a..`    BFI      r0,r1,#27,#4
        0x0000cdac:    60a0        .`      STR      r0,[r4,#8]
        0x0000cdae:    68e0        .h      LDR      r0,[r4,#0xc]
        0x0000cdb0:    f4400000    @...    ORR      r0,r0,#0x800000
        0x0000cdb4:    60e0        .`      STR      r0,[r4,#0xc]
        0x0000cdb6:    68e0        .h      LDR      r0,[r4,#0xc]
        0x0000cdb8:    f0207080     ..p    BIC      r0,r0,#0x1000000
        0x0000cdbc:    60e0        .`      STR      r0,[r4,#0xc]
        0x0000cdbe:    6860        `h      LDR      r0,[r4,#4]
        0x0000cdc0:    f0405040    @.@P    ORR      r0,r0,#0x30000000
        0x0000cdc4:    6060        ``      STR      r0,[r4,#4]
        0x0000cdc6:    6860        `h      LDR      r0,[r4,#4]
        0x0000cdc8:    f040001f    @...    ORR      r0,r0,#0x1f
        0x0000cdcc:    6060        ``      STR      r0,[r4,#4]
        0x0000cdce:    f241105e    A.^.    MOV      r0,#0x115e
        0x0000cdd2:    f2c10000    ....    MOVT     r0,#0x1000
        0x0000cdd6:    7801        .x      LDRB     r1,[r0,#0]
        0x0000cdd8:    b919        ..      CBNZ     r1,0xcde2 ; am_hal_pwrctrl_low_power_init + 212
        0x0000cdda:    2101        .!      MOVS     r1,#1
        0x0000cddc:    7001        .p      STRB     r1,[r0,#0]
        0x0000cdde:    f7ffff5c    ..\.    BL       am_hal_pwrctrl_bleif_workaround ; 0xcc9a
        0x0000cde2:    5960        `Y      LDR      r0,[r4,r5]
        0x0000cde4:    f00000fe    ....    AND      r0,r0,#0xfe
        0x0000cde8:    2812        .(      CMP      r0,#0x12
        0x0000cdea:    d303        ..      BCC      0xcdf4 ; am_hal_pwrctrl_low_power_init + 230
        0x0000cdec:    68e0        .h      LDR      r0,[r4,#0xc]
        0x0000cdee:    f0207080     ..p    BIC      r0,r0,#0x1000000
        0x0000cdf2:    60e0        .`      STR      r0,[r4,#0xc]
        0x0000cdf4:    f2410500    A...    MOVW     r5,#0x1000
        0x0000cdf8:    200c        .       MOVS     r0,#0xc
        0x0000cdfa:    2100        .!      MOVS     r1,#0
        0x0000cdfc:    f2c40502    ....    MOVT     r5,#0x4002
        0x0000ce00:    f7fffb78    ..x.    BL       am_hal_cachectrl_control ; 0xc4f4
        0x0000ce04:    69a8        .i      LDR      r0,[r5,#0x18]
        0x0000ce06:    05c0        ..      LSLS     r0,r0,#23
        0x0000ce08:    d41e        ..      BMI      0xce48 ; am_hal_pwrctrl_low_power_init + 314
        0x0000ce0a:    f7ffff1d    ....    BL       am_hal_pwrctrl_blebuck_trim ; 0xcc48
        0x0000ce0e:    f64f40c8    O..@    MOV      r0,#0xfcc8
        0x0000ce12:    f6cf70ff    ...p    MOVT     r0,#0xffff
        0x0000ce16:    5822        "X      LDR      r2,[r4,r0]
        0x0000ce18:    f5a4714e    ..Nq    SUB      r1,r4,#0x338
        0x0000ce1c:    f0420201    B...    ORR      r2,r2,#1
        0x0000ce20:    5022        "P      STR      r2,[r4,r0]
        0x0000ce22:    2401        .$      MOVS     r4,#1
        0x0000ce24:    f2427010    B..p    MOV      r0,#0x2710
        0x0000ce28:    2207        ."      MOVS     r2,#7
        0x0000ce2a:    2307        .#      MOVS     r3,#7
        0x0000ce2c:    9400        ..      STR      r4,[sp,#0]
        0x0000ce2e:    f7fffcd3    ....    BL       am_hal_flash_delay_status_check ; 0xc7d8
        0x0000ce32:    b108        ..      CBZ      r0,0xce38 ; am_hal_pwrctrl_low_power_init + 298
        0x0000ce34:    2004        .       MOVS     r0,#4
        0x0000ce36:    e00a        ..      B        0xce4e ; am_hal_pwrctrl_low_power_init + 320
        0x0000ce38:    6828        (h      LDR      r0,[r5,#0]
        0x0000ce3a:    f0400001    @...    ORR      r0,r0,#1
        0x0000ce3e:    6028        (`      STR      r0,[r5,#0]
        0x0000ce40:    6a68        hj      LDR      r0,[r5,#0x24]
        0x0000ce42:    f0400040    @.@.    ORR      r0,r0,#0x40
        0x0000ce46:    6268        hb      STR      r0,[r5,#0x24]
        0x0000ce48:    f7fffad9    ....    BL       am_hal_burst_ldo_charge ; 0xc3fe
        0x0000ce4c:    2000        .       MOVS     r0,#0
        0x0000ce4e:    b002        ..      ADD      sp,sp,#8
        0x0000ce50:    bdb0        ..      POP      {r4,r5,r7,pc}
        0x0000ce52:    0000        ..      MOVS     r0,r0
    am_hal_pwrctrl_memory_enable
        0x0000ce54:    e92d41f0    -..A    PUSH     {r4-r8,lr}
        0x0000ce58:    f24e5118    N..Q    MOV      r1,#0xe518
        0x0000ce5c:    4604        .F      MOV      r4,r0
        0x0000ce5e:    eb000040    ..@.    ADD      r0,r0,r0,LSL #1
        0x0000ce62:    f2c00100    ....    MOVT     r1,#0
        0x0000ce66:    eb0107c0    ....    ADD      r7,r1,r0,LSL #3
        0x0000ce6a:    f8518030    Q.0.    LDR      r8,[r1,r0,LSL #3]
        0x0000ce6e:    68f8        .h      LDR      r0,[r7,#0xc]
        0x0000ce70:    f2410510    A...    MOV      r5,#0x1010
        0x0000ce74:    f2c40502    ....    MOVT     r5,#0x4002
        0x0000ce78:    ea680000    h...    ORN      r0,r8,r0
        0x0000ce7c:    f2420101    B...    MOV      r1,#0x2001
        0x0000ce80:    4308        .C      ORRS     r0,r0,r1
        0x0000ce82:    6829        )h      LDR      r1,[r5,#0]
        0x0000ce84:    693e        >i      LDR      r6,[r7,#0x10]
        0x0000ce86:    4008        .@      ANDS     r0,r0,r1
        0x0000ce88:    6028        (`      STR      r0,[r5,#0]
        0x0000ce8a:    2010        .       MOVS     r0,#0x10
        0x0000ce8c:    f7fffc8e    ....    BL       am_hal_flash_delay ; 0xc7ac
        0x0000ce90:    b194        ..      CBZ      r4,0xceb8 ; am_hal_pwrctrl_memory_enable + 100
        0x0000ce92:    6828        (h      LDR      r0,[r5,#0]
        0x0000ce94:    ea400008    @...    ORR      r0,r0,r8
        0x0000ce98:    6028        (`      STR      r0,[r5,#0]
        0x0000ce9a:    1d38        8.      ADDS     r0,r7,#4
        0x0000ce9c:    6804        .h      LDR      r4,[r0,#0]
        0x0000ce9e:    2700        .'      MOVS     r7,#0
        0x0000cea0:    20a0        .       MOVS     r0,#0xa0
        0x0000cea2:    f7fffc83    ....    BL       am_hal_flash_delay ; 0xc7ac
        0x0000cea6:    6868        hh      LDR      r0,[r5,#4]
        0x0000cea8:    4030        0@      ANDS     r0,r0,r6
        0x0000ceaa:    42a0        .B      CMP      r0,r4
        0x0000ceac:    d005        ..      BEQ      0xceba ; am_hal_pwrctrl_memory_enable + 102
        0x0000ceae:    2f0a        ./      CMP      r7,#0xa
        0x0000ceb0:    f107070a    ....    ADD      r7,r7,#0xa
        0x0000ceb4:    d3f4        ..      BCC      0xcea0 ; am_hal_pwrctrl_memory_enable + 76
        0x0000ceb6:    e000        ..      B        0xceba ; am_hal_pwrctrl_memory_enable + 102
        0x0000ceb8:    687c        |h      LDR      r4,[r7,#4]
        0x0000ceba:    6868        hh      LDR      r0,[r5,#4]
        0x0000cebc:    4030        0@      ANDS     r0,r0,r6
        0x0000cebe:    1b00        ..      SUBS     r0,r0,r4
        0x0000cec0:    bf18        ..      IT       NE
        0x0000cec2:    2001        .       MOVNE    r0,#1
        0x0000cec4:    e8bd81f0    ....    POP      {r4-r8,pc}
    am_hal_pwrctrl_periph_disable
        0x0000cec8:    b5f0        ..      PUSH     {r4-r7,lr}
        0x0000ceca:    b081        ..      SUB      sp,sp,#4
        0x0000cecc:    f2410508    A...    MOV      r5,#0x1008
        0x0000ced0:    4604        .F      MOV      r4,r0
        0x0000ced2:    f2c40502    ....    MOVT     r5,#0x4002
        0x0000ced6:    f7fffe23    ..#.    BL       am_hal_interrupt_master_disable ; 0xcb20
        0x0000ceda:    f24e61c8    N..a    MOV      r1,#0xe6c8
        0x0000cede:    9000        ..      STR      r0,[sp,#0]
        0x0000cee0:    eb040044    ..D.    ADD      r0,r4,r4,LSL #1
        0x0000cee4:    f2c00100    ....    MOVT     r1,#0
        0x0000cee8:    eb010680    ....    ADD      r6,r1,r0,LSL #2
        0x0000ceec:    f8564b04    V..K    LDR      r4,[r6],#4
        0x0000cef0:    6828        (h      LDR      r0,[r5,#0]
        0x0000cef2:    43a0        .C      BICS     r0,r0,r4
        0x0000cef4:    6028        (`      STR      r0,[r5,#0]
        0x0000cef6:    9800        ..      LDR      r0,[sp,#0]
        0x0000cef8:    f7fffe16    ....    BL       am_hal_interrupt_master_set ; 0xcb28
        0x0000cefc:    6836        6h      LDR      r6,[r6,#0]
        0x0000cefe:    2700        .'      MOVS     r7,#0
        0x0000cf00:    20a0        .       MOVS     r0,#0xa0
        0x0000cf02:    f7fffc53    ..S.    BL       am_hal_flash_delay ; 0xc7ac
        0x0000cf06:    6928        (i      LDR      r0,[r5,#0x10]
        0x0000cf08:    4206        .B      TST      r6,r0
        0x0000cf0a:    d003        ..      BEQ      0xcf14 ; am_hal_pwrctrl_periph_disable + 76
        0x0000cf0c:    2f0a        ./      CMP      r7,#0xa
        0x0000cf0e:    f107070a    ....    ADD      r7,r7,#0xa
        0x0000cf12:    d3f5        ..      BCC      0xcf00 ; am_hal_pwrctrl_periph_disable + 56
        0x0000cf14:    6928        (i      LDR      r0,[r5,#0x10]
        0x0000cf16:    4206        .B      TST      r6,r0
        0x0000cf18:    d00d        ..      BEQ      0xcf36 ; am_hal_pwrctrl_periph_disable + 110
        0x0000cf1a:    6829        )h      LDR      r1,[r5,#0]
        0x0000cf1c:    2e0f        ..      CMP      r6,#0xf
        0x0000cf1e:    f04f0001    O...    MOV      r0,#1
        0x0000cf22:    dc0a        ..      BGT      0xcf3a ; am_hal_pwrctrl_periph_disable + 114
        0x0000cf24:    2e04        ..      CMP      r6,#4
        0x0000cf26:    d015        ..      BEQ      0xcf54 ; am_hal_pwrctrl_periph_disable + 140
        0x0000cf28:    2e08        ..      CMP      r6,#8
        0x0000cf2a:    d111        ..      BNE      0xcf50 ; am_hal_pwrctrl_periph_disable + 136
        0x0000cf2c:    f0110f0e    ....    TST      r1,#0xe
        0x0000cf30:    d10a        ..      BNE      0xcf48 ; am_hal_pwrctrl_periph_disable + 128
        0x0000cf32:    2001        .       MOVS     r0,#1
        0x0000cf34:    e00c        ..      B        0xcf50 ; am_hal_pwrctrl_periph_disable + 136
        0x0000cf36:    2000        .       MOVS     r0,#0
        0x0000cf38:    e00a        ..      B        0xcf50 ; am_hal_pwrctrl_periph_disable + 136
        0x0000cf3a:    2e10        ..      CMP      r6,#0x10
        0x0000cf3c:    d00f        ..      BEQ      0xcf5e ; am_hal_pwrctrl_periph_disable + 150
        0x0000cf3e:    2e40        @.      CMP      r6,#0x40
        0x0000cf40:    d106        ..      BNE      0xcf50 ; am_hal_pwrctrl_periph_disable + 136
        0x0000cf42:    f4115f60    ..`_    TST      r1,#0x3800
        0x0000cf46:    d0f4        ..      BEQ      0xcf32 ; am_hal_pwrctrl_periph_disable + 106
        0x0000cf48:    ea140001    ....    ANDS     r0,r4,r1
        0x0000cf4c:    bf18        ..      IT       NE
        0x0000cf4e:    2001        .       MOVNE    r0,#1
        0x0000cf50:    b001        ..      ADD      sp,sp,#4
        0x0000cf52:    bdf0        ..      POP      {r4-r7,pc}
        0x0000cf54:    f2405081    @..P    MOV      r0,#0x581
        0x0000cf58:    4201        .B      TST      r1,r0
        0x0000cf5a:    d1f5        ..      BNE      0xcf48 ; am_hal_pwrctrl_periph_disable + 128
        0x0000cf5c:    e7e9        ..      B        0xcf32 ; am_hal_pwrctrl_periph_disable + 106
        0x0000cf5e:    f0110f70    ..p.    TST      r1,#0x70
        0x0000cf62:    d1f1        ..      BNE      0xcf48 ; am_hal_pwrctrl_periph_disable + 128
        0x0000cf64:    e7e5        ..      B        0xcf32 ; am_hal_pwrctrl_periph_disable + 106
        0x0000cf66:    0000        ..      MOVS     r0,r0
    am_hal_pwrctrl_periph_enable
        0x0000cf68:    b5f0        ..      PUSH     {r4-r7,lr}
        0x0000cf6a:    b083        ..      SUB      sp,sp,#0xc
        0x0000cf6c:    f2410508    A...    MOV      r5,#0x1008
        0x0000cf70:    4604        .F      MOV      r4,r0
        0x0000cf72:    f2c40502    ....    MOVT     r5,#0x4002
        0x0000cf76:    f7fffdd3    ....    BL       am_hal_interrupt_master_disable ; 0xcb20
        0x0000cf7a:    f24e61c8    N..a    MOV      r1,#0xe6c8
        0x0000cf7e:    9002        ..      STR      r0,[sp,#8]
        0x0000cf80:    eb040044    ..D.    ADD      r0,r4,r4,LSL #1
        0x0000cf84:    f2c00100    ....    MOVT     r1,#0
        0x0000cf88:    eb010680    ....    ADD      r6,r1,r0,LSL #2
        0x0000cf8c:    f8564b04    V..K    LDR      r4,[r6],#4
        0x0000cf90:    6828        (h      LDR      r0,[r5,#0]
        0x0000cf92:    4320         C      ORRS     r0,r0,r4
        0x0000cf94:    6028        (`      STR      r0,[r5,#0]
        0x0000cf96:    9802        ..      LDR      r0,[sp,#8]
        0x0000cf98:    f7fffdc6    ....    BL       am_hal_interrupt_master_set ; 0xcb28
        0x0000cf9c:    6836        6h      LDR      r6,[r6,#0]
        0x0000cf9e:    2700        .'      MOVS     r7,#0
        0x0000cfa0:    20a0        .       MOVS     r0,#0xa0
        0x0000cfa2:    f7fffc03    ....    BL       am_hal_flash_delay ; 0xc7ac
        0x0000cfa6:    6928        (i      LDR      r0,[r5,#0x10]
        0x0000cfa8:    4206        .B      TST      r6,r0
        0x0000cfaa:    d103        ..      BNE      0xcfb4 ; am_hal_pwrctrl_periph_enable + 76
        0x0000cfac:    2f0a        ./      CMP      r7,#0xa
        0x0000cfae:    f107070a    ....    ADD      r7,r7,#0xa
        0x0000cfb2:    d3f5        ..      BCC      0xcfa0 ; am_hal_pwrctrl_periph_enable + 56
        0x0000cfb4:    6928        (i      LDR      r0,[r5,#0x10]
        0x0000cfb6:    4206        .B      TST      r6,r0
        0x0000cfb8:    d001        ..      BEQ      0xcfbe ; am_hal_pwrctrl_periph_enable + 86
        0x0000cfba:    2000        .       MOVS     r0,#0
        0x0000cfbc:    e009        ..      B        0xcfd2 ; am_hal_pwrctrl_periph_enable + 106
        0x0000cfbe:    f7fffdaf    ....    BL       am_hal_interrupt_master_disable ; 0xcb20
        0x0000cfc2:    9001        ..      STR      r0,[sp,#4]
        0x0000cfc4:    6828        (h      LDR      r0,[r5,#0]
        0x0000cfc6:    43a0        .C      BICS     r0,r0,r4
        0x0000cfc8:    6028        (`      STR      r0,[r5,#0]
        0x0000cfca:    9801        ..      LDR      r0,[sp,#4]
        0x0000cfcc:    f7fffdac    ....    BL       am_hal_interrupt_master_set ; 0xcb28
        0x0000cfd0:    2001        .       MOVS     r0,#1
        0x0000cfd2:    b003        ..      ADD      sp,sp,#0xc
        0x0000cfd4:    bdf0        ..      POP      {r4-r7,pc}
    am_hal_queue_init
        0x0000cfd6:    f04f0c00    O...    MOV      r12,#0
        0x0000cfda:    f8c0c000    ....    STR      r12,[r0,#0]
        0x0000cfde:    f8c0c004    ....    STR      r12,[r0,#4]
        0x0000cfe2:    f8c0c008    ....    STR      r12,[r0,#8]
        0x0000cfe6:    e9c03203    ...2    STRD     r3,r2,[r0,#0xc]
        0x0000cfea:    6141        Aa      STR      r1,[r0,#0x14]
        0x0000cfec:    4770        pG      BX       lr
        0x0000cfee:    0000        ..      MOVS     r0,r0
    am_hal_queue_item_add
        0x0000cff0:    b5f0        ..      PUSH     {r4-r7,lr}
        0x0000cff2:    b081        ..      SUB      sp,sp,#4
        0x0000cff4:    4604        .F      MOV      r4,r0
        0x0000cff6:    6900        .i      LDR      r0,[r0,#0x10]
        0x0000cff8:    460d        .F      MOV      r5,r1
        0x0000cffa:    fb00f702    ....    MUL      r7,r0,r2
        0x0000cffe:    f7fffd8f    ....    BL       am_hal_interrupt_master_disable ; 0xcb20
        0x0000d002:    9000        ..      STR      r0,[sp,#0]
        0x0000d004:    68e1        .h      LDR      r1,[r4,#0xc]
        0x0000d006:    68a0        .h      LDR      r0,[r4,#8]
        0x0000d008:    eba10c00    ....    SUB      r12,r1,r0
        0x0000d00c:    45bc        .E      CMP      r12,r7
        0x0000d00e:    d318        ..      BCC      0xd042 ; am_hal_queue_item_add + 82
        0x0000d010:    b1a7        ..      CBZ      r7,0xd03c ; am_hal_queue_item_add + 76
        0x0000d012:    462a        *F      MOV      r2,r5
        0x0000d014:    463b        ;F      MOV      r3,r7
        0x0000d016:    bf00        ..      NOP      
        0x0000d018:    b125        %.      CBZ      r5,0xd024 ; am_hal_queue_item_add + 52
        0x0000d01a:    7811        .x      LDRB     r1,[r2,#0]
        0x0000d01c:    6960        `i      LDR      r0,[r4,#0x14]
        0x0000d01e:    6826        &h      LDR      r6,[r4,#0]
        0x0000d020:    5581        .U      STRB     r1,[r0,r6]
        0x0000d022:    68e1        .h      LDR      r1,[r4,#0xc]
        0x0000d024:    6820         h      LDR      r0,[r4,#0]
        0x0000d026:    3b01        .;      SUBS     r3,#1
        0x0000d028:    f1000001    ....    ADD      r0,r0,#1
        0x0000d02c:    fbb0f6f1    ....    UDIV     r6,r0,r1
        0x0000d030:    f1020201    ....    ADD      r2,r2,#1
        0x0000d034:    fb060011    ....    MLS      r0,r6,r1,r0
        0x0000d038:    6020         `      STR      r0,[r4,#0]
        0x0000d03a:    d1ed        ..      BNE      0xd018 ; am_hal_queue_item_add + 40
        0x0000d03c:    68a1        .h      LDR      r1,[r4,#8]
        0x0000d03e:    4439        9D      ADD      r1,r1,r7
        0x0000d040:    60a1        .`      STR      r1,[r4,#8]
        0x0000d042:    9800        ..      LDR      r0,[sp,#0]
        0x0000d044:    2400        .$      MOVS     r4,#0
        0x0000d046:    45bc        .E      CMP      r12,r7
        0x0000d048:    bf28        (.      IT       CS
        0x0000d04a:    2401        .$      MOVCS    r4,#1
        0x0000d04c:    f7fffd6c    ..l.    BL       am_hal_interrupt_master_set ; 0xcb28
        0x0000d050:    4620         F      MOV      r0,r4
        0x0000d052:    b001        ..      ADD      sp,sp,#4
        0x0000d054:    bdf0        ..      POP      {r4-r7,pc}
        0x0000d056:    0000        ..      MOVS     r0,r0
    am_hal_queue_item_get
        0x0000d058:    b5f0        ..      PUSH     {r4-r7,lr}
        0x0000d05a:    b081        ..      SUB      sp,sp,#4
        0x0000d05c:    4604        .F      MOV      r4,r0
        0x0000d05e:    6900        .i      LDR      r0,[r0,#0x10]
        0x0000d060:    460d        .F      MOV      r5,r1
        0x0000d062:    fb00f702    ....    MUL      r7,r0,r2
        0x0000d066:    f7fffd5b    ..[.    BL       am_hal_interrupt_master_disable ; 0xcb20
        0x0000d06a:    9000        ..      STR      r0,[sp,#0]
        0x0000d06c:    f8d4c008    ....    LDR      r12,[r4,#8]
        0x0000d070:    45bc        .E      CMP      r12,r7
        0x0000d072:    d317        ..      BCC      0xd0a4 ; am_hal_queue_item_get + 76
        0x0000d074:    b19f        ..      CBZ      r7,0xd09e ; am_hal_queue_item_get + 70
        0x0000d076:    4629        )F      MOV      r1,r5
        0x0000d078:    463a        :F      MOV      r2,r7
        0x0000d07a:    bf00        ..      NOP      
        0x0000d07c:    b11d        ..      CBZ      r5,0xd086 ; am_hal_queue_item_get + 46
        0x0000d07e:    6863        ch      LDR      r3,[r4,#4]
        0x0000d080:    6960        `i      LDR      r0,[r4,#0x14]
        0x0000d082:    5cc0        .\      LDRB     r0,[r0,r3]
        0x0000d084:    7008        .p      STRB     r0,[r1,#0]
        0x0000d086:    6860        `h      LDR      r0,[r4,#4]
        0x0000d088:    68e3        .h      LDR      r3,[r4,#0xc]
        0x0000d08a:    3001        .0      ADDS     r0,#1
        0x0000d08c:    fbb0f6f3    ....    UDIV     r6,r0,r3
        0x0000d090:    3a01        .:      SUBS     r2,#1
        0x0000d092:    fb060013    ....    MLS      r0,r6,r3,r0
        0x0000d096:    f1010101    ....    ADD      r1,r1,#1
        0x0000d09a:    6060        ``      STR      r0,[r4,#4]
        0x0000d09c:    d1ee        ..      BNE      0xd07c ; am_hal_queue_item_get + 36
        0x0000d09e:    68a1        .h      LDR      r1,[r4,#8]
        0x0000d0a0:    1bc9        ..      SUBS     r1,r1,r7
        0x0000d0a2:    60a1        .`      STR      r1,[r4,#8]
        0x0000d0a4:    9800        ..      LDR      r0,[sp,#0]
        0x0000d0a6:    2400        .$      MOVS     r4,#0
        0x0000d0a8:    45bc        .E      CMP      r12,r7
        0x0000d0aa:    bf28        (.      IT       CS
        0x0000d0ac:    2401        .$      MOVCS    r4,#1
        0x0000d0ae:    f7fffd3b    ..;.    BL       am_hal_interrupt_master_set ; 0xcb28
        0x0000d0b2:    4620         F      MOV      r0,r4
        0x0000d0b4:    b001        ..      ADD      sp,sp,#4
        0x0000d0b6:    bdf0        ..      POP      {r4-r7,pc}
    am_hal_rtc_osc_disable
        0x0000d0b8:    f2442050    D.P     MOV      r0,#0x4250
        0x0000d0bc:    f2c40000    ....    MOVT     r0,#0x4000
        0x0000d0c0:    6801        .h      LDR      r1,[r0,#0]
        0x0000d0c2:    f0410110    A...    ORR      r1,r1,#0x10
        0x0000d0c6:    6001        .`      STR      r1,[r0,#0]
        0x0000d0c8:    4770        pG      BX       lr
        0x0000d0ca:    0000        ..      MOVS     r0,r0
    am_hal_uart_configure
        0x0000d0cc:    e92d4ff0    -..O    PUSH     {r4-r11,lr}
        0x0000d0d0:    b083        ..      SUB      sp,sp,#0xc
        0x0000d0d2:    4604        .F      MOV      r4,r0
        0x0000d0d4:    6800        .h      LDR      r0,[r0,#0]
        0x0000d0d6:    f6496b06    I..k    MOV      r11,#0x9e06
        0x0000d0da:    f2c01bea    ....    MOVT     r11,#0x1ea
        0x0000d0de:    f020407e     .~@    BIC      r0,r0,#0xfe000000
        0x0000d0e2:    4558        XE      CMP      r0,r11
        0x0000d0e4:    d10e        ..      BNE      0xd104 ; am_hal_uart_configure + 56
        0x0000d0e6:    6a60        `j      LDR      r0,[r4,#0x24]
        0x0000d0e8:    f24c0a00    L...    MOVW     r10,#0xc000
        0x0000d0ec:    f2c40a01    ....    MOVT     r10,#0x4001
        0x0000d0f0:    eb0a3600    ...6    ADD      r6,r10,r0,LSL #12
        0x0000d0f4:    2000        .       MOVS     r0,#0
        0x0000d0f6:    6330        0c      STR      r0,[r6,#0x30]
        0x0000d0f8:    f8947064    ..dp    LDRB     r7,[r4,#0x64]
        0x0000d0fc:    2f05        ./      CMP      r7,#5
        0x0000d0fe:    d905        ..      BLS      0xd10c ; am_hal_uart_configure + 64
        0x0000d100:    2006        .       MOVS     r0,#6
        0x0000d102:    e000        ..      B        0xd106 ; am_hal_uart_configure + 58
        0x0000d104:    2002        .       MOVS     r0,#2
        0x0000d106:    b003        ..      ADD      sp,sp,#0xc
        0x0000d108:    e8bd8ff0    ....    POP      {r4-r11,pc}
        0x0000d10c:    f2400802    @...    MOVW     r8,#2
        0x0000d110:    460d        .F      MOV      r5,r1
        0x0000d112:    f6c00800    ....    MOVT     r8,#0x800
        0x0000d116:    f7fffd03    ....    BL       am_hal_interrupt_master_disable ; 0xcb20
        0x0000d11a:    9002        ..      STR      r0,[sp,#8]
        0x0000d11c:    6b30        0k      LDR      r0,[r6,#0x30]
        0x0000d11e:    2170        p!      MOVS     r1,#0x70
        0x0000d120:    f0400008    @...    ORR      r0,r0,#8
        0x0000d124:    6330        0c      STR      r0,[r6,#0x30]
        0x0000d126:    6b30        0k      LDR      r0,[r6,#0x30]
        0x0000d128:    eb011107    ....    ADD      r1,r1,r7,LSL #4
        0x0000d12c:    f0010170    ..p.    AND      r1,r1,#0x70
        0x0000d130:    f0200070     .p.    BIC      r0,r0,#0x70
        0x0000d134:    2f00        ./      CMP      r7,#0
        0x0000d136:    bf08        ..      IT       EQ
        0x0000d138:    2110        .!      MOVEQ    r1,#0x10
        0x0000d13a:    4408        .D      ADD      r0,r0,r1
        0x0000d13c:    6330        0c      STR      r0,[r6,#0x30]
        0x0000d13e:    9802        ..      LDR      r0,[sp,#8]
        0x0000d140:    f7fffcf2    ....    BL       am_hal_interrupt_master_set ; 0xcb28
        0x0000d144:    f7fffcec    ....    BL       am_hal_interrupt_master_disable ; 0xcb20
        0x0000d148:    9001        ..      STR      r0,[sp,#4]
        0x0000d14a:    6b30        0k      LDR      r0,[r6,#0x30]
        0x0000d14c:    f0200001     ...    BIC      r0,r0,#1
        0x0000d150:    6330        0c      STR      r0,[r6,#0x30]
        0x0000d152:    6b30        0k      LDR      r0,[r6,#0x30]
        0x0000d154:    f4207000     ..p    BIC      r0,r0,#0x200
        0x0000d158:    6330        0c      STR      r0,[r6,#0x30]
        0x0000d15a:    6b30        0k      LDR      r0,[r6,#0x30]
        0x0000d15c:    f4207080     ..p    BIC      r0,r0,#0x100
        0x0000d160:    6330        0c      STR      r0,[r6,#0x30]
        0x0000d162:    9801        ..      LDR      r0,[sp,#4]
        0x0000d164:    f7fffce0    ....    BL       am_hal_interrupt_master_set ; 0xcb28
        0x0000d168:    6829        )h      LDR      r1,[r5,#0]
        0x0000d16a:    f1080001    ....    ADD      r0,r8,#1
        0x0000d16e:    f5b12f61    ..a/    CMP      r1,#0xe1000
        0x0000d172:    d8c8        ..      BHI      0xd106 ; am_hal_uart_configure + 58
        0x0000d174:    6b32        2k      LDR      r2,[r6,#0x30]
        0x0000d176:    f3c21202    ....    UBFX     r2,r2,#4,#3
        0x0000d17a:    3a01        .:      SUBS     r2,#1
        0x0000d17c:    2a04        .*      CMP      r2,#4
        0x0000d17e:    d208        ..      BCS      0xd192 ; am_hal_uart_configure + 198
        0x0000d180:    a34d        M.      ADR      r3,{pc}+0x138 ; 0xd2b8
        0x0000d182:    f8532022    S."     LDR      r2,[r3,r2,LSL #2]
        0x0000d186:    ebb21f01    ....    CMP      r2,r1,LSL #4
        0x0000d18a:    d206        ..      BCS      0xd19a ; am_hal_uart_configure + 206
        0x0000d18c:    2100        .!      MOVS     r1,#0
        0x0000d18e:    6621        !f      STR      r1,[r4,#0x60]
        0x0000d190:    e7b9        ..      B        0xd106 ; am_hal_uart_configure + 58
        0x0000d192:    2000        .       MOVS     r0,#0
        0x0000d194:    6620         f      STR      r0,[r4,#0x60]
        0x0000d196:    4640        @F      MOV      r0,r8
        0x0000d198:    e7b5        ..      B        0xd106 ; am_hal_uart_configure + 58
        0x0000d19a:    0108        ..      LSLS     r0,r1,#4
        0x0000d19c:    0193        ..      LSLS     r3,r2,#6
        0x0000d19e:    fbb2f1f0    ....    UDIV     r1,r2,r0
        0x0000d1a2:    fbb3f0f0    ....    UDIV     r0,r3,r0
        0x0000d1a6:    6271        qb      STR      r1,[r6,#0x24]
        0x0000d1a8:    eba01081    ....    SUB      r0,r0,r1,LSL #6
        0x0000d1ac:    0883        ..      LSRS     r3,r0,#2
        0x0000d1ae:    6271        qb      STR      r1,[r6,#0x24]
        0x0000d1b0:    eb031101    ....    ADD      r1,r3,r1,LSL #4
        0x0000d1b4:    fbb2f1f1    ....    UDIV     r1,r2,r1
        0x0000d1b8:    62b0        .b      STR      r0,[r6,#0x28]
        0x0000d1ba:    6621        !f      STR      r1,[r4,#0x60]
        0x0000d1bc:    6b30        0k      LDR      r0,[r6,#0x30]
        0x0000d1be:    1d2a        *.      ADDS     r2,r5,#4
        0x0000d1c0:    f4204080     ..@    BIC      r0,r0,#0x4000
        0x0000d1c4:    6330        0c      STR      r0,[r6,#0x30]
        0x0000d1c6:    6b30        0k      LDR      r0,[r6,#0x30]
        0x0000d1c8:    f4204000     ..@    BIC      r0,r0,#0x8000
        0x0000d1cc:    6330        0c      STR      r0,[r6,#0x30]
        0x0000d1ce:    6928        (i      LDR      r0,[r5,#0x10]
        0x0000d1d0:    6b31        1k      LDR      r1,[r6,#0x30]
        0x0000d1d2:    4308        .C      ORRS     r0,r0,r1
        0x0000d1d4:    6330        0c      STR      r0,[r6,#0x30]
        0x0000d1d6:    6968        hi      LDR      r0,[r5,#0x14]
        0x0000d1d8:    6370        pc      STR      r0,[r6,#0x34]
        0x0000d1da:    ca07        ..      LDM      r2,{r0-r2}
        0x0000d1dc:    4308        .C      ORRS     r0,r0,r1
        0x0000d1de:    4310        .C      ORRS     r0,r0,r2
        0x0000d1e0:    f0400010    @...    ORR      r0,r0,#0x10
        0x0000d1e4:    62f0        .b      STR      r0,[r6,#0x2c]
        0x0000d1e6:    f7fffc9b    ....    BL       am_hal_interrupt_master_disable ; 0xcb20
        0x0000d1ea:    9000        ..      STR      r0,[sp,#0]
        0x0000d1ec:    6b30        0k      LDR      r0,[r6,#0x30]
        0x0000d1ee:    f0400001    @...    ORR      r0,r0,#1
        0x0000d1f2:    6330        0c      STR      r0,[r6,#0x30]
        0x0000d1f4:    6b30        0k      LDR      r0,[r6,#0x30]
        0x0000d1f6:    f4407000    @..p    ORR      r0,r0,#0x200
        0x0000d1fa:    6330        0c      STR      r0,[r6,#0x30]
        0x0000d1fc:    6b30        0k      LDR      r0,[r6,#0x30]
        0x0000d1fe:    f4407080    @..p    ORR      r0,r0,#0x100
        0x0000d202:    6330        0c      STR      r0,[r6,#0x30]
        0x0000d204:    9800        ..      LDR      r0,[sp,#0]
        0x0000d206:    f7fffc8f    ....    BL       am_hal_interrupt_master_set ; 0xcb28
        0x0000d20a:    6820         h      LDR      r0,[r4,#0]
        0x0000d20c:    f020407e     .~@    BIC      r0,r0,#0xfe000000
        0x0000d210:    4558        XE      CMP      r0,r11
        0x0000d212:    d14f        O.      BNE      0xd2b4 ; am_hal_uart_configure + 488
        0x0000d214:    69a9        .i      LDR      r1,[r5,#0x18]
        0x0000d216:    e9d59808    ....    LDRD     r9,r8,[r5,#0x20]
        0x0000d21a:    b1a9        ..      CBZ      r1,0xd248 ; am_hal_uart_configure + 380
        0x0000d21c:    69eb        .i      LDR      r3,[r5,#0x1c]
        0x0000d21e:    b19b        ..      CBZ      r3,0xd248 ; am_hal_uart_configure + 380
        0x0000d220:    2001        .       MOVS     r0,#1
        0x0000d222:    f8840028    ..(.    STRB     r0,[r4,#0x28]
        0x0000d226:    f104002c    ..,.    ADD      r0,r4,#0x2c
        0x0000d22a:    2201        ."      MOVS     r2,#1
        0x0000d22c:    f7fffed3    ....    BL       am_hal_queue_init ; 0xcfd6
        0x0000d230:    6820         h      LDR      r0,[r4,#0]
        0x0000d232:    f020407e     .~@    BIC      r0,r0,#0xfe000000
        0x0000d236:    4558        XE      CMP      r0,r11
        0x0000d238:    d13c        <.      BNE      0xd2b4 ; am_hal_uart_configure + 488
        0x0000d23a:    6a60        `j      LDR      r0,[r4,#0x24]
        0x0000d23c:    eb0a3000    ...0    ADD      r0,r10,r0,LSL #12
        0x0000d240:    6b81        .k      LDR      r1,[r0,#0x38]
        0x0000d242:    f0410120    A. .    ORR      r1,r1,#0x20
        0x0000d246:    e008        ..      B        0xd25a ; am_hal_uart_configure + 398
        0x0000d248:    6a61        aj      LDR      r1,[r4,#0x24]
        0x0000d24a:    2000        .       MOVS     r0,#0
        0x0000d24c:    f8840028    ..(.    STRB     r0,[r4,#0x28]
        0x0000d250:    eb0a3001    ...0    ADD      r0,r10,r1,LSL #12
        0x0000d254:    6b81        .k      LDR      r1,[r0,#0x38]
        0x0000d256:    f0210120    !. .    BIC      r1,r1,#0x20
        0x0000d25a:    f1b90f00    ....    CMP      r9,#0
        0x0000d25e:    6381        .c      STR      r1,[r0,#0x38]
        0x0000d260:    bf18        ..      IT       NE
        0x0000d262:    f1b80f00    ....    CMPNE    r8,#0
        0x0000d266:    d10f        ..      BNE      0xd288 ; am_hal_uart_configure + 444
        0x0000d268:    6821        !h      LDR      r1,[r4,#0]
        0x0000d26a:    2000        .       MOVS     r0,#0
        0x0000d26c:    f021417e    !.~A    BIC      r1,r1,#0xfe000000
        0x0000d270:    4559        YE      CMP      r1,r11
        0x0000d272:    f8840044    ..D.    STRB     r0,[r4,#0x44]
        0x0000d276:    f47faf46    ..F.    BNE      0xd106 ; am_hal_uart_configure + 58
        0x0000d27a:    6a60        `j      LDR      r0,[r4,#0x24]
        0x0000d27c:    eb0a3000    ...0    ADD      r0,r10,r0,LSL #12
        0x0000d280:    6b81        .k      LDR      r1,[r0,#0x38]
        0x0000d282:    f0210150    !.P.    BIC      r1,r1,#0x50
        0x0000d286:    e014        ..      B        0xd2b2 ; am_hal_uart_configure + 486
        0x0000d288:    2001        .       MOVS     r0,#1
        0x0000d28a:    f8840044    ..D.    STRB     r0,[r4,#0x44]
        0x0000d28e:    f1040048    ..H.    ADD      r0,r4,#0x48
        0x0000d292:    4649        IF      MOV      r1,r9
        0x0000d294:    2201        ."      MOVS     r2,#1
        0x0000d296:    4643        CF      MOV      r3,r8
        0x0000d298:    f7fffe9d    ....    BL       am_hal_queue_init ; 0xcfd6
        0x0000d29c:    6820         h      LDR      r0,[r4,#0]
        0x0000d29e:    f020407e     .~@    BIC      r0,r0,#0xfe000000
        0x0000d2a2:    4558        XE      CMP      r0,r11
        0x0000d2a4:    d106        ..      BNE      0xd2b4 ; am_hal_uart_configure + 488
        0x0000d2a6:    6a60        `j      LDR      r0,[r4,#0x24]
        0x0000d2a8:    eb0a3000    ...0    ADD      r0,r10,r0,LSL #12
        0x0000d2ac:    6b81        .k      LDR      r1,[r0,#0x38]
        0x0000d2ae:    f0410150    A.P.    ORR      r1,r1,#0x50
        0x0000d2b2:    6381        .c      STR      r1,[r0,#0x38]
        0x0000d2b4:    2000        .       MOVS     r0,#0
        0x0000d2b6:    e726        &.      B        0xd106 ; am_hal_uart_configure + 58
    $d.5
        0x0000d2b8:    016e3600    .6n.    DCD    24000000
        0x0000d2bc:    00b71b00    ....    DCD    12000000
        0x0000d2c0:    005b8d80    ..[.    DCD    6000000
        0x0000d2c4:    002dc6c0    ..-.    DCD    3000000
    $t.1
    am_hal_uart_deinitialize
        0x0000d2c8:    b180        ..      CBZ      r0,0xd2ec ; am_hal_uart_deinitialize + 36
        0x0000d2ca:    4601        .F      MOV      r1,r0
        0x0000d2cc:    6800        .h      LDR      r0,[r0,#0]
        0x0000d2ce:    f6496306    I..c    MOV      r3,#0x9e06
        0x0000d2d2:    f020427e     .~B    BIC      r2,r0,#0xfe000000
        0x0000d2d6:    f2c013ea    ....    MOVT     r3,#0x1ea
        0x0000d2da:    429a        .B      CMP      r2,r3
        0x0000d2dc:    d106        ..      BNE      0xd2ec ; am_hal_uart_deinitialize + 36
        0x0000d2de:    f0207080     ..p    BIC      r0,r0,#0x1000000
        0x0000d2e2:    6008        .`      STR      r0,[r1,#0]
        0x0000d2e4:    2000        .       MOVS     r0,#0
        0x0000d2e6:    6248        Hb      STR      r0,[r1,#0x24]
        0x0000d2e8:    7108        .q      STRB     r0,[r1,#4]
        0x0000d2ea:    4770        pG      BX       lr
        0x0000d2ec:    2002        .       MOVS     r0,#2
        0x0000d2ee:    4770        pG      BX       lr
    am_hal_uart_initialize
        0x0000d2f0:    b580        ..      PUSH     {r7,lr}
        0x0000d2f2:    2801        .(      CMP      r0,#1
        0x0000d2f4:    bf84        ..      ITT      HI
        0x0000d2f6:    2005        .       MOVHI    r0,#5
        0x0000d2f8:    bd80        ..      POPHI    {r7,pc}
        0x0000d2fa:    b309        ..      CBZ      r1,0xd340 ; am_hal_uart_initialize + 80
        0x0000d2fc:    f2410c8c    A...    MOV      r12,#0x108c
        0x0000d300:    f04f0e68    O.h.    MOV      lr,#0x68
        0x0000d304:    f2c10c00    ....    MOVT     r12,#0x1000
        0x0000d308:    fb00f20e    ....    MUL      r2,r0,lr
        0x0000d30c:    f85c2002    \..     LDR      r2,[r12,r2]
        0x0000d310:    01d3        ..      LSLS     r3,r2,#7
        0x0000d312:    bf44        D.      ITT      MI
        0x0000d314:    2007        .       MOVMI    r0,#7
        0x0000d316:    bd80        ..      POPMI    {r7,pc}
        0x0000d318:    fb00cc0e    ....    MLA      r12,r0,lr,r12
        0x0000d31c:    f6496306    I..c    MOV      r3,#0x9e06
        0x0000d320:    f2c013ea    ....    MOVT     r3,#0x1ea
        0x0000d324:    f3630218    c...    BFI      r2,r3,#0,#25
        0x0000d328:    f8cc0024    ..$.    STR      r0,[r12,#0x24]
        0x0000d32c:    2000        .       MOVS     r0,#0
        0x0000d32e:    f8cc2000    ...     STR      r2,[r12,#0]
        0x0000d332:    f88c0004    ....    STRB     r0,[r12,#4]
        0x0000d336:    f8cc0060    ..`.    STR      r0,[r12,#0x60]
        0x0000d33a:    f8c1c000    ....    STR      r12,[r1,#0]
        0x0000d33e:    bd80        ..      POP      {r7,pc}
        0x0000d340:    2006        .       MOVS     r0,#6
        0x0000d342:    bd80        ..      POP      {r7,pc}
    am_hal_uart_power_control
        0x0000d344:    e92d41f0    -..A    PUSH     {r4-r8,lr}
        0x0000d348:    b082        ..      SUB      sp,sp,#8
        0x0000d34a:    4604        .F      MOV      r4,r0
        0x0000d34c:    6800        .h      LDR      r0,[r0,#0]
        0x0000d34e:    f6496706    I..g    MOV      r7,#0x9e06
        0x0000d352:    f2c017ea    ....    MOVT     r7,#0x1ea
        0x0000d356:    f020437e     .~C    BIC      r3,r0,#0xfe000000
        0x0000d35a:    42bb        .B      CMP      r3,r7
        0x0000d35c:    d135        5.      BNE      0xd3ca ; am_hal_uart_power_control + 134
        0x0000d35e:    6a65        ej      LDR      r5,[r4,#0x24]
        0x0000d360:    1e4b        K.      SUBS     r3,r1,#1
        0x0000d362:    2b02        .+      CMP      r3,#2
        0x0000d364:    f1050608    ....    ADD      r6,r5,#8
        0x0000d368:    d234        4.      BCS      0xd3d4 ; am_hal_uart_power_control + 144
        0x0000d36a:    f24c0800    L...    MOVW     r8,#0xc000
        0x0000d36e:    f2c40801    ....    MOVT     r8,#0x4001
        0x0000d372:    b1c2        ..      CBZ      r2,0xd3a6 ; am_hal_uart_power_control + 98
        0x0000d374:    f7fffbd4    ....    BL       am_hal_interrupt_master_disable ; 0xcb20
        0x0000d378:    9000        ..      STR      r0,[sp,#0]
        0x0000d37a:    eb083005    ...0    ADD      r0,r8,r5,LSL #12
        0x0000d37e:    6a01        .j      LDR      r1,[r0,#0x20]
        0x0000d380:    60a1        .`      STR      r1,[r4,#8]
        0x0000d382:    6a41        Aj      LDR      r1,[r0,#0x24]
        0x0000d384:    60e1        .`      STR      r1,[r4,#0xc]
        0x0000d386:    6a81        .j      LDR      r1,[r0,#0x28]
        0x0000d388:    6121        !a      STR      r1,[r4,#0x10]
        0x0000d38a:    6ac1        .j      LDR      r1,[r0,#0x2c]
        0x0000d38c:    6161        aa      STR      r1,[r4,#0x14]
        0x0000d38e:    6b01        .k      LDR      r1,[r0,#0x30]
        0x0000d390:    61a1        .a      STR      r1,[r4,#0x18]
        0x0000d392:    6b41        Ak      LDR      r1,[r0,#0x34]
        0x0000d394:    61e1        .a      STR      r1,[r4,#0x1c]
        0x0000d396:    6b80        .k      LDR      r0,[r0,#0x38]
        0x0000d398:    6220         b      STR      r0,[r4,#0x20]
        0x0000d39a:    2001        .       MOVS     r0,#1
        0x0000d39c:    7120         q      STRB     r0,[r4,#4]
        0x0000d39e:    9800        ..      LDR      r0,[sp,#0]
        0x0000d3a0:    f7fffbc2    ....    BL       am_hal_interrupt_master_set ; 0xcb28
        0x0000d3a4:    6820         h      LDR      r0,[r4,#0]
        0x0000d3a6:    f020407e     .~@    BIC      r0,r0,#0xfe000000
        0x0000d3aa:    42b8        .B      CMP      r0,r7
        0x0000d3ac:    d105        ..      BNE      0xd3ba ; am_hal_uart_power_control + 118
        0x0000d3ae:    6a60        `j      LDR      r0,[r4,#0x24]
        0x0000d3b0:    f04f31ff    O..1    MOV      r1,#0xffffffff
        0x0000d3b4:    eb083000    ...0    ADD      r0,r8,r0,LSL #12
        0x0000d3b8:    6441        Ad      STR      r1,[r0,#0x44]
        0x0000d3ba:    eb083005    ...0    ADD      r0,r8,r5,LSL #12
        0x0000d3be:    2500        .%      MOVS     r5,#0
        0x0000d3c0:    6305        .c      STR      r5,[r0,#0x30]
        0x0000d3c2:    b2f0        ..      UXTB     r0,r6
        0x0000d3c4:    f7fffd80    ....    BL       am_hal_pwrctrl_periph_disable ; 0xcec8
        0x0000d3c8:    e000        ..      B        0xd3cc ; am_hal_uart_power_control + 136
        0x0000d3ca:    2502        .%      MOVS     r5,#2
        0x0000d3cc:    4628        (F      MOV      r0,r5
        0x0000d3ce:    b002        ..      ADD      sp,sp,#8
        0x0000d3d0:    e8bd81f0    ....    POP      {r4-r8,pc}
        0x0000d3d4:    bb11        ..      CBNZ     r1,0xd41c ; am_hal_uart_power_control + 216
        0x0000d3d6:    b31a        ..      CBZ      r2,0xd420 ; am_hal_uart_power_control + 220
        0x0000d3d8:    7920         y      LDRB     r0,[r4,#4]
        0x0000d3da:    b330        0.      CBZ      r0,0xd42a ; am_hal_uart_power_control + 230
        0x0000d3dc:    b2f0        ..      UXTB     r0,r6
        0x0000d3de:    f7fffdc3    ....    BL       am_hal_pwrctrl_periph_enable ; 0xcf68
        0x0000d3e2:    f7fffb9d    ....    BL       am_hal_interrupt_master_disable ; 0xcb20
        0x0000d3e6:    9001        ..      STR      r0,[sp,#4]
        0x0000d3e8:    f24c0100    L...    MOVW     r1,#0xc000
        0x0000d3ec:    68a0        .h      LDR      r0,[r4,#8]
        0x0000d3ee:    f2c40101    ....    MOVT     r1,#0x4001
        0x0000d3f2:    eb013105    ...1    ADD      r1,r1,r5,LSL #12
        0x0000d3f6:    6208        .b      STR      r0,[r1,#0x20]
        0x0000d3f8:    68e0        .h      LDR      r0,[r4,#0xc]
        0x0000d3fa:    2500        .%      MOVS     r5,#0
        0x0000d3fc:    6248        Hb      STR      r0,[r1,#0x24]
        0x0000d3fe:    6920         i      LDR      r0,[r4,#0x10]
        0x0000d400:    6288        .b      STR      r0,[r1,#0x28]
        0x0000d402:    6960        `i      LDR      r0,[r4,#0x14]
        0x0000d404:    62c8        .b      STR      r0,[r1,#0x2c]
        0x0000d406:    69a0        .i      LDR      r0,[r4,#0x18]
        0x0000d408:    6308        .c      STR      r0,[r1,#0x30]
        0x0000d40a:    69e0        .i      LDR      r0,[r4,#0x1c]
        0x0000d40c:    6348        Hc      STR      r0,[r1,#0x34]
        0x0000d40e:    6a20         j      LDR      r0,[r4,#0x20]
        0x0000d410:    6388        .c      STR      r0,[r1,#0x38]
        0x0000d412:    7125        %q      STRB     r5,[r4,#4]
        0x0000d414:    9801        ..      LDR      r0,[sp,#4]
        0x0000d416:    f7fffb87    ....    BL       am_hal_interrupt_master_set ; 0xcb28
        0x0000d41a:    e7d7        ..      B        0xd3cc ; am_hal_uart_power_control + 136
        0x0000d41c:    2506        .%      MOVS     r5,#6
        0x0000d41e:    e7d5        ..      B        0xd3cc ; am_hal_uart_power_control + 136
        0x0000d420:    b2f0        ..      UXTB     r0,r6
        0x0000d422:    f7fffda1    ....    BL       am_hal_pwrctrl_periph_enable ; 0xcf68
        0x0000d426:    2500        .%      MOVS     r5,#0
        0x0000d428:    e7d0        ..      B        0xd3cc ; am_hal_uart_power_control + 136
        0x0000d42a:    2507        .%      MOVS     r5,#7
        0x0000d42c:    e7ce        ..      B        0xd3cc ; am_hal_uart_power_control + 136
        0x0000d42e:    0000        ..      MOVS     r0,r0
    am_hal_uart_transfer
        0x0000d430:    e92d4ff0    -..O    PUSH     {r4-r11,lr}
        0x0000d434:    b083        ..      SUB      sp,sp,#0xc
        0x0000d436:    680a        .h      LDR      r2,[r1,#0]
        0x0000d438:    4604        .F      MOV      r4,r0
        0x0000d43a:    2a01        .*      CMP      r2,#1
        0x0000d43c:    d02e        ..      BEQ      0xd49c ; am_hal_uart_transfer + 108
        0x0000d43e:    2a00        .*      CMP      r2,#0
        0x0000d440:    d158        X.      BNE      0xd4f4 ; am_hal_uart_transfer + 196
        0x0000d442:    f1010a04    ....    ADD      r10,r1,#4
        0x0000d446:    e89a04c0    ....    LDM      r10,{r6,r7,r10}
        0x0000d44a:    690b        .i      LDR      r3,[r1,#0x10]
        0x0000d44c:    f1ba0f00    ....    CMP      r10,#0
        0x0000d450:    d055        U.      BEQ      0xd4fe ; am_hal_uart_transfer + 206
        0x0000d452:    2f00        ./      CMP      r7,#0
        0x0000d454:    d050        P.      BEQ      0xd4f8 ; am_hal_uart_transfer + 200
        0x0000d456:    f1ba38ff    ...8    SUBS     r8,r10,#0xffffffff
        0x0000d45a:    f10d0904    ....    ADD      r9,sp,#4
        0x0000d45e:    f04f0500    O...    MOV      r5,#0
        0x0000d462:    f04f0b00    O...    MOV      r11,#0
        0x0000d466:    9300        ..      STR      r3,[sp,#0]
        0x0000d468:    bf18        ..      IT       NE
        0x0000d46a:    f04f0801    O...    MOVNE    r8,#1
        0x0000d46e:    bf00        ..      NOP      
        0x0000d470:    2000        .       MOVS     r0,#0
        0x0000d472:    9001        ..      STR      r0,[sp,#4]
        0x0000d474:    1971        q.      ADDS     r1,r6,r5
        0x0000d476:    4620         F      MOV      r0,r4
        0x0000d478:    463a        :F      MOV      r2,r7
        0x0000d47a:    464b        KF      MOV      r3,r9
        0x0000d47c:    f000ff76    ..v.    BL       write_nonblocking ; 0xe36c
        0x0000d480:    9901        ..      LDR      r1,[sp,#4]
        0x0000d482:    2800        .(      CMP      r0,#0
        0x0000d484:    440d        .D      ADD      r5,r5,r1
        0x0000d486:    d146        F.      BNE      0xd516 ; am_hal_uart_transfer + 230
        0x0000d488:    1a7f        ..      SUBS     r7,r7,r1
        0x0000d48a:    d048        H.      BEQ      0xd51e ; am_hal_uart_transfer + 238
        0x0000d48c:    f44f507a    O.zP    MOV      r0,#0x3e80
        0x0000d490:    f7fff98c    ....    BL       am_hal_flash_delay ; 0xc7ac
        0x0000d494:    44c3        .D      ADD      r11,r11,r8
        0x0000d496:    45d3        .E      CMP      r11,r10
        0x0000d498:    d3ea        ..      BCC      0xd470 ; am_hal_uart_transfer + 64
        0x0000d49a:    e029        ).      B        0xd4f0 ; am_hal_uart_transfer + 192
        0x0000d49c:    f1010a04    ....    ADD      r10,r1,#4
        0x0000d4a0:    e89a04c0    ....    LDM      r10,{r6,r7,r10}
        0x0000d4a4:    690b        .i      LDR      r3,[r1,#0x10]
        0x0000d4a6:    f1ba0f00    ....    CMP      r10,#0
        0x0000d4aa:    d02e        ..      BEQ      0xd50a ; am_hal_uart_transfer + 218
        0x0000d4ac:    b327        '.      CBZ      r7,0xd4f8 ; am_hal_uart_transfer + 200
        0x0000d4ae:    f1ba38ff    ...8    SUBS     r8,r10,#0xffffffff
        0x0000d4b2:    f10d0908    ....    ADD      r9,sp,#8
        0x0000d4b6:    f04f0500    O...    MOV      r5,#0
        0x0000d4ba:    f04f0b00    O...    MOV      r11,#0
        0x0000d4be:    9300        ..      STR      r3,[sp,#0]
        0x0000d4c0:    bf18        ..      IT       NE
        0x0000d4c2:    f04f0801    O...    MOVNE    r8,#1
        0x0000d4c6:    bf00        ..      NOP      
        0x0000d4c8:    2000        .       MOVS     r0,#0
        0x0000d4ca:    9002        ..      STR      r0,[sp,#8]
        0x0000d4cc:    1971        q.      ADDS     r1,r6,r5
        0x0000d4ce:    4620         F      MOV      r0,r4
        0x0000d4d0:    463a        :F      MOV      r2,r7
        0x0000d4d2:    464b        KF      MOV      r3,r9
        0x0000d4d4:    f000fdca    ....    BL       read_nonblocking ; 0xe06c
        0x0000d4d8:    9902        ..      LDR      r1,[sp,#8]
        0x0000d4da:    440d        .D      ADD      r5,r5,r1
        0x0000d4dc:    b9d8        ..      CBNZ     r0,0xd516 ; am_hal_uart_transfer + 230
        0x0000d4de:    1a7f        ..      SUBS     r7,r7,r1
        0x0000d4e0:    d01d        ..      BEQ      0xd51e ; am_hal_uart_transfer + 238
        0x0000d4e2:    f44f507a    O.zP    MOV      r0,#0x3e80
        0x0000d4e6:    f7fff961    ..a.    BL       am_hal_flash_delay ; 0xc7ac
        0x0000d4ea:    44c3        .D      ADD      r11,r11,r8
        0x0000d4ec:    45d3        .E      CMP      r11,r10
        0x0000d4ee:    d3eb        ..      BCC      0xd4c8 ; am_hal_uart_transfer + 152
        0x0000d4f0:    2000        .       MOVS     r0,#0
        0x0000d4f2:    e018        ..      B        0xd526 ; am_hal_uart_transfer + 246
        0x0000d4f4:    2007        .       MOVS     r0,#7
        0x0000d4f6:    e021        !.      B        0xd53c ; am_hal_uart_transfer + 268
        0x0000d4f8:    2001        .       MOVS     r0,#1
        0x0000d4fa:    2500        .%      MOVS     r5,#0
        0x0000d4fc:    e014        ..      B        0xd528 ; am_hal_uart_transfer + 248
        0x0000d4fe:    4620         F      MOV      r0,r4
        0x0000d500:    4631        1F      MOV      r1,r6
        0x0000d502:    463a        :F      MOV      r2,r7
        0x0000d504:    f000ff32    ..2.    BL       write_nonblocking ; 0xe36c
        0x0000d508:    e018        ..      B        0xd53c ; am_hal_uart_transfer + 268
        0x0000d50a:    4620         F      MOV      r0,r4
        0x0000d50c:    4631        1F      MOV      r1,r6
        0x0000d50e:    463a        :F      MOV      r2,r7
        0x0000d510:    f000fdac    ....    BL       read_nonblocking ; 0xe06c
        0x0000d514:    e012        ..      B        0xd53c ; am_hal_uart_transfer + 268
        0x0000d516:    9900        ..      LDR      r1,[sp,#0]
        0x0000d518:    b181        ..      CBZ      r1,0xd53c ; am_hal_uart_transfer + 268
        0x0000d51a:    600d        .`      STR      r5,[r1,#0]
        0x0000d51c:    e00e        ..      B        0xd53c ; am_hal_uart_transfer + 268
        0x0000d51e:    2000        .       MOVS     r0,#0
        0x0000d520:    45d3        .E      CMP      r11,r10
        0x0000d522:    bf38        8.      IT       CC
        0x0000d524:    2001        .       MOVCC    r0,#1
        0x0000d526:    9b00        ..      LDR      r3,[sp,#0]
        0x0000d528:    b103        ..      CBZ      r3,0xd52c ; am_hal_uart_transfer + 252
        0x0000d52a:    601d        .`      STR      r5,[r3,#0]
        0x0000d52c:    2104        .!      MOVS     r1,#4
        0x0000d52e:    2800        .(      CMP      r0,#0
        0x0000d530:    bf18        ..      IT       NE
        0x0000d532:    2100        .!      MOVNE    r1,#0
        0x0000d534:    f1ba30ff    ...0    SUBS     r0,r10,#0xffffffff
        0x0000d538:    bf18        ..      IT       NE
        0x0000d53a:    4608        .F      MOVNE    r0,r1
        0x0000d53c:    b003        ..      ADD      sp,sp,#0xc
        0x0000d53e:    e8bd8ff0    ....    POP      {r4-r11,pc}
        0x0000d542:    0000        ..      MOVS     r0,r0
    am_hal_uart_tx_flush
        0x0000d544:    b570        p.      PUSH     {r4-r6,lr}
        0x0000d546:    4604        .F      MOV      r4,r0
        0x0000d548:    f8900028    ..(.    LDRB     r0,[r0,#0x28]
        0x0000d54c:    6a65        ej      LDR      r5,[r4,#0x24]
        0x0000d54e:    b170        p.      CBZ      r0,0xd56e ; am_hal_uart_tx_flush + 42
        0x0000d550:    6b60        `k      LDR      r0,[r4,#0x34]
        0x0000d552:    b160        `.      CBZ      r0,0xd56e ; am_hal_uart_tx_flush + 42
        0x0000d554:    f6413600    A..6    MOVW     r6,#0x1b00
        0x0000d558:    f2c006b7    ....    MOVT     r6,#0xb7
        0x0000d55c:    6e20         n      LDR      r0,[r4,#0x60]
        0x0000d55e:    fbb6f0f0    ....    UDIV     r0,r6,r0
        0x0000d562:    0100        ..      LSLS     r0,r0,#4
        0x0000d564:    f7fff922    ..".    BL       am_hal_flash_delay ; 0xc7ac
        0x0000d568:    6b60        `k      LDR      r0,[r4,#0x34]
        0x0000d56a:    2800        .(      CMP      r0,#0
        0x0000d56c:    d1f6        ..      BNE      0xd55c ; am_hal_uart_tx_flush + 24
        0x0000d56e:    f24c0118    L...    MOV      r1,#0xc018
        0x0000d572:    0328        (.      LSLS     r0,r5,#12
        0x0000d574:    f2c40101    ....    MOVT     r1,#0x4001
        0x0000d578:    5808        .X      LDR      r0,[r1,r0]
        0x0000d57a:    0700        ..      LSLS     r0,r0,#28
        0x0000d57c:    d513        ..      BPL      0xd5a6 ; am_hal_uart_tx_flush + 98
        0x0000d57e:    f24c0000    L...    MOVW     r0,#0xc000
        0x0000d582:    f2c40001    ....    MOVT     r0,#0x4001
        0x0000d586:    f6413600    A..6    MOVW     r6,#0x1b00
        0x0000d58a:    eb003505    ...5    ADD      r5,r0,r5,LSL #12
        0x0000d58e:    f2c006b7    ....    MOVT     r6,#0xb7
        0x0000d592:    bf00        ..      NOP      
        0x0000d594:    6e20         n      LDR      r0,[r4,#0x60]
        0x0000d596:    fbb6f0f0    ....    UDIV     r0,r6,r0
        0x0000d59a:    0100        ..      LSLS     r0,r0,#4
        0x0000d59c:    f7fff906    ....    BL       am_hal_flash_delay ; 0xc7ac
        0x0000d5a0:    69a8        .i      LDR      r0,[r5,#0x18]
        0x0000d5a2:    0700        ..      LSLS     r0,r0,#28
        0x0000d5a4:    d4f6        ..      BMI      0xd594 ; am_hal_uart_tx_flush + 80
        0x0000d5a6:    2000        .       MOVS     r0,#0
        0x0000d5a8:    bd70        p.      POP      {r4-r6,pc}
        0x0000d5aa:    0000        ..      MOVS     r0,r0
    am_util_faultisr_collect_data
        0x0000d5ac:    b092        ..      SUB      sp,sp,#0x48
        0x0000d5ae:    4604        .F      MOV      r4,r0
        0x0000d5b0:    4668        hF      MOV      r0,sp
        0x0000d5b2:    2118        .!      MOVS     r1,#0x18
        0x0000d5b4:    f7fefe1a    ....    BL       __aeabi_memclr4 ; 0xc1ec
        0x0000d5b8:    2000        .       MOVS     r0,#0
        0x0000d5ba:    9007        ..      STR      r0,[sp,#0x1c]
        0x0000d5bc:    f64e5028    N.(P    MOV      r0,#0xed28
        0x0000d5c0:    f2ce0000    ....    MOVT     r0,#0xe000
        0x0000d5c4:    6801        .h      LDR      r1,[r0,#0]
        0x0000d5c6:    9107        ..      STR      r1,[sp,#0x1c]
        0x0000d5c8:    9907        ..      LDR      r1,[sp,#0x1c]
        0x0000d5ca:    f88d101b    ....    STRB     r1,[sp,#0x1b]
        0x0000d5ce:    9907        ..      LDR      r1,[sp,#0x1c]
        0x0000d5d0:    0a09        ..      LSRS     r1,r1,#8
        0x0000d5d2:    f88d101a    ....    STRB     r1,[sp,#0x1a]
        0x0000d5d6:    9907        ..      LDR      r1,[sp,#0x1c]
        0x0000d5d8:    0c09        ..      LSRS     r1,r1,#16
        0x0000d5da:    f8ad1018    ....    STRH     r1,[sp,#0x18]
        0x0000d5de:    6900        .i      LDR      r0,[r0,#0x10]
        0x0000d5e0:    9008        ..      STR      r0,[sp,#0x20]
        0x0000d5e2:    f89d001a    ....    LDRB     r0,[sp,#0x1a]
        0x0000d5e6:    0780        ..      LSLS     r0,r0,#30
        0x0000d5e8:    d402        ..      BMI      0xd5f0 ; am_util_faultisr_collect_data + 68
        0x0000d5ea:    f04f30ff    O..0    MOV      r0,#0xffffffff
        0x0000d5ee:    e003        ..      B        0xd5f8 ; am_util_faultisr_collect_data + 76
        0x0000d5f0:    2006        .       MOVS     r0,#6
        0x0000d5f2:    4621        !F      MOV      r1,r4
        0x0000d5f4:    f000fc7b    ..{.    BL       getStackedReg ; 0xdeee
        0x0000d5f8:    9009        ..      STR      r0,[sp,#0x24]
        0x0000d5fa:    2000        .       MOVS     r0,#0
        0x0000d5fc:    4621        !F      MOV      r1,r4
        0x0000d5fe:    f000fc76    ..v.    BL       getStackedReg ; 0xdeee
        0x0000d602:    9011        ..      STR      r0,[sp,#0x44]
        0x0000d604:    2001        .       MOVS     r0,#1
        0x0000d606:    4621        !F      MOV      r1,r4
        0x0000d608:    f000fc71    ..q.    BL       getStackedReg ; 0xdeee
        0x0000d60c:    9010        ..      STR      r0,[sp,#0x40]
        0x0000d60e:    2002        .       MOVS     r0,#2
        0x0000d610:    4621        !F      MOV      r1,r4
        0x0000d612:    f000fc6c    ..l.    BL       getStackedReg ; 0xdeee
        0x0000d616:    900f        ..      STR      r0,[sp,#0x3c]
        0x0000d618:    2003        .       MOVS     r0,#3
        0x0000d61a:    4621        !F      MOV      r1,r4
        0x0000d61c:    f000fc67    ..g.    BL       getStackedReg ; 0xdeee
        0x0000d620:    900e        ..      STR      r0,[sp,#0x38]
        0x0000d622:    2004        .       MOVS     r0,#4
        0x0000d624:    4621        !F      MOV      r1,r4
        0x0000d626:    f000fc62    ..b.    BL       getStackedReg ; 0xdeee
        0x0000d62a:    900d        ..      STR      r0,[sp,#0x34]
        0x0000d62c:    2005        .       MOVS     r0,#5
        0x0000d62e:    4621        !F      MOV      r1,r4
        0x0000d630:    f000fc5d    ..].    BL       getStackedReg ; 0xdeee
        0x0000d634:    900c        ..      STR      r0,[sp,#0x30]
        0x0000d636:    2006        .       MOVS     r0,#6
        0x0000d638:    4621        !F      MOV      r1,r4
        0x0000d63a:    f000fc58    ..X.    BL       getStackedReg ; 0xdeee
        0x0000d63e:    900b        ..      STR      r0,[sp,#0x2c]
        0x0000d640:    2007        .       MOVS     r0,#7
        0x0000d642:    4621        !F      MOV      r1,r4
        0x0000d644:    f000fc53    ..S.    BL       getStackedReg ; 0xdeee
        0x0000d648:    900a        ..      STR      r0,[sp,#0x28]
        0x0000d64a:    4669        iF      MOV      r1,sp
        0x0000d64c:    2002        .       MOVS     r0,#2
        0x0000d64e:    f7fffa6e    ..n.    BL       am_hal_mcuctrl_info_get ; 0xcb2e
        0x0000d652:    bf00        ..      NOP      
        0x0000d654:    e7fe        ..      B        0xd654 ; am_util_faultisr_collect_data + 168
    am_util_stdio_printf
        0x0000d656:    b083        ..      SUB      sp,sp,#0xc
        0x0000d658:    b5b0        ..      PUSH     {r4,r5,r7,lr}
        0x0000d65a:    b081        ..      SUB      sp,sp,#4
        0x0000d65c:    f10d0c14    ....    ADD      r12,sp,#0x14
        0x0000d660:    f2411460    A.`.    MOVW     r4,#0x1160
        0x0000d664:    e88c000e    ....    STM      r12,{r1-r3}
        0x0000d668:    f2c10400    ....    MOVT     r4,#0x1000
        0x0000d66c:    6821        !h      LDR      r1,[r4,#0]
        0x0000d66e:    b171        q.      CBZ      r1,0xd68e ; am_util_stdio_printf + 56
        0x0000d670:    f2411564    A.d.    MOV      r5,#0x1164
        0x0000d674:    f2c10500    ....    MOVT     r5,#0x1000
        0x0000d678:    4601        .F      MOV      r1,r0
        0x0000d67a:    aa05        ..      ADD      r2,sp,#0x14
        0x0000d67c:    4628        (F      MOV      r0,r5
        0x0000d67e:    9200        ..      STR      r2,[sp,#0]
        0x0000d680:    f000f820    .. .    BL       am_util_stdio_vsprintf ; 0xd6c4
        0x0000d684:    6821        !h      LDR      r1,[r4,#0]
        0x0000d686:    4604        .F      MOV      r4,r0
        0x0000d688:    4628        (F      MOV      r0,r5
        0x0000d68a:    4788        .G      BLX      r1
        0x0000d68c:    e000        ..      B        0xd690 ; am_util_stdio_printf + 58
        0x0000d68e:    2400        .$      MOVS     r4,#0
        0x0000d690:    4620         F      MOV      r0,r4
        0x0000d692:    b001        ..      ADD      sp,sp,#4
        0x0000d694:    e8bd40b0    ...@    POP      {r4,r5,r7,lr}
        0x0000d698:    b003        ..      ADD      sp,sp,#0xc
        0x0000d69a:    4770        pG      BX       lr
    am_util_stdio_printf_init
        0x0000d69c:    f2411160    A.`.    MOVW     r1,#0x1160
        0x0000d6a0:    f2c10100    ....    MOVT     r1,#0x1000
        0x0000d6a4:    6008        .`      STR      r0,[r1,#0]
        0x0000d6a6:    4770        pG      BX       lr
    am_util_stdio_terminal_clear
        0x0000d6a8:    a001        ..      ADR      r0,{pc}+8 ; 0xd6b0
        0x0000d6aa:    f7ffbfd4    ....    B.W      am_util_stdio_printf ; 0xd656
        0x0000d6ae:    bf00        ..      NOP      
    $d.14
        0x0000d6b0:    0a0a0a0a    ....    DCD    168430090
        0x0000d6b4:    0a0a0a0a    ....    DCD    168430090
        0x0000d6b8:    0a0a0a0a    ....    DCD    168430090
        0x0000d6bc:    0a0a0a0a    ....    DCD    168430090
        0x0000d6c0:    00000a0a    ....    DCD    2570
    $t.3
    am_util_stdio_vsprintf
        0x0000d6c4:    e92d4ff0    -..O    PUSH     {r4-r11,lr}
        0x0000d6c8:    b08b        ..      SUB      sp,sp,#0x2c
        0x0000d6ca:    4683        .F      MOV      r11,r0
        0x0000d6cc:    a806        ..      ADD      r0,sp,#0x18
        0x0000d6ce:    f241185d    A.].    MOV      r8,#0x115d
        0x0000d6d2:    4617        .F      MOV      r7,r2
        0x0000d6d4:    1e46        F.      SUBS     r6,r0,#1
        0x0000d6d6:    f10d0914    ....    ADD      r9,sp,#0x14
        0x0000d6da:    f2c10800    ....    MOVT     r8,#0x1000
        0x0000d6de:    240d        .$      MOVS     r4,#0xd
        0x0000d6e0:    2500        .%      MOVS     r5,#0
        0x0000d6e2:    1c48        H.      ADDS     r0,r1,#1
        0x0000d6e4:    f8101c01    ....    LDRB     r1,[r0,#-1]
        0x0000d6e8:    2900        .)      CMP      r1,#0
        0x0000d6ea:    f000836b    ..k.    BEQ.W    0xddc4 ; am_util_stdio_vsprintf + 1792
        0x0000d6ee:    2925        %)      CMP      r1,#0x25
        0x0000d6f0:    d016        ..      BEQ      0xd720 ; am_util_stdio_vsprintf + 92
        0x0000d6f2:    f1bb0f00    ....    CMP      r11,#0
        0x0000d6f6:    d00d        ..      BEQ      0xd714 ; am_util_stdio_vsprintf + 80
        0x0000d6f8:    290a        .)      CMP      r1,#0xa
        0x0000d6fa:    d107        ..      BNE      0xd70c ; am_util_stdio_vsprintf + 72
        0x0000d6fc:    f8982000    ...     LDRB     r2,[r8,#0]
        0x0000d700:    b122        ".      CBZ      r2,0xd70c ; am_util_stdio_vsprintf + 72
        0x0000d702:    f80b4b01    ...K    STRB     r4,[r11],#1
        0x0000d706:    f8101c01    ....    LDRB     r1,[r0,#-1]
        0x0000d70a:    3501        .5      ADDS     r5,#1
        0x0000d70c:    f80b1b01    ....    STRB     r1,[r11],#1
        0x0000d710:    e002        ..      B        0xd718 ; am_util_stdio_vsprintf + 84
        0x0000d712:    bf00        ..      NOP      
        0x0000d714:    f04f0b00    O...    MOV      r11,#0
        0x0000d718:    3501        .5      ADDS     r5,#1
        0x0000d71a:    3001        .0      ADDS     r0,#1
        0x0000d71c:    e7e2        ..      B        0xd6e4 ; am_util_stdio_vsprintf + 32
        0x0000d71e:    bf00        ..      NOP      
        0x0000d720:    4604        .F      MOV      r4,r0
        0x0000d722:    f814ab01    ....    LDRB     r10,[r4],#1
        0x0000d726:    9604        ..      STR      r6,[sp,#0x10]
        0x0000d728:    46d0        .F      MOV      r8,r10
        0x0000d72a:    f1ba0f30    ..0.    CMP      r10,#0x30
        0x0000d72e:    bf1c        ..      ITT      NE
        0x0000d730:    4604        .F      MOVNE    r4,r0
        0x0000d732:    f04f0820    O. .    MOVNE    r8,#0x20
        0x0000d736:    4620         F      MOV      r0,r4
        0x0000d738:    4649        IF      MOV      r1,r9
        0x0000d73a:    f000fb4d    ..M.    BL       decstr_to_int ; 0xddd8
        0x0000d73e:    9a05        ..      LDR      r2,[sp,#0x14]
        0x0000d740:    4649        IF      MOV      r1,r9
        0x0000d742:    5ca6        .\      LDRB     r6,[r4,r2]
        0x0000d744:    4681        .F      MOV      r9,r0
        0x0000d746:    2e73        s.      CMP      r6,#0x73
        0x0000d748:    bf18        ..      IT       NE
        0x0000d74a:    f1c90900    ....    RSBNE    r9,r9,#0
        0x0000d74e:    2800        .(      CMP      r0,#0
        0x0000d750:    bf58        X.      IT       PL
        0x0000d752:    4681        .F      MOVPL    r9,r0
        0x0000d754:    2e2e        ..      CMP      r6,#0x2e
        0x0000d756:    eb040c02    ....    ADD      r12,r4,r2
        0x0000d75a:    d10b        ..      BNE      0xd774 ; am_util_stdio_vsprintf + 176
        0x0000d75c:    463c        <F      MOV      r4,r7
        0x0000d75e:    f10c0701    ....    ADD      r7,r12,#1
        0x0000d762:    4638        8F      MOV      r0,r7
        0x0000d764:    f000fb38    ..8.    BL       decstr_to_int ; 0xddd8
        0x0000d768:    9a05        ..      LDR      r2,[sp,#0x14]
        0x0000d76a:    5cbe        .\      LDRB     r6,[r7,r2]
        0x0000d76c:    eb070c02    ....    ADD      r12,r7,r2
        0x0000d770:    4627        'F      MOV      r7,r4
        0x0000d772:    e000        ..      B        0xd776 ; am_util_stdio_vsprintf + 178
        0x0000d774:    2006        .       MOVS     r0,#6
        0x0000d776:    2e6c        l.      CMP      r6,#0x6c
        0x0000d778:    d112        ..      BNE      0xd7a0 ; am_util_stdio_vsprintf + 220
        0x0000d77a:    4663        cF      MOV      r3,r12
        0x0000d77c:    f8131f01    ....    LDRB     r1,[r3,#1]!
        0x0000d780:    396c        l9      SUBS     r1,r1,#0x6c
        0x0000d782:    fab1f181    ....    CLZ      r1,r1
        0x0000d786:    ea4f1251    O.Q.    LSR      r2,r1,#5
        0x0000d78a:    f04f0101    O...    MOV      r1,#1
        0x0000d78e:    bf04        ..      ITT      EQ
        0x0000d790:    2102        .!      MOVEQ    r1,#2
        0x0000d792:    f10c0302    ....    ADDEQ    r3,r12,#2
        0x0000d796:    f81c6001    ...`    LDRB     r6,[r12,r1]
        0x0000d79a:    469c        .F      MOV      r12,r3
        0x0000d79c:    e001        ..      B        0xd7a2 ; am_util_stdio_vsprintf + 222
        0x0000d79e:    bf00        ..      NOP      
        0x0000d7a0:    2200        ."      MOVS     r2,#0
        0x0000d7a2:    2e72        r.      CMP      r6,#0x72
        0x0000d7a4:    dc13        ..      BGT      0xd7ce ; am_util_stdio_vsprintf + 266
        0x0000d7a6:    f1a60163    ..c.    SUB      r1,r6,#0x63
        0x0000d7aa:    2906        .)      CMP      r1,#6
        0x0000d7ac:    d81c        ..      BHI      0xd7e8 ; am_util_stdio_vsprintf + 292
        0x0000d7ae:    e8dff001    ....    TBB      [pc,r1]
    $d.4
        0x0000d7b2:    0480        ..      DCW    1152
        0x0000d7b4:    70702f70    p/pp    DCD    1886400368
        0x0000d7b8:    0004        ..      DCW    4
    $t.5
        0x0000d7ba:    2a00        .*      CMP      r2,#0
        0x0000d7bc:    f000808c    ....    BEQ.W    0xd8d8 ; am_util_stdio_vsprintf + 532
        0x0000d7c0:    1df8        ..      ADDS     r0,r7,#7
        0x0000d7c2:    f0200707     ...    BIC      r7,r0,#7
        0x0000d7c6:    687c        |h      LDR      r4,[r7,#4]
        0x0000d7c8:    f8570b08    W...    LDR      r0,[r7],#8
        0x0000d7cc:    e087        ..      B        0xd8de ; am_util_stdio_vsprintf + 538
        0x0000d7ce:    2e73        s.      CMP      r6,#0x73
        0x0000d7d0:    f00080a2    ....    BEQ.W    0xd918 ; am_util_stdio_vsprintf + 596
        0x0000d7d4:    2e75        u.      CMP      r6,#0x75
        0x0000d7d6:    f00080b5    ....    BEQ.W    0xd944 ; am_util_stdio_vsprintf + 640
        0x0000d7da:    2e78        x.      CMP      r6,#0x78
        0x0000d7dc:    d159        Y.      BNE      0xd892 ; am_util_stdio_vsprintf + 462
        0x0000d7de:    f8cdc00c    ....    STR      r12,[sp,#0xc]
        0x0000d7e2:    f04f0c27    O.'.    MOV      r12,#0x27
        0x0000d7e6:    e007        ..      B        0xd7f8 ; am_util_stdio_vsprintf + 308
        0x0000d7e8:    2e46        F.      CMP      r6,#0x46
        0x0000d7ea:    d011        ..      BEQ      0xd810 ; am_util_stdio_vsprintf + 332
        0x0000d7ec:    2e58        X.      CMP      r6,#0x58
        0x0000d7ee:    d150        P.      BNE      0xd892 ; am_util_stdio_vsprintf + 462
        0x0000d7f0:    f8cdc00c    ....    STR      r12,[sp,#0xc]
        0x0000d7f4:    f04f0c07    O...    MOV      r12,#7
        0x0000d7f8:    f8dde010    ....    LDR      lr,[sp,#0x10]
        0x0000d7fc:    2a00        .*      CMP      r2,#0
        0x0000d7fe:    f00080ab    ....    BEQ.W    0xd958 ; am_util_stdio_vsprintf + 660
        0x0000d802:    1df9        ..      ADDS     r1,r7,#7
        0x0000d804:    f0210707    !...    BIC      r7,r1,#7
        0x0000d808:    687c        |h      LDR      r4,[r7,#4]
        0x0000d80a:    f8571b08    W...    LDR      r1,[r7],#8
        0x0000d80e:    e0a6        ..      B        0xd95e ; am_util_stdio_vsprintf + 666
        0x0000d810:    f1bb0f00    ....    CMP      r11,#0
        0x0000d814:    f00080c4    ....    BEQ.W    0xd9a0 ; am_util_stdio_vsprintf + 732
        0x0000d818:    4604        .F      MOV      r4,r0
        0x0000d81a:    1df8        ..      ADDS     r0,r7,#7
        0x0000d81c:    f0200807     ...    BIC      r8,r0,#7
        0x0000d820:    ed980b00    ....    VLDR     d0,[r8,#0]
        0x0000d824:    46e1        .F      MOV      r9,r12
        0x0000d826:    ec510b10    Q...    VMOV     r0,r1,d0
        0x0000d82a:    f000fddb    ....    BL       __aeabi_d2f ; 0xe3e4
        0x0000d82e:    2114        .!      MOVS     r1,#0x14
        0x0000d830:    f8cb1000    ....    STR      r1,[r11,#0]
        0x0000d834:    f6426123    B.#a    MOV      r1,#0x2e23
        0x0000d838:    ee000a10    ....    VMOV     s0,r0
        0x0000d83c:    f2c00123    ..#.    MOVT     r1,#0x23
        0x0000d840:    f1011e0d    ....    ADD      lr,r1,#0xd000d
        0x0000d844:    eeb50a40    ..@.    VCMP.F32 s0,#0.0
        0x0000d848:    f64f76fe    O..v    MOV      r6,#0xfffe
        0x0000d84c:    46cc        .F      MOV      r12,r9
        0x0000d84e:    eef1fa10    ....    VMRS     APSR_nzcv,FPSCR
        0x0000d852:    4671        qF      MOV      r1,lr
        0x0000d854:    f2c006ff    ....    MOVT     r6,#0xff
        0x0000d858:    f000829f    ....    BEQ.W    0xdd9a ; am_util_stdio_vsprintf + 1750
        0x0000d85c:    f3c052c7    ...R    UBFX     r2,r0,#23,#8
        0x0000d860:    f6426123    B.#a    MOV      r1,#0x2e23
        0x0000d864:    2a9d        .*      CMP      r2,#0x9d
        0x0000d866:    f2c00123    ..#.    MOVT     r1,#0x23
        0x0000d86a:    f2008296    ....    BHI.W    0xdd9a ; am_util_stdio_vsprintf + 1750
        0x0000d86e:    2a68        h*      CMP      r2,#0x68
        0x0000d870:    4671        qF      MOV      r1,lr
        0x0000d872:    f0c08292    ....    BCC.W    0xdd9a ; am_util_stdio_vsprintf + 1750
        0x0000d876:    4603        .F      MOV      r3,r0
        0x0000d878:    2101        .!      MOVS     r1,#1
        0x0000d87a:    2a96        .*      CMP      r2,#0x96
        0x0000d87c:    f36153df    a..S    BFI      r3,r1,#23,#9
        0x0000d880:    f0c08209    ....    BCC.W    0xdc96 ; am_util_stdio_vsprintf + 1490
        0x0000d884:    f1a20196    ....    SUB      r1,r2,#0x96
        0x0000d888:    fa03f101    ....    LSL      r1,r3,r1
        0x0000d88c:    f04f0a00    O...    MOV      r10,#0
        0x0000d890:    e212        ..      B        0xdcb8 ; am_util_stdio_vsprintf + 1524
        0x0000d892:    f1bb0f00    ....    CMP      r11,#0
        0x0000d896:    bf14        ..      ITE      NE
        0x0000d898:    f80b6b01    ...k    STRBNE   r6,[r11],#1
        0x0000d89c:    f04f0b00    O...    MOVEQ    r11,#0
        0x0000d8a0:    f241185d    A.].    MOV      r8,#0x115d
        0x0000d8a4:    9e04        ..      LDR      r6,[sp,#0x10]
        0x0000d8a6:    f10d0914    ....    ADD      r9,sp,#0x14
        0x0000d8aa:    f2c10800    ....    MOVT     r8,#0x1000
        0x0000d8ae:    240d        .$      MOVS     r4,#0xd
        0x0000d8b0:    e010        ..      B        0xd8d4 ; am_util_stdio_vsprintf + 528
        0x0000d8b2:    f1bb0f00    ....    CMP      r11,#0
        0x0000d8b6:    bf1a        ..      ITTE     NE
        0x0000d8b8:    6838        8h      LDRNE    r0,[r7,#0]
        0x0000d8ba:    f80b0b01    ....    STRBNE   r0,[r11],#1
        0x0000d8be:    f04f0b00    O...    MOVEQ    r11,#0
        0x0000d8c2:    f241185d    A.].    MOV      r8,#0x115d
        0x0000d8c6:    9e04        ..      LDR      r6,[sp,#0x10]
        0x0000d8c8:    f10d0914    ....    ADD      r9,sp,#0x14
        0x0000d8cc:    f2c10800    ....    MOVT     r8,#0x1000
        0x0000d8d0:    240d        .$      MOVS     r4,#0xd
        0x0000d8d2:    3704        .7      ADDS     r7,#4
        0x0000d8d4:    3501        .5      ADDS     r5,#1
        0x0000d8d6:    e26f        o.      B        0xddb8 ; am_util_stdio_vsprintf + 1780
        0x0000d8d8:    f8570b04    W...    LDR      r0,[r7],#4
        0x0000d8dc:    17c4        ..      ASRS     r4,r0,#31
        0x0000d8de:    eb1070e4    ...p    ADDS     r0,r0,r4,ASR #31
        0x0000d8e2:    9e04        ..      LDR      r6,[sp,#0x10]
        0x0000d8e4:    ea807ee4    ...~    EOR      lr,r0,r4,ASR #31
        0x0000d8e8:    eb4470e4    D..p    ADC      r0,r4,r4,ASR #31
        0x0000d8ec:    f1b90f00    ....    CMP      r9,#0
        0x0000d8f0:    ea8071e4    ...q    EOR      r1,r0,r4,ASR #31
        0x0000d8f4:    e9cdc703    ....    STRD     r12,r7,[sp,#0xc]
        0x0000d8f8:    d046        F.      BEQ      0xd988 ; am_util_stdio_vsprintf + 708
        0x0000d8fa:    ea5e0001    ^...    ORRS     r0,lr,r1
        0x0000d8fe:    e9cd1e01    ....    STRD     r1,lr,[sp,#4]
        0x0000d902:    d07b        {.      BEQ      0xd9fc ; am_util_stdio_vsprintf + 824
        0x0000d904:    2700        .'      MOVS     r7,#0
        0x0000d906:    4670        pF      MOV      r0,lr
        0x0000d908:    f000fa92    ....    BL       divu64_10 ; 0xde30
        0x0000d90c:    ea500201    P...    ORRS     r2,r0,r1
        0x0000d910:    f1070701    ....    ADD      r7,r7,#1
        0x0000d914:    d1f8        ..      BNE      0xd908 ; am_util_stdio_vsprintf + 580
        0x0000d916:    e072        r.      B        0xd9fe ; am_util_stdio_vsprintf + 826
        0x0000d918:    f8571b04    W...    LDR      r1,[r7],#4
        0x0000d91c:    2900        .)      CMP      r1,#0
        0x0000d91e:    f0008109    ....    BEQ.W    0xdb34 ; am_util_stdio_vsprintf + 1136
        0x0000d922:    7808        .x      LDRB     r0,[r1,#0]
        0x0000d924:    9e04        ..      LDR      r6,[sp,#0x10]
        0x0000d926:    2800        .(      CMP      r0,#0
        0x0000d928:    f04f040d    O...    MOV      r4,#0xd
        0x0000d92c:    46be        .F      MOV      lr,r7
        0x0000d92e:    f000812b    ..+.    BEQ.W    0xdb88 ; am_util_stdio_vsprintf + 1220
        0x0000d932:    1c4a        J.      ADDS     r2,r1,#1
        0x0000d934:    2300        .#      MOVS     r3,#0
        0x0000d936:    bf00        ..      NOP      
        0x0000d938:    5cd7        .\      LDRB     r7,[r2,r3]
        0x0000d93a:    1c58        X.      ADDS     r0,r3,#1
        0x0000d93c:    2f00        ./      CMP      r7,#0
        0x0000d93e:    4603        .F      MOV      r3,r0
        0x0000d940:    d1fa        ..      BNE      0xd938 ; am_util_stdio_vsprintf + 628
        0x0000d942:    e122        ".      B        0xdb8a ; am_util_stdio_vsprintf + 1222
        0x0000d944:    2a00        .*      CMP      r2,#0
        0x0000d946:    d03d        =.      BEQ      0xd9c4 ; am_util_stdio_vsprintf + 768
        0x0000d948:    1df8        ..      ADDS     r0,r7,#7
        0x0000d94a:    f0200707     ...    BIC      r7,r0,#7
        0x0000d94e:    f8d7a004    ....    LDR      r10,[r7,#4]
        0x0000d952:    f8574b08    W..K    LDR      r4,[r7],#8
        0x0000d956:    e039        9.      B        0xd9cc ; am_util_stdio_vsprintf + 776
        0x0000d958:    f8571b04    W...    LDR      r1,[r7],#4
        0x0000d95c:    2400        .$      MOVS     r4,#0
        0x0000d95e:    f1b90f00    ....    CMP      r9,#0
        0x0000d962:    d027        '.      BEQ      0xd9b4 ; am_util_stdio_vsprintf + 752
        0x0000d964:    46ba        .F      MOV      r10,r7
        0x0000d966:    ea510204    Q...    ORRS     r2,r1,r4
        0x0000d96a:    f000808d    ....    BEQ.W    0xda88 ; am_util_stdio_vsprintf + 964
        0x0000d96e:    2700        .'      MOVS     r7,#0
        0x0000d970:    460b        .F      MOV      r3,r1
        0x0000d972:    4622        "F      MOV      r2,r4
        0x0000d974:    091b        ..      LSRS     r3,r3,#4
        0x0000d976:    ea437302    C..s    ORR      r3,r3,r2,LSL #28
        0x0000d97a:    ea431612    C...    ORR      r6,r3,r2,LSR #4
        0x0000d97e:    0912        ..      LSRS     r2,r2,#4
        0x0000d980:    3701        .7      ADDS     r7,#1
        0x0000d982:    2e00        ..      CMP      r6,#0
        0x0000d984:    d1f6        ..      BNE      0xd974 ; am_util_stdio_vsprintf + 688
        0x0000d986:    e080        ..      B        0xda8a ; am_util_stdio_vsprintf + 966
        0x0000d988:    f1b43fff    ...?    CMP      r4,#0xffffffff
        0x0000d98c:    f34080de    @...    BLE.W    0xdb4c ; am_util_stdio_vsprintf + 1160
        0x0000d990:    f241185d    A.].    MOV      r8,#0x115d
        0x0000d994:    465f        _F      MOV      r7,r11
        0x0000d996:    f10d0914    ....    ADD      r9,sp,#0x14
        0x0000d99a:    f2c10800    ....    MOVT     r8,#0x1000
        0x0000d99e:    e071        q.      B        0xda84 ; am_util_stdio_vsprintf + 960
        0x0000d9a0:    f241185d    A.].    MOV      r8,#0x115d
        0x0000d9a4:    9e04        ..      LDR      r6,[sp,#0x10]
        0x0000d9a6:    f04f0b00    O...    MOV      r11,#0
        0x0000d9aa:    f10d0914    ....    ADD      r9,sp,#0x14
        0x0000d9ae:    f2c10800    ....    MOVT     r8,#0x1000
        0x0000d9b2:    e12e        ..      B        0xdc12 ; am_util_stdio_vsprintf + 1358
        0x0000d9b4:    f241185d    A.].    MOV      r8,#0x115d
        0x0000d9b8:    a806        ..      ADD      r0,sp,#0x18
        0x0000d9ba:    f10d0914    ....    ADD      r9,sp,#0x14
        0x0000d9be:    f2c10800    ....    MOVT     r8,#0x1000
        0x0000d9c2:    e081        ..      B        0xdac8 ; am_util_stdio_vsprintf + 1028
        0x0000d9c4:    f8574b04    W..K    LDR      r4,[r7],#4
        0x0000d9c8:    f04f0a00    O...    MOV      r10,#0
        0x0000d9cc:    9e04        ..      LDR      r6,[sp,#0x10]
        0x0000d9ce:    f1b90f00    ....    CMP      r9,#0
        0x0000d9d2:    f8cdc00c    ....    STR      r12,[sp,#0xc]
        0x0000d9d6:    f00080b2    ....    BEQ.W    0xdb3e ; am_util_stdio_vsprintf + 1146
        0x0000d9da:    ea54000a    T...    ORRS     r0,r4,r10
        0x0000d9de:    9704        ..      STR      r7,[sp,#0x10]
        0x0000d9e0:    f00080e8    ....    BEQ.W    0xdbb4 ; am_util_stdio_vsprintf + 1264
        0x0000d9e4:    2700        .'      MOVS     r7,#0
        0x0000d9e6:    4620         F      MOV      r0,r4
        0x0000d9e8:    4651        QF      MOV      r1,r10
        0x0000d9ea:    bf00        ..      NOP      
        0x0000d9ec:    f000fa20    .. .    BL       divu64_10 ; 0xde30
        0x0000d9f0:    ea500201    P...    ORRS     r2,r0,r1
        0x0000d9f4:    f1070701    ....    ADD      r7,r7,#1
        0x0000d9f8:    d1f8        ..      BNE      0xd9ec ; am_util_stdio_vsprintf + 808
        0x0000d9fa:    e0dc        ..      B        0xdbb6 ; am_util_stdio_vsprintf + 1266
        0x0000d9fc:    2701        .'      MOVS     r7,#1
        0x0000d9fe:    f1b43fff    ...?    CMP      r4,#0xffffffff
        0x0000da02:    eba90307    ....    SUB      r3,r9,r7
        0x0000da06:    dd02        ..      BLE      0xda0e ; am_util_stdio_vsprintf + 842
        0x0000da08:    f10d0914    ....    ADD      r9,sp,#0x14
        0x0000da0c:    e012        ..      B        0xda34 ; am_util_stdio_vsprintf + 880
        0x0000da0e:    f1ba0f30    ..0.    CMP      r10,#0x30
        0x0000da12:    f1a30301    ....    SUB      r3,r3,#1
        0x0000da16:    f10d0914    ....    ADD      r9,sp,#0x14
        0x0000da1a:    d10b        ..      BNE      0xda34 ; am_util_stdio_vsprintf + 880
        0x0000da1c:    f1bb0f00    ....    CMP      r11,#0
        0x0000da20:    bf1a        ..      ITTE     NE
        0x0000da22:    212d        -!      MOVNE    r1,#0x2d
        0x0000da24:    f80b1b01    ....    STRBNE   r1,[r11],#1
        0x0000da28:    f04f0b00    O...    MOVEQ    r11,#0
        0x0000da2c:    e9dd1e01    ....    LDRD     r1,lr,[sp,#4]
        0x0000da30:    3501        .5      ADDS     r5,#1
        0x0000da32:    e001        ..      B        0xda38 ; am_util_stdio_vsprintf + 884
        0x0000da34:    e9dd1e01    ....    LDRD     r1,lr,[sp,#4]
        0x0000da38:    2b01        .+      CMP      r3,#1
        0x0000da3a:    db09        ..      BLT      0xda50 ; am_util_stdio_vsprintf + 908
        0x0000da3c:    4618        .F      MOV      r0,r3
        0x0000da3e:    465a        ZF      MOV      r2,r11
        0x0000da40:    2a00        .*      CMP      r2,#0
        0x0000da42:    bf14        ..      ITE      NE
        0x0000da44:    f8028b01    ....    STRBNE   r8,[r2],#1
        0x0000da48:    2200        ."      MOVEQ    r2,#0
        0x0000da4a:    3801        .8      SUBS     r0,#1
        0x0000da4c:    d1f8        ..      BNE      0xda40 ; am_util_stdio_vsprintf + 892
        0x0000da4e:    e000        ..      B        0xda52 ; am_util_stdio_vsprintf + 910
        0x0000da50:    2300        .#      MOVS     r3,#0
        0x0000da52:    f1bb0f00    ....    CMP      r11,#0
        0x0000da56:    465f        _F      MOV      r7,r11
        0x0000da58:    f241185d    A.].    MOV      r8,#0x115d
        0x0000da5c:    bf18        ..      IT       NE
        0x0000da5e:    441f        .D      ADDNE    r7,r3
        0x0000da60:    f1ba0f30    ..0.    CMP      r10,#0x30
        0x0000da64:    441d        .D      ADD      r5,r5,r3
        0x0000da66:    f2c10800    ....    MOVT     r8,#0x1000
        0x0000da6a:    d00b        ..      BEQ      0xda84 ; am_util_stdio_vsprintf + 960
        0x0000da6c:    f1b43fff    ...?    CMP      r4,#0xffffffff
        0x0000da70:    dc08        ..      BGT      0xda84 ; am_util_stdio_vsprintf + 960
        0x0000da72:    f1bb0f00    ....    CMP      r11,#0
        0x0000da76:    f04f040d    O...    MOV      r4,#0xd
        0x0000da7a:    d077        w.      BEQ      0xdb6c ; am_util_stdio_vsprintf + 1192
        0x0000da7c:    202d        -       MOVS     r0,#0x2d
        0x0000da7e:    f8070b01    ....    STRB     r0,[r7],#1
        0x0000da82:    e074        t.      B        0xdb6e ; am_util_stdio_vsprintf + 1194
        0x0000da84:    240d        .$      MOVS     r4,#0xd
        0x0000da86:    e073        s.      B        0xdb70 ; am_util_stdio_vsprintf + 1196
        0x0000da88:    2701        .'      MOVS     r7,#1
        0x0000da8a:    eba90307    ....    SUB      r3,r9,r7
        0x0000da8e:    2b01        .+      CMP      r3,#1
        0x0000da90:    db0c        ..      BLT      0xdaac ; am_util_stdio_vsprintf + 1000
        0x0000da92:    eba70709    ....    SUB      r7,r7,r9
        0x0000da96:    465e        ^F      MOV      r6,r11
        0x0000da98:    f10d0914    ....    ADD      r9,sp,#0x14
        0x0000da9c:    2e00        ..      CMP      r6,#0
        0x0000da9e:    bf14        ..      ITE      NE
        0x0000daa0:    f8068b01    ....    STRBNE   r8,[r6],#1
        0x0000daa4:    2600        .&      MOVEQ    r6,#0
        0x0000daa6:    3701        .7      ADDS     r7,#1
        0x0000daa8:    d3f8        ..      BCC      0xda9c ; am_util_stdio_vsprintf + 984
        0x0000daaa:    e002        ..      B        0xdab2 ; am_util_stdio_vsprintf + 1006
        0x0000daac:    2300        .#      MOVS     r3,#0
        0x0000daae:    f10d0914    ....    ADD      r9,sp,#0x14
        0x0000dab2:    f241185d    A.].    MOV      r8,#0x115d
        0x0000dab6:    441d        .D      ADD      r5,r5,r3
        0x0000dab8:    a806        ..      ADD      r0,sp,#0x18
        0x0000daba:    f2c10800    ....    MOVT     r8,#0x1000
        0x0000dabe:    4657        WF      MOV      r7,r10
        0x0000dac0:    f1bb0f00    ....    CMP      r11,#0
        0x0000dac4:    bf18        ..      IT       NE
        0x0000dac6:    449b        .D      ADDNE    r11,r11,r3
        0x0000dac8:    46ba        .F      MOV      r10,r7
        0x0000daca:    ea510204    Q...    ORRS     r2,r1,r4
        0x0000dace:    d015        ..      BEQ      0xdafc ; am_util_stdio_vsprintf + 1080
        0x0000dad0:    2300        .#      MOVS     r3,#0
        0x0000dad2:    bf00        ..      NOP      
        0x0000dad4:    f001020f    ....    AND      r2,r1,#0xf
        0x0000dad8:    0909        ..      LSRS     r1,r1,#4
        0x0000dada:    ea417104    A..q    ORR      r1,r1,r4,LSL #28
        0x0000dade:    f1020630    ..0.    ADD      r6,r2,#0x30
        0x0000dae2:    2a09        .*      CMP      r2,#9
        0x0000dae4:    f1030701    ....    ADD      r7,r3,#1
        0x0000dae8:    ea411214    A...    ORR      r2,r1,r4,LSR #4
        0x0000daec:    bf88        ..      IT       HI
        0x0000daee:    4466        fD      ADDHI    r6,r6,r12
        0x0000daf0:    54c6        .T      STRB     r6,[r0,r3]
        0x0000daf2:    0924        $.      LSRS     r4,r4,#4
        0x0000daf4:    2a00        .*      CMP      r2,#0
        0x0000daf6:    463b        ;F      MOV      r3,r7
        0x0000daf8:    d1ec        ..      BNE      0xdad4 ; am_util_stdio_vsprintf + 1040
        0x0000dafa:    e003        ..      B        0xdb04 ; am_util_stdio_vsprintf + 1088
        0x0000dafc:    2030        0       MOVS     r0,#0x30
        0x0000dafe:    f88d0018    ....    STRB     r0,[sp,#0x18]
        0x0000db02:    2701        .'      MOVS     r7,#1
        0x0000db04:    f8ddc00c    ....    LDR      r12,[sp,#0xc]
        0x0000db08:    f1bb0f00    ....    CMP      r11,#0
        0x0000db0c:    4676        vF      MOV      r6,lr
        0x0000db0e:    f04f040d    O...    MOV      r4,#0xd
        0x0000db12:    d008        ..      BEQ      0xdb26 ; am_util_stdio_vsprintf + 1122
        0x0000db14:    4639        9F      MOV      r1,r7
        0x0000db16:    4658        XF      MOV      r0,r11
        0x0000db18:    5c72        r\      LDRB     r2,[r6,r1]
        0x0000db1a:    3901        .9      SUBS     r1,#1
        0x0000db1c:    f8002b01    ...+    STRB     r2,[r0],#1
        0x0000db20:    d1fa        ..      BNE      0xdb18 ; am_util_stdio_vsprintf + 1108
        0x0000db22:    2100        .!      MOVS     r1,#0
        0x0000db24:    7001        .p      STRB     r1,[r0,#0]
        0x0000db26:    f1bb0f00    ....    CMP      r11,#0
        0x0000db2a:    bf18        ..      IT       NE
        0x0000db2c:    44bb        .D      ADDNE    r11,r11,r7
        0x0000db2e:    443d        =D      ADD      r5,r5,r7
        0x0000db30:    4657        WF      MOV      r7,r10
        0x0000db32:    e141        A.      B        0xddb8 ; am_util_stdio_vsprintf + 1780
        0x0000db34:    9e04        ..      LDR      r6,[sp,#0x10]
        0x0000db36:    46be        .F      MOV      lr,r7
        0x0000db38:    2000        .       MOVS     r0,#0
        0x0000db3a:    240d        .$      MOVS     r4,#0xd
        0x0000db3c:    e025        %.      B        0xdb8a ; am_util_stdio_vsprintf + 1222
        0x0000db3e:    f241185d    A.].    MOV      r8,#0x115d
        0x0000db42:    f10d0914    ....    ADD      r9,sp,#0x14
        0x0000db46:    f2c10800    ....    MOVT     r8,#0x1000
        0x0000db4a:    e056        V.      B        0xdbfa ; am_util_stdio_vsprintf + 1334
        0x0000db4c:    f241185d    A.].    MOV      r8,#0x115d
        0x0000db50:    f1bb0f00    ....    CMP      r11,#0
        0x0000db54:    f10d0914    ....    ADD      r9,sp,#0x14
        0x0000db58:    f2c10800    ....    MOVT     r8,#0x1000
        0x0000db5c:    f04f040d    O...    MOV      r4,#0xd
        0x0000db60:    d004        ..      BEQ      0xdb6c ; am_util_stdio_vsprintf + 1192
        0x0000db62:    202d        -       MOVS     r0,#0x2d
        0x0000db64:    f80b0b01    ....    STRB     r0,[r11],#1
        0x0000db68:    465f        _F      MOV      r7,r11
        0x0000db6a:    e000        ..      B        0xdb6e ; am_util_stdio_vsprintf + 1194
        0x0000db6c:    2700        .'      MOVS     r7,#0
        0x0000db6e:    3501        .5      ADDS     r5,#1
        0x0000db70:    4670        pF      MOV      r0,lr
        0x0000db72:    463a        :F      MOV      r2,r7
        0x0000db74:    f000fbd0    ....    BL       uint64_to_str ; 0xe318
        0x0000db78:    2f00        ./      CMP      r7,#0
        0x0000db7a:    bf18        ..      IT       NE
        0x0000db7c:    4407        .D      ADDNE    r7,r0
        0x0000db7e:    46bb        .F      MOV      r11,r7
        0x0000db80:    e9ddc703    ....    LDRD     r12,r7,[sp,#0xc]
        0x0000db84:    4405        .D      ADD      r5,r5,r0
        0x0000db86:    e117        ..      B        0xddb8 ; am_util_stdio_vsprintf + 1780
        0x0000db88:    2000        .       MOVS     r0,#0
        0x0000db8a:    f1b90f01    ....    CMP      r9,#1
        0x0000db8e:    db4a        J.      BLT      0xdc26 ; am_util_stdio_vsprintf + 1378
        0x0000db90:    4581        .E      CMP      r9,r0
        0x0000db92:    d948        H.      BLS      0xdc26 ; am_util_stdio_vsprintf + 1378
        0x0000db94:    eba90200    ....    SUB      r2,r9,r0
        0x0000db98:    2a01        .*      CMP      r2,#1
        0x0000db9a:    db3c        <.      BLT      0xdc16 ; am_util_stdio_vsprintf + 1362
        0x0000db9c:    eba00309    ....    SUB      r3,r0,r9
        0x0000dba0:    465f        _F      MOV      r7,r11
        0x0000dba2:    bf00        ..      NOP      
        0x0000dba4:    2f00        ./      CMP      r7,#0
        0x0000dba6:    bf14        ..      ITE      NE
        0x0000dba8:    f8078b01    ....    STRBNE   r8,[r7],#1
        0x0000dbac:    2700        .'      MOVEQ    r7,#0
        0x0000dbae:    3301        .3      ADDS     r3,#1
        0x0000dbb0:    d3f8        ..      BCC      0xdba4 ; am_util_stdio_vsprintf + 1248
        0x0000dbb2:    e031        1.      B        0xdc18 ; am_util_stdio_vsprintf + 1364
        0x0000dbb4:    2701        .'      MOVS     r7,#1
        0x0000dbb6:    eba90007    ....    SUB      r0,r9,r7
        0x0000dbba:    2801        .(      CMP      r0,#1
        0x0000dbbc:    db10        ..      BLT      0xdbe0 ; am_util_stdio_vsprintf + 1308
        0x0000dbbe:    eba70109    ....    SUB      r1,r7,r9
        0x0000dbc2:    9f04        ..      LDR      r7,[sp,#0x10]
        0x0000dbc4:    465a        ZF      MOV      r2,r11
        0x0000dbc6:    f10d0914    ....    ADD      r9,sp,#0x14
        0x0000dbca:    bf00        ..      NOP      
        0x0000dbcc:    2a00        .*      CMP      r2,#0
        0x0000dbce:    bf14        ..      ITE      NE
        0x0000dbd0:    f8028b01    ....    STRBNE   r8,[r2],#1
        0x0000dbd4:    2200        ."      MOVEQ    r2,#0
        0x0000dbd6:    3101        .1      ADDS     r1,#1
        0x0000dbd8:    d3f8        ..      BCC      0xdbcc ; am_util_stdio_vsprintf + 1288
        0x0000dbda:    f241185d    A.].    MOV      r8,#0x115d
        0x0000dbde:    e005        ..      B        0xdbec ; am_util_stdio_vsprintf + 1320
        0x0000dbe0:    f241185d    A.].    MOV      r8,#0x115d
        0x0000dbe4:    9f04        ..      LDR      r7,[sp,#0x10]
        0x0000dbe6:    2000        .       MOVS     r0,#0
        0x0000dbe8:    f10d0914    ....    ADD      r9,sp,#0x14
        0x0000dbec:    f2c10800    ....    MOVT     r8,#0x1000
        0x0000dbf0:    4405        .D      ADD      r5,r5,r0
        0x0000dbf2:    f1bb0f00    ....    CMP      r11,#0
        0x0000dbf6:    bf18        ..      IT       NE
        0x0000dbf8:    4483        .D      ADDNE    r11,r11,r0
        0x0000dbfa:    4620         F      MOV      r0,r4
        0x0000dbfc:    4651        QF      MOV      r1,r10
        0x0000dbfe:    465a        ZF      MOV      r2,r11
        0x0000dc00:    f000fb8a    ....    BL       uint64_to_str ; 0xe318
        0x0000dc04:    f1bb0f00    ....    CMP      r11,#0
        0x0000dc08:    bf18        ..      IT       NE
        0x0000dc0a:    4483        .D      ADDNE    r11,r11,r0
        0x0000dc0c:    f8ddc00c    ....    LDR      r12,[sp,#0xc]
        0x0000dc10:    4405        .D      ADD      r5,r5,r0
        0x0000dc12:    240d        .$      MOVS     r4,#0xd
        0x0000dc14:    e0d0        ..      B        0xddb8 ; am_util_stdio_vsprintf + 1780
        0x0000dc16:    2200        ."      MOVS     r2,#0
        0x0000dc18:    4415        .D      ADD      r5,r5,r2
        0x0000dc1a:    f04f0900    O...    MOV      r9,#0
        0x0000dc1e:    f1bb0f00    ....    CMP      r11,#0
        0x0000dc22:    bf18        ..      IT       NE
        0x0000dc24:    4493        .D      ADDNE    r11,r11,r2
        0x0000dc26:    780a        .x      LDRB     r2,[r1,#0]
        0x0000dc28:    b17a        z.      CBZ      r2,0xdc4a ; am_util_stdio_vsprintf + 1414
        0x0000dc2a:    3101        .1      ADDS     r1,#1
        0x0000dc2c:    4677        wF      MOV      r7,lr
        0x0000dc2e:    bf00        ..      NOP      
        0x0000dc30:    f1bb0f00    ....    CMP      r11,#0
        0x0000dc34:    bf14        ..      ITE      NE
        0x0000dc36:    f80b2b01    ...+    STRBNE   r2,[r11],#1
        0x0000dc3a:    f04f0b00    O...    MOVEQ    r11,#0
        0x0000dc3e:    f8112b01    ...+    LDRB     r2,[r1],#1
        0x0000dc42:    3501        .5      ADDS     r5,#1
        0x0000dc44:    2a00        .*      CMP      r2,#0
        0x0000dc46:    d1f3        ..      BNE      0xdc30 ; am_util_stdio_vsprintf + 1388
        0x0000dc48:    e000        ..      B        0xdc4c ; am_util_stdio_vsprintf + 1416
        0x0000dc4a:    4677        wF      MOV      r7,lr
        0x0000dc4c:    f1b90f00    ....    CMP      r9,#0
        0x0000dc50:    f00080ac    ....    BEQ.W    0xddac ; am_util_stdio_vsprintf + 1768
        0x0000dc54:    f1c90100    ....    RSB      r1,r9,#0
        0x0000dc58:    4288        .B      CMP      r0,r1
        0x0000dc5a:    f08080a7    ....    BCS.W    0xddac ; am_util_stdio_vsprintf + 1768
        0x0000dc5e:    1a09        ..      SUBS     r1,r1,r0
        0x0000dc60:    2901        .)      CMP      r1,#1
        0x0000dc62:    db0b        ..      BLT      0xdc7c ; am_util_stdio_vsprintf + 1464
        0x0000dc64:    4448        HD      ADD      r0,r0,r9
        0x0000dc66:    465a        ZF      MOV      r2,r11
        0x0000dc68:    f10d0914    ....    ADD      r9,sp,#0x14
        0x0000dc6c:    2a00        .*      CMP      r2,#0
        0x0000dc6e:    bf14        ..      ITE      NE
        0x0000dc70:    f8028b01    ....    STRBNE   r8,[r2],#1
        0x0000dc74:    2200        ."      MOVEQ    r2,#0
        0x0000dc76:    3001        .0      ADDS     r0,#1
        0x0000dc78:    d3f8        ..      BCC      0xdc6c ; am_util_stdio_vsprintf + 1448
        0x0000dc7a:    e002        ..      B        0xdc82 ; am_util_stdio_vsprintf + 1470
        0x0000dc7c:    2100        .!      MOVS     r1,#0
        0x0000dc7e:    f10d0914    ....    ADD      r9,sp,#0x14
        0x0000dc82:    f241185d    A.].    MOV      r8,#0x115d
        0x0000dc86:    f2c10800    ....    MOVT     r8,#0x1000
        0x0000dc8a:    f1bb0f00    ....    CMP      r11,#0
        0x0000dc8e:    bf18        ..      IT       NE
        0x0000dc90:    448b        .D      ADDNE    r11,r11,r1
        0x0000dc92:    440d        .D      ADD      r5,r5,r1
        0x0000dc94:    e090        ..      B        0xddb8 ; am_util_stdio_vsprintf + 1780
        0x0000dc96:    2a7f        .*      CMP      r2,#0x7f
        0x0000dc98:    d309        ..      BCC      0xdcae ; am_util_stdio_vsprintf + 1514
        0x0000dc9a:    f1c20196    ....    RSB      r1,r2,#0x96
        0x0000dc9e:    3a7e        ~:      SUBS     r2,r2,#0x7e
        0x0000dca0:    fa03f202    ....    LSL      r2,r3,r2
        0x0000dca4:    fa23f101    #...    LSR      r1,r3,r1
        0x0000dca8:    f0224a7f    "..J    BIC      r10,r2,#0xff000000
        0x0000dcac:    e004        ..      B        0xdcb8 ; am_util_stdio_vsprintf + 1524
        0x0000dcae:    f1c2017e    ..~.    RSB      r1,r2,#0x7e
        0x0000dcb2:    fa23fa01    #...    LSR      r10,r3,r1
        0x0000dcb6:    2100        .!      MOVS     r1,#0
        0x0000dcb8:    f1b03fff    ...?    CMP      r0,#0xffffffff
        0x0000dcbc:    465f        _F      MOV      r7,r11
        0x0000dcbe:    dc03        ..      BGT      0xdcc8 ; am_util_stdio_vsprintf + 1540
        0x0000dcc0:    465f        _F      MOV      r7,r11
        0x0000dcc2:    202d        -       MOVS     r0,#0x2d
        0x0000dcc4:    f8070b01    ....    STRB     r0,[r7],#1
        0x0000dcc8:    b131        1.      CBZ      r1,0xdcd8 ; am_util_stdio_vsprintf + 1556
        0x0000dcca:    2901        .)      CMP      r1,#1
        0x0000dccc:    f8cde008    ....    STR      lr,[sp,#8]
        0x0000dcd0:    db06        ..      BLT      0xdce0 ; am_util_stdio_vsprintf + 1564
        0x0000dcd2:    4608        .F      MOV      r0,r1
        0x0000dcd4:    2100        .!      MOVS     r1,#0
        0x0000dcd6:    e008        ..      B        0xdcea ; am_util_stdio_vsprintf + 1574
        0x0000dcd8:    2130        0!      MOVS     r1,#0x30
        0x0000dcda:    f8071b01    ....    STRB     r1,[r7],#1
        0x0000dcde:    e011        ..      B        0xdd04 ; am_util_stdio_vsprintf + 1600
        0x0000dce0:    202d        -       MOVS     r0,#0x2d
        0x0000dce2:    f8070b01    ....    STRB     r0,[r7],#1
        0x0000dce6:    4248        HB      RSBS     r0,r1,#0
        0x0000dce8:    17c1        ..      ASRS     r1,r0,#31
        0x0000dcea:    463a        :F      MOV      r2,r7
        0x0000dcec:    f000fb14    ....    BL       uint64_to_str ; 0xe318
        0x0000dcf0:    f8dde008    ....    LDR      lr,[sp,#8]
        0x0000dcf4:    46cc        .F      MOV      r12,r9
        0x0000dcf6:    2130        0!      MOVS     r1,#0x30
        0x0000dcf8:    3f01        .?      SUBS     r7,#1
        0x0000dcfa:    bf00        ..      NOP      
        0x0000dcfc:    f8170f01    ....    LDRB     r0,[r7,#1]!
        0x0000dd00:    2800        .(      CMP      r0,#0
        0x0000dd02:    d1fb        ..      BNE      0xdcfc ; am_util_stdio_vsprintf + 1592
        0x0000dd04:    4638        8F      MOV      r0,r7
        0x0000dd06:    222e        ."      MOVS     r2,#0x2e
        0x0000dd08:    f1ba0f00    ....    CMP      r10,#0
        0x0000dd0c:    f8002b01    ...+    STRB     r2,[r0],#1
        0x0000dd10:    d014        ..      BEQ      0xdd3c ; am_util_stdio_vsprintf + 1656
        0x0000dd12:    ebab0100    ....    SUB      r1,r11,r0
        0x0000dd16:    3113        .1      ADDS     r1,r1,#0x13
        0x0000dd18:    42a1        .B      CMP      r1,r4
        0x0000dd1a:    bfc8        ..      IT       GT
        0x0000dd1c:    4621        !F      MOVGT    r1,r4
        0x0000dd1e:    2901        .)      CMP      r1,#1
        0x0000dd20:    db10        ..      BLT      0xdd44 ; am_util_stdio_vsprintf + 1664
        0x0000dd22:    2730        0'      MOVS     r7,#0x30
        0x0000dd24:    240d        .$      MOVS     r4,#0xd
        0x0000dd26:    eb0a028a    ....    ADD      r2,r10,r10,LSL #2
        0x0000dd2a:    eb0753d2    ...S    ADD      r3,r7,r2,LSR #23
        0x0000dd2e:    f8003b01    ...;    STRB     r3,[r0],#1
        0x0000dd32:    3901        .9      SUBS     r1,#1
        0x0000dd34:    ea060a42    ..B.    AND      r10,r6,r2,LSL #1
        0x0000dd38:    d1f5        ..      BNE      0xdd26 ; am_util_stdio_vsprintf + 1634
        0x0000dd3a:    e004        ..      B        0xdd46 ; am_util_stdio_vsprintf + 1666
        0x0000dd3c:    1cb8        ..      ADDS     r0,r7,#2
        0x0000dd3e:    7079        yp      STRB     r1,[r7,#1]
        0x0000dd40:    240d        .$      MOVS     r4,#0xd
        0x0000dd42:    e015        ..      B        0xdd70 ; am_util_stdio_vsprintf + 1708
        0x0000dd44:    240d        .$      MOVS     r4,#0xd
        0x0000dd46:    1e41        A.      SUBS     r1,r0,#1
        0x0000dd48:    4559        YE      CMP      r1,r11
        0x0000dd4a:    d311        ..      BCC      0xdd70 ; am_util_stdio_vsprintf + 1708
        0x0000dd4c:    eb0a028a    ....    ADD      r2,r10,r10,LSL #2
        0x0000dd50:    0052        R.      LSLS     r2,r2,#1
        0x0000dd52:    f1b26fa0    ...o    CMP      r2,#0x5000000
        0x0000dd56:    db0b        ..      BLT      0xdd70 ; am_util_stdio_vsprintf + 1708
        0x0000dd58:    9e04        ..      LDR      r6,[sp,#0x10]
        0x0000dd5a:    780a        .x      LDRB     r2,[r1,#0]
        0x0000dd5c:    2a2e        .*      CMP      r2,#0x2e
        0x0000dd5e:    d003        ..      BEQ      0xdd68 ; am_util_stdio_vsprintf + 1700
        0x0000dd60:    2a39        9*      CMP      r2,#0x39
        0x0000dd62:    d12c        ,.      BNE      0xddbe ; am_util_stdio_vsprintf + 1786
        0x0000dd64:    2230        0"      MOVS     r2,#0x30
        0x0000dd66:    700a        .p      STRB     r2,[r1,#0]
        0x0000dd68:    3901        .9      SUBS     r1,#1
        0x0000dd6a:    4559        YE      CMP      r1,r11
        0x0000dd6c:    d2f5        ..      BCS      0xdd5a ; am_util_stdio_vsprintf + 1686
        0x0000dd6e:    e000        ..      B        0xdd72 ; am_util_stdio_vsprintf + 1710
        0x0000dd70:    9e04        ..      LDR      r6,[sp,#0x10]
        0x0000dd72:    eba0010b    ....    SUB      r1,r0,r11
        0x0000dd76:    f1b13fff    ...?    CMP      r1,#0xffffffff
        0x0000dd7a:    f04f0200    O...    MOV      r2,#0
        0x0000dd7e:    7002        .p      STRB     r2,[r0,#0]
        0x0000dd80:    dc10        ..      BGT      0xdda4 ; am_util_stdio_vsprintf + 1760
        0x0000dd82:    f6426223    B.#b    MOV      r2,#0x2e23
        0x0000dd86:    1c48        H.      ADDS     r0,r1,#1
        0x0000dd88:    f2c00223    ..#.    MOVT     r2,#0x23
        0x0000dd8c:    bf18        ..      IT       NE
        0x0000dd8e:    f1021e1c    ....    ADDNE    lr,r2,#0x1c001c
        0x0000dd92:    1c88        ..      ADDS     r0,r1,#2
        0x0000dd94:    bf08        ..      IT       EQ
        0x0000dd96:    4696        .F      MOVEQ    lr,r2
        0x0000dd98:    4671        qF      MOV      r1,lr
        0x0000dd9a:    9e04        ..      LDR      r6,[sp,#0x10]
        0x0000dd9c:    f8cb1000    ....    STR      r1,[r11,#0]
        0x0000dda0:    2103        .!      MOVS     r1,#3
        0x0000dda2:    240d        .$      MOVS     r4,#0xd
        0x0000dda4:    f1080708    ....    ADD      r7,r8,#8
        0x0000dda8:    440d        .D      ADD      r5,r5,r1
        0x0000ddaa:    448b        .D      ADD      r11,r11,r1
        0x0000ddac:    f241185d    A.].    MOV      r8,#0x115d
        0x0000ddb0:    f10d0914    ....    ADD      r9,sp,#0x14
        0x0000ddb4:    f2c10800    ....    MOVT     r8,#0x1000
        0x0000ddb8:    f10c0101    ....    ADD      r1,r12,#1
        0x0000ddbc:    e491        ..      B        0xd6e2 ; am_util_stdio_vsprintf + 30
        0x0000ddbe:    3201        .2      ADDS     r2,#1
        0x0000ddc0:    700a        .p      STRB     r2,[r1,#0]
        0x0000ddc2:    e7d6        ..      B        0xdd72 ; am_util_stdio_vsprintf + 1710
        0x0000ddc4:    f1bb0f00    ....    CMP      r11,#0
        0x0000ddc8:    bf1c        ..      ITT      NE
        0x0000ddca:    2000        .       MOVNE    r0,#0
        0x0000ddcc:    f88b0000    ....    STRBNE   r0,[r11,#0]
        0x0000ddd0:    4628        (F      MOV      r0,r5
        0x0000ddd2:    b00b        ..      ADD      sp,sp,#0x2c
        0x0000ddd4:    e8bd8ff0    ....    POP      {r4-r11,pc}
    decstr_to_int
        0x0000ddd8:    b510        ..      PUSH     {r4,lr}
        0x0000ddda:    4603        .F      MOV      r3,r0
        0x0000dddc:    f813cb01    ....    LDRB     r12,[r3],#1
        0x0000dde0:    f1bc0e2d    ..-.    SUBS     lr,r12,#0x2d
        0x0000dde4:    bf18        ..      IT       NE
        0x0000dde6:    4603        .F      MOVNE    r3,r0
        0x0000dde8:    781a        .x      LDRB     r2,[r3,#0]
        0x0000ddea:    fabefe8e    ....    CLZ      lr,lr
        0x0000ddee:    f1a20030    ..0.    SUB      r0,r2,#0x30
        0x0000ddf2:    2809        .(      CMP      r0,#9
        0x0000ddf4:    ea4f1e5e    O.^.    LSR      lr,lr,#5
        0x0000ddf8:    d811        ..      BHI      0xde1e ; decstr_to_int + 70
        0x0000ddfa:    3301        .3      ADDS     r3,#1
        0x0000ddfc:    2000        .       MOVS     r0,#0
        0x0000ddfe:    bf00        ..      NOP      
        0x0000de00:    eb000080    ....    ADD      r0,r0,r0,LSL #2
        0x0000de04:    eb020040    ..@.    ADD      r0,r2,r0,LSL #1
        0x0000de08:    f8132b01    ...+    LDRB     r2,[r3],#1
        0x0000de0c:    f10e0e01    ....    ADD      lr,lr,#1
        0x0000de10:    f1a20430    ..0.    SUB      r4,r2,#0x30
        0x0000de14:    2c0a        .,      CMP      r4,#0xa
        0x0000de16:    f1a00030    ..0.    SUB      r0,r0,#0x30
        0x0000de1a:    d3f1        ..      BCC      0xde00 ; decstr_to_int + 40
        0x0000de1c:    e000        ..      B        0xde20 ; decstr_to_int + 72
        0x0000de1e:    2000        .       MOVS     r0,#0
        0x0000de20:    b109        ..      CBZ      r1,0xde26 ; decstr_to_int + 78
        0x0000de22:    f8c1e000    ....    STR      lr,[r1,#0]
        0x0000de26:    f1bc0f2d    ..-.    CMP      r12,#0x2d
        0x0000de2a:    bf08        ..      IT       EQ
        0x0000de2c:    4240        @B      RSBEQ    r0,r0,#0
        0x0000de2e:    bd10        ..      POP      {r4,pc}
    divu64_10
        0x0000de30:    b999        ..      CBNZ     r1,0xde5a ; divu64_10 + 42
        0x0000de32:    0841        A.      LSRS     r1,r0,#1
        0x0000de34:    eb010190    ....    ADD      r1,r1,r0,LSR #2
        0x0000de38:    eb011111    ....    ADD      r1,r1,r1,LSR #4
        0x0000de3c:    eb012111    ...!    ADD      r1,r1,r1,LSR #8
        0x0000de40:    eb014111    ...A    ADD      r1,r1,r1,LSR #16
        0x0000de44:    08ca        ..      LSRS     r2,r1,#3
        0x0000de46:    eb020282    ....    ADD      r2,r2,r2,LSL #2
        0x0000de4a:    eba00042    ..B.    SUB      r0,r0,r2,LSL #1
        0x0000de4e:    3006        .0      ADDS     r0,#6
        0x0000de50:    0900        ..      LSRS     r0,r0,#4
        0x0000de52:    eb0000d1    ....    ADD      r0,r0,r1,LSR #3
        0x0000de56:    2100        .!      MOVS     r1,#0
        0x0000de58:    4770        pG      BX       lr
        0x0000de5a:    b510        ..      PUSH     {r4,lr}
        0x0000de5c:    ea5f0c51    _.Q.    LSRS     r12,r1,#1
        0x0000de60:    ea4f0290    O...    LSR      r2,r0,#2
        0x0000de64:    ea4f0330    O.0.    RRX      r3,r0
        0x0000de68:    ea427281    B..r    ORR      r2,r2,r1,LSL #30
        0x0000de6c:    eb130e02    ....    ADDS     lr,r3,r2
        0x0000de70:    eb4c0391    L...    ADC      r3,r12,r1,LSR #2
        0x0000de74:    ea4f121e    O...    LSR      r2,lr,#4
        0x0000de78:    ea427203    B..r    ORR      r2,r2,r3,LSL #28
        0x0000de7c:    ea4f1c13    O...    LSR      r12,r3,#4
        0x0000de80:    eb1e0e02    ....    ADDS     lr,lr,r2
        0x0000de84:    eb43030c    C...    ADC      r3,r3,r12
        0x0000de88:    ea4f221e    O.."    LSR      r2,lr,#8
        0x0000de8c:    ea426203    B..b    ORR      r2,r2,r3,LSL #24
        0x0000de90:    ea4f2c13    O..,    LSR      r12,r3,#8
        0x0000de94:    eb1e0e02    ....    ADDS     lr,lr,r2
        0x0000de98:    eb43030c    C...    ADC      r3,r3,r12
        0x0000de9c:    ea4f421e    O..B    LSR      r2,lr,#16
        0x0000dea0:    ea424203    B..B    ORR      r2,r2,r3,LSL #16
        0x0000dea4:    ea4f4c13    O..L    LSR      r12,r3,#16
        0x0000dea8:    eb12020e    ....    ADDS     r2,r2,lr
        0x0000deac:    eb43030c    C...    ADC      r3,r3,r12
        0x0000deb0:    18d2        ..      ADDS     r2,r2,r3
        0x0000deb2:    f1430c00    C...    ADC      r12,r3,#0
        0x0000deb6:    08d2        ..      LSRS     r2,r2,#3
        0x0000deb8:    ea42724c    B.Lr    ORR      r2,r2,r12,LSL #29
        0x0000debc:    f06f0309    o...    MVN      r3,#9
        0x0000dec0:    fba2e303    ....    UMULL    lr,r3,r2,r3
        0x0000dec4:    ea4f04dc    O...    LSR      r4,r12,#3
        0x0000dec8:    1a9b        ..      SUBS     r3,r3,r2
        0x0000deca:    eb040484    ....    ADD      r4,r4,r4,LSL #2
        0x0000dece:    eba30344    ..D.    SUB      r3,r3,r4,LSL #1
        0x0000ded2:    eb10000e    ....    ADDS     r0,r0,lr
        0x0000ded6:    4159        YA      ADCS     r1,r1,r3
        0x0000ded8:    3006        .0      ADDS     r0,#6
        0x0000deda:    f1410100    A...    ADC      r1,r1,#0
        0x0000dede:    0900        ..      LSRS     r0,r0,#4
        0x0000dee0:    ea407001    @..p    ORR      r0,r0,r1,LSL #28
        0x0000dee4:    090b        ..      LSRS     r3,r1,#4
        0x0000dee6:    1880        ..      ADDS     r0,r0,r2
        0x0000dee8:    eb4301dc    C...    ADC      r1,r3,r12,LSR #3
        0x0000deec:    bd10        ..      POP      {r4,pc}
    getStackedReg
        0x0000deee:    0080        ..      LSLS     r0,r0,#2
        0x0000def0:    1840        @.      ADDS     r0,r0,r1
        0x0000def2:    6800        .h      LDR      r0,[r0,#0]
        0x0000def4:    4770        pG      BX       lr
        0x0000def6:    0000        ..      MOVS     r0,r0
    main
        0x0000def8:    f24864a0    H..d    MOV      r4,#0x86a0
        0x0000defc:    2000        .       MOVS     r0,#0
        0x0000defe:    2100        .!      MOVS     r1,#0
        0x0000df00:    f2c00401    ....    MOVT     r4,#1
        0x0000df04:    f7fefbb6    ....    BL       am_hal_clkgen_control ; 0xc674
        0x0000df08:    f24e5014    N..P    MOV      r0,#0xe514
        0x0000df0c:    f2c00000    ....    MOVT     r0,#0
        0x0000df10:    f7fefacb    ....    BL       am_hal_cachectrl_config ; 0xc4aa
        0x0000df14:    f7fefba4    ....    BL       am_hal_cachectrl_enable ; 0xc660
        0x0000df18:    f7fef9d8    ....    BL       am_bsp_low_power_init ; 0xc2cc
        0x0000df1c:    f7fefa1b    ....    BL       am_bsp_uart_printf_enable ; 0xc356
        0x0000df20:    f7fffbc2    ....    BL       am_util_stdio_terminal_clear ; 0xd6a8
        0x0000df24:    a026        &.      ADR      r0,{pc}+0x9c ; 0xdfc0
        0x0000df26:    f7fffb96    ....    BL       am_util_stdio_printf ; 0xd656
        0x0000df2a:    f64e300e    N..0    MOV      r0,#0xeb0e
        0x0000df2e:    f2c00000    ....    MOVT     r0,#0
        0x0000df32:    f7fffb90    ....    BL       am_util_stdio_printf ; 0xd656
        0x0000df36:    f64e3160    N.`1    MOV      r1,#0xeb60
        0x0000df3a:    a029        ).      ADR      r0,{pc}+0xa6 ; 0xdfe0
        0x0000df3c:    f2c00100    ....    MOVT     r1,#0
        0x0000df40:    f7fffb89    ....    BL       am_util_stdio_printf ; 0xd656
        0x0000df44:    f64e019a    N...    MOV      r1,#0xe89a
        0x0000df48:    a02b        +.      ADR      r0,{pc}+0xb0 ; 0xdff8
        0x0000df4a:    f2c00100    ....    MOVT     r1,#0
        0x0000df4e:    f7fffb82    ....    BL       am_util_stdio_printf ; 0xd656
        0x0000df52:    f64e004c    N.L.    MOV      r0,#0xe84c
        0x0000df56:    f2c00000    ....    MOVT     r0,#0
        0x0000df5a:    7843        Cx      LDRB     r3,[r0,#1]
        0x0000df5c:    7882        .x      LDRB     r2,[r0,#2]
        0x0000df5e:    78c1        .x      LDRB     r1,[r0,#3]
        0x0000df60:    a02b        +.      ADR      r0,{pc}+0xb0 ; 0xe010
        0x0000df62:    f7fffb78    ..x.    BL       am_util_stdio_printf ; 0xd656
        0x0000df66:    f2471500    G...    MOVW     r5,#0x7100
        0x0000df6a:    f64e28bb    N..(    MOV      r8,#0xeabb
        0x0000df6e:    f64e29e1    N..)    MOV      r9,#0xeae1
        0x0000df72:    f2c00502    ....    MOVT     r5,#2
        0x0000df76:    f2425778    B.xW    MOV      r7,#0x2578
        0x0000df7a:    f2c00800    ....    MOVT     r8,#0
        0x0000df7e:    f2c00900    ....    MOVT     r9,#0
        0x0000df82:    bf00        ..      NOP      
        0x0000df84:    4628        (F      MOV      r0,r5
        0x0000df86:    f7fefc11    ....    BL       am_hal_flash_delay ; 0xc7ac
        0x0000df8a:    f7fef9c2    ....    BL       am_bsp_uart_printf_disable ; 0xc312
        0x0000df8e:    f000f970    ..p.    BL       set_for_min_power ; 0xe272
        0x0000df92:    4620         F      MOV      r0,r4
        0x0000df94:    2100        .!      MOVS     r1,#0
        0x0000df96:    2201        ."      MOVS     r2,#1
        0x0000df98:    f000f848    ..H.    BL       prime_number ; 0xe02c
        0x0000df9c:    4606        .F      MOV      r6,r0
        0x0000df9e:    f7fef9da    ....    BL       am_bsp_uart_printf_enable ; 0xc356
        0x0000dfa2:    42be        .B      CMP      r6,r7
        0x0000dfa4:    d106        ..      BNE      0xdfb4 ; main + 188
        0x0000dfa6:    4640        @F      MOV      r0,r8
        0x0000dfa8:    4621        !F      MOV      r1,r4
        0x0000dfaa:    f2425278    B.xR    MOV      r2,#0x2578
        0x0000dfae:    f7fffb52    ..R.    BL       am_util_stdio_printf ; 0xd656
        0x0000dfb2:    e7e7        ..      B        0xdf84 ; main + 140
        0x0000dfb4:    4648        HF      MOV      r0,r9
        0x0000dfb6:    4621        !F      MOV      r1,r4
        0x0000dfb8:    4632        2F      MOV      r2,r6
        0x0000dfba:    f7fffb4c    ..L.    BL       am_util_stdio_printf ; 0xd656
        0x0000dfbe:    e7e1        ..      B        0xdf84 ; main + 140
    $d.2
        0x0000dfc0:    69626d41    Ambi    DCD    1768058177
        0x0000dfc4:    694d2071    q Mi    DCD    1766662257
        0x0000dfc8:    206f7263    cro     DCD    544174691
        0x0000dfcc:    69727027    'pri    DCD    1769107495
        0x0000dfd0:    2027656d    me'     DCD    539452781
        0x0000dfd4:    6d617865    exam    DCD    1835104357
        0x0000dfd8:    2e656c70    ple.    DCD    778398832
        0x0000dfdc:    00000a0a    ....    DCD    2570
        0x0000dfe0:    20707041    App     DCD    544239681
        0x0000dfe4:    706d6f43    Comp    DCD    1886220099
        0x0000dfe8:    72656c69    iler    DCD    1919249513
        0x0000dfec:    2020203a    :       DCD    538976314
        0x0000dff0:    0a732520     %s.    DCD    175318304
        0x0000dff4:    00000000    ....    DCD    0
        0x0000dff8:    204c4148    HAL     DCD    541868360
        0x0000dffc:    706d6f43    Comp    DCD    1886220099
        0x0000e000:    72656c69    iler    DCD    1919249513
        0x0000e004:    2020203a    :       DCD    538976314
        0x0000e008:    0a732520     %s.    DCD    175318304
        0x0000e00c:    00000000    ....    DCD    0
        0x0000e010:    204c4148    HAL     DCD    541868360
        0x0000e014:    204b4453    SDK     DCD    541803603
        0x0000e018:    73726576    vers    DCD    1936876918
        0x0000e01c:    3a6e6f69    ion:    DCD    980316009
        0x0000e020:    2e642520     %d.    DCD    778315040
        0x0000e024:    252e6425    %d.%    DCD    623797285
        0x0000e028:    00000a64    d...    DCD    2660
    $t.0
    prime_number
        0x0000e02c:    b5b0        ..      PUSH     {r4,r5,r7,lr}
        0x0000e02e:    f1010e02    ....    ADD      lr,r1,#2
        0x0000e032:    f04f0c00    O...    MOV      r12,#0
        0x0000e036:    4586        .E      CMP      lr,r0
        0x0000e038:    dc16        ..      BGT      0xe068 ; prime_number + 60
        0x0000e03a:    bf00        ..      NOP      
        0x0000e03c:    f1be0f03    ....    CMP      lr,#3
        0x0000e040:    db09        ..      BLT      0xe056 ; prime_number + 42
        0x0000e042:    2300        .#      MOVS     r3,#0
        0x0000e044:    1c9c        ..      ADDS     r4,r3,#2
        0x0000e046:    fb9ef5f4    ....    SDIV     r5,lr,r4
        0x0000e04a:    fb05e414    ....    MLS      r4,r5,r4,lr
        0x0000e04e:    b12c        ,.      CBZ      r4,0xe05c ; prime_number + 48
        0x0000e050:    3301        .3      ADDS     r3,#1
        0x0000e052:    4299        .B      CMP      r1,r3
        0x0000e054:    d1f6        ..      BNE      0xe044 ; prime_number + 24
        0x0000e056:    2301        .#      MOVS     r3,#1
        0x0000e058:    e001        ..      B        0xe05e ; prime_number + 50
        0x0000e05a:    bf00        ..      NOP      
        0x0000e05c:    2300        .#      MOVS     r3,#0
        0x0000e05e:    4496        .D      ADD      lr,lr,r2
        0x0000e060:    449c        .D      ADD      r12,r12,r3
        0x0000e062:    4586        .E      CMP      lr,r0
        0x0000e064:    4411        .D      ADD      r1,r1,r2
        0x0000e066:    dde9        ..      BLE      0xe03c ; prime_number + 16
        0x0000e068:    4660        `F      MOV      r0,r12
        0x0000e06a:    bdb0        ..      POP      {r4,r5,r7,pc}
    read_nonblocking
        0x0000e06c:    e92d41f0    -..A    PUSH     {r4-r8,lr}
        0x0000e070:    b1d0        ..      CBZ      r0,0xe0a8 ; read_nonblocking + 60
        0x0000e072:    4604        .F      MOV      r4,r0
        0x0000e074:    6800        .h      LDR      r0,[r0,#0]
        0x0000e076:    460e        .F      MOV      r6,r1
        0x0000e078:    f6496106    I..a    MOV      r1,#0x9e06
        0x0000e07c:    f020407e     .~@    BIC      r0,r0,#0xfe000000
        0x0000e080:    f2c011ea    ....    MOVT     r1,#0x1ea
        0x0000e084:    4288        .B      CMP      r0,r1
        0x0000e086:    d10f        ..      BNE      0xe0a8 ; read_nonblocking + 60
        0x0000e088:    4698        .F      MOV      r8,r3
        0x0000e08a:    4615        .F      MOV      r5,r2
        0x0000e08c:    b113        ..      CBZ      r3,0xe094 ; read_nonblocking + 40
        0x0000e08e:    2000        .       MOVS     r0,#0
        0x0000e090:    f8c80000    ....    STR      r0,[r8,#0]
        0x0000e094:    b15d        ].      CBZ      r5,0xe0ae ; read_nonblocking + 66
        0x0000e096:    f8940044    ..D.    LDRB     r0,[r4,#0x44]
        0x0000e09a:    b158        X.      CBZ      r0,0xe0b4 ; read_nonblocking + 72
        0x0000e09c:    4620         F      MOV      r0,r4
        0x0000e09e:    f000f835    ..5.    BL       rx_queue_update ; 0xe10c
        0x0000e0a2:    b1e8        ..      CBZ      r0,0xe0e0 ; read_nonblocking + 116
        0x0000e0a4:    e8bd81f0    ....    POP      {r4-r8,pc}
        0x0000e0a8:    2002        .       MOVS     r0,#2
        0x0000e0aa:    e8bd81f0    ....    POP      {r4-r8,pc}
        0x0000e0ae:    2000        .       MOVS     r0,#0
        0x0000e0b0:    e8bd81f0    ....    POP      {r4-r8,pc}
        0x0000e0b4:    6a60        `j      LDR      r0,[r4,#0x24]
        0x0000e0b6:    f24c0100    L...    MOVW     r1,#0xc000
        0x0000e0ba:    f2c40101    ....    MOVT     r1,#0x4001
        0x0000e0be:    eb013000    ...0    ADD      r0,r1,r0,LSL #12
        0x0000e0c2:    2700        .'      MOVS     r7,#0
        0x0000e0c4:    6981        .i      LDR      r1,[r0,#0x18]
        0x0000e0c6:    06c9        ..      LSLS     r1,r1,#27
        0x0000e0c8:    d414        ..      BMI      0xe0f4 ; read_nonblocking + 136
        0x0000e0ca:    6801        .h      LDR      r1,[r0,#0]
        0x0000e0cc:    f4116f70    ..po    TST      r1,#0xf00
        0x0000e0d0:    d112        ..      BNE      0xe0f8 ; read_nonblocking + 140
        0x0000e0d2:    55f1        .U      STRB     r1,[r6,r7]
        0x0000e0d4:    3701        .7      ADDS     r7,#1
        0x0000e0d6:    42bd        .B      CMP      r5,r7
        0x0000e0d8:    d1f4        ..      BNE      0xe0c4 ; read_nonblocking + 88
        0x0000e0da:    2000        .       MOVS     r0,#0
        0x0000e0dc:    462f        /F      MOV      r7,r5
        0x0000e0de:    e00d        ..      B        0xe0fc ; read_nonblocking + 144
        0x0000e0e0:    6d27        'm      LDR      r7,[r4,#0x50]
        0x0000e0e2:    f1040048    ..H.    ADD      r0,r4,#0x48
        0x0000e0e6:    42af        .B      CMP      r7,r5
        0x0000e0e8:    bf88        ..      IT       HI
        0x0000e0ea:    462f        /F      MOVHI    r7,r5
        0x0000e0ec:    4631        1F      MOV      r1,r6
        0x0000e0ee:    463a        :F      MOV      r2,r7
        0x0000e0f0:    f7feffb2    ....    BL       am_hal_queue_item_get ; 0xd058
        0x0000e0f4:    2000        .       MOVS     r0,#0
        0x0000e0f6:    e001        ..      B        0xe0fc ; read_nonblocking + 144
        0x0000e0f8:    f04f6000    O..`    MOV      r0,#0x8000000
        0x0000e0fc:    f1b80f00    ....    CMP      r8,#0
        0x0000e100:    bf18        ..      IT       NE
        0x0000e102:    f8c87000    ...p    STRNE    r7,[r8,#0]
        0x0000e106:    e8bd81f0    ....    POP      {r4-r8,pc}
        0x0000e10a:    0000        ..      MOVS     r0,r0
    rx_queue_update
        0x0000e10c:    b510        ..      PUSH     {r4,lr}
        0x0000e10e:    b08a        ..      SUB      sp,sp,#0x28
        0x0000e110:    4604        .F      MOV      r4,r0
        0x0000e112:    f7fefd05    ....    BL       am_hal_interrupt_master_disable ; 0xcb20
        0x0000e116:    9001        ..      STR      r0,[sp,#4]
        0x0000e118:    6a60        `j      LDR      r0,[r4,#0x24]
        0x0000e11a:    f24c0100    L...    MOVW     r1,#0xc000
        0x0000e11e:    f2c40101    ....    MOVT     r1,#0x4001
        0x0000e122:    eb013000    ...0    ADD      r0,r1,r0,LSL #12
        0x0000e126:    2200        ."      MOVS     r2,#0
        0x0000e128:    a902        ..      ADD      r1,sp,#8
        0x0000e12a:    bf00        ..      NOP      
        0x0000e12c:    6983        .i      LDR      r3,[r0,#0x18]
        0x0000e12e:    06db        ..      LSLS     r3,r3,#27
        0x0000e130:    d408        ..      BMI      0xe144 ; rx_queue_update + 56
        0x0000e132:    6803        .h      LDR      r3,[r0,#0]
        0x0000e134:    f4136f70    ..po    TST      r3,#0xf00
        0x0000e138:    d110        ..      BNE      0xe15c ; rx_queue_update + 80
        0x0000e13a:    548b        .T      STRB     r3,[r1,r2]
        0x0000e13c:    3201        .2      ADDS     r2,#1
        0x0000e13e:    2a20         *      CMP      r2,#0x20
        0x0000e140:    d1f4        ..      BNE      0xe12c ; rx_queue_update + 32
        0x0000e142:    2220         "      MOVS     r2,#0x20
        0x0000e144:    f1040048    ..H.    ADD      r0,r4,#0x48
        0x0000e148:    a902        ..      ADD      r1,sp,#8
        0x0000e14a:    f7feff51    ..Q.    BL       am_hal_queue_item_add ; 0xcff0
        0x0000e14e:    2401        .$      MOVS     r4,#1
        0x0000e150:    f6c00400    ....    MOVT     r4,#0x800
        0x0000e154:    2800        .(      CMP      r0,#0
        0x0000e156:    bf18        ..      IT       NE
        0x0000e158:    2400        .$      MOVNE    r4,#0
        0x0000e15a:    e001        ..      B        0xe160 ; rx_queue_update + 84
        0x0000e15c:    f04f6400    O..d    MOV      r4,#0x8000000
        0x0000e160:    9801        ..      LDR      r0,[sp,#4]
        0x0000e162:    f7fefce1    ....    BL       am_hal_interrupt_master_set ; 0xcb28
        0x0000e166:    4620         F      MOV      r0,r4
        0x0000e168:    b00a        ..      ADD      sp,sp,#0x28
        0x0000e16a:    bd10        ..      POP      {r4,pc}
    set_LPMMODE
        0x0000e16c:    e92d41f0    -..A    PUSH     {r4-r8,lr}
        0x0000e170:    b082        ..      SUB      sp,sp,#8
        0x0000e172:    4680        .F      MOV      r8,r0
        0x0000e174:    2803        .(      CMP      r0,#3
        0x0000e176:    d81e        ..      BHI      0xe1b6 ; set_LPMMODE + 74
        0x0000e178:    f44f5040    O.@P    MOV      r0,#0x3000
        0x0000e17c:    f2481400    H...    MOVW     r4,#0x8100
        0x0000e180:    ea003608    ...6    AND      r6,r0,r8,LSL #12
        0x0000e184:    2700        .'      MOVS     r7,#0
        0x0000e186:    f2c40401    ....    MOVT     r4,#0x4001
        0x0000e18a:    bf00        ..      NOP      
        0x0000e18c:    193d        =.      ADDS     r5,r7,r4
        0x0000e18e:    f7fefcc7    ....    BL       am_hal_interrupt_master_disable ; 0xcb20
        0x0000e192:    9001        ..      STR      r0,[sp,#4]
        0x0000e194:    4628        (F      MOV      r0,r5
        0x0000e196:    f7fefb57    ..W.    BL       am_hal_flash_load_ui32 ; 0xc848
        0x0000e19a:    f420507c     .|P    BIC      r0,r0,#0x3f00
        0x0000e19e:    4330        0C      ORRS     r0,r0,r6
        0x0000e1a0:    f44061e0    @..a    ORR      r1,r0,#0x700
        0x0000e1a4:    4628        (F      MOV      r0,r5
        0x0000e1a6:    f7fefb53    ..S.    BL       am_hal_flash_store_ui32 ; 0xc850
        0x0000e1aa:    9801        ..      LDR      r0,[sp,#4]
        0x0000e1ac:    f7fefcbc    ....    BL       am_hal_interrupt_master_set ; 0xcb28
        0x0000e1b0:    3704        .7      ADDS     r7,#4
        0x0000e1b2:    2f10        ./      CMP      r7,#0x10
        0x0000e1b4:    d1ea        ..      BNE      0xe18c ; set_LPMMODE + 32
        0x0000e1b6:    2000        .       MOVS     r0,#0
        0x0000e1b8:    f1b80f04    ....    CMP      r8,#4
        0x0000e1bc:    bf38        8.      IT       CC
        0x0000e1be:    2001        .       MOVCC    r0,#1
        0x0000e1c0:    b002        ..      ADD      sp,sp,#8
        0x0000e1c2:    e8bd81f0    ....    POP      {r4-r8,pc}
        0x0000e1c6:    0000        ..      MOVS     r0,r0
    set_RDWAIT
        0x0000e1c8:    e92d41f0    -..A    PUSH     {r4-r8,lr}
        0x0000e1cc:    b082        ..      SUB      sp,sp,#8
        0x0000e1ce:    4604        .F      MOV      r4,r0
        0x0000e1d0:    280f        .(      CMP      r0,#0xf
        0x0000e1d2:    d81c        ..      BHI      0xe20e ; set_RDWAIT + 70
        0x0000e1d4:    f2481800    H...    MOVW     r8,#0x8100
        0x0000e1d8:    2600        .&      MOVS     r6,#0
        0x0000e1da:    f2c40801    ....    MOVT     r8,#0x4001
        0x0000e1de:    f640770f    @..w    MOV      r7,#0xf0f
        0x0000e1e2:    bf00        ..      NOP      
        0x0000e1e4:    eb060508    ....    ADD      r5,r6,r8
        0x0000e1e8:    f7fefc9a    ....    BL       am_hal_interrupt_master_disable ; 0xcb20
        0x0000e1ec:    9001        ..      STR      r0,[sp,#4]
        0x0000e1ee:    4628        (F      MOV      r0,r5
        0x0000e1f0:    f7fefb2a    ..*.    BL       am_hal_flash_load_ui32 ; 0xc848
        0x0000e1f4:    43b8        .C      BICS     r0,r0,r7
        0x0000e1f6:    4320         C      ORRS     r0,r0,r4
        0x0000e1f8:    f44061e0    @..a    ORR      r1,r0,#0x700
        0x0000e1fc:    4628        (F      MOV      r0,r5
        0x0000e1fe:    f7fefb27    ..'.    BL       am_hal_flash_store_ui32 ; 0xc850
        0x0000e202:    9801        ..      LDR      r0,[sp,#4]
        0x0000e204:    f7fefc90    ....    BL       am_hal_interrupt_master_set ; 0xcb28
        0x0000e208:    3604        .6      ADDS     r6,#4
        0x0000e20a:    2e10        ..      CMP      r6,#0x10
        0x0000e20c:    d1ea        ..      BNE      0xe1e4 ; set_RDWAIT + 28
        0x0000e20e:    2000        .       MOVS     r0,#0
        0x0000e210:    2c10        .,      CMP      r4,#0x10
        0x0000e212:    bf38        8.      IT       CC
        0x0000e214:    2001        .       MOVCC    r0,#1
        0x0000e216:    b002        ..      ADD      sp,sp,#8
        0x0000e218:    e8bd81f0    ....    POP      {r4-r8,pc}
    set_SEDELAY
        0x0000e21c:    e92d41f0    -..A    PUSH     {r4-r8,lr}
        0x0000e220:    b082        ..      SUB      sp,sp,#8
        0x0000e222:    4680        .F      MOV      r8,r0
        0x0000e224:    2807        .(      CMP      r0,#7
        0x0000e226:    d81c        ..      BHI      0xe262 ; set_SEDELAY + 70
        0x0000e228:    2070        p       MOVS     r0,#0x70
        0x0000e22a:    f2481400    H...    MOVW     r4,#0x8100
        0x0000e22e:    ea001608    ....    AND      r6,r0,r8,LSL #4
        0x0000e232:    2700        .'      MOVS     r7,#0
        0x0000e234:    f2c40401    ....    MOVT     r4,#0x4001
        0x0000e238:    193d        =.      ADDS     r5,r7,r4
        0x0000e23a:    f7fefc71    ..q.    BL       am_hal_interrupt_master_disable ; 0xcb20
        0x0000e23e:    9001        ..      STR      r0,[sp,#4]
        0x0000e240:    4628        (F      MOV      r0,r5
        0x0000e242:    f7fefb01    ....    BL       am_hal_flash_load_ui32 ; 0xc848
        0x0000e246:    f4206077     .w`    BIC      r0,r0,#0xf70
        0x0000e24a:    4330        0C      ORRS     r0,r0,r6
        0x0000e24c:    f50061e0    ...a    ADD      r1,r0,#0x700
        0x0000e250:    4628        (F      MOV      r0,r5
        0x0000e252:    f7fefafd    ....    BL       am_hal_flash_store_ui32 ; 0xc850
        0x0000e256:    9801        ..      LDR      r0,[sp,#4]
        0x0000e258:    f7fefc66    ..f.    BL       am_hal_interrupt_master_set ; 0xcb28
        0x0000e25c:    3704        .7      ADDS     r7,#4
        0x0000e25e:    2f10        ./      CMP      r7,#0x10
        0x0000e260:    d1ea        ..      BNE      0xe238 ; set_SEDELAY + 28
        0x0000e262:    2000        .       MOVS     r0,#0
        0x0000e264:    f1b80f08    ....    CMP      r8,#8
        0x0000e268:    bf38        8.      IT       CC
        0x0000e26a:    2001        .       MOVCC    r0,#1
        0x0000e26c:    b002        ..      ADD      sp,sp,#8
        0x0000e26e:    e8bd81f0    ....    POP      {r4-r8,pc}
    set_for_min_power
        0x0000e272:    b580        ..      PUSH     {r7,lr}
        0x0000e274:    f24e5014    N..P    MOV      r0,#0xe514
        0x0000e278:    f2c00000    ....    MOVT     r0,#0
        0x0000e27c:    f7fef915    ....    BL       am_hal_cachectrl_config ; 0xc4aa
        0x0000e280:    f7fef9ee    ....    BL       am_hal_cachectrl_enable ; 0xc660
        0x0000e284:    200e        .       MOVS     r0,#0xe
        0x0000e286:    f7fefde5    ....    BL       am_hal_pwrctrl_memory_enable ; 0xce54
        0x0000e28a:    2001        .       MOVS     r0,#1
        0x0000e28c:    f7fefde2    ....    BL       am_hal_pwrctrl_memory_enable ; 0xce54
        0x0000e290:    f244000c    D...    MOV      r0,#0x400c
        0x0000e294:    f2c40000    ....    MOVT     r0,#0x4000
        0x0000e298:    6801        .h      LDR      r1,[r0,#0]
        0x0000e29a:    f0410180    A...    ORR      r1,r1,#0x80
        0x0000e29e:    6001        .`      STR      r1,[r0,#0]
        0x0000e2a0:    f24c0008    L...    MOV      r0,#0xc008
        0x0000e2a4:    f2c40000    ....    MOVT     r0,#0x4000
        0x0000e2a8:    2137        7!      MOVS     r1,#0x37
        0x0000e2aa:    6001        .`      STR      r1,[r0,#0]
        0x0000e2ac:    f2410008    A...    MOV      r0,#0x1008
        0x0000e2b0:    f2c40002    ....    MOVT     r0,#0x4002
        0x0000e2b4:    2100        .!      MOVS     r1,#0
        0x0000e2b6:    6001        .`      STR      r1,[r0,#0]
        0x0000e2b8:    bd80        ..      POP      {r7,pc}
        0x0000e2ba:    0000        ..      MOVS     r0,r0
    tx_queue_update
        0x0000e2bc:    e92d41f0    -..A    PUSH     {r4-r8,lr}
        0x0000e2c0:    b082        ..      SUB      sp,sp,#8
        0x0000e2c2:    6a45        Ej      LDR      r5,[r0,#0x24]
        0x0000e2c4:    f24c0800    L...    MOVW     r8,#0xc000
        0x0000e2c8:    4604        .F      MOV      r4,r0
        0x0000e2ca:    f2c40801    ....    MOVT     r8,#0x4001
        0x0000e2ce:    f7fefc27    ..'.    BL       am_hal_interrupt_master_disable ; 0xcb20
        0x0000e2d2:    9000        ..      STR      r0,[sp,#0]
        0x0000e2d4:    eb083705    ...7    ADD      r7,r8,r5,LSL #12
        0x0000e2d8:    69b8        .i      LDR      r0,[r7,#0x18]
        0x0000e2da:    0680        ..      LSLS     r0,r0,#26
        0x0000e2dc:    d416        ..      BMI      0xe30c ; tx_queue_update + 80
        0x0000e2de:    f104052c    ..,.    ADD      r5,r4,#0x2c
        0x0000e2e2:    f10d0607    ....    ADD      r6,sp,#7
        0x0000e2e6:    bf00        ..      NOP      
        0x0000e2e8:    4628        (F      MOV      r0,r5
        0x0000e2ea:    4631        1F      MOV      r1,r6
        0x0000e2ec:    2201        ."      MOVS     r2,#1
        0x0000e2ee:    f7fefeb3    ....    BL       am_hal_queue_item_get ; 0xd058
        0x0000e2f2:    b158        X.      CBZ      r0,0xe30c ; tx_queue_update + 80
        0x0000e2f4:    6a60        `j      LDR      r0,[r4,#0x24]
        0x0000e2f6:    f89d1007    ....    LDRB     r1,[sp,#7]
        0x0000e2fa:    eb083000    ...0    ADD      r0,r8,r0,LSL #12
        0x0000e2fe:    6982        .i      LDR      r2,[r0,#0x18]
        0x0000e300:    0692        ..      LSLS     r2,r2,#26
        0x0000e302:    bf58        X.      IT       PL
        0x0000e304:    6001        .`      STRPL    r1,[r0,#0]
        0x0000e306:    69b8        .i      LDR      r0,[r7,#0x18]
        0x0000e308:    0680        ..      LSLS     r0,r0,#26
        0x0000e30a:    d5ed        ..      BPL      0xe2e8 ; tx_queue_update + 44
        0x0000e30c:    9800        ..      LDR      r0,[sp,#0]
        0x0000e30e:    f7fefc0b    ....    BL       am_hal_interrupt_master_set ; 0xcb28
        0x0000e312:    b002        ..      ADD      sp,sp,#8
        0x0000e314:    e8bd81f0    ....    POP      {r4-r8,pc}
    uint64_to_str
        0x0000e318:    b5f0        ..      PUSH     {r4-r7,lr}
        0x0000e31a:    b087        ..      SUB      sp,sp,#0x1c
        0x0000e31c:    4614        .F      MOV      r4,r2
        0x0000e31e:    4605        .F      MOV      r5,r0
        0x0000e320:    2000        .       MOVS     r0,#0
        0x0000e322:    f10d0603    ....    ADD      r6,sp,#3
        0x0000e326:    bf00        ..      NOP      
        0x0000e328:    4607        .F      MOV      r7,r0
        0x0000e32a:    4628        (F      MOV      r0,r5
        0x0000e32c:    f7fffd80    ....    BL       divu64_10 ; 0xde30
        0x0000e330:    4602        .F      MOV      r2,r0
        0x0000e332:    eb000080    ....    ADD      r0,r0,r0,LSL #2
        0x0000e336:    eba50040    ..@.    SUB      r0,r5,r0,LSL #1
        0x0000e33a:    f1000330    ..0.    ADD      r3,r0,#0x30
        0x0000e33e:    1c78        x.      ADDS     r0,r7,#1
        0x0000e340:    55f3        .U      STRB     r3,[r6,r7]
        0x0000e342:    ea520701    R...    ORRS     r7,r2,r1
        0x0000e346:    4615        .F      MOV      r5,r2
        0x0000e348:    d1ee        ..      BNE      0xe328 ; uint64_to_str + 16
        0x0000e34a:    b16c        l.      CBZ      r4,0xe368 ; uint64_to_str + 80
        0x0000e34c:    2801        .(      CMP      r0,#1
        0x0000e34e:    f8043b01    ...;    STRB     r3,[r4],#1
        0x0000e352:    d007        ..      BEQ      0xe364 ; uint64_to_str + 76
        0x0000e354:    1eb1        ..      SUBS     r1,r6,#2
        0x0000e356:    4602        .F      MOV      r2,r0
        0x0000e358:    5c8b        .\      LDRB     r3,[r1,r2]
        0x0000e35a:    3a01        .:      SUBS     r2,#1
        0x0000e35c:    2a01        .*      CMP      r2,#1
        0x0000e35e:    f8043b01    ...;    STRB     r3,[r4],#1
        0x0000e362:    d1f9        ..      BNE      0xe358 ; uint64_to_str + 64
        0x0000e364:    2100        .!      MOVS     r1,#0
        0x0000e366:    7021        !p      STRB     r1,[r4,#0]
        0x0000e368:    b007        ..      ADD      sp,sp,#0x1c
        0x0000e36a:    bdf0        ..      POP      {r4-r7,pc}
    write_nonblocking
        0x0000e36c:    b570        p.      PUSH     {r4-r6,lr}
        0x0000e36e:    b300        ..      CBZ      r0,0xe3b2 ; write_nonblocking + 70
        0x0000e370:    4605        .F      MOV      r5,r0
        0x0000e372:    6800        .h      LDR      r0,[r0,#0]
        0x0000e374:    461c        .F      MOV      r4,r3
        0x0000e376:    f6496306    I..c    MOV      r3,#0x9e06
        0x0000e37a:    f020407e     .~@    BIC      r0,r0,#0xfe000000
        0x0000e37e:    f2c013ea    ....    MOVT     r3,#0x1ea
        0x0000e382:    4298        .B      CMP      r0,r3
        0x0000e384:    d115        ..      BNE      0xe3b2 ; write_nonblocking + 70
        0x0000e386:    b10c        ..      CBZ      r4,0xe38c ; write_nonblocking + 32
        0x0000e388:    2000        .       MOVS     r0,#0
        0x0000e38a:    6020         `      STR      r0,[r4,#0]
        0x0000e38c:    b33a        :.      CBZ      r2,0xe3de ; write_nonblocking + 114
        0x0000e38e:    f8950028    ..(.    LDRB     r0,[r5,#0x28]
        0x0000e392:    b180        ..      CBZ      r0,0xe3b6 ; write_nonblocking + 74
        0x0000e394:    6b6b        kk      LDR      r3,[r5,#0x34]
        0x0000e396:    6bae        .k      LDR      r6,[r5,#0x38]
        0x0000e398:    f105002c    ..,.    ADD      r0,r5,#0x2c
        0x0000e39c:    1af6        ..      SUBS     r6,r6,r3
        0x0000e39e:    4296        .B      CMP      r6,r2
        0x0000e3a0:    bf88        ..      IT       HI
        0x0000e3a2:    4616        .F      MOVHI    r6,r2
        0x0000e3a4:    4632        2F      MOV      r2,r6
        0x0000e3a6:    f7fefe23    ..#.    BL       am_hal_queue_item_add ; 0xcff0
        0x0000e3aa:    4628        (F      MOV      r0,r5
        0x0000e3ac:    f7ffff86    ....    BL       tx_queue_update ; 0xe2bc
        0x0000e3b0:    e013        ..      B        0xe3da ; write_nonblocking + 110
        0x0000e3b2:    2002        .       MOVS     r0,#2
        0x0000e3b4:    bd70        p.      POP      {r4-r6,pc}
        0x0000e3b6:    6a68        hj      LDR      r0,[r5,#0x24]
        0x0000e3b8:    f24c0300    L...    MOVW     r3,#0xc000
        0x0000e3bc:    f2c40301    ....    MOVT     r3,#0x4001
        0x0000e3c0:    eb033000    ...0    ADD      r0,r3,r0,LSL #12
        0x0000e3c4:    2600        .&      MOVS     r6,#0
        0x0000e3c6:    bf00        ..      NOP      
        0x0000e3c8:    6983        .i      LDR      r3,[r0,#0x18]
        0x0000e3ca:    069b        ..      LSLS     r3,r3,#26
        0x0000e3cc:    d405        ..      BMI      0xe3da ; write_nonblocking + 110
        0x0000e3ce:    5d8b        .]      LDRB     r3,[r1,r6]
        0x0000e3d0:    3601        .6      ADDS     r6,#1
        0x0000e3d2:    42b2        .B      CMP      r2,r6
        0x0000e3d4:    6003        .`      STR      r3,[r0,#0]
        0x0000e3d6:    d1f7        ..      BNE      0xe3c8 ; write_nonblocking + 92
        0x0000e3d8:    4616        .F      MOV      r6,r2
        0x0000e3da:    b104        ..      CBZ      r4,0xe3de ; write_nonblocking + 114
        0x0000e3dc:    6026        &`      STR      r6,[r4,#0]
        0x0000e3de:    2000        .       MOVS     r0,#0
        0x0000e3e0:    bd70        p.      POP      {r4-r6,pc}
        0x0000e3e2:    0000        ..      MOVS     r0,r0
    $t
    x$fpl$d2f
    $v0
    __aeabi_d2f
    _d2f
        0x0000e3e4:    f0214200    !..B    BIC      r2,r1,#0x80000000
        0x0000e3e8:    f0014300    ...C    AND      r3,r1,#0x80000000
        0x0000e3ec:    f1a25260    ..`R    SUB      r2,r2,#0x38000000
        0x0000e3f0:    f5b21f80    ....    CMP      r2,#0x100000
        0x0000e3f4:    bf28        (.      IT       CS
        0x0000e3f6:    f1d26c7f    ...l    RSBSCS   r12,r2,#0xff00000
        0x0000e3fa:    d90b        ..      BLS      0xe414 ; __aeabi_d2f + 48
        0x0000e3fc:    ea5f1c00    _...    LSLS     r12,r0,#4
        0x0000e400:    ea4302c2    C...    ORR      r2,r3,r2,LSL #3
        0x0000e404:    eb427050    B.Pp    ADC      r0,r2,r0,LSR #29
        0x0000e408:    bf18        ..      IT       NE
        0x0000e40a:    4770        pG      BXNE     lr
        0x0000e40c:    bf28        (.      IT       CS
        0x0000e40e:    f0200001     ...    BICCS    r0,r0,#1
        0x0000e412:    4770        pG      BX       lr
        0x0000e414:    f5b21f80    ....    CMP      r2,#0x100000
        0x0000e418:    bfbc        ..      ITT      LT
        0x0000e41a:    4618        .F      MOVLT    r0,r3
        0x0000e41c:    4770        pG      BXLT     lr
        0x0000e41e:    ea4f0c41    O.A.    LSL      r12,r1,#1
        0x0000e422:    f51c1f00    ....    CMN      r12,#0x200000
        0x0000e426:    d202        ..      BCS      0xe42e ; __aeabi_d2f + 74
        0x0000e428:    4608        .F      MOV      r0,r1
        0x0000e42a:    f000b867    ..g.    B.W      __fpl_fretinf ; 0xe4fc
        0x0000e42e:    b570        p.      PUSH     {r4-r6,lr}
        0x0000e430:    f000f809    ....    BL       __fpl_dnaninf ; 0xe446
    $d
        0x0000e434:    89000000    ....    DCD    2298478592
    $t
        0x0000e438:    f7ffbff6    ....    B.W      0xe428 ; __aeabi_d2f + 68
        0x0000e43c:    f04f4000    O..@    MOV      r0,#0x80000000
        0x0000e440:    f5a00080    ....    SUB      r0,r0,#0x400000
        0x0000e444:    4770        pG      BX       lr
    x$fpl$dnaninf
    $v0
    __fpl_dnaninf
        0x0000e446:    f10e0e02    ....    ADD      lr,lr,#2
        0x0000e44a:    f02e0e03    ....    BIC      lr,lr,#3
        0x0000e44e:    f85e6b04    ^..k    LDR      r6,[lr],#4
        0x0000e452:    4236        6B      TST      r6,r6
        0x0000e454:    d405        ..      BMI      0xe462 ; __fpl_dnaninf + 28
        0x0000e456:    2a01        .*      CMP      r2,#1
        0x0000e458:    eb430503    C...    ADC      r5,r3,r3
        0x0000e45c:    f5151f00    ....    CMN      r5,#0x200000
        0x0000e460:    d812        ..      BHI      0xe488 ; __fpl_dnaninf + 66
        0x0000e462:    2801        .(      CMP      r0,#1
        0x0000e464:    eb410c01    A...    ADC      r12,r1,r1
        0x0000e468:    f51c1f00    ....    CMN      r12,#0x200000
        0x0000e46c:    d80c        ..      BHI      0xe488 ; __fpl_dnaninf + 66
        0x0000e46e:    d10e        ..      BNE      0xe48e ; __fpl_dnaninf + 72
        0x0000e470:    ea4f7cd1    O..|    LSR      r12,r1,#31
        0x0000e474:    eb0c0c4c    ..L.    ADD      r12,r12,r12,LSL #1
        0x0000e478:    f10c0c02    ....    ADD      r12,r12,#2
        0x0000e47c:    f5151f00    ....    CMN      r5,#0x200000
        0x0000e480:    bf08        ..      IT       EQ
        0x0000e482:    eb4c7cd3    L..|    ADCEQ    r12,r12,r3,LSR #31
        0x0000e486:    e004        ..      B        0xe492 ; __fpl_dnaninf + 76
        0x0000e488:    f04f0c08    O...    MOV      r12,#8
        0x0000e48c:    e001        ..      B        0xe492 ; __fpl_dnaninf + 76
        0x0000e48e:    ea4f7cd3    O..|    LSR      r12,r3,#31
        0x0000e492:    eb0c054c    ..L.    ADD      r5,r12,r12,LSL #1
        0x0000e496:    fa26f605    &...    LSR      r6,r6,r5
        0x0000e49a:    f0060607    ....    AND      r6,r6,#7
        0x0000e49e:    f1b60c04    ....    SUBS     r12,r6,#4
        0x0000e4a2:    d206        ..      BCS      0xe4b2 ; __fpl_dnaninf + 108
        0x0000e4a4:    eb0e0c86    ....    ADD      r12,lr,r6,LSL #2
        0x0000e4a8:    e8bd4070    ..p@    POP      {r4-r6,lr}
        0x0000e4ac:    f04c0c01    L...    ORR      r12,r12,#1
        0x0000e4b0:    4760        `G      BX       r12
        0x0000e4b2:    e8dff00c    ....    TBB      [pc,r12]
    $d
        0x0000e4b6:    0b09        ..      DCW    2825
        0x0000e4b8:    0202        ..      DCW    514
    $t
        0x0000e4ba:    f04f4100    O..A    MOV      r1,#0x80000000
        0x0000e4be:    f5a12100    ...!    SUB      r1,r1,#0x80000
        0x0000e4c2:    f04f0000    O...    MOV      r0,#0
        0x0000e4c6:    bd70        p.      POP      {r4-r6,pc}
        0x0000e4c8:    4619        .F      MOV      r1,r3
        0x0000e4ca:    4610        .F      MOV      r0,r2
        0x0000e4cc:    2801        .(      CMP      r0,#1
        0x0000e4ce:    eb510401    Q...    ADCS     r4,r1,r1
        0x0000e4d2:    bf18        ..      IT       NE
        0x0000e4d4:    f5d41400    ....    RSBSNE   r4,r4,#0x200000
        0x0000e4d8:    bf84        ..      ITT      HI
        0x0000e4da:    2000        .       MOVHI    r0,#0
        0x0000e4dc:    f0014100    ...A    ANDHI    r1,r1,#0x80000000
        0x0000e4e0:    bd70        p.      POP      {r4-r6,pc}
    x$fpl$fpinit
    $v0
    _fp_init
        0x0000e4e2:    eef10a10    ....    VMRS     r0,FPSCR
        0x0000e4e6:    f64f71ff    O..q    MOV      r1,#0xffff
        0x0000e4ea:    f2c031c0    ...1    MOVT     r1,#0x3c0
        0x0000e4ee:    ea200001     ...    BIC      r0,r0,r1
        0x0000e4f2:    f0407040    @.@p    ORR      r0,r0,#0x3000000
        0x0000e4f6:    eee10a10    ....    VMSR     FPSCR,r0
    __fplib_config_fpu_vfp
    __fplib_config_pureend_doubles
        0x0000e4fa:    4770        pG      BX       lr
    x$fpl$fretinf
    $v0
    __fpl_fretinf
        0x0000e4fc:    21ff        .!      MOVS     r1,#0xff
        0x0000e4fe:    ea4150d0    A..P    ORR      r0,r1,r0,LSR #23
        0x0000e502:    05c0        ..      LSLS     r0,r0,#23
        0x0000e504:    4770        pG      BX       lr
    x$fpl$usenofp
    __I$use$fp
        0x0000e506:    0000        ..      MOVS     r0,r0
    $d.realdata
    .L__const.am_hal_flash_store_ui32.SRAM_write_ui32
        0x0000e508:    bf006001    .`..    DCD    3204472833
        0x0000e50c:    bf006800    .h..    DCD    3204474880
        0x0000e510:    bf004770    pG..    DCD    3204466544
    am_hal_cachectrl_defaults
        0x0000e514:    00000308    ....    DCD    776
    am_hal_pwrctrl_memory_control
        0x0000e518:    00000000    ....    DCD    0
        0x0000e51c:    00000000    ....    DCD    0
        0x0000e520:    00000000    ....    DCD    0
        0x0000e524:    00000000    ....    DCD    0
        0x0000e528:    00000000    ....    DCD    0
        0x0000e52c:    00000000    ....    DCD    0
        0x0000e530:    00000001    ....    DCD    1
        0x0000e534:    00000001    ....    DCD    1
        0x0000e538:    00000001    ....    DCD    1
        0x0000e53c:    00001fff    ....    DCD    8191
        0x0000e540:    00001fff    ....    DCD    8191
        0x0000e544:    00000001    ....    DCD    1
        0x0000e548:    00000003    ....    DCD    3
        0x0000e54c:    00000003    ....    DCD    3
        0x0000e550:    00000003    ....    DCD    3
        0x0000e554:    00001fff    ....    DCD    8191
        0x0000e558:    00001fff    ....    DCD    8191
        0x0000e55c:    00000003    ....    DCD    3
        0x0000e560:    00000007    ....    DCD    7
        0x0000e564:    00000007    ....    DCD    7
        0x0000e568:    00000007    ....    DCD    7
        0x0000e56c:    00001fff    ....    DCD    8191
        0x0000e570:    00001fff    ....    DCD    8191
        0x0000e574:    00000007    ....    DCD    7
        0x0000e578:    0000000f    ....    DCD    15
        0x0000e57c:    0000000f    ....    DCD    15
        0x0000e580:    0000000f    ....    DCD    15
        0x0000e584:    00001fff    ....    DCD    8191
        0x0000e588:    00001fff    ....    DCD    8191
        0x0000e58c:    0000000f    ....    DCD    15
        0x0000e590:    0000001f    ....    DCD    31
        0x0000e594:    0000001f    ....    DCD    31
        0x0000e598:    0000001f    ....    DCD    31
        0x0000e59c:    00001fff    ....    DCD    8191
        0x0000e5a0:    00001fff    ....    DCD    8191
        0x0000e5a4:    0000001f    ....    DCD    31
        0x0000e5a8:    0000003f    ?...    DCD    63
        0x0000e5ac:    0000003f    ?...    DCD    63
        0x0000e5b0:    0000003f    ?...    DCD    63
        0x0000e5b4:    00001fff    ....    DCD    8191
        0x0000e5b8:    00001fff    ....    DCD    8191
        0x0000e5bc:    0000003f    ?...    DCD    63
        0x0000e5c0:    0000007f    ....    DCD    127
        0x0000e5c4:    0000007f    ....    DCD    127
        0x0000e5c8:    0000007f    ....    DCD    127
        0x0000e5cc:    00001fff    ....    DCD    8191
        0x0000e5d0:    00001fff    ....    DCD    8191
        0x0000e5d4:    0000007f    ....    DCD    127
        0x0000e5d8:    000000ff    ....    DCD    255
        0x0000e5dc:    000000ff    ....    DCD    255
        0x0000e5e0:    000000ff    ....    DCD    255
        0x0000e5e4:    00001fff    ....    DCD    8191
        0x0000e5e8:    00001fff    ....    DCD    8191
        0x0000e5ec:    000000ff    ....    DCD    255
        0x0000e5f0:    000001ff    ....    DCD    511
        0x0000e5f4:    000001ff    ....    DCD    511
        0x0000e5f8:    000001ff    ....    DCD    511
        0x0000e5fc:    00001fff    ....    DCD    8191
        0x0000e600:    00001fff    ....    DCD    8191
        0x0000e604:    000001ff    ....    DCD    511
        0x0000e608:    000003ff    ....    DCD    1023
        0x0000e60c:    000003ff    ....    DCD    1023
        0x0000e610:    000003ff    ....    DCD    1023
        0x0000e614:    00001fff    ....    DCD    8191
        0x0000e618:    00001fff    ....    DCD    8191
        0x0000e61c:    000003ff    ....    DCD    1023
        0x0000e620:    000007ff    ....    DCD    2047
        0x0000e624:    000007ff    ....    DCD    2047
        0x0000e628:    000007ff    ....    DCD    2047
        0x0000e62c:    00001fff    ....    DCD    8191
        0x0000e630:    00001fff    ....    DCD    8191
        0x0000e634:    000007ff    ....    DCD    2047
        0x0000e638:    00000fff    ....    DCD    4095
        0x0000e63c:    00000fff    ....    DCD    4095
        0x0000e640:    00000fff    ....    DCD    4095
        0x0000e644:    00001fff    ....    DCD    8191
        0x0000e648:    00001fff    ....    DCD    8191
        0x0000e64c:    00000fff    ....    DCD    4095
        0x0000e650:    00001fff    ....    DCD    8191
        0x0000e654:    00001fff    ....    DCD    8191
        0x0000e658:    00001fff    ....    DCD    8191
        0x0000e65c:    00001fff    ....    DCD    8191
        0x0000e660:    00001fff    ....    DCD    8191
        0x0000e664:    00001fff    ....    DCD    8191
        0x0000e668:    00002000    . ..    DCD    8192
        0x0000e66c:    00002000    . ..    DCD    8192
        0x0000e670:    00002000    . ..    DCD    8192
        0x0000e674:    00006000    .`..    DCD    24576
        0x0000e678:    00006000    .`..    DCD    24576
        0x0000e67c:    00002000    . ..    DCD    8192
        0x0000e680:    00006000    .`..    DCD    24576
        0x0000e684:    00006000    .`..    DCD    24576
        0x0000e688:    00006000    .`..    DCD    24576
        0x0000e68c:    00006000    .`..    DCD    24576
        0x0000e690:    00006000    .`..    DCD    24576
        0x0000e694:    00006000    .`..    DCD    24576
        0x0000e698:    c0000000    ....    DCD    3221225472
        0x0000e69c:    00000000    ....    DCD    0
        0x0000e6a0:    c0000000    ....    DCD    3221225472
        0x0000e6a4:    c0000000    ....    DCD    3221225472
        0x0000e6a8:    00000000    ....    DCD    0
        0x0000e6ac:    80000000    ....    DCD    2147483648
        0x0000e6b0:    c0007fff    ....    DCD    3221258239
        0x0000e6b4:    00007fff    ....    DCD    32767
        0x0000e6b8:    c0007fff    ....    DCD    3221258239
        0x0000e6bc:    c0007fff    ....    DCD    3221258239
        0x0000e6c0:    00007fff    ....    DCD    32767
        0x0000e6c4:    80007fff    ....    DCD    2147516415
    am_hal_pwrctrl_peripheral_control
        0x0000e6c8:    00000000    ....    DCD    0
        0x0000e6cc:    00000000    ....    DCD    0
        0x0000e6d0:    00000000    ....    DCD    0
        0x0000e6d4:    00000001    ....    DCD    1
        0x0000e6d8:    00000004    ....    DCD    4
        0x0000e6dc:    00000004    ....    DCD    4
        0x0000e6e0:    00000002    ....    DCD    2
        0x0000e6e4:    00000008    ....    DCD    8
        0x0000e6e8:    00000008    ....    DCD    8
        0x0000e6ec:    00000004    ....    DCD    4
        0x0000e6f0:    00000008    ....    DCD    8
        0x0000e6f4:    00000008    ....    DCD    8
        0x0000e6f8:    00000008    ....    DCD    8
        0x0000e6fc:    00000008    ....    DCD    8
        0x0000e700:    00000008    ....    DCD    8
        0x0000e704:    00000010    ....    DCD    16
        0x0000e708:    00000010    ....    DCD    16
        0x0000e70c:    00000010    ....    DCD    16
        0x0000e710:    00000020     ...    DCD    32
        0x0000e714:    00000010    ....    DCD    16
        0x0000e718:    00000010    ....    DCD    16
        0x0000e71c:    00000040    @...    DCD    64
        0x0000e720:    00000010    ....    DCD    16
        0x0000e724:    00000010    ....    DCD    16
        0x0000e728:    00000080    ....    DCD    128
        0x0000e72c:    00000004    ....    DCD    4
        0x0000e730:    00000004    ....    DCD    4
        0x0000e734:    00000100    ....    DCD    256
        0x0000e738:    00000004    ....    DCD    4
        0x0000e73c:    00000004    ....    DCD    4
        0x0000e740:    00000200    ....    DCD    512
        0x0000e744:    00000020     ...    DCD    32
        0x0000e748:    00000020     ...    DCD    32
        0x0000e74c:    00000400    ....    DCD    1024
        0x0000e750:    00000004    ....    DCD    4
        0x0000e754:    00000004    ....    DCD    4
        0x0000e758:    00000800    ....    DCD    2048
        0x0000e75c:    00000040    @...    DCD    64
        0x0000e760:    00000040    @...    DCD    64
        0x0000e764:    00001000    ....    DCD    4096
        0x0000e768:    00000040    @...    DCD    64
        0x0000e76c:    00000040    @...    DCD    64
        0x0000e770:    00002000    . ..    DCD    8192
        0x0000e774:    00000040    @...    DCD    64
        0x0000e778:    00000040    @...    DCD    64
        0x0000e77c:    00004000    .@..    DCD    16384
        0x0000e780:    00000080    ....    DCD    128
        0x0000e784:    00000080    ....    DCD    128
        0x0000e788:    00008000    ....    DCD    32768
        0x0000e78c:    00000100    ....    DCD    256
        0x0000e790:    00000100    ....    DCD    256
    g_AM_BSP_GPIO_COM_UART_RX
        0x0000e794:    00000000    ....    DCD    0
    g_AM_BSP_GPIO_COM_UART_TX
        0x0000e798:    00000000    ....    DCD    0
    g_AM_HAL_GPIO_DISABLE
        0x0000e79c:    00000003    ....    DCD    3
    g_AM_HAL_GPIO_OUTPUT
        0x0000e7a0:    00000403    ....    DCD    1027
    g_am_hal_mcuctrl_flash_size
        0x0000e7a4:    00004000    .@..    DCD    16384
        0x0000e7a8:    00008000    ....    DCD    32768
        0x0000e7ac:    00010000    ....    DCD    65536
        0x0000e7b0:    00020000    ....    DCD    131072
        0x0000e7b4:    00040000    ....    DCD    262144
        0x0000e7b8:    00080000    ....    DCD    524288
        0x0000e7bc:    00100000    ....    DCD    1048576
        0x0000e7c0:    00200000    .. .    DCD    2097152
        0x0000e7c4:    00180000    ....    DCD    1572864
        0x0000e7c8:    00000000    ....    DCD    0
        0x0000e7cc:    00000000    ....    DCD    0
        0x0000e7d0:    00000000    ....    DCD    0
        0x0000e7d4:    00000000    ....    DCD    0
        0x0000e7d8:    00000000    ....    DCD    0
        0x0000e7dc:    00000000    ....    DCD    0
        0x0000e7e0:    00000000    ....    DCD    0
    g_am_hal_mcuctrl_sram_size
        0x0000e7e4:    00004000    .@..    DCD    16384
        0x0000e7e8:    00008000    ....    DCD    32768
        0x0000e7ec:    00010000    ....    DCD    65536
        0x0000e7f0:    00020000    ....    DCD    131072
        0x0000e7f4:    00040000    ....    DCD    262144
        0x0000e7f8:    00080000    ....    DCD    524288
        0x0000e7fc:    00100000    ....    DCD    1048576
        0x0000e800:    00060000    ....    DCD    393216
        0x0000e804:    000c0000    ....    DCD    786432
        0x0000e808:    00000000    ....    DCD    0
        0x0000e80c:    00000000    ....    DCD    0
        0x0000e810:    00000000    ....    DCD    0
        0x0000e814:    00000000    ....    DCD    0
        0x0000e818:    00000000    ....    DCD    0
        0x0000e81c:    00000000    ....    DCD    0
        0x0000e820:    00000000    ....    DCD    0
    g_sBspUartConfig
        0x0000e824:    0001c200    ....    DCD    115200
        0x0000e828:    00000060    `...    DCD    96
        0x0000e82c:    00000000    ....    DCD    0
        0x0000e830:    00000000    ....    DCD    0
        0x0000e834:    00000000    ....    DCD    0
        0x0000e838:    00000012    ....    DCD    18
        0x0000e83c:    00000000    ....    DCD    0
        0x0000e840:    00000000    ....    DCD    0
        0x0000e844:    00000000    ....    DCD    0
        0x0000e848:    00000000    ....    DCD    0
    g_ui32HALversion
        0x0000e84c:    03010100    ....    DCD    50397440
    g_ui8Bit76Capabilities
        0x0000e850:    02800101    ....    DCD    41943297
        0x0000e854:    80010180    ....    DCD    2147549568
        0x0000e858:    80800101    ....    DCD    2155872513
        0x0000e85c:    80808080    ....    DCD    2155905152
        0x0000e860:    80808080    ....    DCD    2155905152
        0x0000e864:    80808008    ....    DCD    2155905032
        0x0000e868:    01800180    ....    DCD    25166208
        0x0000e86c:    80808080    ....    DCD    2155905152
        0x0000e870:    80808080    ....    DCD    2155905152
        0x0000e874:    01800402    ....    DCD    25166850
        0x0000e878:    01010401    ....    DCD    16843777
        0x0000e87c:    80808080    ....    DCD    2155905152
        0x0000e880:    80800101    ....    DCD    2155872513
        0x0000e884:    80808080    ....    DCD    2155905152
        0x0000e888:    80808080    ....    DCD    2155905152
        0x0000e88c:    80808080    ....    DCD    2155905152
        0x0000e890:    80808080    ....    DCD    2155905152
        0x0000e894:    80808080    ....    DCD    2155905152
        0x0000e898:    8080        ..      DCW    32896
    g_ui8HALcompiler
        0x0000e89a:    4347        GC      DCW    17223
        0x0000e89c:    6c432043    C Cl    DCD    1816338499
        0x0000e8a0:    20676e61    ang     DCD    543649377
        0x0000e8a4:    302e3331    13.0    DCD    808334129
        0x0000e8a8:    2820302e    .0 (    DCD    673198126
        0x0000e8ac:    3a687373    ssh:    DCD    979923827
        0x0000e8b0:    73642f2f    //ds    DCD    1935945519
        0x0000e8b4:    7265672d    -ger    DCD    1919248173
        0x0000e8b8:    2f746972    rit/    DCD    796158322
        0x0000e8bc:    636d7261    armc    DCD    1668117089
        0x0000e8c0:    69706d6f    ompi    DCD    1768975727
        0x0000e8c4:    2f72656c    ler/    DCD    796026220
        0x0000e8c8:    6d766c6c    llvm    DCD    1836477548
        0x0000e8cc:    6f72702d    -pro    DCD    1869770797
        0x0000e8d0:    7463656a    ject    DCD    1952671082
        0x0000e8d4:    35663120     1f5    DCD    895889696
        0x0000e8d8:    64303737    770d    DCD    1680881463
        0x0000e8dc:    32376636    6f72    DCD    842491446
        0x0000e8e0:    65346565    ee4e    DCD    1697932645
        0x0000e8e4:    31326162    ba21    DCD    825385314
        0x0000e8e8:    39303935    5909    DCD    959461685
        0x0000e8ec:    66626232    2bbf    DCD    1717723698
        0x0000e8f0:    62626334    4cbb    DCD    1650615092
        0x0000e8f4:    62393138    819b    DCD    1647915320
        0x0000e8f8:    33323365    e323    DCD    858927973
        0x0000e8fc:    2961        a)      DCW    10593
        0x0000e8fe:    00          .       DCB    0
    g_ui8Inpen
        0x0000e8ff:    23          #       DCB    35
        0x0000e900:    a1622723    #'b.    DCD    2707564323
        0x0000e904:    03108703    ....    DCD    51414787
        0x0000e908:    51e10053    S..Q    DCD    1373700179
        0x0000e90c:    05554181    .AU.    DCD    89473409
        0x0000e910:    014080c4    ..@.    DCD    21004484
        0x0000e914:    144140b1    .@A.    DCD    339820721
        0x0000e918:    0031a031    1.1.    DCD    3252273
        0x0000e91c:    911180f1    ....    DCD    2433843441
        0x0000e920:    e511c121    !...    DCD    3843146017
        0x0000e924:    37304511    .E07    DCD    925910289
        0x0000e928:    00313000    .01.    DCD    3223552
        0x0000e92c:    30400071    q.@0    DCD    809500785
        0x0000e930:    01010031    1...    DCD    16842801
        0x0000e934:    01010101    ....    DCD    16843009
        0x0000e938:    01010101    ....    DCD    16843009
        0x0000e93c:    01a050a0    .P..    DCD    27283616
        0x0000e940:    01010101    ....    DCD    16843009
        0x0000e944:    a0a0a0a0    ....    DCD    2694881440
        0x0000e948:    50          P       DCB    80
    g_ui8NCEtable
        0x0000e949:    a3a412      ...     DCB    163,164,18
        0x0000e94c:    a2a1a001    ....    DCD    2728501249
        0x0000e950:    b502b3a4    ....    DCD    3036853156
        0x0000e954:    85848392    ....    DCD    2240054162
        0x0000e958:    01949382    ....    DCD    26514306
        0x0000e95c:    ffffff91    ....    DCD    4294967185
        0x0000e960:    ffffffff    ....    DCD    4294967295
        0x0000e964:    951201ff    ....    DCD    2500985343
        0x0000e968:    02848300    ....    DCD    42238720
        0x0000e96c:    b5b40180    ....    DCD    3048472960
        0x0000e970:    11a4a3b2    ....    DCD    296002482
        0x0000e974:    82818000    ....    DCD    2189524992
        0x0000e978:    85028383    ....    DCD    2231534467
        0x0000e97c:    95949310    ....    DCD    2509542160
        0x0000e980:    a212a090    ....    DCD    2719129744
        0x0000e984:    b2b101a4    ....    DCD    2997944740
        0x0000e988:    b2028000    ....    DCD    2986508288
        0x0000e98c:    02919085    ....    DCD    43094149
        0x0000e990:    a2a10294    ....    DCD    2728460948
        0x0000e994:    b311b0a3    ....    DCD    3004280995
        0x0000e998:    95001200    ....    DCD    2499809792
        0x0000e99c:    02a4a392    ....    DCD    44344210
        0x0000e9a0:    b5b4b301    ....    DCD    3048518401
        0x0000e9a4:    82818002    ....    DCD    2189524994
        0x0000e9a8:    92019084    ....    DCD    2449576068
        0x0000e9ac:    a501a395    ....    DCD    2768348053
        0x0000e9b0:    b5b4b3a0    ....    DCD    3048518560
        0x0000e9b4:    008402b1    ....    DCD    8651441
        0x0000e9b8:    95949381    ....    DCD    2509542273
        0x0000e9bc:    a512a300    ....    DCD    2769462016
        0x0000e9c0:    02b400a1    ....    DCD    45351073
        0x0000e9c4:    820201b0    ....    DCD    2181169584
        0x0000e9c8:    01b19084    ....    DCD    28414084
        0x0000e9cc:    9211a010    ....    DCD    2450628624
        0x0000e9d0:    b202b0a5    ....    DCD    2986520741
        0x0000e9d4:    82810111    ....    DCD    2189492497
        0x0000e9d8:    95949302    ....    DCD    2509542146
        0x0000e9dc:    a5a49310    ....    DCD    2779026192
        0x0000e9e0:    12b1b000    ....    DCD    313634816
        0x0000e9e4:    ffffffb5    ....    DCD    4294967221
        0x0000e9e8:    ffffffff    ....    DCD    4294967295
        0x0000e9ec:    119102ff    ....    DCD    294716159
        0x0000e9f0:    82018010    ....    DCD    2181136400
        0x0000e9f4:    02919085    ....    DCD    43094149
        0x0000e9f8:    a200a010    ....    DCD    2717949968
        0x0000e9fc:    85b4b3a5    ....    DCD    2243212197
        0x0000ea00:    020183b1    ....    DCD    33653681
        0x0000ea04:    92811110    ....    DCD    2457932048
        0x0000ea08:    a2a10193    ....    DCD    2728460691
        0x0000ea0c:    b211b012    ....    DCD    2987503634
        0x0000ea10:    b2020181    ....    DCD    2986475905
        0x0000ea14:    9291a480    ....    DCD    2459018368
        0x0000ea18:    00a19080    ....    DCD    10588288
        0x0000ea1c:    02b1a092    ....    DCD    45195410
        0x0000ea20:    85840282    ....    DCD    2240021122
        0x0000ea24:    95008383    ....    DCD    2499838851
        0x0000ea28:    a5b4a384    ....    DCD    2780078980
        0x0000ea2c:    b5b40010    ....    DCD    3048472592
        0x0000ea30:    0081b390    ....    DCD    8500112
        0x0000ea34:    929111b5    ....    DCD    2458980789
        0x0000ea38:    a2a11000    ....    DCD    2728464384
        0x0000ea3c:    02b100b0    ....    DCD    45154480
        0x0000ea40:    85841001    ....    DCD    2240024577
        0x0000ea44:    02940111    ....    DCD    43254033
        0x0000ea48:    a5a48000    ....    DCD    2779021312
        0x0000ea4c:    a5009010    ....    DCD    2768277520
        0x0000ea50:    82810193    ....    DCD    2189492627
        0x0000ea54:    b291b094    ....    DCD    2995892372
        0x0000ea58:    a2008395    ....    DCD    2717942677
        0x0000ea5c:    00b193a0    ....    DCD    11637664
        0x0000ea60:    8502a301    ....    DCD    2231542529
        0x0000ea64:    b094b311    ....    DCD    2962535185
        0x0000ea68:    010200a1    ....    DCD    16908449
        0x0000ea6c:    b5b401a2    ....    DCD    3048472994
        0x0000ea70:    02          .       DCB    2
    g_ui8nCEpins
        0x0000ea71:    070707      ...     DCB    7,7,7
        0x0000ea74:    08080202    ....    DCD    134742530
        0x0000ea78:    02020200    ....    DCD    33686016
        0x0000ea7c:    01010101    ....    DCD    16843009
        0x0000ea80:    01010101    ....    DCD    16843009
        0x0000ea84:    01010101    ....    DCD    16843009
        0x0000ea88:    01010101    ....    DCD    16843009
        0x0000ea8c:    01010101    ....    DCD    16843009
        0x0000ea90:    01010101    ....    DCD    16843009
        0x0000ea94:    01010101    ....    DCD    16843009
        0x0000ea98:    01000808    ....    DCD    16779272
        0x0000ea9c:    01010101    ....    DCD    16843009
        0x0000eaa0:    01010101    ....    DCD    16843009
        0x0000eaa4:    01010101    ....    DCD    16843009
        0x0000eaa8:    01010101    ....    DCD    16843009
        0x0000eaac:    01010101    ....    DCD    16843009
        0x0000eab0:    01010101    ....    DCD    16843009
        0x0000eab4:    01010101    ....    DCD    16843009
        0x0000eab8:    0101        ..      DCW    257
        0x0000eaba:    01          .       DCB    1
    .L.str.6
        0x0000eabb:    50          P       DCB    80
        0x0000eabc:    3a737361    ass:    DCD    980644705
        0x0000eac0:    6d756e20     num    DCD    1836412448
        0x0000eac4:    20726562    ber     DCD    544367970
        0x0000eac8:    7020666f    of p    DCD    1881171567
        0x0000eacc:    656d6972    rime    DCD    1701669234
        0x0000ead0:    6f662073    s fo    DCD    1868963955
        0x0000ead4:    64252072    r %d    DCD    1680154738
        0x0000ead8:    20736920     is     DCD    544434464
        0x0000eadc:    0a2e6425    %d..    DCD    170812453
        0x0000eae0:    00          .       DCB    0
    .L.str.7
        0x0000eae1:    455252      ERR     DCB    69,82,82
        0x0000eae4:    203a524f    OR:     DCD    540693071
        0x0000eae8:    61766e49    Inva    DCD    1635151433
        0x0000eaec:    2064696c    lid     DCD    543451500
        0x0000eaf0:    75736572    resu    DCD    1970496882
        0x0000eaf4:    202e746c    lt.     DCD    539915372
        0x0000eaf8:    65707845    Expe    DCD    1701869637
        0x0000eafc:    64657463    cted    DCD    1684370531
        0x0000eb00:    2c642520     %d,    DCD    744760608
        0x0000eb04:    746f6720     got    DCD    1953457952
        0x0000eb08:    2e642520     %d.    DCD    778315040
        0x0000eb0c:    000a        ..      DCW    10
    .L.str.1
        0x0000eb0e:    7355        Us      DCW    29525
        0x0000eb10:    66206465    ed f    DCD    1713398885
        0x0000eb14:    6d20726f    or m    DCD    1830842991
        0x0000eb18:    75736165    easu    DCD    1970495845
        0x0000eb1c:    676e6972    ring    DCD    1735289202
        0x0000eb20:    776f7020     pow    DCD    2003791904
        0x0000eb24:    77207265    er w    DCD    1998615141
        0x0000eb28:    656c6968    hile    DCD    1701603688
        0x0000eb2c:    6d6f6320     com    DCD    1836016416
        0x0000eb30:    69747570    puti    DCD    1769239920
        0x0000eb34:    7420676e    ng t    DCD    1948280686
        0x0000eb38:    6e206568    he n    DCD    1847616872
        0x0000eb3c:    65626d75    umbe    DCD    1700949365
        0x0000eb40:    666f2072    r of    DCD    1718558834
        0x0000eb44:    69727020     pri    DCD    1769107488
        0x0000eb48:    6e20656d    me n    DCD    1847616877
        0x0000eb4c:    65626d75    umbe    DCD    1700949365
        0x0000eb50:    69207372    rs i    DCD    1763734386
        0x0000eb54:    2061206e    n a     DCD    543236206
        0x0000eb58:    676e6172    rang    DCD    1735287154
        0x0000eb5c:    000a2e65    e...    DCD    667237
    .L.str.3
        0x0000eb60:    20434347    GCC     DCD    541279047
        0x0000eb64:    6e616c43    Clan    DCD    1851878467
        0x0000eb68:    33312067    g 13    DCD    858857575
        0x0000eb6c:    302e302e    .0.0    DCD    808333358
        0x0000eb70:    73732820     (ss    DCD    1936926752
        0x0000eb74:    2f2f3a68    h://    DCD    791624296
        0x0000eb78:    672d7364    ds-g    DCD    1731031908
        0x0000eb7c:    69727265    erri    DCD    1769108069
        0x0000eb80:    72612f74    t/ar    DCD    1918971764
        0x0000eb84:    6d6f636d    mcom    DCD    1836016493
        0x0000eb88:    656c6970    pile    DCD    1701603696
        0x0000eb8c:    6c6c2f72    r/ll    DCD    1819029362
        0x0000eb90:    702d6d76    vm-p    DCD    1882025334
        0x0000eb94:    656a6f72    roje    DCD    1701474162
        0x0000eb98:    31207463    ct 1    DCD    824210531
        0x0000eb9c:    37373566    f577    DCD    926365030
        0x0000eba0:    66366430    0d6f    DCD    1714840624
        0x0000eba4:    65653237    72ee    DCD    1701130807
        0x0000eba8:    61626534    4eba    DCD    1633838388
        0x0000ebac:    39353132    2159    DCD    959787314
        0x0000ebb0:    62323930    092b    DCD    1647458608
        0x0000ebb4:    63346662    bf4c    DCD    1664378466
        0x0000ebb8:    31386262    bb81    DCD    825778786
        0x0000ebbc:    33656239    9be3    DCD    862282297
        0x0000ebc0:    29613332    23a)    DCD    694235954
        0x0000ebc4:    00000000    ....    DCD    0
    Region$$Table$$Base
        0x0000ebc8:    0000ebf8    ....    DCD    60408
        0x0000ebcc:    10001000    ....    DCD    268439552
        0x0000ebd0:    00000028    (...    DCD    40
        0x0000ebd4:    0000c170    p...    DCD    49520
        0x0000ebd8:    0000ec20     ...    DCD    60448
        0x0000ebdc:    10001028    (...    DCD    268439592
        0x0000ebe0:    00000248    H...    DCD    584
        0x0000ebe4:    0000c18c    ....    DCD    49548
        0x0000ebe8:    0000ec20     ...    DCD    60448
        0x0000ebec:    10000000    ....    DCD    268435456
        0x0000ebf0:    00001000    ....    DCD    4096
        0x0000ebf4:    0000c18c    ....    DCD    49548
    Region$$Table$$Limit

** Section #2 'RWMEM' (SHT_PROGBITS) [SHF_ALLOC + SHF_WRITE]
    Size   : 40 bytes (alignment 8)
    Address: 0x10001000

    0x10001000:   0a 00 00 00 03 00 00 00 1e 00 00 00 03 00 00 00    ................
    0x10001010:   0f 00 00 00 03 00 00 00 0e 00 00 00 03 00 00 00    ................
    0x10001020:   11 00 00 00 03 00 00 00                            ........


** Section #3 'RWMEM' (SHT_NOBITS) [SHF_ALLOC + SHF_WRITE]
    Size   : 584 bytes (alignment 8)
    Address: 0x10001028


** Section #4 'STACKMEM' (SHT_NOBITS) [SHF_ALLOC + SHF_WRITE]
    Size   : 4096 bytes (alignment 8)
    Address: 0x10000000


** Section #5 '.debug_abbrev' (SHT_PROGBITS)
    Size   : 1326 bytes


** Section #6 '.debug_frame' (SHT_PROGBITS)
    Size   : 4892 bytes


** Section #7 '.debug_info' (SHT_PROGBITS)
    Size   : 8929 bytes


** Section #8 '.debug_line' (SHT_PROGBITS)
    Size   : 3687 bytes


** Section #9 '.debug_loc' (SHT_PROGBITS)
    Size   : 6284 bytes


** Section #10 '.debug_str' (SHT_PROGBITS)
    Size   : 5439 bytes


** Section #11 '.debug_ranges' (SHT_PROGBITS)
    Size   : 280 bytes


** Section #12 '.symtab' (SHT_SYMTAB)
    Size   : 6384 bytes (alignment 4)
    String table #13 '.strtab'
    Last local symbol no. 214

    Symbol table .symtab (398 symbols, 214 local)

      #  Symbol Name                Value      Bind  Sec  Type  Vis  Size
    ========================================================================

      1  $d                         0x0000c000   Lc    1   --   De 
      2  $t                         0x0000c100   Lc    1   --   De 
      3  $d                         0x0000c130   Lc    1   --   De 
      4  $t                         0x0000c134   Lc    1   --   De 
      5  $d                         0x0000c168   Lc    1   --   De 
      6  $t                         0x0000c170   Lc    1   --   De 
      7  $d                         0x0000c1de   Lc    1   --   De 
      8  $t                         0x0000c1ec   Lc    1   --   De 
      9  $d                         0x0000c2a0   Lc    1   --   De 
     10  $t                         0x0000c2a4   Lc    1   --   De 
     11  $d                         0x0000c2ac   Lc    1   --   De 
     12  $t                         0x0000c2b0   Lc    1   --   De 
     13  $t.0                       0x0000c2b2   Lc    1   --   De 
     14  $d.4                       0x0000c506   Lc    1   --   De 
     15  $t.5                       0x0000c518   Lc    1   --   De 
     16  $d.1                       0x0000c698   Lc    1   --   De 
     17  $t.2                       0x0000c6a2   Lc    1   --   De 
     18  $d.1                       0x0000c9c8   Lc    1   --   De 
     19  $t.2                       0x0000c9cc   Lc    1   --   De 
     20  $d.6                       0x0000cabe   Lc    1   --   De 
     21  $t.7                       0x0000cac4   Lc    1   --   De 
     22  $d.5                       0x0000d2b8   Lc    1   --   De 
     23  $t.1                       0x0000d2c8   Lc    1   --   De 
     24  $d.14                      0x0000d6b0   Lc    1   --   De 
     25  $t.3                       0x0000d6c4   Lc    1   --   De 
     26  $d.4                       0x0000d7b2   Lc    1   --   De 
     27  $t.5                       0x0000d7ba   Lc    1   --   De 
     28  $d.2                       0x0000dfc0   Lc    1   --   De 
     29  $t.0                       0x0000e02c   Lc    1   --   De 
     30  $t                         0x0000e3e4   Lc    1   --   De 
     31  $d                         0x0000e434   Lc    1   --   De 
     32  $t                         0x0000e438   Lc    1   --   De 
     33  $d                         0x0000e4b6   Lc    1   --   De 
     34  $t                         0x0000e4ba   Lc    1   --   De 
     35  $d.realdata                0x0000e508   Lc    1   --   De 
     36  $d.realdata                0x10001000   Lc    2   --   De 
     37  $d.realdata                0x10000000   Lc    4   --   De 
     38  prime_mpi.c                0x00000000   Lc  Abs  File  De 
     39  prime.c                    0x00000000   Lc  Abs  File  De 
     40  .L.str.6                   0x0000eabb   Lc    1  Data  De   0x26
     41  .L.str.7                   0x0000eae1   Lc    1  Data  De   0x2d
     42  .L.str.1                   0x0000eb0e   Lc    1  Data  De   0x52
     43  .L.str.3                   0x0000eb60   Lc    1  Data  De   0x65
     44  am_util_delay.c            0x00000000   Lc  Abs  File  De 
     45  am_util_faultisr.c         0x00000000   Lc  Abs  File  De 
     46  am_util_stdio.c            0x00000000   Lc  Abs  File  De 
     47  decstr_to_int              0x0000ddd9   Lc    1  Code  De   0x58
     48  uint64_to_str              0x0000e319   Lc    1  Code  De   0x54
     49  divu64_10                  0x0000de31   Lc    1  Code  De   0xbe
     50  g_bTxtXlate                0x1000115d   Lc    3  Data  De   0x1
     51  g_prfbuf                   0x10001164   Lc    3  Data  De   0x100
     52  am_devices_led.c           0x00000000   Lc  Abs  File  De 
     53  ../keil6/startup_keil6.s   0x00000000   Lc  Abs  File  De 
     54  STACK                      0x10000000   Lc    4  Sect  De   0x1000
     55  StackMem                   0x10000000   Lc    4  Data  De 
     56  HEAP                       0x10001270   Lc    3  Sect  De 
     57  HeapMem                    0x10001270   Lc    3  Data  De 
     58  RESET                      0x0000c000   Lc    1  Sect  De   0x134
     59  $v0                        0x0000c100   Lc    1   --   De 
     60  .text                      0x0000c1d4   Lc    1  Sect  De   0x18
     61  $v0                        0x0000c1d4   Lc    1   --   De 
     62  am_hal_global.c            0x00000000   Lc  Abs  File  De 
     63  am_bsp.c                   0x00000000   Lc  Abs  File  De 
     64  g_ui32PrintInterface       0x10001268   Lc    3  Data  De   0x4
     65  g_sCOMUART                 0x10001264   Lc    3  Data  De   0x4
     66  g_sBspUartConfig           0x0000e824   Lc    1  Data  De   0x28
     67  am_hal_cachectrl.c         0x00000000   Lc  Abs  File  De 
     68  set_LPMMODE                0x0000e16d   Lc    1  Code  De   0x5a
     69  set_SEDELAY                0x0000e21d   Lc    1  Code  De   0x56
     70  set_RDWAIT                 0x0000e1c9   Lc    1  Code  De   0x54
     71  am_hal_clkgen.c            0x00000000   Lc  Abs  File  De 
     72  am_hal_flash.c             0x00000000   Lc  Abs  File  De 
     73  .L__const.am_hal_flash_store_ui32.SRAM_write_ui32
                                    0x0000e508   Lc    1  Data  De   0xc
     74  am_hal_gpio.c              0x00000000   Lc  Abs  File  De 
     75  g_ui8Bit76Capabilities     0x0000e850   Lc    1  Data  De   0x4a
     76  g_ui8Inpen                 0x0000e8ff   Lc    1  Data  De   0x4a
     77  g_ui8nCEpins               0x0000ea71   Lc    1  Data  De   0x4a
     78  g_ui8NCEtable              0x0000e949   Lc    1  Data  De   0x128
     79  am_hal_mcuctrl.c           0x00000000   Lc  Abs  File  De 
     80  am_hal_pwrctrl.c           0x00000000   Lc  Abs  File  De 
     81  am_bsp_pins.c              0x00000000   Lc  Abs  File  De 
     82  am_hal_burst.c             0x00000000   Lc  Abs  File  De 
     83  am_hal_interrupt.c         0x00000000   Lc  Abs  File  De 
     84  am_hal_itm.c               0x00000000   Lc  Abs  File  De 
     85  am_hal_reset.c             0x00000000   Lc  Abs  File  De 
     86  am_hal_rtc.c               0x00000000   Lc  Abs  File  De 
     87  am_hal_tpiu.c              0x00000000   Lc  Abs  File  De 
     88  am_hal_uart.c              0x00000000   Lc  Abs  File  De 
     89  rx_queue_update            0x0000e10d   Lc    1  Code  De   0x60
     90  tx_queue_update            0x0000e2bd   Lc    1  Code  De   0x5c
     91  write_nonblocking          0x0000e36d   Lc    1  Code  De   0x76
     92  read_nonblocking           0x0000e06d   Lc    1  Code  De   0x9e
     93  g_am_hal_uart_states       0x1000108c   Lc    3  Data  De   0xd0
     94  am_hal_queue.c             0x00000000   Lc  Abs  File  De 
     95  dc.s                       0x00000000   Lc  Abs  File  De 
     96  ../clib/memcpset.s         0x00000000   Lc  Abs  File  De 
     97  .text                      0x0000c1ec   Lc    1  Sect  De   0x4e
     98  ../clib/heapaux.c          0x00000000   Lc  Abs  File  De 
     99  .text                      0x0000c23a   Lc    1  Sect  De 
    100  ../clib/angel/startup.s    0x00000000   Lc  Abs  File  De 
    101  !!!main                    0x0000c134   Lc    1  Sect  De   0x8
    102  ../clib/angel/handlers.s   0x00000000   Lc  Abs  File  De 
    103  !!handler_copy             0x0000c170   Lc    1  Sect  De   0x1a
    104  ../fplib/d2f.s             0x00000000   Lc  Abs  File  De 
    105  x$fpl$d2f                  0x0000e3e4   Lc    1  Sect  De   0x62
    106  $v0                        0x0000e3e4   Lc    1   --   De 
    107  ../clib/angel/kernel.s     0x00000000   Lc  Abs  File  De 
    108  .ARM.Collect$$rtentry$$00000000
                                    0x0000c1b4   Lc    1  Sect  De 
    109  ../fplib/dnaninf.s         0x00000000   Lc  Abs  File  De 
    110  x$fpl$dnaninf              0x0000e446   Lc    1  Sect  De   0x9c
    111  $v0                        0x0000e446   Lc    1   --   De 
    112  ../fplib/fretinf.s         0x00000000   Lc  Abs  File  De 
    113  x$fpl$fretinf              0x0000e4fc   Lc    1  Sect  De   0xa
    114  $v0                        0x0000e4fc   Lc    1   --   De 
    115  ../fplib/usenofp.s         0x00000000   Lc  Abs  File  De 
    116  x$fpl$usenofp              0x0000e506   Lc    1  Sect  De 
    117  ../clib/angel/kernel.s     0x00000000   Lc  Abs  File  De 
    118  .ARM.Collect$$rtentry$$00000002
                                    0x0000c1b4   Lc    1  Sect  De 
    119  .ARM.Collect$$rtentry$$00000009
                                    0x0000c1ba   Lc    1  Sect  De 
    120  .ARM.Collect$$rtentry$$0000000A
                                    0x0000c1ba   Lc    1  Sect  De   0x4
    121  .ARM.Collect$$rtentry$$0000000C
                                    0x0000c1be   Lc    1  Sect  De 
    122  .ARM.Collect$$rtentry$$0000000D
                                    0x0000c1be   Lc    1  Sect  De   0x8
    123  ../clib/angel/kernel.s     0x00000000   Lc  Abs  File  De 
    124  .ARM.Collect$$rtentry$$00000004
                                    0x0000c1b4   Lc    1  Sect  De   0x6
    125  ../clib/angel/sys.s        0x00000000   Lc  Abs  File  De 
    126  .text                      0x0000c240   Lc    1  Sect  De   0x4a
    127  ../clib/stdlib.c           0x00000000   Lc  Abs  File  De 
    128  .text                      0x0000c28a   Lc    1  Sect  De 
    129  ../clib/angel/boardlib.s   0x00000000   Lc  Abs  File  De 
    130  ../clib/angel/boardlib.s   0x00000000   Lc  Abs  File  De 
    131  ../clib/angel/boardlib.s   0x00000000   Lc  Abs  File  De 
    132  ../clib/libinit.s          0x00000000   Lc  Abs  File  De 
    133  .ARM.Collect$$libinit$$00000000
                                    0x0000c1a8   Lc    1  Sect  De   0x2
    134  ../clib/angel/sys.s        0x00000000   Lc  Abs  File  De 
    135  .text                      0x0000c29c   Lc    1  Sect  De   0x8
    136  .bss                       0x10001028   Lc    3  Sect  De   0x60
    137  ../clib/angel/kernel.s     0x00000000   Lc  Abs  File  De 
    138  .ARM.Collect$$rtexit$$00000000
                                    0x0000c1c6   Lc    1  Sect  De   0x2
    139  ../clib/libinit.s          0x00000000   Lc  Abs  File  De 
    140  .ARM.Collect$$libinit$$00000001
                                    0x0000c1aa   Lc    1  Sect  De   0x4
    141  .ARM.Collect$$libinit$$00000004
                                    0x0000c1ae   Lc    1  Sect  De 
    142  .ARM.Collect$$libinit$$0000000A
                                    0x0000c1ae   Lc    1  Sect  De 
    143  .ARM.Collect$$libinit$$0000000C
                                    0x0000c1ae   Lc    1  Sect  De 
    144  .ARM.Collect$$libinit$$0000000E
                                    0x0000c1ae   Lc    1  Sect  De 
    145  .ARM.Collect$$libinit$$00000011
                                    0x0000c1ae   Lc    1  Sect  De 
    146  .ARM.Collect$$libinit$$00000013
                                    0x0000c1ae   Lc    1  Sect  De 
    147  .ARM.Collect$$libinit$$00000015
                                    0x0000c1ae   Lc    1  Sect  De 
    148  .ARM.Collect$$libinit$$00000017
                                    0x0000c1ae   Lc    1  Sect  De 
    149  .ARM.Collect$$libinit$$00000019
                                    0x0000c1ae   Lc    1  Sect  De 
    150  .ARM.Collect$$libinit$$0000001B
                                    0x0000c1ae   Lc    1  Sect  De 
    151  .ARM.Collect$$libinit$$0000001D
                                    0x0000c1ae   Lc    1  Sect  De 
    152  .ARM.Collect$$libinit$$0000001F
                                    0x0000c1ae   Lc    1  Sect  De 
    153  .ARM.Collect$$libinit$$00000021
                                    0x0000c1ae   Lc    1  Sect  De 
    154  .ARM.Collect$$libinit$$00000023
                                    0x0000c1ae   Lc    1  Sect  De 
    155  .ARM.Collect$$libinit$$00000025
                                    0x0000c1ae   Lc    1  Sect  De 
    156  .ARM.Collect$$libinit$$0000002C
                                    0x0000c1ae   Lc    1  Sect  De 
    157  .ARM.Collect$$libinit$$0000002E
                                    0x0000c1ae   Lc    1  Sect  De 
    158  .ARM.Collect$$libinit$$00000030
                                    0x0000c1ae   Lc    1  Sect  De 
    159  .ARM.Collect$$libinit$$00000032
                                    0x0000c1ae   Lc    1  Sect  De 
    160  .ARM.Collect$$libinit$$00000033
                                    0x0000c1ae   Lc    1  Sect  De   0x2
    161  ../clib/angel/kernel.s     0x00000000   Lc  Abs  File  De 
    162  .ARM.Collect$$rtexit$$00000002
                                    0x0000c1c8   Lc    1  Sect  De 
    163  .ARM.Collect$$rtexit$$00000003
                                    0x0000c1c8   Lc    1  Sect  De   0x4
    164  .ARM.Collect$$rtexit$$00000004
                                    0x0000c1cc   Lc    1  Sect  De   0x6
    165  ../clib/armsys.c           0x00000000   Lc  Abs  File  De 
    166  ../clib/armsys.c           0x00000000   Lc  Abs  File  De 
    167  ../fplib/fpinit.s          0x00000000   Lc  Abs  File  De 
    168  x$fpl$fpinit               0x0000e4e2   Lc    1  Sect  De   0x1a
    169  $v0                        0x0000e4e2   Lc    1   --   De 
    170  ../clib/angel/sysapp.c     0x00000000   Lc  Abs  File  De 
    171  .text                      0x0000c2a4   Lc    1  Sect  De 
    172  ../clib/angel/sysapp.c     0x00000000   Lc  Abs  File  De 
    173  ../clib/angel/boardlib.s   0x00000000   Lc  Abs  File  De 
    174  ../clib/armsys.c           0x00000000   Lc  Abs  File  De 
    175  ../clib/armsys.c           0x00000000   Lc  Abs  File  De 
    176  ../clib/libinit.s          0x00000000   Lc  Abs  File  De 
    177  .ARM.Collect$$libshutdown$$00000000
                                    0x0000c1b0   Lc    1  Sect  De   0x2
    178  ../clib/angel/sysapp.c     0x00000000   Lc  Abs  File  De 
    179  ../clib/angel/sysapp.c     0x00000000   Lc  Abs  File  De 
    180  ../clib/angel/sys.s        0x00000000   Lc  Abs  File  De 
    181  .text                      0x0000c2b0   Lc    1  Sect  De   0x2
    182  ../clib/angel/sys.s        0x00000000   Lc  Abs  File  De 
    183  .text                      0x0000c2b2   Lc    1  Sect  De 
    184  ../clib/heapalloc.c        0x00000000   Lc  Abs  File  De 
    185  ../clib/signal.c           0x00000000   Lc  Abs  File  De 
    186  ../clib/signal.c           0x00000000   Lc  Abs  File  De 
    187  ../clib/libinit.s          0x00000000   Lc  Abs  File  De 
    188  .ARM.Collect$$libshutdown$$00000002
                                    0x0000c1b2   Lc    1  Sect  De 
    189  .ARM.Collect$$libshutdown$$00000004
                                    0x0000c1b2   Lc    1  Sect  De 
    190  .ARM.Collect$$libshutdown$$00000007
                                    0x0000c1b2   Lc    1  Sect  De 
    191  .ARM.Collect$$libshutdown$$0000000A
                                    0x0000c1b2   Lc    1  Sect  De 
    192  .ARM.Collect$$libshutdown$$0000000C
                                    0x0000c1b2   Lc    1  Sect  De 
    193  .ARM.Collect$$libshutdown$$0000000F
                                    0x0000c1b2   Lc    1  Sect  De 
    194  .ARM.Collect$$libshutdown$$00000010
                                    0x0000c1b2   Lc    1  Sect  De   0x2
    195  ../clib/angel/rt.s         0x00000000   Lc  Abs  File  De 
    196  ../clib/signal.c           0x00000000   Lc  Abs  File  De 
    197  ../clib/signal.c           0x00000000   Lc  Abs  File  De 
    198  ../clib/signal.c           0x00000000   Lc  Abs  File  De 
    199  ../clib/signal.c           0x00000000   Lc  Abs  File  De 
    200  ../clib/angel/sysapp.c     0x00000000   Lc  Abs  File  De 
    201  ../clib/angel/sysapp.c     0x00000000   Lc  Abs  File  De 
    202  ../clib/signal.s           0x00000000   Lc  Abs  File  De 
    203  ../clib/signal.c           0x00000000   Lc  Abs  File  De 
    204  ../clib/signal.c           0x00000000   Lc  Abs  File  De 
    205  ../clib/signal.c           0x00000000   Lc  Abs  File  De 
    206  ../clib/signal.c           0x00000000   Lc  Abs  File  De 
    207  ../clib/signal.c           0x00000000   Lc  Abs  File  De 
    208  ../clib/signal.c           0x00000000   Lc  Abs  File  De 
    209  ../clib/signal.c           0x00000000   Lc  Abs  File  De 
    210  ../clib/signal.c           0x00000000   Lc  Abs  File  De 
    211  ../clib/angel/scatter.s    0x00000000   Lc  Abs  File  De 
    212  !!!scatter                 0x0000c13c   Lc    1  Sect  De   0x34
    213  ../clib/angel/handlers.s   0x00000000   Lc  Abs  File  De 
    214  !!handler_zi               0x0000c18c   Lc    1  Sect  De   0x1c
    215  BuildAttributes$$THM_ISAv4$E$P$D$K$B$S$7EM$VFPi3$EXTD16$VFPS$VFMA$PE$A:L22UL41UL21$X:L11$S22US41US21$IEEE1$IW$~IW$USESV6$~STKCKD$USESV7$~SHL$OSPACE$ROPI$EBA8$UX$STANDARDLIB$REQ8$PRES8$EABIv2
                                    0x00000000   Gb  Abs   --   Hi 
    216  __Vectors                  0x0000c000   Gb    1  Data  Hi 
    217  __Patchable                0x0000c0c8   Gb    1  Data  Hi 
    218  Reset_Handler              0x0000c101   Wk    1  Code  Hi   0x1c
    219  NMI_Handler                0x0000c11f   Wk    1  Code  Hi   0x2
    220  MemManage_Handler          0x0000c121   Wk    1  Code  Hi   0x2
    221  BusFault_Handler           0x0000c123   Wk    1  Code  Hi   0x2
    222  UsageFault_Handler         0x0000c125   Wk    1  Code  Hi   0x2
    223  SVC_Handler                0x0000c127   Wk    1  Code  Hi   0x2
    224  DebugMon_Handler           0x0000c129   Wk    1  Code  Hi   0x2
    225  PendSV_Handler             0x0000c12b   Wk    1  Code  Hi   0x2
    226  SysTick_Handler            0x0000c12d   Wk    1  Code  Hi   0x2
    227  am_adc_isr                 0x0000c12f   Wk    1  Code  Hi 
    228  am_ble_isr                 0x0000c12f   Wk    1  Code  Hi 
    229  am_brownout_isr            0x0000c12f   Wk    1  Code  Hi 
    230  am_clkgen_isr              0x0000c12f   Wk    1  Code  Hi 
    231  am_ctimer_isr              0x0000c12f   Wk    1  Code  Hi 
    232  am_gpio_isr                0x0000c12f   Wk    1  Code  Hi 
    233  am_iomaster0_isr           0x0000c12f   Wk    1  Code  Hi 
    234  am_iomaster1_isr           0x0000c12f   Wk    1  Code  Hi 
    235  am_iomaster2_isr           0x0000c12f   Wk    1  Code  Hi 
    236  am_iomaster3_isr           0x0000c12f   Wk    1  Code  Hi 
    237  am_iomaster4_isr           0x0000c12f   Wk    1  Code  Hi 
    238  am_iomaster5_isr           0x0000c12f   Wk    1  Code  Hi 
    239  am_ioslave_acc_isr         0x0000c12f   Wk    1  Code  Hi 
    240  am_ioslave_ios_isr         0x0000c12f   Wk    1  Code  Hi 
    241  am_mspi0_isr               0x0000c12f   Wk    1  Code  Hi 
    242  am_mspi1_isr               0x0000c12f   Wk    1  Code  Hi 
    243  am_mspi2_isr               0x0000c12f   Wk    1  Code  Hi 
    244  am_pdm0_isr                0x0000c12f   Wk    1  Code  Hi 
    245  am_rtc_isr                 0x0000c12f   Wk    1  Code  Hi 
    246  am_scard_isr               0x0000c12f   Wk    1  Code  Hi 
    247  am_software0_isr           0x0000c12f   Wk    1  Code  Hi 
    248  am_stimer_cmpr0_isr        0x0000c12f   Wk    1  Code  Hi 
    249  am_stimer_cmpr1_isr        0x0000c12f   Wk    1  Code  Hi 
    250  am_stimer_cmpr2_isr        0x0000c12f   Wk    1  Code  Hi 
    251  am_stimer_cmpr3_isr        0x0000c12f   Wk    1  Code  Hi 
    252  am_stimer_cmpr4_isr        0x0000c12f   Wk    1  Code  Hi 
    253  am_stimer_cmpr5_isr        0x0000c12f   Wk    1  Code  Hi 
    254  am_stimer_cmpr6_isr        0x0000c12f   Wk    1  Code  Hi 
    255  am_stimer_cmpr7_isr        0x0000c12f   Wk    1  Code  Hi 
    256  am_stimer_isr              0x0000c12f   Wk    1  Code  Hi 
    257  am_uart0_isr               0x0000c12f   Wk    1  Code  Hi 
    258  am_uart1_isr               0x0000c12f   Wk    1  Code  Hi 
    259  am_uart_isr                0x0000c12f   Wk    1  Code  Hi 
    260  am_vcomp_isr               0x0000c12f   Wk    1  Code  Hi 
    261  am_watchdog_isr            0x0000c12f   Wk    1  Code  Hi 
    262  __main                     0x0000c135   Gb    1  Code  Hi   0x8
    263  __scatterload              0x0000c13d   Gb    1  Code  Hi 
    264  __scatterload_rt2          0x0000c13d   Gb    1  Code  Hi   0x2c
    265  __scatterload_rt2_thumb_only
                                    0x0000c13d   Gb    1  Code  Hi 
    266  __scatterload_null         0x0000c14b   Gb    1  Code  Hi 
    267  __scatterload_copy         0x0000c171   Gb    1  Code  Hi   0x1a
    268  __scatterload_zeroinit     0x0000c18d   Gb    1  Code  Hi   0x1c
    269  __rt_lib_init              0x0000c1a9   Gb    1  Code  De 
    270  __rt_lib_init_fp_1         0x0000c1ab   Gb    1  Code  Hi 
    271  __rt_lib_init_alloca_1     0x0000c1af   Gb    1  Code  Hi 
    272  __rt_lib_init_argv_1       0x0000c1af   Gb    1  Code  Hi 
    273  __rt_lib_init_atexit_1     0x0000c1af   Gb    1  Code  Hi 
    274  __rt_lib_init_clock_1      0x0000c1af   Gb    1  Code  Hi 
    275  __rt_lib_init_cpp_1        0x0000c1af   Gb    1  Code  Hi 
    276  __rt_lib_init_exceptions_1 0x0000c1af   Gb    1  Code  Hi 
    277  __rt_lib_init_fp_trap_1    0x0000c1af   Gb    1  Code  Hi 
    278  __rt_lib_init_getenv_1     0x0000c1af   Gb    1  Code  Hi 
    279  __rt_lib_init_heap_1       0x0000c1af   Gb    1  Code  Hi 
    280  __rt_lib_init_lc_collate_1 0x0000c1af   Gb    1  Code  Hi 
    281  __rt_lib_init_lc_ctype_1   0x0000c1af   Gb    1  Code  Hi 
    282  __rt_lib_init_lc_monetary_1
                                    0x0000c1af   Gb    1  Code  Hi 
    283  __rt_lib_init_lc_numeric_1 0x0000c1af   Gb    1  Code  Hi 
    284  __rt_lib_init_lc_time_1    0x0000c1af   Gb    1  Code  Hi 
    285  __rt_lib_init_preinit_1    0x0000c1af   Gb    1  Code  Hi 
    286  __rt_lib_init_rand_1       0x0000c1af   Gb    1  Code  Hi 
    287  __rt_lib_init_return       0x0000c1af   Gb    1  Code  Hi 
    288  __rt_lib_init_signal_1     0x0000c1af   Gb    1  Code  Hi 
    289  __rt_lib_init_stdio_1      0x0000c1af   Gb    1  Code  Hi 
    290  __rt_lib_init_user_alloc_1 0x0000c1af   Gb    1  Code  Hi 
    291  __rt_lib_shutdown          0x0000c1b1   Gb    1  Code  De 
    292  __rt_lib_shutdown_cpp_1    0x0000c1b3   Gb    1  Code  Hi 
    293  __rt_lib_shutdown_fp_trap_1
                                    0x0000c1b3   Gb    1  Code  Hi 
    294  __rt_lib_shutdown_heap_1   0x0000c1b3   Gb    1  Code  Hi 
    295  __rt_lib_shutdown_return   0x0000c1b3   Gb    1  Code  Hi 
    296  __rt_lib_shutdown_signal_1 0x0000c1b3   Gb    1  Code  Hi 
    297  __rt_lib_shutdown_stdio_1  0x0000c1b3   Gb    1  Code  Hi 
    298  __rt_lib_shutdown_user_alloc_1
                                    0x0000c1b3   Gb    1  Code  Hi 
    299  __rt_entry                 0x0000c1b5   Gb    1  Code  Hi 
    300  __rt_entry_presh_1         0x0000c1b5   Gb    1  Code  Hi 
    301  __rt_entry_sh              0x0000c1b5   Gb    1  Code  Hi 
    302  __rt_entry_li              0x0000c1bb   Gb    1  Code  Hi 
    303  __rt_entry_postsh_1        0x0000c1bb   Gb    1  Code  Hi 
    304  __rt_entry_main            0x0000c1bf   Gb    1  Code  Hi 
    305  __rt_entry_postli_1        0x0000c1bf   Gb    1  Code  Hi 
    306  __rt_exit                  0x0000c1c7   Gb    1  Code  De 
    307  __rt_exit_ls               0x0000c1c9   Gb    1  Code  Hi 
    308  __rt_exit_prels_1          0x0000c1c9   Gb    1  Code  Hi 
    309  __rt_exit_exit             0x0000c1cd   Gb    1  Code  Hi 
    310  __user_initial_stackheap   0x0000c1d5   Gb    1  Code  Hi   0xa
    311  __aeabi_memclr4            0x0000c1ed   Gb    1  Code  De 
    312  __aeabi_memclr8            0x0000c1ed   Gb    1  Code  De 
    313  __rt_memclr_w              0x0000c1ed   Gb    1  Code  De 
    314  _memset_w                  0x0000c1f1   Gb    1  Code  De   0x4a
    315  __use_two_region_memory    0x0000c23b   Gb    1  Code  Hi   0x2
    316  __rt_heap_escrow$2region   0x0000c23d   Gb    1  Code  De   0x2
    317  __rt_heap_expand$2region   0x0000c23f   Gb    1  Code  De   0x2
    318  __user_setup_stackheap     0x0000c241   Gb    1  Code  De   0x4a
    319  exit                       0x0000c28b   Gb    1  Code  De   0x12
    320  __user_libspace            0x0000c29d   Wk    1  Code  De   0x8
    321  __user_perproc_libspace    0x0000c29d   Wk    1  Code  De 
    322  __user_perthread_libspace  0x0000c29d   Wk    1  Code  De 
    323  _sys_exit                  0x0000c2a5   Gb    1  Code  De   0x8
    324  __I$use$semihosting        0x0000c2b1   Gb    1  Code  Hi 
    325  __use_no_semihosting_swi   0x0000c2b1   Gb    1  Code  Hi   0x2
    326  HardFault_Handler          0x0000c2b3   Gb    1  Code  Hi   0x1a
    327  __semihosting_library_function
                                    0x0000c2b3   Gb    1  Code  Hi 
    328  am_bsp_low_power_init      0x0000c2cd   Gb    1  Code  Hi   0x46
    329  am_bsp_uart_printf_disable 0x0000c313   Gb    1  Code  Hi   0x44
    330  am_bsp_uart_printf_enable  0x0000c357   Gb    1  Code  Hi   0x66
    331  am_bsp_uart_string_print   0x0000c3bd   Gb    1  Code  Hi   0x42
    332  am_hal_burst_ldo_charge    0x0000c3ff   Gb    1  Code  Hi   0xac
    333  am_hal_cachectrl_config    0x0000c4ab   Gb    1  Code  Hi   0x48
    334  am_hal_cachectrl_control   0x0000c4f5   Gb    1  Code  Hi   0x16c
    335  am_hal_cachectrl_enable    0x0000c661   Gb    1  Code  Hi   0x14
    336  am_hal_clkgen_control      0x0000c675   Gb    1  Code  Hi   0x138
    337  am_hal_flash_delay         0x0000c7ad   Gb    1  Code  Hi   0x2a
    338  am_hal_flash_delay_status_check
                                    0x0000c7d9   Gb    1  Code  Hi   0x70
    339  am_hal_flash_load_ui32     0x0000c849   Gb    1  Code  Hi   0x8
    340  am_hal_flash_store_ui32    0x0000c851   Gb    1  Code  Hi   0x22
    341  am_hal_gpio_pinconfig      0x0000c875   Gb    1  Code  Hi   0x212
    342  am_hal_gpio_state_write    0x0000ca89   Gb    1  Code  Hi   0x98
    343  am_hal_interrupt_master_disable
                                    0x0000cb21   Gb    1  Code  Hi   0x8
    344  am_hal_interrupt_master_set
                                    0x0000cb29   Gb    1  Code  Hi   0x6
    345  am_hal_mcuctrl_info_get    0x0000cb2f   Gb    1  Code  Hi   0x11a
    346  am_hal_pwrctrl_blebuck_trim
                                    0x0000cc49   Gb    1  Code  Hi   0x52
    347  am_hal_pwrctrl_bleif_workaround
                                    0x0000cc9b   Gb    1  Code  Hi   0x74
    348  am_hal_pwrctrl_low_power_init
                                    0x0000cd0f   Gb    1  Code  Hi   0x144
    349  am_hal_pwrctrl_memory_enable
                                    0x0000ce55   Gb    1  Code  Hi   0x74
    350  am_hal_pwrctrl_periph_disable
                                    0x0000cec9   Gb    1  Code  Hi   0x9e
    351  am_hal_pwrctrl_periph_enable
                                    0x0000cf69   Gb    1  Code  Hi   0x6e
    352  am_hal_queue_init          0x0000cfd7   Gb    1  Code  Hi   0x18
    353  am_hal_queue_item_add      0x0000cff1   Gb    1  Code  Hi   0x66
    354  am_hal_queue_item_get      0x0000d059   Gb    1  Code  Hi   0x60
    355  am_hal_rtc_osc_disable     0x0000d0b9   Gb    1  Code  Hi   0x12
    356  am_hal_uart_configure      0x0000d0cd   Gb    1  Code  Hi   0x1ec
    357  am_hal_uart_deinitialize   0x0000d2c9   Gb    1  Code  Hi   0x28
    358  am_hal_uart_initialize     0x0000d2f1   Gb    1  Code  Hi   0x54
    359  am_hal_uart_power_control  0x0000d345   Gb    1  Code  Hi   0xea
    360  am_hal_uart_transfer       0x0000d431   Gb    1  Code  Hi   0x112
    361  am_hal_uart_tx_flush       0x0000d545   Gb    1  Code  Hi   0x66
    362  am_util_faultisr_collect_data
                                    0x0000d5ad   Gb    1  Code  Hi   0xaa
    363  am_util_stdio_printf       0x0000d657   Gb    1  Code  Hi   0x46
    364  am_util_stdio_printf_init  0x0000d69d   Gb    1  Code  Hi   0xc
    365  am_util_stdio_terminal_clear
                                    0x0000d6a9   Gb    1  Code  Hi   0x8
    366  am_util_stdio_vsprintf     0x0000d6c5   Gb    1  Code  Hi   0x714
    367  getStackedReg              0x0000deef   Gb    1  Code  Hi   0x8
    368  main                       0x0000def9   Gb    1  Code  Hi   0xc8
    369  prime_number               0x0000e02d   Gb    1  Code  Hi   0x40
    370  set_for_min_power          0x0000e273   Gb    1  Code  Hi   0x48
    371  __aeabi_d2f                0x0000e3e5   Gb    1  Code  De 
    372  _d2f                       0x0000e3e5   Gb    1  Code  De   0x62
    373  __fpl_dnaninf              0x0000e447   Gb    1  Code  De   0x9c
    374  _fp_init                   0x0000e4e3   Gb    1  Code  De   0x1a
    375  __fplib_config_fpu_vfp     0x0000e4fb   Gb    1  Code  De 
    376  __fplib_config_pureend_doubles
                                    0x0000e4fb   Gb    1  Code  De 
    377  __fpl_fretinf              0x0000e4fd   Gb    1  Code  De   0xa
    378  __I$use$fp                 0x0000e506   Gb    1   --   De 
    379  am_hal_cachectrl_defaults  0x0000e514   Gb    1  Data  Hi   0x3
    380  am_hal_pwrctrl_memory_control
                                    0x0000e518   Gb    1  Data  Hi   0x1b0
    381  am_hal_pwrctrl_peripheral_control
                                    0x0000e6c8   Gb    1  Data  Hi   0xcc
    382  g_AM_BSP_GPIO_COM_UART_RX  0x0000e794   Gb    1  Data  Hi   0x4
    383  g_AM_BSP_GPIO_COM_UART_TX  0x0000e798   Gb    1  Data  Hi   0x4
    384  g_AM_HAL_GPIO_DISABLE      0x0000e79c   Gb    1  Data  Hi   0x4
    385  g_AM_HAL_GPIO_OUTPUT       0x0000e7a0   Gb    1  Data  Hi   0x4
    386  g_am_hal_mcuctrl_flash_size
                                    0x0000e7a4   Gb    1  Data  Hi   0x40
    387  g_am_hal_mcuctrl_sram_size 0x0000e7e4   Gb    1  Data  Hi   0x40
    388  g_ui32HALversion           0x0000e84c   Gb    1  Data  Hi   0x4
    389  g_ui8HALcompiler           0x0000e89a   Gb    1  Data  Hi   0x65
    390  Region$$Table$$Base        0x0000ebc8   Gb    1   --   Hi 
    391  Region$$Table$$Limit       0x0000ebf8   Gb    1   --   Hi 
    392  am_bsp_psLEDs              0x10001000   Gb    2  Data  Hi   0x28
    393  __libspace_start           0x10001028   Gb    3  Data  De   0x60
    394  __temporary_stack_top$libspace
                                    0x10001088   Gb    3  Data  De 
    395  gAmHalResetStatus          0x10001088   Gb    3  Data  Hi   0x4
    396  g_bSimobuckTrimsDone       0x1000115c   Gb    3  Data  Hi   0x1
    397  g_bVddfTrimsDone           0x1000115e   Gb    3  Data  Hi   0x1
    398  g_pfnCharPrint             0x10001160   Gb    3  Data  Hi   0x4


** Section #13 '.strtab' (SHT_STRTAB)
    Size   : 6608 bytes

            #  Offset String
        ====================================

            1      1: $d
            2      4: $t
            3      7: $t.0
            4     12: $d.4
            5     17: $t.5
            6     22: $d.1
            7     27: $t.2
            8     32: $d.6
            9     37: $t.7
           10     42: $d.5
           11     47: $t.1
           12     52: $d.14
           13     58: $t.3
           14     63: $d.2
           15     68: $d.realdata
           16     80: prime_mpi.c
           17     92: prime.c
           18    100: .L.str.6
           19    109: .L.str.7
           20    118: .L.str.1
           21    127: .L.str.3
           22    136: am_util_delay.c
           23    152: am_util_faultisr.c
           24    171: am_util_stdio.c
           25    187: decstr_to_int
           26    201: uint64_to_str
           27    215: divu64_10
           28    225: g_bTxtXlate
           29    237: g_prfbuf
           30    246: am_devices_led.c
           31    263: ../keil6/startup_keil6.s
           32    288: STACK
           33    294: StackMem
           34    303: HEAP
           35    308: HeapMem
           36    316: RESET
           37    322: $v0
           38    326: .text
           39    332: am_hal_global.c
           40    348: am_bsp.c
           41    357: g_ui32PrintInterface
           42    378: g_sCOMUART
           43    389: g_sBspUartConfig
           44    406: am_hal_cachectrl.c
           45    425: set_LPMMODE
           46    437: set_SEDELAY
           47    449: set_RDWAIT
           48    460: am_hal_clkgen.c
           49    476: am_hal_flash.c
           50    491: .L__const.am_hal_flash_store_ui32.SRAM_write_ui32
           51    541: am_hal_gpio.c
           52    555: g_ui8Bit76Capabilities
           53    578: g_ui8Inpen
           54    589: g_ui8nCEpins
           55    602: g_ui8NCEtable
           56    616: am_hal_mcuctrl.c
           57    633: am_hal_pwrctrl.c
           58    650: am_bsp_pins.c
           59    664: am_hal_burst.c
           60    679: am_hal_interrupt.c
           61    698: am_hal_itm.c
           62    711: am_hal_reset.c
           63    726: am_hal_rtc.c
           64    739: am_hal_tpiu.c
           65    753: am_hal_uart.c
           66    767: rx_queue_update
           67    783: tx_queue_update
           68    799: write_nonblocking
           69    817: read_nonblocking
           70    834: g_am_hal_uart_states
           71    855: am_hal_queue.c
           72    870: dc.s
           73    875: ../clib/memcpset.s
           74    894: ../clib/heapaux.c
           75    912: ../clib/angel/startup.s
           76    936: !!!main
           77    944: ../clib/angel/handlers.s
           78    969: !!handler_copy
           79    984: ../fplib/d2f.s
           80    999: x$fpl$d2f
           81   1009: ../clib/angel/kernel.s
           82   1032: .ARM.Collect$$rtentry$$00000000
           83   1064: ../fplib/dnaninf.s
           84   1083: x$fpl$dnaninf
           85   1097: ../fplib/fretinf.s
           86   1116: x$fpl$fretinf
           87   1130: ../fplib/usenofp.s
           88   1149: x$fpl$usenofp
           89   1163: .ARM.Collect$$rtentry$$00000002
           90   1195: .ARM.Collect$$rtentry$$00000009
           91   1227: .ARM.Collect$$rtentry$$0000000A
           92   1259: .ARM.Collect$$rtentry$$0000000C
           93   1291: .ARM.Collect$$rtentry$$0000000D
           94   1323: .ARM.Collect$$rtentry$$00000004
           95   1355: ../clib/angel/sys.s
           96   1375: ../clib/stdlib.c
           97   1392: ../clib/angel/boardlib.s
           98   1417: ../clib/libinit.s
           99   1435: .ARM.Collect$$libinit$$00000000
          100   1467: .bss
          101   1472: .ARM.Collect$$rtexit$$00000000
          102   1503: .ARM.Collect$$libinit$$00000001
          103   1535: .ARM.Collect$$libinit$$00000004
          104   1567: .ARM.Collect$$libinit$$0000000A
          105   1599: .ARM.Collect$$libinit$$0000000C
          106   1631: .ARM.Collect$$libinit$$0000000E
          107   1663: .ARM.Collect$$libinit$$00000011
          108   1695: .ARM.Collect$$libinit$$00000013
          109   1727: .ARM.Collect$$libinit$$00000015
          110   1759: .ARM.Collect$$libinit$$00000017
          111   1791: .ARM.Collect$$libinit$$00000019
          112   1823: .ARM.Collect$$libinit$$0000001B
          113   1855: .ARM.Collect$$libinit$$0000001D
          114   1887: .ARM.Collect$$libinit$$0000001F
          115   1919: .ARM.Collect$$libinit$$00000021
          116   1951: .ARM.Collect$$libinit$$00000023
          117   1983: .ARM.Collect$$libinit$$00000025
          118   2015: .ARM.Collect$$libinit$$0000002C
          119   2047: .ARM.Collect$$libinit$$0000002E
          120   2079: .ARM.Collect$$libinit$$00000030
          121   2111: .ARM.Collect$$libinit$$00000032
          122   2143: .ARM.Collect$$libinit$$00000033
          123   2175: .ARM.Collect$$rtexit$$00000002
          124   2206: .ARM.Collect$$rtexit$$00000003
          125   2237: .ARM.Collect$$rtexit$$00000004
          126   2268: ../clib/armsys.c
          127   2285: ../fplib/fpinit.s
          128   2303: x$fpl$fpinit
          129   2316: ../clib/angel/sysapp.c
          130   2339: .ARM.Collect$$libshutdown$$00000000
          131   2375: ../clib/heapalloc.c
          132   2395: ../clib/signal.c
          133   2412: .ARM.Collect$$libshutdown$$00000002
          134   2448: .ARM.Collect$$libshutdown$$00000004
          135   2484: .ARM.Collect$$libshutdown$$00000007
          136   2520: .ARM.Collect$$libshutdown$$0000000A
          137   2556: .ARM.Collect$$libshutdown$$0000000C
          138   2592: .ARM.Collect$$libshutdown$$0000000F
          139   2628: .ARM.Collect$$libshutdown$$00000010
          140   2664: ../clib/angel/rt.s
          141   2683: ../clib/signal.s
          142   2700: ../clib/angel/scatter.s
          143   2724: !!!scatter
          144   2735: !!handler_zi
          145   2748: BuildAttributes$$THM_ISAv4$E$P$D$K$B$S$7EM$VFPi3$EXTD16$VFPS$VFMA$PE$A:L22UL41UL21$X:L11$S22US41US21$IEEE1$IW$~IW$USESV6$~STKCKD$USESV7$~SHL$OSPACE$ROPI$EBA8$UX$STANDARDLIB$REQ8$PRES8$EABIv2
          146   2939: __Vectors
          147   2949: __Patchable
          148   2961: Reset_Handler
          149   2975: NMI_Handler
          150   2987: MemManage_Handler
          151   3005: BusFault_Handler
          152   3022: UsageFault_Handler
          153   3041: SVC_Handler
          154   3053: DebugMon_Handler
          155   3070: PendSV_Handler
          156   3085: SysTick_Handler
          157   3101: am_adc_isr
          158   3112: am_ble_isr
          159   3123: am_brownout_isr
          160   3139: am_clkgen_isr
          161   3153: am_ctimer_isr
          162   3167: am_gpio_isr
          163   3179: am_iomaster0_isr
          164   3196: am_iomaster1_isr
          165   3213: am_iomaster2_isr
          166   3230: am_iomaster3_isr
          167   3247: am_iomaster4_isr
          168   3264: am_iomaster5_isr
          169   3281: am_ioslave_acc_isr
          170   3300: am_ioslave_ios_isr
          171   3319: am_mspi0_isr
          172   3332: am_mspi1_isr
          173   3345: am_mspi2_isr
          174   3358: am_pdm0_isr
          175   3370: am_rtc_isr
          176   3381: am_scard_isr
          177   3394: am_software0_isr
          178   3411: am_stimer_cmpr0_isr
          179   3431: am_stimer_cmpr1_isr
          180   3451: am_stimer_cmpr2_isr
          181   3471: am_stimer_cmpr3_isr
          182   3491: am_stimer_cmpr4_isr
          183   3511: am_stimer_cmpr5_isr
          184   3531: am_stimer_cmpr6_isr
          185   3551: am_stimer_cmpr7_isr
          186   3571: am_stimer_isr
          187   3585: am_uart0_isr
          188   3598: am_uart1_isr
          189   3611: am_uart_isr
          190   3623: am_vcomp_isr
          191   3636: am_watchdog_isr
          192   3652: __main
          193   3659: __scatterload
          194   3673: __scatterload_rt2
          195   3691: __scatterload_rt2_thumb_only
          196   3720: __scatterload_null
          197   3739: __scatterload_copy
          198   3758: __scatterload_zeroinit
          199   3781: __rt_lib_init
          200   3795: __rt_lib_init_fp_1
          201   3814: __rt_lib_init_alloca_1
          202   3837: __rt_lib_init_argv_1
          203   3858: __rt_lib_init_atexit_1
          204   3881: __rt_lib_init_clock_1
          205   3903: __rt_lib_init_cpp_1
          206   3923: __rt_lib_init_exceptions_1
          207   3950: __rt_lib_init_fp_trap_1
          208   3974: __rt_lib_init_getenv_1
          209   3997: __rt_lib_init_heap_1
          210   4018: __rt_lib_init_lc_collate_1
          211   4045: __rt_lib_init_lc_ctype_1
          212   4070: __rt_lib_init_lc_monetary_1
          213   4098: __rt_lib_init_lc_numeric_1
          214   4125: __rt_lib_init_lc_time_1
          215   4149: __rt_lib_init_preinit_1
          216   4173: __rt_lib_init_rand_1
          217   4194: __rt_lib_init_return
          218   4215: __rt_lib_init_signal_1
          219   4238: __rt_lib_init_stdio_1
          220   4260: __rt_lib_init_user_alloc_1
          221   4287: __rt_lib_shutdown
          222   4305: __rt_lib_shutdown_cpp_1
          223   4329: __rt_lib_shutdown_fp_trap_1
          224   4357: __rt_lib_shutdown_heap_1
          225   4382: __rt_lib_shutdown_return
          226   4407: __rt_lib_shutdown_signal_1
          227   4434: __rt_lib_shutdown_stdio_1
          228   4460: __rt_lib_shutdown_user_alloc_1
          229   4491: __rt_entry
          230   4502: __rt_entry_presh_1
          231   4521: __rt_entry_sh
          232   4535: __rt_entry_li
          233   4549: __rt_entry_postsh_1
          234   4569: __rt_entry_main
          235   4585: __rt_entry_postli_1
          236   4605: __rt_exit
          237   4615: __rt_exit_ls
          238   4628: __rt_exit_prels_1
          239   4646: __rt_exit_exit
          240   4661: __user_initial_stackheap
          241   4686: __aeabi_memclr4
          242   4702: __aeabi_memclr8
          243   4718: __rt_memclr_w
          244   4732: _memset_w
          245   4742: __use_two_region_memory
          246   4766: __rt_heap_escrow$2region
          247   4791: __rt_heap_expand$2region
          248   4816: __user_setup_stackheap
          249   4839: exit
          250   4844: __user_libspace
          251   4860: __user_perproc_libspace
          252   4884: __user_perthread_libspace
          253   4910: _sys_exit
          254   4920: __I$use$semihosting
          255   4940: __use_no_semihosting_swi
          256   4965: HardFault_Handler
          257   4983: __semihosting_library_function
          258   5014: am_bsp_low_power_init
          259   5036: am_bsp_uart_printf_disable
          260   5063: am_bsp_uart_printf_enable
          261   5089: am_bsp_uart_string_print
          262   5114: am_hal_burst_ldo_charge
          263   5138: am_hal_cachectrl_config
          264   5162: am_hal_cachectrl_control
          265   5187: am_hal_cachectrl_enable
          266   5211: am_hal_clkgen_control
          267   5233: am_hal_flash_delay
          268   5252: am_hal_flash_delay_status_check
          269   5284: am_hal_flash_load_ui32
          270   5307: am_hal_flash_store_ui32
          271   5331: am_hal_gpio_pinconfig
          272   5353: am_hal_gpio_state_write
          273   5377: am_hal_interrupt_master_disable
          274   5409: am_hal_interrupt_master_set
          275   5437: am_hal_mcuctrl_info_get
          276   5461: am_hal_pwrctrl_blebuck_trim
          277   5489: am_hal_pwrctrl_bleif_workaround
          278   5521: am_hal_pwrctrl_low_power_init
          279   5551: am_hal_pwrctrl_memory_enable
          280   5580: am_hal_pwrctrl_periph_disable
          281   5610: am_hal_pwrctrl_periph_enable
          282   5639: am_hal_queue_init
          283   5657: am_hal_queue_item_add
          284   5679: am_hal_queue_item_get
          285   5701: am_hal_rtc_osc_disable
          286   5724: am_hal_uart_configure
          287   5746: am_hal_uart_deinitialize
          288   5771: am_hal_uart_initialize
          289   5794: am_hal_uart_power_control
          290   5820: am_hal_uart_transfer
          291   5841: am_hal_uart_tx_flush
          292   5862: am_util_faultisr_collect_data
          293   5892: am_util_stdio_printf
          294   5913: am_util_stdio_printf_init
          295   5939: am_util_stdio_terminal_clear
          296   5968: am_util_stdio_vsprintf
          297   5991: getStackedReg
          298   6005: main
          299   6010: prime_number
          300   6023: set_for_min_power
          301   6041: __aeabi_d2f
          302   6053: _d2f
          303   6058: __fpl_dnaninf
          304   6072: _fp_init
          305   6081: __fplib_config_fpu_vfp
          306   6104: __fplib_config_pureend_doubles
          307   6135: __fpl_fretinf
          308   6149: __I$use$fp
          309   6160: am_hal_cachectrl_defaults
          310   6186: am_hal_pwrctrl_memory_control
          311   6216: am_hal_pwrctrl_peripheral_control
          312   6250: g_AM_BSP_GPIO_COM_UART_RX
          313   6276: g_AM_BSP_GPIO_COM_UART_TX
          314   6302: g_AM_HAL_GPIO_DISABLE
          315   6324: g_AM_HAL_GPIO_OUTPUT
          316   6345: g_am_hal_mcuctrl_flash_size
          317   6373: g_am_hal_mcuctrl_sram_size
          318   6400: g_ui32HALversion
          319   6417: g_ui8HALcompiler
          320   6434: Region$$Table$$Base
          321   6454: Region$$Table$$Limit
          322   6475: am_bsp_psLEDs
          323   6489: __libspace_start
          324   6506: __temporary_stack_top$libspace
          325   6537: gAmHalResetStatus
          326   6555: g_bSimobuckTrimsDone
          327   6576: g_bVddfTrimsDone
          328   6593: g_pfnCharPrint


** Section #14 '.note' (SHT_NOTE)
    Size   : 32 bytes (alignment 4)


** Section #15 '.comment' (SHT_PROGBITS)
    Size   : 1520 bytes


** Section #16 '.shstrtab' (SHT_STRTAB)
    Size   : 156 bytes

            #  Offset String
        ====================================

            1      1: ROMEM
            2      7: RWMEM
            3     13: TCM
            4     17: STACKMEM
            5     26: .debug_abbrev
            6     40: .debug_frame
            7     53: .debug_info
            8     65: .debug_line
            9     77: .debug_loc
           10     88: .debug_str
           11     99: .debug_ranges
           12    113: .symtab
           13    121: .strtab
           14    129: .note
           15    135: .comment
           16    144: .shstrtab
           17    154: 
           18    155: 


