
========================================================================

** ELF Header Information

    File Name: bin\ios_fifo.axf

    Machine class: ELFCLASS32 (32-bit)
    Data encoding: ELFDATA2LSB (Little endian)
    Header version: EV_CURRENT (Current version)
    Operating System ABI: none
    ABI Version: 0
    File Type: ET_EXEC (Executable) (2)
    Machine: EM_ARM (ARM)

    Image Entry point: 0x0000c135
    Flags: EF_ARM_HASENTRY + EF_ARM_ABI_FLOAT_HARD (0x05000402)

    ARM ELF revision: 5 (ABI version 2)

    Conforms to Hard float procedure-call standard

    Built with
    Component: ARM Compiler 6.16 Tool: armasm [5dfea300]
    Component: ARM Compiler 6.16 Tool: armlink [5dfeaa00]

    Header size: 52 bytes (0x34)
    Program header entry size: 32 bytes (0x20)
    Section header entry size: 40 bytes (0x28)

    Program header entries: 1
    Section header entries: 16

    Program header offset: 52684 (0x0000cdcc)
    Section header offset: 52716 (0x0000cdec)

    Section header string table index: 15

========================================================================

** Program header #0 (PT_LOAD) [PF_X + PF_W + PF_R + PF_ARM_ENTRY]
    Size : 21632 bytes (14640 bytes in file)
    Virtual address: 0x0000c000 (Alignment 8)


========================================================================

** Section #1 'ROMEM' (SHT_PROGBITS) [SHF_ALLOC + SHF_EXECINSTR]
    Size   : 14508 bytes (alignment 4)
    Address: 0x0000c000

    $d
    RESET
    __Vectors
        0x0000c000:    10011000    ....    DCD    268505088
        0x0000c004:    0000c101    ....    DCD    49409
        0x0000c008:    0000c11f    ....    DCD    49439
        0x0000c00c:    0000c11d    ....    DCD    49437
        0x0000c010:    0000c121    !...    DCD    49441
        0x0000c014:    0000c123    #...    DCD    49443
        0x0000c018:    0000c125    %...    DCD    49445
        0x0000c01c:    00000000    ....    DCD    0
        0x0000c020:    00000000    ....    DCD    0
        0x0000c024:    00000000    ....    DCD    0
        0x0000c028:    00000000    ....    DCD    0
        0x0000c02c:    0000c127    '...    DCD    49447
        0x0000c030:    0000c129    )...    DCD    49449
        0x0000c034:    00000000    ....    DCD    0
        0x0000c038:    0000c12b    +...    DCD    49451
        0x0000c03c:    0000c12d    -...    DCD    49453
        0x0000c040:    0000c12f    /...    DCD    49455
        0x0000c044:    0000c12f    /...    DCD    49455
        0x0000c048:    0000c12f    /...    DCD    49455
        0x0000c04c:    0000c12f    /...    DCD    49455
        0x0000c050:    0000df91    ....    DCD    57233
        0x0000c054:    0000c12f    /...    DCD    49455
        0x0000c058:    0000c12f    /...    DCD    49455
        0x0000c05c:    0000c12f    /...    DCD    49455
        0x0000c060:    0000c12f    /...    DCD    49455
        0x0000c064:    0000c12f    /...    DCD    49455
        0x0000c068:    0000c12f    /...    DCD    49455
        0x0000c06c:    0000c12f    /...    DCD    49455
        0x0000c070:    0000c12f    /...    DCD    49455
        0x0000c074:    0000c12f    /...    DCD    49455
        0x0000c078:    0000c395    ....    DCD    50069
        0x0000c07c:    0000c12f    /...    DCD    49455
        0x0000c080:    0000c12f    /...    DCD    49455
        0x0000c084:    0000c12f    /...    DCD    49455
        0x0000c088:    0000c12f    /...    DCD    49455
        0x0000c08c:    0000c12f    /...    DCD    49455
        0x0000c090:    0000c12f    /...    DCD    49455
        0x0000c094:    0000c12f    /...    DCD    49455
        0x0000c098:    0000c12f    /...    DCD    49455
        0x0000c09c:    0000c12f    /...    DCD    49455
        0x0000c0a0:    0000c12f    /...    DCD    49455
        0x0000c0a4:    0000c12f    /...    DCD    49455
        0x0000c0a8:    0000c12f    /...    DCD    49455
        0x0000c0ac:    0000c12f    /...    DCD    49455
        0x0000c0b0:    0000c12f    /...    DCD    49455
        0x0000c0b4:    0000c12f    /...    DCD    49455
        0x0000c0b8:    0000c12f    /...    DCD    49455
        0x0000c0bc:    0000c12f    /...    DCD    49455
        0x0000c0c0:    0000c12f    /...    DCD    49455
        0x0000c0c4:    0000c12f    /...    DCD    49455
    __Patchable
        0x0000c0c8:    00000000    ....    DCD    0
        0x0000c0cc:    00000000    ....    DCD    0
        0x0000c0d0:    00000000    ....    DCD    0
        0x0000c0d4:    00000000    ....    DCD    0
        0x0000c0d8:    00000000    ....    DCD    0
        0x0000c0dc:    00000000    ....    DCD    0
        0x0000c0e0:    00000000    ....    DCD    0
        0x0000c0e4:    00000000    ....    DCD    0
        0x0000c0e8:    00000000    ....    DCD    0
        0x0000c0ec:    00000000    ....    DCD    0
        0x0000c0f0:    00000000    ....    DCD    0
        0x0000c0f4:    00000000    ....    DCD    0
        0x0000c0f8:    00000000    ....    DCD    0
        0x0000c0fc:    00000000    ....    DCD    0
    $t
    $v0
    Reset_Handler
        0x0000c100:    f64e5088    N..P    MOV      r0,#0xed88
        0x0000c104:    f2ce0000    ....    MOVT     r0,#0xe000
        0x0000c108:    6801        .h      LDR      r1,[r0,#0]
        0x0000c10a:    f4410170    A.p.    ORR      r1,r1,#0xf00000
        0x0000c10e:    6001        .`      STR      r1,[r0,#0]
        0x0000c110:    f3bf8f4f    ..O.    DSB      
        0x0000c114:    f3bf8f6f    ..o.    ISB      
        0x0000c118:    4805        .H      LDR      r0,[pc,#20] ; [0xc130] = 0xc135
        0x0000c11a:    4700        .G      BX       r0
    HardFault_Handler
        0x0000c11c:    e7fe        ..      B        HardFault_Handler ; 0xc11c
    NMI_Handler
        0x0000c11e:    e7fe        ..      B        NMI_Handler ; 0xc11e
    MemManage_Handler
        0x0000c120:    e7fe        ..      B        MemManage_Handler ; 0xc120
    BusFault_Handler
        0x0000c122:    e7fe        ..      B        BusFault_Handler ; 0xc122
    UsageFault_Handler
        0x0000c124:    e7fe        ..      B        UsageFault_Handler ; 0xc124
    SVC_Handler
        0x0000c126:    e7fe        ..      B        SVC_Handler ; 0xc126
    DebugMon_Handler
        0x0000c128:    e7fe        ..      B        DebugMon_Handler ; 0xc128
    PendSV_Handler
        0x0000c12a:    e7fe        ..      B        PendSV_Handler ; 0xc12a
    SysTick_Handler
        0x0000c12c:    e7fe        ..      B        SysTick_Handler ; 0xc12c
    am_adc_isr
    am_ble_isr
    am_brownout_isr
    am_clkgen_isr
    am_gpio_isr
    am_iomaster0_isr
    am_iomaster1_isr
    am_iomaster2_isr
    am_iomaster3_isr
    am_iomaster4_isr
    am_iomaster5_isr
    am_ioslave_acc_isr
    am_mspi0_isr
    am_mspi1_isr
    am_mspi2_isr
    am_pdm0_isr
    am_rtc_isr
    am_scard_isr
    am_software0_isr
    am_stimer_cmpr0_isr
    am_stimer_cmpr1_isr
    am_stimer_cmpr2_isr
    am_stimer_cmpr3_isr
    am_stimer_cmpr4_isr
    am_stimer_cmpr5_isr
    am_stimer_cmpr6_isr
    am_stimer_cmpr7_isr
    am_stimer_isr
    am_uart0_isr
    am_uart1_isr
    am_uart_isr
    am_vcomp_isr
    am_watchdog_isr
        0x0000c12e:    e7fe        ..      B        am_adc_isr ; 0xc12e
    $d
        0x0000c130:    0000c135    5...    DCD    49461
    $t
    !!!main
    __main
        0x0000c134:    f000f802    ....    BL       __scatterload ; 0xc13c
        0x0000c138:    f000f83c    ..<.    BL       __rt_entry ; 0xc1b4
    !!!scatter
    __scatterload
    __scatterload_rt2
    __scatterload_rt2_thumb_only
        0x0000c13c:    a00a        ..      ADR      r0,{pc}+0x2c ; 0xc168
        0x0000c13e:    e8900c00    ....    LDM      r0,{r10,r11}
        0x0000c142:    4482        .D      ADD      r10,r10,r0
        0x0000c144:    4483        .D      ADD      r11,r11,r0
        0x0000c146:    f1aa0701    ....    SUB      r7,r10,#1
    __scatterload_null
        0x0000c14a:    45da        .E      CMP      r10,r11
        0x0000c14c:    d101        ..      BNE      0xc152 ; __scatterload_null + 8
        0x0000c14e:    f000f831    ..1.    BL       __rt_entry ; 0xc1b4
        0x0000c152:    f2af0e09    ....    ADR      lr,{pc}-7 ; 0xc14b
        0x0000c156:    e8ba000f    ....    LDM      r10!,{r0-r3}
        0x0000c15a:    f0130f01    ....    TST      r3,#1
        0x0000c15e:    bf18        ..      IT       NE
        0x0000c160:    1afb        ..      SUBNE    r3,r7,r3
        0x0000c162:    f0430301    C...    ORR      r3,r3,#1
        0x0000c166:    4718        .G      BX       r3
    $d
        0x0000c168:    00003714    .7..    DCD    14100
        0x0000c16c:    00003744    D7..    DCD    14148
    $t
    !!handler_copy
    __scatterload_copy
        0x0000c170:    3a10        .:      SUBS     r2,r2,#0x10
        0x0000c172:    bf24        $.      ITT      CS
        0x0000c174:    c878        x.      LDMCS    r0!,{r3-r6}
        0x0000c176:    c178        x.      STMCS    r1!,{r3-r6}
        0x0000c178:    d8fa        ..      BHI      __scatterload_copy ; 0xc170
        0x0000c17a:    0752        R.      LSLS     r2,r2,#29
        0x0000c17c:    bf24        $.      ITT      CS
        0x0000c17e:    c830        0.      LDMCS    r0!,{r4,r5}
        0x0000c180:    c130        0.      STMCS    r1!,{r4,r5}
        0x0000c182:    bf44        D.      ITT      MI
        0x0000c184:    6804        .h      LDRMI    r4,[r0,#0]
        0x0000c186:    600c        .`      STRMI    r4,[r1,#0]
        0x0000c188:    4770        pG      BX       lr
        0x0000c18a:    0000        ..      MOVS     r0,r0
    !!handler_zi
    __scatterload_zeroinit
        0x0000c18c:    2300        .#      MOVS     r3,#0
        0x0000c18e:    2400        .$      MOVS     r4,#0
        0x0000c190:    2500        .%      MOVS     r5,#0
        0x0000c192:    2600        .&      MOVS     r6,#0
        0x0000c194:    3a10        .:      SUBS     r2,r2,#0x10
        0x0000c196:    bf28        (.      IT       CS
        0x0000c198:    c178        x.      STMCS    r1!,{r3-r6}
        0x0000c19a:    d8fb        ..      BHI      0xc194 ; __scatterload_zeroinit + 8
        0x0000c19c:    0752        R.      LSLS     r2,r2,#29
        0x0000c19e:    bf28        (.      IT       CS
        0x0000c1a0:    c130        0.      STMCS    r1!,{r4,r5}
        0x0000c1a2:    bf48        H.      IT       MI
        0x0000c1a4:    600b        .`      STRMI    r3,[r1,#0]
        0x0000c1a6:    4770        pG      BX       lr
    .ARM.Collect$$libinit$$00000000
    __rt_lib_init
        0x0000c1a8:    b51f        ..      PUSH     {r0-r4,lr}
    .ARM.Collect$$libinit$$00000001
    __rt_lib_init_fp_1
        0x0000c1aa:    f003f976    ..v.    BL       _fp_init ; 0xf49a
    .ARM.Collect$$libinit$$00000004
    .ARM.Collect$$libinit$$0000000A
    .ARM.Collect$$libinit$$0000000C
    .ARM.Collect$$libinit$$0000000E
    .ARM.Collect$$libinit$$00000011
    .ARM.Collect$$libinit$$00000013
    .ARM.Collect$$libinit$$00000015
    .ARM.Collect$$libinit$$00000017
    .ARM.Collect$$libinit$$00000019
    .ARM.Collect$$libinit$$0000001B
    .ARM.Collect$$libinit$$0000001D
    .ARM.Collect$$libinit$$0000001F
    .ARM.Collect$$libinit$$00000021
    .ARM.Collect$$libinit$$00000023
    .ARM.Collect$$libinit$$00000025
    .ARM.Collect$$libinit$$0000002C
    .ARM.Collect$$libinit$$0000002E
    .ARM.Collect$$libinit$$00000030
    .ARM.Collect$$libinit$$00000032
    .ARM.Collect$$libinit$$00000033
    __rt_lib_init_alloca_1
    __rt_lib_init_argv_1
    __rt_lib_init_atexit_1
    __rt_lib_init_clock_1
    __rt_lib_init_cpp_1
    __rt_lib_init_exceptions_1
    __rt_lib_init_fp_trap_1
    __rt_lib_init_getenv_1
    __rt_lib_init_heap_1
    __rt_lib_init_lc_collate_1
    __rt_lib_init_lc_ctype_1
    __rt_lib_init_lc_monetary_1
    __rt_lib_init_lc_numeric_1
    __rt_lib_init_lc_time_1
    __rt_lib_init_preinit_1
    __rt_lib_init_rand_1
    __rt_lib_init_return
    __rt_lib_init_signal_1
    __rt_lib_init_stdio_1
    __rt_lib_init_user_alloc_1
        0x0000c1ae:    bd1f        ..      POP      {r0-r4,pc}
    .ARM.Collect$$libshutdown$$00000000
    __rt_lib_shutdown
        0x0000c1b0:    b510        ..      PUSH     {r4,lr}
    .ARM.Collect$$libshutdown$$00000002
    .ARM.Collect$$libshutdown$$00000004
    .ARM.Collect$$libshutdown$$00000007
    .ARM.Collect$$libshutdown$$0000000A
    .ARM.Collect$$libshutdown$$0000000C
    .ARM.Collect$$libshutdown$$0000000F
    .ARM.Collect$$libshutdown$$00000010
    __rt_lib_shutdown_cpp_1
    __rt_lib_shutdown_fp_trap_1
    __rt_lib_shutdown_heap_1
    __rt_lib_shutdown_return
    __rt_lib_shutdown_signal_1
    __rt_lib_shutdown_stdio_1
    __rt_lib_shutdown_user_alloc_1
        0x0000c1b2:    bd10        ..      POP      {r4,pc}
    .ARM.Collect$$rtentry$$00000000
    .ARM.Collect$$rtentry$$00000002
    .ARM.Collect$$rtentry$$00000004
    __rt_entry
    __rt_entry_presh_1
    __rt_entry_sh
        0x0000c1b4:    f000f81d    ....    BL       __user_setup_stackheap ; 0xc1f2
        0x0000c1b8:    4611        .F      MOV      r1,r2
    .ARM.Collect$$rtentry$$00000009
    .ARM.Collect$$rtentry$$0000000A
    __rt_entry_li
    __rt_entry_postsh_1
        0x0000c1ba:    f7fffff5    ....    BL       __rt_lib_init ; 0xc1a8
    .ARM.Collect$$rtentry$$0000000C
    .ARM.Collect$$rtentry$$0000000D
    __rt_entry_main
    __rt_entry_postli_1
        0x0000c1be:    f002fda5    ....    BL       main ; 0xed0c
        0x0000c1c2:    f000f83b    ..;.    BL       exit ; 0xc23c
    .ARM.Collect$$rtexit$$00000000
    __rt_exit
        0x0000c1c6:    b403        ..      PUSH     {r0,r1}
    .ARM.Collect$$rtexit$$00000002
    .ARM.Collect$$rtexit$$00000003
    __rt_exit_ls
    __rt_exit_prels_1
        0x0000c1c8:    f7fffff2    ....    BL       __rt_lib_shutdown ; 0xc1b0
    .ARM.Collect$$rtexit$$00000004
    __rt_exit_exit
        0x0000c1cc:    bc03        ..      POP      {r0,r1}
        0x0000c1ce:    f000f843    ..C.    BL       _sys_exit ; 0xc258
        0x0000c1d2:    0000        ..      MOVS     r0,r0
    .text
    $v0
    __user_initial_stackheap
        0x0000c1d4:    4802        .H      LDR      r0,[pc,#8] ; [0xc1e0] = 0x10011bd0
        0x0000c1d6:    4903        .I      LDR      r1,[pc,#12] ; [0xc1e4] = 0x10011000
        0x0000c1d8:    4a01        .J      LDR      r2,[pc,#4] ; [0xc1e0] = 0x10011bd0
        0x0000c1da:    4b03        .K      LDR      r3,[pc,#12] ; [0xc1e8] = 0x10010000
        0x0000c1dc:    4770        pG      BX       lr
    $d
        0x0000c1de:    0000        ..      DCW    0
        0x0000c1e0:    10011bd0    ....    DCD    268508112
        0x0000c1e4:    10011000    ....    DCD    268505088
        0x0000c1e8:    10010000    ....    DCD    268500992
    $t
    .text
    __use_two_region_memory
        0x0000c1ec:    4770        pG      BX       lr
    __rt_heap_escrow$2region
        0x0000c1ee:    4770        pG      BX       lr
    __rt_heap_expand$2region
        0x0000c1f0:    4770        pG      BX       lr
    .text
    __user_setup_stackheap
        0x0000c1f2:    4675        uF      MOV      r5,lr
        0x0000c1f4:    f000f82c    ..,.    BL       __user_libspace ; 0xc250
        0x0000c1f8:    46ae        .F      MOV      lr,r5
        0x0000c1fa:    0005        ..      MOVS     r5,r0
        0x0000c1fc:    4669        iF      MOV      r1,sp
        0x0000c1fe:    4653        SF      MOV      r3,r10
        0x0000c200:    f0200007     ...    BIC      r0,r0,#7
        0x0000c204:    4685        .F      MOV      sp,r0
        0x0000c206:    b018        ..      ADD      sp,sp,#0x60
        0x0000c208:    b520         .      PUSH     {r5,lr}
        0x0000c20a:    f7ffffe3    ....    BL       __user_initial_stackheap ; 0xc1d4
        0x0000c20e:    e8bd4020    .. @    POP      {r5,lr}
        0x0000c212:    f04f0600    O...    MOV      r6,#0
        0x0000c216:    f04f0700    O...    MOV      r7,#0
        0x0000c21a:    f04f0800    O...    MOV      r8,#0
        0x0000c21e:    f04f0b00    O...    MOV      r11,#0
        0x0000c222:    46ac        .F      MOV      r12,r5
        0x0000c224:    e8ac09c0    ....    STM      r12!,{r6-r8,r11}
        0x0000c228:    e8ac09c0    ....    STM      r12!,{r6-r8,r11}
        0x0000c22c:    e8ac09c0    ....    STM      r12!,{r6-r8,r11}
        0x0000c230:    e8ac09c0    ....    STM      r12!,{r6-r8,r11}
        0x0000c234:    f0210107    !...    BIC      r1,r1,#7
        0x0000c238:    468d        .F      MOV      sp,r1
        0x0000c23a:    4770        pG      BX       lr
    .text
    exit
        0x0000c23c:    b510        ..      PUSH     {r4,lr}
        0x0000c23e:    4604        .F      MOV      r4,r0
        0x0000c240:    f3af8000    ....    NOP.W    
        0x0000c244:    4620         F      MOV      r0,r4
        0x0000c246:    e8bd4010    ...@    POP      {r4,lr}
        0x0000c24a:    f7ffbfbc    ....    B.W      __rt_exit ; 0xc1c6
        0x0000c24e:    0000        ..      MOVS     r0,r0
    .text
    __user_libspace
    __user_perproc_libspace
    __user_perthread_libspace
        0x0000c250:    4800        .H      LDR      r0,[pc,#0] ; [0xc254] = 0x10011080
        0x0000c252:    4770        pG      BX       lr
    $d
        0x0000c254:    10011080    ....    DCD    268505216
    $t
    .text
    _sys_exit
        0x0000c258:    4901        .I      LDR      r1,[pc,#4] ; [0xc260] = 0x20026
        0x0000c25a:    2018        .       MOVS     r0,#0x18
        0x0000c25c:    beab        ..      BKPT     #0xab
        0x0000c25e:    e7fe        ..      B        0xc25e ; _sys_exit + 6
    $d
        0x0000c260:    00020026    &...    DCD    131110
    $t
    .text
    __I$use$semihosting
    __use_no_semihosting_swi
        0x0000c264:    4770        pG      BX       lr
    .text
    __semihosting_library_function
        0x0000c266:    0000        ..      MOVS     r0,r0
    $t.6
    __NVIC_EnableIRQ
        0x0000c268:    b081        ..      SUB      sp,sp,#4
        0x0000c26a:    f88d0003    ....    STRB     r0,[sp,#3]
        0x0000c26e:    f99d0003    ....    LDRSB    r0,[sp,#3]
        0x0000c272:    2800        .(      CMP      r0,#0
        0x0000c274:    d40e        ..      BMI      0xc294 ; __NVIC_EnableIRQ + 44
        0x0000c276:    e7ff        ..      B        0xc278 ; __NVIC_EnableIRQ + 16
        0x0000c278:    f99d1003    ....    LDRSB    r1,[sp,#3]
        0x0000c27c:    f001021f    ....    AND      r2,r1,#0x1f
        0x0000c280:    2001        .       MOVS     r0,#1
        0x0000c282:    4090        .@      LSLS     r0,r0,r2
        0x0000c284:    094a        J.      LSRS     r2,r1,#5
        0x0000c286:    f24e1100    N...    MOVW     r1,#0xe100
        0x0000c28a:    f2ce0100    ....    MOVT     r1,#0xe000
        0x0000c28e:    f8410022    A.".    STR      r0,[r1,r2,LSL #2]
        0x0000c292:    e7ff        ..      B        0xc294 ; __NVIC_EnableIRQ + 44
        0x0000c294:    b001        ..      ADD      sp,sp,#4
        0x0000c296:    4770        pG      BX       lr
    am_bsp_ios_pins_enable
        0x0000c298:    b580        ..      PUSH     {r7,lr}
        0x0000c29a:    b100        ..      CBZ      r0,0xc29e ; am_bsp_ios_pins_enable + 6
        0x0000c29c:    bd80        ..      POP      {r7,pc}
        0x0000c29e:    b301        ..      CBZ      r1,0xc2e2 ; am_bsp_ios_pins_enable + 74
        0x0000c2a0:    2901        .)      CMP      r1,#1
        0x0000c2a2:    d1fb        ..      BNE      0xc29c ; am_bsp_ios_pins_enable + 4
        0x0000c2a4:    f24f50b0    O..P    MOV      r0,#0xf5b0
        0x0000c2a8:    f2c00000    ....    MOVT     r0,#0
        0x0000c2ac:    6801        .h      LDR      r1,[r0,#0]
        0x0000c2ae:    2000        .       MOVS     r0,#0
        0x0000c2b0:    f000fe22    ..".    BL       am_hal_gpio_pinconfig ; 0xcef8
        0x0000c2b4:    f24f50a8    O..P    MOV      r0,#0xf5a8
        0x0000c2b8:    f2c00000    ....    MOVT     r0,#0
        0x0000c2bc:    6801        .h      LDR      r1,[r0,#0]
        0x0000c2be:    2002        .       MOVS     r0,#2
        0x0000c2c0:    f000fe1a    ....    BL       am_hal_gpio_pinconfig ; 0xcef8
        0x0000c2c4:    f24f50ac    O..P    MOV      r0,#0xf5ac
        0x0000c2c8:    f2c00000    ....    MOVT     r0,#0
        0x0000c2cc:    6801        .h      LDR      r1,[r0,#0]
        0x0000c2ce:    2001        .       MOVS     r0,#1
        0x0000c2d0:    f000fe12    ....    BL       am_hal_gpio_pinconfig ; 0xcef8
        0x0000c2d4:    f24f50a4    O..P    MOV      r0,#0xf5a4
        0x0000c2d8:    f2c00000    ....    MOVT     r0,#0
        0x0000c2dc:    6801        .h      LDR      r1,[r0,#0]
        0x0000c2de:    2003        .       MOVS     r0,#3
        0x0000c2e0:    e00d        ..      B        0xc2fe ; am_bsp_ios_pins_enable + 102
        0x0000c2e2:    f24f50b4    O..P    MOV      r0,#0xf5b4
        0x0000c2e6:    f2c00000    ....    MOVT     r0,#0
        0x0000c2ea:    6801        .h      LDR      r1,[r0,#0]
        0x0000c2ec:    2000        .       MOVS     r0,#0
        0x0000c2ee:    f000fe03    ....    BL       am_hal_gpio_pinconfig ; 0xcef8
        0x0000c2f2:    f24f50b8    O..P    MOV      r0,#0xf5b8
        0x0000c2f6:    f2c00000    ....    MOVT     r0,#0
        0x0000c2fa:    6801        .h      LDR      r1,[r0,#0]
        0x0000c2fc:    2001        .       MOVS     r0,#1
        0x0000c2fe:    e8bd4080    ...@    POP      {r7,lr}
        0x0000c302:    f000bdf9    ....    B.W      am_hal_gpio_pinconfig ; 0xcef8
    am_bsp_itm_printf_enable
        0x0000c306:    b580        ..      PUSH     {r7,lr}
        0x0000c308:    b086        ..      SUB      sp,sp,#0x18
        0x0000c30a:    f64130c8    A..0    MOV      r0,#0x1bc8
        0x0000c30e:    f2c10001    ....    MOVT     r0,#0x1001
        0x0000c312:    2101        .!      MOVS     r1,#1
        0x0000c314:    6001        .`      STR      r1,[r0,#0]
        0x0000c316:    f001fae5    ....    BL       am_hal_itm_enable ; 0xd8e4
        0x0000c31a:    f2442040    D.@     MOV      r0,#0x4240
        0x0000c31e:    f2c0000f    ....    MOVT     r0,#0xf
        0x0000c322:    9001        ..      STR      r0,[sp,#4]
        0x0000c324:    a801        ..      ADD      r0,sp,#4
        0x0000c326:    f001fde9    ....    BL       am_hal_tpiu_enable ; 0xdefc
        0x0000c32a:    f24f50bc    O..P    MOV      r0,#0xf5bc
        0x0000c32e:    f2c00000    ....    MOVT     r0,#0
        0x0000c332:    6801        .h      LDR      r1,[r0,#0]
        0x0000c334:    2029        )       MOVS     r0,#0x29
        0x0000c336:    f000fddf    ....    BL       am_hal_gpio_pinconfig ; 0xcef8
        0x0000c33a:    f64d1029    M.).    MOV      r0,#0xd929
        0x0000c33e:    f2c00000    ....    MOVT     r0,#0
        0x0000c342:    f001fee5    ....    BL       am_util_stdio_printf_init ; 0xe110
        0x0000c346:    b006        ..      ADD      sp,sp,#0x18
        0x0000c348:    bd80        ..      POP      {r7,pc}
        0x0000c34a:    0000        ..      MOVS     r0,r0
    am_bsp_low_power_init
        0x0000c34c:    b5f0        ..      PUSH     {r4-r7,lr}
        0x0000c34e:    b081        ..      SUB      sp,sp,#4
        0x0000c350:    f001fbba    ....    BL       am_hal_pwrctrl_low_power_init ; 0xdac8
        0x0000c354:    f001fd75    ..u.    BL       am_hal_rtc_osc_disable ; 0xde42
        0x0000c358:    f24f50c0    O..P    MOV      r0,#0xf5c0
        0x0000c35c:    f2c00000    ....    MOVT     r0,#0
        0x0000c360:    6804        .h      LDR      r4,[r0,#0]
        0x0000c362:    f2410700    A...    MOVW     r7,#0x1000
        0x0000c366:    2600        .&      MOVS     r6,#0
        0x0000c368:    f2c10701    ....    MOVT     r7,#0x1001
        0x0000c36c:    f8575036    W.6P    LDR      r5,[r7,r6,LSL #3]
        0x0000c370:    4621        !F      MOV      r1,r4
        0x0000c372:    4628        (F      MOV      r0,r5
        0x0000c374:    f000fdc0    ....    BL       am_hal_gpio_pinconfig ; 0xcef8
        0x0000c378:    4628        (F      MOV      r0,r5
        0x0000c37a:    2103        .!      MOVS     r1,#3
        0x0000c37c:    f000fec6    ....    BL       am_hal_gpio_state_write ; 0xd10c
        0x0000c380:    4628        (F      MOV      r0,r5
        0x0000c382:    2100        .!      MOVS     r1,#0
        0x0000c384:    f000fec2    ....    BL       am_hal_gpio_state_write ; 0xd10c
        0x0000c388:    3601        .6      ADDS     r6,#1
        0x0000c38a:    2e05        ..      CMP      r6,#5
        0x0000c38c:    d1ee        ..      BNE      0xc36c ; am_bsp_low_power_init + 32
        0x0000c38e:    b001        ..      ADD      sp,sp,#4
        0x0000c390:    bdf0        ..      POP      {r4-r7,pc}
        0x0000c392:    0000        ..      MOVS     r0,r0
    am_ctimer_isr
        0x0000c394:    b580        ..      PUSH     {r7,lr}
        0x0000c396:    b082        ..      SUB      sp,sp,#8
        0x0000c398:    2000        .       MOVS     r0,#0
        0x0000c39a:    f000fcb4    ....    BL       am_hal_ctimer_int_status_get ; 0xcd06
        0x0000c39e:    9001        ..      STR      r0,[sp,#4]
        0x0000c3a0:    9801        ..      LDR      r0,[sp,#4]
        0x0000c3a2:    f000fb92    ....    BL       am_hal_ctimer_int_clear ; 0xcaca
        0x0000c3a6:    9801        ..      LDR      r0,[sp,#4]
        0x0000c3a8:    f000fc94    ....    BL       am_hal_ctimer_int_service ; 0xccd4
        0x0000c3ac:    b002        ..      ADD      sp,sp,#8
        0x0000c3ae:    bd80        ..      POP      {r7,pc}
    am_hal_burst_ldo_charge
        0x0000c3b0:    b510        ..      PUSH     {r4,lr}
        0x0000c3b2:    f6430038    C.8.    MOV      r0,#0x3838
        0x0000c3b6:    f2c50002    ....    MOVT     r0,#0x5002
        0x0000c3ba:    6800        .h      LDR      r0,[r0,#0]
        0x0000c3bc:    0700        ..      LSLS     r0,r0,#28
        0x0000c3be:    bf48        H.      IT       MI
        0x0000c3c0:    bd10        ..      POPMI    {r4,pc}
        0x0000c3c2:    2460        `$      MOVS     r4,#0x60
        0x0000c3c4:    f2c40402    ....    MOVT     r4,#0x4002
        0x0000c3c8:    6820         h      LDR      r0,[r4,#0]
        0x0000c3ca:    f0200080     ...    BIC      r0,r0,#0x80
        0x0000c3ce:    6020         `      STR      r0,[r4,#0]
        0x0000c3d0:    6820         h      LDR      r0,[r4,#0]
        0x0000c3d2:    f0200020     . .    BIC      r0,r0,#0x20
        0x0000c3d6:    6020         `      STR      r0,[r4,#0]
        0x0000c3d8:    6820         h      LDR      r0,[r4,#0]
        0x0000c3da:    f0400040    @.@.    ORR      r0,r0,#0x40
        0x0000c3de:    6020         `      STR      r0,[r4,#0]
        0x0000c3e0:    6820         h      LDR      r0,[r4,#0]
        0x0000c3e2:    f4407080    @..p    ORR      r0,r0,#0x100
        0x0000c3e6:    6020         `      STR      r0,[r4,#0]
        0x0000c3e8:    f2471000    G...    MOVW     r0,#0x7100
        0x0000c3ec:    f2c00002    ....    MOVT     r0,#2
        0x0000c3f0:    f000fd1f    ....    BL       am_hal_flash_delay ; 0xce32
        0x0000c3f4:    6860        `h      LDR      r0,[r4,#4]
        0x0000c3f6:    f0400008    @...    ORR      r0,r0,#8
        0x0000c3fa:    6060        ``      STR      r0,[r4,#4]
        0x0000c3fc:    6860        `h      LDR      r0,[r4,#4]
        0x0000c3fe:    f0400001    @...    ORR      r0,r0,#1
        0x0000c402:    6060        ``      STR      r0,[r4,#4]
        0x0000c404:    6860        `h      LDR      r0,[r4,#4]
        0x0000c406:    f0400004    @...    ORR      r0,r0,#4
        0x0000c40a:    6060        ``      STR      r0,[r4,#4]
        0x0000c40c:    6860        `h      LDR      r0,[r4,#4]
        0x0000c40e:    f0200002     ...    BIC      r0,r0,#2
        0x0000c412:    6060        ``      STR      r0,[r4,#4]
        0x0000c414:    6860        `h      LDR      r0,[r4,#4]
        0x0000c416:    f0400010    @...    ORR      r0,r0,#0x10
        0x0000c41a:    6060        ``      STR      r0,[r4,#4]
        0x0000c41c:    2020                MOVS     r0,#0x20
        0x0000c41e:    f000fd08    ....    BL       am_hal_flash_delay ; 0xce32
        0x0000c422:    6860        `h      LDR      r0,[r4,#4]
        0x0000c424:    f0400002    @...    ORR      r0,r0,#2
        0x0000c428:    6060        ``      STR      r0,[r4,#4]
        0x0000c42a:    f44f40fa    O..@    MOV      r0,#0x7d00
        0x0000c42e:    f000fd00    ....    BL       am_hal_flash_delay ; 0xce32
        0x0000c432:    6860        `h      LDR      r0,[r4,#4]
        0x0000c434:    f0200001     ...    BIC      r0,r0,#1
        0x0000c438:    6060        ``      STR      r0,[r4,#4]
        0x0000c43a:    6860        `h      LDR      r0,[r4,#4]
        0x0000c43c:    f0200004     ...    BIC      r0,r0,#4
        0x0000c440:    6060        ``      STR      r0,[r4,#4]
        0x0000c442:    6860        `h      LDR      r0,[r4,#4]
        0x0000c444:    f0200002     ...    BIC      r0,r0,#2
        0x0000c448:    6060        ``      STR      r0,[r4,#4]
        0x0000c44a:    6820         h      LDR      r0,[r4,#0]
        0x0000c44c:    f0200040     .@.    BIC      r0,r0,#0x40
        0x0000c450:    6020         `      STR      r0,[r4,#0]
        0x0000c452:    6820         h      LDR      r0,[r4,#0]
        0x0000c454:    f4207080     ..p    BIC      r0,r0,#0x100
        0x0000c458:    6020         `      STR      r0,[r4,#0]
        0x0000c45a:    bd10        ..      POP      {r4,pc}
    am_hal_burst_ldo_patch_check
        0x0000c45c:    f6430038    C.8.    MOV      r0,#0x3838
        0x0000c460:    f2c50002    ....    MOVT     r0,#0x5002
        0x0000c464:    6800        .h      LDR      r0,[r0,#0]
        0x0000c466:    2101        .!      MOVS     r1,#1
        0x0000c468:    f0000008    ....    AND      r0,r0,#8
        0x0000c46c:    ea8100d0    ....    EOR      r0,r1,r0,LSR #3
        0x0000c470:    4770        pG      BX       lr
    am_hal_burst_mode_disable
        0x0000c472:    b570        p.      PUSH     {r4-r6,lr}
        0x0000c474:    b082        ..      SUB      sp,sp,#8
        0x0000c476:    f24111a0    A...    MOVW     r1,#0x11a0
        0x0000c47a:    f2c10101    ....    MOVT     r1,#0x1001
        0x0000c47e:    7809        .x      LDRB     r1,[r1,#0]
        0x0000c480:    4604        .F      MOV      r4,r0
        0x0000c482:    b309        ..      CBZ      r1,0xc4c8 ; am_hal_burst_mode_disable + 86
        0x0000c484:    f2440534    D.4.    MOV      r5,#0x4034
        0x0000c488:    f2c40500    ....    MOVT     r5,#0x4000
        0x0000c48c:    f000fe8a    ....    BL       am_hal_interrupt_master_disable ; 0xd1a4
        0x0000c490:    9001        ..      STR      r0,[sp,#4]
        0x0000c492:    4628        (F      MOV      r0,r5
        0x0000c494:    2100        .!      MOVS     r1,#0
        0x0000c496:    f000fd1d    ....    BL       am_hal_flash_store_ui32 ; 0xced4
        0x0000c49a:    9801        ..      LDR      r0,[sp,#4]
        0x0000c49c:    f000fe8a    ....    BL       am_hal_interrupt_master_set ; 0xd1b4
        0x0000c4a0:    f2410028    A.(.    MOV      r0,#0x1028
        0x0000c4a4:    f2c40002    ....    MOVT     r0,#0x4002
        0x0000c4a8:    6801        .h      LDR      r1,[r0,#0]
        0x0000c4aa:    2601        .&      MOVS     r6,#1
        0x0000c4ac:    f0214100    !..A    BIC      r1,r1,#0x80000000
        0x0000c4b0:    6001        .`      STR      r1,[r0,#0]
        0x0000c4b2:    f2427010    B..p    MOV      r0,#0x2710
        0x0000c4b6:    4629        )F      MOV      r1,r5
        0x0000c4b8:    2204        ."      MOVS     r2,#4
        0x0000c4ba:    2300        .#      MOVS     r3,#0
        0x0000c4bc:    9600        ..      STR      r6,[sp,#0]
        0x0000c4be:    f000fccd    ....    BL       am_hal_flash_delay_status_check ; 0xce5c
        0x0000c4c2:    b138        8.      CBZ      r0,0xc4d4 ; am_hal_burst_mode_disable + 98
        0x0000c4c4:    7026        &p      STRB     r6,[r4,#0]
        0x0000c4c6:    e00a        ..      B        0xc4de ; am_hal_burst_mode_disable + 108
        0x0000c4c8:    4620         F      MOV      r0,r4
        0x0000c4ca:    b002        ..      ADD      sp,sp,#8
        0x0000c4cc:    e8bd4070    ..p@    POP      {r4-r6,lr}
        0x0000c4d0:    f000b807    ....    B.W      am_hal_burst_mode_disable_w_manual_sequence ; 0xc4e2
        0x0000c4d4:    6828        (h      LDR      r0,[r5,#0]
        0x0000c4d6:    ea260090    &...    BIC      r0,r6,r0,LSR #2
        0x0000c4da:    7020         p      STRB     r0,[r4,#0]
        0x0000c4dc:    2000        .       MOVS     r0,#0
        0x0000c4de:    b002        ..      ADD      sp,sp,#8
        0x0000c4e0:    bd70        p.      POP      {r4-r6,pc}
    am_hal_burst_mode_disable_w_manual_sequence
        0x0000c4e2:    b510        ..      PUSH     {r4,lr}
        0x0000c4e4:    b150        P.      CBZ      r0,0xc4fc ; am_hal_burst_mode_disable_w_manual_sequence + 26
        0x0000c4e6:    f24114a0    A...    MOVW     r4,#0x11a0
        0x0000c4ea:    f2c10401    ....    MOVT     r4,#0x1001
        0x0000c4ee:    2101        .!      MOVS     r1,#1
        0x0000c4f0:    7021        !p      STRB     r1,[r4,#0]
        0x0000c4f2:    f7ffffbe    ....    BL       am_hal_burst_mode_disable ; 0xc472
        0x0000c4f6:    2100        .!      MOVS     r1,#0
        0x0000c4f8:    7021        !p      STRB     r1,[r4,#0]
        0x0000c4fa:    e000        ..      B        0xc4fe ; am_hal_burst_mode_disable_w_manual_sequence + 28
        0x0000c4fc:    2002        .       MOVS     r0,#2
        0x0000c4fe:    f6430138    C.8.    MOV      r1,#0x3838
        0x0000c502:    f2c50102    ....    MOVT     r1,#0x5002
        0x0000c506:    6809        .h      LDR      r1,[r1,#0]
        0x0000c508:    0709        ..      LSLS     r1,r1,#28
        0x0000c50a:    bf48        H.      IT       MI
        0x0000c50c:    bd10        ..      POPMI    {r4,pc}
        0x0000c50e:    2164        d!      MOVS     r1,#0x64
        0x0000c510:    f2c40102    ....    MOVT     r1,#0x4002
        0x0000c514:    680a        .h      LDR      r2,[r1,#0]
        0x0000c516:    f0220204    "...    BIC      r2,r2,#4
        0x0000c51a:    600a        .`      STR      r2,[r1,#0]
        0x0000c51c:    680a        .h      LDR      r2,[r1,#0]
        0x0000c51e:    f0220202    "...    BIC      r2,r2,#2
        0x0000c522:    600a        .`      STR      r2,[r1,#0]
        0x0000c524:    f8d12fc0    .../    LDR      r2,[r1,#0xfc0]
        0x0000c528:    f0220280    "...    BIC      r2,r2,#0x80
        0x0000c52c:    f8c12fc0    .../    STR      r2,[r1,#0xfc0]
        0x0000c530:    bd10        ..      POP      {r4,pc}
    am_hal_burst_mode_enable
        0x0000c532:    b570        p.      PUSH     {r4-r6,lr}
        0x0000c534:    b082        ..      SUB      sp,sp,#8
        0x0000c536:    f24111a1    A...    MOV      r1,#0x11a1
        0x0000c53a:    f2c10101    ....    MOVT     r1,#0x1001
        0x0000c53e:    7809        .x      LDRB     r1,[r1,#0]
        0x0000c540:    4604        .F      MOV      r4,r0
        0x0000c542:    b1c9        ..      CBZ      r1,0xc578 ; am_hal_burst_mode_enable + 70
        0x0000c544:    f2411018    A...    MOV      r0,#0x1118
        0x0000c548:    f2c10001    ....    MOVT     r0,#0x1001
        0x0000c54c:    7800        .x      LDRB     r0,[r0,#0]
        0x0000c54e:    b1c8        ..      CBZ      r0,0xc584 ; am_hal_burst_mode_enable + 82
        0x0000c550:    f2440534    D.4.    MOV      r5,#0x4034
        0x0000c554:    f2c40500    ....    MOVT     r5,#0x4000
        0x0000c558:    6828        (h      LDR      r0,[r5,#0]
        0x0000c55a:    2601        .&      MOVS     r6,#1
        0x0000c55c:    f0400001    @...    ORR      r0,r0,#1
        0x0000c560:    6028        (`      STR      r0,[r5,#0]
        0x0000c562:    f2427010    B..p    MOV      r0,#0x2710
        0x0000c566:    4629        )F      MOV      r1,r5
        0x0000c568:    2204        ."      MOVS     r2,#4
        0x0000c56a:    2304        .#      MOVS     r3,#4
        0x0000c56c:    9600        ..      STR      r6,[sp,#0]
        0x0000c56e:    f000fc75    ..u.    BL       am_hal_flash_delay_status_check ; 0xce5c
        0x0000c572:    b158        X.      CBZ      r0,0xc58c ; am_hal_burst_mode_enable + 90
        0x0000c574:    7026        &p      STRB     r6,[r4,#0]
        0x0000c576:    e015        ..      B        0xc5a4 ; am_hal_burst_mode_enable + 114
        0x0000c578:    4620         F      MOV      r0,r4
        0x0000c57a:    b002        ..      ADD      sp,sp,#8
        0x0000c57c:    e8bd4070    ..p@    POP      {r4-r6,lr}
        0x0000c580:    f000b812    ....    B.W      am_hal_burst_mode_enable_w_manual_sequence ; 0xc5a8
        0x0000c584:    2001        .       MOVS     r0,#1
        0x0000c586:    7020         p      STRB     r0,[r4,#0]
        0x0000c588:    2007        .       MOVS     r0,#7
        0x0000c58a:    e00b        ..      B        0xc5a4 ; am_hal_burst_mode_enable + 114
        0x0000c58c:    6828        (h      LDR      r0,[r5,#0]
        0x0000c58e:    0780        ..      LSLS     r0,r0,#30
        0x0000c590:    d402        ..      BMI      0xc598 ; am_hal_burst_mode_enable + 102
        0x0000c592:    2001        .       MOVS     r0,#1
        0x0000c594:    7020         p      STRB     r0,[r4,#0]
        0x0000c596:    e005        ..      B        0xc5a4 ; am_hal_burst_mode_enable + 114
        0x0000c598:    6828        (h      LDR      r0,[r5,#0]
        0x0000c59a:    2101        .!      MOVS     r1,#1
        0x0000c59c:    ea210090    !...    BIC      r0,r1,r0,LSR #2
        0x0000c5a0:    7020         p      STRB     r0,[r4,#0]
        0x0000c5a2:    2000        .       MOVS     r0,#0
        0x0000c5a4:    b002        ..      ADD      sp,sp,#8
        0x0000c5a6:    bd70        p.      POP      {r4-r6,pc}
    am_hal_burst_mode_enable_w_manual_sequence
        0x0000c5a8:    b570        p.      PUSH     {r4-r6,lr}
        0x0000c5aa:    b082        ..      SUB      sp,sp,#8
        0x0000c5ac:    f2411118    A...    MOV      r1,#0x1118
        0x0000c5b0:    f2c10101    ....    MOVT     r1,#0x1001
        0x0000c5b4:    7809        .x      LDRB     r1,[r1,#0]
        0x0000c5b6:    4604        .F      MOV      r4,r0
        0x0000c5b8:    2900        .)      CMP      r1,#0
        0x0000c5ba:    d04d        M.      BEQ      0xc658 ; am_hal_burst_mode_enable_w_manual_sequence + 176
        0x0000c5bc:    f6430038    C.8.    MOV      r0,#0x3838
        0x0000c5c0:    f2c50002    ....    MOVT     r0,#0x5002
        0x0000c5c4:    6800        .h      LDR      r0,[r0,#0]
        0x0000c5c6:    0700        ..      LSLS     r0,r0,#28
        0x0000c5c8:    d44a        J.      BMI      0xc660 ; am_hal_burst_mode_enable_w_manual_sequence + 184
        0x0000c5ca:    2560        `%      MOVS     r5,#0x60
        0x0000c5cc:    f2c40502    ....    MOVT     r5,#0x4002
        0x0000c5d0:    f000fde8    ....    BL       am_hal_interrupt_master_disable ; 0xd1a4
        0x0000c5d4:    9001        ..      STR      r0,[sp,#4]
        0x0000c5d6:    f001fc15    ....    BL       am_hal_pwrctrl_wa_vddf_restore ; 0xde04
        0x0000c5da:    6828        (h      LDR      r0,[r5,#0]
        0x0000c5dc:    f2410604    A...    MOV      r6,#0x1004
        0x0000c5e0:    f0400080    @...    ORR      r0,r0,#0x80
        0x0000c5e4:    6028        (`      STR      r0,[r5,#0]
        0x0000c5e6:    6828        (h      LDR      r0,[r5,#0]
        0x0000c5e8:    f2c40602    ....    MOVT     r6,#0x4002
        0x0000c5ec:    f0400040    @.@.    ORR      r0,r0,#0x40
        0x0000c5f0:    6028        (`      STR      r0,[r5,#0]
        0x0000c5f2:    6830        0h      LDR      r0,[r6,#0]
        0x0000c5f4:    6829        )h      LDR      r1,[r5,#0]
        0x0000c5f6:    f3c0005a    ..Z.    UBFX     r0,r0,#1,#27
        0x0000c5fa:    f3601145    `.E.    BFI      r1,r0,#5,#1
        0x0000c5fe:    6029        )`      STR      r1,[r5,#0]
        0x0000c600:    6828        (h      LDR      r0,[r5,#0]
        0x0000c602:    f4407080    @..p    ORR      r0,r0,#0x100
        0x0000c606:    6028        (`      STR      r0,[r5,#0]
        0x0000c608:    20a0        .       MOVS     r0,#0xa0
        0x0000c60a:    f000fc12    ....    BL       am_hal_flash_delay ; 0xce32
        0x0000c60e:    6828        (h      LDR      r0,[r5,#0]
        0x0000c610:    f0400020    @. .    ORR      r0,r0,#0x20
        0x0000c614:    6028        (`      STR      r0,[r5,#0]
        0x0000c616:    6a30        0j      LDR      r0,[r6,#0x20]
        0x0000c618:    f0400080    @...    ORR      r0,r0,#0x80
        0x0000c61c:    6230        0b      STR      r0,[r6,#0x20]
        0x0000c61e:    f8d50fa0    ....    LDR      r0,[r5,#0xfa0]
        0x0000c622:    f0400001    @...    ORR      r0,r0,#1
        0x0000c626:    f8c50fa0    ....    STR      r0,[r5,#0xfa0]
        0x0000c62a:    6869        ih      LDR      r1,[r5,#4]
        0x0000c62c:    6868        hh      LDR      r0,[r5,#4]
        0x0000c62e:    06c9        ..      LSLS     r1,r1,#27
        0x0000c630:    d422        ".      BMI      0xc678 ; am_hal_burst_mode_enable_w_manual_sequence + 208
        0x0000c632:    f0400008    @...    ORR      r0,r0,#8
        0x0000c636:    6068        h`      STR      r0,[r5,#4]
        0x0000c638:    6868        hh      LDR      r0,[r5,#4]
        0x0000c63a:    f0400001    @...    ORR      r0,r0,#1
        0x0000c63e:    6068        h`      STR      r0,[r5,#4]
        0x0000c640:    6868        hh      LDR      r0,[r5,#4]
        0x0000c642:    f0400004    @...    ORR      r0,r0,#4
        0x0000c646:    6068        h`      STR      r0,[r5,#4]
        0x0000c648:    6868        hh      LDR      r0,[r5,#4]
        0x0000c64a:    f0200002     ...    BIC      r0,r0,#2
        0x0000c64e:    6068        h`      STR      r0,[r5,#4]
        0x0000c650:    6868        hh      LDR      r0,[r5,#4]
        0x0000c652:    f0400010    @...    ORR      r0,r0,#0x10
        0x0000c656:    e011        ..      B        0xc67c ; am_hal_burst_mode_enable_w_manual_sequence + 212
        0x0000c658:    2001        .       MOVS     r0,#1
        0x0000c65a:    7020         p      STRB     r0,[r4,#0]
        0x0000c65c:    2407        .$      MOVS     r4,#7
        0x0000c65e:    e044        D.      B        0xc6ea ; am_hal_burst_mode_enable_w_manual_sequence + 322
        0x0000c660:    f24115a1    A...    MOV      r5,#0x11a1
        0x0000c664:    f2c10501    ....    MOVT     r5,#0x1001
        0x0000c668:    2001        .       MOVS     r0,#1
        0x0000c66a:    7028        (p      STRB     r0,[r5,#0]
        0x0000c66c:    4620         F      MOV      r0,r4
        0x0000c66e:    f7ffff60    ..`.    BL       am_hal_burst_mode_enable ; 0xc532
        0x0000c672:    2100        .!      MOVS     r1,#0
        0x0000c674:    7029        )p      STRB     r1,[r5,#0]
        0x0000c676:    e039        9.      B        0xc6ec ; am_hal_burst_mode_enable_w_manual_sequence + 324
        0x0000c678:    f0400004    @...    ORR      r0,r0,#4
        0x0000c67c:    6068        h`      STR      r0,[r5,#4]
        0x0000c67e:    2020                MOVS     r0,#0x20
        0x0000c680:    f000fbd7    ....    BL       am_hal_flash_delay ; 0xce32
        0x0000c684:    6868        hh      LDR      r0,[r5,#4]
        0x0000c686:    f0400002    @...    ORR      r0,r0,#2
        0x0000c68a:    6068        h`      STR      r0,[r5,#4]
        0x0000c68c:    2010        .       MOVS     r0,#0x10
        0x0000c68e:    f000fbd0    ....    BL       am_hal_flash_delay ; 0xce32
        0x0000c692:    f24116a1    A...    MOV      r6,#0x11a1
        0x0000c696:    f2c10601    ....    MOVT     r6,#0x1001
        0x0000c69a:    2001        .       MOVS     r0,#1
        0x0000c69c:    7030        0p      STRB     r0,[r6,#0]
        0x0000c69e:    4620         F      MOV      r0,r4
        0x0000c6a0:    f7ffff47    ..G.    BL       am_hal_burst_mode_enable ; 0xc532
        0x0000c6a4:    4604        .F      MOV      r4,r0
        0x0000c6a6:    2000        .       MOVS     r0,#0
        0x0000c6a8:    7030        0p      STRB     r0,[r6,#0]
        0x0000c6aa:    f44f70c8    O..p    MOV      r0,#0x190
        0x0000c6ae:    f000fbc0    ....    BL       am_hal_flash_delay ; 0xce32
        0x0000c6b2:    6828        (h      LDR      r0,[r5,#0]
        0x0000c6b4:    f4207080     ..p    BIC      r0,r0,#0x100
        0x0000c6b8:    6028        (`      STR      r0,[r5,#0]
        0x0000c6ba:    6828        (h      LDR      r0,[r5,#0]
        0x0000c6bc:    f0200080     ...    BIC      r0,r0,#0x80
        0x0000c6c0:    6028        (`      STR      r0,[r5,#0]
        0x0000c6c2:    6828        (h      LDR      r0,[r5,#0]
        0x0000c6c4:    f0200040     .@.    BIC      r0,r0,#0x40
        0x0000c6c8:    6028        (`      STR      r0,[r5,#0]
        0x0000c6ca:    6828        (h      LDR      r0,[r5,#0]
        0x0000c6cc:    f0200020     . .    BIC      r0,r0,#0x20
        0x0000c6d0:    6028        (`      STR      r0,[r5,#0]
        0x0000c6d2:    6868        hh      LDR      r0,[r5,#4]
        0x0000c6d4:    07c0        ..      LSLS     r0,r0,#31
        0x0000c6d6:    d003        ..      BEQ      0xc6e0 ; am_hal_burst_mode_enable_w_manual_sequence + 312
        0x0000c6d8:    6868        hh      LDR      r0,[r5,#4]
        0x0000c6da:    f0200001     ...    BIC      r0,r0,#1
        0x0000c6de:    6068        h`      STR      r0,[r5,#4]
        0x0000c6e0:    f001fb71    ..q.    BL       am_hal_pwrctrl_wa_vddf_boost ; 0xddc6
        0x0000c6e4:    9801        ..      LDR      r0,[sp,#4]
        0x0000c6e6:    f000fd65    ..e.    BL       am_hal_interrupt_master_set ; 0xd1b4
        0x0000c6ea:    4620         F      MOV      r0,r4
        0x0000c6ec:    b002        ..      ADD      sp,sp,#8
        0x0000c6ee:    bd70        p.      POP      {r4-r6,pc}
    am_hal_cachectrl_config
        0x0000c6f0:    b5b0        ..      PUSH     {r4,r5,r7,lr}
        0x0000c6f2:    b082        ..      SUB      sp,sp,#8
        0x0000c6f4:    4604        .F      MOV      r4,r0
        0x0000c6f6:    f000fd55    ..U.    BL       am_hal_interrupt_master_disable ; 0xd1a4
        0x0000c6fa:    f2480500    H...    MOVW     r5,#0x8000
        0x0000c6fe:    9001        ..      STR      r0,[sp,#4]
        0x0000c700:    f2c40501    ....    MOVT     r5,#0x4001
        0x0000c704:    6828        (h      LDR      r0,[r5,#0]
        0x0000c706:    f4207040     .@p    BIC      r0,r0,#0x300
        0x0000c70a:    6028        (`      STR      r0,[r5,#0]
        0x0000c70c:    9801        ..      LDR      r0,[sp,#4]
        0x0000c70e:    f000fd51    ..Q.    BL       am_hal_interrupt_master_set ; 0xd1b4
        0x0000c712:    78a1        .x      LDRB     r1,[r4,#2]
        0x0000c714:    7820         x      LDRB     r0,[r4,#0]
        0x0000c716:    7862        bx      LDRB     r2,[r4,#1]
        0x0000c718:    0049        I.      LSLS     r1,r1,#1
        0x0000c71a:    b2c9        ..      UXTB     r1,r1
        0x0000c71c:    f0020203    ....    AND      r2,r2,#3
        0x0000c720:    f3601107    `...    BFI      r1,r0,#4,#4
        0x0000c724:    ea412002    A..     ORR      r0,r1,r2,LSL #8
        0x0000c728:    f4401080    @...    ORR      r0,r0,#0x100000
        0x0000c72c:    f4406180    @..a    ORR      r1,r0,#0x400
        0x0000c730:    2000        .       MOVS     r0,#0
        0x0000c732:    6029        )`      STR      r1,[r5,#0]
        0x0000c734:    b002        ..      ADD      sp,sp,#8
        0x0000c736:    bdb0        ..      POP      {r4,r5,r7,pc}
    am_hal_cachectrl_control
        0x0000c738:    b510        ..      PUSH     {r4,lr}
        0x0000c73a:    b082        ..      SUB      sp,sp,#8
        0x0000c73c:    1e42        B.      SUBS     r2,r0,#1
        0x0000c73e:    2a10        .*      CMP      r2,#0x10
        0x0000c740:    f200807e    ..~.    BHI.W    0xc840 ; am_hal_cachectrl_control + 264
        0x0000c744:    2001        .       MOVS     r0,#1
        0x0000c746:    e8dff002    ....    TBB      [pc,r2]
    $d.4
        0x0000c74a:    097e        ~.      DCW    2430
        0x0000c74c:    1a181512    ....    DCD    437785874
        0x0000c750:    2f221f1c    .."/    DCD    790765340
        0x0000c754:    604f483e    >HO`    DCD    1615808574
        0x0000c758:    00716a65    ejq.    DCD    7432805
    $t.5
        0x0000c75c:    f2480000    H...    MOVW     r0,#0x8000
        0x0000c760:    f2c40001    ....    MOVT     r0,#0x4001
        0x0000c764:    6800        .h      LDR      r0,[r0,#0]
        0x0000c766:    01c0        ..      LSLS     r0,r0,#7
        0x0000c768:    d46c        l.      BMI      0xc844 ; am_hal_cachectrl_control + 268
        0x0000c76a:    2407        .$      MOVS     r4,#7
        0x0000c76c:    e071        q.      B        0xc852 ; am_hal_cachectrl_control + 282
        0x0000c76e:    f44f6088    O..`    MOV      r0,#0x440
        0x0000c772:    e068        h.      B        0xc846 ; am_hal_cachectrl_control + 270
        0x0000c774:    f44f7008    O..p    MOV      r0,#0x220
        0x0000c778:    e065        e.      B        0xc846 ; am_hal_cachectrl_control + 270
        0x0000c77a:    2040        @       MOVS     r0,#0x40
        0x0000c77c:    e063        c.      B        0xc846 ; am_hal_cachectrl_control + 270
        0x0000c77e:    2020                MOVS     r0,#0x20
        0x0000c780:    e061        a.      B        0xc846 ; am_hal_cachectrl_control + 270
        0x0000c782:    f44f6080    O..`    MOV      r0,#0x400
        0x0000c786:    e05e        ^.      B        0xc846 ; am_hal_cachectrl_control + 270
        0x0000c788:    f44f7000    O..p    MOV      r0,#0x200
        0x0000c78c:    e05b        [.      B        0xc846 ; am_hal_cachectrl_control + 270
        0x0000c78e:    f000fd09    ....    BL       am_hal_interrupt_master_disable ; 0xd1a4
        0x0000c792:    9001        ..      STR      r0,[sp,#4]
        0x0000c794:    f2480000    H...    MOVW     r0,#0x8000
        0x0000c798:    f2c40001    ....    MOVT     r0,#0x4001
        0x0000c79c:    6801        .h      LDR      r1,[r0,#0]
        0x0000c79e:    f0417180    A..q    ORR      r1,r1,#0x1000000
        0x0000c7a2:    6001        .`      STR      r1,[r0,#0]
        0x0000c7a4:    9801        ..      LDR      r0,[sp,#4]
        0x0000c7a6:    e00b        ..      B        0xc7c0 ; am_hal_cachectrl_control + 136
        0x0000c7a8:    f000fcfc    ....    BL       am_hal_interrupt_master_disable ; 0xd1a4
        0x0000c7ac:    9000        ..      STR      r0,[sp,#0]
        0x0000c7ae:    f2480000    H...    MOVW     r0,#0x8000
        0x0000c7b2:    f2c40001    ....    MOVT     r0,#0x4001
        0x0000c7b6:    6801        .h      LDR      r1,[r0,#0]
        0x0000c7b8:    f0217180    !..q    BIC      r1,r1,#0x1000000
        0x0000c7bc:    6001        .`      STR      r1,[r0,#0]
        0x0000c7be:    9800        ..      LDR      r0,[sp,#0]
        0x0000c7c0:    f000fcf8    ....    BL       am_hal_interrupt_master_set ; 0xd1b4
        0x0000c7c4:    e044        D.      B        0xc850 ; am_hal_cachectrl_control + 280
        0x0000c7c6:    2000        .       MOVS     r0,#0
        0x0000c7c8:    f002fc6a    ..j.    BL       set_LPMMODE ; 0xf0a0
        0x0000c7cc:    b360        `.      CBZ      r0,0xc828 ; am_hal_cachectrl_control + 240
        0x0000c7ce:    2007        .       MOVS     r0,#7
        0x0000c7d0:    f002fcbe    ....    BL       set_SEDELAY ; 0xf150
        0x0000c7d4:    b340        @.      CBZ      r0,0xc828 ; am_hal_cachectrl_control + 240
        0x0000c7d6:    2003        .       MOVS     r0,#3
        0x0000c7d8:    e023        #.      B        0xc822 ; am_hal_cachectrl_control + 234
        0x0000c7da:    2001        .       MOVS     r0,#1
        0x0000c7dc:    2401        .$      MOVS     r4,#1
        0x0000c7de:    f002fc5f    .._.    BL       set_LPMMODE ; 0xf0a0
        0x0000c7e2:    b3b0        ..      CBZ      r0,0xc852 ; am_hal_cachectrl_control + 282
        0x0000c7e4:    2005        .       MOVS     r0,#5
        0x0000c7e6:    e005        ..      B        0xc7f4 ; am_hal_cachectrl_control + 188
        0x0000c7e8:    2001        .       MOVS     r0,#1
        0x0000c7ea:    2401        .$      MOVS     r4,#1
        0x0000c7ec:    f002fc58    ..X.    BL       set_LPMMODE ; 0xf0a0
        0x0000c7f0:    b378        x.      CBZ      r0,0xc852 ; am_hal_cachectrl_control + 282
        0x0000c7f2:    2006        .       MOVS     r0,#6
        0x0000c7f4:    f002fcac    ....    BL       set_SEDELAY ; 0xf150
        0x0000c7f8:    b1b0        ..      CBZ      r0,0xc828 ; am_hal_cachectrl_control + 240
        0x0000c7fa:    2001        .       MOVS     r0,#1
        0x0000c7fc:    2401        .$      MOVS     r4,#1
        0x0000c7fe:    f002fc7d    ..}.    BL       set_RDWAIT ; 0xf0fc
        0x0000c802:    2800        .(      CMP      r0,#0
        0x0000c804:    bf18        ..      IT       NE
        0x0000c806:    2400        .$      MOVNE    r4,#0
        0x0000c808:    e023        #.      B        0xc852 ; am_hal_cachectrl_control + 282
        0x0000c80a:    b1c9        ..      CBZ      r1,0xc840 ; am_hal_cachectrl_control + 264
        0x0000c80c:    6808        .h      LDR      r0,[r1,#0]
        0x0000c80e:    f002fc47    ..G.    BL       set_LPMMODE ; 0xf0a0
        0x0000c812:    e008        ..      B        0xc826 ; am_hal_cachectrl_control + 238
        0x0000c814:    b1a1        ..      CBZ      r1,0xc840 ; am_hal_cachectrl_control + 264
        0x0000c816:    6808        .h      LDR      r0,[r1,#0]
        0x0000c818:    f002fc9a    ....    BL       set_SEDELAY ; 0xf150
        0x0000c81c:    e003        ..      B        0xc826 ; am_hal_cachectrl_control + 238
        0x0000c81e:    b179        y.      CBZ      r1,0xc840 ; am_hal_cachectrl_control + 264
        0x0000c820:    6808        .h      LDR      r0,[r1,#0]
        0x0000c822:    f002fc6b    ..k.    BL       set_RDWAIT ; 0xf0fc
        0x0000c826:    b998        ..      CBNZ     r0,0xc850 ; am_hal_cachectrl_control + 280
        0x0000c828:    2401        .$      MOVS     r4,#1
        0x0000c82a:    e012        ..      B        0xc852 ; am_hal_cachectrl_control + 282
        0x0000c82c:    b141        A.      CBZ      r1,0xc840 ; am_hal_cachectrl_control + 264
        0x0000c82e:    6848        Hh      LDR      r0,[r1,#4]
        0x0000c830:    220f        ."      MOVS     r2,#0xf
        0x0000c832:    f6cf0200    ....    MOVT     r2,#0xf800
        0x0000c836:    4210        .B      TST      r0,r2
        0x0000c838:    d102        ..      BNE      0xc840 ; am_hal_cachectrl_control + 264
        0x0000c83a:    688b        .h      LDR      r3,[r1,#8]
        0x0000c83c:    4213        .B      TST      r3,r2
        0x0000c83e:    d00b        ..      BEQ      0xc858 ; am_hal_cachectrl_control + 288
        0x0000c840:    2406        .$      MOVS     r4,#6
        0x0000c842:    e006        ..      B        0xc852 ; am_hal_cachectrl_control + 282
        0x0000c844:    2002        .       MOVS     r0,#2
        0x0000c846:    f2480100    H...    MOVW     r1,#0x8000
        0x0000c84a:    f2c40101    ....    MOVT     r1,#0x4001
        0x0000c84e:    6088        .`      STR      r0,[r1,#8]
        0x0000c850:    2400        .$      MOVS     r4,#0
        0x0000c852:    4620         F      MOV      r0,r4
        0x0000c854:    b002        ..      ADD      sp,sp,#8
        0x0000c856:    bd10        ..      POP      {r4,pc}
        0x0000c858:    780a        .x      LDRB     r2,[r1,#0]
        0x0000c85a:    2a01        .*      CMP      r2,#1
        0x0000c85c:    d011        ..      BEQ      0xc882 ; am_hal_cachectrl_control + 330
        0x0000c85e:    2a00        .*      CMP      r2,#0
        0x0000c860:    d1ee        ..      BNE      0xc840 ; am_hal_cachectrl_control + 264
        0x0000c862:    f2480200    H...    MOVW     r2,#0x8000
        0x0000c866:    f2c40201    ....    MOVT     r2,#0x4001
        0x0000c86a:    6110        .a      STR      r0,[r2,#0x10]
        0x0000c86c:    6888        .h      LDR      r0,[r1,#8]
        0x0000c86e:    6150        Pa      STR      r0,[r2,#0x14]
        0x0000c870:    7848        Hx      LDRB     r0,[r1,#1]
        0x0000c872:    6811        .h      LDR      r1,[r2,#0]
        0x0000c874:    f000003f    ..?.    AND      r0,r0,#0x3f
        0x0000c878:    f0210104    !...    BIC      r1,r1,#4
        0x0000c87c:    ea410080    A...    ORR      r0,r1,r0,LSL #2
        0x0000c880:    e00e        ..      B        0xc8a0 ; am_hal_cachectrl_control + 360
        0x0000c882:    f2480200    H...    MOVW     r2,#0x8000
        0x0000c886:    f2c40201    ....    MOVT     r2,#0x4001
        0x0000c88a:    6190        .a      STR      r0,[r2,#0x18]
        0x0000c88c:    6888        .h      LDR      r0,[r1,#8]
        0x0000c88e:    61d0        .a      STR      r0,[r2,#0x1c]
        0x0000c890:    7848        Hx      LDRB     r0,[r1,#1]
        0x0000c892:    6811        .h      LDR      r1,[r2,#0]
        0x0000c894:    f000001f    ....    AND      r0,r0,#0x1f
        0x0000c898:    f0210108    !...    BIC      r1,r1,#8
        0x0000c89c:    ea4100c0    A...    ORR      r0,r1,r0,LSL #3
        0x0000c8a0:    6010        .`      STR      r0,[r2,#0]
        0x0000c8a2:    e7d5        ..      B        0xc850 ; am_hal_cachectrl_control + 280
    am_hal_cachectrl_enable
        0x0000c8a4:    f2480100    H...    MOVW     r1,#0x8000
        0x0000c8a8:    f2c40101    ....    MOVT     r1,#0x4001
        0x0000c8ac:    6808        .h      LDR      r0,[r1,#0]
        0x0000c8ae:    f0400201    @...    ORR      r2,r0,#1
        0x0000c8b2:    2000        .       MOVS     r0,#0
        0x0000c8b4:    600a        .`      STR      r2,[r1,#0]
        0x0000c8b6:    4770        pG      BX       lr
    am_hal_clkgen_control
        0x0000c8b8:    b510        ..      PUSH     {r4,lr}
        0x0000c8ba:    f24102e0    A...    MOVW     r2,#0x10e0
        0x0000c8be:    f2c10201    ....    MOVT     r2,#0x1001
        0x0000c8c2:    6813        .h      LDR      r3,[r2,#0]
        0x0000c8c4:    460c        .F      MOV      r4,r1
        0x0000c8c6:    b92b        +.      CBNZ     r3,0xc8d4 ; am_hal_clkgen_control + 28
        0x0000c8c8:    f24f0100    O...    MOVW     r1,#0xf000
        0x0000c8cc:    f6c471ff    ...q    MOVT     r1,#0x4fff
        0x0000c8d0:    6809        .h      LDR      r1,[r1,#0]
        0x0000c8d2:    6011        .`      STR      r1,[r2,#0]
        0x0000c8d4:    2809        .(      CMP      r0,#9
        0x0000c8d6:    d80f        ..      BHI      0xc8f8 ; am_hal_clkgen_control + 64
        0x0000c8d8:    e8dff000    ....    TBB      [pc,r0]
    $d.1
        0x0000c8dc:    20181005    ...     DCD    538447877
        0x0000c8e0:    544c4139    9ALT    DCD    1414283577
        0x0000c8e4:    775e        ^w      DCW    30558
    $t.2
        0x0000c8e6:    f244010c    D...    MOV      r1,#0x400c
        0x0000c8ea:    f2c40100    ....    MOVT     r1,#0x4000
        0x0000c8ee:    2047        G       MOVS     r0,#0x47
        0x0000c8f0:    6088        .`      STR      r0,[r1,#8]
        0x0000c8f2:    2000        .       MOVS     r0,#0
        0x0000c8f4:    60c8        .`      STR      r0,[r1,#0xc]
        0x0000c8f6:    e03b        ;.      B        0xc970 ; am_hal_clkgen_control + 184
        0x0000c8f8:    2006        .       MOVS     r0,#6
        0x0000c8fa:    bd10        ..      POP      {r4,pc}
        0x0000c8fc:    f244000c    D...    MOV      r0,#0x400c
        0x0000c900:    f2c40000    ....    MOVT     r0,#0x4000
        0x0000c904:    6801        .h      LDR      r1,[r0,#0]
        0x0000c906:    f0210101    !...    BIC      r1,r1,#1
        0x0000c90a:    e042        B.      B        0xc992 ; am_hal_clkgen_control + 218
        0x0000c90c:    f244000c    D...    MOV      r0,#0x400c
        0x0000c910:    f2c40000    ....    MOVT     r0,#0x4000
        0x0000c914:    6801        .h      LDR      r1,[r0,#0]
        0x0000c916:    f0210102    !...    BIC      r1,r1,#2
        0x0000c91a:    e03a        :.      B        0xc992 ; am_hal_clkgen_control + 218
        0x0000c91c:    f2401020    @. .    MOVW     r0,#0x120
        0x0000c920:    f64f61ec    O..a    MOV      r1,#0xfeec
        0x0000c924:    f2c40002    ....    MOVT     r0,#0x4002
        0x0000c928:    f6cf71ff    ...q    MOVT     r1,#0xffff
        0x0000c92c:    5841        AX      LDR      r1,[r0,r1]
        0x0000c92e:    b2c9        ..      UXTB     r1,r1
        0x0000c930:    2921        !)      CMP      r1,#0x21
        0x0000c932:    d304        ..      BCC      0xc93e ; am_hal_clkgen_control + 134
        0x0000c934:    6801        .h      LDR      r1,[r0,#0]
        0x0000c936:    2201        ."      MOVS     r2,#1
        0x0000c938:    f3622109    b..!    BFI      r1,r2,#8,#2
        0x0000c93c:    6001        .`      STR      r1,[r0,#0]
        0x0000c93e:    f244000c    D...    MOV      r0,#0x400c
        0x0000c942:    f2c40000    ....    MOVT     r0,#0x4000
        0x0000c946:    6801        .h      LDR      r1,[r0,#0]
        0x0000c948:    f0410101    A...    ORR      r1,r1,#1
        0x0000c94c:    e021        !.      B        0xc992 ; am_hal_clkgen_control + 218
        0x0000c94e:    f244000c    D...    MOV      r0,#0x400c
        0x0000c952:    f2c40000    ....    MOVT     r0,#0x4000
        0x0000c956:    6801        .h      LDR      r1,[r0,#0]
        0x0000c958:    f0410102    A...    ORR      r1,r1,#2
        0x0000c95c:    e019        ..      B        0xc992 ; am_hal_clkgen_control + 218
        0x0000c95e:    f244010c    D...    MOV      r1,#0x400c
        0x0000c962:    f2c40100    ....    MOVT     r1,#0x4000
        0x0000c966:    2047        G       MOVS     r0,#0x47
        0x0000c968:    6088        .`      STR      r0,[r1,#8]
        0x0000c96a:    2001        .       MOVS     r0,#1
        0x0000c96c:    60c8        .`      STR      r0,[r1,#0xc]
        0x0000c96e:    2000        .       MOVS     r0,#0
        0x0000c970:    6088        .`      STR      r0,[r1,#8]
        0x0000c972:    bd10        ..      POP      {r4,pc}
        0x0000c974:    f244000c    D...    MOV      r0,#0x400c
        0x0000c978:    f2c40000    ....    MOVT     r0,#0x4000
        0x0000c97c:    6801        .h      LDR      r1,[r0,#0]
        0x0000c97e:    f0210180    !...    BIC      r1,r1,#0x80
        0x0000c982:    e006        ..      B        0xc992 ; am_hal_clkgen_control + 218
        0x0000c984:    f244000c    D...    MOV      r0,#0x400c
        0x0000c988:    f2c40000    ....    MOVT     r0,#0x4000
        0x0000c98c:    6801        .h      LDR      r1,[r0,#0]
        0x0000c98e:    f0410180    A...    ORR      r1,r1,#0x80
        0x0000c992:    6001        .`      STR      r1,[r0,#0]
        0x0000c994:    2000        .       MOVS     r0,#0
        0x0000c996:    bd10        ..      POP      {r4,pc}
        0x0000c998:    f2401020    @. .    MOVW     r0,#0x120
        0x0000c99c:    f64f61ec    O..a    MOV      r1,#0xfeec
        0x0000c9a0:    f2c40002    ....    MOVT     r0,#0x4002
        0x0000c9a4:    f6cf71ff    ...q    MOVT     r1,#0xffff
        0x0000c9a8:    5841        AX      LDR      r1,[r0,r1]
        0x0000c9aa:    b2c9        ..      UXTB     r1,r1
        0x0000c9ac:    2921        !)      CMP      r1,#0x21
        0x0000c9ae:    d307        ..      BCC      0xc9c0 ; am_hal_clkgen_control + 264
        0x0000c9b0:    6801        .h      LDR      r1,[r0,#0]
        0x0000c9b2:    f4417140    A.@q    ORR      r1,r1,#0x300
        0x0000c9b6:    6001        .`      STR      r1,[r0,#0]
        0x0000c9b8:    f44f507a    O.zP    MOV      r0,#0x3e80
        0x0000c9bc:    f000fa39    ..9.    BL       am_hal_flash_delay ; 0xce32
        0x0000c9c0:    b164        d.      CBZ      r4,0xc9dc ; am_hal_clkgen_control + 292
        0x0000c9c2:    6820         h      LDR      r0,[r4,#0]
        0x0000c9c4:    f0400001    @...    ORR      r0,r0,#1
        0x0000c9c8:    e00c        ..      B        0xc9e4 ; am_hal_clkgen_control + 300
        0x0000c9ca:    f244000c    D...    MOV      r0,#0x400c
        0x0000c9ce:    f2c40000    ....    MOVT     r0,#0x4000
        0x0000c9d2:    6941        Ai      LDR      r1,[r0,#0x14]
        0x0000c9d4:    f0210101    !...    BIC      r1,r1,#1
        0x0000c9d8:    6141        Aa      STR      r1,[r0,#0x14]
        0x0000c9da:    e7db        ..      B        0xc994 ; am_hal_clkgen_control + 220
        0x0000c9dc:    f64b0001    K...    MOV      r0,#0xb801
        0x0000c9e0:    f2c00025    ..%.    MOVT     r0,#0x25
        0x0000c9e4:    f244010c    D...    MOV      r1,#0x400c
        0x0000c9e8:    f2c40100    ....    MOVT     r1,#0x4000
        0x0000c9ec:    6148        Ha      STR      r0,[r1,#0x14]
        0x0000c9ee:    e7d1        ..      B        0xc994 ; am_hal_clkgen_control + 220
    am_hal_clkgen_status_get
        0x0000c9f0:    b1c0        ..      CBZ      r0,0xca24 ; am_hal_clkgen_status_get + 52
        0x0000c9f2:    f2440118    D...    MOV      r1,#0x4018
        0x0000c9f6:    f2c40100    ....    MOVT     r1,#0x4000
        0x0000c9fa:    680a        .h      LDR      r2,[r1,#0]
        0x0000c9fc:    07d2        ..      LSLS     r2,r2,#31
        0x0000c9fe:    f2436200    C..b    MOVW     r2,#0x3600
        0x0000ca02:    f2c0126e    ..n.    MOVT     r2,#0x16e
        0x0000ca06:    bf04        ..      ITT      EQ
        0x0000ca08:    f6464200    F..B    MOVWEQ   r2,#0x6c00
        0x0000ca0c:    f2c022dc    ..."    MOVTEQ   r2,#0x2dc
        0x0000ca10:    6002        .`      STR      r2,[r0,#0]
        0x0000ca12:    6849        Ih      LDR      r1,[r1,#4]
        0x0000ca14:    f0010201    ....    AND      r2,r1,#1
        0x0000ca18:    f3c10140    ..@.    UBFX     r1,r1,#1,#1
        0x0000ca1c:    6042        B`      STR      r2,[r0,#4]
        0x0000ca1e:    7201        .r      STRB     r1,[r0,#8]
        0x0000ca20:    2000        .       MOVS     r0,#0
        0x0000ca22:    4770        pG      BX       lr
        0x0000ca24:    2006        .       MOVS     r0,#6
        0x0000ca26:    4770        pG      BX       lr
    am_hal_ctimer_clear
        0x0000ca28:    b5b0        ..      PUSH     {r4,r5,r7,lr}
        0x0000ca2a:    b082        ..      SUB      sp,sp,#8
        0x0000ca2c:    460c        .F      MOV      r4,r1
        0x0000ca2e:    0145        E.      LSLS     r5,r0,#5
        0x0000ca30:    f000fbb8    ....    BL       am_hal_interrupt_master_disable ; 0xd1a4
        0x0000ca34:    9001        ..      STR      r0,[sp,#4]
        0x0000ca36:    f248000c    H...    MOV      r0,#0x800c
        0x0000ca3a:    f2c40000    ....    MOVT     r0,#0x4000
        0x0000ca3e:    5941        AY      LDR      r1,[r0,r5]
        0x0000ca40:    f0042208    ..."    AND      r2,r4,#0x8000800
        0x0000ca44:    4311        .C      ORRS     r1,r1,r2
        0x0000ca46:    5141        AQ      STR      r1,[r0,r5]
        0x0000ca48:    9801        ..      LDR      r0,[sp,#4]
        0x0000ca4a:    b002        ..      ADD      sp,sp,#8
        0x0000ca4c:    e8bd40b0    ...@    POP      {r4,r5,r7,lr}
        0x0000ca50:    f000bbb0    ....    B.W      am_hal_interrupt_master_set ; 0xd1b4
    am_hal_ctimer_config
        0x0000ca54:    e92d41f0    -..A    PUSH     {r4-r8,lr}
        0x0000ca58:    b082        ..      SUB      sp,sp,#8
        0x0000ca5a:    460d        .F      MOV      r5,r1
        0x0000ca5c:    4680        .F      MOV      r8,r0
        0x0000ca5e:    0146        F.      LSLS     r6,r0,#5
        0x0000ca60:    f000fba0    ....    BL       am_hal_interrupt_master_disable ; 0xd1a4
        0x0000ca64:    f248070c    H...    MOV      r7,#0x800c
        0x0000ca68:    9001        ..      STR      r0,[sp,#4]
        0x0000ca6a:    f2c40700    ....    MOVT     r7,#0x4000
        0x0000ca6e:    59b8        .Y      LDR      r0,[r7,r6]
        0x0000ca70:    f0402008    @..     ORR      r0,r0,#0x8000800
        0x0000ca74:    51b8        .Q      STR      r0,[r7,r6]
        0x0000ca76:    9801        ..      LDR      r0,[sp,#4]
        0x0000ca78:    f000fb9c    ....    BL       am_hal_interrupt_master_set ; 0xd1b4
        0x0000ca7c:    68a9        .h      LDR      r1,[r5,#8]
        0x0000ca7e:    e9d52000    ...     LDRD     r2,r0,[r5,#0]
        0x0000ca82:    ea404401    @..D    ORR      r4,r0,r1,LSL #16
        0x0000ca86:    2a00        .*      CMP      r2,#0
        0x0000ca88:    bf18        ..      IT       NE
        0x0000ca8a:    f0444400    D..D    ORRNE    r4,r4,#0x80000000
        0x0000ca8e:    f000fb89    ....    BL       am_hal_interrupt_master_disable ; 0xd1a4
        0x0000ca92:    9000        ..      STR      r0,[sp,#0]
        0x0000ca94:    51bc        .Q      STR      r4,[r7,r6]
        0x0000ca96:    9800        ..      LDR      r0,[sp,#0]
        0x0000ca98:    f000fb8c    ....    BL       am_hal_interrupt_master_set ; 0xd1b4
        0x0000ca9c:    6868        hh      LDR      r0,[r5,#4]
        0x0000ca9e:    b910        ..      CBNZ     r0,0xcaa6 ; am_hal_ctimer_config + 82
        0x0000caa0:    6828        (h      LDR      r0,[r5,#0]
        0x0000caa2:    b168        h.      CBZ      r0,0xcac0 ; am_hal_ctimer_config + 108
        0x0000caa4:    2000        .       MOVS     r0,#0
        0x0000caa6:    2100        .!      MOVS     r1,#0
        0x0000caa8:    f241026c    A.l.    MOV      r2,#0x106c
        0x0000caac:    f2c10201    ....    MOVT     r2,#0x1001
        0x0000cab0:    f3c00044    ..D.    UBFX     r0,r0,#1,#5
        0x0000cab4:    eb020248    ..H.    ADD      r2,r2,r8,LSL #1
        0x0000cab8:    5450        PT      STRB     r0,[r2,r1]
        0x0000caba:    b002        ..      ADD      sp,sp,#8
        0x0000cabc:    e8bd81f0    ....    POP      {r4-r8,pc}
        0x0000cac0:    68a8        .h      LDR      r0,[r5,#8]
        0x0000cac2:    2800        .(      CMP      r0,#0
        0x0000cac4:    d0f9        ..      BEQ      0xcaba ; am_hal_ctimer_config + 102
        0x0000cac6:    2101        .!      MOVS     r1,#1
        0x0000cac8:    e7ee        ..      B        0xcaa8 ; am_hal_ctimer_config + 84
    am_hal_ctimer_int_clear
        0x0000caca:    b510        ..      PUSH     {r4,lr}
        0x0000cacc:    b082        ..      SUB      sp,sp,#8
        0x0000cace:    4604        .F      MOV      r4,r0
        0x0000cad0:    f000fb68    ..h.    BL       am_hal_interrupt_master_disable ; 0xd1a4
        0x0000cad4:    9001        ..      STR      r0,[sp,#4]
        0x0000cad6:    f2482008    H..     MOV      r0,#0x8208
        0x0000cada:    f2c40000    ....    MOVT     r0,#0x4000
        0x0000cade:    6004        .`      STR      r4,[r0,#0]
        0x0000cae0:    9801        ..      LDR      r0,[sp,#4]
        0x0000cae2:    b002        ..      ADD      sp,sp,#8
        0x0000cae4:    e8bd4010    ...@    POP      {r4,lr}
        0x0000cae8:    f000bb64    ..d.    B.W      am_hal_interrupt_master_set ; 0xd1b4
    am_hal_ctimer_int_enable
        0x0000caec:    b510        ..      PUSH     {r4,lr}
        0x0000caee:    b082        ..      SUB      sp,sp,#8
        0x0000caf0:    4604        .F      MOV      r4,r0
        0x0000caf2:    f000fb57    ..W.    BL       am_hal_interrupt_master_disable ; 0xd1a4
        0x0000caf6:    9001        ..      STR      r0,[sp,#4]
        0x0000caf8:    f2482000    H..     MOVW     r0,#0x8200
        0x0000cafc:    f2c40000    ....    MOVT     r0,#0x4000
        0x0000cb00:    6801        .h      LDR      r1,[r0,#0]
        0x0000cb02:    4321        !C      ORRS     r1,r1,r4
        0x0000cb04:    6001        .`      STR      r1,[r0,#0]
        0x0000cb06:    9801        ..      LDR      r0,[sp,#4]
        0x0000cb08:    b002        ..      ADD      sp,sp,#8
        0x0000cb0a:    e8bd4010    ...@    POP      {r4,lr}
        0x0000cb0e:    f000bb51    ..Q.    B.W      am_hal_interrupt_master_set ; 0xd1b4
        0x0000cb12:    0000        ..      MOVS     r0,r0
    am_hal_ctimer_int_register
        0x0000cb14:    b510        ..      PUSH     {r4,lr}
        0x0000cb16:    f5b04f00    ...O    CMP      r0,#0x8000
        0x0000cb1a:    460c        .F      MOV      r4,r1
        0x0000cb1c:    da10        ..      BGE      0xcb40 ; am_hal_ctimer_int_register + 44
        0x0000cb1e:    287f        .(      CMP      r0,#0x7f
        0x0000cb20:    dc20         .      BGT      0xcb64 ; am_hal_ctimer_int_register + 80
        0x0000cb22:    280f        .(      CMP      r0,#0xf
        0x0000cb24:    dc5b        [.      BGT      0xcbde ; am_hal_ctimer_int_register + 202
        0x0000cb26:    1e41        A.      SUBS     r1,r0,#1
        0x0000cb28:    2907        .)      CMP      r1,#7
        0x0000cb2a:    f2008084    ....    BHI.W    0xcc36 ; am_hal_ctimer_int_register + 290
        0x0000cb2e:    2000        .       MOVS     r0,#0
        0x0000cb30:    e8dff001    ....    TBB      [pc,r1]
    $d.2
        0x0000cb34:    86a604ad    ....    DCD    2259027117
        0x0000cb38:    88a6a6a6    ....    DCD    2292623014
    $t.3
        0x0000cb3c:    2001        .       MOVS     r0,#1
        0x0000cb3e:    e0a6        ..      B        0xcc8e ; am_hal_ctimer_int_register + 378
        0x0000cb40:    f5b00f00    ....    CMP      r0,#0x800000
        0x0000cb44:    da1c        ..      BGE      0xcb80 ; am_hal_ctimer_int_register + 108
        0x0000cb46:    f5b02f00    .../    CMP      r0,#0x80000
        0x0000cb4a:    da27        '.      BGE      0xcb9c ; am_hal_ctimer_int_register + 136
        0x0000cb4c:    f5b03f00    ...?    CMP      r0,#0x20000
        0x0000cb50:    da4d        M.      BGE      0xcbee ; am_hal_ctimer_int_register + 218
        0x0000cb52:    f5b04f00    ...O    CMP      r0,#0x8000
        0x0000cb56:    d077        w.      BEQ      0xcc48 ; am_hal_ctimer_int_register + 308
        0x0000cb58:    f5b03f80    ...?    CMP      r0,#0x10000
        0x0000cb5c:    f0408090    @...    BNE.W    0xcc80 ; am_hal_ctimer_int_register + 364
        0x0000cb60:    2010        .       MOVS     r0,#0x10
        0x0000cb62:    e094        ..      B        0xcc8e ; am_hal_ctimer_int_register + 378
        0x0000cb64:    f5b06f00    ...o    CMP      r0,#0x800
        0x0000cb68:    da23        #.      BGE      0xcbb2 ; am_hal_ctimer_int_register + 158
        0x0000cb6a:    f5b07f00    ....    CMP      r0,#0x200
        0x0000cb6e:    da44        D.      BGE      0xcbfa ; am_hal_ctimer_int_register + 230
        0x0000cb70:    2880        .(      CMP      r0,#0x80
        0x0000cb72:    d06b        k.      BEQ      0xcc4c ; am_hal_ctimer_int_register + 312
        0x0000cb74:    f5b07f80    ....    CMP      r0,#0x100
        0x0000cb78:    f0408082    @...    BNE.W    0xcc80 ; am_hal_ctimer_int_register + 364
        0x0000cb7c:    2008        .       MOVS     r0,#8
        0x0000cb7e:    e086        ..      B        0xcc8e ; am_hal_ctimer_int_register + 378
        0x0000cb80:    f1b06f00    ...o    CMP      r0,#0x8000000
        0x0000cb84:    da20         .      BGE      0xcbc8 ; am_hal_ctimer_int_register + 180
        0x0000cb86:    f1b07f00    ....    CMP      r0,#0x2000000
        0x0000cb8a:    da3c        <.      BGE      0xcc06 ; am_hal_ctimer_int_register + 242
        0x0000cb8c:    f5b00f00    ....    CMP      r0,#0x800000
        0x0000cb90:    d05e        ^.      BEQ      0xcc50 ; am_hal_ctimer_int_register + 316
        0x0000cb92:    f1b07f80    ....    CMP      r0,#0x1000000
        0x0000cb96:    d173        s.      BNE      0xcc80 ; am_hal_ctimer_int_register + 364
        0x0000cb98:    2018        .       MOVS     r0,#0x18
        0x0000cb9a:    e078        x.      B        0xcc8e ; am_hal_ctimer_int_register + 378
        0x0000cb9c:    f5b01f00    ....    CMP      r0,#0x200000
        0x0000cba0:    da37        7.      BGE      0xcc12 ; am_hal_ctimer_int_register + 254
        0x0000cba2:    f5b02f00    .../    CMP      r0,#0x80000
        0x0000cba6:    d055        U.      BEQ      0xcc54 ; am_hal_ctimer_int_register + 320
        0x0000cba8:    f5b01f80    ....    CMP      r0,#0x100000
        0x0000cbac:    d168        h.      BNE      0xcc80 ; am_hal_ctimer_int_register + 364
        0x0000cbae:    2014        .       MOVS     r0,#0x14
        0x0000cbb0:    e06d        m.      B        0xcc8e ; am_hal_ctimer_int_register + 378
        0x0000cbb2:    f5b05f00    ..._    CMP      r0,#0x2000
        0x0000cbb6:    da32        2.      BGE      0xcc1e ; am_hal_ctimer_int_register + 266
        0x0000cbb8:    f5b06f00    ...o    CMP      r0,#0x800
        0x0000cbbc:    d04c        L.      BEQ      0xcc58 ; am_hal_ctimer_int_register + 324
        0x0000cbbe:    f5b05f80    ..._    CMP      r0,#0x1000
        0x0000cbc2:    d15d        ].      BNE      0xcc80 ; am_hal_ctimer_int_register + 364
        0x0000cbc4:    200c        .       MOVS     r0,#0xc
        0x0000cbc6:    e062        b.      B        0xcc8e ; am_hal_ctimer_int_register + 378
        0x0000cbc8:    f1b05f00    ..._    CMP      r0,#0x20000000
        0x0000cbcc:    da2d        -.      BGE      0xcc2a ; am_hal_ctimer_int_register + 278
        0x0000cbce:    f1b06f00    ...o    CMP      r0,#0x8000000
        0x0000cbd2:    d043        C.      BEQ      0xcc5c ; am_hal_ctimer_int_register + 328
        0x0000cbd4:    f1b05f80    ..._    CMP      r0,#0x10000000
        0x0000cbd8:    d152        R.      BNE      0xcc80 ; am_hal_ctimer_int_register + 364
        0x0000cbda:    201c        .       MOVS     r0,#0x1c
        0x0000cbdc:    e057        W.      B        0xcc8e ; am_hal_ctimer_int_register + 378
        0x0000cbde:    2810        .(      CMP      r0,#0x10
        0x0000cbe0:    d03e        >.      BEQ      0xcc60 ; am_hal_ctimer_int_register + 332
        0x0000cbe2:    2820         (      CMP      r0,#0x20
        0x0000cbe4:    d03e        >.      BEQ      0xcc64 ; am_hal_ctimer_int_register + 336
        0x0000cbe6:    2840        @(      CMP      r0,#0x40
        0x0000cbe8:    d14a        J.      BNE      0xcc80 ; am_hal_ctimer_int_register + 364
        0x0000cbea:    2006        .       MOVS     r0,#6
        0x0000cbec:    e04f        O.      B        0xcc8e ; am_hal_ctimer_int_register + 378
        0x0000cbee:    d03b        ;.      BEQ      0xcc68 ; am_hal_ctimer_int_register + 340
        0x0000cbf0:    f5b02f80    .../    CMP      r0,#0x40000
        0x0000cbf4:    d144        D.      BNE      0xcc80 ; am_hal_ctimer_int_register + 364
        0x0000cbf6:    2012        .       MOVS     r0,#0x12
        0x0000cbf8:    e049        I.      B        0xcc8e ; am_hal_ctimer_int_register + 378
        0x0000cbfa:    d037        7.      BEQ      0xcc6c ; am_hal_ctimer_int_register + 344
        0x0000cbfc:    f5b06f80    ...o    CMP      r0,#0x400
        0x0000cc00:    d13e        >.      BNE      0xcc80 ; am_hal_ctimer_int_register + 364
        0x0000cc02:    200a        .       MOVS     r0,#0xa
        0x0000cc04:    e043        C.      B        0xcc8e ; am_hal_ctimer_int_register + 378
        0x0000cc06:    d033        3.      BEQ      0xcc70 ; am_hal_ctimer_int_register + 348
        0x0000cc08:    f1b06f80    ...o    CMP      r0,#0x4000000
        0x0000cc0c:    d138        8.      BNE      0xcc80 ; am_hal_ctimer_int_register + 364
        0x0000cc0e:    201a        .       MOVS     r0,#0x1a
        0x0000cc10:    e03d        =.      B        0xcc8e ; am_hal_ctimer_int_register + 378
        0x0000cc12:    d02f        /.      BEQ      0xcc74 ; am_hal_ctimer_int_register + 352
        0x0000cc14:    f5b00f80    ....    CMP      r0,#0x400000
        0x0000cc18:    d132        2.      BNE      0xcc80 ; am_hal_ctimer_int_register + 364
        0x0000cc1a:    2016        .       MOVS     r0,#0x16
        0x0000cc1c:    e037        7.      B        0xcc8e ; am_hal_ctimer_int_register + 378
        0x0000cc1e:    d02b        +.      BEQ      0xcc78 ; am_hal_ctimer_int_register + 356
        0x0000cc20:    f5b04f80    ...O    CMP      r0,#0x4000
        0x0000cc24:    d12c        ,.      BNE      0xcc80 ; am_hal_ctimer_int_register + 364
        0x0000cc26:    200e        .       MOVS     r0,#0xe
        0x0000cc28:    e031        1.      B        0xcc8e ; am_hal_ctimer_int_register + 378
        0x0000cc2a:    d027        '.      BEQ      0xcc7c ; am_hal_ctimer_int_register + 360
        0x0000cc2c:    f1b04f80    ...O    CMP      r0,#0x40000000
        0x0000cc30:    d126        &.      BNE      0xcc80 ; am_hal_ctimer_int_register + 364
        0x0000cc32:    201e        .       MOVS     r0,#0x1e
        0x0000cc34:    e02b        +.      B        0xcc8e ; am_hal_ctimer_int_register + 378
        0x0000cc36:    f1b04f00    ...O    CMP      r0,#0x80000000
        0x0000cc3a:    d121        !.      BNE      0xcc80 ; am_hal_ctimer_int_register + 364
        0x0000cc3c:    201f        .       MOVS     r0,#0x1f
        0x0000cc3e:    e026        &.      B        0xcc8e ; am_hal_ctimer_int_register + 378
        0x0000cc40:    2002        .       MOVS     r0,#2
        0x0000cc42:    e024        $.      B        0xcc8e ; am_hal_ctimer_int_register + 378
        0x0000cc44:    2003        .       MOVS     r0,#3
        0x0000cc46:    e022        ".      B        0xcc8e ; am_hal_ctimer_int_register + 378
        0x0000cc48:    200f        .       MOVS     r0,#0xf
        0x0000cc4a:    e020         .      B        0xcc8e ; am_hal_ctimer_int_register + 378
        0x0000cc4c:    2007        .       MOVS     r0,#7
        0x0000cc4e:    e01e        ..      B        0xcc8e ; am_hal_ctimer_int_register + 378
        0x0000cc50:    2017        .       MOVS     r0,#0x17
        0x0000cc52:    e01c        ..      B        0xcc8e ; am_hal_ctimer_int_register + 378
        0x0000cc54:    2013        .       MOVS     r0,#0x13
        0x0000cc56:    e01a        ..      B        0xcc8e ; am_hal_ctimer_int_register + 378
        0x0000cc58:    200b        .       MOVS     r0,#0xb
        0x0000cc5a:    e018        ..      B        0xcc8e ; am_hal_ctimer_int_register + 378
        0x0000cc5c:    201b        .       MOVS     r0,#0x1b
        0x0000cc5e:    e016        ..      B        0xcc8e ; am_hal_ctimer_int_register + 378
        0x0000cc60:    2004        .       MOVS     r0,#4
        0x0000cc62:    e014        ..      B        0xcc8e ; am_hal_ctimer_int_register + 378
        0x0000cc64:    2005        .       MOVS     r0,#5
        0x0000cc66:    e012        ..      B        0xcc8e ; am_hal_ctimer_int_register + 378
        0x0000cc68:    2011        .       MOVS     r0,#0x11
        0x0000cc6a:    e010        ..      B        0xcc8e ; am_hal_ctimer_int_register + 378
        0x0000cc6c:    2009        .       MOVS     r0,#9
        0x0000cc6e:    e00e        ..      B        0xcc8e ; am_hal_ctimer_int_register + 378
        0x0000cc70:    2019        .       MOVS     r0,#0x19
        0x0000cc72:    e00c        ..      B        0xcc8e ; am_hal_ctimer_int_register + 378
        0x0000cc74:    2015        .       MOVS     r0,#0x15
        0x0000cc76:    e00a        ..      B        0xcc8e ; am_hal_ctimer_int_register + 378
        0x0000cc78:    200d        .       MOVS     r0,#0xd
        0x0000cc7a:    e008        ..      B        0xcc8e ; am_hal_ctimer_int_register + 378
        0x0000cc7c:    201d        .       MOVS     r0,#0x1d
        0x0000cc7e:    e006        ..      B        0xcc8e ; am_hal_ctimer_int_register + 378
        0x0000cc80:    a006        ..      ADR      r0,{pc}+0x1c ; 0xcc9c
        0x0000cc82:    a20a        ..      ADR      r2,{pc}+0x2a ; 0xccac
        0x0000cc84:    f24011e7    @...    MOV      r1,#0x1e7
        0x0000cc88:    f000f8d2    ....    BL       am_hal_debug_error ; 0xce30
        0x0000cc8c:    2000        .       MOVS     r0,#0
        0x0000cc8e:    f241111c    A...    MOV      r1,#0x111c
        0x0000cc92:    f2c10101    ....    MOVT     r1,#0x1001
        0x0000cc96:    f8414020    A. @    STR      r4,[r1,r0,LSL #2]
        0x0000cc9a:    bd10        ..      POP      {r4,pc}
    $d.4
        0x0000cc9c:    685f6d61    am_h    DCD    1751084385
        0x0000cca0:    635f6c61    al_c    DCD    1667198049
        0x0000cca4:    656d6974    time    DCD    1701669236
        0x0000cca8:    00632e72    r.c.    DCD    6499954
        0x0000ccac:    6d695443    CTim    DCD    1835619395
        0x0000ccb0:    69207265    er i    DCD    1763734117
        0x0000ccb4:    7265746e    nter    DCD    1919251566
        0x0000ccb8:    74707572    rupt    DCD    1953527154
        0x0000ccbc:    6d756e20     num    DCD    1836412448
        0x0000ccc0:    20726562    ber     DCD    544367970
        0x0000ccc4:    2074756f    out     DCD    544503151
        0x0000ccc8:    7220666f    of r    DCD    1914725999
        0x0000cccc:    65676e61    ange    DCD    1701277281
        0x0000ccd0:    0000002e    ....    DCD    46
    $t.0
    am_hal_ctimer_int_service
        0x0000ccd4:    b5f0        ..      PUSH     {r4-r7,lr}
        0x0000ccd6:    b081        ..      SUB      sp,sp,#4
        0x0000ccd8:    b198        ..      CBZ      r0,0xcd02 ; am_hal_ctimer_int_service + 46
        0x0000ccda:    f241161c    A...    MOV      r6,#0x111c
        0x0000ccde:    4604        .F      MOV      r4,r0
        0x0000cce0:    f04f4500    O..E    MOV      r5,#0x80000000
        0x0000cce4:    f2c10601    ....    MOVT     r6,#0x1001
        0x0000cce8:    fab4f784    ....    CLZ      r7,r4
        0x0000ccec:    f087001f    ....    EOR      r0,r7,#0x1f
        0x0000ccf0:    f8560020    V. .    LDR      r0,[r6,r0,LSL #2]
        0x0000ccf4:    b100        ..      CBZ      r0,0xccf8 ; am_hal_ctimer_int_service + 36
        0x0000ccf6:    4780        .G      BLX      r0
        0x0000ccf8:    fa25f007    %...    LSR      r0,r5,r7
        0x0000ccfc:    4384        .C      BICS     r4,r4,r0
        0x0000ccfe:    2c00        .,      CMP      r4,#0
        0x0000cd00:    d1f2        ..      BNE      0xcce8 ; am_hal_ctimer_int_service + 20
        0x0000cd02:    b001        ..      ADD      sp,sp,#4
        0x0000cd04:    bdf0        ..      POP      {r4-r7,pc}
    am_hal_ctimer_int_status_get
        0x0000cd06:    b570        p.      PUSH     {r4-r6,lr}
        0x0000cd08:    b082        ..      SUB      sp,sp,#8
        0x0000cd0a:    f2482600    H..&    MOVW     r6,#0x8200
        0x0000cd0e:    4605        .F      MOV      r5,r0
        0x0000cd10:    f2c40600    ....    MOVT     r6,#0x4000
        0x0000cd14:    f000fa46    ..F.    BL       am_hal_interrupt_master_disable ; 0xd1a4
        0x0000cd18:    9001        ..      STR      r0,[sp,#4]
        0x0000cd1a:    6874        th      LDR      r4,[r6,#4]
        0x0000cd1c:    b10d        ..      CBZ      r5,0xcd22 ; am_hal_ctimer_int_status_get + 28
        0x0000cd1e:    6830        0h      LDR      r0,[r6,#0]
        0x0000cd20:    4004        .@      ANDS     r4,r4,r0
        0x0000cd22:    9801        ..      LDR      r0,[sp,#4]
        0x0000cd24:    f000fa46    ..F.    BL       am_hal_interrupt_master_set ; 0xd1b4
        0x0000cd28:    4620         F      MOV      r0,r4
        0x0000cd2a:    b002        ..      ADD      sp,sp,#8
        0x0000cd2c:    bd70        p.      POP      {r4-r6,pc}
    am_hal_ctimer_period_set
        0x0000cd2e:    e92d43f0    -..C    PUSH     {r4-r9,lr}
        0x0000cd32:    b081        ..      SUB      sp,sp,#4
        0x0000cd34:    f2480804    H...    MOV      r8,#0x8004
        0x0000cd38:    f2c40800    ....    MOVT     r8,#0x4000
        0x0000cd3c:    461e        .F      MOV      r6,r3
        0x0000cd3e:    4614        .F      MOV      r4,r2
        0x0000cd40:    460d        .F      MOV      r5,r1
        0x0000cd42:    ea4f1940    O.@.    LSL      r9,r0,#5
        0x0000cd46:    eb081740    ..@.    ADD      r7,r8,r0,LSL #5
        0x0000cd4a:    f000fa2b    ..+.    BL       am_hal_interrupt_master_disable ; 0xd1a4
        0x0000cd4e:    9000        ..      STR      r0,[sp,#0]
        0x0000cd50:    68b8        .h      LDR      r0,[r7,#8]
        0x0000cd52:    f5153f80    ...?    CMN      r5,#0x10000
        0x0000cd56:    bf08        ..      IT       EQ
        0x0000cd58:    0c00        ..      LSREQ    r0,r0,#16
        0x0000cd5a:    f40070c0    ...p    AND      r0,r0,#0x180
        0x0000cd5e:    2880        .(      CMP      r0,#0x80
        0x0000cd60:    4620         F      MOV      r0,r4
        0x0000cd62:    f64f71ff    O..q    MOV      r1,#0xffff
        0x0000cd66:    bf0c        ..      ITE      EQ
        0x0000cd68:    1b80        ..      SUBEQ    r0,r0,r6
        0x0000cd6a:    2400        .$      MOVNE    r4,#0
        0x0000cd6c:    428d        .B      CMP      r5,r1
        0x0000cd6e:    eac04104    ...A    PKHBT    r1,r0,r4,LSL #16
        0x0000cd72:    d102        ..      BNE      0xcd7a ; am_hal_ctimer_period_set + 76
        0x0000cd74:    f8481009    H...    STR      r1,[r8,r9]
        0x0000cd78:    e00c        ..      B        0xcd94 ; am_hal_ctimer_period_set + 102
        0x0000cd7a:    f5153f80    ...?    CMN      r5,#0x10000
        0x0000cd7e:    f1080204    ....    ADD      r2,r8,#4
        0x0000cd82:    bf0f        ..      ITEEE    EQ
        0x0000cd84:    f8491002    I...    STREQ    r1,[r9,r2]
        0x0000cd88:    f8481009    H...    STRNE    r1,[r8,r9]
        0x0000cd8c:    eac44020    .. @    PKHTBNE  r0,r4,r0,ASR #16
        0x0000cd90:    f8490002    I...    STRNE    r0,[r9,r2]
        0x0000cd94:    9800        ..      LDR      r0,[sp,#0]
        0x0000cd96:    b001        ..      ADD      sp,sp,#4
        0x0000cd98:    e8bd43f0    ...C    POP      {r4-r9,lr}
        0x0000cd9c:    f000ba0a    ....    B.W      am_hal_interrupt_master_set ; 0xd1b4
    am_hal_ctimer_start
        0x0000cda0:    b570        p.      PUSH     {r4-r6,lr}
        0x0000cda2:    b082        ..      SUB      sp,sp,#8
        0x0000cda4:    460c        .F      MOV      r4,r1
        0x0000cda6:    4605        .F      MOV      r5,r0
        0x0000cda8:    0146        F.      LSLS     r6,r0,#5
        0x0000cdaa:    f000f9fb    ....    BL       am_hal_interrupt_master_disable ; 0xd1a4
        0x0000cdae:    9001        ..      STR      r0,[sp,#4]
        0x0000cdb0:    f248000c    H...    MOV      r0,#0x800c
        0x0000cdb4:    f2c40000    ....    MOVT     r0,#0x4000
        0x0000cdb8:    5981        .Y      LDR      r1,[r0,r6]
        0x0000cdba:    2201        ."      MOVS     r2,#1
        0x0000cdbc:    f06f2308    o..#    MVN      r3,#0x8000800
        0x0000cdc0:    f5143f80    ...?    CMN      r4,#0x10000
        0x0000cdc4:    bf08        ..      IT       EQ
        0x0000cdc6:    2211        ."      MOVEQ    r2,#0x11
        0x0000cdc8:    ea630304    c...    ORN      r3,r3,r4
        0x0000cdcc:    fa21f202    !...    LSR      r2,r1,r2
        0x0000cdd0:    4019        .@      ANDS     r1,r1,r3
        0x0000cdd2:    f0041301    ....    AND      r3,r4,#0x10001
        0x0000cdd6:    4319        .C      ORRS     r1,r1,r3
        0x0000cdd8:    f241036c    A.l.    MOV      r3,#0x106c
        0x0000cddc:    f2c10301    ....    MOVT     r3,#0x1001
        0x0000cde0:    f002021f    ....    AND      r2,r2,#0x1f
        0x0000cde4:    eb030345    ..E.    ADD      r3,r3,r5,LSL #1
        0x0000cde8:    f5143f80    ...?    CMN      r4,#0x10000
        0x0000cdec:    bf08        ..      IT       EQ
        0x0000cdee:    3301        .3      ADDEQ    r3,#1
        0x0000cdf0:    701a        .p      STRB     r2,[r3,#0]
        0x0000cdf2:    5181        .Q      STR      r1,[r0,r6]
        0x0000cdf4:    9801        ..      LDR      r0,[sp,#4]
        0x0000cdf6:    b002        ..      ADD      sp,sp,#8
        0x0000cdf8:    e8bd4070    ..p@    POP      {r4-r6,lr}
        0x0000cdfc:    f000b9da    ....    B.W      am_hal_interrupt_master_set ; 0xd1b4
    am_hal_ctimer_stop
        0x0000ce00:    b5b0        ..      PUSH     {r4,r5,r7,lr}
        0x0000ce02:    b082        ..      SUB      sp,sp,#8
        0x0000ce04:    460c        .F      MOV      r4,r1
        0x0000ce06:    0145        E.      LSLS     r5,r0,#5
        0x0000ce08:    f000f9cc    ....    BL       am_hal_interrupt_master_disable ; 0xd1a4
        0x0000ce0c:    f248010c    H...    MOV      r1,#0x800c
        0x0000ce10:    9001        ..      STR      r0,[sp,#4]
        0x0000ce12:    f2c40100    ....    MOVT     r1,#0x4000
        0x0000ce16:    f06f1001    o...    MVN      r0,#0x10001
        0x0000ce1a:    594a        JY      LDR      r2,[r1,r5]
        0x0000ce1c:    ea600004    `...    ORN      r0,r0,r4
        0x0000ce20:    4010        .@      ANDS     r0,r0,r2
        0x0000ce22:    5148        HQ      STR      r0,[r1,r5]
        0x0000ce24:    9801        ..      LDR      r0,[sp,#4]
        0x0000ce26:    b002        ..      ADD      sp,sp,#8
        0x0000ce28:    e8bd40b0    ...@    POP      {r4,r5,r7,lr}
        0x0000ce2c:    f000b9c2    ....    B.W      am_hal_interrupt_master_set ; 0xd1b4
    am_hal_debug_error
        0x0000ce30:    e7fe        ..      B        am_hal_debug_error ; 0xce30
    am_hal_flash_delay
        0x0000ce32:    f2440134    D.4.    MOV      r1,#0x4034
        0x0000ce36:    f2c40100    ....    MOVT     r1,#0x4000
        0x0000ce3a:    680a        .h      LDR      r2,[r1,#0]
        0x0000ce3c:    f3c20180    ....    UBFX     r1,r2,#2,#1
        0x0000ce40:    4088        .@      LSLS     r0,r0,r1
        0x0000ce42:    210e        .!      MOVS     r1,#0xe
        0x0000ce44:    f0120f04    ....    TST      r2,#4
        0x0000ce48:    bf08        ..      IT       EQ
        0x0000ce4a:    210b        .!      MOVEQ    r1,#0xb
        0x0000ce4c:    4281        .B      CMP      r1,r0
        0x0000ce4e:    bf28        (.      IT       CS
        0x0000ce50:    4770        pG      BXCS     lr
        0x0000ce52:    1a40        @.      SUBS     r0,r0,r1
        0x0000ce54:    219d        .!      MOVS     r1,#0x9d
        0x0000ce56:    f6c00100    ....    MOVT     r1,#0x800
        0x0000ce5a:    4708        .G      BX       r1
    am_hal_flash_delay_status_check
        0x0000ce5c:    e92d4ff0    -..O    PUSH     {r4-r11,lr}
        0x0000ce60:    b081        ..      SUB      sp,sp,#4
        0x0000ce62:    f8dd8028    ..(.    LDR      r8,[sp,#0x28]
        0x0000ce66:    f2440934    D.4.    MOV      r9,#0x4034
        0x0000ce6a:    f2400b9d    @...    MOVW     r11,#0x9d
        0x0000ce6e:    461c        .F      MOV      r4,r3
        0x0000ce70:    4615        .F      MOV      r5,r2
        0x0000ce72:    460e        .F      MOV      r6,r1
        0x0000ce74:    4607        .F      MOV      r7,r0
        0x0000ce76:    f2c40900    ....    MOVT     r9,#0x4000
        0x0000ce7a:    f04f0a10    O...    MOV      r10,#0x10
        0x0000ce7e:    f6c00b00    ....    MOVT     r11,#0x800
        0x0000ce82:    bf00        ..      NOP      
        0x0000ce84:    6830        0h      LDR      r0,[r6,#0]
        0x0000ce86:    f1b80f00    ....    CMP      r8,#0
        0x0000ce8a:    ea000005    ....    AND      r0,r0,r5
        0x0000ce8e:    d003        ..      BEQ      0xce98 ; am_hal_flash_delay_status_check + 60
        0x0000ce90:    42a0        .B      CMP      r0,r4
        0x0000ce92:    d103        ..      BNE      0xce9c ; am_hal_flash_delay_status_check + 64
        0x0000ce94:    e014        ..      B        0xcec0 ; am_hal_flash_delay_status_check + 100
        0x0000ce96:    bf00        ..      NOP      
        0x0000ce98:    42a0        .B      CMP      r0,r4
        0x0000ce9a:    d111        ..      BNE      0xcec0 ; am_hal_flash_delay_status_check + 100
        0x0000ce9c:    b197        ..      CBZ      r7,0xcec4 ; am_hal_flash_delay_status_check + 104
        0x0000ce9e:    f8d90000    ....    LDR      r0,[r9,#0]
        0x0000cea2:    3f01        .?      SUBS     r7,#1
        0x0000cea4:    f3c00180    ....    UBFX     r1,r0,#2,#1
        0x0000cea8:    f0100f04    ....    TST      r0,#4
        0x0000ceac:    f06f000d    o...    MVN      r0,#0xd
        0x0000ceb0:    bf08        ..      IT       EQ
        0x0000ceb2:    f06f000a    o...    MVNEQ    r0,#0xa
        0x0000ceb6:    fa0af101    ....    LSL      r1,r10,r1
        0x0000ceba:    4408        .D      ADD      r0,r0,r1
        0x0000cebc:    47d8        .G      BLX      r11
        0x0000cebe:    e7e1        ..      B        0xce84 ; am_hal_flash_delay_status_check + 40
        0x0000cec0:    2000        .       MOVS     r0,#0
        0x0000cec2:    e000        ..      B        0xcec6 ; am_hal_flash_delay_status_check + 106
        0x0000cec4:    2004        .       MOVS     r0,#4
        0x0000cec6:    b001        ..      ADD      sp,sp,#4
        0x0000cec8:    e8bd8ff0    ....    POP      {r4-r11,pc}
    am_hal_flash_load_ui32
        0x0000cecc:    2175        u!      MOVS     r1,#0x75
        0x0000cece:    f6c00100    ....    MOVT     r1,#0x800
        0x0000ced2:    4708        .G      BX       r1
    am_hal_flash_store_ui32
        0x0000ced4:    b580        ..      PUSH     {r7,lr}
        0x0000ced6:    b084        ..      SUB      sp,sp,#0x10
        0x0000ced8:    f24f42c0    O..B    MOV      r2,#0xf4c0
        0x0000cedc:    f2c00200    ....    MOVT     r2,#0
        0x0000cee0:    e9d23c00    ...<    LDRD     r3,r12,[r2,#0]
        0x0000cee4:    6892        .h      LDR      r2,[r2,#8]
        0x0000cee6:    e9cd3c01    ...<    STRD     r3,r12,[sp,#4]
        0x0000ceea:    9203        ..      STR      r2,[sp,#0xc]
        0x0000ceec:    aa01        ..      ADD      r2,sp,#4
        0x0000ceee:    3201        .2      ADDS     r2,#1
        0x0000cef0:    4790        .G      BLX      r2
        0x0000cef2:    b004        ..      ADD      sp,sp,#0x10
        0x0000cef4:    bd80        ..      POP      {r7,pc}
        0x0000cef6:    0000        ..      MOVS     r0,r0
    am_hal_gpio_pinconfig
        0x0000cef8:    e92d4ff0    -..O    PUSH     {r4-r11,lr}
        0x0000cefc:    b085        ..      SUB      sp,sp,#0x14
        0x0000cefe:    2849        I(      CMP      r0,#0x49
        0x0000cf00:    d904        ..      BLS      0xcf0c ; am_hal_gpio_pinconfig + 20
        0x0000cf02:    2506        .%      MOVS     r5,#6
        0x0000cf04:    4628        (F      MOV      r0,r5
        0x0000cf06:    b005        ..      ADD      sp,sp,#0x14
        0x0000cf08:    e8bd8ff0    ....    POP      {r4-r11,pc}
        0x0000cf0c:    b2ce        ..      UXTB     r6,r1
        0x0000cf0e:    4604        .F      MOV      r4,r0
        0x0000cf10:    f2401200    @...    MOVW     r2,#0x100
        0x0000cf14:    f0060307    ....    AND      r3,r6,#7
        0x0000cf18:    2000        .       MOVS     r0,#0
        0x0000cf1a:    f6c00200    ....    MOVT     r2,#0x800
        0x0000cf1e:    ebb01f56    ..V.    CMP      r0,r6,LSR #5
        0x0000cf22:    ea4f00c3    O...    LSL      r0,r3,#3
        0x0000cf26:    d01d        ..      BEQ      0xcf64 ; am_hal_gpio_pinconfig + 108
        0x0000cf28:    0977        w.      LSRS     r7,r6,#5
        0x0000cf2a:    2ebf        ..      CMP      r6,#0xbf
        0x0000cf2c:    f0400001    @...    ORR      r0,r0,#1
        0x0000cf30:    d80d        ..      BHI      0xcf4e ; am_hal_gpio_pinconfig + 86
        0x0000cf32:    2f01        ./      CMP      r7,#1
        0x0000cf34:    d00b        ..      BEQ      0xcf4e ; am_hal_gpio_pinconfig + 86
        0x0000cf36:    f24f56c4    O..V    MOV      r6,#0xf5c4
        0x0000cf3a:    f2c00600    ....    MOVT     r6,#0
        0x0000cf3e:    5d36        6]      LDRB     r6,[r6,r4]
        0x0000cf40:    4615        .F      MOV      r5,r2
        0x0000cf42:    07f6        ..      LSLS     r6,r6,#31
        0x0000cf44:    d0de        ..      BEQ      0xcf04 ; am_hal_gpio_pinconfig + 12
        0x0000cf46:    ea401087    @...    ORR      r0,r0,r7,LSL #6
        0x0000cf4a:    3880        .8      SUBS     r0,r0,#0x80
        0x0000cf4c:    e00a        ..      B        0xcf64 ; am_hal_gpio_pinconfig + 108
        0x0000cf4e:    2f06        ./      CMP      r7,#6
        0x0000cf50:    d103        ..      BNE      0xcf5a ; am_hal_gpio_pinconfig + 98
        0x0000cf52:    2c14        .,      CMP      r4,#0x14
        0x0000cf54:    d006        ..      BEQ      0xcf64 ; am_hal_gpio_pinconfig + 108
        0x0000cf56:    1c55        U.      ADDS     r5,r2,#1
        0x0000cf58:    e7d4        ..      B        0xcf04 ; am_hal_gpio_pinconfig + 12
        0x0000cf5a:    2c14        .,      CMP      r4,#0x14
        0x0000cf5c:    d102        ..      BNE      0xcf64 ; am_hal_gpio_pinconfig + 108
        0x0000cf5e:    2f01        ./      CMP      r7,#1
        0x0000cf60:    4615        .F      MOV      r5,r2
        0x0000cf62:    d0cf        ..      BEQ      0xcf04 ; am_hal_gpio_pinconfig + 12
        0x0000cf64:    f3c107c1    ....    UBFX     r7,r1,#3,#2
        0x0000cf68:    b197        ..      CBZ      r7,0xcf90 ; am_hal_gpio_pinconfig + 152
        0x0000cf6a:    2f02        ./      CMP      r7,#2
        0x0000cf6c:    f1020502    ....    ADD      r5,r2,#2
        0x0000cf70:    d008        ..      BEQ      0xcf84 ; am_hal_gpio_pinconfig + 140
        0x0000cf72:    2f01        ./      CMP      r7,#1
        0x0000cf74:    d1c6        ..      BNE      0xcf04 ; am_hal_gpio_pinconfig + 12
        0x0000cf76:    2c24        $,      CMP      r4,#0x24
        0x0000cf78:    d001        ..      BEQ      0xcf7e ; am_hal_gpio_pinconfig + 134
        0x0000cf7a:    2c03        .,      CMP      r4,#3
        0x0000cf7c:    d1c2        ..      BNE      0xcf04 ; am_hal_gpio_pinconfig + 12
        0x0000cf7e:    f0400040    @.@.    ORR      r0,r0,#0x40
        0x0000cf82:    e005        ..      B        0xcf90 ; am_hal_gpio_pinconfig + 152
        0x0000cf84:    2c29        ),      CMP      r4,#0x29
        0x0000cf86:    d001        ..      BEQ      0xcf8c ; am_hal_gpio_pinconfig + 148
        0x0000cf88:    2c25        %,      CMP      r4,#0x25
        0x0000cf8a:    d1bb        ..      BNE      0xcf04 ; am_hal_gpio_pinconfig + 12
        0x0000cf8c:    f0400080    @...    ORR      r0,r0,#0x80
        0x0000cf90:    f24f670e    O..g    MOV      r7,#0xf60e
        0x0000cf94:    f2c00700    ....    MOVT     r7,#0
        0x0000cf98:    5d3f        ?]      LDRB     r7,[r7,r4]
        0x0000cf9a:    40df        .@      LSRS     r7,r7,r3
        0x0000cf9c:    07ff        ..      LSLS     r7,r7,#31
        0x0000cf9e:    f24f7780    O..w    MOV      r7,#0xf780
        0x0000cfa2:    f2c00700    ....    MOVT     r7,#0
        0x0000cfa6:    5d3f        ?]      LDRB     r7,[r7,r4]
        0x0000cfa8:    bf18        ..      IT       NE
        0x0000cfaa:    f0400002    @...    ORRNE    r0,r0,#2
        0x0000cfae:    429f        .B      CMP      r7,r3
        0x0000cfb0:    d127        '.      BNE      0xd002 ; am_hal_gpio_pinconfig + 266
        0x0000cfb2:    0c0b        ..      LSRS     r3,r1,#16
        0x0000cfb4:    f003070d    ....    AND      r7,r3,#0xd
        0x0000cfb8:    2f0d        ./      CMP      r7,#0xd
        0x0000cfba:    f1020503    ....    ADD      r5,r2,#3
        0x0000cfbe:    d0a1        ..      BEQ      0xcf04 ; am_hal_gpio_pinconfig + 12
        0x0000cfc0:    07df        ..      LSLS     r7,r3,#31
        0x0000cfc2:    d103        ..      BNE      0xcfcc ; am_hal_gpio_pinconfig + 212
        0x0000cfc4:    f003070e    ....    AND      r7,r3,#0xe
        0x0000cfc8:    2f04        ./      CMP      r7,#4
        0x0000cfca:    d89b        ..      BHI      0xcf04 ; am_hal_gpio_pinconfig + 12
        0x0000cfcc:    01df        ..      LSLS     r7,r3,#7
        0x0000cfce:    f0030330    ..0.    AND      r3,r3,#0x30
        0x0000cfd2:    f3c14642    ..BF    UBFX     r6,r1,#17,#3
        0x0000cfd6:    b2ff        ..      UXTB     r7,r7
        0x0000cfd8:    4433        3D      ADD      r3,r3,r6
        0x0000cfda:    441f        .D      ADD      r7,r7,r3
        0x0000cfdc:    f24f6358    O.Xc    MOV      r3,#0xf658
        0x0000cfe0:    f2c00300    ....    MOVT     r3,#0
        0x0000cfe4:    eb030684    ....    ADD      r6,r3,r4,LSL #2
        0x0000cfe8:    2300        .#      MOVS     r3,#0
        0x0000cfea:    bf00        ..      NOP      
        0x0000cfec:    7835        5x      LDRB     r5,[r6,#0]
        0x0000cfee:    42af        .B      CMP      r7,r5
        0x0000cff0:    f0008083    ....    BEQ.W    0xd0fa ; am_hal_gpio_pinconfig + 514
        0x0000cff4:    3302        .3      ADDS     r3,#2
        0x0000cff6:    2b08        .+      CMP      r3,#8
        0x0000cff8:    f1060601    ....    ADD      r6,r6,#1
        0x0000cffc:    d1f6        ..      BNE      0xcfec ; am_hal_gpio_pinconfig + 244
        0x0000cffe:    1d15        ..      ADDS     r5,r2,#4
        0x0000d000:    e780        ..      B        0xcf04 ; am_hal_gpio_pinconfig + 12
        0x0000d002:    2202        ."      MOVS     r2,#2
        0x0000d004:    ea0222d1    ..."    AND      r2,r2,r1,LSR #11
        0x0000d008:    4310        .C      ORRS     r0,r0,r2
        0x0000d00a:    2208        ."      MOVS     r2,#8
        0x0000d00c:    f3c12381    ...#    UBFX     r3,r1,#10,#2
        0x0000d010:    ea022291    ..."    AND      r2,r2,r1,LSR #10
        0x0000d014:    ea420243    B.C.    ORR      r2,r2,r3,LSL #1
        0x0000d018:    3b01        .;      SUBS     r3,#1
        0x0000d01a:    1ecf        ..      SUBS     r7,r1,#3
        0x0000d01c:    fab3f383    ....    CLZ      r3,r3
        0x0000d020:    fab7f787    ....    CLZ      r7,r7
        0x0000d024:    095b        [.      LSRS     r3,r3,#5
        0x0000d026:    097f        ..      LSRS     r7,r7,#5
        0x0000d028:    433b        ;C      ORRS     r3,r3,r7
        0x0000d02a:    f4114fc0    ...O    TST      r1,#0x6000
        0x0000d02e:    9303        ..      STR      r3,[sp,#0xc]
        0x0000d030:    bf07        ..      ITTEE    EQ
        0x0000d032:    f3c133c0    ...3    UBFXEQ   r3,r1,#15,#1
        0x0000d036:    ea420c03    B...    ORREQ    r12,r2,r3
        0x0000d03a:    f3c13380    ...3    UBFXNE   r3,r1,#14,#1
        0x0000d03e:    eb020c03    ....    ADDNE    r12,r2,r3
        0x0000d042:    0a09        ..      LSRS     r1,r1,#8
        0x0000d044:    f0010103    ....    AND      r1,r1,#3
        0x0000d048:    e8dff001    ....    TBB      [pc,r1]
    $d.1
        0x0000d04c:    06080209    ....    DCD    101188105
    $t.2
        0x0000d050:    f0400004    @...    ORR      r0,r0,#4
        0x0000d054:    2100        .!      MOVS     r1,#0
        0x0000d056:    e002        ..      B        0xd05e ; am_hal_gpio_pinconfig + 358
        0x0000d058:    f0400004    @...    ORR      r0,r0,#4
        0x0000d05c:    2101        .!      MOVS     r1,#1
        0x0000d05e:    f06f0303    o...    MVN      r3,#3
        0x0000d062:    ea030a54    ..T.    AND      r10,r3,r4,LSR #1
        0x0000d066:    231c        .#      MOVS     r3,#0x1c
        0x0000d068:    2518        .%      MOVS     r5,#0x18
        0x0000d06a:    ea030384    ....    AND      r3,r3,r4,LSL #2
        0x0000d06e:    ea0502c4    ....    AND      r2,r5,r4,LSL #3
        0x0000d072:    250f        .%      MOVS     r5,#0xf
        0x0000d074:    409d        .@      LSLS     r5,r5,r3
        0x0000d076:    43ed        .C      MVNS     r5,r5
        0x0000d078:    2600        .&      MOVS     r6,#0
        0x0000d07a:    9502        ..      STR      r5,[sp,#8]
        0x0000d07c:    25ff        .%      MOVS     r5,#0xff
        0x0000d07e:    fa00f802    ....    LSL      r8,r0,r2
        0x0000d082:    fa01f002    ....    LSL      r0,r1,r2
        0x0000d086:    f2c40601    ....    MOVT     r6,#0x4001
        0x0000d08a:    4095        .@      LSLS     r5,r5,r2
        0x0000d08c:    9001        ..      STR      r0,[sp,#4]
        0x0000d08e:    fa0cf003    ....    LSL      r0,r12,r3
        0x0000d092:    f1060b4c    ..L.    ADD      r11,r6,#0x4c
        0x0000d096:    f0240703    $...    BIC      r7,r4,#3
        0x0000d09a:    f10609f8    ....    ADD      r9,r6,#0xf8
        0x0000d09e:    43ed        .C      MVNS     r5,r5
        0x0000d0a0:    9000        ..      STR      r0,[sp,#0]
        0x0000d0a2:    f000f87f    ....    BL       am_hal_interrupt_master_disable ; 0xd1a4
        0x0000d0a6:    9903        ..      LDR      r1,[sp,#0xc]
        0x0000d0a8:    9004        ..      STR      r0,[sp,#0x10]
        0x0000d0aa:    b151        Q.      CBZ      r1,0xd0c2 ; am_hal_gpio_pinconfig + 458
        0x0000d0ac:    f004001f    ....    AND      r0,r4,#0x1f
        0x0000d0b0:    2101        .!      MOVS     r1,#1
        0x0000d0b2:    fa01f000    ....    LSL      r0,r1,r0
        0x0000d0b6:    f3c41141    ..A.    UBFX     r1,r4,#5,#2
        0x0000d0ba:    eb060181    ....    ADD      r1,r6,r1,LSL #2
        0x0000d0be:    f8c100c8    ....    STR      r0,[r1,#0xc8]
        0x0000d0c2:    2073        s       MOVS     r0,#0x73
        0x0000d0c4:    6770        pg      STR      r0,[r6,#0x74]
        0x0000d0c6:    59f0        .Y      LDR      r0,[r6,r7]
        0x0000d0c8:    4028        (@      ANDS     r0,r0,r5
        0x0000d0ca:    ea400008    @...    ORR      r0,r0,r8
        0x0000d0ce:    51f0        .Q      STR      r0,[r6,r7]
        0x0000d0d0:    f85a000b    Z...    LDR      r0,[r10,r11]
        0x0000d0d4:    9902        ..      LDR      r1,[sp,#8]
        0x0000d0d6:    4008        .@      ANDS     r0,r0,r1
        0x0000d0d8:    9900        ..      LDR      r1,[sp,#0]
        0x0000d0da:    4308        .C      ORRS     r0,r0,r1
        0x0000d0dc:    f84a000b    J...    STR      r0,[r10,r11]
        0x0000d0e0:    f8570009    W...    LDR      r0,[r7,r9]
        0x0000d0e4:    9901        ..      LDR      r1,[sp,#4]
        0x0000d0e6:    4028        (@      ANDS     r0,r0,r5
        0x0000d0e8:    4308        .C      ORRS     r0,r0,r1
        0x0000d0ea:    2500        .%      MOVS     r5,#0
        0x0000d0ec:    f8470009    G...    STR      r0,[r7,r9]
        0x0000d0f0:    6775        ug      STR      r5,[r6,#0x74]
        0x0000d0f2:    9804        ..      LDR      r0,[sp,#0x10]
        0x0000d0f4:    f000f85e    ..^.    BL       am_hal_interrupt_master_set ; 0xd1b4
        0x0000d0f8:    e704        ..      B        0xcf04 ; am_hal_gpio_pinconfig + 12
        0x0000d0fa:    2208        ."      MOVS     r2,#8
        0x0000d0fc:    ea0242d1    ...B    AND      r2,r2,r1,LSR #19
        0x0000d100:    ea430c02    C...    ORR      r12,r3,r2
        0x0000d104:    2200        ."      MOVS     r2,#0
        0x0000d106:    9203        ..      STR      r2,[sp,#0xc]
        0x0000d108:    e79b        ..      B        0xd042 ; am_hal_gpio_pinconfig + 330
        0x0000d10a:    0000        ..      MOVS     r0,r0
    am_hal_gpio_state_write
        0x0000d10c:    b5b0        ..      PUSH     {r4,r5,r7,lr}
        0x0000d10e:    b082        ..      SUB      sp,sp,#8
        0x0000d110:    2849        I(      CMP      r0,#0x49
        0x0000d112:    d901        ..      BLS      0xd118 ; am_hal_gpio_state_write + 12
        0x0000d114:    2405        .$      MOVS     r4,#5
        0x0000d116:    e040        @.      B        0xd19a ; am_hal_gpio_state_write + 142
        0x0000d118:    460d        .F      MOV      r5,r1
        0x0000d11a:    2905        .)      CMP      r1,#5
        0x0000d11c:    d901        ..      BLS      0xd122 ; am_hal_gpio_state_write + 22
        0x0000d11e:    2406        .$      MOVS     r4,#6
        0x0000d120:    e03b        ;.      B        0xd19a ; am_hal_gpio_state_write + 142
        0x0000d122:    4604        .F      MOV      r4,r0
        0x0000d124:    f000f83e    ..>.    BL       am_hal_interrupt_master_disable ; 0xd1a4
        0x0000d128:    2d05        .-      CMP      r5,#5
        0x0000d12a:    9001        ..      STR      r0,[sp,#4]
        0x0000d12c:    d838        8.      BHI      0xd1a0 ; am_hal_gpio_state_write + 148
        0x0000d12e:    f004001f    ....    AND      r0,r4,#0x1f
        0x0000d132:    2101        .!      MOVS     r1,#1
        0x0000d134:    fa01f000    ....    LSL      r0,r1,r0
        0x0000d138:    210c        .!      MOVS     r1,#0xc
        0x0000d13a:    ea0101d4    ....    AND      r1,r1,r4,LSR #3
        0x0000d13e:    e8dff005    ....    TBB      [pc,r5]
    $d.6
        0x0000d142:    0903        ..      DCW    2307
        0x0000d144:    211b160f    ...!    DCD    555423247
    $t.7
        0x0000d148:    228c        ."      MOVS     r2,#0x8c
        0x0000d14a:    f2c40201    ....    MOVT     r2,#0x4001
        0x0000d14e:    4411        .D      ADD      r1,r1,r2
        0x0000d150:    6188        .a      STR      r0,[r1,#0x18]
        0x0000d152:    e01e        ..      B        0xd192 ; am_hal_gpio_state_write + 134
        0x0000d154:    228c        ."      MOVS     r2,#0x8c
        0x0000d156:    f2c40201    ....    MOVT     r2,#0x4001
        0x0000d15a:    4411        .D      ADD      r1,r1,r2
        0x0000d15c:    60c8        .`      STR      r0,[r1,#0xc]
        0x0000d15e:    e018        ..      B        0xd192 ; am_hal_gpio_state_write + 134
        0x0000d160:    228c        ."      MOVS     r2,#0x8c
        0x0000d162:    f2c40201    ....    MOVT     r2,#0x4001
        0x0000d166:    588b        .X      LDR      r3,[r1,r2]
        0x0000d168:    4058        X@      EORS     r0,r0,r3
        0x0000d16a:    5088        .P      STR      r0,[r1,r2]
        0x0000d16c:    e011        ..      B        0xd192 ; am_hal_gpio_state_write + 134
        0x0000d16e:    228c        ."      MOVS     r2,#0x8c
        0x0000d170:    f2c40201    ....    MOVT     r2,#0x4001
        0x0000d174:    4411        .D      ADD      r1,r1,r2
        0x0000d176:    e00b        ..      B        0xd190 ; am_hal_gpio_state_write + 132
        0x0000d178:    228c        ."      MOVS     r2,#0x8c
        0x0000d17a:    f2c40201    ....    MOVT     r2,#0x4001
        0x0000d17e:    4411        .D      ADD      r1,r1,r2
        0x0000d180:    6308        .c      STR      r0,[r1,#0x30]
        0x0000d182:    e006        ..      B        0xd192 ; am_hal_gpio_state_write + 134
        0x0000d184:    228c        ."      MOVS     r2,#0x8c
        0x0000d186:    f2c40201    ....    MOVT     r2,#0x4001
        0x0000d18a:    4411        .D      ADD      r1,r1,r2
        0x0000d18c:    6bca        .k      LDR      r2,[r1,#0x3c]
        0x0000d18e:    4050        P@      EORS     r0,r0,r2
        0x0000d190:    63c8        .c      STR      r0,[r1,#0x3c]
        0x0000d192:    2400        .$      MOVS     r4,#0
        0x0000d194:    9801        ..      LDR      r0,[sp,#4]
        0x0000d196:    f000f80d    ....    BL       am_hal_interrupt_master_set ; 0xd1b4
        0x0000d19a:    4620         F      MOV      r0,r4
        0x0000d19c:    b002        ..      ADD      sp,sp,#8
        0x0000d19e:    bdb0        ..      POP      {r4,r5,r7,pc}
        0x0000d1a0:    2406        .$      MOVS     r4,#6
        0x0000d1a2:    e7f7        ..      B        0xd194 ; am_hal_gpio_state_write + 136
    am_hal_interrupt_master_disable
        0x0000d1a4:    f3ef8010    ....    MRS      r0,PRIMASK
        0x0000d1a8:    b672        r.      CPSID    i
        0x0000d1aa:    4770        pG      BX       lr
    am_hal_interrupt_master_enable
        0x0000d1ac:    f3ef8010    ....    MRS      r0,PRIMASK
        0x0000d1b0:    b662        b.      CPSIE    i
        0x0000d1b2:    4770        pG      BX       lr
    am_hal_interrupt_master_set
        0x0000d1b4:    f3808810    ....    MSR      PRIMASK,r0
        0x0000d1b8:    4770        pG      BX       lr
    am_hal_ios_configure
        0x0000d1ba:    e92d41f0    -..A    PUSH     {r4-r8,lr}
        0x0000d1be:    b180        ..      CBZ      r0,0xd1e2 ; am_hal_ios_configure + 40
        0x0000d1c0:    4605        .F      MOV      r5,r0
        0x0000d1c2:    6800        .h      LDR      r0,[r0,#0]
        0x0000d1c4:    f2434656    C.VF    MOV      r6,#0x3456
        0x0000d1c8:    460c        .F      MOV      r4,r1
        0x0000d1ca:    f2c01612    ....    MOVT     r6,#0x112
        0x0000d1ce:    f020417e     .~A    BIC      r1,r0,#0xfe000000
        0x0000d1d2:    42b1        .B      CMP      r1,r6
        0x0000d1d4:    d105        ..      BNE      0xd1e2 ; am_hal_ios_configure + 40
        0x0000d1d6:    b10c        ..      CBZ      r4,0xd1dc ; am_hal_ios_configure + 34
        0x0000d1d8:    6869        ih      LDR      r1,[r5,#4]
        0x0000d1da:    b129        ).      CBZ      r1,0xd1e8 ; am_hal_ios_configure + 46
        0x0000d1dc:    2006        .       MOVS     r0,#6
        0x0000d1de:    e8bd81f0    ....    POP      {r4-r8,pc}
        0x0000d1e2:    2002        .       MOVS     r0,#2
        0x0000d1e4:    e8bd81f0    ....    POP      {r4-r8,pc}
        0x0000d1e8:    0180        ..      LSLS     r0,r0,#6
        0x0000d1ea:    bf44        D.      ITT      MI
        0x0000d1ec:    2007        .       MOVMI    r0,#7
        0x0000d1ee:    e8bd81f0    ....    POPMI    {r4-r8,pc}
        0x0000d1f2:    e9d40c02    ....    LDRD     r0,r12,[r4,#8]
        0x0000d1f6:    69a2        .i      LDR      r2,[r4,#0x18]
        0x0000d1f8:    f10043a0    ...C    ADD      r3,r0,#0x50000000
        0x0000d1fc:    f10c47a0    ...G    ADD      r7,r12,#0x50000000
        0x0000d200:    e9c53708    ...7    STRD     r3,r7,[r5,#0x20]
        0x0000d204:    1afb        ..      SUBS     r3,r7,r3
        0x0000d206:    f885302c    ..,0    STRB     r3,[r5,#0x2c]
        0x0000d20a:    b2db        ..      UXTB     r3,r3
        0x0000d20c:    f5c36380    ...c    RSB      r3,r3,#0x400
        0x0000d210:    429a        .B      CMP      r2,r3
        0x0000d212:    6328        (c      STR      r0,[r5,#0x30]
        0x0000d214:    bf84        ..      ITT      HI
        0x0000d216:    61a3        .a      STRHI    r3,[r4,#0x18]
        0x0000d218:    461a        .F      MOVHI    r2,r3
        0x0000d21a:    6961        ai      LDR      r1,[r4,#0x14]
        0x0000d21c:    f64137b0    A..7    MOV      r7,#0x1bb0
        0x0000d220:    f2c10701    ....    MOVT     r7,#0x1001
        0x0000d224:    2300        .#      MOVS     r3,#0
        0x0000d226:    f8d4e004    ....    LDR      lr,[r4,#4]
        0x0000d22a:    607b        {`      STR      r3,[r7,#4]
        0x0000d22c:    60bb        .`      STR      r3,[r7,#8]
        0x0000d22e:    60fb        .`      STR      r3,[r7,#0xc]
        0x0000d230:    613a        :a      STR      r2,[r7,#0x10]
        0x0000d232:    6039        9`      STR      r1,[r7,#0]
        0x0000d234:    682b        +h      LDR      r3,[r5,#0]
        0x0000d236:    f3c000c4    ....    UBFX     r0,r0,#3,#5
        0x0000d23a:    f40c72fc    ...r    AND      r2,r12,#0x1f8
        0x0000d23e:    f2401800    @...    MOVW     r8,#0x100
        0x0000d242:    f40e71fc    ...q    AND      r1,lr,#0x1f8
        0x0000d246:    ea401042    @.B.    ORR      r0,r0,r2,LSL #5
        0x0000d24a:    f023427c    #.|B    BIC      r2,r3,#0xfc000000
        0x0000d24e:    f1067300    ...s    ADD      r3,r6,#0x2000000
        0x0000d252:    f2c50800    ....    MOVT     r8,#0x5000
        0x0000d256:    429a        .B      CMP      r2,r3
        0x0000d258:    ea405041    @.AP    ORR      r0,r0,r1,LSL #21
        0x0000d25c:    d109        ..      BNE      0xd272 ; am_hal_ios_configure + 184
        0x0000d25e:    f8d81018    ....    LDR      r1,[r8,#0x18]
        0x0000d262:    f0214100    !..A    BIC      r1,r1,#0x80000000
        0x0000d266:    f8c81018    ....    STR      r1,[r8,#0x18]
        0x0000d26a:    6829        )h      LDR      r1,[r5,#0]
        0x0000d26c:    f0217100    !..q    BIC      r1,r1,#0x2000000
        0x0000d270:    6029        )`      STR      r1,[r5,#0]
        0x0000d272:    6821        !h      LDR      r1,[r4,#0]
        0x0000d274:    f8c81018    ....    STR      r1,[r8,#0x18]
        0x0000d278:    f8c80004    ....    STR      r0,[r8,#4]
        0x0000d27c:    f8d80010    ....    LDR      r0,[r8,#0x10]
        0x0000d280:    f24031ff    @..1    MOV      r1,#0x3ff
        0x0000d284:    4388        .C      BICS     r0,r0,r1
        0x0000d286:    f8c80010    ....    STR      r0,[r8,#0x10]
        0x0000d28a:    f8d80000    ....    LDR      r0,[r8,#0]
        0x0000d28e:    f420407f     ..@    BIC      r0,r0,#0xff00
        0x0000d292:    f8c80000    ....    STR      r0,[r8,#0]
        0x0000d296:    6b29        )k      LDR      r1,[r5,#0x30]
        0x0000d298:    4628        (F      MOV      r0,r5
        0x0000d29a:    f000f88d    ....    BL       am_hal_ios_fifo_ptr_set ; 0xd3b8
        0x0000d29e:    6828        (h      LDR      r0,[r5,#0]
        0x0000d2a0:    f020407c     .|@    BIC      r0,r0,#0xfc000000
        0x0000d2a4:    42b0        .B      CMP      r0,r6
        0x0000d2a6:    d109        ..      BNE      0xd2bc ; am_hal_ios_configure + 258
        0x0000d2a8:    f8d80018    ....    LDR      r0,[r8,#0x18]
        0x0000d2ac:    f0404000    @..@    ORR      r0,r0,#0x80000000
        0x0000d2b0:    f8c80018    ....    STR      r0,[r8,#0x18]
        0x0000d2b4:    6828        (h      LDR      r0,[r5,#0]
        0x0000d2b6:    f0407000    @..p    ORR      r0,r0,#0x2000000
        0x0000d2ba:    6028        (`      STR      r0,[r5,#0]
        0x0000d2bc:    68a1        .h      LDR      r1,[r4,#8]
        0x0000d2be:    4628        (F      MOV      r0,r5
        0x0000d2c0:    f000f87a    ..z.    BL       am_hal_ios_fifo_ptr_set ; 0xd3b8
        0x0000d2c4:    6920         i      LDR      r0,[r4,#0x10]
        0x0000d2c6:    f8c80008    ....    STR      r0,[r8,#8]
        0x0000d2ca:    2000        .       MOVS     r0,#0
        0x0000d2cc:    e8bd81f0    ....    POP      {r4-r8,pc}
    am_hal_ios_control
        0x0000d2d0:    b580        ..      PUSH     {r7,lr}
        0x0000d2d2:    b082        ..      SUB      sp,sp,#8
        0x0000d2d4:    2300        .#      MOVS     r3,#0
        0x0000d2d6:    9301        ..      STR      r3,[sp,#4]
        0x0000d2d8:    b168        h.      CBZ      r0,0xd2f6 ; am_hal_ios_control + 38
        0x0000d2da:    6803        .h      LDR      r3,[r0,#0]
        0x0000d2dc:    f0234c7e    #.~L    BIC      r12,r3,#0xfe000000
        0x0000d2e0:    f2434356    C.VC    MOV      r3,#0x3456
        0x0000d2e4:    f2c01312    ....    MOVT     r3,#0x112
        0x0000d2e8:    459c        .E      CMP      r12,r3
        0x0000d2ea:    d104        ..      BNE      0xd2f6 ; am_hal_ios_control + 38
        0x0000d2ec:    2904        .)      CMP      r1,#4
        0x0000d2ee:    d806        ..      BHI      0xd2fe ; am_hal_ios_control + 46
        0x0000d2f0:    b92a        *.      CBNZ     r2,0xd2fe ; am_hal_ios_control + 46
        0x0000d2f2:    2306        .#      MOVS     r3,#6
        0x0000d2f4:    e000        ..      B        0xd2f8 ; am_hal_ios_control + 40
        0x0000d2f6:    2302        .#      MOVS     r3,#2
        0x0000d2f8:    4618        .F      MOV      r0,r3
        0x0000d2fa:    b002        ..      ADD      sp,sp,#8
        0x0000d2fc:    bd80        ..      POP      {r7,pc}
        0x0000d2fe:    2908        .)      CMP      r1,#8
        0x0000d300:    d858        X.      BHI      0xd3b4 ; am_hal_ios_control + 228
        0x0000d302:    2306        .#      MOVS     r3,#6
        0x0000d304:    e8dff001    ....    TBB      [pc,r1]
    $d.17
        0x0000d308:    1c140906    ....    DCD    471075078
        0x0000d30c:    3f322a22    "*2?    DCD    1060252194
        0x0000d310:    0005        ..      DCW    5
    $t.18
        0x0000d312:    e7f1        ..      B        0xd2f8 ; am_hal_ios_control + 40
        0x0000d314:    6810        .h      LDR      r0,[r2,#0]
        0x0000d316:    0600        ..      LSLS     r0,r0,#24
        0x0000d318:    e004        ..      B        0xd324 ; am_hal_ios_control + 84
        0x0000d31a:    6810        .h      LDR      r0,[r2,#0]
        0x0000d31c:    f44f3180    O..1    MOV      r1,#0x10000
        0x0000d320:    ea014000    ...@    AND      r0,r1,r0,LSL #16
        0x0000d324:    f2401100    @...    MOVW     r1,#0x100
        0x0000d328:    f2c50100    ....    MOVT     r1,#0x5000
        0x0000d32c:    6208        .b      STR      r0,[r1,#0x20]
        0x0000d32e:    e041        A.      B        0xd3b4 ; am_hal_ios_control + 228
        0x0000d330:    f2401000    @...    MOVW     r0,#0x100
        0x0000d334:    f2c50000    ....    MOVT     r0,#0x5000
        0x0000d338:    6a00        .j      LDR      r0,[r0,#0x20]
        0x0000d33a:    f3c02007    ...     UBFX     r0,r0,#8,#8
        0x0000d33e:    e00b        ..      B        0xd358 ; am_hal_ios_control + 136
        0x0000d340:    f2401000    @...    MOVW     r0,#0x100
        0x0000d344:    f2c50000    ....    MOVT     r0,#0x5000
        0x0000d348:    6a00        .j      LDR      r0,[r0,#0x20]
        0x0000d34a:    e004        ..      B        0xd356 ; am_hal_ios_control + 134
        0x0000d34c:    f2401000    @...    MOVW     r0,#0x100
        0x0000d350:    f2c50000    ....    MOVT     r0,#0x5000
        0x0000d354:    6a40        @j      LDR      r0,[r0,#0x24]
        0x0000d356:    b2c0        ..      UXTB     r0,r0
        0x0000d358:    6010        .`      STR      r0,[r2,#0]
        0x0000d35a:    e02b        +.      B        0xd3b4 ; am_hal_ios_control + 228
        0x0000d35c:    f2401000    @...    MOVW     r0,#0x100
        0x0000d360:    f2c50000    ....    MOVT     r0,#0x5000
        0x0000d364:    68c1        .h      LDR      r1,[r0,#0xc]
        0x0000d366:    0789        ..      LSLS     r1,r1,#30
        0x0000d368:    d4fc        ..      BMI      0xd364 ; am_hal_ios_control + 148
        0x0000d36a:    e023        #.      B        0xd3b4 ; am_hal_ios_control + 228
        0x0000d36c:    a901        ..      ADD      r1,sp,#4
        0x0000d36e:    f000f845    ..E.    BL       am_hal_ios_fifo_space_used ; 0xd3fc
        0x0000d372:    f2401100    @...    MOVW     r1,#0x100
        0x0000d376:    f2c50100    ....    MOVT     r1,#0x5000
        0x0000d37a:    9801        ..      LDR      r0,[sp,#4]
        0x0000d37c:    690a        .i      LDR      r2,[r1,#0x10]
        0x0000d37e:    f3600209    `...    BFI      r2,r0,#0,#10
        0x0000d382:    610a        .a      STR      r2,[r1,#0x10]
        0x0000d384:    e016        ..      B        0xd3b4 ; am_hal_ios_control + 228
        0x0000d386:    f64130b0    A..0    MOV      r0,#0x1bb0
        0x0000d38a:    f2c10001    ....    MOVT     r0,#0x1001
        0x0000d38e:    2100        .!      MOVS     r1,#0
        0x0000d390:    6041        A`      STR      r1,[r0,#4]
        0x0000d392:    6081        .`      STR      r1,[r0,#8]
        0x0000d394:    60c1        .`      STR      r1,[r0,#0xc]
        0x0000d396:    6101        .a      STR      r1,[r0,#0x10]
        0x0000d398:    6001        .`      STR      r1,[r0,#0]
        0x0000d39a:    f2401000    @...    MOVW     r0,#0x100
        0x0000d39e:    f2c50000    ....    MOVT     r0,#0x5000
        0x0000d3a2:    6901        .i      LDR      r1,[r0,#0x10]
        0x0000d3a4:    f24032ff    @..2    MOV      r2,#0x3ff
        0x0000d3a8:    4391        .C      BICS     r1,r1,r2
        0x0000d3aa:    6101        .a      STR      r1,[r0,#0x10]
        0x0000d3ac:    6801        .h      LDR      r1,[r0,#0]
        0x0000d3ae:    f421417f    !..A    BIC      r1,r1,#0xff00
        0x0000d3b2:    6001        .`      STR      r1,[r0,#0]
        0x0000d3b4:    2300        .#      MOVS     r3,#0
        0x0000d3b6:    e79f        ..      B        0xd2f8 ; am_hal_ios_control + 40
    am_hal_ios_fifo_ptr_set
        0x0000d3b8:    b5b0        ..      PUSH     {r4,r5,r7,lr}
        0x0000d3ba:    b082        ..      SUB      sp,sp,#8
        0x0000d3bc:    b1e0        ..      CBZ      r0,0xd3f8 ; am_hal_ios_fifo_ptr_set + 64
        0x0000d3be:    4604        .F      MOV      r4,r0
        0x0000d3c0:    6800        .h      LDR      r0,[r0,#0]
        0x0000d3c2:    460d        .F      MOV      r5,r1
        0x0000d3c4:    f2434156    C.VA    MOV      r1,#0x3456
        0x0000d3c8:    f020407e     .~@    BIC      r0,r0,#0xfe000000
        0x0000d3cc:    f2c01112    ....    MOVT     r1,#0x112
        0x0000d3d0:    4288        .B      CMP      r0,r1
        0x0000d3d2:    d111        ..      BNE      0xd3f8 ; am_hal_ios_fifo_ptr_set + 64
        0x0000d3d4:    f7fffee6    ....    BL       am_hal_interrupt_master_disable ; 0xd1a4
        0x0000d3d8:    9001        ..      STR      r0,[sp,#4]
        0x0000d3da:    f2401000    @...    MOVW     r0,#0x100
        0x0000d3de:    f2c50000    ....    MOVT     r0,#0x5000
        0x0000d3e2:    2101        .!      MOVS     r1,#1
        0x0000d3e4:    60c1        .`      STR      r1,[r0,#0xc]
        0x0000d3e6:    2100        .!      MOVS     r1,#0
        0x0000d3e8:    6005        .`      STR      r5,[r0,#0]
        0x0000d3ea:    60c1        .`      STR      r1,[r0,#0xc]
        0x0000d3ec:    f10540a0    ...@    ADD      r0,r5,#0x50000000
        0x0000d3f0:    62a0        .b      STR      r0,[r4,#0x28]
        0x0000d3f2:    9801        ..      LDR      r0,[sp,#4]
        0x0000d3f4:    f7fffede    ....    BL       am_hal_interrupt_master_set ; 0xd1b4
        0x0000d3f8:    b002        ..      ADD      sp,sp,#8
        0x0000d3fa:    bdb0        ..      POP      {r4,r5,r7,pc}
    am_hal_ios_fifo_space_used
        0x0000d3fc:    b5b0        ..      PUSH     {r4,r5,r7,lr}
        0x0000d3fe:    b082        ..      SUB      sp,sp,#8
        0x0000d400:    b1f8        ..      CBZ      r0,0xd442 ; am_hal_ios_fifo_space_used + 70
        0x0000d402:    6800        .h      LDR      r0,[r0,#0]
        0x0000d404:    460c        .F      MOV      r4,r1
        0x0000d406:    f2434156    C.VA    MOV      r1,#0x3456
        0x0000d40a:    f020407e     .~@    BIC      r0,r0,#0xfe000000
        0x0000d40e:    f2c01112    ....    MOVT     r1,#0x112
        0x0000d412:    4288        .B      CMP      r0,r1
        0x0000d414:    d115        ..      BNE      0xd442 ; am_hal_ios_fifo_space_used + 70
        0x0000d416:    b1bc        ..      CBZ      r4,0xd448 ; am_hal_ios_fifo_space_used + 76
        0x0000d418:    f7fffec4    ....    BL       am_hal_interrupt_master_disable ; 0xd1a4
        0x0000d41c:    9001        ..      STR      r0,[sp,#4]
        0x0000d41e:    f64130b0    A..0    MOV      r0,#0x1bb0
        0x0000d422:    f2c10001    ....    MOVT     r0,#0x1001
        0x0000d426:    68c1        .h      LDR      r1,[r0,#0xc]
        0x0000d428:    f2401000    @...    MOVW     r0,#0x100
        0x0000d42c:    f2c50000    ....    MOVT     r0,#0x5000
        0x0000d430:    6802        .h      LDR      r2,[r0,#0]
        0x0000d432:    9801        ..      LDR      r0,[sp,#4]
        0x0000d434:    fa51f592    Q...    UXTAB    r5,r1,r2,ROR #8
        0x0000d438:    f7fffebc    ....    BL       am_hal_interrupt_master_set ; 0xd1b4
        0x0000d43c:    2000        .       MOVS     r0,#0
        0x0000d43e:    6025        %`      STR      r5,[r4,#0]
        0x0000d440:    e000        ..      B        0xd444 ; am_hal_ios_fifo_space_used + 72
        0x0000d442:    2002        .       MOVS     r0,#2
        0x0000d444:    b002        ..      ADD      sp,sp,#8
        0x0000d446:    bdb0        ..      POP      {r4,r5,r7,pc}
        0x0000d448:    2006        .       MOVS     r0,#6
        0x0000d44a:    e7fb        ..      B        0xd444 ; am_hal_ios_fifo_space_used + 72
    am_hal_ios_fifo_write
        0x0000d44c:    e92d4ff0    -..O    PUSH     {r4-r11,lr}
        0x0000d450:    b083        ..      SUB      sp,sp,#0xc
        0x0000d452:    2800        .(      CMP      r0,#0
        0x0000d454:    d06c        l.      BEQ      0xd530 ; am_hal_ios_fifo_write + 228
        0x0000d456:    4607        .F      MOV      r7,r0
        0x0000d458:    6800        .h      LDR      r0,[r0,#0]
        0x0000d45a:    f2434556    C.VE    MOV      r5,#0x3456
        0x0000d45e:    f2c01512    ....    MOVT     r5,#0x112
        0x0000d462:    f020407e     .~@    BIC      r0,r0,#0xfe000000
        0x0000d466:    42a8        .B      CMP      r0,r5
        0x0000d468:    d162        b.      BNE      0xd530 ; am_hal_ios_fifo_write + 228
        0x0000d46a:    460e        .F      MOV      r6,r1
        0x0000d46c:    2900        .)      CMP      r1,#0
        0x0000d46e:    f04f0006    O...    MOV      r0,#6
        0x0000d472:    d05e        ^.      BEQ      0xd532 ; am_hal_ios_fifo_write + 230
        0x0000d474:    4698        .F      MOV      r8,r3
        0x0000d476:    2b00        .+      CMP      r3,#0
        0x0000d478:    d05b        [.      BEQ      0xd532 ; am_hal_ios_fifo_write + 230
        0x0000d47a:    f64139b0    A..9    MOV      r9,#0x1bb0
        0x0000d47e:    f2c10901    ....    MOVT     r9,#0x1001
        0x0000d482:    f8d90000    ....    LDR      r0,[r9,#0]
        0x0000d486:    4692        .F      MOV      r10,r2
        0x0000d488:    b928        (.      CBNZ     r0,0xd496 ; am_hal_ios_fifo_write + 74
        0x0000d48a:    a04e        N.      ADR      r0,{pc}+0x13a ; 0xd5c4
        0x0000d48c:    f240317e    @.~1    MOV      r1,#0x37e
        0x0000d490:    2200        ."      MOVS     r2,#0
        0x0000d492:    f7fffccd    ....    BL       am_hal_debug_error ; 0xce30
        0x0000d496:    f1ba0f00    ....    CMP      r10,#0
        0x0000d49a:    d04d        M.      BEQ      0xd538 ; am_hal_ios_fifo_write + 236
        0x0000d49c:    f7fffe82    ....    BL       am_hal_interrupt_master_disable ; 0xd1a4
        0x0000d4a0:    9002        ..      STR      r0,[sp,#8]
        0x0000d4a2:    f8d9400c    ...@    LDR      r4,[r9,#0xc]
        0x0000d4a6:    9802        ..      LDR      r0,[sp,#8]
        0x0000d4a8:    f7fffe84    ....    BL       am_hal_interrupt_master_set ; 0xd1b4
        0x0000d4ac:    2c00        .,      CMP      r4,#0
        0x0000d4ae:    d045        E.      BEQ      0xd53c ; am_hal_ios_fifo_write + 240
        0x0000d4b0:    46d6        .F      MOV      lr,r10
        0x0000d4b2:    f8d9b004    ....    LDR      r11,[r9,#4]
        0x0000d4b6:    f8d97010    ...p    LDR      r7,[r9,#0x10]
        0x0000d4ba:    1b3d        =.      SUBS     r5,r7,r4
        0x0000d4bc:    4575        uE      CMP      r5,lr
        0x0000d4be:    bf88        ..      IT       HI
        0x0000d4c0:    4675        uF      MOVHI    r5,lr
        0x0000d4c2:    b175        u.      CBZ      r5,0xd4e2 ; am_hal_ios_fifo_write + 150
        0x0000d4c4:    4658        XF      MOV      r0,r11
        0x0000d4c6:    462a        *F      MOV      r2,r5
        0x0000d4c8:    fbb0f4f7    ....    UDIV     r4,r0,r7
        0x0000d4cc:    f8163b01    ...;    LDRB     r3,[r6],#1
        0x0000d4d0:    f8d91000    ....    LDR      r1,[r9,#0]
        0x0000d4d4:    fb040417    ....    MLS      r4,r4,r7,r0
        0x0000d4d8:    3a01        .:      SUBS     r2,#1
        0x0000d4da:    f1000001    ....    ADD      r0,r0,#1
        0x0000d4de:    550b        .U      STRB     r3,[r1,r4]
        0x0000d4e0:    d1f2        ..      BNE      0xd4c8 ; am_hal_ios_fifo_write + 124
        0x0000d4e2:    f2401400    @...    MOVW     r4,#0x100
        0x0000d4e6:    f2c50400    ....    MOVT     r4,#0x5000
        0x0000d4ea:    eba5060e    ....    SUB      r6,r5,lr
        0x0000d4ee:    f7fffe59    ..Y.    BL       am_hal_interrupt_master_disable ; 0xd1a4
        0x0000d4f2:    eb05010b    ....    ADD      r1,r5,r11
        0x0000d4f6:    fbb1f2f7    ....    UDIV     r2,r1,r7
        0x0000d4fa:    9001        ..      STR      r0,[sp,#4]
        0x0000d4fc:    fb021117    ....    MLS      r1,r2,r7,r1
        0x0000d500:    f8c91004    ....    STR      r1,[r9,#4]
        0x0000d504:    f8d9000c    ....    LDR      r0,[r9,#0xc]
        0x0000d508:    4428        (D      ADD      r0,r0,r5
        0x0000d50a:    f8c9000c    ....    STR      r0,[r9,#0xc]
        0x0000d50e:    9801        ..      LDR      r0,[sp,#4]
        0x0000d510:    f7fffe50    ..P.    BL       am_hal_interrupt_master_set ; 0xd1b4
        0x0000d514:    6820         h      LDR      r0,[r4,#0]
        0x0000d516:    68a1        .h      LDR      r1,[r4,#8]
        0x0000d518:    f3c02007    ...     UBFX     r0,r0,#8,#8
        0x0000d51c:    b2c9        ..      UXTB     r1,r1
        0x0000d51e:    4288        .B      CMP      r0,r1
        0x0000d520:    d84a        J.      BHI      0xd5b8 ; am_hal_ios_fifo_write + 364
        0x0000d522:    f8d4010c    ....    LDR      r0,[r4,#0x10c]
        0x0000d526:    f0400001    @...    ORR      r0,r0,#1
        0x0000d52a:    f8c4010c    ....    STR      r0,[r4,#0x10c]
        0x0000d52e:    e043        C.      B        0xd5b8 ; am_hal_ios_fifo_write + 364
        0x0000d530:    2002        .       MOVS     r0,#2
        0x0000d532:    b003        ..      ADD      sp,sp,#0xc
        0x0000d534:    e8bd8ff0    ....    POP      {r4-r11,pc}
        0x0000d538:    2000        .       MOVS     r0,#0
        0x0000d53a:    e03f        ?.      B        0xd5bc ; am_hal_ios_fifo_write + 368
        0x0000d53c:    6838        8h      LDR      r0,[r7,#0]
        0x0000d53e:    f020407e     .~@    BIC      r0,r0,#0xfe000000
        0x0000d542:    42a8        .B      CMP      r0,r5
        0x0000d544:    d10d        ..      BNE      0xd562 ; am_hal_ios_fifo_write + 278
        0x0000d546:    f2401100    @...    MOVW     r1,#0x100
        0x0000d54a:    f2c50100    ....    MOVT     r1,#0x5000
        0x0000d54e:    f897002c    ..,.    LDRB     r0,[r7,#0x2c]
        0x0000d552:    6809        .h      LDR      r1,[r1,#0]
        0x0000d554:    f06f02ff    o...    MVN      r2,#0xff
        0x0000d558:    ea622111    b..!    ORN      r1,r2,r1,LSR #8
        0x0000d55c:    eb010c00    ....    ADD      r12,r1,r0
        0x0000d560:    e001        ..      B        0xd566 ; am_hal_ios_fifo_write + 282
        0x0000d562:    f04f0c00    O...    MOV      r12,#0
        0x0000d566:    e9d71208    ....    LDRD     r1,r2,[r7,#0x20]
        0x0000d56a:    6ab8        .j      LDR      r0,[r7,#0x28]
        0x0000d56c:    45d4        .E      CMP      r12,r10
        0x0000d56e:    d216        ..      BCS      0xd59e ; am_hal_ios_fifo_write + 338
        0x0000d570:    46a3        .F      MOV      r11,r4
        0x0000d572:    f1bc0f00    ....    CMP      r12,#0
        0x0000d576:    d00b        ..      BEQ      0xd590 ; am_hal_ios_fifo_write + 324
        0x0000d578:    4635        5F      MOV      r5,r6
        0x0000d57a:    4663        cF      MOV      r3,r12
        0x0000d57c:    f8154b01    ...K    LDRB     r4,[r5],#1
        0x0000d580:    3b01        .;      SUBS     r3,#1
        0x0000d582:    f8004b01    ...K    STRB     r4,[r0],#1
        0x0000d586:    4290        .B      CMP      r0,r2
        0x0000d588:    bf08        ..      IT       EQ
        0x0000d58a:    4608        .F      MOVEQ    r0,r1
        0x0000d58c:    2b00        .+      CMP      r3,#0
        0x0000d58e:    d1f5        ..      BNE      0xd57c ; am_hal_ios_fifo_write + 304
        0x0000d590:    ebba0e0c    ....    SUBS     lr,r10,r12
        0x0000d594:    62b8        .b      STR      r0,[r7,#0x28]
        0x0000d596:    d00e        ..      BEQ      0xd5b6 ; am_hal_ios_fifo_write + 362
        0x0000d598:    4466        fD      ADD      r6,r6,r12
        0x0000d59a:    465c        \F      MOV      r4,r11
        0x0000d59c:    e789        ..      B        0xd4b2 ; am_hal_ios_fifo_write + 102
        0x0000d59e:    4653        SF      MOV      r3,r10
        0x0000d5a0:    f8165b01    ...[    LDRB     r5,[r6],#1
        0x0000d5a4:    3b01        .;      SUBS     r3,#1
        0x0000d5a6:    f8005b01    ...[    STRB     r5,[r0],#1
        0x0000d5aa:    4290        .B      CMP      r0,r2
        0x0000d5ac:    bf08        ..      IT       EQ
        0x0000d5ae:    4608        .F      MOVEQ    r0,r1
        0x0000d5b0:    2b00        .+      CMP      r3,#0
        0x0000d5b2:    d1f5        ..      BNE      0xd5a0 ; am_hal_ios_fifo_write + 340
        0x0000d5b4:    62b8        .b      STR      r0,[r7,#0x28]
        0x0000d5b6:    2600        .&      MOVS     r6,#0
        0x0000d5b8:    eb06000a    ....    ADD      r0,r6,r10
        0x0000d5bc:    f8c80000    ....    STR      r0,[r8,#0]
        0x0000d5c0:    2000        .       MOVS     r0,#0
        0x0000d5c2:    e7b6        ..      B        0xd532 ; am_hal_ios_fifo_write + 230
    $d.15
        0x0000d5c4:    685f6d61    am_h    DCD    1751084385
        0x0000d5c8:    695f6c61    al_i    DCD    1767861345
        0x0000d5cc:    632e736f    os.c    DCD    1663988591
        0x0000d5d0:    00000000    ....    DCD    0
    $t.3
    am_hal_ios_initialize
        0x0000d5d4:    b108        ..      CBZ      r0,0xd5da ; am_hal_ios_initialize + 6
        0x0000d5d6:    2005        .       MOVS     r0,#5
        0x0000d5d8:    4770        pG      BX       lr
        0x0000d5da:    b199        ..      CBZ      r1,0xd604 ; am_hal_ios_initialize + 48
        0x0000d5dc:    f24102e4    A...    MOV      r2,#0x10e4
        0x0000d5e0:    f2c10201    ....    MOVT     r2,#0x1001
        0x0000d5e4:    6813        .h      LDR      r3,[r2,#0]
        0x0000d5e6:    01d8        ..      LSLS     r0,r3,#7
        0x0000d5e8:    bf44        D.      ITT      MI
        0x0000d5ea:    2007        .       MOVMI    r0,#7
        0x0000d5ec:    4770        pG      BXMI     lr
        0x0000d5ee:    f2434056    C.V@    MOV      r0,#0x3456
        0x0000d5f2:    f2c01012    ....    MOVT     r0,#0x112
        0x0000d5f6:    f3600319    `...    BFI      r3,r0,#0,#26
        0x0000d5fa:    2000        .       MOVS     r0,#0
        0x0000d5fc:    e9c23000    ...0    STRD     r3,r0,[r2,#0]
        0x0000d600:    600a        .`      STR      r2,[r1,#0]
        0x0000d602:    4770        pG      BX       lr
        0x0000d604:    2006        .       MOVS     r0,#6
        0x0000d606:    4770        pG      BX       lr
    am_hal_ios_interrupt_clear
        0x0000d608:    b178        x.      CBZ      r0,0xd62a ; am_hal_ios_interrupt_clear + 34
        0x0000d60a:    6800        .h      LDR      r0,[r0,#0]
        0x0000d60c:    f2434256    C.VB    MOV      r2,#0x3456
        0x0000d610:    f020407e     .~@    BIC      r0,r0,#0xfe000000
        0x0000d614:    f2c01212    ....    MOVT     r2,#0x112
        0x0000d618:    4290        .B      CMP      r0,r2
        0x0000d61a:    d106        ..      BNE      0xd62a ; am_hal_ios_interrupt_clear + 34
        0x0000d61c:    f2402008    @..     MOVW     r0,#0x208
        0x0000d620:    f2c50000    ....    MOVT     r0,#0x5000
        0x0000d624:    6001        .`      STR      r1,[r0,#0]
        0x0000d626:    2000        .       MOVS     r0,#0
        0x0000d628:    4770        pG      BX       lr
        0x0000d62a:    2002        .       MOVS     r0,#2
        0x0000d62c:    4770        pG      BX       lr
    am_hal_ios_interrupt_enable
        0x0000d62e:    b188        ..      CBZ      r0,0xd654 ; am_hal_ios_interrupt_enable + 38
        0x0000d630:    6800        .h      LDR      r0,[r0,#0]
        0x0000d632:    f2434256    C.VB    MOV      r2,#0x3456
        0x0000d636:    f020407e     .~@    BIC      r0,r0,#0xfe000000
        0x0000d63a:    f2c01212    ....    MOVT     r2,#0x112
        0x0000d63e:    4290        .B      CMP      r0,r2
        0x0000d640:    d108        ..      BNE      0xd654 ; am_hal_ios_interrupt_enable + 38
        0x0000d642:    f2402000    @..     MOVW     r0,#0x200
        0x0000d646:    f2c50000    ....    MOVT     r0,#0x5000
        0x0000d64a:    6802        .h      LDR      r2,[r0,#0]
        0x0000d64c:    4311        .C      ORRS     r1,r1,r2
        0x0000d64e:    6001        .`      STR      r1,[r0,#0]
        0x0000d650:    2000        .       MOVS     r0,#0
        0x0000d652:    4770        pG      BX       lr
        0x0000d654:    2002        .       MOVS     r0,#2
        0x0000d656:    4770        pG      BX       lr
    am_hal_ios_interrupt_service
        0x0000d658:    e92d4ff0    -..O    PUSH     {r4-r11,lr}
        0x0000d65c:    b083        ..      SUB      sp,sp,#0xc
        0x0000d65e:    2800        .(      CMP      r0,#0
        0x0000d660:    f00080d1    ....    BEQ.W    0xd806 ; am_hal_ios_interrupt_service + 430
        0x0000d664:    6802        .h      LDR      r2,[r0,#0]
        0x0000d666:    f2434356    C.VC    MOV      r3,#0x3456
        0x0000d66a:    f022427e    ".~B    BIC      r2,r2,#0xfe000000
        0x0000d66e:    f2c01312    ....    MOVT     r3,#0x112
        0x0000d672:    429a        .B      CMP      r2,r3
        0x0000d674:    f04080c7    @...    BNE.W    0xd806 ; am_hal_ios_interrupt_service + 430
        0x0000d678:    07c9        ..      LSLS     r1,r1,#31
        0x0000d67a:    f00080c2    ....    BEQ.W    0xd802 ; am_hal_ios_interrupt_service + 426
        0x0000d67e:    f2401400    @...    MOVW     r4,#0x100
        0x0000d682:    f6413eb0    A..>    MOV      lr,#0x1bb0
        0x0000d686:    f2c50400    ....    MOVT     r4,#0x5000
        0x0000d68a:    f2c10e01    ....    MOVT     lr,#0x1001
        0x0000d68e:    68a1        .h      LDR      r1,[r4,#8]
        0x0000d690:    f8de200c    ...     LDR      r2,[lr,#0xc]
        0x0000d694:    2a00        .*      CMP      r2,#0
        0x0000d696:    f00080b4    ....    BEQ.W    0xd802 ; am_hal_ios_interrupt_service + 426
        0x0000d69a:    b2c9        ..      UXTB     r1,r1
        0x0000d69c:    9102        ..      STR      r1,[sp,#8]
        0x0000d69e:    bf00        ..      NOP      
        0x0000d6a0:    6821        !h      LDR      r1,[r4,#0]
        0x0000d6a2:    f3c12807    ...(    UBFX     r8,r1,#8,#8
        0x0000d6a6:    9902        ..      LDR      r1,[sp,#8]
        0x0000d6a8:    4588        .E      CMP      r8,r1
        0x0000d6aa:    f20080aa    ....    BHI.W    0xd802 ; am_hal_ios_interrupt_service + 426
        0x0000d6ae:    f8dec000    ....    LDR      r12,[lr,#0]
        0x0000d6b2:    f8de1004    ....    LDR      r1,[lr,#4]
        0x0000d6b6:    f8deb010    ....    LDR      r11,[lr,#0x10]
        0x0000d6ba:    f8de2008    ...     LDR      r2,[lr,#8]
        0x0000d6be:    f8de9008    ....    LDR      r9,[lr,#8]
        0x0000d6c2:    4291        .B      CMP      r1,r2
        0x0000d6c4:    bf88        ..      IT       HI
        0x0000d6c6:    468b        .F      MOVHI    r11,r1
        0x0000d6c8:    f8de400c    ...@    LDR      r4,[lr,#0xc]
        0x0000d6cc:    f890602c    ..,`    LDRB     r6,[r0,#0x2c]
        0x0000d6d0:    ea6f0208    o...    MVN      r2,r8
        0x0000d6d4:    ebab0109    ....    SUB      r1,r11,r9
        0x0000d6d8:    eb060a02    ....    ADD      r10,r6,r2
        0x0000d6dc:    f8de2008    ...     LDR      r2,[lr,#8]
        0x0000d6e0:    e9d05708    ...W    LDRD     r5,r7,[r0,#0x20]
        0x0000d6e4:    6a83        .j      LDR      r3,[r0,#0x28]
        0x0000d6e6:    458a        .E      CMP      r10,r1
        0x0000d6e8:    d212        ..      BCS      0xd710 ; am_hal_ios_interrupt_service + 184
        0x0000d6ea:    f1ba0f00    ....    CMP      r10,#0
        0x0000d6ee:    d06d        m.      BEQ      0xd7cc ; am_hal_ios_interrupt_service + 372
        0x0000d6f0:    eb0c0102    ....    ADD      r1,r12,r2
        0x0000d6f4:    eba80206    ....    SUB      r2,r8,r6
        0x0000d6f8:    3201        .2      ADDS     r2,#1
        0x0000d6fa:    bf00        ..      NOP      
        0x0000d6fc:    f8116b01    ...k    LDRB     r6,[r1],#1
        0x0000d700:    f8036b01    ...k    STRB     r6,[r3],#1
        0x0000d704:    42bb        .B      CMP      r3,r7
        0x0000d706:    bf08        ..      IT       EQ
        0x0000d708:    462b        +F      MOVEQ    r3,r5
        0x0000d70a:    3201        .2      ADDS     r2,#1
        0x0000d70c:    d3f6        ..      BCC      0xd6fc ; am_hal_ios_interrupt_service + 164
        0x0000d70e:    e05d        ].      B        0xd7cc ; am_hal_ios_interrupt_service + 372
        0x0000d710:    f8cd9004    ....    STR      r9,[sp,#4]
        0x0000d714:    9600        ..      STR      r6,[sp,#0]
        0x0000d716:    b179        y.      CBZ      r1,0xd738 ; am_hal_ios_interrupt_service + 224
        0x0000d718:    9e01        ..      LDR      r6,[sp,#4]
        0x0000d71a:    4462        bD      ADD      r2,r2,r12
        0x0000d71c:    eba6060b    ....    SUB      r6,r6,r11
        0x0000d720:    46a4        .F      MOV      r12,r4
        0x0000d722:    bf00        ..      NOP      
        0x0000d724:    f8124b01    ...K    LDRB     r4,[r2],#1
        0x0000d728:    f8034b01    ...K    STRB     r4,[r3],#1
        0x0000d72c:    42bb        .B      CMP      r3,r7
        0x0000d72e:    bf08        ..      IT       EQ
        0x0000d730:    462b        +F      MOVEQ    r3,r5
        0x0000d732:    3601        .6      ADDS     r6,#1
        0x0000d734:    d3f6        ..      BCC      0xd724 ; am_hal_ios_interrupt_service + 204
        0x0000d736:    e000        ..      B        0xd73a ; am_hal_ios_interrupt_service + 226
        0x0000d738:    46a4        .F      MOV      r12,r4
        0x0000d73a:    6283        .b      STR      r3,[r0,#0x28]
        0x0000d73c:    f8de2008    ...     LDR      r2,[lr,#8]
        0x0000d740:    f8de7010    ...p    LDR      r7,[lr,#0x10]
        0x0000d744:    440a        .D      ADD      r2,r2,r1
        0x0000d746:    f8ce2008    ...     STR      r2,[lr,#8]
        0x0000d74a:    f8de2008    ...     LDR      r2,[lr,#8]
        0x0000d74e:    f2401400    @...    MOVW     r4,#0x100
        0x0000d752:    fbb2f6f7    ....    UDIV     r6,r2,r7
        0x0000d756:    f2c50400    ....    MOVT     r4,#0x5000
        0x0000d75a:    fb062217    ..."    MLS      r2,r6,r7,r2
        0x0000d75e:    ebbc0601    ....    SUBS     r6,r12,r1
        0x0000d762:    f8ce2008    ...     STR      r2,[lr,#8]
        0x0000d766:    f8de200c    ...     LDR      r2,[lr,#0xc]
        0x0000d76a:    eba20201    ....    SUB      r2,r2,r1
        0x0000d76e:    f8ce200c    ...     STR      r2,[lr,#0xc]
        0x0000d772:    bf18        ..      IT       NE
        0x0000d774:    ebba0a01    ....    SUBSNE   r10,r10,r1
        0x0000d778:    d038        8.      BEQ      0xd7ec ; am_hal_ios_interrupt_service + 404
        0x0000d77a:    f8de2000    ...     LDR      r2,[lr,#0]
        0x0000d77e:    f8de7008    ...p    LDR      r7,[lr,#8]
        0x0000d782:    e9d01508    ....    LDRD     r1,r5,[r0,#0x20]
        0x0000d786:    4556        VE      CMP      r6,r10
        0x0000d788:    4417        .D      ADD      r7,r7,r2
        0x0000d78a:    d911        ..      BLS      0xd7b0 ; am_hal_ios_interrupt_service + 344
        0x0000d78c:    9e01        ..      LDR      r6,[sp,#4]
        0x0000d78e:    eb0b0208    ....    ADD      r2,r11,r8
        0x0000d792:    1b92        ..      SUBS     r2,r2,r6
        0x0000d794:    9e00        ..      LDR      r6,[sp,#0]
        0x0000d796:    1b92        ..      SUBS     r2,r2,r6
        0x0000d798:    3201        .2      ADDS     r2,#1
        0x0000d79a:    bf00        ..      NOP      
        0x0000d79c:    f8176b01    ...k    LDRB     r6,[r7],#1
        0x0000d7a0:    f8036b01    ...k    STRB     r6,[r3],#1
        0x0000d7a4:    42ab        .B      CMP      r3,r5
        0x0000d7a6:    bf08        ..      IT       EQ
        0x0000d7a8:    460b        .F      MOVEQ    r3,r1
        0x0000d7aa:    3201        .2      ADDS     r2,#1
        0x0000d7ac:    d3f6        ..      BCC      0xd79c ; am_hal_ios_interrupt_service + 324
        0x0000d7ae:    e011        ..      B        0xd7d4 ; am_hal_ios_interrupt_service + 380
        0x0000d7b0:    4632        2F      MOV      r2,r6
        0x0000d7b2:    bf00        ..      NOP      
        0x0000d7b4:    f8174b01    ...K    LDRB     r4,[r7],#1
        0x0000d7b8:    3a01        .:      SUBS     r2,#1
        0x0000d7ba:    f8034b01    ...K    STRB     r4,[r3],#1
        0x0000d7be:    42ab        .B      CMP      r3,r5
        0x0000d7c0:    bf08        ..      IT       EQ
        0x0000d7c2:    460b        .F      MOVEQ    r3,r1
        0x0000d7c4:    2a00        .*      CMP      r2,#0
        0x0000d7c6:    d1f5        ..      BNE      0xd7b4 ; am_hal_ios_interrupt_service + 348
        0x0000d7c8:    46b2        .F      MOV      r10,r6
        0x0000d7ca:    bf00        ..      NOP      
        0x0000d7cc:    f2401400    @...    MOVW     r4,#0x100
        0x0000d7d0:    f2c50400    ....    MOVT     r4,#0x5000
        0x0000d7d4:    6283        .b      STR      r3,[r0,#0x28]
        0x0000d7d6:    f8de1008    ....    LDR      r1,[lr,#8]
        0x0000d7da:    4451        QD      ADD      r1,r1,r10
        0x0000d7dc:    f8ce1008    ....    STR      r1,[lr,#8]
        0x0000d7e0:    f8de100c    ....    LDR      r1,[lr,#0xc]
        0x0000d7e4:    eba1010a    ....    SUB      r1,r1,r10
        0x0000d7e8:    f8ce100c    ....    STR      r1,[lr,#0xc]
        0x0000d7ec:    f8d41108    ....    LDR      r1,[r4,#0x108]
        0x0000d7f0:    f0410101    A...    ORR      r1,r1,#1
        0x0000d7f4:    f8c41108    ....    STR      r1,[r4,#0x108]
        0x0000d7f8:    f8de100c    ....    LDR      r1,[lr,#0xc]
        0x0000d7fc:    2900        .)      CMP      r1,#0
        0x0000d7fe:    f47faf4f    ..O.    BNE      0xd6a0 ; am_hal_ios_interrupt_service + 72
        0x0000d802:    2000        .       MOVS     r0,#0
        0x0000d804:    e000        ..      B        0xd808 ; am_hal_ios_interrupt_service + 432
        0x0000d806:    2002        .       MOVS     r0,#2
        0x0000d808:    b003        ..      ADD      sp,sp,#0xc
        0x0000d80a:    e8bd8ff0    ....    POP      {r4-r11,pc}
    am_hal_ios_interrupt_status_get
        0x0000d80e:    b1a0        ..      CBZ      r0,0xd83a ; am_hal_ios_interrupt_status_get + 44
        0x0000d810:    6800        .h      LDR      r0,[r0,#0]
        0x0000d812:    f2434356    C.VC    MOV      r3,#0x3456
        0x0000d816:    f020407e     .~@    BIC      r0,r0,#0xfe000000
        0x0000d81a:    f2c01312    ....    MOVT     r3,#0x112
        0x0000d81e:    4298        .B      CMP      r0,r3
        0x0000d820:    d10b        ..      BNE      0xd83a ; am_hal_ios_interrupt_status_get + 44
        0x0000d822:    b162        b.      CBZ      r2,0xd83e ; am_hal_ios_interrupt_status_get + 48
        0x0000d824:    f2402300    @..#    MOVW     r3,#0x200
        0x0000d828:    f2c50300    ....    MOVT     r3,#0x5000
        0x0000d82c:    6858        Xh      LDR      r0,[r3,#4]
        0x0000d82e:    b109        ..      CBZ      r1,0xd834 ; am_hal_ios_interrupt_status_get + 38
        0x0000d830:    6819        .h      LDR      r1,[r3,#0]
        0x0000d832:    4008        .@      ANDS     r0,r0,r1
        0x0000d834:    6010        .`      STR      r0,[r2,#0]
        0x0000d836:    2000        .       MOVS     r0,#0
        0x0000d838:    4770        pG      BX       lr
        0x0000d83a:    2002        .       MOVS     r0,#2
        0x0000d83c:    4770        pG      BX       lr
        0x0000d83e:    2006        .       MOVS     r0,#6
        0x0000d840:    4770        pG      BX       lr
    am_hal_ios_power_ctrl
        0x0000d842:    b510        ..      PUSH     {r4,lr}
        0x0000d844:    b330        0.      CBZ      r0,0xd894 ; am_hal_ios_power_ctrl + 82
        0x0000d846:    4604        .F      MOV      r4,r0
        0x0000d848:    6800        .h      LDR      r0,[r0,#0]
        0x0000d84a:    f2434356    C.VC    MOV      r3,#0x3456
        0x0000d84e:    f020407e     .~@    BIC      r0,r0,#0xfe000000
        0x0000d852:    f2c01312    ....    MOVT     r3,#0x112
        0x0000d856:    4298        .B      CMP      r0,r3
        0x0000d858:    d11c        ..      BNE      0xd894 ; am_hal_ios_power_ctrl + 82
        0x0000d85a:    1e48        H.      SUBS     r0,r1,#1
        0x0000d85c:    2802        .(      CMP      r0,#2
        0x0000d85e:    d21b        ..      BCS      0xd898 ; am_hal_ios_power_ctrl + 86
        0x0000d860:    b18a        ..      CBZ      r2,0xd886 ; am_hal_ios_power_ctrl + 68
        0x0000d862:    f2401004    @...    MOVW     r0,#0x104
        0x0000d866:    f2c50000    ....    MOVT     r0,#0x5000
        0x0000d86a:    6801        .h      LDR      r1,[r0,#0]
        0x0000d86c:    60e1        .`      STR      r1,[r4,#0xc]
        0x0000d86e:    6841        Ah      LDR      r1,[r0,#4]
        0x0000d870:    6121        !a      STR      r1,[r4,#0x10]
        0x0000d872:    6941        Ai      LDR      r1,[r0,#0x14]
        0x0000d874:    6161        aa      STR      r1,[r4,#0x14]
        0x0000d876:    f8d010fc    ....    LDR      r1,[r0,#0xfc]
        0x0000d87a:    61a1        .a      STR      r1,[r4,#0x18]
        0x0000d87c:    f8d0010c    ....    LDR      r0,[r0,#0x10c]
        0x0000d880:    61e0        .a      STR      r0,[r4,#0x1c]
        0x0000d882:    2001        .       MOVS     r0,#1
        0x0000d884:    7220         r      STRB     r0,[r4,#8]
        0x0000d886:    7920         y      LDRB     r0,[r4,#4]
        0x0000d888:    3001        .0      ADDS     r0,#1
        0x0000d88a:    b2c0        ..      UXTB     r0,r0
        0x0000d88c:    f000f9be    ....    BL       am_hal_pwrctrl_periph_disable ; 0xdc0c
        0x0000d890:    2000        .       MOVS     r0,#0
        0x0000d892:    bd10        ..      POP      {r4,pc}
        0x0000d894:    2002        .       MOVS     r0,#2
        0x0000d896:    bd10        ..      POP      {r4,pc}
        0x0000d898:    b9d1        ..      CBNZ     r1,0xd8d0 ; am_hal_ios_power_ctrl + 142
        0x0000d89a:    b1da        ..      CBZ      r2,0xd8d4 ; am_hal_ios_power_ctrl + 146
        0x0000d89c:    7a20         z      LDRB     r0,[r4,#8]
        0x0000d89e:    b1f8        ..      CBZ      r0,0xd8e0 ; am_hal_ios_power_ctrl + 158
        0x0000d8a0:    7920         y      LDRB     r0,[r4,#4]
        0x0000d8a2:    3001        .0      ADDS     r0,#1
        0x0000d8a4:    b2c0        ..      UXTB     r0,r0
        0x0000d8a6:    f000fa01    ....    BL       am_hal_pwrctrl_periph_enable ; 0xdcac
        0x0000d8aa:    68e0        .h      LDR      r0,[r4,#0xc]
        0x0000d8ac:    f2401104    @...    MOVW     r1,#0x104
        0x0000d8b0:    f2c50100    ....    MOVT     r1,#0x5000
        0x0000d8b4:    6008        .`      STR      r0,[r1,#0]
        0x0000d8b6:    6920         i      LDR      r0,[r4,#0x10]
        0x0000d8b8:    6048        H`      STR      r0,[r1,#4]
        0x0000d8ba:    6960        `i      LDR      r0,[r4,#0x14]
        0x0000d8bc:    6148        Ha      STR      r0,[r1,#0x14]
        0x0000d8be:    69a0        .i      LDR      r0,[r4,#0x18]
        0x0000d8c0:    f8c100fc    ....    STR      r0,[r1,#0xfc]
        0x0000d8c4:    69e0        .i      LDR      r0,[r4,#0x1c]
        0x0000d8c6:    f8c1010c    ....    STR      r0,[r1,#0x10c]
        0x0000d8ca:    2000        .       MOVS     r0,#0
        0x0000d8cc:    7220         r      STRB     r0,[r4,#8]
        0x0000d8ce:    bd10        ..      POP      {r4,pc}
        0x0000d8d0:    2006        .       MOVS     r0,#6
        0x0000d8d2:    bd10        ..      POP      {r4,pc}
        0x0000d8d4:    7920         y      LDRB     r0,[r4,#4]
        0x0000d8d6:    3001        .0      ADDS     r0,#1
        0x0000d8d8:    b2c0        ..      UXTB     r0,r0
        0x0000d8da:    f000f9e7    ....    BL       am_hal_pwrctrl_periph_enable ; 0xdcac
        0x0000d8de:    e7d7        ..      B        0xd890 ; am_hal_ios_power_ctrl + 78
        0x0000d8e0:    2007        .       MOVS     r0,#7
        0x0000d8e2:    bd10        ..      POP      {r4,pc}
    am_hal_itm_enable
        0x0000d8e4:    f64e50fc    N..P    MOV      r0,#0xedfc
        0x0000d8e8:    f2ce0000    ....    MOVT     r0,#0xe000
        0x0000d8ec:    6801        .h      LDR      r1,[r0,#0]
        0x0000d8ee:    f0417180    A..q    ORR      r1,r1,#0x1000000
        0x0000d8f2:    6001        .`      STR      r1,[r0,#0]
        0x0000d8f4:    6801        .h      LDR      r1,[r0,#0]
        0x0000d8f6:    01c9        ..      LSLS     r1,r1,#7
        0x0000d8f8:    d5fc        ..      BPL      0xd8f4 ; am_hal_itm_enable + 16
        0x0000d8fa:    f6406000    @..`    MOVW     r0,#0xe00
        0x0000d8fe:    f64c6155    L.Ua    MOV      r1,#0xce55
        0x0000d902:    f2ce0000    ....    MOVT     r0,#0xe000
        0x0000d906:    f2cc51ac    ...Q    MOVT     r1,#0xc5ac
        0x0000d90a:    f8c011b0    ....    STR      r1,[r0,#0x1b0]
        0x0000d90e:    210f        .!      MOVS     r1,#0xf
        0x0000d910:    6401        .d      STR      r1,[r0,#0x40]
        0x0000d912:    f04f31ff    O..1    MOV      r1,#0xffffffff
        0x0000d916:    6001        .`      STR      r1,[r0,#0]
        0x0000d918:    f2405111    @..Q    MOV      r1,#0x511
        0x0000d91c:    f2c00115    ....    MOVT     r1,#0x15
        0x0000d920:    f8c01080    ....    STR      r1,[r0,#0x80]
        0x0000d924:    4770        pG      BX       lr
        0x0000d926:    0000        ..      MOVS     r0,r0
    am_hal_itm_print
        0x0000d928:    2100        .!      MOVS     r1,#0
        0x0000d92a:    bf00        ..      NOP      
        0x0000d92c:    5c42        B\      LDRB     r2,[r0,r1]
        0x0000d92e:    3101        .1      ADDS     r1,#1
        0x0000d930:    2a00        .*      CMP      r2,#0
        0x0000d932:    d1fb        ..      BNE      0xd92c ; am_hal_itm_print + 4
        0x0000d934:    3901        .9      SUBS     r1,#1
        0x0000d936:    bf08        ..      IT       EQ
        0x0000d938:    4770        pG      BXEQ     lr
        0x0000d93a:    f04f4260    O.`B    MOV      r2,#0xe0000000
        0x0000d93e:    bf00        ..      NOP      
        0x0000d940:    f890c000    ....    LDRB     r12,[r0,#0]
        0x0000d944:    6813        .h      LDR      r3,[r2,#0]
        0x0000d946:    2b00        .+      CMP      r3,#0
        0x0000d948:    d0fc        ..      BEQ      0xd944 ; am_hal_itm_print + 28
        0x0000d94a:    3001        .0      ADDS     r0,#1
        0x0000d94c:    3901        .9      SUBS     r1,#1
        0x0000d94e:    f882c000    ....    STRB     r12,[r2,#0]
        0x0000d952:    d1f5        ..      BNE      0xd940 ; am_hal_itm_print + 24
        0x0000d954:    4770        pG      BX       lr
    am_hal_pwrctrl_blebuck_trim
        0x0000d956:    b510        ..      PUSH     {r4,lr}
        0x0000d958:    b082        ..      SUB      sp,sp,#8
        0x0000d95a:    f2403468    @.h4    MOVW     r4,#0x368
        0x0000d95e:    f64f40a4    O..@    MOV      r0,#0xfca4
        0x0000d962:    f2c40402    ....    MOVT     r4,#0x4002
        0x0000d966:    f6cf70ff    ...p    MOVT     r0,#0xffff
        0x0000d96a:    5820         X      LDR      r0,[r4,r0]
        0x0000d96c:    f00000fe    ....    AND      r0,r0,#0xfe
        0x0000d970:    2812        .(      CMP      r0,#0x12
        0x0000d972:    d317        ..      BCC      0xd9a4 ; am_hal_pwrctrl_blebuck_trim + 78
        0x0000d974:    f7fffc16    ....    BL       am_hal_interrupt_master_disable ; 0xd1a4
        0x0000d978:    9001        ..      STR      r0,[sp,#4]
        0x0000d97a:    6820         h      LDR      r0,[r4,#0]
        0x0000d97c:    2119        .!      MOVS     r1,#0x19
        0x0000d97e:    f361108b    a...    BFI      r0,r1,#6,#6
        0x0000d982:    6020         `      STR      r0,[r4,#0]
        0x0000d984:    6820         h      LDR      r0,[r4,#0]
        0x0000d986:    210c        .!      MOVS     r1,#0xc
        0x0000d988:    f3610005    a...    BFI      r0,r1,#0,#6
        0x0000d98c:    6020         `      STR      r0,[r4,#0]
        0x0000d98e:    f244003c    D.<.    MOV      r0,#0x403c
        0x0000d992:    f2c40000    ....    MOVT     r0,#0x4000
        0x0000d996:    6801        .h      LDR      r1,[r0,#0]
        0x0000d998:    f4210180    !...    BIC      r1,r1,#0x400000
        0x0000d99c:    6001        .`      STR      r1,[r0,#0]
        0x0000d99e:    9801        ..      LDR      r0,[sp,#4]
        0x0000d9a0:    f7fffc08    ....    BL       am_hal_interrupt_master_set ; 0xd1b4
        0x0000d9a4:    b002        ..      ADD      sp,sp,#8
        0x0000d9a6:    bd10        ..      POP      {r4,pc}
    am_hal_pwrctrl_bleif_workaround
        0x0000d9a8:    f6430138    C.8.    MOV      r1,#0x3838
        0x0000d9ac:    f2c50102    ....    MOVT     r1,#0x5002
        0x0000d9b0:    460a        .F      MOV      r2,r1
        0x0000d9b2:    f8520b38    R.8.    LDR      r0,[r2],#0x38
        0x0000d9b6:    f0100008    ....    ANDS     r0,r0,#8
        0x0000d9ba:    f2400088    @...    MOVW     r0,#0x88
        0x0000d9be:    f2c40002    ....    MOVT     r0,#0x4002
        0x0000d9c2:    4603        .F      MOV      r3,r0
        0x0000d9c4:    bf08        ..      IT       EQ
        0x0000d9c6:    f1010334    ..4.    ADDEQ    r3,r1,#0x34
        0x0000d9ca:    6819        .h      LDR      r1,[r3,#0]
        0x0000d9cc:    bf18        ..      IT       NE
        0x0000d9ce:    f5007232    ..2r    ADDNE    r2,r0,#0x2c8
        0x0000d9d2:    6803        .h      LDR      r3,[r0,#0]
        0x0000d9d4:    f001013f    ..?.    AND      r1,r1,#0x3f
        0x0000d9d8:    f023033f    #.?.    BIC      r3,r3,#0x3f
        0x0000d9dc:    293c        <)      CMP      r1,#0x3c
        0x0000d9de:    bf28        (.      IT       CS
        0x0000d9e0:    213c        <!      MOVCS    r1,#0x3c
        0x0000d9e2:    6003        .`      STR      r3,[r0,#0]
        0x0000d9e4:    6803        .h      LDR      r3,[r0,#0]
        0x0000d9e6:    3103        .1      ADDS     r1,#3
        0x0000d9e8:    4319        .C      ORRS     r1,r1,r3
        0x0000d9ea:    6001        .`      STR      r1,[r0,#0]
        0x0000d9ec:    6811        .h      LDR      r1,[r2,#0]
        0x0000d9ee:    f8d022c8    ..."    LDR      r2,[r0,#0x2c8]
        0x0000d9f2:    f3c14105    ...A    UBFX     r1,r1,#16,#6
        0x0000d9f6:    f422127c    ".|.    BIC      r2,r2,#0x3f0000
        0x0000d9fa:    293a        :)      CMP      r1,#0x3a
        0x0000d9fc:    bf28        (.      IT       CS
        0x0000d9fe:    213a        :!      MOVCS    r1,#0x3a
        0x0000da00:    f8c022c8    ..."    STR      r2,[r0,#0x2c8]
        0x0000da04:    f44f22a0    O.."    MOV      r2,#0x50000
        0x0000da08:    eb024101    ...A    ADD      r1,r2,r1,LSL #16
        0x0000da0c:    f8d022c8    ..."    LDR      r2,[r0,#0x2c8]
        0x0000da10:    f401117c    ..|.    AND      r1,r1,#0x3f0000
        0x0000da14:    4311        .C      ORRS     r1,r1,r2
        0x0000da16:    f8c012c8    ....    STR      r1,[r0,#0x2c8]
        0x0000da1a:    4770        pG      BX       lr
    am_hal_pwrctrl_ldo_vddx_active_trim_adj_default
        0x0000da1c:    b5b0        ..      PUSH     {r4,r5,r7,lr}
        0x0000da1e:    b082        ..      SUB      sp,sp,#8
        0x0000da20:    460c        .F      MOV      r4,r1
        0x0000da22:    4605        .F      MOV      r5,r0
        0x0000da24:    f7fffbbe    ....    BL       am_hal_interrupt_master_disable ; 0xd1a4
        0x0000da28:    2d01        .-      CMP      r5,#1
        0x0000da2a:    9001        ..      STR      r0,[sp,#4]
        0x0000da2c:    d00b        ..      BEQ      0xda46 ; am_hal_pwrctrl_ldo_vddx_active_trim_adj_default + 42
        0x0000da2e:    b9ad        ..      CBNZ     r5,0xda5c ; am_hal_pwrctrl_ldo_vddx_active_trim_adj_default + 64
        0x0000da30:    f7fefd14    ....    BL       am_hal_burst_ldo_patch_check ; 0xc45c
        0x0000da34:    b1a0        ..      CBZ      r0,0xda60 ; am_hal_pwrctrl_ldo_vddx_active_trim_adj_default + 68
        0x0000da36:    f6430068    C.h.    MOV      r0,#0x3868
        0x0000da3a:    f2c50002    ....    MOVT     r0,#0x5002
        0x0000da3e:    6800        .h      LDR      r0,[r0,#0]
        0x0000da40:    f36f209f    o..     BFC      r0,#10,#22
        0x0000da44:    e00d        ..      B        0xda62 ; am_hal_pwrctrl_ldo_vddx_active_trim_adj_default + 70
        0x0000da46:    f7fefd09    ....    BL       am_hal_burst_ldo_patch_check ; 0xc45c
        0x0000da4a:    b300        ..      CBZ      r0,0xda8e ; am_hal_pwrctrl_ldo_vddx_active_trim_adj_default + 114
        0x0000da4c:    f6430068    C.h.    MOV      r0,#0x3868
        0x0000da50:    f2c50002    ....    MOVT     r0,#0x5002
        0x0000da54:    6840        @h      LDR      r0,[r0,#4]
        0x0000da56:    f000003f    ..?.    AND      r0,r0,#0x3f
        0x0000da5a:    e019        ..      B        0xda90 ; am_hal_pwrctrl_ldo_vddx_active_trim_adj_default + 116
        0x0000da5c:    2400        .$      MOVS     r4,#0
        0x0000da5e:    e029        ).      B        0xdab4 ; am_hal_pwrctrl_ldo_vddx_active_trim_adj_default + 152
        0x0000da60:    2000        .       MOVS     r0,#0
        0x0000da62:    1901        ..      ADDS     r1,r0,r4
        0x0000da64:    f24032ff    @..2    MOV      r2,#0x3ff
        0x0000da68:    4291        .B      CMP      r1,r2
        0x0000da6a:    f24033ff    @..3    MOV      r3,#0x3ff
        0x0000da6e:    bf38        8.      IT       CC
        0x0000da70:    460b        .F      MOVCC    r3,r1
        0x0000da72:    2900        .)      CMP      r1,#0
        0x0000da74:    f2400180    @...    MOVW     r1,#0x80
        0x0000da78:    f2c40102    ....    MOVT     r1,#0x4002
        0x0000da7c:    bf48        H.      IT       MI
        0x0000da7e:    2300        .#      MOVMI    r3,#0
        0x0000da80:    680d        .h      LDR      r5,[r1,#0]
        0x0000da82:    1a1c        ..      SUBS     r4,r3,r0
        0x0000da84:    ea250002    %...    BIC      r0,r5,r2
        0x0000da88:    4318        .C      ORRS     r0,r0,r3
        0x0000da8a:    6008        .`      STR      r0,[r1,#0]
        0x0000da8c:    e012        ..      B        0xdab4 ; am_hal_pwrctrl_ldo_vddx_active_trim_adj_default + 152
        0x0000da8e:    2000        .       MOVS     r0,#0
        0x0000da90:    1901        ..      ADDS     r1,r0,r4
        0x0000da92:    293f        ?)      CMP      r1,#0x3f
        0x0000da94:    460a        .F      MOV      r2,r1
        0x0000da96:    bf28        (.      IT       CS
        0x0000da98:    223f        ?"      MOVCS    r2,#0x3f
        0x0000da9a:    2900        .)      CMP      r1,#0
        0x0000da9c:    f2400180    @...    MOVW     r1,#0x80
        0x0000daa0:    f2c40102    ....    MOVT     r1,#0x4002
        0x0000daa4:    bf48        H.      IT       MI
        0x0000daa6:    2200        ."      MOVMI    r2,#0
        0x0000daa8:    688b        .h      LDR      r3,[r1,#8]
        0x0000daaa:    1a14        ..      SUBS     r4,r2,r0
        0x0000daac:    f023003f    #.?.    BIC      r0,r3,#0x3f
        0x0000dab0:    4310        .C      ORRS     r0,r0,r2
        0x0000dab2:    6088        .`      STR      r0,[r1,#8]
        0x0000dab4:    f44f70a0    O..p    MOV      r0,#0x140
        0x0000dab8:    f7fff9bb    ....    BL       am_hal_flash_delay ; 0xce32
        0x0000dabc:    9801        ..      LDR      r0,[sp,#4]
        0x0000dabe:    f7fffb79    ..y.    BL       am_hal_interrupt_master_set ; 0xd1b4
        0x0000dac2:    4620         F      MOV      r0,r4
        0x0000dac4:    b002        ..      ADD      sp,sp,#8
        0x0000dac6:    bdb0        ..      POP      {r4,r5,r7,pc}
    am_hal_pwrctrl_low_power_init
        0x0000dac8:    b5b0        ..      PUSH     {r4,r5,r7,lr}
        0x0000daca:    b082        ..      SUB      sp,sp,#8
        0x0000dacc:    f24100e0    A...    MOVW     r0,#0x10e0
        0x0000dad0:    f2c10001    ....    MOVT     r0,#0x1001
        0x0000dad4:    6801        .h      LDR      r1,[r0,#0]
        0x0000dad6:    b929        ).      CBNZ     r1,0xdae4 ; am_hal_pwrctrl_low_power_init + 28
        0x0000dad8:    f24f0100    O...    MOVW     r1,#0xf000
        0x0000dadc:    f6c471ff    ...q    MOVT     r1,#0x4fff
        0x0000dae0:    6809        .h      LDR      r1,[r1,#0]
        0x0000dae2:    6001        .`      STR      r1,[r0,#0]
        0x0000dae4:    f2403450    @.P4    MOVW     r4,#0x350
        0x0000dae8:    f64f45bc    O..E    MOV      r5,#0xfcbc
        0x0000daec:    f2c40402    ....    MOVT     r4,#0x4002
        0x0000daf0:    f6cf75ff    ...u    MOVT     r5,#0xffff
        0x0000daf4:    5960        `Y      LDR      r0,[r4,r5]
        0x0000daf6:    b2c0        ..      UXTB     r0,r0
        0x0000daf8:    2821        !(      CMP      r0,#0x21
        0x0000dafa:    d34f        O.      BCC      0xdb9c ; am_hal_pwrctrl_low_power_init + 212
        0x0000dafc:    f24110a4    A...    MOV      r0,#0x11a4
        0x0000db00:    f2c10001    ....    MOVT     r0,#0x1001
        0x0000db04:    7801        .x      LDRB     r1,[r0,#0]
        0x0000db06:    2900        .)      CMP      r1,#0
        0x0000db08:    d13e        >.      BNE      0xdb88 ; am_hal_pwrctrl_low_power_init + 192
        0x0000db0a:    2101        .!      MOVS     r1,#1
        0x0000db0c:    7001        .p      STRB     r1,[r0,#0]
        0x0000db0e:    6820         h      LDR      r0,[r4,#0]
        0x0000db10:    6822        "h      LDR      r2,[r4,#0]
        0x0000db12:    f3c05085    ...P    UBFX     r0,r0,#22,#6
        0x0000db16:    380c        .8      SUBS     r0,r0,#0xc
        0x0000db18:    f04f0100    O...    MOV      r1,#0
        0x0000db1c:    bf38        8.      IT       CC
        0x0000db1e:    4608        .F      MOVCC    r0,r1
        0x0000db20:    f022627c    ".|b    BIC      r2,r2,#0xfc00000
        0x0000db24:    ea425080    B..P    ORR      r0,r2,r0,LSL #22
        0x0000db28:    6020         `      STR      r0,[r4,#0]
        0x0000db2a:    6820         h      LDR      r0,[r4,#0]
        0x0000db2c:    6822        "h      LDR      r2,[r4,#0]
        0x0000db2e:    f3c02085    ...     UBFX     r0,r0,#10,#6
        0x0000db32:    380d        .8      SUBS     r0,r0,#0xd
        0x0000db34:    bf38        8.      IT       CC
        0x0000db36:    4608        .F      MOVCC    r0,r1
        0x0000db38:    f422417c    ".|A    BIC      r1,r2,#0xfc00
        0x0000db3c:    ea412080    A..     ORR      r0,r1,r0,LSL #10
        0x0000db40:    6020         `      STR      r0,[r4,#0]
        0x0000db42:    6860        `h      LDR      r0,[r4,#4]
        0x0000db44:    2108        .!      MOVS     r1,#8
        0x0000db46:    f3615017    a..P    BFI      r0,r1,#20,#4
        0x0000db4a:    6060        ``      STR      r0,[r4,#4]
        0x0000db4c:    6860        `h      LDR      r0,[r4,#4]
        0x0000db4e:    2205        ."      MOVS     r2,#5
        0x0000db50:    f3624013    b..@    BFI      r0,r2,#16,#4
        0x0000db54:    6060        ``      STR      r0,[r4,#4]
        0x0000db56:    68e0        .h      LDR      r0,[r4,#0xc]
        0x0000db58:    f3610003    a...    BFI      r0,r1,#0,#4
        0x0000db5c:    60e0        .`      STR      r0,[r4,#0xc]
        0x0000db5e:    68a0        .h      LDR      r0,[r4,#8]
        0x0000db60:    2106        .!      MOVS     r1,#6
        0x0000db62:    f36160de    a..`    BFI      r0,r1,#27,#4
        0x0000db66:    60a0        .`      STR      r0,[r4,#8]
        0x0000db68:    68e0        .h      LDR      r0,[r4,#0xc]
        0x0000db6a:    f4400000    @...    ORR      r0,r0,#0x800000
        0x0000db6e:    60e0        .`      STR      r0,[r4,#0xc]
        0x0000db70:    68e0        .h      LDR      r0,[r4,#0xc]
        0x0000db72:    f0207080     ..p    BIC      r0,r0,#0x1000000
        0x0000db76:    60e0        .`      STR      r0,[r4,#0xc]
        0x0000db78:    6860        `h      LDR      r0,[r4,#4]
        0x0000db7a:    f0405040    @.@P    ORR      r0,r0,#0x30000000
        0x0000db7e:    6060        ``      STR      r0,[r4,#4]
        0x0000db80:    6860        `h      LDR      r0,[r4,#4]
        0x0000db82:    f040001f    @...    ORR      r0,r0,#0x1f
        0x0000db86:    6060        ``      STR      r0,[r4,#4]
        0x0000db88:    f24110a6    A...    MOV      r0,#0x11a6
        0x0000db8c:    f2c10001    ....    MOVT     r0,#0x1001
        0x0000db90:    7801        .x      LDRB     r1,[r0,#0]
        0x0000db92:    b919        ..      CBNZ     r1,0xdb9c ; am_hal_pwrctrl_low_power_init + 212
        0x0000db94:    2101        .!      MOVS     r1,#1
        0x0000db96:    7001        .p      STRB     r1,[r0,#0]
        0x0000db98:    f7ffff06    ....    BL       am_hal_pwrctrl_bleif_workaround ; 0xd9a8
        0x0000db9c:    5960        `Y      LDR      r0,[r4,r5]
        0x0000db9e:    f00000fe    ....    AND      r0,r0,#0xfe
        0x0000dba2:    2812        .(      CMP      r0,#0x12
        0x0000dba4:    d303        ..      BCC      0xdbae ; am_hal_pwrctrl_low_power_init + 230
        0x0000dba6:    68e0        .h      LDR      r0,[r4,#0xc]
        0x0000dba8:    f0207080     ..p    BIC      r0,r0,#0x1000000
        0x0000dbac:    60e0        .`      STR      r0,[r4,#0xc]
        0x0000dbae:    f2410500    A...    MOVW     r5,#0x1000
        0x0000dbb2:    200c        .       MOVS     r0,#0xc
        0x0000dbb4:    2100        .!      MOVS     r1,#0
        0x0000dbb6:    f2c40502    ....    MOVT     r5,#0x4002
        0x0000dbba:    f7fefdbd    ....    BL       am_hal_cachectrl_control ; 0xc738
        0x0000dbbe:    69a8        .i      LDR      r0,[r5,#0x18]
        0x0000dbc0:    05c0        ..      LSLS     r0,r0,#23
        0x0000dbc2:    d41e        ..      BMI      0xdc02 ; am_hal_pwrctrl_low_power_init + 314
        0x0000dbc4:    f7fffec7    ....    BL       am_hal_pwrctrl_blebuck_trim ; 0xd956
        0x0000dbc8:    f64f40c8    O..@    MOV      r0,#0xfcc8
        0x0000dbcc:    f6cf70ff    ...p    MOVT     r0,#0xffff
        0x0000dbd0:    5822        "X      LDR      r2,[r4,r0]
        0x0000dbd2:    f5a4714e    ..Nq    SUB      r1,r4,#0x338
        0x0000dbd6:    f0420201    B...    ORR      r2,r2,#1
        0x0000dbda:    5022        "P      STR      r2,[r4,r0]
        0x0000dbdc:    2401        .$      MOVS     r4,#1
        0x0000dbde:    f2427010    B..p    MOV      r0,#0x2710
        0x0000dbe2:    2207        ."      MOVS     r2,#7
        0x0000dbe4:    2307        .#      MOVS     r3,#7
        0x0000dbe6:    9400        ..      STR      r4,[sp,#0]
        0x0000dbe8:    f7fff938    ..8.    BL       am_hal_flash_delay_status_check ; 0xce5c
        0x0000dbec:    b108        ..      CBZ      r0,0xdbf2 ; am_hal_pwrctrl_low_power_init + 298
        0x0000dbee:    2004        .       MOVS     r0,#4
        0x0000dbf0:    e00a        ..      B        0xdc08 ; am_hal_pwrctrl_low_power_init + 320
        0x0000dbf2:    6828        (h      LDR      r0,[r5,#0]
        0x0000dbf4:    f0400001    @...    ORR      r0,r0,#1
        0x0000dbf8:    6028        (`      STR      r0,[r5,#0]
        0x0000dbfa:    6a68        hj      LDR      r0,[r5,#0x24]
        0x0000dbfc:    f0400040    @.@.    ORR      r0,r0,#0x40
        0x0000dc00:    6268        hb      STR      r0,[r5,#0x24]
        0x0000dc02:    f7fefbd5    ....    BL       am_hal_burst_ldo_charge ; 0xc3b0
        0x0000dc06:    2000        .       MOVS     r0,#0
        0x0000dc08:    b002        ..      ADD      sp,sp,#8
        0x0000dc0a:    bdb0        ..      POP      {r4,r5,r7,pc}
    am_hal_pwrctrl_periph_disable
        0x0000dc0c:    b5f0        ..      PUSH     {r4-r7,lr}
        0x0000dc0e:    b081        ..      SUB      sp,sp,#4
        0x0000dc10:    f2410508    A...    MOV      r5,#0x1008
        0x0000dc14:    4604        .F      MOV      r4,r0
        0x0000dc16:    f2c40502    ....    MOVT     r5,#0x4002
        0x0000dc1a:    f7fffac3    ....    BL       am_hal_interrupt_master_disable ; 0xd1a4
        0x0000dc1e:    f24f41d4    O..A    MOV      r1,#0xf4d4
        0x0000dc22:    9000        ..      STR      r0,[sp,#0]
        0x0000dc24:    eb040044    ..D.    ADD      r0,r4,r4,LSL #1
        0x0000dc28:    f2c00100    ....    MOVT     r1,#0
        0x0000dc2c:    eb010680    ....    ADD      r6,r1,r0,LSL #2
        0x0000dc30:    f8564b04    V..K    LDR      r4,[r6],#4
        0x0000dc34:    6828        (h      LDR      r0,[r5,#0]
        0x0000dc36:    43a0        .C      BICS     r0,r0,r4
        0x0000dc38:    6028        (`      STR      r0,[r5,#0]
        0x0000dc3a:    9800        ..      LDR      r0,[sp,#0]
        0x0000dc3c:    f7fffaba    ....    BL       am_hal_interrupt_master_set ; 0xd1b4
        0x0000dc40:    6836        6h      LDR      r6,[r6,#0]
        0x0000dc42:    2700        .'      MOVS     r7,#0
        0x0000dc44:    20a0        .       MOVS     r0,#0xa0
        0x0000dc46:    f7fff8f4    ....    BL       am_hal_flash_delay ; 0xce32
        0x0000dc4a:    6928        (i      LDR      r0,[r5,#0x10]
        0x0000dc4c:    4206        .B      TST      r6,r0
        0x0000dc4e:    d003        ..      BEQ      0xdc58 ; am_hal_pwrctrl_periph_disable + 76
        0x0000dc50:    2f0a        ./      CMP      r7,#0xa
        0x0000dc52:    f107070a    ....    ADD      r7,r7,#0xa
        0x0000dc56:    d3f5        ..      BCC      0xdc44 ; am_hal_pwrctrl_periph_disable + 56
        0x0000dc58:    6928        (i      LDR      r0,[r5,#0x10]
        0x0000dc5a:    4206        .B      TST      r6,r0
        0x0000dc5c:    d00d        ..      BEQ      0xdc7a ; am_hal_pwrctrl_periph_disable + 110
        0x0000dc5e:    6829        )h      LDR      r1,[r5,#0]
        0x0000dc60:    2e0f        ..      CMP      r6,#0xf
        0x0000dc62:    f04f0001    O...    MOV      r0,#1
        0x0000dc66:    dc0a        ..      BGT      0xdc7e ; am_hal_pwrctrl_periph_disable + 114
        0x0000dc68:    2e04        ..      CMP      r6,#4
        0x0000dc6a:    d015        ..      BEQ      0xdc98 ; am_hal_pwrctrl_periph_disable + 140
        0x0000dc6c:    2e08        ..      CMP      r6,#8
        0x0000dc6e:    d111        ..      BNE      0xdc94 ; am_hal_pwrctrl_periph_disable + 136
        0x0000dc70:    f0110f0e    ....    TST      r1,#0xe
        0x0000dc74:    d10a        ..      BNE      0xdc8c ; am_hal_pwrctrl_periph_disable + 128
        0x0000dc76:    2001        .       MOVS     r0,#1
        0x0000dc78:    e00c        ..      B        0xdc94 ; am_hal_pwrctrl_periph_disable + 136
        0x0000dc7a:    2000        .       MOVS     r0,#0
        0x0000dc7c:    e00a        ..      B        0xdc94 ; am_hal_pwrctrl_periph_disable + 136
        0x0000dc7e:    2e10        ..      CMP      r6,#0x10
        0x0000dc80:    d00f        ..      BEQ      0xdca2 ; am_hal_pwrctrl_periph_disable + 150
        0x0000dc82:    2e40        @.      CMP      r6,#0x40
        0x0000dc84:    d106        ..      BNE      0xdc94 ; am_hal_pwrctrl_periph_disable + 136
        0x0000dc86:    f4115f60    ..`_    TST      r1,#0x3800
        0x0000dc8a:    d0f4        ..      BEQ      0xdc76 ; am_hal_pwrctrl_periph_disable + 106
        0x0000dc8c:    ea140001    ....    ANDS     r0,r4,r1
        0x0000dc90:    bf18        ..      IT       NE
        0x0000dc92:    2001        .       MOVNE    r0,#1
        0x0000dc94:    b001        ..      ADD      sp,sp,#4
        0x0000dc96:    bdf0        ..      POP      {r4-r7,pc}
        0x0000dc98:    f2405081    @..P    MOV      r0,#0x581
        0x0000dc9c:    4201        .B      TST      r1,r0
        0x0000dc9e:    d1f5        ..      BNE      0xdc8c ; am_hal_pwrctrl_periph_disable + 128
        0x0000dca0:    e7e9        ..      B        0xdc76 ; am_hal_pwrctrl_periph_disable + 106
        0x0000dca2:    f0110f70    ..p.    TST      r1,#0x70
        0x0000dca6:    d1f1        ..      BNE      0xdc8c ; am_hal_pwrctrl_periph_disable + 128
        0x0000dca8:    e7e5        ..      B        0xdc76 ; am_hal_pwrctrl_periph_disable + 106
        0x0000dcaa:    0000        ..      MOVS     r0,r0
    am_hal_pwrctrl_periph_enable
        0x0000dcac:    b5f0        ..      PUSH     {r4-r7,lr}
        0x0000dcae:    b083        ..      SUB      sp,sp,#0xc
        0x0000dcb0:    f2410508    A...    MOV      r5,#0x1008
        0x0000dcb4:    4604        .F      MOV      r4,r0
        0x0000dcb6:    f2c40502    ....    MOVT     r5,#0x4002
        0x0000dcba:    f7fffa73    ..s.    BL       am_hal_interrupt_master_disable ; 0xd1a4
        0x0000dcbe:    f24f41d4    O..A    MOV      r1,#0xf4d4
        0x0000dcc2:    9002        ..      STR      r0,[sp,#8]
        0x0000dcc4:    eb040044    ..D.    ADD      r0,r4,r4,LSL #1
        0x0000dcc8:    f2c00100    ....    MOVT     r1,#0
        0x0000dccc:    eb010680    ....    ADD      r6,r1,r0,LSL #2
        0x0000dcd0:    f8564b04    V..K    LDR      r4,[r6],#4
        0x0000dcd4:    6828        (h      LDR      r0,[r5,#0]
        0x0000dcd6:    4320         C      ORRS     r0,r0,r4
        0x0000dcd8:    6028        (`      STR      r0,[r5,#0]
        0x0000dcda:    9802        ..      LDR      r0,[sp,#8]
        0x0000dcdc:    f7fffa6a    ..j.    BL       am_hal_interrupt_master_set ; 0xd1b4
        0x0000dce0:    6836        6h      LDR      r6,[r6,#0]
        0x0000dce2:    2700        .'      MOVS     r7,#0
        0x0000dce4:    20a0        .       MOVS     r0,#0xa0
        0x0000dce6:    f7fff8a4    ....    BL       am_hal_flash_delay ; 0xce32
        0x0000dcea:    6928        (i      LDR      r0,[r5,#0x10]
        0x0000dcec:    4206        .B      TST      r6,r0
        0x0000dcee:    d103        ..      BNE      0xdcf8 ; am_hal_pwrctrl_periph_enable + 76
        0x0000dcf0:    2f0a        ./      CMP      r7,#0xa
        0x0000dcf2:    f107070a    ....    ADD      r7,r7,#0xa
        0x0000dcf6:    d3f5        ..      BCC      0xdce4 ; am_hal_pwrctrl_periph_enable + 56
        0x0000dcf8:    6928        (i      LDR      r0,[r5,#0x10]
        0x0000dcfa:    4206        .B      TST      r6,r0
        0x0000dcfc:    d001        ..      BEQ      0xdd02 ; am_hal_pwrctrl_periph_enable + 86
        0x0000dcfe:    2000        .       MOVS     r0,#0
        0x0000dd00:    e009        ..      B        0xdd16 ; am_hal_pwrctrl_periph_enable + 106
        0x0000dd02:    f7fffa4f    ..O.    BL       am_hal_interrupt_master_disable ; 0xd1a4
        0x0000dd06:    9001        ..      STR      r0,[sp,#4]
        0x0000dd08:    6828        (h      LDR      r0,[r5,#0]
        0x0000dd0a:    43a0        .C      BICS     r0,r0,r4
        0x0000dd0c:    6028        (`      STR      r0,[r5,#0]
        0x0000dd0e:    9801        ..      LDR      r0,[sp,#4]
        0x0000dd10:    f7fffa50    ..P.    BL       am_hal_interrupt_master_set ; 0xd1b4
        0x0000dd14:    2001        .       MOVS     r0,#1
        0x0000dd16:    b003        ..      ADD      sp,sp,#0xc
        0x0000dd18:    bdf0        ..      POP      {r4-r7,pc}
    am_hal_pwrctrl_simobuck_vddx_active_trim_adj_default
        0x0000dd1a:    b570        p.      PUSH     {r4-r6,lr}
        0x0000dd1c:    b082        ..      SUB      sp,sp,#8
        0x0000dd1e:    460c        .F      MOV      r4,r1
        0x0000dd20:    4605        .F      MOV      r5,r0
        0x0000dd22:    f7fefb9b    ....    BL       am_hal_burst_ldo_patch_check ; 0xc45c
        0x0000dd26:    b1a0        ..      CBZ      r0,0xdd52 ; am_hal_pwrctrl_simobuck_vddx_active_trim_adj_default + 56
        0x0000dd28:    f2403650    @.P6    MOVW     r6,#0x350
        0x0000dd2c:    f2c40602    ....    MOVT     r6,#0x4002
        0x0000dd30:    f7fffa38    ..8.    BL       am_hal_interrupt_master_disable ; 0xd1a4
        0x0000dd34:    2d01        .-      CMP      r5,#1
        0x0000dd36:    9001        ..      STR      r0,[sp,#4]
        0x0000dd38:    d00d        ..      BEQ      0xdd56 ; am_hal_pwrctrl_simobuck_vddx_active_trim_adj_default + 60
        0x0000dd3a:    b9bd        ..      CBNZ     r5,0xdd6c ; am_hal_pwrctrl_simobuck_vddx_active_trim_adj_default + 82
        0x0000dd3c:    f7fefb8e    ....    BL       am_hal_burst_ldo_patch_check ; 0xc45c
        0x0000dd40:    b1b0        ..      CBZ      r0,0xdd70 ; am_hal_pwrctrl_simobuck_vddx_active_trim_adj_default + 86
        0x0000dd42:    f6430070    C.p.    MOV      r0,#0x3870
        0x0000dd46:    f2c50002    ....    MOVT     r0,#0x5002
        0x0000dd4a:    6801        .h      LDR      r1,[r0,#0]
        0x0000dd4c:    f36f219f    o..!    BFC      r1,#10,#22
        0x0000dd50:    e00f        ..      B        0xdd72 ; am_hal_pwrctrl_simobuck_vddx_active_trim_adj_default + 88
        0x0000dd52:    2400        .$      MOVS     r4,#0
        0x0000dd54:    e034        4.      B        0xddc0 ; am_hal_pwrctrl_simobuck_vddx_active_trim_adj_default + 166
        0x0000dd56:    f7fefb81    ....    BL       am_hal_burst_ldo_patch_check ; 0xc45c
        0x0000dd5a:    b1d0        ..      CBZ      r0,0xdd92 ; am_hal_pwrctrl_simobuck_vddx_active_trim_adj_default + 120
        0x0000dd5c:    f6430070    C.p.    MOV      r0,#0x3870
        0x0000dd60:    f2c50002    ....    MOVT     r0,#0x5002
        0x0000dd64:    6800        .h      LDR      r0,[r0,#0]
        0x0000dd66:    f3c04005    ...@    UBFX     r0,r0,#16,#6
        0x0000dd6a:    e013        ..      B        0xdd94 ; am_hal_pwrctrl_simobuck_vddx_active_trim_adj_default + 122
        0x0000dd6c:    2400        .$      MOVS     r4,#0
        0x0000dd6e:    e020         .      B        0xddb2 ; am_hal_pwrctrl_simobuck_vddx_active_trim_adj_default + 152
        0x0000dd70:    2100        .!      MOVS     r1,#0
        0x0000dd72:    190a        ..      ADDS     r2,r1,r4
        0x0000dd74:    f24033ff    @..3    MOV      r3,#0x3ff
        0x0000dd78:    f24030ff    @..0    MOV      r0,#0x3ff
        0x0000dd7c:    429a        .B      CMP      r2,r3
        0x0000dd7e:    bf38        8.      IT       CC
        0x0000dd80:    4610        .F      MOVCC    r0,r2
        0x0000dd82:    2a00        .*      CMP      r2,#0
        0x0000dd84:    bf48        H.      IT       MI
        0x0000dd86:    2000        .       MOVMI    r0,#0
        0x0000dd88:    6832        2h      LDR      r2,[r6,#0]
        0x0000dd8a:    1a44        D.      SUBS     r4,r0,r1
        0x0000dd8c:    ea220103    "...    BIC      r1,r2,r3
        0x0000dd90:    e00d        ..      B        0xddae ; am_hal_pwrctrl_simobuck_vddx_active_trim_adj_default + 148
        0x0000dd92:    2000        .       MOVS     r0,#0
        0x0000dd94:    1901        ..      ADDS     r1,r0,r4
        0x0000dd96:    460a        .F      MOV      r2,r1
        0x0000dd98:    293f        ?)      CMP      r1,#0x3f
        0x0000dd9a:    bf28        (.      IT       CS
        0x0000dd9c:    223f        ?"      MOVCS    r2,#0x3f
        0x0000dd9e:    2900        .)      CMP      r1,#0
        0x0000dda0:    bf48        H.      IT       MI
        0x0000dda2:    2200        ."      MOVMI    r2,#0
        0x0000dda4:    6831        1h      LDR      r1,[r6,#0]
        0x0000dda6:    1a14        ..      SUBS     r4,r2,r0
        0x0000dda8:    0410        ..      LSLS     r0,r2,#16
        0x0000ddaa:    f421117c    !.|.    BIC      r1,r1,#0x3f0000
        0x0000ddae:    4308        .C      ORRS     r0,r0,r1
        0x0000ddb0:    6030        0`      STR      r0,[r6,#0]
        0x0000ddb2:    f44f70a0    O..p    MOV      r0,#0x140
        0x0000ddb6:    f7fff83c    ..<.    BL       am_hal_flash_delay ; 0xce32
        0x0000ddba:    9801        ..      LDR      r0,[sp,#4]
        0x0000ddbc:    f7fff9fa    ....    BL       am_hal_interrupt_master_set ; 0xd1b4
        0x0000ddc0:    4620         F      MOV      r0,r4
        0x0000ddc2:    b002        ..      ADD      sp,sp,#8
        0x0000ddc4:    bd70        p.      POP      {r4-r6,pc}
    am_hal_pwrctrl_wa_vddf_boost
        0x0000ddc6:    b580        ..      PUSH     {r7,lr}
        0x0000ddc8:    b082        ..      SUB      sp,sp,#8
        0x0000ddca:    f7fff9eb    ....    BL       am_hal_interrupt_master_disable ; 0xd1a4
        0x0000ddce:    9001        ..      STR      r0,[sp,#4]
        0x0000ddd0:    f2410024    A.$.    MOV      r0,#0x1024
        0x0000ddd4:    f2c40002    ....    MOVT     r0,#0x4002
        0x0000ddd8:    6800        .h      LDR      r0,[r0,#0]
        0x0000ddda:    07c0        ..      LSLS     r0,r0,#31
        0x0000dddc:    d104        ..      BNE      0xdde8 ; am_hal_pwrctrl_wa_vddf_boost + 34
        0x0000ddde:    2001        .       MOVS     r0,#1
        0x0000dde0:    2103        .!      MOVS     r1,#3
        0x0000dde2:    f7fffe1b    ....    BL       am_hal_pwrctrl_ldo_vddx_active_trim_adj_default ; 0xda1c
        0x0000dde6:    e003        ..      B        0xddf0 ; am_hal_pwrctrl_wa_vddf_boost + 42
        0x0000dde8:    2001        .       MOVS     r0,#1
        0x0000ddea:    2105        .!      MOVS     r1,#5
        0x0000ddec:    f7ffff95    ....    BL       am_hal_pwrctrl_simobuck_vddx_active_trim_adj_default ; 0xdd1a
        0x0000ddf0:    f44f70a0    O..p    MOV      r0,#0x140
        0x0000ddf4:    f7fff81d    ....    BL       am_hal_flash_delay ; 0xce32
        0x0000ddf8:    9801        ..      LDR      r0,[sp,#4]
        0x0000ddfa:    b002        ..      ADD      sp,sp,#8
        0x0000ddfc:    e8bd4080    ...@    POP      {r7,lr}
        0x0000de00:    f7ffb9d8    ....    B        am_hal_interrupt_master_set ; 0xd1b4
    am_hal_pwrctrl_wa_vddf_restore
        0x0000de04:    b580        ..      PUSH     {r7,lr}
        0x0000de06:    b082        ..      SUB      sp,sp,#8
        0x0000de08:    f7fff9cc    ....    BL       am_hal_interrupt_master_disable ; 0xd1a4
        0x0000de0c:    9001        ..      STR      r0,[sp,#4]
        0x0000de0e:    f2410024    A.$.    MOV      r0,#0x1024
        0x0000de12:    f2c40002    ....    MOVT     r0,#0x4002
        0x0000de16:    6800        .h      LDR      r0,[r0,#0]
        0x0000de18:    07c0        ..      LSLS     r0,r0,#31
        0x0000de1a:    d104        ..      BNE      0xde26 ; am_hal_pwrctrl_wa_vddf_restore + 34
        0x0000de1c:    2001        .       MOVS     r0,#1
        0x0000de1e:    2100        .!      MOVS     r1,#0
        0x0000de20:    f7fffdfc    ....    BL       am_hal_pwrctrl_ldo_vddx_active_trim_adj_default ; 0xda1c
        0x0000de24:    e003        ..      B        0xde2e ; am_hal_pwrctrl_wa_vddf_restore + 42
        0x0000de26:    2001        .       MOVS     r0,#1
        0x0000de28:    2100        .!      MOVS     r1,#0
        0x0000de2a:    f7ffff76    ..v.    BL       am_hal_pwrctrl_simobuck_vddx_active_trim_adj_default ; 0xdd1a
        0x0000de2e:    f44f70a0    O..p    MOV      r0,#0x140
        0x0000de32:    f7fefffe    ....    BL       am_hal_flash_delay ; 0xce32
        0x0000de36:    9801        ..      LDR      r0,[sp,#4]
        0x0000de38:    b002        ..      ADD      sp,sp,#8
        0x0000de3a:    e8bd4080    ...@    POP      {r7,lr}
        0x0000de3e:    f7ffb9b9    ....    B        am_hal_interrupt_master_set ; 0xd1b4
    am_hal_rtc_osc_disable
        0x0000de42:    f2442050    D.P     MOV      r0,#0x4250
        0x0000de46:    f2c40000    ....    MOVT     r0,#0x4000
        0x0000de4a:    6801        .h      LDR      r1,[r0,#0]
        0x0000de4c:    f0410110    A...    ORR      r1,r1,#0x10
        0x0000de50:    6001        .`      STR      r1,[r0,#0]
        0x0000de52:    4770        pG      BX       lr
    am_hal_sysctrl_sleep
        0x0000de54:    b5b0        ..      PUSH     {r4,r5,r7,lr}
        0x0000de56:    b082        ..      SUB      sp,sp,#8
        0x0000de58:    4604        .F      MOV      r4,r0
        0x0000de5a:    f7fff9a3    ....    BL       am_hal_interrupt_master_disable ; 0xd1a4
        0x0000de5e:    9000        ..      STR      r0,[sp,#0]
        0x0000de60:    f241109c    A...    MOV      r0,#0x119c
        0x0000de64:    f2c10001    ....    MOVT     r0,#0x1001
        0x0000de68:    6801        .h      LDR      r1,[r0,#0]
        0x0000de6a:    3101        .1      ADDS     r1,#1
        0x0000de6c:    6001        .`      STR      r1,[r0,#0]
        0x0000de6e:    f2440034    D.4.    MOV      r0,#0x4034
        0x0000de72:    f2c40000    ....    MOVT     r0,#0x4000
        0x0000de76:    6800        .h      LDR      r0,[r0,#0]
        0x0000de78:    f0100504    ....    ANDS     r5,r0,#4
        0x0000de7c:    d00a        ..      BEQ      0xde94 ; am_hal_sysctrl_sleep + 64
        0x0000de7e:    f10d0007    ....    ADD      r0,sp,#7
        0x0000de82:    f7fefaf6    ....    BL       am_hal_burst_mode_disable ; 0xc472
        0x0000de86:    bb08        ..      CBNZ     r0,0xdecc ; am_hal_sysctrl_sleep + 120
        0x0000de88:    f89d0007    ....    LDRB     r0,[sp,#7]
        0x0000de8c:    2801        .(      CMP      r0,#1
        0x0000de8e:    d11d        ..      BNE      0xdecc ; am_hal_sysctrl_sleep + 120
        0x0000de90:    f7ffffb8    ....    BL       am_hal_pwrctrl_wa_vddf_restore ; 0xde04
        0x0000de94:    f64e5010    N..P    MOV      r0,#0xed10
        0x0000de98:    f2ce0000    ....    MOVT     r0,#0xe000
        0x0000de9c:    b1bc        ..      CBZ      r4,0xdece ; am_hal_sysctrl_sleep + 122
        0x0000de9e:    f2402150    @.P!    MOVW     r1,#0x250
        0x0000dea2:    f2c40102    ....    MOVT     r1,#0x4002
        0x0000dea6:    6809        .h      LDR      r1,[r1,#0]
        0x0000dea8:    07c9        ..      LSLS     r1,r1,#31
        0x0000deaa:    d110        ..      BNE      0xdece ; am_hal_sysctrl_sleep + 122
        0x0000deac:    f24101e0    A...    MOVW     r1,#0x10e0
        0x0000deb0:    f2c10101    ....    MOVT     r1,#0x1001
        0x0000deb4:    680a        .h      LDR      r2,[r1,#0]
        0x0000deb6:    b92a        *.      CBNZ     r2,0xdec4 ; am_hal_sysctrl_sleep + 112
        0x0000deb8:    f24f0200    O...    MOVW     r2,#0xf000
        0x0000debc:    f6c472ff    ...r    MOVT     r2,#0x4fff
        0x0000dec0:    6812        .h      LDR      r2,[r2,#0]
        0x0000dec2:    600a        .`      STR      r2,[r1,#0]
        0x0000dec4:    6801        .h      LDR      r1,[r0,#0]
        0x0000dec6:    f0410104    A...    ORR      r1,r1,#4
        0x0000deca:    e003        ..      B        0xded4 ; am_hal_sysctrl_sleep + 128
        0x0000decc:    e7fe        ..      B        0xdecc ; am_hal_sysctrl_sleep + 120
        0x0000dece:    6801        .h      LDR      r1,[r0,#0]
        0x0000ded0:    f0210104    !...    BIC      r1,r1,#4
        0x0000ded4:    6001        .`      STR      r1,[r0,#0]
        0x0000ded6:    2000        .       MOVS     r0,#0
        0x0000ded8:    f3bf8f4f    ..O.    DSB      
        0x0000dedc:    f6c570ff    ...p    MOVT     r0,#0x5fff
        0x0000dee0:    6800        .h      LDR      r0,[r0,#0]
        0x0000dee2:    bf30        0.      WFI      
        0x0000dee4:    f3bf8f6f    ..o.    ISB      
        0x0000dee8:    b11d        ..      CBZ      r5,0xdef2 ; am_hal_sysctrl_sleep + 158
        0x0000deea:    f10d0007    ....    ADD      r0,sp,#7
        0x0000deee:    f7fefb20    .. .    BL       am_hal_burst_mode_enable ; 0xc532
        0x0000def2:    9800        ..      LDR      r0,[sp,#0]
        0x0000def4:    f7fff95e    ..^.    BL       am_hal_interrupt_master_set ; 0xd1b4
        0x0000def8:    b002        ..      ADD      sp,sp,#8
        0x0000defa:    bdb0        ..      POP      {r4,r5,r7,pc}
    am_hal_tpiu_enable
        0x0000defc:    b570        p.      PUSH     {r4-r6,lr}
        0x0000defe:    b084        ..      SUB      sp,sp,#0x10
        0x0000df00:    6806        .h      LDR      r6,[r0,#0]
        0x0000df02:    f6407400    @..t    MOVW     r4,#0xf00
        0x0000df06:    2504        .%      MOVS     r5,#4
        0x0000df08:    f2ce0404    ....    MOVT     r4,#0xe004
        0x0000df0c:    f2ce0504    ....    MOVT     r5,#0xe004
        0x0000df10:    2200        ."      MOVS     r2,#0
        0x0000df12:    f8c52300    ...#    STR      r2,[r5,#0x300]
        0x0000df16:    b1ce        ..      CBZ      r6,0xdf4c ; am_hal_tpiu_enable + 80
        0x0000df18:    2001        .       MOVS     r0,#1
        0x0000df1a:    6028        (`      STR      r0,[r5,#0]
        0x0000df1c:    a801        ..      ADD      r0,sp,#4
        0x0000df1e:    f7fefd67    ..g.    BL       am_hal_clkgen_status_get ; 0xc9f0
        0x0000df22:    9801        ..      LDR      r0,[sp,#4]
        0x0000df24:    1c41        A.      ADDS     r1,r0,#1
        0x0000df26:    d01f        ..      BEQ      0xdf68 ; am_hal_tpiu_enable + 108
        0x0000df28:    f24a3280    J..2    MOV      r2,#0xa380
        0x0000df2c:    f5a64161    ..aA    SUB      r1,r6,#0xe100
        0x0000df30:    f2c0021d    ....    MOVT     r2,#0x1d
        0x0000df34:    08c0        ..      LSRS     r0,r0,#3
        0x0000df36:    4291        .B      CMP      r1,r2
        0x0000df38:    bf84        ..      ITT      HI
        0x0000df3a:    f2442640    D.@&    MOVHI    r6,#0x4240
        0x0000df3e:    f2c0060f    ....    MOVTHI   r6,#0xf
        0x0000df42:    fbb0f0f6    ....    UDIV     r0,r0,r6
        0x0000df46:    3801        .8      SUBS     r0,#1
        0x0000df48:    b280        ..      UXTH     r0,r0
        0x0000df4a:    e00e        ..      B        0xdf6a ; am_hal_tpiu_enable + 110
        0x0000df4c:    e9d01301    ....    LDRD     r1,r3,[r0,#4]
        0x0000df50:    e9d00603    ....    LDRD     r0,r6,[r0,#0xc]
        0x0000df54:    60ee        .`      STR      r6,[r5,#0xc]
        0x0000df56:    f8c530ec    ...0    STR      r3,[r5,#0xec]
        0x0000df5a:    3801        .8      SUBS     r0,#1
        0x0000df5c:    2301        .#      MOVS     r3,#1
        0x0000df5e:    fa03f000    ....    LSL      r0,r3,r0
        0x0000df62:    6028        (`      STR      r0,[r5,#0]
        0x0000df64:    6022        "`      STR      r2,[r4,#0]
        0x0000df66:    e008        ..      B        0xdf7a ; am_hal_tpiu_enable + 126
        0x0000df68:    2005        .       MOVS     r0,#5
        0x0000df6a:    60e8        .`      STR      r0,[r5,#0xc]
        0x0000df6c:    2002        .       MOVS     r0,#2
        0x0000df6e:    f8c500ec    ....    STR      r0,[r5,#0xec]
        0x0000df72:    2000        .       MOVS     r0,#0
        0x0000df74:    6020         `      STR      r0,[r4,#0]
        0x0000df76:    f2402101    @..!    MOV      r1,#0x201
        0x0000df7a:    f2402050    @.P     MOVW     r0,#0x250
        0x0000df7e:    f2c40002    ....    MOVT     r0,#0x4002
        0x0000df82:    6001        .`      STR      r1,[r0,#0]
        0x0000df84:    f44f7048    O.Hp    MOV      r0,#0x320
        0x0000df88:    f7feff53    ..S.    BL       am_hal_flash_delay ; 0xce32
        0x0000df8c:    b004        ..      ADD      sp,sp,#0x10
        0x0000df8e:    bd70        p.      POP      {r4-r6,pc}
    am_ioslave_ios_isr
        0x0000df90:    b580        ..      PUSH     {r7,lr}
        0x0000df92:    b086        ..      SUB      sp,sp,#0x18
        0x0000df94:    2100        .!      MOVS     r1,#0
        0x0000df96:    9103        ..      STR      r1,[sp,#0xc]
        0x0000df98:    f24110a8    A...    MOV      r0,#0x11a8
        0x0000df9c:    f2c10001    ....    MOVT     r0,#0x1001
        0x0000dfa0:    9002        ..      STR      r0,[sp,#8]
        0x0000dfa2:    6800        .h      LDR      r0,[r0,#0]
        0x0000dfa4:    aa05        ..      ADD      r2,sp,#0x14
        0x0000dfa6:    f7fffc32    ..2.    BL       am_hal_ios_interrupt_status_get ; 0xd80e
        0x0000dfaa:    9802        ..      LDR      r0,[sp,#8]
        0x0000dfac:    6800        .h      LDR      r0,[r0,#0]
        0x0000dfae:    9905        ..      LDR      r1,[sp,#0x14]
        0x0000dfb0:    f7fffb2a    ..*.    BL       am_hal_ios_interrupt_clear ; 0xd608
        0x0000dfb4:    f89d0014    ....    LDRB     r0,[sp,#0x14]
        0x0000dfb8:    0740        @.      LSLS     r0,r0,#29
        0x0000dfba:    2800        .(      CMP      r0,#0
        0x0000dfbc:    d513        ..      BPL      0xdfe6 ; am_ioslave_ios_isr + 86
        0x0000dfbe:    e7ff        ..      B        0xdfc0 ; am_ioslave_ios_isr + 48
        0x0000dfc0:    f24f70dc    O..p    MOV      r0,#0xf7dc
        0x0000dfc4:    f2c00000    ....    MOVT     r0,#0
        0x0000dfc8:    f000f874    ..t.    BL       am_util_stdio_printf ; 0xe0b4
        0x0000dfcc:    f64f005e    O.^.    MOV      r0,#0xf85e
        0x0000dfd0:    f2c00000    ....    MOVT     r0,#0
        0x0000dfd4:    f64f0227    O.'.    MOV      r2,#0xf827
        0x0000dfd8:    f2c00200    ....    MOVT     r2,#0
        0x0000dfdc:    f24011cb    @...    MOV      r1,#0x1cb
        0x0000dfe0:    f7feff26    ..&.    BL       am_hal_debug_error ; 0xce30
        0x0000dfe4:    e7ff        ..      B        0xdfe6 ; am_ioslave_ios_isr + 86
        0x0000dfe6:    f89d0014    ....    LDRB     r0,[sp,#0x14]
        0x0000dfea:    f0100f0e    ....    TST      r0,#0xe
        0x0000dfee:    d00d        ..      BEQ      0xe00c ; am_ioslave_ios_isr + 124
        0x0000dff0:    e7ff        ..      B        0xdff2 ; am_ioslave_ios_isr + 98
        0x0000dff2:    f64f005e    O.^.    MOV      r0,#0xf85e
        0x0000dff6:    f2c00000    ....    MOVT     r0,#0
        0x0000dffa:    f64f0213    O...    MOV      r2,#0xf813
        0x0000dffe:    f2c00200    ....    MOVT     r2,#0
        0x0000e002:    f24011d3    @...    MOV      r1,#0x1d3
        0x0000e006:    f7feff13    ....    BL       am_hal_debug_error ; 0xce30
        0x0000e00a:    e7ff        ..      B        0xe00c ; am_ioslave_ios_isr + 124
        0x0000e00c:    f89d0014    ....    LDRB     r0,[sp,#0x14]
        0x0000e010:    07c0        ..      LSLS     r0,r0,#31
        0x0000e012:    b148        H.      CBZ      r0,0xe028 ; am_ioslave_ios_isr + 152
        0x0000e014:    e7ff        ..      B        0xe016 ; am_ioslave_ios_isr + 134
        0x0000e016:    f24110a8    A...    MOV      r0,#0x11a8
        0x0000e01a:    f2c10001    ....    MOVT     r0,#0x1001
        0x0000e01e:    6800        .h      LDR      r0,[r0,#0]
        0x0000e020:    9905        ..      LDR      r1,[sp,#0x14]
        0x0000e022:    f7fffb19    ....    BL       am_hal_ios_interrupt_service ; 0xd658
        0x0000e026:    e7ff        ..      B        0xe028 ; am_ioslave_ios_isr + 152
        0x0000e028:    f89d0015    ....    LDRB     r0,[sp,#0x15]
        0x0000e02c:    0780        ..      LSLS     r0,r0,#30
        0x0000e02e:    2800        .(      CMP      r0,#0
        0x0000e030:    d53e        >.      BPL      0xe0b0 ; am_ioslave_ios_isr + 288
        0x0000e032:    e7ff        ..      B        0xe034 ; am_ioslave_ios_isr + 164
        0x0000e034:    f24f40d0    O..@    MOV      r0,#0xf4d0
        0x0000e038:    f2c00000    ....    MOVT     r0,#0
        0x0000e03c:    6800        .h      LDR      r0,[r0,#0]
        0x0000e03e:    9004        ..      STR      r0,[sp,#0x10]
        0x0000e040:    9804        ..      LDR      r0,[sp,#0x10]
        0x0000e042:    7800        .x      LDRB     r0,[r0,#0]
        0x0000e044:    4601        .F      MOV      r1,r0
        0x0000e046:    9101        ..      STR      r1,[sp,#4]
        0x0000e048:    b140        @.      CBZ      r0,0xe05c ; am_ioslave_ios_isr + 204
        0x0000e04a:    e7ff        ..      B        0xe04c ; am_ioslave_ios_isr + 188
        0x0000e04c:    9801        ..      LDR      r0,[sp,#4]
        0x0000e04e:    2801        .(      CMP      r0,#1
        0x0000e050:    d007        ..      BEQ      0xe062 ; am_ioslave_ios_isr + 210
        0x0000e052:    e7ff        ..      B        0xe054 ; am_ioslave_ios_isr + 196
        0x0000e054:    9801        ..      LDR      r0,[sp,#4]
        0x0000e056:    2802        .(      CMP      r0,#2
        0x0000e058:    d00c        ..      BEQ      0xe074 ; am_ioslave_ios_isr + 228
        0x0000e05a:    e027        '.      B        0xe0ac ; am_ioslave_ios_isr + 284
        0x0000e05c:    f001f8c0    ....    BL       start_sensors ; 0xf1e0
        0x0000e060:    e025        %.      B        0xe0ae ; am_ioslave_ios_isr + 286
        0x0000e062:    f001f8d9    ....    BL       stop_sensors ; 0xf218
        0x0000e066:    f24111a7    A...    MOV      r1,#0x11a7
        0x0000e06a:    f2c10101    ....    MOVT     r1,#0x1001
        0x0000e06e:    2000        .       MOVS     r0,#0
        0x0000e070:    7008        .p      STRB     r0,[r1,#0]
        0x0000e072:    e01c        ..      B        0xe0ae ; am_ioslave_ios_isr + 286
        0x0000e074:    f24110a8    A...    MOV      r0,#0x11a8
        0x0000e078:    f2c10001    ....    MOVT     r0,#0x1001
        0x0000e07c:    6800        .h      LDR      r0,[r0,#0]
        0x0000e07e:    a903        ..      ADD      r1,sp,#0xc
        0x0000e080:    f7fff9bc    ....    BL       am_hal_ios_fifo_space_used ; 0xd3fc
        0x0000e084:    9803        ..      LDR      r0,[sp,#0xc]
        0x0000e086:    b148        H.      CBZ      r0,0xe09c ; am_ioslave_ios_isr + 268
        0x0000e088:    e7ff        ..      B        0xe08a ; am_ioslave_ios_isr + 250
        0x0000e08a:    f24111a7    A...    MOV      r1,#0x11a7
        0x0000e08e:    f2c10101    ....    MOVT     r1,#0x1001
        0x0000e092:    2001        .       MOVS     r0,#1
        0x0000e094:    7008        .p      STRB     r0,[r1,#0]
        0x0000e096:    f000fd6f    ..o.    BL       inform_host ; 0xeb78
        0x0000e09a:    e006        ..      B        0xe0aa ; am_ioslave_ios_isr + 282
        0x0000e09c:    f24111a7    A...    MOV      r1,#0x11a7
        0x0000e0a0:    f2c10101    ....    MOVT     r1,#0x1001
        0x0000e0a4:    2000        .       MOVS     r0,#0
        0x0000e0a6:    7008        .p      STRB     r0,[r1,#0]
        0x0000e0a8:    e7ff        ..      B        0xe0aa ; am_ioslave_ios_isr + 282
        0x0000e0aa:    e000        ..      B        0xe0ae ; am_ioslave_ios_isr + 286
        0x0000e0ac:    e7ff        ..      B        0xe0ae ; am_ioslave_ios_isr + 286
        0x0000e0ae:    e7ff        ..      B        0xe0b0 ; am_ioslave_ios_isr + 288
        0x0000e0b0:    b006        ..      ADD      sp,sp,#0x18
        0x0000e0b2:    bd80        ..      POP      {r7,pc}
    am_util_stdio_printf
        0x0000e0b4:    b083        ..      SUB      sp,sp,#0xc
        0x0000e0b6:    b580        ..      PUSH     {r7,lr}
        0x0000e0b8:    b085        ..      SUB      sp,sp,#0x14
        0x0000e0ba:    9309        ..      STR      r3,[sp,#0x24]
        0x0000e0bc:    9208        ..      STR      r2,[sp,#0x20]
        0x0000e0be:    9107        ..      STR      r1,[sp,#0x1c]
        0x0000e0c0:    9003        ..      STR      r0,[sp,#0xc]
        0x0000e0c2:    f24110ac    A...    MOV      r0,#0x11ac
        0x0000e0c6:    f2c10001    ....    MOVT     r0,#0x1001
        0x0000e0ca:    6800        .h      LDR      r0,[r0,#0]
        0x0000e0cc:    b918        ..      CBNZ     r0,0xe0d6 ; am_util_stdio_printf + 34
        0x0000e0ce:    e7ff        ..      B        0xe0d0 ; am_util_stdio_printf + 28
        0x0000e0d0:    2000        .       MOVS     r0,#0
        0x0000e0d2:    9004        ..      STR      r0,[sp,#0x10]
        0x0000e0d4:    e016        ..      B        0xe104 ; am_util_stdio_printf + 80
        0x0000e0d6:    a807        ..      ADD      r0,sp,#0x1c
        0x0000e0d8:    9001        ..      STR      r0,[sp,#4]
        0x0000e0da:    9903        ..      LDR      r1,[sp,#0xc]
        0x0000e0dc:    9a01        ..      LDR      r2,[sp,#4]
        0x0000e0de:    f24110b0    A...    MOV      r0,#0x11b0
        0x0000e0e2:    f2c10001    ....    MOVT     r0,#0x1001
        0x0000e0e6:    9000        ..      STR      r0,[sp,#0]
        0x0000e0e8:    f000f824    ..$.    BL       am_util_stdio_vsprintf ; 0xe134
        0x0000e0ec:    4601        .F      MOV      r1,r0
        0x0000e0ee:    9800        ..      LDR      r0,[sp,#0]
        0x0000e0f0:    9102        ..      STR      r1,[sp,#8]
        0x0000e0f2:    f24111ac    A...    MOV      r1,#0x11ac
        0x0000e0f6:    f2c10101    ....    MOVT     r1,#0x1001
        0x0000e0fa:    6809        .h      LDR      r1,[r1,#0]
        0x0000e0fc:    4788        .G      BLX      r1
        0x0000e0fe:    9802        ..      LDR      r0,[sp,#8]
        0x0000e100:    9004        ..      STR      r0,[sp,#0x10]
        0x0000e102:    e7ff        ..      B        0xe104 ; am_util_stdio_printf + 80
        0x0000e104:    9804        ..      LDR      r0,[sp,#0x10]
        0x0000e106:    b005        ..      ADD      sp,sp,#0x14
        0x0000e108:    e8bd4080    ...@    POP      {r7,lr}
        0x0000e10c:    b003        ..      ADD      sp,sp,#0xc
        0x0000e10e:    4770        pG      BX       lr
    am_util_stdio_printf_init
        0x0000e110:    b081        ..      SUB      sp,sp,#4
        0x0000e112:    9000        ..      STR      r0,[sp,#0]
        0x0000e114:    9800        ..      LDR      r0,[sp,#0]
        0x0000e116:    f24111ac    A...    MOV      r1,#0x11ac
        0x0000e11a:    f2c10101    ....    MOVT     r1,#0x1001
        0x0000e11e:    6008        .`      STR      r0,[r1,#0]
        0x0000e120:    b001        ..      ADD      sp,sp,#4
        0x0000e122:    4770        pG      BX       lr
    am_util_stdio_terminal_clear
        0x0000e124:    b580        ..      PUSH     {r7,lr}
        0x0000e126:    f64f0069    O.i.    MOV      r0,#0xf869
        0x0000e12a:    f2c00000    ....    MOVT     r0,#0
        0x0000e12e:    f7ffffc1    ....    BL       am_util_stdio_printf ; 0xe0b4
        0x0000e132:    bd80        ..      POP      {r7,pc}
    am_util_stdio_vsprintf
        0x0000e134:    b580        ..      PUSH     {r7,lr}
        0x0000e136:    b09e        ..      SUB      sp,sp,#0x78
        0x0000e138:    921d        ..      STR      r2,[sp,#0x74]
        0x0000e13a:    901c        ..      STR      r0,[sp,#0x70]
        0x0000e13c:    911b        ..      STR      r1,[sp,#0x6c]
        0x0000e13e:    2000        .       MOVS     r0,#0
        0x0000e140:    9014        ..      STR      r0,[sp,#0x50]
        0x0000e142:    900e        ..      STR      r0,[sp,#0x38]
        0x0000e144:    e7ff        ..      B        0xe146 ; am_util_stdio_vsprintf + 18
        0x0000e146:    981b        ..      LDR      r0,[sp,#0x6c]
        0x0000e148:    7800        .x      LDRB     r0,[r0,#0]
        0x0000e14a:    2800        .(      CMP      r0,#0
        0x0000e14c:    f0008312    ....    BEQ.W    0xe774 ; am_util_stdio_vsprintf + 1600
        0x0000e150:    e7ff        ..      B        0xe152 ; am_util_stdio_vsprintf + 30
        0x0000e152:    2006        .       MOVS     r0,#6
        0x0000e154:    9011        ..      STR      r0,[sp,#0x44]
        0x0000e156:    981b        ..      LDR      r0,[sp,#0x6c]
        0x0000e158:    7800        .x      LDRB     r0,[r0,#0]
        0x0000e15a:    2825        %(      CMP      r0,#0x25
        0x0000e15c:    d027        '.      BEQ      0xe1ae ; am_util_stdio_vsprintf + 122
        0x0000e15e:    e7ff        ..      B        0xe160 ; am_util_stdio_vsprintf + 44
        0x0000e160:    981c        ..      LDR      r0,[sp,#0x70]
        0x0000e162:    b1e8        ..      CBZ      r0,0xe1a0 ; am_util_stdio_vsprintf + 108
        0x0000e164:    e7ff        ..      B        0xe166 ; am_util_stdio_vsprintf + 50
        0x0000e166:    981b        ..      LDR      r0,[sp,#0x6c]
        0x0000e168:    7800        .x      LDRB     r0,[r0,#0]
        0x0000e16a:    280a        .(      CMP      r0,#0xa
        0x0000e16c:    d111        ..      BNE      0xe192 ; am_util_stdio_vsprintf + 94
        0x0000e16e:    e7ff        ..      B        0xe170 ; am_util_stdio_vsprintf + 60
        0x0000e170:    f24110a5    A...    MOV      r0,#0x11a5
        0x0000e174:    f2c10001    ....    MOVT     r0,#0x1001
        0x0000e178:    7800        .x      LDRB     r0,[r0,#0]
        0x0000e17a:    07c0        ..      LSLS     r0,r0,#31
        0x0000e17c:    b148        H.      CBZ      r0,0xe192 ; am_util_stdio_vsprintf + 94
        0x0000e17e:    e7ff        ..      B        0xe180 ; am_util_stdio_vsprintf + 76
        0x0000e180:    991c        ..      LDR      r1,[sp,#0x70]
        0x0000e182:    1c48        H.      ADDS     r0,r1,#1
        0x0000e184:    901c        ..      STR      r0,[sp,#0x70]
        0x0000e186:    200d        .       MOVS     r0,#0xd
        0x0000e188:    7008        .p      STRB     r0,[r1,#0]
        0x0000e18a:    9814        ..      LDR      r0,[sp,#0x50]
        0x0000e18c:    3001        .0      ADDS     r0,#1
        0x0000e18e:    9014        ..      STR      r0,[sp,#0x50]
        0x0000e190:    e7ff        ..      B        0xe192 ; am_util_stdio_vsprintf + 94
        0x0000e192:    981b        ..      LDR      r0,[sp,#0x6c]
        0x0000e194:    7800        .x      LDRB     r0,[r0,#0]
        0x0000e196:    991c        ..      LDR      r1,[sp,#0x70]
        0x0000e198:    1c4a        J.      ADDS     r2,r1,#1
        0x0000e19a:    921c        ..      STR      r2,[sp,#0x70]
        0x0000e19c:    7008        .p      STRB     r0,[r1,#0]
        0x0000e19e:    e7ff        ..      B        0xe1a0 ; am_util_stdio_vsprintf + 108
        0x0000e1a0:    981b        ..      LDR      r0,[sp,#0x6c]
        0x0000e1a2:    3001        .0      ADDS     r0,#1
        0x0000e1a4:    901b        ..      STR      r0,[sp,#0x6c]
        0x0000e1a6:    9814        ..      LDR      r0,[sp,#0x50]
        0x0000e1a8:    3001        .0      ADDS     r0,#1
        0x0000e1aa:    9014        ..      STR      r0,[sp,#0x50]
        0x0000e1ac:    e7cb        ..      B        0xe146 ; am_util_stdio_vsprintf + 18
        0x0000e1ae:    981b        ..      LDR      r0,[sp,#0x6c]
        0x0000e1b0:    3001        .0      ADDS     r0,#1
        0x0000e1b2:    901b        ..      STR      r0,[sp,#0x6c]
        0x0000e1b4:    2000        .       MOVS     r0,#0
        0x0000e1b6:    f88d0040    ..@.    STRB     r0,[sp,#0x40]
        0x0000e1ba:    f88d0041    ..A.    STRB     r0,[sp,#0x41]
        0x0000e1be:    2020                MOVS     r0,#0x20
        0x0000e1c0:    f88d0042    ..B.    STRB     r0,[sp,#0x42]
        0x0000e1c4:    981b        ..      LDR      r0,[sp,#0x6c]
        0x0000e1c6:    7800        .x      LDRB     r0,[r0,#0]
        0x0000e1c8:    2830        0(      CMP      r0,#0x30
        0x0000e1ca:    d107        ..      BNE      0xe1dc ; am_util_stdio_vsprintf + 168
        0x0000e1cc:    e7ff        ..      B        0xe1ce ; am_util_stdio_vsprintf + 154
        0x0000e1ce:    2030        0       MOVS     r0,#0x30
        0x0000e1d0:    f88d0042    ..B.    STRB     r0,[sp,#0x42]
        0x0000e1d4:    981b        ..      LDR      r0,[sp,#0x6c]
        0x0000e1d6:    3001        .0      ADDS     r0,#1
        0x0000e1d8:    901b        ..      STR      r0,[sp,#0x6c]
        0x0000e1da:    e7ff        ..      B        0xe1dc ; am_util_stdio_vsprintf + 168
        0x0000e1dc:    981b        ..      LDR      r0,[sp,#0x6c]
        0x0000e1de:    a915        ..      ADD      r1,sp,#0x54
        0x0000e1e0:    f000fad2    ....    BL       decstr_to_int ; 0xe788
        0x0000e1e4:    9013        ..      STR      r0,[sp,#0x4c]
        0x0000e1e6:    9915        ..      LDR      r1,[sp,#0x54]
        0x0000e1e8:    981b        ..      LDR      r0,[sp,#0x6c]
        0x0000e1ea:    4408        .D      ADD      r0,r0,r1
        0x0000e1ec:    901b        ..      STR      r0,[sp,#0x6c]
        0x0000e1ee:    981b        ..      LDR      r0,[sp,#0x6c]
        0x0000e1f0:    7800        .x      LDRB     r0,[r0,#0]
        0x0000e1f2:    2873        s(      CMP      r0,#0x73
        0x0000e1f4:    d009        ..      BEQ      0xe20a ; am_util_stdio_vsprintf + 214
        0x0000e1f6:    e7ff        ..      B        0xe1f8 ; am_util_stdio_vsprintf + 196
        0x0000e1f8:    9813        ..      LDR      r0,[sp,#0x4c]
        0x0000e1fa:    f1b03fff    ...?    CMP      r0,#0xffffffff
        0x0000e1fe:    dc04        ..      BGT      0xe20a ; am_util_stdio_vsprintf + 214
        0x0000e200:    e7ff        ..      B        0xe202 ; am_util_stdio_vsprintf + 206
        0x0000e202:    9813        ..      LDR      r0,[sp,#0x4c]
        0x0000e204:    4240        @B      RSBS     r0,r0,#0
        0x0000e206:    9013        ..      STR      r0,[sp,#0x4c]
        0x0000e208:    e7ff        ..      B        0xe20a ; am_util_stdio_vsprintf + 214
        0x0000e20a:    981b        ..      LDR      r0,[sp,#0x6c]
        0x0000e20c:    7800        .x      LDRB     r0,[r0,#0]
        0x0000e20e:    282e        .(      CMP      r0,#0x2e
        0x0000e210:    d10d        ..      BNE      0xe22e ; am_util_stdio_vsprintf + 250
        0x0000e212:    e7ff        ..      B        0xe214 ; am_util_stdio_vsprintf + 224
        0x0000e214:    981b        ..      LDR      r0,[sp,#0x6c]
        0x0000e216:    3001        .0      ADDS     r0,#1
        0x0000e218:    901b        ..      STR      r0,[sp,#0x6c]
        0x0000e21a:    981b        ..      LDR      r0,[sp,#0x6c]
        0x0000e21c:    a915        ..      ADD      r1,sp,#0x54
        0x0000e21e:    f000fab3    ....    BL       decstr_to_int ; 0xe788
        0x0000e222:    9011        ..      STR      r0,[sp,#0x44]
        0x0000e224:    9915        ..      LDR      r1,[sp,#0x54]
        0x0000e226:    981b        ..      LDR      r0,[sp,#0x6c]
        0x0000e228:    4408        .D      ADD      r0,r0,r1
        0x0000e22a:    901b        ..      STR      r0,[sp,#0x6c]
        0x0000e22c:    e7ff        ..      B        0xe22e ; am_util_stdio_vsprintf + 250
        0x0000e22e:    981b        ..      LDR      r0,[sp,#0x6c]
        0x0000e230:    7800        .x      LDRB     r0,[r0,#0]
        0x0000e232:    286c        l(      CMP      r0,#0x6c
        0x0000e234:    d110        ..      BNE      0xe258 ; am_util_stdio_vsprintf + 292
        0x0000e236:    e7ff        ..      B        0xe238 ; am_util_stdio_vsprintf + 260
        0x0000e238:    981b        ..      LDR      r0,[sp,#0x6c]
        0x0000e23a:    3001        .0      ADDS     r0,#1
        0x0000e23c:    901b        ..      STR      r0,[sp,#0x6c]
        0x0000e23e:    981b        ..      LDR      r0,[sp,#0x6c]
        0x0000e240:    7800        .x      LDRB     r0,[r0,#0]
        0x0000e242:    286c        l(      CMP      r0,#0x6c
        0x0000e244:    d107        ..      BNE      0xe256 ; am_util_stdio_vsprintf + 290
        0x0000e246:    e7ff        ..      B        0xe248 ; am_util_stdio_vsprintf + 276
        0x0000e248:    981b        ..      LDR      r0,[sp,#0x6c]
        0x0000e24a:    3001        .0      ADDS     r0,#1
        0x0000e24c:    901b        ..      STR      r0,[sp,#0x6c]
        0x0000e24e:    2001        .       MOVS     r0,#1
        0x0000e250:    f88d0040    ..@.    STRB     r0,[sp,#0x40]
        0x0000e254:    e7ff        ..      B        0xe256 ; am_util_stdio_vsprintf + 290
        0x0000e256:    e7ff        ..      B        0xe258 ; am_util_stdio_vsprintf + 292
        0x0000e258:    981b        ..      LDR      r0,[sp,#0x6c]
        0x0000e25a:    7800        .x      LDRB     r0,[r0,#0]
        0x0000e25c:    3846        F8      SUBS     r0,r0,#0x46
        0x0000e25e:    4601        .F      MOV      r1,r0
        0x0000e260:    910b        ..      STR      r1,[sp,#0x2c]
        0x0000e262:    2832        2(      CMP      r0,#0x32
        0x0000e264:    f2008273    ..s.    BHI.W    0xe74e ; am_util_stdio_vsprintf + 1562
        0x0000e268:    990b        ..      LDR      r1,[sp,#0x2c]
        0x0000e26a:    e8dff011    ....    TBH      [pc,r1,LSL #1]
    $d.4
        0x0000e26e:    0224        $.      DCW    548
        0x0000e270:    02700270    p.p.    DCD    40895088
        0x0000e274:    02700270    p.p.    DCD    40895088
        0x0000e278:    02700270    p.p.    DCD    40895088
        0x0000e27c:    02700270    p.p.    DCD    40895088
        0x0000e280:    02700270    p.p.    DCD    40895088
        0x0000e284:    02700270    p.p.    DCD    40895088
        0x0000e288:    02700270    p.p.    DCD    40895088
        0x0000e28c:    02700270    p.p.    DCD    40895088
        0x0000e290:    00bf0270    p...    DCD    12518000
        0x0000e294:    02700270    p.p.    DCD    40895088
        0x0000e298:    02700270    p.p.    DCD    40895088
        0x0000e29c:    02700270    p.p.    DCD    40895088
        0x0000e2a0:    02700270    p.p.    DCD    40895088
        0x0000e2a4:    02700270    p.p.    DCD    40895088
        0x0000e2a8:    016f0033    3.o.    DCD    24051763
        0x0000e2ac:    02240270    p.$.    DCD    35914352
        0x0000e2b0:    02700270    p.p.    DCD    40895088
        0x0000e2b4:    0270016f    o.p.    DCD    40894831
        0x0000e2b8:    02700270    p.p.    DCD    40895088
        0x0000e2bc:    02700270    p.p.    DCD    40895088
        0x0000e2c0:    02700270    p.p.    DCD    40895088
        0x0000e2c4:    02700270    p.p.    DCD    40895088
        0x0000e2c8:    02700047    G.p.    DCD    40894535
        0x0000e2cc:    02700119    ..p.    DCD    40894745
        0x0000e2d0:    00bb0270    p...    DCD    12255856
    $t.5
        0x0000e2d4:    981d        ..      LDR      r0,[sp,#0x74]
        0x0000e2d6:    1d01        ..      ADDS     r1,r0,#4
        0x0000e2d8:    911d        ..      STR      r1,[sp,#0x74]
        0x0000e2da:    6800        .h      LDR      r0,[r0,#0]
        0x0000e2dc:    f88d0043    ..C.    STRB     r0,[sp,#0x43]
        0x0000e2e0:    981c        ..      LDR      r0,[sp,#0x70]
        0x0000e2e2:    b138        8.      CBZ      r0,0xe2f4 ; am_util_stdio_vsprintf + 448
        0x0000e2e4:    e7ff        ..      B        0xe2e6 ; am_util_stdio_vsprintf + 434
        0x0000e2e6:    f89d0043    ..C.    LDRB     r0,[sp,#0x43]
        0x0000e2ea:    991c        ..      LDR      r1,[sp,#0x70]
        0x0000e2ec:    1c4a        J.      ADDS     r2,r1,#1
        0x0000e2ee:    921c        ..      STR      r2,[sp,#0x70]
        0x0000e2f0:    7008        .p      STRB     r0,[r1,#0]
        0x0000e2f2:    e7ff        ..      B        0xe2f4 ; am_util_stdio_vsprintf + 448
        0x0000e2f4:    9814        ..      LDR      r0,[sp,#0x50]
        0x0000e2f6:    3001        .0      ADDS     r0,#1
        0x0000e2f8:    9014        ..      STR      r0,[sp,#0x50]
        0x0000e2fa:    e236        6.      B        0xe76a ; am_util_stdio_vsprintf + 1590
        0x0000e2fc:    981d        ..      LDR      r0,[sp,#0x74]
        0x0000e2fe:    1d01        ..      ADDS     r1,r0,#4
        0x0000e300:    911d        ..      STR      r1,[sp,#0x74]
        0x0000e302:    6800        .h      LDR      r0,[r0,#0]
        0x0000e304:    901a        ..      STR      r0,[sp,#0x68]
        0x0000e306:    981a        ..      LDR      r0,[sp,#0x68]
        0x0000e308:    f000ff4e    ..N.    BL       simple_strlen ; 0xf1a8
        0x0000e30c:    900e        ..      STR      r0,[sp,#0x38]
        0x0000e30e:    9813        ..      LDR      r0,[sp,#0x4c]
        0x0000e310:    2801        .(      CMP      r0,#1
        0x0000e312:    db25        %.      BLT      0xe360 ; am_util_stdio_vsprintf + 556
        0x0000e314:    e7ff        ..      B        0xe316 ; am_util_stdio_vsprintf + 482
        0x0000e316:    980e        ..      LDR      r0,[sp,#0x38]
        0x0000e318:    9913        ..      LDR      r1,[sp,#0x4c]
        0x0000e31a:    4288        .B      CMP      r0,r1
        0x0000e31c:    d21f        ..      BCS      0xe35e ; am_util_stdio_vsprintf + 554
        0x0000e31e:    e7ff        ..      B        0xe320 ; am_util_stdio_vsprintf + 492
        0x0000e320:    990e        ..      LDR      r1,[sp,#0x38]
        0x0000e322:    9813        ..      LDR      r0,[sp,#0x4c]
        0x0000e324:    1a40        @.      SUBS     r0,r0,r1
        0x0000e326:    9013        ..      STR      r0,[sp,#0x4c]
        0x0000e328:    981c        ..      LDR      r0,[sp,#0x70]
        0x0000e32a:    f89d1042    ..B.    LDRB     r1,[sp,#0x42]
        0x0000e32e:    9a13        ..      LDR      r2,[sp,#0x4c]
        0x0000e330:    f000fe8e    ....    BL       padbuffer ; 0xf050
        0x0000e334:    9013        ..      STR      r0,[sp,#0x4c]
        0x0000e336:    981c        ..      LDR      r0,[sp,#0x70]
        0x0000e338:    b118        ..      CBZ      r0,0xe342 ; am_util_stdio_vsprintf + 526
        0x0000e33a:    e7ff        ..      B        0xe33c ; am_util_stdio_vsprintf + 520
        0x0000e33c:    9813        ..      LDR      r0,[sp,#0x4c]
        0x0000e33e:    900a        ..      STR      r0,[sp,#0x28]
        0x0000e340:    e002        ..      B        0xe348 ; am_util_stdio_vsprintf + 532
        0x0000e342:    2000        .       MOVS     r0,#0
        0x0000e344:    900a        ..      STR      r0,[sp,#0x28]
        0x0000e346:    e7ff        ..      B        0xe348 ; am_util_stdio_vsprintf + 532
        0x0000e348:    990a        ..      LDR      r1,[sp,#0x28]
        0x0000e34a:    981c        ..      LDR      r0,[sp,#0x70]
        0x0000e34c:    4408        .D      ADD      r0,r0,r1
        0x0000e34e:    901c        ..      STR      r0,[sp,#0x70]
        0x0000e350:    9913        ..      LDR      r1,[sp,#0x4c]
        0x0000e352:    9814        ..      LDR      r0,[sp,#0x50]
        0x0000e354:    4408        .D      ADD      r0,r0,r1
        0x0000e356:    9014        ..      STR      r0,[sp,#0x50]
        0x0000e358:    2000        .       MOVS     r0,#0
        0x0000e35a:    9013        ..      STR      r0,[sp,#0x4c]
        0x0000e35c:    e7ff        ..      B        0xe35e ; am_util_stdio_vsprintf + 554
        0x0000e35e:    e7ff        ..      B        0xe360 ; am_util_stdio_vsprintf + 556
        0x0000e360:    e7ff        ..      B        0xe362 ; am_util_stdio_vsprintf + 558
        0x0000e362:    981a        ..      LDR      r0,[sp,#0x68]
        0x0000e364:    7800        .x      LDRB     r0,[r0,#0]
        0x0000e366:    b188        ..      CBZ      r0,0xe38c ; am_util_stdio_vsprintf + 600
        0x0000e368:    e7ff        ..      B        0xe36a ; am_util_stdio_vsprintf + 566
        0x0000e36a:    981c        ..      LDR      r0,[sp,#0x70]
        0x0000e36c:    b138        8.      CBZ      r0,0xe37e ; am_util_stdio_vsprintf + 586
        0x0000e36e:    e7ff        ..      B        0xe370 ; am_util_stdio_vsprintf + 572
        0x0000e370:    981a        ..      LDR      r0,[sp,#0x68]
        0x0000e372:    7800        .x      LDRB     r0,[r0,#0]
        0x0000e374:    991c        ..      LDR      r1,[sp,#0x70]
        0x0000e376:    1c4a        J.      ADDS     r2,r1,#1
        0x0000e378:    921c        ..      STR      r2,[sp,#0x70]
        0x0000e37a:    7008        .p      STRB     r0,[r1,#0]
        0x0000e37c:    e7ff        ..      B        0xe37e ; am_util_stdio_vsprintf + 586
        0x0000e37e:    981a        ..      LDR      r0,[sp,#0x68]
        0x0000e380:    3001        .0      ADDS     r0,#1
        0x0000e382:    901a        ..      STR      r0,[sp,#0x68]
        0x0000e384:    9814        ..      LDR      r0,[sp,#0x50]
        0x0000e386:    3001        .0      ADDS     r0,#1
        0x0000e388:    9014        ..      STR      r0,[sp,#0x50]
        0x0000e38a:    e7ea        ..      B        0xe362 ; am_util_stdio_vsprintf + 558
        0x0000e38c:    9813        ..      LDR      r0,[sp,#0x4c]
        0x0000e38e:    b340        @.      CBZ      r0,0xe3e2 ; am_util_stdio_vsprintf + 686
        0x0000e390:    e7ff        ..      B        0xe392 ; am_util_stdio_vsprintf + 606
        0x0000e392:    9813        ..      LDR      r0,[sp,#0x4c]
        0x0000e394:    4240        @B      RSBS     r0,r0,#0
        0x0000e396:    9013        ..      STR      r0,[sp,#0x4c]
        0x0000e398:    980e        ..      LDR      r0,[sp,#0x38]
        0x0000e39a:    9913        ..      LDR      r1,[sp,#0x4c]
        0x0000e39c:    4288        .B      CMP      r0,r1
        0x0000e39e:    d21f        ..      BCS      0xe3e0 ; am_util_stdio_vsprintf + 684
        0x0000e3a0:    e7ff        ..      B        0xe3a2 ; am_util_stdio_vsprintf + 622
        0x0000e3a2:    990e        ..      LDR      r1,[sp,#0x38]
        0x0000e3a4:    9813        ..      LDR      r0,[sp,#0x4c]
        0x0000e3a6:    1a40        @.      SUBS     r0,r0,r1
        0x0000e3a8:    9013        ..      STR      r0,[sp,#0x4c]
        0x0000e3aa:    981c        ..      LDR      r0,[sp,#0x70]
        0x0000e3ac:    f89d1042    ..B.    LDRB     r1,[sp,#0x42]
        0x0000e3b0:    9a13        ..      LDR      r2,[sp,#0x4c]
        0x0000e3b2:    f000fe4d    ..M.    BL       padbuffer ; 0xf050
        0x0000e3b6:    9013        ..      STR      r0,[sp,#0x4c]
        0x0000e3b8:    981c        ..      LDR      r0,[sp,#0x70]
        0x0000e3ba:    b118        ..      CBZ      r0,0xe3c4 ; am_util_stdio_vsprintf + 656
        0x0000e3bc:    e7ff        ..      B        0xe3be ; am_util_stdio_vsprintf + 650
        0x0000e3be:    9813        ..      LDR      r0,[sp,#0x4c]
        0x0000e3c0:    9009        ..      STR      r0,[sp,#0x24]
        0x0000e3c2:    e002        ..      B        0xe3ca ; am_util_stdio_vsprintf + 662
        0x0000e3c4:    2000        .       MOVS     r0,#0
        0x0000e3c6:    9009        ..      STR      r0,[sp,#0x24]
        0x0000e3c8:    e7ff        ..      B        0xe3ca ; am_util_stdio_vsprintf + 662
        0x0000e3ca:    9909        ..      LDR      r1,[sp,#0x24]
        0x0000e3cc:    981c        ..      LDR      r0,[sp,#0x70]
        0x0000e3ce:    4408        .D      ADD      r0,r0,r1
        0x0000e3d0:    901c        ..      STR      r0,[sp,#0x70]
        0x0000e3d2:    9913        ..      LDR      r1,[sp,#0x4c]
        0x0000e3d4:    9814        ..      LDR      r0,[sp,#0x50]
        0x0000e3d6:    4408        .D      ADD      r0,r0,r1
        0x0000e3d8:    9014        ..      STR      r0,[sp,#0x50]
        0x0000e3da:    2000        .       MOVS     r0,#0
        0x0000e3dc:    9013        ..      STR      r0,[sp,#0x4c]
        0x0000e3de:    e7ff        ..      B        0xe3e0 ; am_util_stdio_vsprintf + 684
        0x0000e3e0:    e7ff        ..      B        0xe3e2 ; am_util_stdio_vsprintf + 686
        0x0000e3e2:    e1c2        ..      B        0xe76a ; am_util_stdio_vsprintf + 1590
        0x0000e3e4:    2001        .       MOVS     r0,#1
        0x0000e3e6:    f88d0041    ..A.    STRB     r0,[sp,#0x41]
        0x0000e3ea:    e7ff        ..      B        0xe3ec ; am_util_stdio_vsprintf + 696
        0x0000e3ec:    f89d0040    ..@.    LDRB     r0,[sp,#0x40]
        0x0000e3f0:    07c0        ..      LSLS     r0,r0,#31
        0x0000e3f2:    b160        `.      CBZ      r0,0xe40e ; am_util_stdio_vsprintf + 730
        0x0000e3f4:    e7ff        ..      B        0xe3f6 ; am_util_stdio_vsprintf + 706
        0x0000e3f6:    981d        ..      LDR      r0,[sp,#0x74]
        0x0000e3f8:    3007        .0      ADDS     r0,#7
        0x0000e3fa:    f0200007     ...    BIC      r0,r0,#7
        0x0000e3fe:    f1000108    ....    ADD      r1,r0,#8
        0x0000e402:    911d        ..      STR      r1,[sp,#0x74]
        0x0000e404:    6801        .h      LDR      r1,[r0,#0]
        0x0000e406:    6840        @h      LDR      r0,[r0,#4]
        0x0000e408:    9107        ..      STR      r1,[sp,#0x1c]
        0x0000e40a:    9008        ..      STR      r0,[sp,#0x20]
        0x0000e40c:    e007        ..      B        0xe41e ; am_util_stdio_vsprintf + 746
        0x0000e40e:    981d        ..      LDR      r0,[sp,#0x74]
        0x0000e410:    1d01        ..      ADDS     r1,r0,#4
        0x0000e412:    911d        ..      STR      r1,[sp,#0x74]
        0x0000e414:    6801        .h      LDR      r1,[r0,#0]
        0x0000e416:    2000        .       MOVS     r0,#0
        0x0000e418:    9107        ..      STR      r1,[sp,#0x1c]
        0x0000e41a:    9008        ..      STR      r0,[sp,#0x20]
        0x0000e41c:    e7ff        ..      B        0xe41e ; am_util_stdio_vsprintf + 746
        0x0000e41e:    9907        ..      LDR      r1,[sp,#0x1c]
        0x0000e420:    9808        ..      LDR      r0,[sp,#0x20]
        0x0000e422:    9118        ..      STR      r1,[sp,#0x60]
        0x0000e424:    9019        ..      STR      r0,[sp,#0x64]
        0x0000e426:    9813        ..      LDR      r0,[sp,#0x4c]
        0x0000e428:    b318        ..      CBZ      r0,0xe472 ; am_util_stdio_vsprintf + 830
        0x0000e42a:    e7ff        ..      B        0xe42c ; am_util_stdio_vsprintf + 760
        0x0000e42c:    9818        ..      LDR      r0,[sp,#0x60]
        0x0000e42e:    9919        ..      LDR      r1,[sp,#0x64]
        0x0000e430:    f000fdb8    ....    BL       ndigits_in_hex ; 0xefa4
        0x0000e434:    4601        .F      MOV      r1,r0
        0x0000e436:    9813        ..      LDR      r0,[sp,#0x4c]
        0x0000e438:    1a40        @.      SUBS     r0,r0,r1
        0x0000e43a:    9013        ..      STR      r0,[sp,#0x4c]
        0x0000e43c:    981c        ..      LDR      r0,[sp,#0x70]
        0x0000e43e:    f89d1042    ..B.    LDRB     r1,[sp,#0x42]
        0x0000e442:    9a13        ..      LDR      r2,[sp,#0x4c]
        0x0000e444:    f000fe04    ....    BL       padbuffer ; 0xf050
        0x0000e448:    9013        ..      STR      r0,[sp,#0x4c]
        0x0000e44a:    981c        ..      LDR      r0,[sp,#0x70]
        0x0000e44c:    b118        ..      CBZ      r0,0xe456 ; am_util_stdio_vsprintf + 802
        0x0000e44e:    e7ff        ..      B        0xe450 ; am_util_stdio_vsprintf + 796
        0x0000e450:    9813        ..      LDR      r0,[sp,#0x4c]
        0x0000e452:    9006        ..      STR      r0,[sp,#0x18]
        0x0000e454:    e002        ..      B        0xe45c ; am_util_stdio_vsprintf + 808
        0x0000e456:    2000        .       MOVS     r0,#0
        0x0000e458:    9006        ..      STR      r0,[sp,#0x18]
        0x0000e45a:    e7ff        ..      B        0xe45c ; am_util_stdio_vsprintf + 808
        0x0000e45c:    9906        ..      LDR      r1,[sp,#0x18]
        0x0000e45e:    981c        ..      LDR      r0,[sp,#0x70]
        0x0000e460:    4408        .D      ADD      r0,r0,r1
        0x0000e462:    901c        ..      STR      r0,[sp,#0x70]
        0x0000e464:    9913        ..      LDR      r1,[sp,#0x4c]
        0x0000e466:    9814        ..      LDR      r0,[sp,#0x50]
        0x0000e468:    4408        .D      ADD      r0,r0,r1
        0x0000e46a:    9014        ..      STR      r0,[sp,#0x50]
        0x0000e46c:    2000        .       MOVS     r0,#0
        0x0000e46e:    9013        ..      STR      r0,[sp,#0x4c]
        0x0000e470:    e7ff        ..      B        0xe472 ; am_util_stdio_vsprintf + 830
        0x0000e472:    9818        ..      LDR      r0,[sp,#0x60]
        0x0000e474:    9919        ..      LDR      r1,[sp,#0x64]
        0x0000e476:    9a1c        ..      LDR      r2,[sp,#0x70]
        0x0000e478:    f89d3041    ..A0    LDRB     r3,[sp,#0x41]
        0x0000e47c:    f0030301    ....    AND      r3,r3,#1
        0x0000e480:    f000fee8    ....    BL       uint64_to_hexstr ; 0xf254
        0x0000e484:    9012        ..      STR      r0,[sp,#0x48]
        0x0000e486:    981c        ..      LDR      r0,[sp,#0x70]
        0x0000e488:    b128        (.      CBZ      r0,0xe496 ; am_util_stdio_vsprintf + 866
        0x0000e48a:    e7ff        ..      B        0xe48c ; am_util_stdio_vsprintf + 856
        0x0000e48c:    9912        ..      LDR      r1,[sp,#0x48]
        0x0000e48e:    981c        ..      LDR      r0,[sp,#0x70]
        0x0000e490:    4408        .D      ADD      r0,r0,r1
        0x0000e492:    901c        ..      STR      r0,[sp,#0x70]
        0x0000e494:    e7ff        ..      B        0xe496 ; am_util_stdio_vsprintf + 866
        0x0000e496:    9912        ..      LDR      r1,[sp,#0x48]
        0x0000e498:    9814        ..      LDR      r0,[sp,#0x50]
        0x0000e49a:    4408        .D      ADD      r0,r0,r1
        0x0000e49c:    9014        ..      STR      r0,[sp,#0x50]
        0x0000e49e:    e164        d.      B        0xe76a ; am_util_stdio_vsprintf + 1590
        0x0000e4a0:    f89d0040    ..@.    LDRB     r0,[sp,#0x40]
        0x0000e4a4:    07c0        ..      LSLS     r0,r0,#31
        0x0000e4a6:    b160        `.      CBZ      r0,0xe4c2 ; am_util_stdio_vsprintf + 910
        0x0000e4a8:    e7ff        ..      B        0xe4aa ; am_util_stdio_vsprintf + 886
        0x0000e4aa:    981d        ..      LDR      r0,[sp,#0x74]
        0x0000e4ac:    3007        .0      ADDS     r0,#7
        0x0000e4ae:    f0200007     ...    BIC      r0,r0,#7
        0x0000e4b2:    f1000108    ....    ADD      r1,r0,#8
        0x0000e4b6:    911d        ..      STR      r1,[sp,#0x74]
        0x0000e4b8:    6801        .h      LDR      r1,[r0,#0]
        0x0000e4ba:    6840        @h      LDR      r0,[r0,#4]
        0x0000e4bc:    9104        ..      STR      r1,[sp,#0x10]
        0x0000e4be:    9005        ..      STR      r0,[sp,#0x14]
        0x0000e4c0:    e007        ..      B        0xe4d2 ; am_util_stdio_vsprintf + 926
        0x0000e4c2:    981d        ..      LDR      r0,[sp,#0x74]
        0x0000e4c4:    1d01        ..      ADDS     r1,r0,#4
        0x0000e4c6:    911d        ..      STR      r1,[sp,#0x74]
        0x0000e4c8:    6801        .h      LDR      r1,[r0,#0]
        0x0000e4ca:    2000        .       MOVS     r0,#0
        0x0000e4cc:    9104        ..      STR      r1,[sp,#0x10]
        0x0000e4ce:    9005        ..      STR      r0,[sp,#0x14]
        0x0000e4d0:    e7ff        ..      B        0xe4d2 ; am_util_stdio_vsprintf + 926
        0x0000e4d2:    9904        ..      LDR      r1,[sp,#0x10]
        0x0000e4d4:    9805        ..      LDR      r0,[sp,#0x14]
        0x0000e4d6:    9118        ..      STR      r1,[sp,#0x60]
        0x0000e4d8:    9019        ..      STR      r0,[sp,#0x64]
        0x0000e4da:    9813        ..      LDR      r0,[sp,#0x4c]
        0x0000e4dc:    b318        ..      CBZ      r0,0xe526 ; am_util_stdio_vsprintf + 1010
        0x0000e4de:    e7ff        ..      B        0xe4e0 ; am_util_stdio_vsprintf + 940
        0x0000e4e0:    9818        ..      LDR      r0,[sp,#0x60]
        0x0000e4e2:    9919        ..      LDR      r1,[sp,#0x64]
        0x0000e4e4:    f000fd96    ....    BL       ndigits_in_u64 ; 0xf014
        0x0000e4e8:    4601        .F      MOV      r1,r0
        0x0000e4ea:    9813        ..      LDR      r0,[sp,#0x4c]
        0x0000e4ec:    1a40        @.      SUBS     r0,r0,r1
        0x0000e4ee:    9013        ..      STR      r0,[sp,#0x4c]
        0x0000e4f0:    981c        ..      LDR      r0,[sp,#0x70]
        0x0000e4f2:    f89d1042    ..B.    LDRB     r1,[sp,#0x42]
        0x0000e4f6:    9a13        ..      LDR      r2,[sp,#0x4c]
        0x0000e4f8:    f000fdaa    ....    BL       padbuffer ; 0xf050
        0x0000e4fc:    9013        ..      STR      r0,[sp,#0x4c]
        0x0000e4fe:    981c        ..      LDR      r0,[sp,#0x70]
        0x0000e500:    b118        ..      CBZ      r0,0xe50a ; am_util_stdio_vsprintf + 982
        0x0000e502:    e7ff        ..      B        0xe504 ; am_util_stdio_vsprintf + 976
        0x0000e504:    9813        ..      LDR      r0,[sp,#0x4c]
        0x0000e506:    9003        ..      STR      r0,[sp,#0xc]
        0x0000e508:    e002        ..      B        0xe510 ; am_util_stdio_vsprintf + 988
        0x0000e50a:    2000        .       MOVS     r0,#0
        0x0000e50c:    9003        ..      STR      r0,[sp,#0xc]
        0x0000e50e:    e7ff        ..      B        0xe510 ; am_util_stdio_vsprintf + 988
        0x0000e510:    9903        ..      LDR      r1,[sp,#0xc]
        0x0000e512:    981c        ..      LDR      r0,[sp,#0x70]
        0x0000e514:    4408        .D      ADD      r0,r0,r1
        0x0000e516:    901c        ..      STR      r0,[sp,#0x70]
        0x0000e518:    9913        ..      LDR      r1,[sp,#0x4c]
        0x0000e51a:    9814        ..      LDR      r0,[sp,#0x50]
        0x0000e51c:    4408        .D      ADD      r0,r0,r1
        0x0000e51e:    9014        ..      STR      r0,[sp,#0x50]
        0x0000e520:    2000        .       MOVS     r0,#0
        0x0000e522:    9013        ..      STR      r0,[sp,#0x4c]
        0x0000e524:    e7ff        ..      B        0xe526 ; am_util_stdio_vsprintf + 1010
        0x0000e526:    9818        ..      LDR      r0,[sp,#0x60]
        0x0000e528:    9919        ..      LDR      r1,[sp,#0x64]
        0x0000e52a:    9a1c        ..      LDR      r2,[sp,#0x70]
        0x0000e52c:    f000fef2    ....    BL       uint64_to_str ; 0xf314
        0x0000e530:    9012        ..      STR      r0,[sp,#0x48]
        0x0000e532:    981c        ..      LDR      r0,[sp,#0x70]
        0x0000e534:    b128        (.      CBZ      r0,0xe542 ; am_util_stdio_vsprintf + 1038
        0x0000e536:    e7ff        ..      B        0xe538 ; am_util_stdio_vsprintf + 1028
        0x0000e538:    9912        ..      LDR      r1,[sp,#0x48]
        0x0000e53a:    981c        ..      LDR      r0,[sp,#0x70]
        0x0000e53c:    4408        .D      ADD      r0,r0,r1
        0x0000e53e:    901c        ..      STR      r0,[sp,#0x70]
        0x0000e540:    e7ff        ..      B        0xe542 ; am_util_stdio_vsprintf + 1038
        0x0000e542:    9912        ..      LDR      r1,[sp,#0x48]
        0x0000e544:    9814        ..      LDR      r0,[sp,#0x50]
        0x0000e546:    4408        .D      ADD      r0,r0,r1
        0x0000e548:    9014        ..      STR      r0,[sp,#0x50]
        0x0000e54a:    e10e        ..      B        0xe76a ; am_util_stdio_vsprintf + 1590
        0x0000e54c:    f89d0040    ..@.    LDRB     r0,[sp,#0x40]
        0x0000e550:    07c0        ..      LSLS     r0,r0,#31
        0x0000e552:    b160        `.      CBZ      r0,0xe56e ; am_util_stdio_vsprintf + 1082
        0x0000e554:    e7ff        ..      B        0xe556 ; am_util_stdio_vsprintf + 1058
        0x0000e556:    981d        ..      LDR      r0,[sp,#0x74]
        0x0000e558:    3007        .0      ADDS     r0,#7
        0x0000e55a:    f0200007     ...    BIC      r0,r0,#7
        0x0000e55e:    f1000108    ....    ADD      r1,r0,#8
        0x0000e562:    911d        ..      STR      r1,[sp,#0x74]
        0x0000e564:    6801        .h      LDR      r1,[r0,#0]
        0x0000e566:    6840        @h      LDR      r0,[r0,#4]
        0x0000e568:    9101        ..      STR      r1,[sp,#4]
        0x0000e56a:    9002        ..      STR      r0,[sp,#8]
        0x0000e56c:    e007        ..      B        0xe57e ; am_util_stdio_vsprintf + 1098
        0x0000e56e:    981d        ..      LDR      r0,[sp,#0x74]
        0x0000e570:    1d01        ..      ADDS     r1,r0,#4
        0x0000e572:    911d        ..      STR      r1,[sp,#0x74]
        0x0000e574:    6801        .h      LDR      r1,[r0,#0]
        0x0000e576:    17c8        ..      ASRS     r0,r1,#31
        0x0000e578:    9101        ..      STR      r1,[sp,#4]
        0x0000e57a:    9002        ..      STR      r0,[sp,#8]
        0x0000e57c:    e7ff        ..      B        0xe57e ; am_util_stdio_vsprintf + 1098
        0x0000e57e:    9901        ..      LDR      r1,[sp,#4]
        0x0000e580:    9802        ..      LDR      r0,[sp,#8]
        0x0000e582:    9116        ..      STR      r1,[sp,#0x58]
        0x0000e584:    9017        ..      STR      r0,[sp,#0x5c]
        0x0000e586:    9817        ..      LDR      r0,[sp,#0x5c]
        0x0000e588:    f1b03fff    ...?    CMP      r0,#0xffffffff
        0x0000e58c:    dc0c        ..      BGT      0xe5a8 ; am_util_stdio_vsprintf + 1140
        0x0000e58e:    e7ff        ..      B        0xe590 ; am_util_stdio_vsprintf + 1116
        0x0000e590:    9816        ..      LDR      r0,[sp,#0x58]
        0x0000e592:    9a17        ..      LDR      r2,[sp,#0x5c]
        0x0000e594:    4241        AB      RSBS     r1,r0,#0
        0x0000e596:    f04f0000    O...    MOV      r0,#0
        0x0000e59a:    4190        .A      SBCS     r0,r0,r2
        0x0000e59c:    9118        ..      STR      r1,[sp,#0x60]
        0x0000e59e:    9019        ..      STR      r0,[sp,#0x64]
        0x0000e5a0:    2001        .       MOVS     r0,#1
        0x0000e5a2:    f88d003f    ..?.    STRB     r0,[sp,#0x3f]
        0x0000e5a6:    e007        ..      B        0xe5b8 ; am_util_stdio_vsprintf + 1156
        0x0000e5a8:    9816        ..      LDR      r0,[sp,#0x58]
        0x0000e5aa:    9917        ..      LDR      r1,[sp,#0x5c]
        0x0000e5ac:    9119        ..      STR      r1,[sp,#0x64]
        0x0000e5ae:    9018        ..      STR      r0,[sp,#0x60]
        0x0000e5b0:    2000        .       MOVS     r0,#0
        0x0000e5b2:    f88d003f    ..?.    STRB     r0,[sp,#0x3f]
        0x0000e5b6:    e7ff        ..      B        0xe5b8 ; am_util_stdio_vsprintf + 1156
        0x0000e5b8:    9813        ..      LDR      r0,[sp,#0x4c]
        0x0000e5ba:    2800        .(      CMP      r0,#0
        0x0000e5bc:    d055        U.      BEQ      0xe66a ; am_util_stdio_vsprintf + 1334
        0x0000e5be:    e7ff        ..      B        0xe5c0 ; am_util_stdio_vsprintf + 1164
        0x0000e5c0:    9818        ..      LDR      r0,[sp,#0x60]
        0x0000e5c2:    9919        ..      LDR      r1,[sp,#0x64]
        0x0000e5c4:    f000fd0e    ....    BL       ndigits_in_i64 ; 0xefe4
        0x0000e5c8:    4601        .F      MOV      r1,r0
        0x0000e5ca:    9813        ..      LDR      r0,[sp,#0x4c]
        0x0000e5cc:    1a40        @.      SUBS     r0,r0,r1
        0x0000e5ce:    9013        ..      STR      r0,[sp,#0x4c]
        0x0000e5d0:    f89d003f    ..?.    LDRB     r0,[sp,#0x3f]
        0x0000e5d4:    07c0        ..      LSLS     r0,r0,#31
        0x0000e5d6:    b1b0        ..      CBZ      r0,0xe606 ; am_util_stdio_vsprintf + 1234
        0x0000e5d8:    e7ff        ..      B        0xe5da ; am_util_stdio_vsprintf + 1190
        0x0000e5da:    9813        ..      LDR      r0,[sp,#0x4c]
        0x0000e5dc:    3801        .8      SUBS     r0,#1
        0x0000e5de:    9013        ..      STR      r0,[sp,#0x4c]
        0x0000e5e0:    f89d0042    ..B.    LDRB     r0,[sp,#0x42]
        0x0000e5e4:    2830        0(      CMP      r0,#0x30
        0x0000e5e6:    d10d        ..      BNE      0xe604 ; am_util_stdio_vsprintf + 1232
        0x0000e5e8:    e7ff        ..      B        0xe5ea ; am_util_stdio_vsprintf + 1206
        0x0000e5ea:    981c        ..      LDR      r0,[sp,#0x70]
        0x0000e5ec:    b130        0.      CBZ      r0,0xe5fc ; am_util_stdio_vsprintf + 1224
        0x0000e5ee:    e7ff        ..      B        0xe5f0 ; am_util_stdio_vsprintf + 1212
        0x0000e5f0:    991c        ..      LDR      r1,[sp,#0x70]
        0x0000e5f2:    1c48        H.      ADDS     r0,r1,#1
        0x0000e5f4:    901c        ..      STR      r0,[sp,#0x70]
        0x0000e5f6:    202d        -       MOVS     r0,#0x2d
        0x0000e5f8:    7008        .p      STRB     r0,[r1,#0]
        0x0000e5fa:    e7ff        ..      B        0xe5fc ; am_util_stdio_vsprintf + 1224
        0x0000e5fc:    9814        ..      LDR      r0,[sp,#0x50]
        0x0000e5fe:    3001        .0      ADDS     r0,#1
        0x0000e600:    9014        ..      STR      r0,[sp,#0x50]
        0x0000e602:    e7ff        ..      B        0xe604 ; am_util_stdio_vsprintf + 1232
        0x0000e604:    e7ff        ..      B        0xe606 ; am_util_stdio_vsprintf + 1234
        0x0000e606:    981c        ..      LDR      r0,[sp,#0x70]
        0x0000e608:    f89d1042    ..B.    LDRB     r1,[sp,#0x42]
        0x0000e60c:    9a13        ..      LDR      r2,[sp,#0x4c]
        0x0000e60e:    f000fd1f    ....    BL       padbuffer ; 0xf050
        0x0000e612:    9013        ..      STR      r0,[sp,#0x4c]
        0x0000e614:    981c        ..      LDR      r0,[sp,#0x70]
        0x0000e616:    b118        ..      CBZ      r0,0xe620 ; am_util_stdio_vsprintf + 1260
        0x0000e618:    e7ff        ..      B        0xe61a ; am_util_stdio_vsprintf + 1254
        0x0000e61a:    9813        ..      LDR      r0,[sp,#0x4c]
        0x0000e61c:    9000        ..      STR      r0,[sp,#0]
        0x0000e61e:    e002        ..      B        0xe626 ; am_util_stdio_vsprintf + 1266
        0x0000e620:    2000        .       MOVS     r0,#0
        0x0000e622:    9000        ..      STR      r0,[sp,#0]
        0x0000e624:    e7ff        ..      B        0xe626 ; am_util_stdio_vsprintf + 1266
        0x0000e626:    9900        ..      LDR      r1,[sp,#0]
        0x0000e628:    981c        ..      LDR      r0,[sp,#0x70]
        0x0000e62a:    4408        .D      ADD      r0,r0,r1
        0x0000e62c:    901c        ..      STR      r0,[sp,#0x70]
        0x0000e62e:    9913        ..      LDR      r1,[sp,#0x4c]
        0x0000e630:    9814        ..      LDR      r0,[sp,#0x50]
        0x0000e632:    4408        .D      ADD      r0,r0,r1
        0x0000e634:    9014        ..      STR      r0,[sp,#0x50]
        0x0000e636:    2000        .       MOVS     r0,#0
        0x0000e638:    9013        ..      STR      r0,[sp,#0x4c]
        0x0000e63a:    f89d003f    ..?.    LDRB     r0,[sp,#0x3f]
        0x0000e63e:    07c0        ..      LSLS     r0,r0,#31
        0x0000e640:    b190        ..      CBZ      r0,0xe668 ; am_util_stdio_vsprintf + 1332
        0x0000e642:    e7ff        ..      B        0xe644 ; am_util_stdio_vsprintf + 1296
        0x0000e644:    f89d0042    ..B.    LDRB     r0,[sp,#0x42]
        0x0000e648:    2820         (      CMP      r0,#0x20
        0x0000e64a:    d10d        ..      BNE      0xe668 ; am_util_stdio_vsprintf + 1332
        0x0000e64c:    e7ff        ..      B        0xe64e ; am_util_stdio_vsprintf + 1306
        0x0000e64e:    981c        ..      LDR      r0,[sp,#0x70]
        0x0000e650:    b130        0.      CBZ      r0,0xe660 ; am_util_stdio_vsprintf + 1324
        0x0000e652:    e7ff        ..      B        0xe654 ; am_util_stdio_vsprintf + 1312
        0x0000e654:    991c        ..      LDR      r1,[sp,#0x70]
        0x0000e656:    1c48        H.      ADDS     r0,r1,#1
        0x0000e658:    901c        ..      STR      r0,[sp,#0x70]
        0x0000e65a:    202d        -       MOVS     r0,#0x2d
        0x0000e65c:    7008        .p      STRB     r0,[r1,#0]
        0x0000e65e:    e7ff        ..      B        0xe660 ; am_util_stdio_vsprintf + 1324
        0x0000e660:    9814        ..      LDR      r0,[sp,#0x50]
        0x0000e662:    3001        .0      ADDS     r0,#1
        0x0000e664:    9014        ..      STR      r0,[sp,#0x50]
        0x0000e666:    e7ff        ..      B        0xe668 ; am_util_stdio_vsprintf + 1332
        0x0000e668:    e012        ..      B        0xe690 ; am_util_stdio_vsprintf + 1372
        0x0000e66a:    f89d003f    ..?.    LDRB     r0,[sp,#0x3f]
        0x0000e66e:    07c0        ..      LSLS     r0,r0,#31
        0x0000e670:    b168        h.      CBZ      r0,0xe68e ; am_util_stdio_vsprintf + 1370
        0x0000e672:    e7ff        ..      B        0xe674 ; am_util_stdio_vsprintf + 1344
        0x0000e674:    981c        ..      LDR      r0,[sp,#0x70]
        0x0000e676:    b130        0.      CBZ      r0,0xe686 ; am_util_stdio_vsprintf + 1362
        0x0000e678:    e7ff        ..      B        0xe67a ; am_util_stdio_vsprintf + 1350
        0x0000e67a:    991c        ..      LDR      r1,[sp,#0x70]
        0x0000e67c:    1c48        H.      ADDS     r0,r1,#1
        0x0000e67e:    901c        ..      STR      r0,[sp,#0x70]
        0x0000e680:    202d        -       MOVS     r0,#0x2d
        0x0000e682:    7008        .p      STRB     r0,[r1,#0]
        0x0000e684:    e7ff        ..      B        0xe686 ; am_util_stdio_vsprintf + 1362
        0x0000e686:    9814        ..      LDR      r0,[sp,#0x50]
        0x0000e688:    3001        .0      ADDS     r0,#1
        0x0000e68a:    9014        ..      STR      r0,[sp,#0x50]
        0x0000e68c:    e7ff        ..      B        0xe68e ; am_util_stdio_vsprintf + 1370
        0x0000e68e:    e7ff        ..      B        0xe690 ; am_util_stdio_vsprintf + 1372
        0x0000e690:    9818        ..      LDR      r0,[sp,#0x60]
        0x0000e692:    9919        ..      LDR      r1,[sp,#0x64]
        0x0000e694:    9a1c        ..      LDR      r2,[sp,#0x70]
        0x0000e696:    f000fe3d    ..=.    BL       uint64_to_str ; 0xf314
        0x0000e69a:    9012        ..      STR      r0,[sp,#0x48]
        0x0000e69c:    981c        ..      LDR      r0,[sp,#0x70]
        0x0000e69e:    b128        (.      CBZ      r0,0xe6ac ; am_util_stdio_vsprintf + 1400
        0x0000e6a0:    e7ff        ..      B        0xe6a2 ; am_util_stdio_vsprintf + 1390
        0x0000e6a2:    9912        ..      LDR      r1,[sp,#0x48]
        0x0000e6a4:    981c        ..      LDR      r0,[sp,#0x70]
        0x0000e6a6:    4408        .D      ADD      r0,r0,r1
        0x0000e6a8:    901c        ..      STR      r0,[sp,#0x70]
        0x0000e6aa:    e7ff        ..      B        0xe6ac ; am_util_stdio_vsprintf + 1400
        0x0000e6ac:    9912        ..      LDR      r1,[sp,#0x48]
        0x0000e6ae:    9814        ..      LDR      r0,[sp,#0x50]
        0x0000e6b0:    4408        .D      ADD      r0,r0,r1
        0x0000e6b2:    9014        ..      STR      r0,[sp,#0x50]
        0x0000e6b4:    e059        Y.      B        0xe76a ; am_util_stdio_vsprintf + 1590
        0x0000e6b6:    981c        ..      LDR      r0,[sp,#0x70]
        0x0000e6b8:    2800        .(      CMP      r0,#0
        0x0000e6ba:    d047        G.      BEQ      0xe74c ; am_util_stdio_vsprintf + 1560
        0x0000e6bc:    e7ff        ..      B        0xe6be ; am_util_stdio_vsprintf + 1418
        0x0000e6be:    981d        ..      LDR      r0,[sp,#0x74]
        0x0000e6c0:    3007        .0      ADDS     r0,#7
        0x0000e6c2:    f0200007     ...    BIC      r0,r0,#7
        0x0000e6c6:    f1000108    ....    ADD      r1,r0,#8
        0x0000e6ca:    911d        ..      STR      r1,[sp,#0x74]
        0x0000e6cc:    ed900b00    ....    VLDR     d0,[r0,#0]
        0x0000e6d0:    ec510b10    Q...    VMOV     r0,r1,d0
        0x0000e6d4:    f000fe62    ..b.    BL       __aeabi_d2f ; 0xf39c
        0x0000e6d8:    900d        ..      STR      r0,[sp,#0x34]
        0x0000e6da:    991c        ..      LDR      r1,[sp,#0x70]
        0x0000e6dc:    2014        .       MOVS     r0,#0x14
        0x0000e6de:    6008        .`      STR      r0,[r1,#0]
        0x0000e6e0:    ed9d0a0d    ....    VLDR     s0,[sp,#0x34]
        0x0000e6e4:    981c        ..      LDR      r0,[sp,#0x70]
        0x0000e6e6:    9911        ..      LDR      r1,[sp,#0x44]
        0x0000e6e8:    f000f92e    ....    BL       ftoa ; 0xe948
        0x0000e6ec:    9012        ..      STR      r0,[sp,#0x48]
        0x0000e6ee:    9812        ..      LDR      r0,[sp,#0x48]
        0x0000e6f0:    f1b03fff    ...?    CMP      r0,#0xffffffff
        0x0000e6f4:    dc21        !.      BGT      0xe73a ; am_util_stdio_vsprintf + 1542
        0x0000e6f6:    e7ff        ..      B        0xe6f8 ; am_util_stdio_vsprintf + 1476
        0x0000e6f8:    9812        ..      LDR      r0,[sp,#0x48]
        0x0000e6fa:    3001        .0      ADDS     r0,#1
        0x0000e6fc:    b930        0.      CBNZ     r0,0xe70c ; am_util_stdio_vsprintf + 1496
        0x0000e6fe:    e7ff        ..      B        0xe700 ; am_util_stdio_vsprintf + 1484
        0x0000e700:    f6426030    B.0`    MOV      r0,#0x2e30
        0x0000e704:    f2c00030    ..0.    MOVT     r0,#0x30
        0x0000e708:    900c        ..      STR      r0,[sp,#0x30]
        0x0000e70a:    e010        ..      B        0xe72e ; am_util_stdio_vsprintf + 1530
        0x0000e70c:    9812        ..      LDR      r0,[sp,#0x48]
        0x0000e70e:    3002        .0      ADDS     r0,#2
        0x0000e710:    b930        0.      CBNZ     r0,0xe720 ; am_util_stdio_vsprintf + 1516
        0x0000e712:    e7ff        ..      B        0xe714 ; am_util_stdio_vsprintf + 1504
        0x0000e714:    f6426023    B.#`    MOV      r0,#0x2e23
        0x0000e718:    f2c00023    ..#.    MOVT     r0,#0x23
        0x0000e71c:    900c        ..      STR      r0,[sp,#0x30]
        0x0000e71e:    e005        ..      B        0xe72c ; am_util_stdio_vsprintf + 1528
        0x0000e720:    f642603f    B.?`    MOV      r0,#0x2e3f
        0x0000e724:    f2c0003f    ..?.    MOVT     r0,#0x3f
        0x0000e728:    900c        ..      STR      r0,[sp,#0x30]
        0x0000e72a:    e7ff        ..      B        0xe72c ; am_util_stdio_vsprintf + 1528
        0x0000e72c:    e7ff        ..      B        0xe72e ; am_util_stdio_vsprintf + 1530
        0x0000e72e:    980c        ..      LDR      r0,[sp,#0x30]
        0x0000e730:    991c        ..      LDR      r1,[sp,#0x70]
        0x0000e732:    6008        .`      STR      r0,[r1,#0]
        0x0000e734:    2003        .       MOVS     r0,#3
        0x0000e736:    9012        ..      STR      r0,[sp,#0x48]
        0x0000e738:    e7ff        ..      B        0xe73a ; am_util_stdio_vsprintf + 1542
        0x0000e73a:    9912        ..      LDR      r1,[sp,#0x48]
        0x0000e73c:    9814        ..      LDR      r0,[sp,#0x50]
        0x0000e73e:    4408        .D      ADD      r0,r0,r1
        0x0000e740:    9014        ..      STR      r0,[sp,#0x50]
        0x0000e742:    9912        ..      LDR      r1,[sp,#0x48]
        0x0000e744:    981c        ..      LDR      r0,[sp,#0x70]
        0x0000e746:    4408        .D      ADD      r0,r0,r1
        0x0000e748:    901c        ..      STR      r0,[sp,#0x70]
        0x0000e74a:    e7ff        ..      B        0xe74c ; am_util_stdio_vsprintf + 1560
        0x0000e74c:    e00d        ..      B        0xe76a ; am_util_stdio_vsprintf + 1590
        0x0000e74e:    981c        ..      LDR      r0,[sp,#0x70]
        0x0000e750:    b138        8.      CBZ      r0,0xe762 ; am_util_stdio_vsprintf + 1582
        0x0000e752:    e7ff        ..      B        0xe754 ; am_util_stdio_vsprintf + 1568
        0x0000e754:    981b        ..      LDR      r0,[sp,#0x6c]
        0x0000e756:    7800        .x      LDRB     r0,[r0,#0]
        0x0000e758:    991c        ..      LDR      r1,[sp,#0x70]
        0x0000e75a:    1c4a        J.      ADDS     r2,r1,#1
        0x0000e75c:    921c        ..      STR      r2,[sp,#0x70]
        0x0000e75e:    7008        .p      STRB     r0,[r1,#0]
        0x0000e760:    e7ff        ..      B        0xe762 ; am_util_stdio_vsprintf + 1582
        0x0000e762:    9814        ..      LDR      r0,[sp,#0x50]
        0x0000e764:    3001        .0      ADDS     r0,#1
        0x0000e766:    9014        ..      STR      r0,[sp,#0x50]
        0x0000e768:    e7ff        ..      B        0xe76a ; am_util_stdio_vsprintf + 1590
        0x0000e76a:    981b        ..      LDR      r0,[sp,#0x6c]
        0x0000e76c:    3001        .0      ADDS     r0,#1
        0x0000e76e:    901b        ..      STR      r0,[sp,#0x6c]
        0x0000e770:    f7ffbce9    ....    B.W      0xe146 ; am_util_stdio_vsprintf + 18
        0x0000e774:    981c        ..      LDR      r0,[sp,#0x70]
        0x0000e776:    b120         .      CBZ      r0,0xe782 ; am_util_stdio_vsprintf + 1614
        0x0000e778:    e7ff        ..      B        0xe77a ; am_util_stdio_vsprintf + 1606
        0x0000e77a:    991c        ..      LDR      r1,[sp,#0x70]
        0x0000e77c:    2000        .       MOVS     r0,#0
        0x0000e77e:    7008        .p      STRB     r0,[r1,#0]
        0x0000e780:    e7ff        ..      B        0xe782 ; am_util_stdio_vsprintf + 1614
        0x0000e782:    9814        ..      LDR      r0,[sp,#0x50]
        0x0000e784:    b01e        ..      ADD      sp,sp,#0x78
        0x0000e786:    bd80        ..      POP      {r7,pc}
    decstr_to_int
        0x0000e788:    b087        ..      SUB      sp,sp,#0x1c
        0x0000e78a:    9006        ..      STR      r0,[sp,#0x18]
        0x0000e78c:    9105        ..      STR      r1,[sp,#0x14]
        0x0000e78e:    2000        .       MOVS     r0,#0
        0x0000e790:    f88d0013    ....    STRB     r0,[sp,#0x13]
        0x0000e794:    9003        ..      STR      r0,[sp,#0xc]
        0x0000e796:    9002        ..      STR      r0,[sp,#8]
        0x0000e798:    9806        ..      LDR      r0,[sp,#0x18]
        0x0000e79a:    7800        .x      LDRB     r0,[r0,#0]
        0x0000e79c:    282d        -(      CMP      r0,#0x2d
        0x0000e79e:    d10a        ..      BNE      0xe7b6 ; decstr_to_int + 46
        0x0000e7a0:    e7ff        ..      B        0xe7a2 ; decstr_to_int + 26
        0x0000e7a2:    2001        .       MOVS     r0,#1
        0x0000e7a4:    f88d0013    ....    STRB     r0,[sp,#0x13]
        0x0000e7a8:    9806        ..      LDR      r0,[sp,#0x18]
        0x0000e7aa:    3001        .0      ADDS     r0,#1
        0x0000e7ac:    9006        ..      STR      r0,[sp,#0x18]
        0x0000e7ae:    9802        ..      LDR      r0,[sp,#8]
        0x0000e7b0:    3001        .0      ADDS     r0,#1
        0x0000e7b2:    9002        ..      STR      r0,[sp,#8]
        0x0000e7b4:    e7ff        ..      B        0xe7b6 ; decstr_to_int + 46
        0x0000e7b6:    e7ff        ..      B        0xe7b8 ; decstr_to_int + 48
        0x0000e7b8:    9806        ..      LDR      r0,[sp,#0x18]
        0x0000e7ba:    7801        .x      LDRB     r1,[r0,#0]
        0x0000e7bc:    2000        .       MOVS     r0,#0
        0x0000e7be:    2930        0)      CMP      r1,#0x30
        0x0000e7c0:    9001        ..      STR      r0,[sp,#4]
        0x0000e7c2:    db08        ..      BLT      0xe7d6 ; decstr_to_int + 78
        0x0000e7c4:    e7ff        ..      B        0xe7c6 ; decstr_to_int + 62
        0x0000e7c6:    9806        ..      LDR      r0,[sp,#0x18]
        0x0000e7c8:    7801        .x      LDRB     r1,[r0,#0]
        0x0000e7ca:    2000        .       MOVS     r0,#0
        0x0000e7cc:    293a        :)      CMP      r1,#0x3a
        0x0000e7ce:    bfb8        ..      IT       LT
        0x0000e7d0:    2001        .       MOVLT    r0,#1
        0x0000e7d2:    9001        ..      STR      r0,[sp,#4]
        0x0000e7d4:    e7ff        ..      B        0xe7d6 ; decstr_to_int + 78
        0x0000e7d6:    9801        ..      LDR      r0,[sp,#4]
        0x0000e7d8:    07c0        ..      LSLS     r0,r0,#31
        0x0000e7da:    b190        ..      CBZ      r0,0xe802 ; decstr_to_int + 122
        0x0000e7dc:    e7ff        ..      B        0xe7de ; decstr_to_int + 86
        0x0000e7de:    9802        ..      LDR      r0,[sp,#8]
        0x0000e7e0:    3001        .0      ADDS     r0,#1
        0x0000e7e2:    9002        ..      STR      r0,[sp,#8]
        0x0000e7e4:    9803        ..      LDR      r0,[sp,#0xc]
        0x0000e7e6:    eb000080    ....    ADD      r0,r0,r0,LSL #2
        0x0000e7ea:    0040        @.      LSLS     r0,r0,#1
        0x0000e7ec:    9003        ..      STR      r0,[sp,#0xc]
        0x0000e7ee:    9806        ..      LDR      r0,[sp,#0x18]
        0x0000e7f0:    7800        .x      LDRB     r0,[r0,#0]
        0x0000e7f2:    9903        ..      LDR      r1,[sp,#0xc]
        0x0000e7f4:    4408        .D      ADD      r0,r0,r1
        0x0000e7f6:    3830        08      SUBS     r0,r0,#0x30
        0x0000e7f8:    9003        ..      STR      r0,[sp,#0xc]
        0x0000e7fa:    9806        ..      LDR      r0,[sp,#0x18]
        0x0000e7fc:    3001        .0      ADDS     r0,#1
        0x0000e7fe:    9006        ..      STR      r0,[sp,#0x18]
        0x0000e800:    e7da        ..      B        0xe7b8 ; decstr_to_int + 48
        0x0000e802:    9805        ..      LDR      r0,[sp,#0x14]
        0x0000e804:    b120         .      CBZ      r0,0xe810 ; decstr_to_int + 136
        0x0000e806:    e7ff        ..      B        0xe808 ; decstr_to_int + 128
        0x0000e808:    9802        ..      LDR      r0,[sp,#8]
        0x0000e80a:    9905        ..      LDR      r1,[sp,#0x14]
        0x0000e80c:    6008        .`      STR      r0,[r1,#0]
        0x0000e80e:    e7ff        ..      B        0xe810 ; decstr_to_int + 136
        0x0000e810:    f89d0013    ....    LDRB     r0,[sp,#0x13]
        0x0000e814:    07c0        ..      LSLS     r0,r0,#31
        0x0000e816:    b120         .      CBZ      r0,0xe822 ; decstr_to_int + 154
        0x0000e818:    e7ff        ..      B        0xe81a ; decstr_to_int + 146
        0x0000e81a:    9803        ..      LDR      r0,[sp,#0xc]
        0x0000e81c:    4240        @B      RSBS     r0,r0,#0
        0x0000e81e:    9000        ..      STR      r0,[sp,#0]
        0x0000e820:    e002        ..      B        0xe828 ; decstr_to_int + 160
        0x0000e822:    9803        ..      LDR      r0,[sp,#0xc]
        0x0000e824:    9000        ..      STR      r0,[sp,#0]
        0x0000e826:    e7ff        ..      B        0xe828 ; decstr_to_int + 160
        0x0000e828:    9800        ..      LDR      r0,[sp,#0]
        0x0000e82a:    b007        ..      ADD      sp,sp,#0x1c
        0x0000e82c:    4770        pG      BX       lr
        0x0000e82e:    0000        ..      MOVS     r0,r0
    divu64_10
        0x0000e830:    b08c        ..      SUB      sp,sp,#0x30
        0x0000e832:    9109        ..      STR      r1,[sp,#0x24]
        0x0000e834:    9008        ..      STR      r0,[sp,#0x20]
        0x0000e836:    9809        ..      LDR      r0,[sp,#0x24]
        0x0000e838:    2800        .(      CMP      r0,#0
        0x0000e83a:    d05b        [.      BEQ      0xe8f4 ; divu64_10 + 196
        0x0000e83c:    e7ff        ..      B        0xe83e ; divu64_10 + 14
        0x0000e83e:    9b08        ..      LDR      r3,[sp,#0x20]
        0x0000e840:    9a09        ..      LDR      r2,[sp,#0x24]
        0x0000e842:    ea5f0052    _.R.    LSRS.W   r0,r2,#1
        0x0000e846:    ea4f0133    O.3.    RRX      r1,r3
        0x0000e84a:    089b        ..      LSRS     r3,r3,#2
        0x0000e84c:    ea437382    C..s    ORR      r3,r3,r2,LSL #30
        0x0000e850:    18c9        ..      ADDS     r1,r1,r3
        0x0000e852:    eb400092    @...    ADC      r0,r0,r2,LSR #2
        0x0000e856:    9106        ..      STR      r1,[sp,#0x18]
        0x0000e858:    9007        ..      STR      r0,[sp,#0x1c]
        0x0000e85a:    9906        ..      LDR      r1,[sp,#0x18]
        0x0000e85c:    9807        ..      LDR      r0,[sp,#0x1c]
        0x0000e85e:    090a        ..      LSRS     r2,r1,#4
        0x0000e860:    ea427200    B..r    ORR      r2,r2,r0,LSL #28
        0x0000e864:    1889        ..      ADDS     r1,r1,r2
        0x0000e866:    eb401010    @...    ADC      r0,r0,r0,LSR #4
        0x0000e86a:    9106        ..      STR      r1,[sp,#0x18]
        0x0000e86c:    9007        ..      STR      r0,[sp,#0x1c]
        0x0000e86e:    9906        ..      LDR      r1,[sp,#0x18]
        0x0000e870:    9807        ..      LDR      r0,[sp,#0x1c]
        0x0000e872:    0a0a        ..      LSRS     r2,r1,#8
        0x0000e874:    ea426200    B..b    ORR      r2,r2,r0,LSL #24
        0x0000e878:    1889        ..      ADDS     r1,r1,r2
        0x0000e87a:    eb402010    @..     ADC      r0,r0,r0,LSR #8
        0x0000e87e:    9106        ..      STR      r1,[sp,#0x18]
        0x0000e880:    9007        ..      STR      r0,[sp,#0x1c]
        0x0000e882:    9906        ..      LDR      r1,[sp,#0x18]
        0x0000e884:    9807        ..      LDR      r0,[sp,#0x1c]
        0x0000e886:    0c0a        ..      LSRS     r2,r1,#16
        0x0000e888:    ea424200    B..B    ORR      r2,r2,r0,LSL #16
        0x0000e88c:    1889        ..      ADDS     r1,r1,r2
        0x0000e88e:    eb404010    @..@    ADC      r0,r0,r0,LSR #16
        0x0000e892:    9106        ..      STR      r1,[sp,#0x18]
        0x0000e894:    9007        ..      STR      r0,[sp,#0x1c]
        0x0000e896:    9906        ..      LDR      r1,[sp,#0x18]
        0x0000e898:    9807        ..      LDR      r0,[sp,#0x1c]
        0x0000e89a:    1809        ..      ADDS     r1,r1,r0
        0x0000e89c:    f1400000    @...    ADC      r0,r0,#0
        0x0000e8a0:    9106        ..      STR      r1,[sp,#0x18]
        0x0000e8a2:    9007        ..      STR      r0,[sp,#0x1c]
        0x0000e8a4:    9806        ..      LDR      r0,[sp,#0x18]
        0x0000e8a6:    9907        ..      LDR      r1,[sp,#0x1c]
        0x0000e8a8:    08c0        ..      LSRS     r0,r0,#3
        0x0000e8aa:    ea407041    @.Ap    ORR      r0,r0,r1,LSL #29
        0x0000e8ae:    08c9        ..      LSRS     r1,r1,#3
        0x0000e8b0:    9107        ..      STR      r1,[sp,#0x1c]
        0x0000e8b2:    9006        ..      STR      r0,[sp,#0x18]
        0x0000e8b4:    9908        ..      LDR      r1,[sp,#0x20]
        0x0000e8b6:    9809        ..      LDR      r0,[sp,#0x24]
        0x0000e8b8:    9a06        ..      LDR      r2,[sp,#0x18]
        0x0000e8ba:    f8ddc01c    ....    LDR      r12,[sp,#0x1c]
        0x0000e8be:    230a        .#      MOVS     r3,#0xa
        0x0000e8c0:    fba23203    ...2    UMULL    r3,r2,r2,r3
        0x0000e8c4:    eb0c0c8c    ....    ADD      r12,r12,r12,LSL #2
        0x0000e8c8:    eb02024c    ..L.    ADD      r2,r2,r12,LSL #1
        0x0000e8cc:    1ac9        ..      SUBS     r1,r1,r3
        0x0000e8ce:    4190        .A      SBCS     r0,r0,r2
        0x0000e8d0:    9104        ..      STR      r1,[sp,#0x10]
        0x0000e8d2:    9005        ..      STR      r0,[sp,#0x14]
        0x0000e8d4:    9906        ..      LDR      r1,[sp,#0x18]
        0x0000e8d6:    9807        ..      LDR      r0,[sp,#0x1c]
        0x0000e8d8:    9b04        ..      LDR      r3,[sp,#0x10]
        0x0000e8da:    9a05        ..      LDR      r2,[sp,#0x14]
        0x0000e8dc:    3306        .3      ADDS     r3,#6
        0x0000e8de:    f1420200    B...    ADC      r2,r2,#0
        0x0000e8e2:    091b        ..      LSRS     r3,r3,#4
        0x0000e8e4:    ea437302    C..s    ORR      r3,r3,r2,LSL #28
        0x0000e8e8:    18c9        ..      ADDS     r1,r1,r3
        0x0000e8ea:    eb401012    @...    ADC      r0,r0,r2,LSR #4
        0x0000e8ee:    910a        ..      STR      r1,[sp,#0x28]
        0x0000e8f0:    900b        ..      STR      r0,[sp,#0x2c]
        0x0000e8f2:    e025        %.      B        0xe940 ; divu64_10 + 272
        0x0000e8f4:    9808        ..      LDR      r0,[sp,#0x20]
        0x0000e8f6:    9001        ..      STR      r0,[sp,#4]
        0x0000e8f8:    9901        ..      LDR      r1,[sp,#4]
        0x0000e8fa:    0848        H.      LSRS     r0,r1,#1
        0x0000e8fc:    eb000091    ....    ADD      r0,r0,r1,LSR #2
        0x0000e900:    9003        ..      STR      r0,[sp,#0xc]
        0x0000e902:    9803        ..      LDR      r0,[sp,#0xc]
        0x0000e904:    eb001010    ....    ADD      r0,r0,r0,LSR #4
        0x0000e908:    9003        ..      STR      r0,[sp,#0xc]
        0x0000e90a:    9803        ..      LDR      r0,[sp,#0xc]
        0x0000e90c:    eb002010    ...     ADD      r0,r0,r0,LSR #8
        0x0000e910:    9003        ..      STR      r0,[sp,#0xc]
        0x0000e912:    9803        ..      LDR      r0,[sp,#0xc]
        0x0000e914:    eb004010    ...@    ADD      r0,r0,r0,LSR #16
        0x0000e918:    9003        ..      STR      r0,[sp,#0xc]
        0x0000e91a:    9803        ..      LDR      r0,[sp,#0xc]
        0x0000e91c:    08c0        ..      LSRS     r0,r0,#3
        0x0000e91e:    9003        ..      STR      r0,[sp,#0xc]
        0x0000e920:    9801        ..      LDR      r0,[sp,#4]
        0x0000e922:    9903        ..      LDR      r1,[sp,#0xc]
        0x0000e924:    eb010181    ....    ADD      r1,r1,r1,LSL #2
        0x0000e928:    eba00041    ..A.    SUB      r0,r0,r1,LSL #1
        0x0000e92c:    9002        ..      STR      r0,[sp,#8]
        0x0000e92e:    9803        ..      LDR      r0,[sp,#0xc]
        0x0000e930:    9902        ..      LDR      r1,[sp,#8]
        0x0000e932:    3106        .1      ADDS     r1,#6
        0x0000e934:    eb001011    ....    ADD      r0,r0,r1,LSR #4
        0x0000e938:    2100        .!      MOVS     r1,#0
        0x0000e93a:    910b        ..      STR      r1,[sp,#0x2c]
        0x0000e93c:    900a        ..      STR      r0,[sp,#0x28]
        0x0000e93e:    e7ff        ..      B        0xe940 ; divu64_10 + 272
        0x0000e940:    980a        ..      LDR      r0,[sp,#0x28]
        0x0000e942:    990b        ..      LDR      r1,[sp,#0x2c]
        0x0000e944:    b00c        ..      ADD      sp,sp,#0x30
        0x0000e946:    4770        pG      BX       lr
    ftoa
        0x0000e948:    b580        ..      PUSH     {r7,lr}
        0x0000e94a:    b090        ..      SUB      sp,sp,#0x40
        0x0000e94c:    ed8d0a0e    ....    VSTR     s0,[sp,#0x38]
        0x0000e950:    900d        ..      STR      r0,[sp,#0x34]
        0x0000e952:    910c        ..      STR      r1,[sp,#0x30]
        0x0000e954:    980d        ..      LDR      r0,[sp,#0x34]
        0x0000e956:    6800        .h      LDR      r0,[r0,#0]
        0x0000e958:    9009        ..      STR      r0,[sp,#0x24]
        0x0000e95a:    9809        ..      LDR      r0,[sp,#0x24]
        0x0000e95c:    2803        .(      CMP      r0,#3
        0x0000e95e:    dc04        ..      BGT      0xe96a ; ftoa + 34
        0x0000e960:    e7ff        ..      B        0xe962 ; ftoa + 26
        0x0000e962:    f06f0002    o...    MVN      r0,#2
        0x0000e966:    900f        ..      STR      r0,[sp,#0x3c]
        0x0000e968:    e103        ..      B        0xeb72 ; ftoa + 554
        0x0000e96a:    ed9d0a0e    ....    VLDR     s0,[sp,#0x38]
        0x0000e96e:    eeb50a40    ..@.    VCMP.F32 s0,#0.0
        0x0000e972:    eef1fa10    ....    VMRS     APSR_nzcv,FPSCR
        0x0000e976:    d109        ..      BNE      0xe98c ; ftoa + 68
        0x0000e978:    e7ff        ..      B        0xe97a ; ftoa + 50
        0x0000e97a:    990d        ..      LDR      r1,[sp,#0x34]
        0x0000e97c:    f6426030    B.0`    MOV      r0,#0x2e30
        0x0000e980:    f2c00030    ..0.    MOVT     r0,#0x30
        0x0000e984:    6008        .`      STR      r0,[r1,#0]
        0x0000e986:    2003        .       MOVS     r0,#3
        0x0000e988:    900f        ..      STR      r0,[sp,#0x3c]
        0x0000e98a:    e0f2        ..      B        0xeb72 ; ftoa + 554
        0x0000e98c:    980d        ..      LDR      r0,[sp,#0x34]
        0x0000e98e:    9005        ..      STR      r0,[sp,#0x14]
        0x0000e990:    980e        ..      LDR      r0,[sp,#0x38]
        0x0000e992:    900b        ..      STR      r0,[sp,#0x2c]
        0x0000e994:    980b        ..      LDR      r0,[sp,#0x2c]
        0x0000e996:    0dc1        ..      LSRS     r1,r0,#23
        0x0000e998:    f06f007e    o.~.    MVN      r0,#0x7e
        0x0000e99c:    fa50f081    P...    UXTAB    r0,r0,r1
        0x0000e9a0:    900a        ..      STR      r0,[sp,#0x28]
        0x0000e9a2:    980b        ..      LDR      r0,[sp,#0x2c]
        0x0000e9a4:    f4400000    @...    ORR      r0,r0,#0x800000
        0x0000e9a8:    f020407f     ..@    BIC      r0,r0,#0xff000000
        0x0000e9ac:    9008        ..      STR      r0,[sp,#0x20]
        0x0000e9ae:    2000        .       MOVS     r0,#0
        0x0000e9b0:    9006        ..      STR      r0,[sp,#0x18]
        0x0000e9b2:    9007        ..      STR      r0,[sp,#0x1c]
        0x0000e9b4:    980a        ..      LDR      r0,[sp,#0x28]
        0x0000e9b6:    281f        .(      CMP      r0,#0x1f
        0x0000e9b8:    db04        ..      BLT      0xe9c4 ; ftoa + 124
        0x0000e9ba:    e7ff        ..      B        0xe9bc ; ftoa + 116
        0x0000e9bc:    f06f0001    o...    MVN      r0,#1
        0x0000e9c0:    900f        ..      STR      r0,[sp,#0x3c]
        0x0000e9c2:    e0d6        ..      B        0xeb72 ; ftoa + 554
        0x0000e9c4:    980a        ..      LDR      r0,[sp,#0x28]
        0x0000e9c6:    f1100f18    ....    CMN      r0,#0x18
        0x0000e9ca:    dc04        ..      BGT      0xe9d6 ; ftoa + 142
        0x0000e9cc:    e7ff        ..      B        0xe9ce ; ftoa + 134
        0x0000e9ce:    f04f30ff    O..0    MOV      r0,#0xffffffff
        0x0000e9d2:    900f        ..      STR      r0,[sp,#0x3c]
        0x0000e9d4:    e0cd        ..      B        0xeb72 ; ftoa + 554
        0x0000e9d6:    980a        ..      LDR      r0,[sp,#0x28]
        0x0000e9d8:    2817        .(      CMP      r0,#0x17
        0x0000e9da:    db06        ..      BLT      0xe9ea ; ftoa + 162
        0x0000e9dc:    e7ff        ..      B        0xe9de ; ftoa + 150
        0x0000e9de:    9808        ..      LDR      r0,[sp,#0x20]
        0x0000e9e0:    990a        ..      LDR      r1,[sp,#0x28]
        0x0000e9e2:    3917        .9      SUBS     r1,r1,#0x17
        0x0000e9e4:    4088        .@      LSLS     r0,r0,r1
        0x0000e9e6:    9007        ..      STR      r0,[sp,#0x1c]
        0x0000e9e8:    e01a        ..      B        0xea20 ; ftoa + 216
        0x0000e9ea:    980a        ..      LDR      r0,[sp,#0x28]
        0x0000e9ec:    2800        .(      CMP      r0,#0
        0x0000e9ee:    d40e        ..      BMI      0xea0e ; ftoa + 198
        0x0000e9f0:    e7ff        ..      B        0xe9f2 ; ftoa + 170
        0x0000e9f2:    9808        ..      LDR      r0,[sp,#0x20]
        0x0000e9f4:    990a        ..      LDR      r1,[sp,#0x28]
        0x0000e9f6:    f1c10117    ....    RSB      r1,r1,#0x17
        0x0000e9fa:    4108        .A      ASRS     r0,r0,r1
        0x0000e9fc:    9007        ..      STR      r0,[sp,#0x1c]
        0x0000e9fe:    9808        ..      LDR      r0,[sp,#0x20]
        0x0000ea00:    990a        ..      LDR      r1,[sp,#0x28]
        0x0000ea02:    3101        .1      ADDS     r1,#1
        0x0000ea04:    4088        .@      LSLS     r0,r0,r1
        0x0000ea06:    f020407f     ..@    BIC      r0,r0,#0xff000000
        0x0000ea0a:    9006        ..      STR      r0,[sp,#0x18]
        0x0000ea0c:    e007        ..      B        0xea1e ; ftoa + 214
        0x0000ea0e:    9808        ..      LDR      r0,[sp,#0x20]
        0x0000ea10:    f020407f     ..@    BIC      r0,r0,#0xff000000
        0x0000ea14:    990a        ..      LDR      r1,[sp,#0x28]
        0x0000ea16:    43c9        .C      MVNS     r1,r1
        0x0000ea18:    40c8        .@      LSRS     r0,r0,r1
        0x0000ea1a:    9006        ..      STR      r0,[sp,#0x18]
        0x0000ea1c:    e7ff        ..      B        0xea1e ; ftoa + 214
        0x0000ea1e:    e7ff        ..      B        0xea20 ; ftoa + 216
        0x0000ea20:    e7ff        ..      B        0xea22 ; ftoa + 218
        0x0000ea22:    e7ff        ..      B        0xea24 ; ftoa + 220
        0x0000ea24:    980b        ..      LDR      r0,[sp,#0x2c]
        0x0000ea26:    f1b03fff    ...?    CMP      r0,#0xffffffff
        0x0000ea2a:    dc06        ..      BGT      0xea3a ; ftoa + 242
        0x0000ea2c:    e7ff        ..      B        0xea2e ; ftoa + 230
        0x0000ea2e:    990d        ..      LDR      r1,[sp,#0x34]
        0x0000ea30:    1c48        H.      ADDS     r0,r1,#1
        0x0000ea32:    900d        ..      STR      r0,[sp,#0x34]
        0x0000ea34:    202d        -       MOVS     r0,#0x2d
        0x0000ea36:    7008        .p      STRB     r0,[r1,#0]
        0x0000ea38:    e7ff        ..      B        0xea3a ; ftoa + 242
        0x0000ea3a:    9807        ..      LDR      r0,[sp,#0x1c]
        0x0000ea3c:    b930        0.      CBNZ     r0,0xea4c ; ftoa + 260
        0x0000ea3e:    e7ff        ..      B        0xea40 ; ftoa + 248
        0x0000ea40:    990d        ..      LDR      r1,[sp,#0x34]
        0x0000ea42:    1c48        H.      ADDS     r0,r1,#1
        0x0000ea44:    900d        ..      STR      r0,[sp,#0x34]
        0x0000ea46:    2030        0       MOVS     r0,#0x30
        0x0000ea48:    7008        .p      STRB     r0,[r1,#0]
        0x0000ea4a:    e01f        ..      B        0xea8c ; ftoa + 324
        0x0000ea4c:    9807        ..      LDR      r0,[sp,#0x1c]
        0x0000ea4e:    2801        .(      CMP      r0,#1
        0x0000ea50:    db06        ..      BLT      0xea60 ; ftoa + 280
        0x0000ea52:    e7ff        ..      B        0xea54 ; ftoa + 268
        0x0000ea54:    9807        ..      LDR      r0,[sp,#0x1c]
        0x0000ea56:    17c1        ..      ASRS     r1,r0,#31
        0x0000ea58:    9a0d        ..      LDR      r2,[sp,#0x34]
        0x0000ea5a:    f000fc5b    ..[.    BL       uint64_to_str ; 0xf314
        0x0000ea5e:    e00b        ..      B        0xea78 ; ftoa + 304
        0x0000ea60:    990d        ..      LDR      r1,[sp,#0x34]
        0x0000ea62:    1c48        H.      ADDS     r0,r1,#1
        0x0000ea64:    900d        ..      STR      r0,[sp,#0x34]
        0x0000ea66:    202d        -       MOVS     r0,#0x2d
        0x0000ea68:    7008        .p      STRB     r0,[r1,#0]
        0x0000ea6a:    9807        ..      LDR      r0,[sp,#0x1c]
        0x0000ea6c:    4240        @B      RSBS     r0,r0,#0
        0x0000ea6e:    17c1        ..      ASRS     r1,r0,#31
        0x0000ea70:    9a0d        ..      LDR      r2,[sp,#0x34]
        0x0000ea72:    f000fc4f    ..O.    BL       uint64_to_str ; 0xf314
        0x0000ea76:    e7ff        ..      B        0xea78 ; ftoa + 304
        0x0000ea78:    e7ff        ..      B        0xea7a ; ftoa + 306
        0x0000ea7a:    980d        ..      LDR      r0,[sp,#0x34]
        0x0000ea7c:    7800        .x      LDRB     r0,[r0,#0]
        0x0000ea7e:    b120         .      CBZ      r0,0xea8a ; ftoa + 322
        0x0000ea80:    e7ff        ..      B        0xea82 ; ftoa + 314
        0x0000ea82:    980d        ..      LDR      r0,[sp,#0x34]
        0x0000ea84:    3001        .0      ADDS     r0,#1
        0x0000ea86:    900d        ..      STR      r0,[sp,#0x34]
        0x0000ea88:    e7f7        ..      B        0xea7a ; ftoa + 306
        0x0000ea8a:    e7ff        ..      B        0xea8c ; ftoa + 324
        0x0000ea8c:    990d        ..      LDR      r1,[sp,#0x34]
        0x0000ea8e:    1c48        H.      ADDS     r0,r1,#1
        0x0000ea90:    900d        ..      STR      r0,[sp,#0x34]
        0x0000ea92:    202e        .       MOVS     r0,#0x2e
        0x0000ea94:    7008        .p      STRB     r0,[r1,#0]
        0x0000ea96:    9806        ..      LDR      r0,[sp,#0x18]
        0x0000ea98:    b930        0.      CBNZ     r0,0xeaa8 ; ftoa + 352
        0x0000ea9a:    e7ff        ..      B        0xea9c ; ftoa + 340
        0x0000ea9c:    990d        ..      LDR      r1,[sp,#0x34]
        0x0000ea9e:    1c48        H.      ADDS     r0,r1,#1
        0x0000eaa0:    900d        ..      STR      r0,[sp,#0x34]
        0x0000eaa2:    2030        0       MOVS     r0,#0x30
        0x0000eaa4:    7008        .p      STRB     r0,[r1,#0]
        0x0000eaa6:    e05c        \.      B        0xeb62 ; ftoa + 538
        0x0000eaa8:    9909        ..      LDR      r1,[sp,#0x24]
        0x0000eaaa:    980d        ..      LDR      r0,[sp,#0x34]
        0x0000eaac:    9a05        ..      LDR      r2,[sp,#0x14]
        0x0000eaae:    1a80        ..      SUBS     r0,r0,r2
        0x0000eab0:    43c0        .C      MVNS     r0,r0
        0x0000eab2:    4408        .D      ADD      r0,r0,r1
        0x0000eab4:    9002        ..      STR      r0,[sp,#8]
        0x0000eab6:    9802        ..      LDR      r0,[sp,#8]
        0x0000eab8:    990c        ..      LDR      r1,[sp,#0x30]
        0x0000eaba:    4288        .B      CMP      r0,r1
        0x0000eabc:    dd03        ..      BLE      0xeac6 ; ftoa + 382
        0x0000eabe:    e7ff        ..      B        0xeac0 ; ftoa + 376
        0x0000eac0:    980c        ..      LDR      r0,[sp,#0x30]
        0x0000eac2:    9001        ..      STR      r0,[sp,#4]
        0x0000eac4:    e002        ..      B        0xeacc ; ftoa + 388
        0x0000eac6:    9802        ..      LDR      r0,[sp,#8]
        0x0000eac8:    9001        ..      STR      r0,[sp,#4]
        0x0000eaca:    e7ff        ..      B        0xeacc ; ftoa + 388
        0x0000eacc:    9801        ..      LDR      r0,[sp,#4]
        0x0000eace:    9002        ..      STR      r0,[sp,#8]
        0x0000ead0:    2000        .       MOVS     r0,#0
        0x0000ead2:    9003        ..      STR      r0,[sp,#0xc]
        0x0000ead4:    e7ff        ..      B        0xead6 ; ftoa + 398
        0x0000ead6:    9803        ..      LDR      r0,[sp,#0xc]
        0x0000ead8:    9902        ..      LDR      r1,[sp,#8]
        0x0000eada:    4288        .B      CMP      r0,r1
        0x0000eadc:    da15        ..      BGE      0xeb0a ; ftoa + 450
        0x0000eade:    e7ff        ..      B        0xeae0 ; ftoa + 408
        0x0000eae0:    9806        ..      LDR      r0,[sp,#0x18]
        0x0000eae2:    eb000080    ....    ADD      r0,r0,r0,LSL #2
        0x0000eae6:    0040        @.      LSLS     r0,r0,#1
        0x0000eae8:    9006        ..      STR      r0,[sp,#0x18]
        0x0000eaea:    f89d001b    ....    LDRB     r0,[sp,#0x1b]
        0x0000eaee:    3030        00      ADDS     r0,r0,#0x30
        0x0000eaf0:    990d        ..      LDR      r1,[sp,#0x34]
        0x0000eaf2:    1c4a        J.      ADDS     r2,r1,#1
        0x0000eaf4:    920d        ..      STR      r2,[sp,#0x34]
        0x0000eaf6:    7008        .p      STRB     r0,[r1,#0]
        0x0000eaf8:    9806        ..      LDR      r0,[sp,#0x18]
        0x0000eafa:    f020407f     ..@    BIC      r0,r0,#0xff000000
        0x0000eafe:    9006        ..      STR      r0,[sp,#0x18]
        0x0000eb00:    e7ff        ..      B        0xeb02 ; ftoa + 442
        0x0000eb02:    9803        ..      LDR      r0,[sp,#0xc]
        0x0000eb04:    3001        .0      ADDS     r0,#1
        0x0000eb06:    9003        ..      STR      r0,[sp,#0xc]
        0x0000eb08:    e7e5        ..      B        0xead6 ; ftoa + 398
        0x0000eb0a:    9806        ..      LDR      r0,[sp,#0x18]
        0x0000eb0c:    eb000080    ....    ADD      r0,r0,r0,LSL #2
        0x0000eb10:    f34050c7    @..P    SBFX     r0,r0,#23,#8
        0x0000eb14:    2805        .(      CMP      r0,#5
        0x0000eb16:    db23        #.      BLT      0xeb60 ; ftoa + 536
        0x0000eb18:    e7ff        ..      B        0xeb1a ; ftoa + 466
        0x0000eb1a:    980d        ..      LDR      r0,[sp,#0x34]
        0x0000eb1c:    3801        .8      SUBS     r0,#1
        0x0000eb1e:    9004        ..      STR      r0,[sp,#0x10]
        0x0000eb20:    e7ff        ..      B        0xeb22 ; ftoa + 474
        0x0000eb22:    9804        ..      LDR      r0,[sp,#0x10]
        0x0000eb24:    9905        ..      LDR      r1,[sp,#0x14]
        0x0000eb26:    4288        .B      CMP      r0,r1
        0x0000eb28:    d319        ..      BCC      0xeb5e ; ftoa + 534
        0x0000eb2a:    e7ff        ..      B        0xeb2c ; ftoa + 484
        0x0000eb2c:    9804        ..      LDR      r0,[sp,#0x10]
        0x0000eb2e:    7800        .x      LDRB     r0,[r0,#0]
        0x0000eb30:    282e        .(      CMP      r0,#0x2e
        0x0000eb32:    d101        ..      BNE      0xeb38 ; ftoa + 496
        0x0000eb34:    e7ff        ..      B        0xeb36 ; ftoa + 494
        0x0000eb36:    e00e        ..      B        0xeb56 ; ftoa + 526
        0x0000eb38:    9804        ..      LDR      r0,[sp,#0x10]
        0x0000eb3a:    7800        .x      LDRB     r0,[r0,#0]
        0x0000eb3c:    2839        9(      CMP      r0,#0x39
        0x0000eb3e:    d104        ..      BNE      0xeb4a ; ftoa + 514
        0x0000eb40:    e7ff        ..      B        0xeb42 ; ftoa + 506
        0x0000eb42:    9904        ..      LDR      r1,[sp,#0x10]
        0x0000eb44:    2030        0       MOVS     r0,#0x30
        0x0000eb46:    7008        .p      STRB     r0,[r1,#0]
        0x0000eb48:    e004        ..      B        0xeb54 ; ftoa + 524
        0x0000eb4a:    9904        ..      LDR      r1,[sp,#0x10]
        0x0000eb4c:    7808        .x      LDRB     r0,[r1,#0]
        0x0000eb4e:    3001        .0      ADDS     r0,#1
        0x0000eb50:    7008        .p      STRB     r0,[r1,#0]
        0x0000eb52:    e004        ..      B        0xeb5e ; ftoa + 534
        0x0000eb54:    e7ff        ..      B        0xeb56 ; ftoa + 526
        0x0000eb56:    9804        ..      LDR      r0,[sp,#0x10]
        0x0000eb58:    3801        .8      SUBS     r0,#1
        0x0000eb5a:    9004        ..      STR      r0,[sp,#0x10]
        0x0000eb5c:    e7e1        ..      B        0xeb22 ; ftoa + 474
        0x0000eb5e:    e7ff        ..      B        0xeb60 ; ftoa + 536
        0x0000eb60:    e7ff        ..      B        0xeb62 ; ftoa + 538
        0x0000eb62:    990d        ..      LDR      r1,[sp,#0x34]
        0x0000eb64:    2000        .       MOVS     r0,#0
        0x0000eb66:    7008        .p      STRB     r0,[r1,#0]
        0x0000eb68:    980d        ..      LDR      r0,[sp,#0x34]
        0x0000eb6a:    9905        ..      LDR      r1,[sp,#0x14]
        0x0000eb6c:    1a40        @.      SUBS     r0,r0,r1
        0x0000eb6e:    900f        ..      STR      r0,[sp,#0x3c]
        0x0000eb70:    e7ff        ..      B        0xeb72 ; ftoa + 554
        0x0000eb72:    980f        ..      LDR      r0,[sp,#0x3c]
        0x0000eb74:    b010        ..      ADD      sp,sp,#0x40
        0x0000eb76:    bd80        ..      POP      {r7,pc}
    inform_host
        0x0000eb78:    b580        ..      PUSH     {r7,lr}
        0x0000eb7a:    b084        ..      SUB      sp,sp,#0x10
        0x0000eb7c:    2001        .       MOVS     r0,#1
        0x0000eb7e:    9003        ..      STR      r0,[sp,#0xc]
        0x0000eb80:    f24110a8    A...    MOV      r0,#0x11a8
        0x0000eb84:    f2c10001    ....    MOVT     r0,#0x1001
        0x0000eb88:    9002        ..      STR      r0,[sp,#8]
        0x0000eb8a:    6800        .h      LDR      r0,[r0,#0]
        0x0000eb8c:    2106        .!      MOVS     r1,#6
        0x0000eb8e:    2200        ."      MOVS     r2,#0
        0x0000eb90:    9201        ..      STR      r2,[sp,#4]
        0x0000eb92:    f7fefb9d    ....    BL       am_hal_ios_control ; 0xd2d0
        0x0000eb96:    9901        ..      LDR      r1,[sp,#4]
        0x0000eb98:    9802        ..      LDR      r0,[sp,#8]
        0x0000eb9a:    6800        .h      LDR      r0,[r0,#0]
        0x0000eb9c:    aa03        ..      ADD      r2,sp,#0xc
        0x0000eb9e:    f7fefb97    ....    BL       am_hal_ios_control ; 0xd2d0
        0x0000eba2:    b004        ..      ADD      sp,sp,#0x10
        0x0000eba4:    bd80        ..      POP      {r7,pc}
        0x0000eba6:    0000        ..      MOVS     r0,r0
    init_sensors
        0x0000eba8:    b580        ..      PUSH     {r7,lr}
        0x0000ebaa:    b086        ..      SUB      sp,sp,#0x18
        0x0000ebac:    2000        .       MOVS     r0,#0
        0x0000ebae:    9001        ..      STR      r0,[sp,#4]
        0x0000ebb0:    f64f71ff    O..q    MOV      r1,#0xffff
        0x0000ebb4:    9102        ..      STR      r1,[sp,#8]
        0x0000ebb6:    f7fdff37    ..7.    BL       am_hal_ctimer_clear ; 0xca28
        0x0000ebba:    9801        ..      LDR      r0,[sp,#4]
        0x0000ebbc:    f2410160    A.`.    MOVW     r1,#0x1060
        0x0000ebc0:    f2c10101    ....    MOVT     r1,#0x1001
        0x0000ebc4:    9100        ..      STR      r1,[sp,#0]
        0x0000ebc6:    f7fdff45    ..E.    BL       am_hal_ctimer_config ; 0xca54
        0x0000ebca:    9902        ..      LDR      r1,[sp,#8]
        0x0000ebcc:    2001        .       MOVS     r0,#1
        0x0000ebce:    9003        ..      STR      r0,[sp,#0xc]
        0x0000ebd0:    f7fdff2a    ..*.    BL       am_hal_ctimer_clear ; 0xca28
        0x0000ebd4:    9900        ..      LDR      r1,[sp,#0]
        0x0000ebd6:    9803        ..      LDR      r0,[sp,#0xc]
        0x0000ebd8:    f7fdff3c    ..<.    BL       am_hal_ctimer_config ; 0xca54
        0x0000ebdc:    9801        ..      LDR      r0,[sp,#4]
        0x0000ebde:    9902        ..      LDR      r1,[sp,#8]
        0x0000ebe0:    f44f727a    O.zr    MOV      r2,#0x3e8
        0x0000ebe4:    9205        ..      STR      r2,[sp,#0x14]
        0x0000ebe6:    9a05        ..      LDR      r2,[sp,#0x14]
        0x0000ebe8:    0853        S.      LSRS     r3,r2,#1
        0x0000ebea:    f7fef8a0    ....    BL       am_hal_ctimer_period_set ; 0xcd2e
        0x0000ebee:    9902        ..      LDR      r1,[sp,#8]
        0x0000ebf0:    9803        ..      LDR      r0,[sp,#0xc]
        0x0000ebf2:    f24062b2    @..b    MOV      r2,#0x6b2
        0x0000ebf6:    9205        ..      STR      r2,[sp,#0x14]
        0x0000ebf8:    9a05        ..      LDR      r2,[sp,#0x14]
        0x0000ebfa:    0853        S.      LSRS     r3,r2,#1
        0x0000ebfc:    f7fef897    ....    BL       am_hal_ctimer_period_set ; 0xcd2e
        0x0000ec00:    9803        ..      LDR      r0,[sp,#0xc]
        0x0000ec02:    f7fdff62    ..b.    BL       am_hal_ctimer_int_clear ; 0xcaca
        0x0000ec06:    2004        .       MOVS     r0,#4
        0x0000ec08:    9004        ..      STR      r0,[sp,#0x10]
        0x0000ec0a:    f7fdff5e    ..^.    BL       am_hal_ctimer_int_clear ; 0xcaca
        0x0000ec0e:    9803        ..      LDR      r0,[sp,#0xc]
        0x0000ec10:    f24f2135    O.5!    MOV      r1,#0xf235
        0x0000ec14:    f2c00100    ....    MOVT     r1,#0
        0x0000ec18:    f7fdff7c    ..|.    BL       am_hal_ctimer_int_register ; 0xcb14
        0x0000ec1c:    9804        ..      LDR      r0,[sp,#0x10]
        0x0000ec1e:    f24f2145    O.E!    MOV      r1,#0xf245
        0x0000ec22:    f2c00100    ....    MOVT     r1,#0
        0x0000ec26:    f7fdff75    ..u.    BL       am_hal_ctimer_int_register ; 0xcb14
        0x0000ec2a:    9803        ..      LDR      r0,[sp,#0xc]
        0x0000ec2c:    f7fdff5e    ..^.    BL       am_hal_ctimer_int_enable ; 0xcaec
        0x0000ec30:    9804        ..      LDR      r0,[sp,#0x10]
        0x0000ec32:    f7fdff5b    ..[.    BL       am_hal_ctimer_int_enable ; 0xcaec
        0x0000ec36:    200e        .       MOVS     r0,#0xe
        0x0000ec38:    f7fdfb16    ....    BL       __NVIC_EnableIRQ ; 0xc268
        0x0000ec3c:    f7fefab6    ....    BL       am_hal_interrupt_master_enable ; 0xd1ac
        0x0000ec40:    b006        ..      ADD      sp,sp,#0x18
        0x0000ec42:    bd80        ..      POP      {r7,pc}
    ios_set_up
        0x0000ec44:    b580        ..      PUSH     {r7,lr}
        0x0000ec46:    b088        ..      SUB      sp,sp,#0x20
        0x0000ec48:    f88d001f    ....    STRB     r0,[sp,#0x1f]
        0x0000ec4c:    f89d001f    ....    LDRB     r0,[sp,#0x1f]
        0x0000ec50:    07c0        ..      LSLS     r0,r0,#31
        0x0000ec52:    b1e0        ..      CBZ      r0,0xec8e ; ios_set_up + 74
        0x0000ec54:    e7ff        ..      B        0xec56 ; ios_set_up + 18
        0x0000ec56:    2000        .       MOVS     r0,#0
        0x0000ec58:    9005        ..      STR      r0,[sp,#0x14]
        0x0000ec5a:    2101        .!      MOVS     r1,#1
        0x0000ec5c:    f7fdfb1c    ....    BL       am_bsp_ios_pins_enable ; 0xc298
        0x0000ec60:    9805        ..      LDR      r0,[sp,#0x14]
        0x0000ec62:    f24111a8    A...    MOV      r1,#0x11a8
        0x0000ec66:    f2c10101    ....    MOVT     r1,#0x1001
        0x0000ec6a:    9106        ..      STR      r1,[sp,#0x18]
        0x0000ec6c:    f7fefcb2    ....    BL       am_hal_ios_initialize ; 0xd5d4
        0x0000ec70:    9a05        ..      LDR      r2,[sp,#0x14]
        0x0000ec72:    9806        ..      LDR      r0,[sp,#0x18]
        0x0000ec74:    6800        .h      LDR      r0,[r0,#0]
        0x0000ec76:    4611        .F      MOV      r1,r2
        0x0000ec78:    f7fefde3    ....    BL       am_hal_ios_power_ctrl ; 0xd842
        0x0000ec7c:    9806        ..      LDR      r0,[sp,#0x18]
        0x0000ec7e:    6800        .h      LDR      r0,[r0,#0]
        0x0000ec80:    f2410144    A.D.    MOV      r1,#0x1044
        0x0000ec84:    f2c10101    ....    MOVT     r1,#0x1001
        0x0000ec88:    f7fefa97    ....    BL       am_hal_ios_configure ; 0xd1ba
        0x0000ec8c:    e01b        ..      B        0xecc6 ; ios_set_up + 130
        0x0000ec8e:    2100        .!      MOVS     r1,#0
        0x0000ec90:    9103        ..      STR      r1,[sp,#0xc]
        0x0000ec92:    4608        .F      MOV      r0,r1
        0x0000ec94:    f7fdfb00    ....    BL       am_bsp_ios_pins_enable ; 0xc298
        0x0000ec98:    9803        ..      LDR      r0,[sp,#0xc]
        0x0000ec9a:    f24111a8    A...    MOV      r1,#0x11a8
        0x0000ec9e:    f2c10101    ....    MOVT     r1,#0x1001
        0x0000eca2:    9104        ..      STR      r1,[sp,#0x10]
        0x0000eca4:    f7fefc96    ....    BL       am_hal_ios_initialize ; 0xd5d4
        0x0000eca8:    9a03        ..      LDR      r2,[sp,#0xc]
        0x0000ecaa:    9804        ..      LDR      r0,[sp,#0x10]
        0x0000ecac:    6800        .h      LDR      r0,[r0,#0]
        0x0000ecae:    4611        .F      MOV      r1,r2
        0x0000ecb0:    f7fefdc7    ....    BL       am_hal_ios_power_ctrl ; 0xd842
        0x0000ecb4:    9804        ..      LDR      r0,[sp,#0x10]
        0x0000ecb6:    6800        .h      LDR      r0,[r0,#0]
        0x0000ecb8:    f2410128    A.(.    MOV      r1,#0x1028
        0x0000ecbc:    f2c10101    ....    MOVT     r1,#0x1001
        0x0000ecc0:    f7fefa7b    ..{.    BL       am_hal_ios_configure ; 0xd1ba
        0x0000ecc4:    e7ff        ..      B        0xecc6 ; ios_set_up + 130
        0x0000ecc6:    f24110a8    A...    MOV      r0,#0x11a8
        0x0000ecca:    f2c10001    ....    MOVT     r0,#0x1001
        0x0000ecce:    9001        ..      STR      r0,[sp,#4]
        0x0000ecd0:    6800        .h      LDR      r0,[r0,#0]
        0x0000ecd2:    f04f31ff    O..1    MOV      r1,#0xffffffff
        0x0000ecd6:    f7fefc97    ....    BL       am_hal_ios_interrupt_clear ; 0xd608
        0x0000ecda:    9801        ..      LDR      r0,[sp,#4]
        0x0000ecdc:    6800        .h      LDR      r0,[r0,#0]
        0x0000ecde:    210f        .!      MOVS     r1,#0xf
        0x0000ece0:    f7fefca5    ....    BL       am_hal_ios_interrupt_enable ; 0xd62e
        0x0000ece4:    9801        ..      LDR      r0,[sp,#4]
        0x0000ece6:    6800        .h      LDR      r0,[r0,#0]
        0x0000ece8:    f44f7170    O.pq    MOV      r1,#0x3c0
        0x0000ecec:    f7fefc9f    ....    BL       am_hal_ios_interrupt_enable ; 0xd62e
        0x0000ecf0:    2004        .       MOVS     r0,#4
        0x0000ecf2:    9002        ..      STR      r0,[sp,#8]
        0x0000ecf4:    f7fdfab8    ....    BL       __NVIC_EnableIRQ ; 0xc268
        0x0000ecf8:    9802        ..      LDR      r0,[sp,#8]
        0x0000ecfa:    f24f51a0    O..Q    MOV      r1,#0xf5a0
        0x0000ecfe:    f2c00100    ....    MOVT     r1,#0
        0x0000ed02:    6809        .h      LDR      r1,[r1,#0]
        0x0000ed04:    f7fef8f8    ....    BL       am_hal_gpio_pinconfig ; 0xcef8
        0x0000ed08:    b008        ..      ADD      sp,sp,#0x20
        0x0000ed0a:    bd80        ..      POP      {r7,pc}
    main
        0x0000ed0c:    b580        ..      PUSH     {r7,lr}
        0x0000ed0e:    b088        ..      SUB      sp,sp,#0x20
        0x0000ed10:    2100        .!      MOVS     r1,#0
        0x0000ed12:    9100        ..      STR      r1,[sp,#0]
        0x0000ed14:    9107        ..      STR      r1,[sp,#0x1c]
        0x0000ed16:    4608        .F      MOV      r0,r1
        0x0000ed18:    f7fdfdce    ....    BL       am_hal_clkgen_control ; 0xc8b8
        0x0000ed1c:    f24f40cc    O..@    MOV      r0,#0xf4cc
        0x0000ed20:    f2c00000    ....    MOVT     r0,#0
        0x0000ed24:    f7fdfce4    ....    BL       am_hal_cachectrl_config ; 0xc6f0
        0x0000ed28:    f7fdfdbc    ....    BL       am_hal_cachectrl_enable ; 0xc8a4
        0x0000ed2c:    f7fdfb0e    ....    BL       am_bsp_low_power_init ; 0xc34c
        0x0000ed30:    f7fdfae9    ....    BL       am_bsp_itm_printf_enable ; 0xc306
        0x0000ed34:    f7fff9f6    ....    BL       am_util_stdio_terminal_clear ; 0xe124
        0x0000ed38:    f24f70ca    O..p    MOV      r0,#0xf7ca
        0x0000ed3c:    f2c00000    ....    MOVT     r0,#0
        0x0000ed40:    f7fff9b8    ....    BL       am_util_stdio_printf ; 0xe0b4
        0x0000ed44:    9800        ..      LDR      r0,[sp,#0]
        0x0000ed46:    9006        ..      STR      r0,[sp,#0x18]
        0x0000ed48:    e7ff        ..      B        0xed4a ; main + 62
        0x0000ed4a:    9806        ..      LDR      r0,[sp,#0x18]
        0x0000ed4c:    f5b07f00    ....    CMP      r0,#0x200
        0x0000ed50:    da0b        ..      BGE      0xed6a ; main + 94
        0x0000ed52:    e7ff        ..      B        0xed54 ; main + 72
        0x0000ed54:    9806        ..      LDR      r0,[sp,#0x18]
        0x0000ed56:    f24151b0    A..Q    MOV      r1,#0x15b0
        0x0000ed5a:    f2c10101    ....    MOVT     r1,#0x1001
        0x0000ed5e:    5408        .T      STRB     r0,[r1,r0]
        0x0000ed60:    e7ff        ..      B        0xed62 ; main + 86
        0x0000ed62:    9806        ..      LDR      r0,[sp,#0x18]
        0x0000ed64:    3001        .0      ADDS     r0,#1
        0x0000ed66:    9006        ..      STR      r0,[sp,#0x18]
        0x0000ed68:    e7ef        ..      B        0xed4a ; main + 62
        0x0000ed6a:    f7ffff1d    ....    BL       init_sensors ; 0xeba8
        0x0000ed6e:    2001        .       MOVS     r0,#1
        0x0000ed70:    f7ffff68    ..h.    BL       ios_set_up ; 0xec44
        0x0000ed74:    f7fefa1a    ....    BL       am_hal_interrupt_master_enable ; 0xd1ac
        0x0000ed78:    e7ff        ..      B        0xed7a ; main + 110
        0x0000ed7a:    2000        .       MOVS     r0,#0
        0x0000ed7c:    9005        ..      STR      r0,[sp,#0x14]
        0x0000ed7e:    9004        ..      STR      r0,[sp,#0x10]
        0x0000ed80:    9002        ..      STR      r0,[sp,#8]
        0x0000ed82:    f7fefa0f    ....    BL       am_hal_interrupt_master_disable ; 0xd1a4
        0x0000ed86:    9001        ..      STR      r0,[sp,#4]
        0x0000ed88:    f24110a2    A...    MOV      r0,#0x11a2
        0x0000ed8c:    f2c10001    ....    MOVT     r0,#0x1001
        0x0000ed90:    7800        .x      LDRB     r0,[r0,#0]
        0x0000ed92:    07c0        ..      LSLS     r0,r0,#31
        0x0000ed94:    b950        P.      CBNZ     r0,0xedac ; main + 160
        0x0000ed96:    e7ff        ..      B        0xed98 ; main + 140
        0x0000ed98:    f24110a3    A...    MOV      r0,#0x11a3
        0x0000ed9c:    f2c10001    ....    MOVT     r0,#0x1001
        0x0000eda0:    7800        .x      LDRB     r0,[r0,#0]
        0x0000eda2:    07c0        ..      LSLS     r0,r0,#31
        0x0000eda4:    2800        .(      CMP      r0,#0
        0x0000eda6:    f00080f5    ....    BEQ.W    0xef94 ; main + 648
        0x0000edaa:    e7ff        ..      B        0xedac ; main + 160
        0x0000edac:    9801        ..      LDR      r0,[sp,#4]
        0x0000edae:    f7fefa01    ....    BL       am_hal_interrupt_master_set ; 0xd1b4
        0x0000edb2:    f24110a2    A...    MOV      r0,#0x11a2
        0x0000edb6:    f2c10001    ....    MOVT     r0,#0x1001
        0x0000edba:    7800        .x      LDRB     r0,[r0,#0]
        0x0000edbc:    07c0        ..      LSLS     r0,r0,#31
        0x0000edbe:    2800        .(      CMP      r0,#0
        0x0000edc0:    d060        `.      BEQ      0xee84 ; main + 376
        0x0000edc2:    e7ff        ..      B        0xedc4 ; main + 184
        0x0000edc4:    f64130c4    A..0    MOV      r0,#0x1bc4
        0x0000edc8:    f2c10001    ....    MOVT     r0,#0x1001
        0x0000edcc:    6800        .h      LDR      r0,[r0,#0]
        0x0000edce:    f5c07000    ...p    RSB      r0,r0,#0x200
        0x0000edd2:    9003        ..      STR      r0,[sp,#0xc]
        0x0000edd4:    9803        ..      LDR      r0,[sp,#0xc]
        0x0000edd6:    28c9        .(      CMP      r0,#0xc9
        0x0000edd8:    d314        ..      BCC      0xee04 ; main + 248
        0x0000edda:    e7ff        ..      B        0xeddc ; main + 208
        0x0000eddc:    f24110a8    A...    MOV      r0,#0x11a8
        0x0000ede0:    f2c10001    ....    MOVT     r0,#0x1001
        0x0000ede4:    6800        .h      LDR      r0,[r0,#0]
        0x0000ede6:    f64131c4    A..1    MOV      r1,#0x1bc4
        0x0000edea:    f2c10101    ....    MOVT     r1,#0x1001
        0x0000edee:    680a        .h      LDR      r2,[r1,#0]
        0x0000edf0:    f24151b0    A..Q    MOV      r1,#0x15b0
        0x0000edf4:    f2c10101    ....    MOVT     r1,#0x1001
        0x0000edf8:    4411        .D      ADD      r1,r1,r2
        0x0000edfa:    22c8        ."      MOVS     r2,#0xc8
        0x0000edfc:    ab05        ..      ADD      r3,sp,#0x14
        0x0000edfe:    f7fefb25    ..%.    BL       am_hal_ios_fifo_write ; 0xd44c
        0x0000ee02:    e02c        ,.      B        0xee5e ; main + 338
        0x0000ee04:    f24110a8    A...    MOV      r0,#0x11a8
        0x0000ee08:    f2c10001    ....    MOVT     r0,#0x1001
        0x0000ee0c:    6800        .h      LDR      r0,[r0,#0]
        0x0000ee0e:    f64131c4    A..1    MOV      r1,#0x1bc4
        0x0000ee12:    f2c10101    ....    MOVT     r1,#0x1001
        0x0000ee16:    680a        .h      LDR      r2,[r1,#0]
        0x0000ee18:    f24151b0    A..Q    MOV      r1,#0x15b0
        0x0000ee1c:    f2c10101    ....    MOVT     r1,#0x1001
        0x0000ee20:    4411        .D      ADD      r1,r1,r2
        0x0000ee22:    9a03        ..      LDR      r2,[sp,#0xc]
        0x0000ee24:    ab05        ..      ADD      r3,sp,#0x14
        0x0000ee26:    f7fefb11    ....    BL       am_hal_ios_fifo_write ; 0xd44c
        0x0000ee2a:    9805        ..      LDR      r0,[sp,#0x14]
        0x0000ee2c:    9903        ..      LDR      r1,[sp,#0xc]
        0x0000ee2e:    4288        .B      CMP      r0,r1
        0x0000ee30:    d114        ..      BNE      0xee5c ; main + 336
        0x0000ee32:    e7ff        ..      B        0xee34 ; main + 296
        0x0000ee34:    f24110a8    A...    MOV      r0,#0x11a8
        0x0000ee38:    f2c10001    ....    MOVT     r0,#0x1001
        0x0000ee3c:    6800        .h      LDR      r0,[r0,#0]
        0x0000ee3e:    9903        ..      LDR      r1,[sp,#0xc]
        0x0000ee40:    f1c102c8    ....    RSB      r2,r1,#0xc8
        0x0000ee44:    f24151b0    A..Q    MOV      r1,#0x15b0
        0x0000ee48:    f2c10101    ....    MOVT     r1,#0x1001
        0x0000ee4c:    ab04        ..      ADD      r3,sp,#0x10
        0x0000ee4e:    f7fefafd    ....    BL       am_hal_ios_fifo_write ; 0xd44c
        0x0000ee52:    9904        ..      LDR      r1,[sp,#0x10]
        0x0000ee54:    9805        ..      LDR      r0,[sp,#0x14]
        0x0000ee56:    4408        .D      ADD      r0,r0,r1
        0x0000ee58:    9005        ..      STR      r0,[sp,#0x14]
        0x0000ee5a:    e7ff        ..      B        0xee5c ; main + 336
        0x0000ee5c:    e7ff        ..      B        0xee5e ; main + 338
        0x0000ee5e:    9a05        ..      LDR      r2,[sp,#0x14]
        0x0000ee60:    f64131c4    A..1    MOV      r1,#0x1bc4
        0x0000ee64:    f2c10101    ....    MOVT     r1,#0x1001
        0x0000ee68:    6808        .h      LDR      r0,[r1,#0]
        0x0000ee6a:    4410        .D      ADD      r0,r0,r2
        0x0000ee6c:    6008        .`      STR      r0,[r1,#0]
        0x0000ee6e:    6808        .h      LDR      r0,[r1,#0]
        0x0000ee70:    f36f205f    o._     BFC      r0,#9,#23
        0x0000ee74:    6008        .`      STR      r0,[r1,#0]
        0x0000ee76:    f24111a2    A...    MOV      r1,#0x11a2
        0x0000ee7a:    f2c10101    ....    MOVT     r1,#0x1001
        0x0000ee7e:    2000        .       MOVS     r0,#0
        0x0000ee80:    7008        .p      STRB     r0,[r1,#0]
        0x0000ee82:    e7ff        ..      B        0xee84 ; main + 376
        0x0000ee84:    f24110a3    A...    MOV      r0,#0x11a3
        0x0000ee88:    f2c10001    ....    MOVT     r0,#0x1001
        0x0000ee8c:    7800        .x      LDRB     r0,[r0,#0]
        0x0000ee8e:    07c0        ..      LSLS     r0,r0,#31
        0x0000ee90:    2800        .(      CMP      r0,#0
        0x0000ee92:    d062        b.      BEQ      0xef5a ; main + 590
        0x0000ee94:    e7ff        ..      B        0xee96 ; main + 394
        0x0000ee96:    f64130c4    A..0    MOV      r0,#0x1bc4
        0x0000ee9a:    f2c10001    ....    MOVT     r0,#0x1001
        0x0000ee9e:    6800        .h      LDR      r0,[r0,#0]
        0x0000eea0:    f5c07000    ...p    RSB      r0,r0,#0x200
        0x0000eea4:    9003        ..      STR      r0,[sp,#0xc]
        0x0000eea6:    9803        ..      LDR      r0,[sp,#0xc]
        0x0000eea8:    f5b07ffa    ....    CMP      r0,#0x1f4
        0x0000eeac:    d915        ..      BLS      0xeeda ; main + 462
        0x0000eeae:    e7ff        ..      B        0xeeb0 ; main + 420
        0x0000eeb0:    f24110a8    A...    MOV      r0,#0x11a8
        0x0000eeb4:    f2c10001    ....    MOVT     r0,#0x1001
        0x0000eeb8:    6800        .h      LDR      r0,[r0,#0]
        0x0000eeba:    f64131c4    A..1    MOV      r1,#0x1bc4
        0x0000eebe:    f2c10101    ....    MOVT     r1,#0x1001
        0x0000eec2:    680a        .h      LDR      r2,[r1,#0]
        0x0000eec4:    f24151b0    A..Q    MOV      r1,#0x15b0
        0x0000eec8:    f2c10101    ....    MOVT     r1,#0x1001
        0x0000eecc:    4411        .D      ADD      r1,r1,r2
        0x0000eece:    f44f72fa    O..r    MOV      r2,#0x1f4
        0x0000eed2:    ab05        ..      ADD      r3,sp,#0x14
        0x0000eed4:    f7fefaba    ....    BL       am_hal_ios_fifo_write ; 0xd44c
        0x0000eed8:    e02c        ,.      B        0xef34 ; main + 552
        0x0000eeda:    f24110a8    A...    MOV      r0,#0x11a8
        0x0000eede:    f2c10001    ....    MOVT     r0,#0x1001
        0x0000eee2:    6800        .h      LDR      r0,[r0,#0]
        0x0000eee4:    f64131c4    A..1    MOV      r1,#0x1bc4
        0x0000eee8:    f2c10101    ....    MOVT     r1,#0x1001
        0x0000eeec:    680a        .h      LDR      r2,[r1,#0]
        0x0000eeee:    f24151b0    A..Q    MOV      r1,#0x15b0
        0x0000eef2:    f2c10101    ....    MOVT     r1,#0x1001
        0x0000eef6:    4411        .D      ADD      r1,r1,r2
        0x0000eef8:    9a03        ..      LDR      r2,[sp,#0xc]
        0x0000eefa:    ab05        ..      ADD      r3,sp,#0x14
        0x0000eefc:    f7fefaa6    ....    BL       am_hal_ios_fifo_write ; 0xd44c
        0x0000ef00:    9805        ..      LDR      r0,[sp,#0x14]
        0x0000ef02:    9903        ..      LDR      r1,[sp,#0xc]
        0x0000ef04:    4288        .B      CMP      r0,r1
        0x0000ef06:    d114        ..      BNE      0xef32 ; main + 550
        0x0000ef08:    e7ff        ..      B        0xef0a ; main + 510
        0x0000ef0a:    f24110a8    A...    MOV      r0,#0x11a8
        0x0000ef0e:    f2c10001    ....    MOVT     r0,#0x1001
        0x0000ef12:    6800        .h      LDR      r0,[r0,#0]
        0x0000ef14:    9903        ..      LDR      r1,[sp,#0xc]
        0x0000ef16:    f5c172fa    ...r    RSB      r2,r1,#0x1f4
        0x0000ef1a:    f24151b0    A..Q    MOV      r1,#0x15b0
        0x0000ef1e:    f2c10101    ....    MOVT     r1,#0x1001
        0x0000ef22:    ab04        ..      ADD      r3,sp,#0x10
        0x0000ef24:    f7fefa92    ....    BL       am_hal_ios_fifo_write ; 0xd44c
        0x0000ef28:    9904        ..      LDR      r1,[sp,#0x10]
        0x0000ef2a:    9805        ..      LDR      r0,[sp,#0x14]
        0x0000ef2c:    4408        .D      ADD      r0,r0,r1
        0x0000ef2e:    9005        ..      STR      r0,[sp,#0x14]
        0x0000ef30:    e7ff        ..      B        0xef32 ; main + 550
        0x0000ef32:    e7ff        ..      B        0xef34 ; main + 552
        0x0000ef34:    9a05        ..      LDR      r2,[sp,#0x14]
        0x0000ef36:    f64131c4    A..1    MOV      r1,#0x1bc4
        0x0000ef3a:    f2c10101    ....    MOVT     r1,#0x1001
        0x0000ef3e:    6808        .h      LDR      r0,[r1,#0]
        0x0000ef40:    4410        .D      ADD      r0,r0,r2
        0x0000ef42:    6008        .`      STR      r0,[r1,#0]
        0x0000ef44:    6808        .h      LDR      r0,[r1,#0]
        0x0000ef46:    f36f205f    o._     BFC      r0,#9,#23
        0x0000ef4a:    6008        .`      STR      r0,[r1,#0]
        0x0000ef4c:    f24111a3    A...    MOV      r1,#0x11a3
        0x0000ef50:    f2c10101    ....    MOVT     r1,#0x1001
        0x0000ef54:    2000        .       MOVS     r0,#0
        0x0000ef56:    7008        .p      STRB     r0,[r1,#0]
        0x0000ef58:    e7ff        ..      B        0xef5a ; main + 590
        0x0000ef5a:    f24110a7    A...    MOV      r0,#0x11a7
        0x0000ef5e:    f2c10001    ....    MOVT     r0,#0x1001
        0x0000ef62:    7800        .x      LDRB     r0,[r0,#0]
        0x0000ef64:    b9a8        ..      CBNZ     r0,0xef92 ; main + 646
        0x0000ef66:    e7ff        ..      B        0xef68 ; main + 604
        0x0000ef68:    f24110a8    A...    MOV      r0,#0x11a8
        0x0000ef6c:    f2c10001    ....    MOVT     r0,#0x1001
        0x0000ef70:    6800        .h      LDR      r0,[r0,#0]
        0x0000ef72:    a902        ..      ADD      r1,sp,#8
        0x0000ef74:    f7fefa42    ..B.    BL       am_hal_ios_fifo_space_used ; 0xd3fc
        0x0000ef78:    9802        ..      LDR      r0,[sp,#8]
        0x0000ef7a:    b148        H.      CBZ      r0,0xef90 ; main + 644
        0x0000ef7c:    e7ff        ..      B        0xef7e ; main + 626
        0x0000ef7e:    f24111a7    A...    MOV      r1,#0x11a7
        0x0000ef82:    f2c10101    ....    MOVT     r1,#0x1001
        0x0000ef86:    2001        .       MOVS     r0,#1
        0x0000ef88:    7008        .p      STRB     r0,[r1,#0]
        0x0000ef8a:    f7fffdf5    ....    BL       inform_host ; 0xeb78
        0x0000ef8e:    e7ff        ..      B        0xef90 ; main + 644
        0x0000ef90:    e7ff        ..      B        0xef92 ; main + 646
        0x0000ef92:    e006        ..      B        0xefa2 ; main + 662
        0x0000ef94:    2000        .       MOVS     r0,#0
        0x0000ef96:    f7feff5d    ..].    BL       am_hal_sysctrl_sleep ; 0xde54
        0x0000ef9a:    9801        ..      LDR      r0,[sp,#4]
        0x0000ef9c:    f7fef90a    ....    BL       am_hal_interrupt_master_set ; 0xd1b4
        0x0000efa0:    e7ff        ..      B        0xefa2 ; main + 662
        0x0000efa2:    e6ea        ..      B        0xed7a ; main + 110
    ndigits_in_hex
        0x0000efa4:    b084        ..      SUB      sp,sp,#0x10
        0x0000efa6:    9103        ..      STR      r1,[sp,#0xc]
        0x0000efa8:    9002        ..      STR      r0,[sp,#8]
        0x0000efaa:    9802        ..      LDR      r0,[sp,#8]
        0x0000efac:    9903        ..      LDR      r1,[sp,#0xc]
        0x0000efae:    4308        .C      ORRS     r0,r0,r1
        0x0000efb0:    fab0f080    ....    CLZ      r0,r0
        0x0000efb4:    0940        @.      LSRS     r0,r0,#5
        0x0000efb6:    9001        ..      STR      r0,[sp,#4]
        0x0000efb8:    e7ff        ..      B        0xefba ; ndigits_in_hex + 22
        0x0000efba:    9802        ..      LDR      r0,[sp,#8]
        0x0000efbc:    9903        ..      LDR      r1,[sp,#0xc]
        0x0000efbe:    4308        .C      ORRS     r0,r0,r1
        0x0000efc0:    b160        `.      CBZ      r0,0xefdc ; ndigits_in_hex + 56
        0x0000efc2:    e7ff        ..      B        0xefc4 ; ndigits_in_hex + 32
        0x0000efc4:    9802        ..      LDR      r0,[sp,#8]
        0x0000efc6:    9903        ..      LDR      r1,[sp,#0xc]
        0x0000efc8:    0900        ..      LSRS     r0,r0,#4
        0x0000efca:    ea407001    @..p    ORR      r0,r0,r1,LSL #28
        0x0000efce:    0909        ..      LSRS     r1,r1,#4
        0x0000efd0:    9103        ..      STR      r1,[sp,#0xc]
        0x0000efd2:    9002        ..      STR      r0,[sp,#8]
        0x0000efd4:    9801        ..      LDR      r0,[sp,#4]
        0x0000efd6:    3001        .0      ADDS     r0,#1
        0x0000efd8:    9001        ..      STR      r0,[sp,#4]
        0x0000efda:    e7ee        ..      B        0xefba ; ndigits_in_hex + 22
        0x0000efdc:    9801        ..      LDR      r0,[sp,#4]
        0x0000efde:    b004        ..      ADD      sp,sp,#0x10
        0x0000efe0:    4770        pG      BX       lr
        0x0000efe2:    0000        ..      MOVS     r0,r0
    ndigits_in_i64
        0x0000efe4:    b580        ..      PUSH     {r7,lr}
        0x0000efe6:    b082        ..      SUB      sp,sp,#8
        0x0000efe8:    9101        ..      STR      r1,[sp,#4]
        0x0000efea:    9000        ..      STR      r0,[sp,#0]
        0x0000efec:    9801        ..      LDR      r0,[sp,#4]
        0x0000efee:    f1b03fff    ...?    CMP      r0,#0xffffffff
        0x0000eff2:    dc09        ..      BGT      0xf008 ; ndigits_in_i64 + 36
        0x0000eff4:    e7ff        ..      B        0xeff6 ; ndigits_in_i64 + 18
        0x0000eff6:    9800        ..      LDR      r0,[sp,#0]
        0x0000eff8:    9a01        ..      LDR      r2,[sp,#4]
        0x0000effa:    4241        AB      RSBS     r1,r0,#0
        0x0000effc:    f04f0000    O...    MOV      r0,#0
        0x0000f000:    4190        .A      SBCS     r0,r0,r2
        0x0000f002:    9100        ..      STR      r1,[sp,#0]
        0x0000f004:    9001        ..      STR      r0,[sp,#4]
        0x0000f006:    e7ff        ..      B        0xf008 ; ndigits_in_i64 + 36
        0x0000f008:    9800        ..      LDR      r0,[sp,#0]
        0x0000f00a:    9901        ..      LDR      r1,[sp,#4]
        0x0000f00c:    f000f802    ....    BL       ndigits_in_u64 ; 0xf014
        0x0000f010:    b002        ..      ADD      sp,sp,#8
        0x0000f012:    bd80        ..      POP      {r7,pc}
    ndigits_in_u64
        0x0000f014:    b580        ..      PUSH     {r7,lr}
        0x0000f016:    b084        ..      SUB      sp,sp,#0x10
        0x0000f018:    9103        ..      STR      r1,[sp,#0xc]
        0x0000f01a:    9002        ..      STR      r0,[sp,#8]
        0x0000f01c:    9802        ..      LDR      r0,[sp,#8]
        0x0000f01e:    9903        ..      LDR      r1,[sp,#0xc]
        0x0000f020:    4308        .C      ORRS     r0,r0,r1
        0x0000f022:    fab0f080    ....    CLZ      r0,r0
        0x0000f026:    0940        @.      LSRS     r0,r0,#5
        0x0000f028:    9001        ..      STR      r0,[sp,#4]
        0x0000f02a:    e7ff        ..      B        0xf02c ; ndigits_in_u64 + 24
        0x0000f02c:    9802        ..      LDR      r0,[sp,#8]
        0x0000f02e:    9903        ..      LDR      r1,[sp,#0xc]
        0x0000f030:    4308        .C      ORRS     r0,r0,r1
        0x0000f032:    b150        P.      CBZ      r0,0xf04a ; ndigits_in_u64 + 54
        0x0000f034:    e7ff        ..      B        0xf036 ; ndigits_in_u64 + 34
        0x0000f036:    9802        ..      LDR      r0,[sp,#8]
        0x0000f038:    9903        ..      LDR      r1,[sp,#0xc]
        0x0000f03a:    f7fffbf9    ....    BL       divu64_10 ; 0xe830
        0x0000f03e:    9103        ..      STR      r1,[sp,#0xc]
        0x0000f040:    9002        ..      STR      r0,[sp,#8]
        0x0000f042:    9801        ..      LDR      r0,[sp,#4]
        0x0000f044:    3001        .0      ADDS     r0,#1
        0x0000f046:    9001        ..      STR      r0,[sp,#4]
        0x0000f048:    e7f0        ..      B        0xf02c ; ndigits_in_u64 + 24
        0x0000f04a:    9801        ..      LDR      r0,[sp,#4]
        0x0000f04c:    b004        ..      ADD      sp,sp,#0x10
        0x0000f04e:    bd80        ..      POP      {r7,pc}
    padbuffer
        0x0000f050:    b085        ..      SUB      sp,sp,#0x14
        0x0000f052:    9003        ..      STR      r0,[sp,#0xc]
        0x0000f054:    f88d100b    ....    STRB     r1,[sp,#0xb]
        0x0000f058:    9201        ..      STR      r2,[sp,#4]
        0x0000f05a:    2000        .       MOVS     r0,#0
        0x0000f05c:    9000        ..      STR      r0,[sp,#0]
        0x0000f05e:    9801        ..      LDR      r0,[sp,#4]
        0x0000f060:    2800        .(      CMP      r0,#0
        0x0000f062:    dc03        ..      BGT      0xf06c ; padbuffer + 28
        0x0000f064:    e7ff        ..      B        0xf066 ; padbuffer + 22
        0x0000f066:    9800        ..      LDR      r0,[sp,#0]
        0x0000f068:    9004        ..      STR      r0,[sp,#0x10]
        0x0000f06a:    e016        ..      B        0xf09a ; padbuffer + 74
        0x0000f06c:    e7ff        ..      B        0xf06e ; padbuffer + 30
        0x0000f06e:    9801        ..      LDR      r0,[sp,#4]
        0x0000f070:    1e41        A.      SUBS     r1,r0,#1
        0x0000f072:    9101        ..      STR      r1,[sp,#4]
        0x0000f074:    b170        p.      CBZ      r0,0xf094 ; padbuffer + 68
        0x0000f076:    e7ff        ..      B        0xf078 ; padbuffer + 40
        0x0000f078:    9803        ..      LDR      r0,[sp,#0xc]
        0x0000f07a:    b138        8.      CBZ      r0,0xf08c ; padbuffer + 60
        0x0000f07c:    e7ff        ..      B        0xf07e ; padbuffer + 46
        0x0000f07e:    f89d000b    ....    LDRB     r0,[sp,#0xb]
        0x0000f082:    9903        ..      LDR      r1,[sp,#0xc]
        0x0000f084:    1c4a        J.      ADDS     r2,r1,#1
        0x0000f086:    9203        ..      STR      r2,[sp,#0xc]
        0x0000f088:    7008        .p      STRB     r0,[r1,#0]
        0x0000f08a:    e7ff        ..      B        0xf08c ; padbuffer + 60
        0x0000f08c:    9800        ..      LDR      r0,[sp,#0]
        0x0000f08e:    3001        .0      ADDS     r0,#1
        0x0000f090:    9000        ..      STR      r0,[sp,#0]
        0x0000f092:    e7ec        ..      B        0xf06e ; padbuffer + 30
        0x0000f094:    9800        ..      LDR      r0,[sp,#0]
        0x0000f096:    9004        ..      STR      r0,[sp,#0x10]
        0x0000f098:    e7ff        ..      B        0xf09a ; padbuffer + 74
        0x0000f09a:    9804        ..      LDR      r0,[sp,#0x10]
        0x0000f09c:    b005        ..      ADD      sp,sp,#0x14
        0x0000f09e:    4770        pG      BX       lr
    set_LPMMODE
        0x0000f0a0:    e92d41f0    -..A    PUSH     {r4-r8,lr}
        0x0000f0a4:    b082        ..      SUB      sp,sp,#8
        0x0000f0a6:    4680        .F      MOV      r8,r0
        0x0000f0a8:    2803        .(      CMP      r0,#3
        0x0000f0aa:    d81e        ..      BHI      0xf0ea ; set_LPMMODE + 74
        0x0000f0ac:    f44f5040    O.@P    MOV      r0,#0x3000
        0x0000f0b0:    f2481400    H...    MOVW     r4,#0x8100
        0x0000f0b4:    ea003608    ...6    AND      r6,r0,r8,LSL #12
        0x0000f0b8:    2700        .'      MOVS     r7,#0
        0x0000f0ba:    f2c40401    ....    MOVT     r4,#0x4001
        0x0000f0be:    bf00        ..      NOP      
        0x0000f0c0:    193d        =.      ADDS     r5,r7,r4
        0x0000f0c2:    f7fef86f    ..o.    BL       am_hal_interrupt_master_disable ; 0xd1a4
        0x0000f0c6:    9001        ..      STR      r0,[sp,#4]
        0x0000f0c8:    4628        (F      MOV      r0,r5
        0x0000f0ca:    f7fdfeff    ....    BL       am_hal_flash_load_ui32 ; 0xcecc
        0x0000f0ce:    f420507c     .|P    BIC      r0,r0,#0x3f00
        0x0000f0d2:    4330        0C      ORRS     r0,r0,r6
        0x0000f0d4:    f44061e0    @..a    ORR      r1,r0,#0x700
        0x0000f0d8:    4628        (F      MOV      r0,r5
        0x0000f0da:    f7fdfefb    ....    BL       am_hal_flash_store_ui32 ; 0xced4
        0x0000f0de:    9801        ..      LDR      r0,[sp,#4]
        0x0000f0e0:    f7fef868    ..h.    BL       am_hal_interrupt_master_set ; 0xd1b4
        0x0000f0e4:    3704        .7      ADDS     r7,#4
        0x0000f0e6:    2f10        ./      CMP      r7,#0x10
        0x0000f0e8:    d1ea        ..      BNE      0xf0c0 ; set_LPMMODE + 32
        0x0000f0ea:    2000        .       MOVS     r0,#0
        0x0000f0ec:    f1b80f04    ....    CMP      r8,#4
        0x0000f0f0:    bf38        8.      IT       CC
        0x0000f0f2:    2001        .       MOVCC    r0,#1
        0x0000f0f4:    b002        ..      ADD      sp,sp,#8
        0x0000f0f6:    e8bd81f0    ....    POP      {r4-r8,pc}
        0x0000f0fa:    0000        ..      MOVS     r0,r0
    set_RDWAIT
        0x0000f0fc:    e92d41f0    -..A    PUSH     {r4-r8,lr}
        0x0000f100:    b082        ..      SUB      sp,sp,#8
        0x0000f102:    4604        .F      MOV      r4,r0
        0x0000f104:    280f        .(      CMP      r0,#0xf
        0x0000f106:    d81c        ..      BHI      0xf142 ; set_RDWAIT + 70
        0x0000f108:    f2481800    H...    MOVW     r8,#0x8100
        0x0000f10c:    2600        .&      MOVS     r6,#0
        0x0000f10e:    f2c40801    ....    MOVT     r8,#0x4001
        0x0000f112:    f640770f    @..w    MOV      r7,#0xf0f
        0x0000f116:    bf00        ..      NOP      
        0x0000f118:    eb060508    ....    ADD      r5,r6,r8
        0x0000f11c:    f7fef842    ..B.    BL       am_hal_interrupt_master_disable ; 0xd1a4
        0x0000f120:    9001        ..      STR      r0,[sp,#4]
        0x0000f122:    4628        (F      MOV      r0,r5
        0x0000f124:    f7fdfed2    ....    BL       am_hal_flash_load_ui32 ; 0xcecc
        0x0000f128:    43b8        .C      BICS     r0,r0,r7
        0x0000f12a:    4320         C      ORRS     r0,r0,r4
        0x0000f12c:    f44061e0    @..a    ORR      r1,r0,#0x700
        0x0000f130:    4628        (F      MOV      r0,r5
        0x0000f132:    f7fdfecf    ....    BL       am_hal_flash_store_ui32 ; 0xced4
        0x0000f136:    9801        ..      LDR      r0,[sp,#4]
        0x0000f138:    f7fef83c    ..<.    BL       am_hal_interrupt_master_set ; 0xd1b4
        0x0000f13c:    3604        .6      ADDS     r6,#4
        0x0000f13e:    2e10        ..      CMP      r6,#0x10
        0x0000f140:    d1ea        ..      BNE      0xf118 ; set_RDWAIT + 28
        0x0000f142:    2000        .       MOVS     r0,#0
        0x0000f144:    2c10        .,      CMP      r4,#0x10
        0x0000f146:    bf38        8.      IT       CC
        0x0000f148:    2001        .       MOVCC    r0,#1
        0x0000f14a:    b002        ..      ADD      sp,sp,#8
        0x0000f14c:    e8bd81f0    ....    POP      {r4-r8,pc}
    set_SEDELAY
        0x0000f150:    e92d41f0    -..A    PUSH     {r4-r8,lr}
        0x0000f154:    b082        ..      SUB      sp,sp,#8
        0x0000f156:    4680        .F      MOV      r8,r0
        0x0000f158:    2807        .(      CMP      r0,#7
        0x0000f15a:    d81c        ..      BHI      0xf196 ; set_SEDELAY + 70
        0x0000f15c:    2070        p       MOVS     r0,#0x70
        0x0000f15e:    f2481400    H...    MOVW     r4,#0x8100
        0x0000f162:    ea001608    ....    AND      r6,r0,r8,LSL #4
        0x0000f166:    2700        .'      MOVS     r7,#0
        0x0000f168:    f2c40401    ....    MOVT     r4,#0x4001
        0x0000f16c:    193d        =.      ADDS     r5,r7,r4
        0x0000f16e:    f7fef819    ....    BL       am_hal_interrupt_master_disable ; 0xd1a4
        0x0000f172:    9001        ..      STR      r0,[sp,#4]
        0x0000f174:    4628        (F      MOV      r0,r5
        0x0000f176:    f7fdfea9    ....    BL       am_hal_flash_load_ui32 ; 0xcecc
        0x0000f17a:    f4206077     .w`    BIC      r0,r0,#0xf70
        0x0000f17e:    4330        0C      ORRS     r0,r0,r6
        0x0000f180:    f50061e0    ...a    ADD      r1,r0,#0x700
        0x0000f184:    4628        (F      MOV      r0,r5
        0x0000f186:    f7fdfea5    ....    BL       am_hal_flash_store_ui32 ; 0xced4
        0x0000f18a:    9801        ..      LDR      r0,[sp,#4]
        0x0000f18c:    f7fef812    ....    BL       am_hal_interrupt_master_set ; 0xd1b4
        0x0000f190:    3704        .7      ADDS     r7,#4
        0x0000f192:    2f10        ./      CMP      r7,#0x10
        0x0000f194:    d1ea        ..      BNE      0xf16c ; set_SEDELAY + 28
        0x0000f196:    2000        .       MOVS     r0,#0
        0x0000f198:    f1b80f08    ....    CMP      r8,#8
        0x0000f19c:    bf38        8.      IT       CC
        0x0000f19e:    2001        .       MOVCC    r0,#1
        0x0000f1a0:    b002        ..      ADD      sp,sp,#8
        0x0000f1a2:    e8bd81f0    ....    POP      {r4-r8,pc}
        0x0000f1a6:    0000        ..      MOVS     r0,r0
    simple_strlen
        0x0000f1a8:    b083        ..      SUB      sp,sp,#0xc
        0x0000f1aa:    9001        ..      STR      r0,[sp,#4]
        0x0000f1ac:    2000        .       MOVS     r0,#0
        0x0000f1ae:    9000        ..      STR      r0,[sp,#0]
        0x0000f1b0:    9801        ..      LDR      r0,[sp,#4]
        0x0000f1b2:    b918        ..      CBNZ     r0,0xf1bc ; simple_strlen + 20
        0x0000f1b4:    e7ff        ..      B        0xf1b6 ; simple_strlen + 14
        0x0000f1b6:    9800        ..      LDR      r0,[sp,#0]
        0x0000f1b8:    9002        ..      STR      r0,[sp,#8]
        0x0000f1ba:    e00d        ..      B        0xf1d8 ; simple_strlen + 48
        0x0000f1bc:    e7ff        ..      B        0xf1be ; simple_strlen + 22
        0x0000f1be:    9801        ..      LDR      r0,[sp,#4]
        0x0000f1c0:    1c41        A.      ADDS     r1,r0,#1
        0x0000f1c2:    9101        ..      STR      r1,[sp,#4]
        0x0000f1c4:    7800        .x      LDRB     r0,[r0,#0]
        0x0000f1c6:    b120         .      CBZ      r0,0xf1d2 ; simple_strlen + 42
        0x0000f1c8:    e7ff        ..      B        0xf1ca ; simple_strlen + 34
        0x0000f1ca:    9800        ..      LDR      r0,[sp,#0]
        0x0000f1cc:    3001        .0      ADDS     r0,#1
        0x0000f1ce:    9000        ..      STR      r0,[sp,#0]
        0x0000f1d0:    e7f5        ..      B        0xf1be ; simple_strlen + 22
        0x0000f1d2:    9800        ..      LDR      r0,[sp,#0]
        0x0000f1d4:    9002        ..      STR      r0,[sp,#8]
        0x0000f1d6:    e7ff        ..      B        0xf1d8 ; simple_strlen + 48
        0x0000f1d8:    9802        ..      LDR      r0,[sp,#8]
        0x0000f1da:    b003        ..      ADD      sp,sp,#0xc
        0x0000f1dc:    4770        pG      BX       lr
        0x0000f1de:    0000        ..      MOVS     r0,r0
    start_sensors
        0x0000f1e0:    b580        ..      PUSH     {r7,lr}
        0x0000f1e2:    b082        ..      SUB      sp,sp,#8
        0x0000f1e4:    f000f818    ....    BL       stop_sensors ; 0xf218
        0x0000f1e8:    f64131c4    A..1    MOV      r1,#0x1bc4
        0x0000f1ec:    f2c10101    ....    MOVT     r1,#0x1001
        0x0000f1f0:    2000        .       MOVS     r0,#0
        0x0000f1f2:    9001        ..      STR      r0,[sp,#4]
        0x0000f1f4:    6008        .`      STR      r0,[r1,#0]
        0x0000f1f6:    f64f71ff    O..q    MOV      r1,#0xffff
        0x0000f1fa:    9100        ..      STR      r1,[sp,#0]
        0x0000f1fc:    f7fdfdd0    ....    BL       am_hal_ctimer_start ; 0xcda0
        0x0000f200:    9900        ..      LDR      r1,[sp,#0]
        0x0000f202:    2001        .       MOVS     r0,#1
        0x0000f204:    f7fdfdcc    ....    BL       am_hal_ctimer_start ; 0xcda0
        0x0000f208:    9801        ..      LDR      r0,[sp,#4]
        0x0000f20a:    f24111a7    A...    MOV      r1,#0x11a7
        0x0000f20e:    f2c10101    ....    MOVT     r1,#0x1001
        0x0000f212:    7008        .p      STRB     r0,[r1,#0]
        0x0000f214:    b002        ..      ADD      sp,sp,#8
        0x0000f216:    bd80        ..      POP      {r7,pc}
    stop_sensors
        0x0000f218:    b580        ..      PUSH     {r7,lr}
        0x0000f21a:    b082        ..      SUB      sp,sp,#8
        0x0000f21c:    2000        .       MOVS     r0,#0
        0x0000f21e:    f64f71ff    O..q    MOV      r1,#0xffff
        0x0000f222:    9101        ..      STR      r1,[sp,#4]
        0x0000f224:    f7fdfdec    ....    BL       am_hal_ctimer_stop ; 0xce00
        0x0000f228:    9901        ..      LDR      r1,[sp,#4]
        0x0000f22a:    2001        .       MOVS     r0,#1
        0x0000f22c:    f7fdfde8    ....    BL       am_hal_ctimer_stop ; 0xce00
        0x0000f230:    b002        ..      ADD      sp,sp,#8
        0x0000f232:    bd80        ..      POP      {r7,pc}
    timer0_handler
        0x0000f234:    f24111a2    A...    MOV      r1,#0x11a2
        0x0000f238:    f2c10101    ....    MOVT     r1,#0x1001
        0x0000f23c:    2001        .       MOVS     r0,#1
        0x0000f23e:    7008        .p      STRB     r0,[r1,#0]
        0x0000f240:    4770        pG      BX       lr
        0x0000f242:    0000        ..      MOVS     r0,r0
    timer1_handler
        0x0000f244:    f24111a3    A...    MOV      r1,#0x11a3
        0x0000f248:    f2c10101    ....    MOVT     r1,#0x1001
        0x0000f24c:    2001        .       MOVS     r0,#1
        0x0000f24e:    7008        .p      STRB     r0,[r1,#0]
        0x0000f250:    4770        pG      BX       lr
        0x0000f252:    0000        ..      MOVS     r0,r0
    uint64_to_hexstr
        0x0000f254:    b08c        ..      SUB      sp,sp,#0x30
        0x0000f256:    910b        ..      STR      r1,[sp,#0x2c]
        0x0000f258:    900a        ..      STR      r0,[sp,#0x28]
        0x0000f25a:    9209        ..      STR      r2,[sp,#0x24]
        0x0000f25c:    f88d3023    ..#0    STRB     r3,[sp,#0x23]
        0x0000f260:    2000        .       MOVS     r0,#0
        0x0000f262:    9006        ..      STR      r0,[sp,#0x18]
        0x0000f264:    980a        ..      LDR      r0,[sp,#0x28]
        0x0000f266:    990b        ..      LDR      r1,[sp,#0x2c]
        0x0000f268:    4308        .C      ORRS     r0,r0,r1
        0x0000f26a:    b940        @.      CBNZ     r0,0xf27e ; uint64_to_hexstr + 42
        0x0000f26c:    e7ff        ..      B        0xf26e ; uint64_to_hexstr + 26
        0x0000f26e:    9a06        ..      LDR      r2,[sp,#0x18]
        0x0000f270:    1c50        P.      ADDS     r0,r2,#1
        0x0000f272:    9006        ..      STR      r0,[sp,#0x18]
        0x0000f274:    f10d0103    ....    ADD      r1,sp,#3
        0x0000f278:    2030        0       MOVS     r0,#0x30
        0x0000f27a:    5488        .T      STRB     r0,[r1,r2]
        0x0000f27c:    e7ff        ..      B        0xf27e ; uint64_to_hexstr + 42
        0x0000f27e:    e7ff        ..      B        0xf280 ; uint64_to_hexstr + 44
        0x0000f280:    980a        ..      LDR      r0,[sp,#0x28]
        0x0000f282:    990b        ..      LDR      r1,[sp,#0x2c]
        0x0000f284:    4308        .C      ORRS     r0,r0,r1
        0x0000f286:    b350        P.      CBZ      r0,0xf2de ; uint64_to_hexstr + 138
        0x0000f288:    e7ff        ..      B        0xf28a ; uint64_to_hexstr + 54
        0x0000f28a:    f89d0028    ..(.    LDRB     r0,[sp,#0x28]
        0x0000f28e:    f000000f    ....    AND      r0,r0,#0xf
        0x0000f292:    f88d0017    ....    STRB     r0,[sp,#0x17]
        0x0000f296:    f89d0017    ....    LDRB     r0,[sp,#0x17]
        0x0000f29a:    280a        .(      CMP      r0,#0xa
        0x0000f29c:    db0d        ..      BLT      0xf2ba ; uint64_to_hexstr + 102
        0x0000f29e:    e7ff        ..      B        0xf2a0 ; uint64_to_hexstr + 76
        0x0000f2a0:    f89d0023    ..#.    LDRB     r0,[sp,#0x23]
        0x0000f2a4:    07c0        ..      LSLS     r0,r0,#31
        0x0000f2a6:    2107        .!      MOVS     r1,#7
        0x0000f2a8:    2800        .(      CMP      r0,#0
        0x0000f2aa:    bf18        ..      IT       NE
        0x0000f2ac:    2127        '!      MOVNE    r1,#0x27
        0x0000f2ae:    f89d0017    ....    LDRB     r0,[sp,#0x17]
        0x0000f2b2:    4408        .D      ADD      r0,r0,r1
        0x0000f2b4:    f88d0017    ....    STRB     r0,[sp,#0x17]
        0x0000f2b8:    e7ff        ..      B        0xf2ba ; uint64_to_hexstr + 102
        0x0000f2ba:    f89d0017    ....    LDRB     r0,[sp,#0x17]
        0x0000f2be:    3030        00      ADDS     r0,r0,#0x30
        0x0000f2c0:    9a06        ..      LDR      r2,[sp,#0x18]
        0x0000f2c2:    1c51        Q.      ADDS     r1,r2,#1
        0x0000f2c4:    9106        ..      STR      r1,[sp,#0x18]
        0x0000f2c6:    f10d0103    ....    ADD      r1,sp,#3
        0x0000f2ca:    5488        .T      STRB     r0,[r1,r2]
        0x0000f2cc:    980a        ..      LDR      r0,[sp,#0x28]
        0x0000f2ce:    990b        ..      LDR      r1,[sp,#0x2c]
        0x0000f2d0:    0900        ..      LSRS     r0,r0,#4
        0x0000f2d2:    ea407001    @..p    ORR      r0,r0,r1,LSL #28
        0x0000f2d6:    0909        ..      LSRS     r1,r1,#4
        0x0000f2d8:    910b        ..      STR      r1,[sp,#0x2c]
        0x0000f2da:    900a        ..      STR      r0,[sp,#0x28]
        0x0000f2dc:    e7d0        ..      B        0xf280 ; uint64_to_hexstr + 44
        0x0000f2de:    9806        ..      LDR      r0,[sp,#0x18]
        0x0000f2e0:    9007        ..      STR      r0,[sp,#0x1c]
        0x0000f2e2:    9809        ..      LDR      r0,[sp,#0x24]
        0x0000f2e4:    b198        ..      CBZ      r0,0xf30e ; uint64_to_hexstr + 186
        0x0000f2e6:    e7ff        ..      B        0xf2e8 ; uint64_to_hexstr + 148
        0x0000f2e8:    e7ff        ..      B        0xf2ea ; uint64_to_hexstr + 150
        0x0000f2ea:    9806        ..      LDR      r0,[sp,#0x18]
        0x0000f2ec:    1e41        A.      SUBS     r1,r0,#1
        0x0000f2ee:    9106        ..      STR      r1,[sp,#0x18]
        0x0000f2f0:    b148        H.      CBZ      r0,0xf306 ; uint64_to_hexstr + 178
        0x0000f2f2:    e7ff        ..      B        0xf2f4 ; uint64_to_hexstr + 160
        0x0000f2f4:    9906        ..      LDR      r1,[sp,#0x18]
        0x0000f2f6:    f10d0003    ....    ADD      r0,sp,#3
        0x0000f2fa:    5c40        @\      LDRB     r0,[r0,r1]
        0x0000f2fc:    9909        ..      LDR      r1,[sp,#0x24]
        0x0000f2fe:    1c4a        J.      ADDS     r2,r1,#1
        0x0000f300:    9209        ..      STR      r2,[sp,#0x24]
        0x0000f302:    7008        .p      STRB     r0,[r1,#0]
        0x0000f304:    e7f1        ..      B        0xf2ea ; uint64_to_hexstr + 150
        0x0000f306:    9909        ..      LDR      r1,[sp,#0x24]
        0x0000f308:    2000        .       MOVS     r0,#0
        0x0000f30a:    7008        .p      STRB     r0,[r1,#0]
        0x0000f30c:    e7ff        ..      B        0xf30e ; uint64_to_hexstr + 186
        0x0000f30e:    9807        ..      LDR      r0,[sp,#0x1c]
        0x0000f310:    b00c        ..      ADD      sp,sp,#0x30
        0x0000f312:    4770        pG      BX       lr
    uint64_to_str
        0x0000f314:    b580        ..      PUSH     {r7,lr}
        0x0000f316:    b090        ..      SUB      sp,sp,#0x40
        0x0000f318:    910f        ..      STR      r1,[sp,#0x3c]
        0x0000f31a:    900e        ..      STR      r0,[sp,#0x38]
        0x0000f31c:    920d        ..      STR      r2,[sp,#0x34]
        0x0000f31e:    2000        .       MOVS     r0,#0
        0x0000f320:    9005        ..      STR      r0,[sp,#0x14]
        0x0000f322:    9004        ..      STR      r0,[sp,#0x10]
        0x0000f324:    e7ff        ..      B        0xf326 ; uint64_to_str + 18
        0x0000f326:    980e        ..      LDR      r0,[sp,#0x38]
        0x0000f328:    990f        ..      LDR      r1,[sp,#0x3c]
        0x0000f32a:    f7fffa81    ....    BL       divu64_10 ; 0xe830
        0x0000f32e:    9101        ..      STR      r1,[sp,#4]
        0x0000f330:    9000        ..      STR      r0,[sp,#0]
        0x0000f332:    980e        ..      LDR      r0,[sp,#0x38]
        0x0000f334:    9900        ..      LDR      r1,[sp,#0]
        0x0000f336:    eb010181    ....    ADD      r1,r1,r1,LSL #2
        0x0000f33a:    eba00041    ..A.    SUB      r0,r0,r1,LSL #1
        0x0000f33e:    9003        ..      STR      r0,[sp,#0xc]
        0x0000f340:    9803        ..      LDR      r0,[sp,#0xc]
        0x0000f342:    3030        00      ADDS     r0,r0,#0x30
        0x0000f344:    9a05        ..      LDR      r2,[sp,#0x14]
        0x0000f346:    1c51        Q.      ADDS     r1,r2,#1
        0x0000f348:    9105        ..      STR      r1,[sp,#0x14]
        0x0000f34a:    f10d011b    ....    ADD      r1,sp,#0x1b
        0x0000f34e:    5488        .T      STRB     r0,[r1,r2]
        0x0000f350:    9800        ..      LDR      r0,[sp,#0]
        0x0000f352:    9901        ..      LDR      r1,[sp,#4]
        0x0000f354:    910f        ..      STR      r1,[sp,#0x3c]
        0x0000f356:    900e        ..      STR      r0,[sp,#0x38]
        0x0000f358:    e7ff        ..      B        0xf35a ; uint64_to_str + 70
        0x0000f35a:    980e        ..      LDR      r0,[sp,#0x38]
        0x0000f35c:    990f        ..      LDR      r1,[sp,#0x3c]
        0x0000f35e:    4308        .C      ORRS     r0,r0,r1
        0x0000f360:    2800        .(      CMP      r0,#0
        0x0000f362:    d1e0        ..      BNE      0xf326 ; uint64_to_str + 18
        0x0000f364:    e7ff        ..      B        0xf366 ; uint64_to_str + 82
        0x0000f366:    9805        ..      LDR      r0,[sp,#0x14]
        0x0000f368:    9004        ..      STR      r0,[sp,#0x10]
        0x0000f36a:    980d        ..      LDR      r0,[sp,#0x34]
        0x0000f36c:    b198        ..      CBZ      r0,0xf396 ; uint64_to_str + 130
        0x0000f36e:    e7ff        ..      B        0xf370 ; uint64_to_str + 92
        0x0000f370:    e7ff        ..      B        0xf372 ; uint64_to_str + 94
        0x0000f372:    9805        ..      LDR      r0,[sp,#0x14]
        0x0000f374:    1e41        A.      SUBS     r1,r0,#1
        0x0000f376:    9105        ..      STR      r1,[sp,#0x14]
        0x0000f378:    b148        H.      CBZ      r0,0xf38e ; uint64_to_str + 122
        0x0000f37a:    e7ff        ..      B        0xf37c ; uint64_to_str + 104
        0x0000f37c:    9905        ..      LDR      r1,[sp,#0x14]
        0x0000f37e:    f10d001b    ....    ADD      r0,sp,#0x1b
        0x0000f382:    5c40        @\      LDRB     r0,[r0,r1]
        0x0000f384:    990d        ..      LDR      r1,[sp,#0x34]
        0x0000f386:    1c4a        J.      ADDS     r2,r1,#1
        0x0000f388:    920d        ..      STR      r2,[sp,#0x34]
        0x0000f38a:    7008        .p      STRB     r0,[r1,#0]
        0x0000f38c:    e7f1        ..      B        0xf372 ; uint64_to_str + 94
        0x0000f38e:    990d        ..      LDR      r1,[sp,#0x34]
        0x0000f390:    2000        .       MOVS     r0,#0
        0x0000f392:    7008        .p      STRB     r0,[r1,#0]
        0x0000f394:    e7ff        ..      B        0xf396 ; uint64_to_str + 130
        0x0000f396:    9804        ..      LDR      r0,[sp,#0x10]
        0x0000f398:    b010        ..      ADD      sp,sp,#0x40
        0x0000f39a:    bd80        ..      POP      {r7,pc}
    $t
    x$fpl$d2f
    $v0
    __aeabi_d2f
    _d2f
        0x0000f39c:    f0214200    !..B    BIC      r2,r1,#0x80000000
        0x0000f3a0:    f0014300    ...C    AND      r3,r1,#0x80000000
        0x0000f3a4:    f1a25260    ..`R    SUB      r2,r2,#0x38000000
        0x0000f3a8:    f5b21f80    ....    CMP      r2,#0x100000
        0x0000f3ac:    bf28        (.      IT       CS
        0x0000f3ae:    f1d26c7f    ...l    RSBSCS   r12,r2,#0xff00000
        0x0000f3b2:    d90b        ..      BLS      0xf3cc ; __aeabi_d2f + 48
        0x0000f3b4:    ea5f1c00    _...    LSLS     r12,r0,#4
        0x0000f3b8:    ea4302c2    C...    ORR      r2,r3,r2,LSL #3
        0x0000f3bc:    eb427050    B.Pp    ADC      r0,r2,r0,LSR #29
        0x0000f3c0:    bf18        ..      IT       NE
        0x0000f3c2:    4770        pG      BXNE     lr
        0x0000f3c4:    bf28        (.      IT       CS
        0x0000f3c6:    f0200001     ...    BICCS    r0,r0,#1
        0x0000f3ca:    4770        pG      BX       lr
        0x0000f3cc:    f5b21f80    ....    CMP      r2,#0x100000
        0x0000f3d0:    bfbc        ..      ITT      LT
        0x0000f3d2:    4618        .F      MOVLT    r0,r3
        0x0000f3d4:    4770        pG      BXLT     lr
        0x0000f3d6:    ea4f0c41    O.A.    LSL      r12,r1,#1
        0x0000f3da:    f51c1f00    ....    CMN      r12,#0x200000
        0x0000f3de:    d202        ..      BCS      0xf3e6 ; __aeabi_d2f + 74
        0x0000f3e0:    4608        .F      MOV      r0,r1
        0x0000f3e2:    f000b867    ..g.    B.W      __fpl_fretinf ; 0xf4b4
        0x0000f3e6:    b570        p.      PUSH     {r4-r6,lr}
        0x0000f3e8:    f000f809    ....    BL       __fpl_dnaninf ; 0xf3fe
    $d
        0x0000f3ec:    89000000    ....    DCD    2298478592
    $t
        0x0000f3f0:    f7ffbff6    ....    B.W      0xf3e0 ; __aeabi_d2f + 68
        0x0000f3f4:    f04f4000    O..@    MOV      r0,#0x80000000
        0x0000f3f8:    f5a00080    ....    SUB      r0,r0,#0x400000
        0x0000f3fc:    4770        pG      BX       lr
    x$fpl$dnaninf
    $v0
    __fpl_dnaninf
        0x0000f3fe:    f10e0e02    ....    ADD      lr,lr,#2
        0x0000f402:    f02e0e03    ....    BIC      lr,lr,#3
        0x0000f406:    f85e6b04    ^..k    LDR      r6,[lr],#4
        0x0000f40a:    4236        6B      TST      r6,r6
        0x0000f40c:    d405        ..      BMI      0xf41a ; __fpl_dnaninf + 28
        0x0000f40e:    2a01        .*      CMP      r2,#1
        0x0000f410:    eb430503    C...    ADC      r5,r3,r3
        0x0000f414:    f5151f00    ....    CMN      r5,#0x200000
        0x0000f418:    d812        ..      BHI      0xf440 ; __fpl_dnaninf + 66
        0x0000f41a:    2801        .(      CMP      r0,#1
        0x0000f41c:    eb410c01    A...    ADC      r12,r1,r1
        0x0000f420:    f51c1f00    ....    CMN      r12,#0x200000
        0x0000f424:    d80c        ..      BHI      0xf440 ; __fpl_dnaninf + 66
        0x0000f426:    d10e        ..      BNE      0xf446 ; __fpl_dnaninf + 72
        0x0000f428:    ea4f7cd1    O..|    LSR      r12,r1,#31
        0x0000f42c:    eb0c0c4c    ..L.    ADD      r12,r12,r12,LSL #1
        0x0000f430:    f10c0c02    ....    ADD      r12,r12,#2
        0x0000f434:    f5151f00    ....    CMN      r5,#0x200000
        0x0000f438:    bf08        ..      IT       EQ
        0x0000f43a:    eb4c7cd3    L..|    ADCEQ    r12,r12,r3,LSR #31
        0x0000f43e:    e004        ..      B        0xf44a ; __fpl_dnaninf + 76
        0x0000f440:    f04f0c08    O...    MOV      r12,#8
        0x0000f444:    e001        ..      B        0xf44a ; __fpl_dnaninf + 76
        0x0000f446:    ea4f7cd3    O..|    LSR      r12,r3,#31
        0x0000f44a:    eb0c054c    ..L.    ADD      r5,r12,r12,LSL #1
        0x0000f44e:    fa26f605    &...    LSR      r6,r6,r5
        0x0000f452:    f0060607    ....    AND      r6,r6,#7
        0x0000f456:    f1b60c04    ....    SUBS     r12,r6,#4
        0x0000f45a:    d206        ..      BCS      0xf46a ; __fpl_dnaninf + 108
        0x0000f45c:    eb0e0c86    ....    ADD      r12,lr,r6,LSL #2
        0x0000f460:    e8bd4070    ..p@    POP      {r4-r6,lr}
        0x0000f464:    f04c0c01    L...    ORR      r12,r12,#1
        0x0000f468:    4760        `G      BX       r12
        0x0000f46a:    e8dff00c    ....    TBB      [pc,r12]
    $d
        0x0000f46e:    0b09        ..      DCW    2825
        0x0000f470:    0202        ..      DCW    514
    $t
        0x0000f472:    f04f4100    O..A    MOV      r1,#0x80000000
        0x0000f476:    f5a12100    ...!    SUB      r1,r1,#0x80000
        0x0000f47a:    f04f0000    O...    MOV      r0,#0
        0x0000f47e:    bd70        p.      POP      {r4-r6,pc}
        0x0000f480:    4619        .F      MOV      r1,r3
        0x0000f482:    4610        .F      MOV      r0,r2
        0x0000f484:    2801        .(      CMP      r0,#1
        0x0000f486:    eb510401    Q...    ADCS     r4,r1,r1
        0x0000f48a:    bf18        ..      IT       NE
        0x0000f48c:    f5d41400    ....    RSBSNE   r4,r4,#0x200000
        0x0000f490:    bf84        ..      ITT      HI
        0x0000f492:    2000        .       MOVHI    r0,#0
        0x0000f494:    f0014100    ...A    ANDHI    r1,r1,#0x80000000
        0x0000f498:    bd70        p.      POP      {r4-r6,pc}
    x$fpl$fpinit
    $v0
    _fp_init
        0x0000f49a:    eef10a10    ....    VMRS     r0,FPSCR
        0x0000f49e:    f64f71ff    O..q    MOV      r1,#0xffff
        0x0000f4a2:    f2c031c0    ...1    MOVT     r1,#0x3c0
        0x0000f4a6:    ea200001     ...    BIC      r0,r0,r1
        0x0000f4aa:    f0407040    @.@p    ORR      r0,r0,#0x3000000
        0x0000f4ae:    eee10a10    ....    VMSR     FPSCR,r0
    __fplib_config_fpu_vfp
    __fplib_config_pureend_doubles
        0x0000f4b2:    4770        pG      BX       lr
    x$fpl$fretinf
    $v0
    __fpl_fretinf
        0x0000f4b4:    21ff        .!      MOVS     r1,#0xff
        0x0000f4b6:    ea4150d0    A..P    ORR      r0,r1,r0,LSR #23
        0x0000f4ba:    05c0        ..      LSLS     r0,r0,#23
        0x0000f4bc:    4770        pG      BX       lr
    x$fpl$usenofp
    __I$use$fp
        0x0000f4be:    0000        ..      MOVS     r0,r0
    $d.realdata
    .L__const.am_hal_flash_store_ui32.SRAM_write_ui32
        0x0000f4c0:    bf006001    .`..    DCD    3204472833
        0x0000f4c4:    bf006800    .h..    DCD    3204474880
        0x0000f4c8:    bf004770    pG..    DCD    3204466544
    am_hal_cachectrl_defaults
        0x0000f4cc:    00000308    ....    DCD    776
    am_hal_ios_pui8LRAM
        0x0000f4d0:    50000000    ...P    DCD    1342177280
    am_hal_pwrctrl_peripheral_control
        0x0000f4d4:    00000000    ....    DCD    0
        0x0000f4d8:    00000000    ....    DCD    0
        0x0000f4dc:    00000000    ....    DCD    0
        0x0000f4e0:    00000001    ....    DCD    1
        0x0000f4e4:    00000004    ....    DCD    4
        0x0000f4e8:    00000004    ....    DCD    4
        0x0000f4ec:    00000002    ....    DCD    2
        0x0000f4f0:    00000008    ....    DCD    8
        0x0000f4f4:    00000008    ....    DCD    8
        0x0000f4f8:    00000004    ....    DCD    4
        0x0000f4fc:    00000008    ....    DCD    8
        0x0000f500:    00000008    ....    DCD    8
        0x0000f504:    00000008    ....    DCD    8
        0x0000f508:    00000008    ....    DCD    8
        0x0000f50c:    00000008    ....    DCD    8
        0x0000f510:    00000010    ....    DCD    16
        0x0000f514:    00000010    ....    DCD    16
        0x0000f518:    00000010    ....    DCD    16
        0x0000f51c:    00000020     ...    DCD    32
        0x0000f520:    00000010    ....    DCD    16
        0x0000f524:    00000010    ....    DCD    16
        0x0000f528:    00000040    @...    DCD    64
        0x0000f52c:    00000010    ....    DCD    16
        0x0000f530:    00000010    ....    DCD    16
        0x0000f534:    00000080    ....    DCD    128
        0x0000f538:    00000004    ....    DCD    4
        0x0000f53c:    00000004    ....    DCD    4
        0x0000f540:    00000100    ....    DCD    256
        0x0000f544:    00000004    ....    DCD    4
        0x0000f548:    00000004    ....    DCD    4
        0x0000f54c:    00000200    ....    DCD    512
        0x0000f550:    00000020     ...    DCD    32
        0x0000f554:    00000020     ...    DCD    32
        0x0000f558:    00000400    ....    DCD    1024
        0x0000f55c:    00000004    ....    DCD    4
        0x0000f560:    00000004    ....    DCD    4
        0x0000f564:    00000800    ....    DCD    2048
        0x0000f568:    00000040    @...    DCD    64
        0x0000f56c:    00000040    @...    DCD    64
        0x0000f570:    00001000    ....    DCD    4096
        0x0000f574:    00000040    @...    DCD    64
        0x0000f578:    00000040    @...    DCD    64
        0x0000f57c:    00002000    . ..    DCD    8192
        0x0000f580:    00000040    @...    DCD    64
        0x0000f584:    00000040    @...    DCD    64
        0x0000f588:    00004000    .@..    DCD    16384
        0x0000f58c:    00000080    ....    DCD    128
        0x0000f590:    00000080    ....    DCD    128
        0x0000f594:    00008000    ....    DCD    32768
        0x0000f598:    00000100    ....    DCD    256
        0x0000f59c:    00000100    ....    DCD    256
    g_AM_BSP_GPIO_ENABLE
        0x0000f5a0:    00400801    ..@.    DCD    4196353
    g_AM_BSP_GPIO_IOS_CE
        0x0000f5a4:    00001001    ....    DCD    4097
    g_AM_BSP_GPIO_IOS_MISO
        0x0000f5a8:    00000301    ....    DCD    769
    g_AM_BSP_GPIO_IOS_MOSI
        0x0000f5ac:    00001001    ....    DCD    4097
    g_AM_BSP_GPIO_IOS_SCK
        0x0000f5b0:    00001001    ....    DCD    4097
    g_AM_BSP_GPIO_IOS_SCL
        0x0000f5b4:    00001000    ....    DCD    4096
    g_AM_BSP_GPIO_IOS_SDA
        0x0000f5b8:    00000840    @...    DCD    2112
    g_AM_BSP_GPIO_ITM_SWO
        0x0000f5bc:    00000002    ....    DCD    2
    g_AM_HAL_GPIO_OUTPUT
        0x0000f5c0:    00000403    ....    DCD    1027
    g_ui8Bit76Capabilities
        0x0000f5c4:    02800101    ....    DCD    41943297
        0x0000f5c8:    80010180    ....    DCD    2147549568
        0x0000f5cc:    80800101    ....    DCD    2155872513
        0x0000f5d0:    80808080    ....    DCD    2155905152
        0x0000f5d4:    80808080    ....    DCD    2155905152
        0x0000f5d8:    80808008    ....    DCD    2155905032
        0x0000f5dc:    01800180    ....    DCD    25166208
        0x0000f5e0:    80808080    ....    DCD    2155905152
        0x0000f5e4:    80808080    ....    DCD    2155905152
        0x0000f5e8:    01800402    ....    DCD    25166850
        0x0000f5ec:    01010401    ....    DCD    16843777
        0x0000f5f0:    80808080    ....    DCD    2155905152
        0x0000f5f4:    80800101    ....    DCD    2155872513
        0x0000f5f8:    80808080    ....    DCD    2155905152
        0x0000f5fc:    80808080    ....    DCD    2155905152
        0x0000f600:    80808080    ....    DCD    2155905152
        0x0000f604:    80808080    ....    DCD    2155905152
        0x0000f608:    80808080    ....    DCD    2155905152
        0x0000f60c:    8080        ..      DCW    32896
    g_ui8Inpen
        0x0000f60e:    2323        ##      DCW    8995
        0x0000f610:    03a16227    'b..    DCD    60908071
        0x0000f614:    53031087    ...S    DCD    1392709767
        0x0000f618:    8151e100    ..Q.    DCD    2169626880
        0x0000f61c:    c4055541    AU..    DCD    3288683841
        0x0000f620:    b1014080    .@..    DCD    2969649280
        0x0000f624:    31144140    @A.1    DCD    823411008
        0x0000f628:    f10031a0    .1..    DCD    4043321760
        0x0000f62c:    21911180    ...!    DCD    563155328
        0x0000f630:    11e511c1    ....    DCD    300224961
        0x0000f634:    00373045    E07.    DCD    3616837
        0x0000f638:    71003130    01.q    DCD    1895838000
        0x0000f63c:    31304000    .@01    DCD    825245696
        0x0000f640:    01010100    ....    DCD    16843008
        0x0000f644:    01010101    ....    DCD    16843009
        0x0000f648:    a0010101    ....    DCD    2684420353
        0x0000f64c:    0101a050    P...    DCD    16883792
        0x0000f650:    a0010101    ....    DCD    2684420353
        0x0000f654:    50a0a0a0    ...P    DCD    1352704160
    g_ui8NCEtable
        0x0000f658:    0112a4a3    ....    DCD    17999011
        0x0000f65c:    a4a2a1a0    ....    DCD    2762121632
        0x0000f660:    92b502b3    ....    DCD    2461336243
        0x0000f664:    82858483    ....    DCD    2189788291
        0x0000f668:    91019493    ....    DCD    2432799891
        0x0000f66c:    ffffffff    ....    DCD    4294967295
        0x0000f670:    ffffffff    ....    DCD    4294967295
        0x0000f674:    00951201    ....    DCD    9769473
        0x0000f678:    80028483    ....    DCD    2147648643
        0x0000f67c:    b2b5b401    ....    DCD    2998252545
        0x0000f680:    0011a4a3    ....    DCD    1156259
        0x0000f684:    83828180    ....    DCD    2206368128
        0x0000f688:    10850283    ....    DCD    277152387
        0x0000f68c:    90959493    ....    DCD    2425722003
        0x0000f690:    a4a212a0    ....    DCD    2762085024
        0x0000f694:    00b2b101    ....    DCD    11710721
        0x0000f698:    85b20280    ....    DCD    2243035776
        0x0000f69c:    94029190    ....    DCD    2483196304
        0x0000f6a0:    a3a2a102    ....    DCD    2745344258
        0x0000f6a4:    00b311b0    ....    DCD    11735472
        0x0000f6a8:    92950012    ....    DCD    2459238418
        0x0000f6ac:    0102a4a3    ....    DCD    16950435
        0x0000f6b0:    02b5b4b3    ....    DCD    45462707
        0x0000f6b4:    84828180    ....    DCD    2223145344
        0x0000f6b8:    95920190    ....    DCD    2509373840
        0x0000f6bc:    a0a501a3    ....    DCD    2695168419
        0x0000f6c0:    b1b5b4b3    ....    DCD    2981475507
        0x0000f6c4:    81008402    ....    DCD    2164294658
        0x0000f6c8:    00959493    ....    DCD    9802899
        0x0000f6cc:    a1a512a3    ....    DCD    2711949987
        0x0000f6d0:    b002b400    ....    DCD    2952967168
        0x0000f6d4:    84820201    ....    DCD    2223112705
        0x0000f6d8:    1001b190    ....    DCD    268546448
        0x0000f6dc:    a59211a0    ....    DCD    2777813408
        0x0000f6e0:    11b202b0    ....    DCD    296878768
        0x0000f6e4:    02828101    ....    DCD    42107137
        0x0000f6e8:    10959493    ....    DCD    278238355
        0x0000f6ec:    00a5a493    ....    DCD    10855571
        0x0000f6f0:    b512b1b0    ....    DCD    3037901232
        0x0000f6f4:    ffffffff    ....    DCD    4294967295
        0x0000f6f8:    ffffffff    ....    DCD    4294967295
        0x0000f6fc:    10119102    ....    DCD    269586690
        0x0000f700:    85820180    ....    DCD    2239889792
        0x0000f704:    10029190    ....    DCD    268603792
        0x0000f708:    a5a200a0    ....    DCD    2778857632
        0x0000f70c:    b185b4b3    ....    DCD    2978329779
        0x0000f710:    10020183    ....    DCD    268566915
        0x0000f714:    93928111    ....    DCD    2475852049
        0x0000f718:    12a2a101    ....    DCD    312647937
        0x0000f71c:    81b211b0    ....    DCD    2175930800
        0x0000f720:    80b20201    ....    DCD    2159149569
        0x0000f724:    809291a4    ....    DCD    2157089188
        0x0000f728:    9200a190    ....    DCD    2449514896
        0x0000f72c:    8202b1a0    ....    DCD    2181214624
        0x0000f730:    83858402    ....    DCD    2206565378
        0x0000f734:    84950083    ....    DCD    2224357507
        0x0000f738:    10a5b4a3    ....    DCD    279295139
        0x0000f73c:    90b5b400    ....    DCD    2427827200
        0x0000f740:    b50081b3    ....    DCD    3036709299
        0x0000f744:    00929111    ....    DCD    9605393
        0x0000f748:    b0a2a110    ....    DCD    2963448080
        0x0000f74c:    0102b100    ....    DCD    16953600
        0x0000f750:    11858410    ....    DCD    293962768
        0x0000f754:    00029401    ....    DCD    168961
        0x0000f758:    10a5a480    ....    DCD    279291008
        0x0000f75c:    93a50090    ....    DCD    2477064336
        0x0000f760:    94828101    ....    DCD    2491580673
        0x0000f764:    95b291b0    ....    DCD    2511507888
        0x0000f768:    a0a20083    ....    DCD    2694971523
        0x0000f76c:    0100b193    ....    DCD    16822675
        0x0000f770:    118502a3    ....    DCD    293929635
        0x0000f774:    a1b094b3    ....    DCD    2712704179
        0x0000f778:    a2010200    ....    DCD    2717975040
        0x0000f77c:    02b5b401    ....    DCD    45462529
    g_ui8nCEpins
        0x0000f780:    02070707    ....    DCD    34014983
        0x0000f784:    00080802    ....    DCD    526338
        0x0000f788:    01020202    ....    DCD    16908802
        0x0000f78c:    01010101    ....    DCD    16843009
        0x0000f790:    01010101    ....    DCD    16843009
        0x0000f794:    01010101    ....    DCD    16843009
        0x0000f798:    01010101    ....    DCD    16843009
        0x0000f79c:    01010101    ....    DCD    16843009
        0x0000f7a0:    01010101    ....    DCD    16843009
        0x0000f7a4:    08010101    ....    DCD    134283521
        0x0000f7a8:    01010008    ....    DCD    16842760
        0x0000f7ac:    01010101    ....    DCD    16843009
        0x0000f7b0:    01010101    ....    DCD    16843009
        0x0000f7b4:    01010101    ....    DCD    16843009
        0x0000f7b8:    01010101    ....    DCD    16843009
        0x0000f7bc:    01010101    ....    DCD    16843009
        0x0000f7c0:    01010101    ....    DCD    16843009
        0x0000f7c4:    01010101    ....    DCD    16843009
        0x0000f7c8:    0101        ..      DCW    257
    .L.str.4
        0x0000f7ca:    4f49        IO      DCW    20297
        0x0000f7cc:    49462053    S FI    DCD    1229332563
        0x0000f7d0:    45204f46    FO E    DCD    1159745350
        0x0000f7d4:    706d6178    xamp    DCD    1886216568
        0x0000f7d8:    000a656c    le..    DCD    681324
    .L.str
        0x0000f7dc:    74746948    Hitt    DCD    1953786184
        0x0000f7e0:    20676e69    ing     DCD    543649385
        0x0000f7e4:    65646e75    unde    DCD    1701080693
        0x0000f7e8:    6f6c6672    rflo    DCD    1869375090
        0x0000f7ec:    6f662077    w fo    DCD    1868963959
        0x0000f7f0:    68742072    r th    DCD    1752440946
        0x0000f7f4:    65722065    e re    DCD    1701978213
        0x0000f7f8:    73657571    ques    DCD    1936029041
        0x0000f7fc:    20646574    ted     DCD    543450484
        0x0000f800:    20534f49    IOS     DCD    542330697
        0x0000f804:    4f464946    FIFO    DCD    1330006342
        0x0000f808:    61727420     tra    DCD    1634890784
        0x0000f80c:    6566736e    nsfe    DCD    1701213038
        0x0000f810:    0a72        r.      DCW    2674
        0x0000f812:    00          .       DCB    0
    .L.str.3
        0x0000f813:    48          H       DCB    72
        0x0000f814:    69747469    itti    DCD    1769239657
        0x0000f818:    4520676e    ng E    DCD    1159751534
        0x0000f81c:    524f5252    RROR    DCD    1380930130
        0x0000f820:    73616320     cas    DCD    1935762208
        0x0000f824:    2e65        e.      DCW    11877
        0x0000f826:    00          .       DCB    0
    .L.str.2
        0x0000f827:    48          H       DCB    72
        0x0000f828:    69747469    itti    DCD    1769239657
        0x0000f82c:    7520676e    ng u    DCD    1965057902
        0x0000f830:    7265646e    nder    DCD    1919247470
        0x0000f834:    776f6c66    flow    DCD    2003790950
        0x0000f838:    726f6620     for    DCD    1919903264
        0x0000f83c:    65687420     the    DCD    1701344288
        0x0000f840:    71657220     req    DCD    1902473760
        0x0000f844:    74736575    uest    DCD    1953719669
        0x0000f848:    49206465    ed I    DCD    1226859621
        0x0000f84c:    4620534f    OS F    DCD    1176523599
        0x0000f850:    204f4649    IFO     DCD    542066249
        0x0000f854:    6e617274    tran    DCD    1851880052
        0x0000f858:    72656673    sfer    DCD    1919247987
        0x0000f85c:    002e        ..      DCW    46
    .L.str.1
        0x0000f85e:    6f69        io      DCW    28521
        0x0000f860:    69665f73    s_fi    DCD    1768316787
        0x0000f864:    632e6f66    fo.c    DCD    1663987558
        0x0000f868:    00          .       DCB    0
    .L.str
        0x0000f869:    0a0a0a      ...     DCB    10,10,10
        0x0000f86c:    0a0a0a0a    ....    DCD    168430090
        0x0000f870:    0a0a0a0a    ....    DCD    168430090
        0x0000f874:    0a0a0a0a    ....    DCD    168430090
        0x0000f878:    000a0a0a    ....    DCD    657930
    Region$$Table$$Base
        0x0000f87c:    0000f8b0    ....    DCD    63664
        0x0000f880:    10011000    ....    DCD    268505088
        0x0000f884:    00000080    ....    DCD    128
        0x0000f888:    0000c170    p...    DCD    49520
        0x0000f88c:    0000f930    0...    DCD    63792
        0x0000f890:    10011080    ....    DCD    268505216
        0x0000f894:    00000b50    P...    DCD    2896
        0x0000f898:    0000c18c    ....    DCD    49548
        0x0000f89c:    0000f930    0...    DCD    63792
        0x0000f8a0:    10010000    ....    DCD    268500992
        0x0000f8a4:    00001000    ....    DCD    4096
        0x0000f8a8:    0000c18c    ....    DCD    49548
    Region$$Table$$Limit

** Section #2 'RWMEM' (SHT_PROGBITS) [SHF_ALLOC + SHF_WRITE]
    Size   : 128 bytes (alignment 8)
    Address: 0x10011000

    0x10011000:   0a 00 00 00 03 00 00 00 1e 00 00 00 03 00 00 00    ................
    0x10011010:   0f 00 00 00 03 00 00 00 0e 00 00 00 03 00 00 00    ................
    0x10011020:   11 00 00 00 03 00 00 00 00 20 00 00 78 00 00 00    ......... ..x...
    0x10011030:   80 00 00 00 00 01 00 00 40 00 00 00 b0 17 01 10    ........@.......
    0x10011040:   ff 03 00 00 01 00 00 00 78 00 00 00 80 00 00 00    ........x.......
    0x10011050:   00 01 00 00 20 00 00 00 b0 17 01 10 ff 03 00 00    .... ...........
    0x10011060:   00 00 00 00 4a 02 00 00 00 00 00 00 ff ff ff ff    ....J...........
    0x10011070:   ff ff ff ff ff ff ff ff ff ff ff ff 00 00 00 00    ................


** Section #3 'RWMEM' (SHT_NOBITS) [SHF_ALLOC + SHF_WRITE]
    Size   : 2896 bytes (alignment 8)
    Address: 0x10011080


** Section #4 'STACKMEM' (SHT_NOBITS) [SHF_ALLOC + SHF_WRITE]
    Size   : 4096 bytes (alignment 8)
    Address: 0x10010000


** Section #5 '.debug_abbrev' (SHT_PROGBITS)
    Size   : 855 bytes


** Section #6 '.debug_frame' (SHT_PROGBITS)
    Size   : 6196 bytes


** Section #7 '.debug_info' (SHT_PROGBITS)
    Size   : 5016 bytes


** Section #8 '.debug_line' (SHT_PROGBITS)
    Size   : 5416 bytes


** Section #9 '.debug_str' (SHT_PROGBITS)
    Size   : 3856 bytes


** Section #10 '.debug_ranges' (SHT_PROGBITS)
    Size   : 264 bytes


** Section #11 '.symtab' (SHT_SYMTAB)
    Size   : 7120 bytes (alignment 4)
    String table #12 '.strtab'
    Last local symbol no. 226

    Symbol table .symtab (444 symbols, 226 local)

      #  Symbol Name                Value      Bind  Sec  Type  Vis  Size
    ========================================================================

      1  $d                         0x0000c000   Lc    1   --   De 
      2  $t                         0x0000c100   Lc    1   --   De 
      3  $d                         0x0000c130   Lc    1   --   De 
      4  $t                         0x0000c134   Lc    1   --   De 
      5  $d                         0x0000c168   Lc    1   --   De 
      6  $t                         0x0000c170   Lc    1   --   De 
      7  $d                         0x0000c1de   Lc    1   --   De 
      8  $t                         0x0000c1ec   Lc    1   --   De 
      9  $d                         0x0000c254   Lc    1   --   De 
     10  $t                         0x0000c258   Lc    1   --   De 
     11  $d                         0x0000c260   Lc    1   --   De 
     12  $t                         0x0000c264   Lc    1   --   De 
     13  $t.6                       0x0000c268   Lc    1   --   De 
     14  $d.4                       0x0000c74a   Lc    1   --   De 
     15  $t.5                       0x0000c75c   Lc    1   --   De 
     16  $d.1                       0x0000c8dc   Lc    1   --   De 
     17  $t.2                       0x0000c8e6   Lc    1   --   De 
     18  $d.2                       0x0000cb34   Lc    1   --   De 
     19  $t.3                       0x0000cb3c   Lc    1   --   De 
     20  $d.4                       0x0000cc9c   Lc    1   --   De 
     21  $t.0                       0x0000ccd4   Lc    1   --   De 
     22  $d.1                       0x0000d04c   Lc    1   --   De 
     23  $t.2                       0x0000d050   Lc    1   --   De 
     24  $d.6                       0x0000d142   Lc    1   --   De 
     25  $t.7                       0x0000d148   Lc    1   --   De 
     26  $d.17                      0x0000d308   Lc    1   --   De 
     27  $t.18                      0x0000d312   Lc    1   --   De 
     28  $d.15                      0x0000d5c4   Lc    1   --   De 
     29  $t.3                       0x0000d5d4   Lc    1   --   De 
     30  $d.4                       0x0000e26e   Lc    1   --   De 
     31  $t.5                       0x0000e2d4   Lc    1   --   De 
     32  $t                         0x0000f39c   Lc    1   --   De 
     33  $d                         0x0000f3ec   Lc    1   --   De 
     34  $t                         0x0000f3f0   Lc    1   --   De 
     35  $d                         0x0000f46e   Lc    1   --   De 
     36  $t                         0x0000f472   Lc    1   --   De 
     37  $d.realdata                0x0000f4c0   Lc    1   --   De 
     38  $d.realdata                0x10011000   Lc    2   --   De 
     39  $d.realdata                0x10010000   Lc    4   --   De 
     40  ios_fifo.c                 0x00000000   Lc  Abs  File  De 
     41  __NVIC_EnableIRQ           0x0000c269   Lc    1  Code  De   0x30
     42  ios_set_up                 0x0000ec45   Lc    1  Code  De   0xc8
     43  g_sTimer                   0x10011060   Lc    2  Data  De   0xc
     44  g_pIOSHandle               0x100111a8   Lc    3  Data  De   0x4
     45  .L.str.4                   0x0000f7ca   Lc    1  Data  De   0x12
     46  .L.str                     0x0000f7dc   Lc    1  Data  De   0x37
     47  .L.str.3                   0x0000f813   Lc    1  Data  De   0x14
     48  .L.str.2                   0x0000f827   Lc    1  Data  De   0x37
     49  .L.str.1                   0x0000f85e   Lc    1  Data  De   0xb
     50  g_sIOSSpiConfig            0x10011044   Lc    2  Data  De   0x1c
     51  am_util_delay.c            0x00000000   Lc  Abs  File  De 
     52  am_util_stdio.c            0x00000000   Lc  Abs  File  De 
     53  decstr_to_int              0x0000e789   Lc    1  Code  De   0xa6
     54  simple_strlen              0x0000f1a9   Lc    1  Code  De   0x36
     55  padbuffer                  0x0000f051   Lc    1  Code  De   0x50
     56  ndigits_in_hex             0x0000efa5   Lc    1  Code  De   0x3e
     57  uint64_to_hexstr           0x0000f255   Lc    1  Code  De   0xc0
     58  ndigits_in_u64             0x0000f015   Lc    1  Code  De   0x3c
     59  uint64_to_str              0x0000f315   Lc    1  Code  De   0x88
     60  ndigits_in_i64             0x0000efe5   Lc    1  Code  De   0x30
     61  ftoa                       0x0000e949   Lc    1  Code  De   0x230
     62  divu64_10                  0x0000e831   Lc    1  Code  De   0x118
     63  g_bTxtXlate                0x100111a5   Lc    3  Data  De   0x1
     64  g_prfbuf                   0x100111b0   Lc    3  Data  De   0x400
     65  .L.str                     0x0000f869   Lc    1  Data  De   0x13
     66  ../keil6/startup_keil6.s   0x00000000   Lc  Abs  File  De 
     67  STACK                      0x10010000   Lc    4  Sect  De   0x1000
     68  StackMem                   0x10010000   Lc    4  Data  De 
     69  HEAP                       0x10011bd0   Lc    3  Sect  De 
     70  HeapMem                    0x10011bd0   Lc    3  Data  De 
     71  RESET                      0x0000c000   Lc    1  Sect  De   0x134
     72  $v0                        0x0000c100   Lc    1   --   De 
     73  .text                      0x0000c1d4   Lc    1  Sect  De   0x18
     74  $v0                        0x0000c1d4   Lc    1   --   De 
     75  am_hal_global.c            0x00000000   Lc  Abs  File  De 
     76  am_bsp.c                   0x00000000   Lc  Abs  File  De 
     77  g_ui32PrintInterface       0x10011bc8   Lc    3  Data  De   0x4
     78  am_hal_cachectrl.c         0x00000000   Lc  Abs  File  De 
     79  set_LPMMODE                0x0000f0a1   Lc    1  Code  De   0x5a
     80  set_SEDELAY                0x0000f151   Lc    1  Code  De   0x56
     81  set_RDWAIT                 0x0000f0fd   Lc    1  Code  De   0x54
     82  am_hal_clkgen.c            0x00000000   Lc  Abs  File  De 
     83  am_hal_ctimer.c            0x00000000   Lc  Abs  File  De 
     84  g_am_hal_ctimer_ppfnHandlers
                                    0x1001111c   Lc    3  Data  De   0x80
     85  g_ui8ClkSrc                0x1001106c   Lc    2  Data  De   0x10
     86  am_hal_debug.c             0x00000000   Lc  Abs  File  De 
     87  am_hal_flash.c             0x00000000   Lc  Abs  File  De 
     88  .L__const.am_hal_flash_store_ui32.SRAM_write_ui32
                                    0x0000f4c0   Lc    1  Data  De   0xc
     89  am_hal_gpio.c              0x00000000   Lc  Abs  File  De 
     90  g_ui8Bit76Capabilities     0x0000f5c4   Lc    1  Data  De   0x4a
     91  g_ui8Inpen                 0x0000f60e   Lc    1  Data  De   0x4a
     92  g_ui8nCEpins               0x0000f780   Lc    1  Data  De   0x4a
     93  g_ui8NCEtable              0x0000f658   Lc    1  Data  De   0x128
     94  am_hal_interrupt.c         0x00000000   Lc  Abs  File  De 
     95  am_hal_ios.c               0x00000000   Lc  Abs  File  De 
     96  am_hal_ios_fifo_ptr_set    0x0000d3b9   Lc    1  Code  De   0x44
     97  am_hal_sysctrl.c           0x00000000   Lc  Abs  File  De 
     98  am_bsp_pins.c              0x00000000   Lc  Abs  File  De 
     99  am_hal_burst.c             0x00000000   Lc  Abs  File  De 
    100  g_bEnFromManual            0x100111a1   Lc    3  Data  De   0x1
    101  g_bDisFromManual           0x100111a0   Lc    3  Data  De   0x1
    102  am_hal_itm.c               0x00000000   Lc  Abs  File  De 
    103  am_hal_pwrctrl.c           0x00000000   Lc  Abs  File  De 
    104  am_hal_reset.c             0x00000000   Lc  Abs  File  De 
    105  am_hal_rtc.c               0x00000000   Lc  Abs  File  De 
    106  am_hal_tpiu.c              0x00000000   Lc  Abs  File  De 
    107  am_hal_uart.c              0x00000000   Lc  Abs  File  De 
    108  am_hal_queue.c             0x00000000   Lc  Abs  File  De 
    109  dc.s                       0x00000000   Lc  Abs  File  De 
    110  ../clib/heapaux.c          0x00000000   Lc  Abs  File  De 
    111  .text                      0x0000c1ec   Lc    1  Sect  De 
    112  ../clib/angel/startup.s    0x00000000   Lc  Abs  File  De 
    113  !!!main                    0x0000c134   Lc    1  Sect  De   0x8
    114  ../clib/angel/handlers.s   0x00000000   Lc  Abs  File  De 
    115  !!handler_copy             0x0000c170   Lc    1  Sect  De   0x1a
    116  ../fplib/d2f.s             0x00000000   Lc  Abs  File  De 
    117  x$fpl$d2f                  0x0000f39c   Lc    1  Sect  De   0x62
    118  $v0                        0x0000f39c   Lc    1   --   De 
    119  ../clib/angel/kernel.s     0x00000000   Lc  Abs  File  De 
    120  .ARM.Collect$$rtentry$$00000000
                                    0x0000c1b4   Lc    1  Sect  De 
    121  ../fplib/dnaninf.s         0x00000000   Lc  Abs  File  De 
    122  x$fpl$dnaninf              0x0000f3fe   Lc    1  Sect  De   0x9c
    123  $v0                        0x0000f3fe   Lc    1   --   De 
    124  ../fplib/fretinf.s         0x00000000   Lc  Abs  File  De 
    125  x$fpl$fretinf              0x0000f4b4   Lc    1  Sect  De   0xa
    126  $v0                        0x0000f4b4   Lc    1   --   De 
    127  ../fplib/usenofp.s         0x00000000   Lc  Abs  File  De 
    128  x$fpl$usenofp              0x0000f4be   Lc    1  Sect  De 
    129  ../clib/angel/kernel.s     0x00000000   Lc  Abs  File  De 
    130  .ARM.Collect$$rtentry$$00000002
                                    0x0000c1b4   Lc    1  Sect  De 
    131  .ARM.Collect$$rtentry$$00000009
                                    0x0000c1ba   Lc    1  Sect  De 
    132  .ARM.Collect$$rtentry$$0000000A
                                    0x0000c1ba   Lc    1  Sect  De   0x4
    133  .ARM.Collect$$rtentry$$0000000C
                                    0x0000c1be   Lc    1  Sect  De 
    134  .ARM.Collect$$rtentry$$0000000D
                                    0x0000c1be   Lc    1  Sect  De   0x8
    135  ../clib/angel/kernel.s     0x00000000   Lc  Abs  File  De 
    136  .ARM.Collect$$rtentry$$00000004
                                    0x0000c1b4   Lc    1  Sect  De   0x6
    137  ../clib/angel/sys.s        0x00000000   Lc  Abs  File  De 
    138  .text                      0x0000c1f2   Lc    1  Sect  De   0x4a
    139  ../clib/stdlib.c           0x00000000   Lc  Abs  File  De 
    140  .text                      0x0000c23c   Lc    1  Sect  De 
    141  ../clib/angel/boardlib.s   0x00000000   Lc  Abs  File  De 
    142  ../clib/angel/boardlib.s   0x00000000   Lc  Abs  File  De 
    143  ../clib/angel/boardlib.s   0x00000000   Lc  Abs  File  De 
    144  ../clib/libinit.s          0x00000000   Lc  Abs  File  De 
    145  .ARM.Collect$$libinit$$00000000
                                    0x0000c1a8   Lc    1  Sect  De   0x2
    146  ../clib/angel/sys.s        0x00000000   Lc  Abs  File  De 
    147  .text                      0x0000c250   Lc    1  Sect  De   0x8
    148  .bss                       0x10011080   Lc    3  Sect  De   0x60
    149  ../clib/angel/kernel.s     0x00000000   Lc  Abs  File  De 
    150  .ARM.Collect$$rtexit$$00000000
                                    0x0000c1c6   Lc    1  Sect  De   0x2
    151  ../clib/libinit.s          0x00000000   Lc  Abs  File  De 
    152  .ARM.Collect$$libinit$$00000001
                                    0x0000c1aa   Lc    1  Sect  De   0x4
    153  .ARM.Collect$$libinit$$00000004
                                    0x0000c1ae   Lc    1  Sect  De 
    154  .ARM.Collect$$libinit$$0000000A
                                    0x0000c1ae   Lc    1  Sect  De 
    155  .ARM.Collect$$libinit$$0000000C
                                    0x0000c1ae   Lc    1  Sect  De 
    156  .ARM.Collect$$libinit$$0000000E
                                    0x0000c1ae   Lc    1  Sect  De 
    157  .ARM.Collect$$libinit$$00000011
                                    0x0000c1ae   Lc    1  Sect  De 
    158  .ARM.Collect$$libinit$$00000013
                                    0x0000c1ae   Lc    1  Sect  De 
    159  .ARM.Collect$$libinit$$00000015
                                    0x0000c1ae   Lc    1  Sect  De 
    160  .ARM.Collect$$libinit$$00000017
                                    0x0000c1ae   Lc    1  Sect  De 
    161  .ARM.Collect$$libinit$$00000019
                                    0x0000c1ae   Lc    1  Sect  De 
    162  .ARM.Collect$$libinit$$0000001B
                                    0x0000c1ae   Lc    1  Sect  De 
    163  .ARM.Collect$$libinit$$0000001D
                                    0x0000c1ae   Lc    1  Sect  De 
    164  .ARM.Collect$$libinit$$0000001F
                                    0x0000c1ae   Lc    1  Sect  De 
    165  .ARM.Collect$$libinit$$00000021
                                    0x0000c1ae   Lc    1  Sect  De 
    166  .ARM.Collect$$libinit$$00000023
                                    0x0000c1ae   Lc    1  Sect  De 
    167  .ARM.Collect$$libinit$$00000025
                                    0x0000c1ae   Lc    1  Sect  De 
    168  .ARM.Collect$$libinit$$0000002C
                                    0x0000c1ae   Lc    1  Sect  De 
    169  .ARM.Collect$$libinit$$0000002E
                                    0x0000c1ae   Lc    1  Sect  De 
    170  .ARM.Collect$$libinit$$00000030
                                    0x0000c1ae   Lc    1  Sect  De 
    171  .ARM.Collect$$libinit$$00000032
                                    0x0000c1ae   Lc    1  Sect  De 
    172  .ARM.Collect$$libinit$$00000033
                                    0x0000c1ae   Lc    1  Sect  De   0x2
    173  ../clib/angel/kernel.s     0x00000000   Lc  Abs  File  De 
    174  .ARM.Collect$$rtexit$$00000002
                                    0x0000c1c8   Lc    1  Sect  De 
    175  .ARM.Collect$$rtexit$$00000003
                                    0x0000c1c8   Lc    1  Sect  De   0x4
    176  .ARM.Collect$$rtexit$$00000004
                                    0x0000c1cc   Lc    1  Sect  De   0x6
    177  ../clib/armsys.c           0x00000000   Lc  Abs  File  De 
    178  ../clib/armsys.c           0x00000000   Lc  Abs  File  De 
    179  ../fplib/fpinit.s          0x00000000   Lc  Abs  File  De 
    180  x$fpl$fpinit               0x0000f49a   Lc    1  Sect  De   0x1a
    181  $v0                        0x0000f49a   Lc    1   --   De 
    182  ../clib/angel/sysapp.c     0x00000000   Lc  Abs  File  De 
    183  .text                      0x0000c258   Lc    1  Sect  De 
    184  ../clib/angel/sysapp.c     0x00000000   Lc  Abs  File  De 
    185  ../clib/angel/boardlib.s   0x00000000   Lc  Abs  File  De 
    186  ../clib/armsys.c           0x00000000   Lc  Abs  File  De 
    187  ../clib/armsys.c           0x00000000   Lc  Abs  File  De 
    188  ../clib/libinit.s          0x00000000   Lc  Abs  File  De 
    189  .ARM.Collect$$libshutdown$$00000000
                                    0x0000c1b0   Lc    1  Sect  De   0x2
    190  ../clib/angel/sysapp.c     0x00000000   Lc  Abs  File  De 
    191  ../clib/angel/sysapp.c     0x00000000   Lc  Abs  File  De 
    192  ../clib/angel/sys.s        0x00000000   Lc  Abs  File  De 
    193  .text                      0x0000c264   Lc    1  Sect  De   0x2
    194  ../clib/angel/sys.s        0x00000000   Lc  Abs  File  De 
    195  .text                      0x0000c266   Lc    1  Sect  De 
    196  ../clib/heapalloc.c        0x00000000   Lc  Abs  File  De 
    197  ../clib/signal.c           0x00000000   Lc  Abs  File  De 
    198  ../clib/signal.c           0x00000000   Lc  Abs  File  De 
    199  ../clib/libinit.s          0x00000000   Lc  Abs  File  De 
    200  .ARM.Collect$$libshutdown$$00000002
                                    0x0000c1b2   Lc    1  Sect  De 
    201  .ARM.Collect$$libshutdown$$00000004
                                    0x0000c1b2   Lc    1  Sect  De 
    202  .ARM.Collect$$libshutdown$$00000007
                                    0x0000c1b2   Lc    1  Sect  De 
    203  .ARM.Collect$$libshutdown$$0000000A
                                    0x0000c1b2   Lc    1  Sect  De 
    204  .ARM.Collect$$libshutdown$$0000000C
                                    0x0000c1b2   Lc    1  Sect  De 
    205  .ARM.Collect$$libshutdown$$0000000F
                                    0x0000c1b2   Lc    1  Sect  De 
    206  .ARM.Collect$$libshutdown$$00000010
                                    0x0000c1b2   Lc    1  Sect  De   0x2
    207  ../clib/angel/rt.s         0x00000000   Lc  Abs  File  De 
    208  ../clib/signal.c           0x00000000   Lc  Abs  File  De 
    209  ../clib/signal.c           0x00000000   Lc  Abs  File  De 
    210  ../clib/signal.c           0x00000000   Lc  Abs  File  De 
    211  ../clib/signal.c           0x00000000   Lc  Abs  File  De 
    212  ../clib/angel/sysapp.c     0x00000000   Lc  Abs  File  De 
    213  ../clib/angel/sysapp.c     0x00000000   Lc  Abs  File  De 
    214  ../clib/signal.s           0x00000000   Lc  Abs  File  De 
    215  ../clib/signal.c           0x00000000   Lc  Abs  File  De 
    216  ../clib/signal.c           0x00000000   Lc  Abs  File  De 
    217  ../clib/signal.c           0x00000000   Lc  Abs  File  De 
    218  ../clib/signal.c           0x00000000   Lc  Abs  File  De 
    219  ../clib/signal.c           0x00000000   Lc  Abs  File  De 
    220  ../clib/signal.c           0x00000000   Lc  Abs  File  De 
    221  ../clib/signal.c           0x00000000   Lc  Abs  File  De 
    222  ../clib/signal.c           0x00000000   Lc  Abs  File  De 
    223  ../clib/angel/scatter.s    0x00000000   Lc  Abs  File  De 
    224  !!!scatter                 0x0000c13c   Lc    1  Sect  De   0x34
    225  ../clib/angel/handlers.s   0x00000000   Lc  Abs  File  De 
    226  !!handler_zi               0x0000c18c   Lc    1  Sect  De   0x1c
    227  BuildAttributes$$THM_ISAv4$E$P$D$K$B$S$7EM$VFPi3$EXTD16$VFPS$VFMA$PE$A:L22UL41UL21$X:L11$S22US41US21$IEEE1$IW$~IW$USESV6$~STKCKD$USESV7$~SHL$OSPACE$ROPI$EBA8$UX$STANDARDLIB$REQ8$PRES8$EABIv2
                                    0x00000000   Gb  Abs   --   Hi 
    228  __Vectors                  0x0000c000   Gb    1  Data  Hi 
    229  __Patchable                0x0000c0c8   Gb    1  Data  Hi 
    230  Reset_Handler              0x0000c101   Wk    1  Code  Hi   0x1c
    231  HardFault_Handler          0x0000c11d   Wk    1  Code  Hi   0x2
    232  NMI_Handler                0x0000c11f   Wk    1  Code  Hi   0x2
    233  MemManage_Handler          0x0000c121   Wk    1  Code  Hi   0x2
    234  BusFault_Handler           0x0000c123   Wk    1  Code  Hi   0x2
    235  UsageFault_Handler         0x0000c125   Wk    1  Code  Hi   0x2
    236  SVC_Handler                0x0000c127   Wk    1  Code  Hi   0x2
    237  DebugMon_Handler           0x0000c129   Wk    1  Code  Hi   0x2
    238  PendSV_Handler             0x0000c12b   Wk    1  Code  Hi   0x2
    239  SysTick_Handler            0x0000c12d   Wk    1  Code  Hi   0x2
    240  am_adc_isr                 0x0000c12f   Wk    1  Code  Hi 
    241  am_ble_isr                 0x0000c12f   Wk    1  Code  Hi 
    242  am_brownout_isr            0x0000c12f   Wk    1  Code  Hi 
    243  am_clkgen_isr              0x0000c12f   Wk    1  Code  Hi 
    244  am_gpio_isr                0x0000c12f   Wk    1  Code  Hi 
    245  am_iomaster0_isr           0x0000c12f   Wk    1  Code  Hi 
    246  am_iomaster1_isr           0x0000c12f   Wk    1  Code  Hi 
    247  am_iomaster2_isr           0x0000c12f   Wk    1  Code  Hi 
    248  am_iomaster3_isr           0x0000c12f   Wk    1  Code  Hi 
    249  am_iomaster4_isr           0x0000c12f   Wk    1  Code  Hi 
    250  am_iomaster5_isr           0x0000c12f   Wk    1  Code  Hi 
    251  am_ioslave_acc_isr         0x0000c12f   Wk    1  Code  Hi 
    252  am_mspi0_isr               0x0000c12f   Wk    1  Code  Hi 
    253  am_mspi1_isr               0x0000c12f   Wk    1  Code  Hi 
    254  am_mspi2_isr               0x0000c12f   Wk    1  Code  Hi 
    255  am_pdm0_isr                0x0000c12f   Wk    1  Code  Hi 
    256  am_rtc_isr                 0x0000c12f   Wk    1  Code  Hi 
    257  am_scard_isr               0x0000c12f   Wk    1  Code  Hi 
    258  am_software0_isr           0x0000c12f   Wk    1  Code  Hi 
    259  am_stimer_cmpr0_isr        0x0000c12f   Wk    1  Code  Hi 
    260  am_stimer_cmpr1_isr        0x0000c12f   Wk    1  Code  Hi 
    261  am_stimer_cmpr2_isr        0x0000c12f   Wk    1  Code  Hi 
    262  am_stimer_cmpr3_isr        0x0000c12f   Wk    1  Code  Hi 
    263  am_stimer_cmpr4_isr        0x0000c12f   Wk    1  Code  Hi 
    264  am_stimer_cmpr5_isr        0x0000c12f   Wk    1  Code  Hi 
    265  am_stimer_cmpr6_isr        0x0000c12f   Wk    1  Code  Hi 
    266  am_stimer_cmpr7_isr        0x0000c12f   Wk    1  Code  Hi 
    267  am_stimer_isr              0x0000c12f   Wk    1  Code  Hi 
    268  am_uart0_isr               0x0000c12f   Wk    1  Code  Hi 
    269  am_uart1_isr               0x0000c12f   Wk    1  Code  Hi 
    270  am_uart_isr                0x0000c12f   Wk    1  Code  Hi 
    271  am_vcomp_isr               0x0000c12f   Wk    1  Code  Hi 
    272  am_watchdog_isr            0x0000c12f   Wk    1  Code  Hi 
    273  __main                     0x0000c135   Gb    1  Code  Hi   0x8
    274  __scatterload              0x0000c13d   Gb    1  Code  Hi 
    275  __scatterload_rt2          0x0000c13d   Gb    1  Code  Hi   0x2c
    276  __scatterload_rt2_thumb_only
                                    0x0000c13d   Gb    1  Code  Hi 
    277  __scatterload_null         0x0000c14b   Gb    1  Code  Hi 
    278  __scatterload_copy         0x0000c171   Gb    1  Code  Hi   0x1a
    279  __scatterload_zeroinit     0x0000c18d   Gb    1  Code  Hi   0x1c
    280  __rt_lib_init              0x0000c1a9   Gb    1  Code  De 
    281  __rt_lib_init_fp_1         0x0000c1ab   Gb    1  Code  Hi 
    282  __rt_lib_init_alloca_1     0x0000c1af   Gb    1  Code  Hi 
    283  __rt_lib_init_argv_1       0x0000c1af   Gb    1  Code  Hi 
    284  __rt_lib_init_atexit_1     0x0000c1af   Gb    1  Code  Hi 
    285  __rt_lib_init_clock_1      0x0000c1af   Gb    1  Code  Hi 
    286  __rt_lib_init_cpp_1        0x0000c1af   Gb    1  Code  Hi 
    287  __rt_lib_init_exceptions_1 0x0000c1af   Gb    1  Code  Hi 
    288  __rt_lib_init_fp_trap_1    0x0000c1af   Gb    1  Code  Hi 
    289  __rt_lib_init_getenv_1     0x0000c1af   Gb    1  Code  Hi 
    290  __rt_lib_init_heap_1       0x0000c1af   Gb    1  Code  Hi 
    291  __rt_lib_init_lc_collate_1 0x0000c1af   Gb    1  Code  Hi 
    292  __rt_lib_init_lc_ctype_1   0x0000c1af   Gb    1  Code  Hi 
    293  __rt_lib_init_lc_monetary_1
                                    0x0000c1af   Gb    1  Code  Hi 
    294  __rt_lib_init_lc_numeric_1 0x0000c1af   Gb    1  Code  Hi 
    295  __rt_lib_init_lc_time_1    0x0000c1af   Gb    1  Code  Hi 
    296  __rt_lib_init_preinit_1    0x0000c1af   Gb    1  Code  Hi 
    297  __rt_lib_init_rand_1       0x0000c1af   Gb    1  Code  Hi 
    298  __rt_lib_init_return       0x0000c1af   Gb    1  Code  Hi 
    299  __rt_lib_init_signal_1     0x0000c1af   Gb    1  Code  Hi 
    300  __rt_lib_init_stdio_1      0x0000c1af   Gb    1  Code  Hi 
    301  __rt_lib_init_user_alloc_1 0x0000c1af   Gb    1  Code  Hi 
    302  __rt_lib_shutdown          0x0000c1b1   Gb    1  Code  De 
    303  __rt_lib_shutdown_cpp_1    0x0000c1b3   Gb    1  Code  Hi 
    304  __rt_lib_shutdown_fp_trap_1
                                    0x0000c1b3   Gb    1  Code  Hi 
    305  __rt_lib_shutdown_heap_1   0x0000c1b3   Gb    1  Code  Hi 
    306  __rt_lib_shutdown_return   0x0000c1b3   Gb    1  Code  Hi 
    307  __rt_lib_shutdown_signal_1 0x0000c1b3   Gb    1  Code  Hi 
    308  __rt_lib_shutdown_stdio_1  0x0000c1b3   Gb    1  Code  Hi 
    309  __rt_lib_shutdown_user_alloc_1
                                    0x0000c1b3   Gb    1  Code  Hi 
    310  __rt_entry                 0x0000c1b5   Gb    1  Code  Hi 
    311  __rt_entry_presh_1         0x0000c1b5   Gb    1  Code  Hi 
    312  __rt_entry_sh              0x0000c1b5   Gb    1  Code  Hi 
    313  __rt_entry_li              0x0000c1bb   Gb    1  Code  Hi 
    314  __rt_entry_postsh_1        0x0000c1bb   Gb    1  Code  Hi 
    315  __rt_entry_main            0x0000c1bf   Gb    1  Code  Hi 
    316  __rt_entry_postli_1        0x0000c1bf   Gb    1  Code  Hi 
    317  __rt_exit                  0x0000c1c7   Gb    1  Code  De 
    318  __rt_exit_ls               0x0000c1c9   Gb    1  Code  Hi 
    319  __rt_exit_prels_1          0x0000c1c9   Gb    1  Code  Hi 
    320  __rt_exit_exit             0x0000c1cd   Gb    1  Code  Hi 
    321  __user_initial_stackheap   0x0000c1d5   Gb    1  Code  Hi   0xa
    322  __use_two_region_memory    0x0000c1ed   Gb    1  Code  Hi   0x2
    323  __rt_heap_escrow$2region   0x0000c1ef   Gb    1  Code  De   0x2
    324  __rt_heap_expand$2region   0x0000c1f1   Gb    1  Code  De   0x2
    325  __user_setup_stackheap     0x0000c1f3   Gb    1  Code  De   0x4a
    326  exit                       0x0000c23d   Gb    1  Code  De   0x12
    327  __user_libspace            0x0000c251   Wk    1  Code  De   0x8
    328  __user_perproc_libspace    0x0000c251   Wk    1  Code  De 
    329  __user_perthread_libspace  0x0000c251   Wk    1  Code  De 
    330  _sys_exit                  0x0000c259   Gb    1  Code  De   0x8
    331  __I$use$semihosting        0x0000c265   Gb    1  Code  Hi 
    332  __use_no_semihosting_swi   0x0000c265   Gb    1  Code  Hi   0x2
    333  __semihosting_library_function
                                    0x0000c267   Gb    1  Code  Hi 
    334  am_bsp_ios_pins_enable     0x0000c299   Gb    1  Code  Hi   0x6e
    335  am_bsp_itm_printf_enable   0x0000c307   Gb    1  Code  Hi   0x44
    336  am_bsp_low_power_init      0x0000c34d   Gb    1  Code  Hi   0x46
    337  am_ctimer_isr              0x0000c395   Gb    1  Code  Hi   0x1c
    338  am_hal_burst_ldo_charge    0x0000c3b1   Gb    1  Code  Hi   0xac
    339  am_hal_burst_ldo_patch_check
                                    0x0000c45d   Gb    1  Code  Hi   0x16
    340  am_hal_burst_mode_disable  0x0000c473   Gb    1  Code  Hi   0x70
    341  am_hal_burst_mode_disable_w_manual_sequence
                                    0x0000c4e3   Gb    1  Code  Hi   0x50
    342  am_hal_burst_mode_enable   0x0000c533   Gb    1  Code  Hi   0x76
    343  am_hal_burst_mode_enable_w_manual_sequence
                                    0x0000c5a9   Gb    1  Code  Hi   0x148
    344  am_hal_cachectrl_config    0x0000c6f1   Gb    1  Code  Hi   0x48
    345  am_hal_cachectrl_control   0x0000c739   Gb    1  Code  Hi   0x16c
    346  am_hal_cachectrl_enable    0x0000c8a5   Gb    1  Code  Hi   0x14
    347  am_hal_clkgen_control      0x0000c8b9   Gb    1  Code  Hi   0x138
    348  am_hal_clkgen_status_get   0x0000c9f1   Gb    1  Code  Hi   0x38
    349  am_hal_ctimer_clear        0x0000ca29   Gb    1  Code  Hi   0x2c
    350  am_hal_ctimer_config       0x0000ca55   Gb    1  Code  Hi   0x76
    351  am_hal_ctimer_int_clear    0x0000cacb   Gb    1  Code  Hi   0x22
    352  am_hal_ctimer_int_enable   0x0000caed   Gb    1  Code  Hi   0x26
    353  am_hal_ctimer_int_register 0x0000cb15   Gb    1  Code  Hi   0x188
    354  am_hal_ctimer_int_service  0x0000ccd5   Gb    1  Code  Hi   0x32
    355  am_hal_ctimer_int_status_get
                                    0x0000cd07   Gb    1  Code  Hi   0x28
    356  am_hal_ctimer_period_set   0x0000cd2f   Gb    1  Code  Hi   0x72
    357  am_hal_ctimer_start        0x0000cda1   Gb    1  Code  Hi   0x60
    358  am_hal_ctimer_stop         0x0000ce01   Gb    1  Code  Hi   0x30
    359  am_hal_debug_error         0x0000ce31   Wk    1  Code  Hi   0x2
    360  am_hal_flash_delay         0x0000ce33   Gb    1  Code  Hi   0x2a
    361  am_hal_flash_delay_status_check
                                    0x0000ce5d   Gb    1  Code  Hi   0x70
    362  am_hal_flash_load_ui32     0x0000cecd   Gb    1  Code  Hi   0x8
    363  am_hal_flash_store_ui32    0x0000ced5   Gb    1  Code  Hi   0x22
    364  am_hal_gpio_pinconfig      0x0000cef9   Gb    1  Code  Hi   0x212
    365  am_hal_gpio_state_write    0x0000d10d   Gb    1  Code  Hi   0x98
    366  am_hal_interrupt_master_disable
                                    0x0000d1a5   Gb    1  Code  Hi   0x8
    367  am_hal_interrupt_master_enable
                                    0x0000d1ad   Gb    1  Code  Hi   0x8
    368  am_hal_interrupt_master_set
                                    0x0000d1b5   Gb    1  Code  Hi   0x6
    369  am_hal_ios_configure       0x0000d1bb   Gb    1  Code  Hi   0x116
    370  am_hal_ios_control         0x0000d2d1   Gb    1  Code  Hi   0xe8
    371  am_hal_ios_fifo_space_used 0x0000d3fd   Gb    1  Code  Hi   0x50
    372  am_hal_ios_fifo_write      0x0000d44d   Gb    1  Code  Hi   0x178
    373  am_hal_ios_initialize      0x0000d5d5   Gb    1  Code  Hi   0x34
    374  am_hal_ios_interrupt_clear 0x0000d609   Gb    1  Code  Hi   0x26
    375  am_hal_ios_interrupt_enable
                                    0x0000d62f   Gb    1  Code  Hi   0x2a
    376  am_hal_ios_interrupt_service
                                    0x0000d659   Gb    1  Code  Hi   0x1b6
    377  am_hal_ios_interrupt_status_get
                                    0x0000d80f   Gb    1  Code  Hi   0x34
    378  am_hal_ios_power_ctrl      0x0000d843   Gb    1  Code  Hi   0xa2
    379  am_hal_itm_enable          0x0000d8e5   Gb    1  Code  Hi   0x42
    380  am_hal_itm_print           0x0000d929   Gb    1  Code  Hi   0x2e
    381  am_hal_pwrctrl_blebuck_trim
                                    0x0000d957   Gb    1  Code  Hi   0x52
    382  am_hal_pwrctrl_bleif_workaround
                                    0x0000d9a9   Gb    1  Code  Hi   0x74
    383  am_hal_pwrctrl_ldo_vddx_active_trim_adj_default
                                    0x0000da1d   Gb    1  Code  Hi   0xac
    384  am_hal_pwrctrl_low_power_init
                                    0x0000dac9   Gb    1  Code  Hi   0x144
    385  am_hal_pwrctrl_periph_disable
                                    0x0000dc0d   Gb    1  Code  Hi   0x9e
    386  am_hal_pwrctrl_periph_enable
                                    0x0000dcad   Gb    1  Code  Hi   0x6e
    387  am_hal_pwrctrl_simobuck_vddx_active_trim_adj_default
                                    0x0000dd1b   Gb    1  Code  Hi   0xac
    388  am_hal_pwrctrl_wa_vddf_boost
                                    0x0000ddc7   Gb    1  Code  Hi   0x3e
    389  am_hal_pwrctrl_wa_vddf_restore
                                    0x0000de05   Gb    1  Code  Hi   0x3e
    390  am_hal_rtc_osc_disable     0x0000de43   Gb    1  Code  Hi   0x12
    391  am_hal_sysctrl_sleep       0x0000de55   Gb    1  Code  Hi   0xa8
    392  am_hal_tpiu_enable         0x0000defd   Gb    1  Code  Hi   0x94
    393  am_ioslave_ios_isr         0x0000df91   Gb    1  Code  Hi   0x124
    394  am_util_stdio_printf       0x0000e0b5   Gb    1  Code  Hi   0x5c
    395  am_util_stdio_printf_init  0x0000e111   Gb    1  Code  Hi   0x14
    396  am_util_stdio_terminal_clear
                                    0x0000e125   Gb    1  Code  Hi   0x10
    397  am_util_stdio_vsprintf     0x0000e135   Gb    1  Code  Hi   0x654
    398  inform_host                0x0000eb79   Gb    1  Code  Hi   0x2e
    399  init_sensors               0x0000eba9   Gb    1  Code  Hi   0x9c
    400  main                       0x0000ed0d   Gb    1  Code  Hi   0x298
    401  start_sensors              0x0000f1e1   Gb    1  Code  Hi   0x38
    402  stop_sensors               0x0000f219   Gb    1  Code  Hi   0x1c
    403  timer0_handler             0x0000f235   Gb    1  Code  Hi   0xe
    404  timer1_handler             0x0000f245   Gb    1  Code  Hi   0xe
    405  __aeabi_d2f                0x0000f39d   Gb    1  Code  De 
    406  _d2f                       0x0000f39d   Gb    1  Code  De   0x62
    407  __fpl_dnaninf              0x0000f3ff   Gb    1  Code  De   0x9c
    408  _fp_init                   0x0000f49b   Gb    1  Code  De   0x1a
    409  __fplib_config_fpu_vfp     0x0000f4b3   Gb    1  Code  De 
    410  __fplib_config_pureend_doubles
                                    0x0000f4b3   Gb    1  Code  De 
    411  __fpl_fretinf              0x0000f4b5   Gb    1  Code  De   0xa
    412  __I$use$fp                 0x0000f4be   Gb    1   --   De 
    413  am_hal_cachectrl_defaults  0x0000f4cc   Gb    1  Data  Hi   0x3
    414  am_hal_ios_pui8LRAM        0x0000f4d0   Gb    1  Data  Hi   0x4
    415  am_hal_pwrctrl_peripheral_control
                                    0x0000f4d4   Gb    1  Data  Hi   0xcc
    416  g_AM_BSP_GPIO_ENABLE       0x0000f5a0   Gb    1  Data  Hi   0x4
    417  g_AM_BSP_GPIO_IOS_CE       0x0000f5a4   Gb    1  Data  Hi   0x4
    418  g_AM_BSP_GPIO_IOS_MISO     0x0000f5a8   Gb    1  Data  Hi   0x4
    419  g_AM_BSP_GPIO_IOS_MOSI     0x0000f5ac   Gb    1  Data  Hi   0x4
    420  g_AM_BSP_GPIO_IOS_SCK      0x0000f5b0   Gb    1  Data  Hi   0x4
    421  g_AM_BSP_GPIO_IOS_SCL      0x0000f5b4   Gb    1  Data  Hi   0x4
    422  g_AM_BSP_GPIO_IOS_SDA      0x0000f5b8   Gb    1  Data  Hi   0x4
    423  g_AM_BSP_GPIO_ITM_SWO      0x0000f5bc   Gb    1  Data  Hi   0x4
    424  g_AM_HAL_GPIO_OUTPUT       0x0000f5c0   Gb    1  Data  Hi   0x4
    425  Region$$Table$$Base        0x0000f87c   Gb    1   --   Hi 
    426  Region$$Table$$Limit       0x0000f8ac   Gb    1   --   Hi 
    427  am_bsp_psLEDs              0x10011000   Gb    2  Data  Hi   0x28
    428  g_sIOSI2cConfig            0x10011028   Gb    2  Data  Hi   0x1c
    429  __libspace_start           0x10011080   Gb    3  Data  De   0x60
    430  __temporary_stack_top$libspace
                                    0x100110e0   Gb    3  Data  De 
    431  gAmHalResetStatus          0x100110e0   Gb    3  Data  Hi   0x4
    432  g_IOShandles               0x100110e4   Gb    3  Data  Hi   0x34
    433  g_am_hal_burst_mode_available
                                    0x10011118   Gb    3  Data  Hi   0x1
    434  g_am_hal_sysctrl_sleep_count
                                    0x1001119c   Gb    3  Data  Hi   0x4
    435  g_bSensor0Data             0x100111a2   Gb    3  Data  Hi   0x1
    436  g_bSensor1Data             0x100111a3   Gb    3  Data  Hi   0x1
    437  g_bSimobuckTrimsDone       0x100111a4   Gb    3  Data  Hi   0x1
    438  g_bVddfTrimsDone           0x100111a6   Gb    3  Data  Hi   0x1
    439  g_iosState                 0x100111a7   Gb    3  Data  Hi   0x1
    440  g_pfnCharPrint             0x100111ac   Gb    3  Data  Hi   0x4
    441  g_pui8TestBuf              0x100115b0   Gb    3  Data  Hi   0x200
    442  g_pui8TxFifoBuffer         0x100117b0   Gb    3  Data  Hi   0x3ff
    443  g_sSRAMBuffer              0x10011bb0   Gb    3  Data  Hi   0x14
    444  g_sendIdx                  0x10011bc4   Gb    3  Data  Hi   0x4


** Section #12 '.strtab' (SHT_STRTAB)
    Size   : 7564 bytes

            #  Offset String
        ====================================

            1      1: $d
            2      4: $t
            3      7: $t.6
            4     12: $d.4
            5     17: $t.5
            6     22: $d.1
            7     27: $t.2
            8     32: $d.2
            9     37: $t.3
           10     42: $t.0
           11     47: $d.6
           12     52: $t.7
           13     57: $d.17
           14     63: $t.18
           15     69: $d.15
           16     75: $d.realdata
           17     87: ios_fifo.c
           18     98: __NVIC_EnableIRQ
           19    115: ios_set_up
           20    126: g_sTimer
           21    135: g_pIOSHandle
           22    148: .L.str.4
           23    157: .L.str
           24    164: .L.str.3
           25    173: .L.str.2
           26    182: .L.str.1
           27    191: g_sIOSSpiConfig
           28    207: am_util_delay.c
           29    223: am_util_stdio.c
           30    239: decstr_to_int
           31    253: simple_strlen
           32    267: padbuffer
           33    277: ndigits_in_hex
           34    292: uint64_to_hexstr
           35    309: ndigits_in_u64
           36    324: uint64_to_str
           37    338: ndigits_in_i64
           38    353: ftoa
           39    358: divu64_10
           40    368: g_bTxtXlate
           41    380: g_prfbuf
           42    389: ../keil6/startup_keil6.s
           43    414: STACK
           44    420: StackMem
           45    429: HEAP
           46    434: HeapMem
           47    442: RESET
           48    448: $v0
           49    452: .text
           50    458: am_hal_global.c
           51    474: am_bsp.c
           52    483: g_ui32PrintInterface
           53    504: am_hal_cachectrl.c
           54    523: set_LPMMODE
           55    535: set_SEDELAY
           56    547: set_RDWAIT
           57    558: am_hal_clkgen.c
           58    574: am_hal_ctimer.c
           59    590: g_am_hal_ctimer_ppfnHandlers
           60    619: g_ui8ClkSrc
           61    631: am_hal_debug.c
           62    646: am_hal_flash.c
           63    661: .L__const.am_hal_flash_store_ui32.SRAM_write_ui32
           64    711: am_hal_gpio.c
           65    725: g_ui8Bit76Capabilities
           66    748: g_ui8Inpen
           67    759: g_ui8nCEpins
           68    772: g_ui8NCEtable
           69    786: am_hal_interrupt.c
           70    805: am_hal_ios.c
           71    818: am_hal_ios_fifo_ptr_set
           72    842: am_hal_sysctrl.c
           73    859: am_bsp_pins.c
           74    873: am_hal_burst.c
           75    888: g_bEnFromManual
           76    904: g_bDisFromManual
           77    921: am_hal_itm.c
           78    934: am_hal_pwrctrl.c
           79    951: am_hal_reset.c
           80    966: am_hal_rtc.c
           81    979: am_hal_tpiu.c
           82    993: am_hal_uart.c
           83   1007: am_hal_queue.c
           84   1022: dc.s
           85   1027: ../clib/heapaux.c
           86   1045: ../clib/angel/startup.s
           87   1069: !!!main
           88   1077: ../clib/angel/handlers.s
           89   1102: !!handler_copy
           90   1117: ../fplib/d2f.s
           91   1132: x$fpl$d2f
           92   1142: ../clib/angel/kernel.s
           93   1165: .ARM.Collect$$rtentry$$00000000
           94   1197: ../fplib/dnaninf.s
           95   1216: x$fpl$dnaninf
           96   1230: ../fplib/fretinf.s
           97   1249: x$fpl$fretinf
           98   1263: ../fplib/usenofp.s
           99   1282: x$fpl$usenofp
          100   1296: .ARM.Collect$$rtentry$$00000002
          101   1328: .ARM.Collect$$rtentry$$00000009
          102   1360: .ARM.Collect$$rtentry$$0000000A
          103   1392: .ARM.Collect$$rtentry$$0000000C
          104   1424: .ARM.Collect$$rtentry$$0000000D
          105   1456: .ARM.Collect$$rtentry$$00000004
          106   1488: ../clib/angel/sys.s
          107   1508: ../clib/stdlib.c
          108   1525: ../clib/angel/boardlib.s
          109   1550: ../clib/libinit.s
          110   1568: .ARM.Collect$$libinit$$00000000
          111   1600: .bss
          112   1605: .ARM.Collect$$rtexit$$00000000
          113   1636: .ARM.Collect$$libinit$$00000001
          114   1668: .ARM.Collect$$libinit$$00000004
          115   1700: .ARM.Collect$$libinit$$0000000A
          116   1732: .ARM.Collect$$libinit$$0000000C
          117   1764: .ARM.Collect$$libinit$$0000000E
          118   1796: .ARM.Collect$$libinit$$00000011
          119   1828: .ARM.Collect$$libinit$$00000013
          120   1860: .ARM.Collect$$libinit$$00000015
          121   1892: .ARM.Collect$$libinit$$00000017
          122   1924: .ARM.Collect$$libinit$$00000019
          123   1956: .ARM.Collect$$libinit$$0000001B
          124   1988: .ARM.Collect$$libinit$$0000001D
          125   2020: .ARM.Collect$$libinit$$0000001F
          126   2052: .ARM.Collect$$libinit$$00000021
          127   2084: .ARM.Collect$$libinit$$00000023
          128   2116: .ARM.Collect$$libinit$$00000025
          129   2148: .ARM.Collect$$libinit$$0000002C
          130   2180: .ARM.Collect$$libinit$$0000002E
          131   2212: .ARM.Collect$$libinit$$00000030
          132   2244: .ARM.Collect$$libinit$$00000032
          133   2276: .ARM.Collect$$libinit$$00000033
          134   2308: .ARM.Collect$$rtexit$$00000002
          135   2339: .ARM.Collect$$rtexit$$00000003
          136   2370: .ARM.Collect$$rtexit$$00000004
          137   2401: ../clib/armsys.c
          138   2418: ../fplib/fpinit.s
          139   2436: x$fpl$fpinit
          140   2449: ../clib/angel/sysapp.c
          141   2472: .ARM.Collect$$libshutdown$$00000000
          142   2508: ../clib/heapalloc.c
          143   2528: ../clib/signal.c
          144   2545: .ARM.Collect$$libshutdown$$00000002
          145   2581: .ARM.Collect$$libshutdown$$00000004
          146   2617: .ARM.Collect$$libshutdown$$00000007
          147   2653: .ARM.Collect$$libshutdown$$0000000A
          148   2689: .ARM.Collect$$libshutdown$$0000000C
          149   2725: .ARM.Collect$$libshutdown$$0000000F
          150   2761: .ARM.Collect$$libshutdown$$00000010
          151   2797: ../clib/angel/rt.s
          152   2816: ../clib/signal.s
          153   2833: ../clib/angel/scatter.s
          154   2857: !!!scatter
          155   2868: !!handler_zi
          156   2881: BuildAttributes$$THM_ISAv4$E$P$D$K$B$S$7EM$VFPi3$EXTD16$VFPS$VFMA$PE$A:L22UL41UL21$X:L11$S22US41US21$IEEE1$IW$~IW$USESV6$~STKCKD$USESV7$~SHL$OSPACE$ROPI$EBA8$UX$STANDARDLIB$REQ8$PRES8$EABIv2
          157   3072: __Vectors
          158   3082: __Patchable
          159   3094: Reset_Handler
          160   3108: HardFault_Handler
          161   3126: NMI_Handler
          162   3138: MemManage_Handler
          163   3156: BusFault_Handler
          164   3173: UsageFault_Handler
          165   3192: SVC_Handler
          166   3204: DebugMon_Handler
          167   3221: PendSV_Handler
          168   3236: SysTick_Handler
          169   3252: am_adc_isr
          170   3263: am_ble_isr
          171   3274: am_brownout_isr
          172   3290: am_clkgen_isr
          173   3304: am_gpio_isr
          174   3316: am_iomaster0_isr
          175   3333: am_iomaster1_isr
          176   3350: am_iomaster2_isr
          177   3367: am_iomaster3_isr
          178   3384: am_iomaster4_isr
          179   3401: am_iomaster5_isr
          180   3418: am_ioslave_acc_isr
          181   3437: am_mspi0_isr
          182   3450: am_mspi1_isr
          183   3463: am_mspi2_isr
          184   3476: am_pdm0_isr
          185   3488: am_rtc_isr
          186   3499: am_scard_isr
          187   3512: am_software0_isr
          188   3529: am_stimer_cmpr0_isr
          189   3549: am_stimer_cmpr1_isr
          190   3569: am_stimer_cmpr2_isr
          191   3589: am_stimer_cmpr3_isr
          192   3609: am_stimer_cmpr4_isr
          193   3629: am_stimer_cmpr5_isr
          194   3649: am_stimer_cmpr6_isr
          195   3669: am_stimer_cmpr7_isr
          196   3689: am_stimer_isr
          197   3703: am_uart0_isr
          198   3716: am_uart1_isr
          199   3729: am_uart_isr
          200   3741: am_vcomp_isr
          201   3754: am_watchdog_isr
          202   3770: __main
          203   3777: __scatterload
          204   3791: __scatterload_rt2
          205   3809: __scatterload_rt2_thumb_only
          206   3838: __scatterload_null
          207   3857: __scatterload_copy
          208   3876: __scatterload_zeroinit
          209   3899: __rt_lib_init
          210   3913: __rt_lib_init_fp_1
          211   3932: __rt_lib_init_alloca_1
          212   3955: __rt_lib_init_argv_1
          213   3976: __rt_lib_init_atexit_1
          214   3999: __rt_lib_init_clock_1
          215   4021: __rt_lib_init_cpp_1
          216   4041: __rt_lib_init_exceptions_1
          217   4068: __rt_lib_init_fp_trap_1
          218   4092: __rt_lib_init_getenv_1
          219   4115: __rt_lib_init_heap_1
          220   4136: __rt_lib_init_lc_collate_1
          221   4163: __rt_lib_init_lc_ctype_1
          222   4188: __rt_lib_init_lc_monetary_1
          223   4216: __rt_lib_init_lc_numeric_1
          224   4243: __rt_lib_init_lc_time_1
          225   4267: __rt_lib_init_preinit_1
          226   4291: __rt_lib_init_rand_1
          227   4312: __rt_lib_init_return
          228   4333: __rt_lib_init_signal_1
          229   4356: __rt_lib_init_stdio_1
          230   4378: __rt_lib_init_user_alloc_1
          231   4405: __rt_lib_shutdown
          232   4423: __rt_lib_shutdown_cpp_1
          233   4447: __rt_lib_shutdown_fp_trap_1
          234   4475: __rt_lib_shutdown_heap_1
          235   4500: __rt_lib_shutdown_return
          236   4525: __rt_lib_shutdown_signal_1
          237   4552: __rt_lib_shutdown_stdio_1
          238   4578: __rt_lib_shutdown_user_alloc_1
          239   4609: __rt_entry
          240   4620: __rt_entry_presh_1
          241   4639: __rt_entry_sh
          242   4653: __rt_entry_li
          243   4667: __rt_entry_postsh_1
          244   4687: __rt_entry_main
          245   4703: __rt_entry_postli_1
          246   4723: __rt_exit
          247   4733: __rt_exit_ls
          248   4746: __rt_exit_prels_1
          249   4764: __rt_exit_exit
          250   4779: __user_initial_stackheap
          251   4804: __use_two_region_memory
          252   4828: __rt_heap_escrow$2region
          253   4853: __rt_heap_expand$2region
          254   4878: __user_setup_stackheap
          255   4901: exit
          256   4906: __user_libspace
          257   4922: __user_perproc_libspace
          258   4946: __user_perthread_libspace
          259   4972: _sys_exit
          260   4982: __I$use$semihosting
          261   5002: __use_no_semihosting_swi
          262   5027: __semihosting_library_function
          263   5058: am_bsp_ios_pins_enable
          264   5081: am_bsp_itm_printf_enable
          265   5106: am_bsp_low_power_init
          266   5128: am_ctimer_isr
          267   5142: am_hal_burst_ldo_charge
          268   5166: am_hal_burst_ldo_patch_check
          269   5195: am_hal_burst_mode_disable
          270   5221: am_hal_burst_mode_disable_w_manual_sequence
          271   5265: am_hal_burst_mode_enable
          272   5290: am_hal_burst_mode_enable_w_manual_sequence
          273   5333: am_hal_cachectrl_config
          274   5357: am_hal_cachectrl_control
          275   5382: am_hal_cachectrl_enable
          276   5406: am_hal_clkgen_control
          277   5428: am_hal_clkgen_status_get
          278   5453: am_hal_ctimer_clear
          279   5473: am_hal_ctimer_config
          280   5494: am_hal_ctimer_int_clear
          281   5518: am_hal_ctimer_int_enable
          282   5543: am_hal_ctimer_int_register
          283   5570: am_hal_ctimer_int_service
          284   5596: am_hal_ctimer_int_status_get
          285   5625: am_hal_ctimer_period_set
          286   5650: am_hal_ctimer_start
          287   5670: am_hal_ctimer_stop
          288   5689: am_hal_debug_error
          289   5708: am_hal_flash_delay
          290   5727: am_hal_flash_delay_status_check
          291   5759: am_hal_flash_load_ui32
          292   5782: am_hal_flash_store_ui32
          293   5806: am_hal_gpio_pinconfig
          294   5828: am_hal_gpio_state_write
          295   5852: am_hal_interrupt_master_disable
          296   5884: am_hal_interrupt_master_enable
          297   5915: am_hal_interrupt_master_set
          298   5943: am_hal_ios_configure
          299   5964: am_hal_ios_control
          300   5983: am_hal_ios_fifo_space_used
          301   6010: am_hal_ios_fifo_write
          302   6032: am_hal_ios_initialize
          303   6054: am_hal_ios_interrupt_clear
          304   6081: am_hal_ios_interrupt_enable
          305   6109: am_hal_ios_interrupt_service
          306   6138: am_hal_ios_interrupt_status_get
          307   6170: am_hal_ios_power_ctrl
          308   6192: am_hal_itm_enable
          309   6210: am_hal_itm_print
          310   6227: am_hal_pwrctrl_blebuck_trim
          311   6255: am_hal_pwrctrl_bleif_workaround
          312   6287: am_hal_pwrctrl_ldo_vddx_active_trim_adj_default
          313   6335: am_hal_pwrctrl_low_power_init
          314   6365: am_hal_pwrctrl_periph_disable
          315   6395: am_hal_pwrctrl_periph_enable
          316   6424: am_hal_pwrctrl_simobuck_vddx_active_trim_adj_default
          317   6477: am_hal_pwrctrl_wa_vddf_boost
          318   6506: am_hal_pwrctrl_wa_vddf_restore
          319   6537: am_hal_rtc_osc_disable
          320   6560: am_hal_sysctrl_sleep
          321   6581: am_hal_tpiu_enable
          322   6600: am_ioslave_ios_isr
          323   6619: am_util_stdio_printf
          324   6640: am_util_stdio_printf_init
          325   6666: am_util_stdio_terminal_clear
          326   6695: am_util_stdio_vsprintf
          327   6718: inform_host
          328   6730: init_sensors
          329   6743: main
          330   6748: start_sensors
          331   6762: stop_sensors
          332   6775: timer0_handler
          333   6790: timer1_handler
          334   6805: __aeabi_d2f
          335   6817: _d2f
          336   6822: __fpl_dnaninf
          337   6836: _fp_init
          338   6845: __fplib_config_fpu_vfp
          339   6868: __fplib_config_pureend_doubles
          340   6899: __fpl_fretinf
          341   6913: __I$use$fp
          342   6924: am_hal_cachectrl_defaults
          343   6950: am_hal_ios_pui8LRAM
          344   6970: am_hal_pwrctrl_peripheral_control
          345   7004: g_AM_BSP_GPIO_ENABLE
          346   7025: g_AM_BSP_GPIO_IOS_CE
          347   7046: g_AM_BSP_GPIO_IOS_MISO
          348   7069: g_AM_BSP_GPIO_IOS_MOSI
          349   7092: g_AM_BSP_GPIO_IOS_SCK
          350   7114: g_AM_BSP_GPIO_IOS_SCL
          351   7136: g_AM_BSP_GPIO_IOS_SDA
          352   7158: g_AM_BSP_GPIO_ITM_SWO
          353   7180: g_AM_HAL_GPIO_OUTPUT
          354   7201: Region$$Table$$Base
          355   7221: Region$$Table$$Limit
          356   7242: am_bsp_psLEDs
          357   7256: g_sIOSI2cConfig
          358   7272: __libspace_start
          359   7289: __temporary_stack_top$libspace
          360   7320: gAmHalResetStatus
          361   7338: g_IOShandles
          362   7351: g_am_hal_burst_mode_available
          363   7381: g_am_hal_sysctrl_sleep_count
          364   7410: g_bSensor0Data
          365   7425: g_bSensor1Data
          366   7440: g_bSimobuckTrimsDone
          367   7461: g_bVddfTrimsDone
          368   7478: g_iosState
          369   7489: g_pfnCharPrint
          370   7504: g_pui8TestBuf
          371   7518: g_pui8TxFifoBuffer
          372   7537: g_sSRAMBuffer
          373   7551: g_sendIdx
          374   7561: 
          375   7562: 
          376   7563: 


** Section #13 '.note' (SHT_NOTE)
    Size   : 32 bytes (alignment 4)


** Section #14 '.comment' (SHT_PROGBITS)
    Size   : 1524 bytes


** Section #15 '.shstrtab' (SHT_STRTAB)
    Size   : 144 bytes

            #  Offset String
        ====================================

            1      1: ROMEM
            2      7: RWMEM
            3     13: TCM
            4     17: STACKMEM
            5     26: .debug_abbrev
            6     40: .debug_frame
            7     53: .debug_info
            8     65: .debug_line
            9     77: .debug_str
           10     88: .debug_ranges
           11    102: .symtab
           12    110: .strtab
           13    118: .note
           14    124: .comment
           15    133: .shstrtab
           16    143: 


