
========================================================================

** ELF Header Information

    File Name: bin\mspi_octal_example.axf

    Machine class: ELFCLASS32 (32-bit)
    Data encoding: ELFDATA2LSB (Little endian)
    Header version: EV_CURRENT (Current version)
    Operating System ABI: none
    ABI Version: 0
    File Type: ET_EXEC (Executable) (2)
    Machine: EM_ARM (ARM)

    Image Entry point: 0x00018235
    Flags: EF_ARM_HASENTRY + EF_ARM_ABI_FLOAT_HARD (0x05000402)

    ARM ELF revision: 5 (ABI version 2)

    Conforms to Hard float procedure-call standard

    Built with
    Component: ARM Compiler 6.16 Tool: armasm [5dfea300]
    Component: ARM Compiler 6.16 Tool: armlink [5dfeaa00]

    Header size: 52 bytes (0x34)
    Program header entry size: 32 bytes (0x20)
    Section header entry size: 40 bytes (0x28)

    Program header entries: 1
    Section header entries: 16

    Program header offset: 231900 (0x000389dc)
    Section header offset: 231932 (0x000389fc)

    Section header string table index: 15

========================================================================

** Program header #0 (PT_LOAD) [PF_X + PF_W + PF_R + PF_ARM_ENTRY]
    Size : 76712 bytes (37572 bytes in file)
    Virtual address: 0x00018000 (Alignment 8)


========================================================================

** Section #1 'MCU_MRAM' (SHT_PROGBITS) [SHF_ALLOC + SHF_EXECINSTR]
    Size   : 36712 bytes (alignment 4)
    Address: 0x00018000

    $d
    RESET
    __Vectors
        0x00018000:    10009a00    ....    DCD    268474880
        0x00018004:    00018201    ....    DCD    98817
        0x00018008:    0001821f    ....    DCD    98847
        0x0001800c:    00018559    Y...    DCD    99673
        0x00018010:    00018221    !...    DCD    98849
        0x00018014:    00018223    #...    DCD    98851
        0x00018018:    00018225    %...    DCD    98853
        0x0001801c:    00000000    ....    DCD    0
        0x00018020:    00000000    ....    DCD    0
        0x00018024:    00000000    ....    DCD    0
        0x00018028:    00000000    ....    DCD    0
        0x0001802c:    00018227    '...    DCD    98855
        0x00018030:    00018229    )...    DCD    98857
        0x00018034:    00000000    ....    DCD    0
        0x00018038:    0001822b    +...    DCD    98859
        0x0001803c:    0001822d    -...    DCD    98861
        0x00018040:    0001822f    /...    DCD    98863
        0x00018044:    0001822f    /...    DCD    98863
        0x00018048:    0001822f    /...    DCD    98863
        0x0001804c:    0001822f    /...    DCD    98863
        0x00018050:    0001822f    /...    DCD    98863
        0x00018054:    0001822f    /...    DCD    98863
        0x00018058:    0001822f    /...    DCD    98863
        0x0001805c:    0001822f    /...    DCD    98863
        0x00018060:    0001822f    /...    DCD    98863
        0x00018064:    0001822f    /...    DCD    98863
        0x00018068:    0001822f    /...    DCD    98863
        0x0001806c:    0001822f    /...    DCD    98863
        0x00018070:    0001822f    /...    DCD    98863
        0x00018074:    0001822f    /...    DCD    98863
        0x00018078:    0001822f    /...    DCD    98863
        0x0001807c:    0001822f    /...    DCD    98863
        0x00018080:    0001822f    /...    DCD    98863
        0x00018084:    0001822f    /...    DCD    98863
        0x00018088:    0001822f    /...    DCD    98863
        0x0001808c:    0001822f    /...    DCD    98863
        0x00018090:    0001822f    /...    DCD    98863
        0x00018094:    0001d2d9    ....    DCD    119513
        0x00018098:    0001822f    /...    DCD    98863
        0x0001809c:    0001822f    /...    DCD    98863
        0x000180a0:    0001822f    /...    DCD    98863
        0x000180a4:    0001822f    /...    DCD    98863
        0x000180a8:    0001822f    /...    DCD    98863
        0x000180ac:    0001822f    /...    DCD    98863
        0x000180b0:    0001822f    /...    DCD    98863
        0x000180b4:    0001822f    /...    DCD    98863
        0x000180b8:    0001822f    /...    DCD    98863
        0x000180bc:    0001822f    /...    DCD    98863
        0x000180c0:    0001822f    /...    DCD    98863
        0x000180c4:    0001822f    /...    DCD    98863
        0x000180c8:    0001822f    /...    DCD    98863
        0x000180cc:    0001822f    /...    DCD    98863
        0x000180d0:    0001822f    /...    DCD    98863
        0x000180d4:    0001822f    /...    DCD    98863
        0x000180d8:    0001822f    /...    DCD    98863
        0x000180dc:    0001822f    /...    DCD    98863
        0x000180e0:    0001822f    /...    DCD    98863
        0x000180e4:    0001822f    /...    DCD    98863
        0x000180e8:    0001822f    /...    DCD    98863
        0x000180ec:    0001822f    /...    DCD    98863
        0x000180f0:    0001822f    /...    DCD    98863
        0x000180f4:    0001822f    /...    DCD    98863
        0x000180f8:    0001822f    /...    DCD    98863
        0x000180fc:    0001822f    /...    DCD    98863
        0x00018100:    0001822f    /...    DCD    98863
        0x00018104:    0001822f    /...    DCD    98863
        0x00018108:    0001822f    /...    DCD    98863
        0x0001810c:    0001822f    /...    DCD    98863
        0x00018110:    0001822f    /...    DCD    98863
        0x00018114:    0001822f    /...    DCD    98863
        0x00018118:    0001822f    /...    DCD    98863
        0x0001811c:    0001822f    /...    DCD    98863
        0x00018120:    0001822f    /...    DCD    98863
        0x00018124:    0001822f    /...    DCD    98863
        0x00018128:    0001822f    /...    DCD    98863
        0x0001812c:    0001822f    /...    DCD    98863
        0x00018130:    0001822f    /...    DCD    98863
        0x00018134:    0001822f    /...    DCD    98863
        0x00018138:    0001822f    /...    DCD    98863
        0x0001813c:    0001822f    /...    DCD    98863
        0x00018140:    0001822f    /...    DCD    98863
        0x00018144:    0001822f    /...    DCD    98863
        0x00018148:    0001822f    /...    DCD    98863
        0x0001814c:    0001822f    /...    DCD    98863
        0x00018150:    0001822f    /...    DCD    98863
        0x00018154:    0001822f    /...    DCD    98863
        0x00018158:    0001822f    /...    DCD    98863
        0x0001815c:    0001822f    /...    DCD    98863
        0x00018160:    0001822f    /...    DCD    98863
        0x00018164:    0001822f    /...    DCD    98863
        0x00018168:    0001822f    /...    DCD    98863
        0x0001816c:    0001822f    /...    DCD    98863
        0x00018170:    0001822f    /...    DCD    98863
        0x00018174:    0001822f    /...    DCD    98863
        0x00018178:    0001822f    /...    DCD    98863
        0x0001817c:    0001822f    /...    DCD    98863
        0x00018180:    0001822f    /...    DCD    98863
        0x00018184:    0001822f    /...    DCD    98863
        0x00018188:    0001822f    /...    DCD    98863
        0x0001818c:    0001822f    /...    DCD    98863
    __Patchable
        0x00018190:    00000000    ....    DCD    0
        0x00018194:    00000000    ....    DCD    0
        0x00018198:    00000000    ....    DCD    0
        0x0001819c:    00000000    ....    DCD    0
        0x000181a0:    00000000    ....    DCD    0
        0x000181a4:    00000000    ....    DCD    0
        0x000181a8:    00000000    ....    DCD    0
        0x000181ac:    00000000    ....    DCD    0
        0x000181b0:    00000000    ....    DCD    0
        0x000181b4:    00000000    ....    DCD    0
        0x000181b8:    00000000    ....    DCD    0
        0x000181bc:    00000000    ....    DCD    0
        0x000181c0:    00000000    ....    DCD    0
        0x000181c4:    00000000    ....    DCD    0
        0x000181c8:    00000000    ....    DCD    0
        0x000181cc:    00000000    ....    DCD    0
        0x000181d0:    00000000    ....    DCD    0
        0x000181d4:    00000000    ....    DCD    0
        0x000181d8:    00000000    ....    DCD    0
        0x000181dc:    00000000    ....    DCD    0
        0x000181e0:    00000000    ....    DCD    0
        0x000181e4:    00000000    ....    DCD    0
        0x000181e8:    00000000    ....    DCD    0
        0x000181ec:    00000000    ....    DCD    0
        0x000181f0:    00000000    ....    DCD    0
        0x000181f4:    00000000    ....    DCD    0
        0x000181f8:    00000000    ....    DCD    0
        0x000181fc:    00000000    ....    DCD    0
    $t
    $v0
    Reset_Handler
        0x00018200:    f64e5088    N..P    MOV      r0,#0xed88
        0x00018204:    f2ce0000    ....    MOVT     r0,#0xe000
        0x00018208:    6801        .h      LDR      r1,[r0,#0]
        0x0001820a:    f4410170    A.p.    ORR      r1,r1,#0xf00000
        0x0001820e:    6001        .`      STR      r1,[r0,#0]
        0x00018210:    f3bf8f4f    ..O.    DSB      
        0x00018214:    f3bf8f6f    ..o.    ISB      
        0x00018218:    4805        .H      LDR      r0,[pc,#20] ; [0x18230] = 0x18235
        0x0001821a:    4700        .G      BX       r0
        0x0001821c:    e7fe        ..      B        0x1821c ; Reset_Handler + 28
    NMI_Handler
        0x0001821e:    e7fe        ..      B        NMI_Handler ; 0x1821e
    MemManage_Handler
        0x00018220:    e7fe        ..      B        MemManage_Handler ; 0x18220
    BusFault_Handler
        0x00018222:    e7fe        ..      B        BusFault_Handler ; 0x18222
    UsageFault_Handler
        0x00018224:    e7fe        ..      B        UsageFault_Handler ; 0x18224
    SVC_Handler
        0x00018226:    e7fe        ..      B        SVC_Handler ; 0x18226
    DebugMon_Handler
        0x00018228:    e7fe        ..      B        DebugMon_Handler ; 0x18228
    PendSV_Handler
        0x0001822a:    e7fe        ..      B        PendSV_Handler ; 0x1822a
    SysTick_Handler
        0x0001822c:    e7fe        ..      B        SysTick_Handler ; 0x1822c
    am_cryptosec_isr
    am_default_isr
    am_adc_isr
    am_audadc0_isr
    am_brownout_isr
    am_cachecpu_isr
    am_clkgen_isr
    am_ctimer_isr
    am_disp_isr
    am_dsi_isr
    am_dspi2s0_isr
    am_dspi2s1_isr
    am_dspi2s2_isr
    am_dspi2s3_isr
    am_gpio0_001f_isr
    am_gpio0_203f_isr
    am_gpio0_405f_isr
    am_gpio0_607f_isr
    am_gpio1_001f_isr
    am_gpio1_203f_isr
    am_gpio1_405f_isr
    am_gpio1_607f_isr
    am_gpu_isr
    am_iomaster0_isr
    am_iomaster1_isr
    am_iomaster2_isr
    am_iomaster3_isr
    am_iomaster4_isr
    am_iomaster5_isr
    am_iomaster6_isr
    am_iomaster7_isr
    am_ioslave_acc_isr
    am_ioslave_ios_isr
    am_mspi0_isr
    am_mspi2_isr
    am_pdm0_isr
    am_pdm1_isr
    am_pdm2_isr
    am_pdm3_isr
    am_rtc_isr
    am_sdio_isr
    am_stimer_cmpr0_isr
    am_stimer_cmpr1_isr
    am_stimer_cmpr2_isr
    am_stimer_cmpr3_isr
    am_stimer_cmpr4_isr
    am_stimer_cmpr5_isr
    am_stimer_cmpr6_isr
    am_stimer_cmpr7_isr
    am_stimerof_isr
    am_timer00_isr
    am_timer01_isr
    am_timer02_isr
    am_timer03_isr
    am_timer04_isr
    am_timer05_isr
    am_timer06_isr
    am_timer07_isr
    am_timer08_isr
    am_timer09_isr
    am_timer10_isr
    am_timer11_isr
    am_timer12_isr
    am_timer13_isr
    am_timer14_isr
    am_timer15_isr
    am_uart1_isr
    am_uart2_isr
    am_uart3_isr
    am_uart_isr
    am_usb_isr
    am_vcomp_isr
    am_watchdog_isr
        0x0001822e:    e7fe        ..      B        am_cryptosec_isr ; 0x1822e
    $d
        0x00018230:    00018235    5...    DCD    98869
    $t
    !!!main
    __main
        0x00018234:    f000f802    ....    BL       __scatterload ; 0x1823c
        0x00018238:    f000f86a    ..j.    BL       __rt_entry ; 0x18310
    !!!scatter
    __scatterload
    __scatterload_rt2
    __scatterload_rt2_thumb_only
        0x0001823c:    a00a        ..      ADR      r0,{pc}+0x2c ; 0x18268
        0x0001823e:    e8900c00    ....    LDM      r0,{r10,r11}
        0x00018242:    4482        .D      ADD      r10,r10,r0
        0x00018244:    4483        .D      ADD      r11,r11,r0
        0x00018246:    f1aa0701    ....    SUB      r7,r10,#1
    __scatterload_null
        0x0001824a:    45da        .E      CMP      r10,r11
        0x0001824c:    d101        ..      BNE      0x18252 ; __scatterload_null + 8
        0x0001824e:    f000f85f    .._.    BL       __rt_entry ; 0x18310
        0x00018252:    f2af0e09    ....    ADR      lr,{pc}-7 ; 0x1824b
        0x00018256:    e8ba000f    ....    LDM      r10!,{r0-r3}
        0x0001825a:    f0130f01    ....    TST      r3,#1
        0x0001825e:    bf18        ..      IT       NE
        0x00018260:    1afb        ..      SUBNE    r3,r7,r3
        0x00018262:    f0430301    C...    ORR      r3,r3,#1
        0x00018266:    4718        .G      BX       r3
    $d
        0x00018268:    00008cd0    ....    DCD    36048
        0x0001826c:    00008d00    ....    DCD    36096
    $t
    !!dczerorl2
    __decompress
    __decompress1
        0x00018270:    440a        .D      ADD      r2,r2,r1
        0x00018272:    f04f0c00    O...    MOV      r12,#0
        0x00018276:    f8103b01    ...;    LDRB     r3,[r0],#1
        0x0001827a:    f0130407    ....    ANDS     r4,r3,#7
        0x0001827e:    bf08        ..      IT       EQ
        0x00018280:    f8104b01    ...K    LDRBEQ   r4,[r0],#1
        0x00018284:    111d        ..      ASRS     r5,r3,#4
        0x00018286:    bf08        ..      IT       EQ
        0x00018288:    f8105b01    ...[    LDRBEQ   r5,[r0],#1
        0x0001828c:    1e64        d.      SUBS     r4,r4,#1
        0x0001828e:    d005        ..      BEQ      0x1829c ; __decompress + 44
        0x00018290:    f8106b01    ...k    LDRB     r6,[r0],#1
        0x00018294:    1e64        d.      SUBS     r4,r4,#1
        0x00018296:    f8016b01    ...k    STRB     r6,[r1],#1
        0x0001829a:    d1f9        ..      BNE      0x18290 ; __decompress + 32
        0x0001829c:    f0130f08    ....    TST      r3,#8
        0x000182a0:    bf1e        ..      ITTT     NE
        0x000182a2:    f8104b01    ...K    LDRBNE   r4,[r0],#1
        0x000182a6:    1cad        ..      ADDNE    r5,r5,#2
        0x000182a8:    1b0c        ..      SUBNE    r4,r1,r4
        0x000182aa:    d109        ..      BNE      0x182c0 ; __decompress + 80
        0x000182ac:    1e6d        m.      SUBS     r5,r5,#1
        0x000182ae:    bf58        X.      IT       PL
        0x000182b0:    f801cb01    ....    STRBPL   r12,[r1],#1
        0x000182b4:    d5fa        ..      BPL      0x182ac ; __decompress + 60
        0x000182b6:    e005        ..      B        0x182c4 ; __decompress + 84
        0x000182b8:    f8146b01    ...k    LDRB     r6,[r4],#1
        0x000182bc:    f8016b01    ...k    STRB     r6,[r1],#1
        0x000182c0:    1e6d        m.      SUBS     r5,r5,#1
        0x000182c2:    d5f9        ..      BPL      0x182b8 ; __decompress + 72
        0x000182c4:    4291        .B      CMP      r1,r2
        0x000182c6:    d3d6        ..      BCC      0x18276 ; __decompress + 6
        0x000182c8:    4770        pG      BX       lr
        0x000182ca:    0000        ..      MOVS     r0,r0
    !!handler_copy
    __scatterload_copy
        0x000182cc:    3a10        .:      SUBS     r2,r2,#0x10
        0x000182ce:    bf24        $.      ITT      CS
        0x000182d0:    c878        x.      LDMCS    r0!,{r3-r6}
        0x000182d2:    c178        x.      STMCS    r1!,{r3-r6}
        0x000182d4:    d8fa        ..      BHI      __scatterload_copy ; 0x182cc
        0x000182d6:    0752        R.      LSLS     r2,r2,#29
        0x000182d8:    bf24        $.      ITT      CS
        0x000182da:    c830        0.      LDMCS    r0!,{r4,r5}
        0x000182dc:    c130        0.      STMCS    r1!,{r4,r5}
        0x000182de:    bf44        D.      ITT      MI
        0x000182e0:    6804        .h      LDRMI    r4,[r0,#0]
        0x000182e2:    600c        .`      STRMI    r4,[r1,#0]
        0x000182e4:    4770        pG      BX       lr
        0x000182e6:    0000        ..      MOVS     r0,r0
    !!handler_zi
    __scatterload_zeroinit
        0x000182e8:    2300        .#      MOVS     r3,#0
        0x000182ea:    2400        .$      MOVS     r4,#0
        0x000182ec:    2500        .%      MOVS     r5,#0
        0x000182ee:    2600        .&      MOVS     r6,#0
        0x000182f0:    3a10        .:      SUBS     r2,r2,#0x10
        0x000182f2:    bf28        (.      IT       CS
        0x000182f4:    c178        x.      STMCS    r1!,{r3-r6}
        0x000182f6:    d8fb        ..      BHI      0x182f0 ; __scatterload_zeroinit + 8
        0x000182f8:    0752        R.      LSLS     r2,r2,#29
        0x000182fa:    bf28        (.      IT       CS
        0x000182fc:    c130        0.      STMCS    r1!,{r4,r5}
        0x000182fe:    bf48        H.      IT       MI
        0x00018300:    600b        .`      STRMI    r3,[r1,#0]
        0x00018302:    4770        pG      BX       lr
    .ARM.Collect$$libinit$$00000000
    __rt_lib_init
        0x00018304:    b51f        ..      PUSH     {r0-r4,lr}
    .ARM.Collect$$libinit$$00000001
    __rt_lib_init_fp_1
        0x00018306:    f007fea0    ....    BL       _fp_init ; 0x2004a
    .ARM.Collect$$libinit$$00000004
    .ARM.Collect$$libinit$$0000000A
    .ARM.Collect$$libinit$$0000000C
    .ARM.Collect$$libinit$$0000000E
    .ARM.Collect$$libinit$$00000011
    .ARM.Collect$$libinit$$00000013
    .ARM.Collect$$libinit$$00000015
    .ARM.Collect$$libinit$$00000017
    .ARM.Collect$$libinit$$00000019
    .ARM.Collect$$libinit$$0000001B
    .ARM.Collect$$libinit$$0000001D
    .ARM.Collect$$libinit$$0000001F
    .ARM.Collect$$libinit$$00000021
    .ARM.Collect$$libinit$$00000023
    .ARM.Collect$$libinit$$00000025
    .ARM.Collect$$libinit$$0000002C
    .ARM.Collect$$libinit$$0000002E
    .ARM.Collect$$libinit$$00000030
    .ARM.Collect$$libinit$$00000032
    .ARM.Collect$$libinit$$00000033
    __rt_lib_init_alloca_1
    __rt_lib_init_argv_1
    __rt_lib_init_atexit_1
    __rt_lib_init_clock_1
    __rt_lib_init_cpp_1
    __rt_lib_init_exceptions_1
    __rt_lib_init_fp_trap_1
    __rt_lib_init_getenv_1
    __rt_lib_init_heap_1
    __rt_lib_init_lc_collate_1
    __rt_lib_init_lc_ctype_1
    __rt_lib_init_lc_monetary_1
    __rt_lib_init_lc_numeric_1
    __rt_lib_init_lc_time_1
    __rt_lib_init_preinit_1
    __rt_lib_init_rand_1
    __rt_lib_init_return
    __rt_lib_init_signal_1
    __rt_lib_init_stdio_1
    __rt_lib_init_user_alloc_1
        0x0001830a:    bd1f        ..      POP      {r0-r4,pc}
    .ARM.Collect$$libshutdown$$00000000
    __rt_lib_shutdown
        0x0001830c:    b510        ..      PUSH     {r4,lr}
    .ARM.Collect$$libshutdown$$00000002
    .ARM.Collect$$libshutdown$$00000004
    .ARM.Collect$$libshutdown$$00000007
    .ARM.Collect$$libshutdown$$0000000A
    .ARM.Collect$$libshutdown$$0000000C
    .ARM.Collect$$libshutdown$$0000000F
    .ARM.Collect$$libshutdown$$00000010
    __rt_lib_shutdown_cpp_1
    __rt_lib_shutdown_fp_trap_1
    __rt_lib_shutdown_heap_1
    __rt_lib_shutdown_return
    __rt_lib_shutdown_signal_1
    __rt_lib_shutdown_stdio_1
    __rt_lib_shutdown_user_alloc_1
        0x0001830e:    bd10        ..      POP      {r4,pc}
    .ARM.Collect$$rtentry$$00000000
    .ARM.Collect$$rtentry$$00000002
    .ARM.Collect$$rtentry$$00000004
    __rt_entry
    __rt_entry_presh_1
    __rt_entry_sh
        0x00018310:    f000f8e7    ....    BL       __user_setup_stackheap ; 0x184e2
        0x00018314:    4611        .F      MOV      r1,r2
    .ARM.Collect$$rtentry$$00000009
    .ARM.Collect$$rtentry$$0000000A
    __rt_entry_li
    __rt_entry_postsh_1
        0x00018316:    f7fffff5    ....    BL       __rt_lib_init ; 0x18304
    .ARM.Collect$$rtentry$$0000000C
    .ARM.Collect$$rtentry$$0000000D
    __rt_entry_main
    __rt_entry_postli_1
        0x0001831a:    f006fdf1    ....    BL       main ; 0x1ef00
        0x0001831e:    f000f905    ....    BL       exit ; 0x1852c
    .ARM.Collect$$rtexit$$00000000
    __rt_exit
        0x00018322:    b403        ..      PUSH     {r0,r1}
    .ARM.Collect$$rtexit$$00000002
    .ARM.Collect$$rtexit$$00000003
    __rt_exit_ls
    __rt_exit_prels_1
        0x00018324:    f7fffff2    ....    BL       __rt_lib_shutdown ; 0x1830c
    .ARM.Collect$$rtexit$$00000004
    __rt_exit_exit
        0x00018328:    bc03        ..      POP      {r0,r1}
        0x0001832a:    f000f90d    ....    BL       _sys_exit ; 0x18548
        0x0001832e:    0000        ..      MOVS     r0,r0
    .text
    $v0
    __user_initial_stackheap
        0x00018330:    4802        .H      LDR      r0,[pc,#8] ; [0x1833c] = 0x10008a00
        0x00018332:    4903        .I      LDR      r1,[pc,#12] ; [0x18340] = 0x10009a00
        0x00018334:    4a01        .J      LDR      r2,[pc,#4] ; [0x1833c] = 0x10008a00
        0x00018336:    4b03        .K      LDR      r3,[pc,#12] ; [0x18344] = 0x10008a00
        0x00018338:    4770        pG      BX       lr
    $d
        0x0001833a:    0000        ..      DCW    0
        0x0001833c:    10008a00    ....    DCD    268470784
        0x00018340:    10009a00    ....    DCD    268474880
        0x00018344:    10008a00    ....    DCD    268470784
    $t
    .text
    memcmp
        0x00018348:    ea400301    @...    ORR      r3,r0,r1
        0x0001834c:    b510        ..      PUSH     {r4,lr}
        0x0001834e:    079b        ..      LSLS     r3,r3,#30
        0x00018350:    d10f        ..      BNE      0x18372 ; memcmp + 42
        0x00018352:    2a04        .*      CMP      r2,#4
        0x00018354:    d30d        ..      BCC      0x18372 ; memcmp + 42
        0x00018356:    c810        ..      LDM      r0!,{r4}
        0x00018358:    c908        ..      LDM      r1!,{r3}
        0x0001835a:    1f12        ..      SUBS     r2,r2,#4
        0x0001835c:    429c        .B      CMP      r4,r3
        0x0001835e:    d0f8        ..      BEQ      0x18352 ; memcmp + 10
        0x00018360:    ba20         .      REV      r0,r4
        0x00018362:    ba19        ..      REV      r1,r3
        0x00018364:    4288        .B      CMP      r0,r1
        0x00018366:    d901        ..      BLS      0x1836c ; memcmp + 36
        0x00018368:    2001        .       MOVS     r0,#1
        0x0001836a:    bd10        ..      POP      {r4,pc}
        0x0001836c:    f04f30ff    O..0    MOV      r0,#0xffffffff
        0x00018370:    bd10        ..      POP      {r4,pc}
        0x00018372:    b11a        ..      CBZ      r2,0x1837c ; memcmp + 52
        0x00018374:    07d3        ..      LSLS     r3,r2,#31
        0x00018376:    d003        ..      BEQ      0x18380 ; memcmp + 56
        0x00018378:    1c52        R.      ADDS     r2,r2,#1
        0x0001837a:    e007        ..      B        0x1838c ; memcmp + 68
        0x0001837c:    2000        .       MOVS     r0,#0
        0x0001837e:    bd10        ..      POP      {r4,pc}
        0x00018380:    f8103b01    ...;    LDRB     r3,[r0],#1
        0x00018384:    f8114b01    ...K    LDRB     r4,[r1],#1
        0x00018388:    1b1b        ..      SUBS     r3,r3,r4
        0x0001838a:    d107        ..      BNE      0x1839c ; memcmp + 84
        0x0001838c:    f8103b01    ...;    LDRB     r3,[r0],#1
        0x00018390:    f8114b01    ...K    LDRB     r4,[r1],#1
        0x00018394:    1b1b        ..      SUBS     r3,r3,r4
        0x00018396:    d101        ..      BNE      0x1839c ; memcmp + 84
        0x00018398:    1e92        ..      SUBS     r2,r2,#2
        0x0001839a:    d1f1        ..      BNE      0x18380 ; memcmp + 56
        0x0001839c:    4618        .F      MOV      r0,r3
        0x0001839e:    bd10        ..      POP      {r4,pc}
    .text
    __aeabi_memcpy
    __rt_memcpy
        0x000183a0:    2a03        .*      CMP      r2,#3
        0x000183a2:    f2408030    @.0.    BLS.W    _memcpy_lastbytes ; 0x18406
        0x000183a6:    f0100c03    ....    ANDS     r12,r0,#3
        0x000183aa:    f0008015    ....    BEQ.W    0x183d8 ; __aeabi_memcpy + 56
        0x000183ae:    f8113b01    ...;    LDRB     r3,[r1],#1
        0x000183b2:    f1bc0f02    ....    CMP      r12,#2
        0x000183b6:    4462        bD      ADD      r2,r2,r12
        0x000183b8:    bf98        ..      IT       LS
        0x000183ba:    f811cb01    ....    LDRBLS   r12,[r1],#1
        0x000183be:    f8003b01    ...;    STRB     r3,[r0],#1
        0x000183c2:    bf38        8.      IT       CC
        0x000183c4:    f8113b01    ...;    LDRBCC   r3,[r1],#1
        0x000183c8:    f1a20204    ....    SUB      r2,r2,#4
        0x000183cc:    bf98        ..      IT       LS
        0x000183ce:    f800cb01    ....    STRBLS   r12,[r0],#1
        0x000183d2:    bf38        8.      IT       CC
        0x000183d4:    f8003b01    ...;    STRBCC   r3,[r0],#1
        0x000183d8:    f0110303    ....    ANDS     r3,r1,#3
        0x000183dc:    f000804f    ..O.    BEQ.W    __aeabi_memcpy4 ; 0x1847e
        0x000183e0:    3a08        .:      SUBS     r2,r2,#8
        0x000183e2:    f0c08008    ....    BCC.W    0x183f6 ; __aeabi_memcpy + 86
        0x000183e6:    f8513b04    Q..;    LDR      r3,[r1],#4
        0x000183ea:    3a08        .:      SUBS     r2,r2,#8
        0x000183ec:    f851cb04    Q...    LDR      r12,[r1],#4
        0x000183f0:    e8a01008    ....    STM      r0!,{r3,r12}
        0x000183f4:    e7f5        ..      B        0x183e2 ; __aeabi_memcpy + 66
        0x000183f6:    1d12        ..      ADDS     r2,r2,#4
        0x000183f8:    bf5c        \.      ITT      PL
        0x000183fa:    f8513b04    Q..;    LDRPL    r3,[r1],#4
        0x000183fe:    f8403b04    @..;    STRPL    r3,[r0],#4
        0x00018402:    f3af8000    ....    NOP.W    
    _memcpy_lastbytes
        0x00018406:    07d2        ..      LSLS     r2,r2,#31
        0x00018408:    bf24        $.      ITT      CS
        0x0001840a:    f8113b01    ...;    LDRBCS   r3,[r1],#1
        0x0001840e:    f811cb01    ....    LDRBCS   r12,[r1],#1
        0x00018412:    bf48        H.      IT       MI
        0x00018414:    f8112b01    ...+    LDRBMI   r2,[r1],#1
        0x00018418:    bf24        $.      ITT      CS
        0x0001841a:    f8003b01    ...;    STRBCS   r3,[r0],#1
        0x0001841e:    f800cb01    ....    STRBCS   r12,[r0],#1
        0x00018422:    bf48        H.      IT       MI
        0x00018424:    f8002b01    ...+    STRBMI   r2,[r0],#1
        0x00018428:    4770        pG      BX       lr
    .text
    __aeabi_memclr4
    __aeabi_memclr8
    __rt_memclr_w
        0x0001842a:    f04f0200    O...    MOV      r2,#0
    _memset_w
        0x0001842e:    b500        ..      PUSH     {lr}
        0x00018430:    4613        .F      MOV      r3,r2
        0x00018432:    4694        .F      MOV      r12,r2
        0x00018434:    4696        .F      MOV      lr,r2
        0x00018436:    3920         9      SUBS     r1,r1,#0x20
        0x00018438:    bf22        ".      ITTT     CS
        0x0001843a:    e8a0500c    ...P    STMCS    r0!,{r2,r3,r12,lr}
        0x0001843e:    e8a0500c    ...P    STMCS    r0!,{r2,r3,r12,lr}
        0x00018442:    f1b10120    .. .    SUBSCS   r1,r1,#0x20
        0x00018446:    f4bfaff7    ....    BCS.W    0x18438 ; _memset_w + 10
        0x0001844a:    0709        ..      LSLS     r1,r1,#28
        0x0001844c:    bf28        (.      IT       CS
        0x0001844e:    e8a0500c    ...P    STMCS    r0!,{r2,r3,r12,lr}
        0x00018452:    bf48        H.      IT       MI
        0x00018454:    c00c        ..      STMMI    r0!,{r2,r3}
        0x00018456:    f85deb04    ]...    POP      {lr}
        0x0001845a:    0089        ..      LSLS     r1,r1,#2
        0x0001845c:    bf28        (.      IT       CS
        0x0001845e:    f8402b04    @..+    STRCS    r2,[r0],#4
        0x00018462:    bf08        ..      IT       EQ
        0x00018464:    4770        pG      BXEQ     lr
        0x00018466:    bf48        H.      IT       MI
        0x00018468:    f8202b02     ..+    STRHMI   r2,[r0],#2
        0x0001846c:    f0114f80    ...O    TST      r1,#0x40000000
        0x00018470:    bf18        ..      IT       NE
        0x00018472:    f8002b01    ...+    STRBNE   r2,[r0],#1
        0x00018476:    4770        pG      BX       lr
    .text
    __use_two_region_memory
        0x00018478:    4770        pG      BX       lr
    __rt_heap_escrow$2region
        0x0001847a:    4770        pG      BX       lr
    __rt_heap_expand$2region
        0x0001847c:    4770        pG      BX       lr
    .text
    __aeabi_memcpy4
    __aeabi_memcpy8
    __rt_memcpy_w
        0x0001847e:    b510        ..      PUSH     {r4,lr}
        0x00018480:    3a20         :      SUBS     r2,r2,#0x20
        0x00018482:    f0c0800b    ....    BCC.W    0x1849c ; __aeabi_memcpy4 + 30
        0x00018486:    e8b15018    ...P    LDM      r1!,{r3,r4,r12,lr}
        0x0001848a:    e8a05018    ...P    STM      r0!,{r3,r4,r12,lr}
        0x0001848e:    e8b15018    ...P    LDM      r1!,{r3,r4,r12,lr}
        0x00018492:    e8a05018    ...P    STM      r0!,{r3,r4,r12,lr}
        0x00018496:    3a20         :      SUBS     r2,r2,#0x20
        0x00018498:    f4bfaff5    ....    BCS.W    0x18486 ; __aeabi_memcpy4 + 8
        0x0001849c:    ea5f7c02    _..|    LSLS     r12,r2,#28
        0x000184a0:    bf24        $.      ITT      CS
        0x000184a2:    e8b15018    ...P    LDMCS    r1!,{r3,r4,r12,lr}
        0x000184a6:    e8a05018    ...P    STMCS    r0!,{r3,r4,r12,lr}
        0x000184aa:    bf44        D.      ITT      MI
        0x000184ac:    c918        ..      LDMMI    r1!,{r3,r4}
        0x000184ae:    c018        ..      STMMI    r0!,{r3,r4}
        0x000184b0:    e8bd4010    ...@    POP      {r4,lr}
        0x000184b4:    ea5f7c82    _..|    LSLS     r12,r2,#30
        0x000184b8:    bf24        $.      ITT      CS
        0x000184ba:    f8513b04    Q..;    LDRCS    r3,[r1],#4
        0x000184be:    f8403b04    @..;    STRCS    r3,[r0],#4
        0x000184c2:    bf08        ..      IT       EQ
        0x000184c4:    4770        pG      BXEQ     lr
    _memcpy_lastbytes_aligned
        0x000184c6:    07d2        ..      LSLS     r2,r2,#31
        0x000184c8:    bf28        (.      IT       CS
        0x000184ca:    f8313b02    1..;    LDRHCS   r3,[r1],#2
        0x000184ce:    bf48        H.      IT       MI
        0x000184d0:    f8112b01    ...+    LDRBMI   r2,[r1],#1
        0x000184d4:    bf28        (.      IT       CS
        0x000184d6:    f8203b02     ..;    STRHCS   r3,[r0],#2
        0x000184da:    bf48        H.      IT       MI
        0x000184dc:    f8002b01    ...+    STRBMI   r2,[r0],#1
        0x000184e0:    4770        pG      BX       lr
    .text
    __user_setup_stackheap
        0x000184e2:    4675        uF      MOV      r5,lr
        0x000184e4:    f000f82c    ..,.    BL       __user_libspace ; 0x18540
        0x000184e8:    46ae        .F      MOV      lr,r5
        0x000184ea:    0005        ..      MOVS     r5,r0
        0x000184ec:    4669        iF      MOV      r1,sp
        0x000184ee:    4653        SF      MOV      r3,r10
        0x000184f0:    f0200007     ...    BIC      r0,r0,#7
        0x000184f4:    4685        .F      MOV      sp,r0
        0x000184f6:    b018        ..      ADD      sp,sp,#0x60
        0x000184f8:    b520         .      PUSH     {r5,lr}
        0x000184fa:    f7ffff19    ....    BL       __user_initial_stackheap ; 0x18330
        0x000184fe:    e8bd4020    .. @    POP      {r5,lr}
        0x00018502:    f04f0600    O...    MOV      r6,#0
        0x00018506:    f04f0700    O...    MOV      r7,#0
        0x0001850a:    f04f0800    O...    MOV      r8,#0
        0x0001850e:    f04f0b00    O...    MOV      r11,#0
        0x00018512:    46ac        .F      MOV      r12,r5
        0x00018514:    e8ac09c0    ....    STM      r12!,{r6-r8,r11}
        0x00018518:    e8ac09c0    ....    STM      r12!,{r6-r8,r11}
        0x0001851c:    e8ac09c0    ....    STM      r12!,{r6-r8,r11}
        0x00018520:    e8ac09c0    ....    STM      r12!,{r6-r8,r11}
        0x00018524:    f0210107    !...    BIC      r1,r1,#7
        0x00018528:    468d        .F      MOV      sp,r1
        0x0001852a:    4770        pG      BX       lr
    .text
    exit
        0x0001852c:    b510        ..      PUSH     {r4,lr}
        0x0001852e:    4604        .F      MOV      r4,r0
        0x00018530:    f3af8000    ....    NOP.W    
        0x00018534:    4620         F      MOV      r0,r4
        0x00018536:    e8bd4010    ...@    POP      {r4,lr}
        0x0001853a:    f7ffbef2    ....    B.W      __rt_exit ; 0x18322
        0x0001853e:    0000        ..      MOVS     r0,r0
    .text
    __user_libspace
    __user_perproc_libspace
    __user_perthread_libspace
        0x00018540:    4800        .H      LDR      r0,[pc,#0] ; [0x18544] = 0x100006d8
        0x00018542:    4770        pG      BX       lr
    $d
        0x00018544:    100006d8    ....    DCD    268437208
    $t
    .text
    _sys_exit
        0x00018548:    4901        .I      LDR      r1,[pc,#4] ; [0x18550] = 0x20026
        0x0001854a:    2018        .       MOVS     r0,#0x18
        0x0001854c:    beab        ..      BKPT     #0xab
        0x0001854e:    e7fe        ..      B        0x1854e ; _sys_exit + 6
    $d
        0x00018550:    00020026    &...    DCD    131110
    $t
    .text
    __I$use$semihosting
    __use_no_semihosting_swi
        0x00018554:    4770        pG      BX       lr
    .text
    __semihosting_library_function
        0x00018556:    0000        ..      MOVS     r0,r0
    $t.0
    HardFault_Handler
        0x00018558:    f01e0f04    ....    TST      lr,#4
        0x0001855c:    bf0c        ..      ITE      EQ
        0x0001855e:    f3ef8008    ....    MRSEQ    r0,MSP
        0x00018562:    f3ef8009    ....    MRSNE    r0,PSP
        0x00018566:    4904        .I      LDR      r1,[pc,#16] ; [0x18578] = 0x1000495c
        0x00018568:    f5017100    ...q    ADD      r1,r1,#0x200
        0x0001856c:    f0210103    !...    BIC      r1,r1,#3
        0x00018570:    468d        .F      MOV      sp,r1
        0x00018572:    f004bedd    ....    B.W      am_util_faultisr_collect_data ; 0x1d330
        0x00018576:    bf00        ..      NOP      
    $d.4
        0x00018578:    1000495c    \I..    DCD    268454236
    $t.24
    TrimVersionGet
        0x0001857c:    b5b0        ..      PUSH     {r4,r5,r7,lr}
        0x0001857e:    f24015dc    @...    MOVW     r5,#0x1dc
        0x00018582:    f2c10500    ....    MOVT     r5,#0x1000
        0x00018586:    6829        )h      LDR      r1,[r5,#0]
        0x00018588:    4604        .F      MOV      r4,r0
        0x0001858a:    1c4a        J.      ADDS     r2,r1,#1
        0x0001858c:    d10c        ..      BNE      0x185a8 ; TrimVersionGet + 44
        0x0001858e:    2001        .       MOVS     r0,#1
        0x00018590:    f24041c4    @..A    MOV      r1,#0x4c4
        0x00018594:    2201        ."      MOVS     r2,#1
        0x00018596:    462b        +F      MOV      r3,r5
        0x00018598:    f002fd92    ....    BL       am_hal_mram_info_read ; 0x1b0c0
        0x0001859c:    b910        ..      CBNZ     r0,0x185a4 ; TrimVersionGet + 40
        0x0001859e:    6829        )h      LDR      r1,[r5,#0]
        0x000185a0:    1c48        H.      ADDS     r0,r1,#1
        0x000185a2:    d101        ..      BNE      0x185a8 ; TrimVersionGet + 44
        0x000185a4:    2100        .!      MOVS     r1,#0
        0x000185a6:    6029        )`      STR      r1,[r5,#0]
        0x000185a8:    b104        ..      CBZ      r4,0x185ac ; TrimVersionGet + 48
        0x000185aa:    6021        !`      STR      r1,[r4,#0]
        0x000185ac:    bdb0        ..      POP      {r4,r5,r7,pc}
        0x000185ae:    0000        ..      MOVS     r0,r0
    __NVIC_ClearPendingIRQ
        0x000185b0:    b081        ..      SUB      sp,sp,#4
        0x000185b2:    f88d0003    ....    STRB     r0,[sp,#3]
        0x000185b6:    f99d0003    ....    LDRSB    r0,[sp,#3]
        0x000185ba:    2800        .(      CMP      r0,#0
        0x000185bc:    d40e        ..      BMI      0x185dc ; __NVIC_ClearPendingIRQ + 44
        0x000185be:    e7ff        ..      B        0x185c0 ; __NVIC_ClearPendingIRQ + 16
        0x000185c0:    f99d1003    ....    LDRSB    r1,[sp,#3]
        0x000185c4:    f001021f    ....    AND      r2,r1,#0x1f
        0x000185c8:    2001        .       MOVS     r0,#1
        0x000185ca:    4090        .@      LSLS     r0,r0,r2
        0x000185cc:    094a        J.      LSRS     r2,r1,#5
        0x000185ce:    f24e2180    N..!    MOV      r1,#0xe280
        0x000185d2:    f2ce0100    ....    MOVT     r1,#0xe000
        0x000185d6:    f8410022    A.".    STR      r0,[r1,r2,LSL #2]
        0x000185da:    e7ff        ..      B        0x185dc ; __NVIC_ClearPendingIRQ + 44
        0x000185dc:    b001        ..      ADD      sp,sp,#4
        0x000185de:    4770        pG      BX       lr
    __NVIC_DisableIRQ
        0x000185e0:    b081        ..      SUB      sp,sp,#4
        0x000185e2:    f88d0003    ....    STRB     r0,[sp,#3]
        0x000185e6:    f99d0003    ....    LDRSB    r0,[sp,#3]
        0x000185ea:    2800        .(      CMP      r0,#0
        0x000185ec:    d412        ..      BMI      0x18614 ; __NVIC_DisableIRQ + 52
        0x000185ee:    e7ff        ..      B        0x185f0 ; __NVIC_DisableIRQ + 16
        0x000185f0:    f99d1003    ....    LDRSB    r1,[sp,#3]
        0x000185f4:    f001021f    ....    AND      r2,r1,#0x1f
        0x000185f8:    2001        .       MOVS     r0,#1
        0x000185fa:    4090        .@      LSLS     r0,r0,r2
        0x000185fc:    094a        J.      LSRS     r2,r1,#5
        0x000185fe:    f24e1180    N...    MOV      r1,#0xe180
        0x00018602:    f2ce0100    ....    MOVT     r1,#0xe000
        0x00018606:    f8410022    A.".    STR      r0,[r1,r2,LSL #2]
        0x0001860a:    f3bf8f4f    ..O.    DSB      
        0x0001860e:    f3bf8f6f    ..o.    ISB      
        0x00018612:    e7ff        ..      B        0x18614 ; __NVIC_DisableIRQ + 52
        0x00018614:    b001        ..      ADD      sp,sp,#4
        0x00018616:    4770        pG      BX       lr
    __NVIC_EnableIRQ
        0x00018618:    b081        ..      SUB      sp,sp,#4
        0x0001861a:    f88d0003    ....    STRB     r0,[sp,#3]
        0x0001861e:    f99d0003    ....    LDRSB    r0,[sp,#3]
        0x00018622:    2800        .(      CMP      r0,#0
        0x00018624:    d40e        ..      BMI      0x18644 ; __NVIC_EnableIRQ + 44
        0x00018626:    e7ff        ..      B        0x18628 ; __NVIC_EnableIRQ + 16
        0x00018628:    f99d1003    ....    LDRSB    r1,[sp,#3]
        0x0001862c:    f001021f    ....    AND      r2,r1,#0x1f
        0x00018630:    2001        .       MOVS     r0,#1
        0x00018632:    4090        .@      LSLS     r0,r0,r2
        0x00018634:    094a        J.      LSRS     r2,r1,#5
        0x00018636:    f24e1100    N...    MOVW     r1,#0xe100
        0x0001863a:    f2ce0100    ....    MOVT     r1,#0xe000
        0x0001863e:    f8410022    A.".    STR      r0,[r1,r2,LSL #2]
        0x00018642:    e7ff        ..      B        0x18644 ; __NVIC_EnableIRQ + 44
        0x00018644:    b001        ..      ADD      sp,sp,#4
        0x00018646:    4770        pG      BX       lr
    __NVIC_SetPriority
        0x00018648:    b082        ..      SUB      sp,sp,#8
        0x0001864a:    f88d0007    ....    STRB     r0,[sp,#7]
        0x0001864e:    9100        ..      STR      r1,[sp,#0]
        0x00018650:    f99d0007    ....    LDRSB    r0,[sp,#7]
        0x00018654:    2800        .(      CMP      r0,#0
        0x00018656:    d40a        ..      BMI      0x1866e ; __NVIC_SetPriority + 38
        0x00018658:    e7ff        ..      B        0x1865a ; __NVIC_SetPriority + 18
        0x0001865a:    9800        ..      LDR      r0,[sp,#0]
        0x0001865c:    0140        @.      LSLS     r0,r0,#5
        0x0001865e:    f99d1007    ....    LDRSB    r1,[sp,#7]
        0x00018662:    f24e4200    N..B    MOVW     r2,#0xe400
        0x00018666:    f2ce0200    ....    MOVT     r2,#0xe000
        0x0001866a:    5488        .T      STRB     r0,[r1,r2]
        0x0001866c:    e00b        ..      B        0x18686 ; __NVIC_SetPriority + 62
        0x0001866e:    9800        ..      LDR      r0,[sp,#0]
        0x00018670:    0140        @.      LSLS     r0,r0,#5
        0x00018672:    f89d1007    ....    LDRB     r1,[sp,#7]
        0x00018676:    f001010f    ....    AND      r1,r1,#0xf
        0x0001867a:    f64e5214    N..R    MOV      r2,#0xed14
        0x0001867e:    f2ce0200    ....    MOVT     r2,#0xe000
        0x00018682:    5488        .T      STRB     r0,[r1,r2]
        0x00018684:    e7ff        ..      B        0x18686 ; __NVIC_SetPriority + 62
        0x00018686:    b002        ..      ADD      sp,sp,#8
        0x00018688:    4770        pG      BX       lr
    am_bsp_itm_printf_enable
        0x0001868a:    b580        ..      PUSH     {r7,lr}
        0x0001868c:    b082        ..      SUB      sp,sp,#8
        0x0001868e:    f2410008    A...    MOV      r0,#0x1008
        0x00018692:    f2c40002    ....    MOVT     r0,#0x4002
        0x00018696:    6800        .h      LDR      r0,[r0,#0]
        0x00018698:    02c0        ..      LSLS     r0,r0,#11
        0x0001869a:    d512        ..      BPL      0x186c2 ; am_bsp_itm_printf_enable + 56
        0x0001869c:    f640207c    @.|     MOV      r0,#0xa7c
        0x000186a0:    f2c4000c    ....    MOVT     r0,#0x400c
        0x000186a4:    6800        .h      LDR      r0,[r0,#0]
        0x000186a6:    07c0        ..      LSLS     r0,r0,#31
        0x000186a8:    d00b        ..      BEQ      0x186c2 ; am_bsp_itm_printf_enable + 56
        0x000186aa:    a801        ..      ADD      r0,sp,#4
        0x000186ac:    f002fabe    ....    BL       am_hal_dcu_get ; 0x1ac2c
        0x000186b0:    f89d0004    ....    LDRB     r0,[sp,#4]
        0x000186b4:    06c0        ..      LSLS     r0,r0,#27
        0x000186b6:    d408        ..      BMI      0x186ca ; am_bsp_itm_printf_enable + 64
        0x000186b8:    2001        .       MOVS     r0,#1
        0x000186ba:    2110        .!      MOVS     r1,#0x10
        0x000186bc:    f002fb04    ....    BL       am_hal_dcu_update ; 0x1acc8
        0x000186c0:    b118        ..      CBZ      r0,0x186ca ; am_bsp_itm_printf_enable + 64
        0x000186c2:    f04f30ff    O..0    MOV      r0,#0xffffffff
        0x000186c6:    b002        ..      ADD      sp,sp,#8
        0x000186c8:    bd80        ..      POP      {r7,pc}
        0x000186ca:    f24850c7    H..P    MOV      r0,#0x85c7
        0x000186ce:    f2c10000    ....    MOVT     r0,#0x1000
        0x000186d2:    2101        .!      MOVS     r1,#1
        0x000186d4:    7001        .p      STRB     r1,[r0,#0]
        0x000186d6:    f002fcb9    ....    BL       am_hal_itm_enable ; 0x1b04c
        0x000186da:    f2442040    D.@     MOV      r0,#0x4240
        0x000186de:    f2c0000f    ....    MOVT     r0,#0xf
        0x000186e2:    f004fdc3    ....    BL       am_hal_tpiu_enable ; 0x1d26c
        0x000186e6:    f644306c    D.l0    MOV      r0,#0x4b6c
        0x000186ea:    f2c10000    ....    MOVT     r0,#0x1000
        0x000186ee:    6801        .h      LDR      r1,[r0,#0]
        0x000186f0:    201c        .       MOVS     r0,#0x1c
        0x000186f2:    f002fbfd    ....    BL       am_hal_gpio_pinconfig ; 0x1aef0
        0x000186f6:    f24b0091    K...    MOV      r0,#0xb091
        0x000186fa:    f2c00001    ....    MOVT     r0,#1
        0x000186fe:    f004ffd9    ....    BL       am_util_stdio_printf_init ; 0x1d6b4
        0x00018702:    2000        .       MOVS     r0,#0
        0x00018704:    e7df        ..      B        0x186c6 ; am_bsp_itm_printf_enable + 60
    am_bsp_low_power_init
        0x00018706:    b580        ..      PUSH     {r7,lr}
        0x00018708:    f004faa2    ....    BL       am_hal_pwrctrl_low_power_init ; 0x1cc50
        0x0001870c:    2000        .       MOVS     r0,#0
        0x0001870e:    2100        .!      MOVS     r1,#0
        0x00018710:    f004f9c4    ....    BL       am_hal_pwrctrl_control ; 0x1ca9c
        0x00018714:    e8bd4080    ...@    POP      {r7,lr}
        0x00018718:    f004bd1e    ....    B.W      am_hal_rtc_osc_disable ; 0x1d158
    am_bsp_mspi_pins_enable
        0x0001871c:    b510        ..      PUSH     {r4,lr}
        0x0001871e:    2802        .(      CMP      r0,#2
        0x00018720:    460c        .F      MOV      r4,r1
        0x00018722:    d03d        =.      BEQ      0x187a0 ; am_bsp_mspi_pins_enable + 132
        0x00018724:    2801        .(      CMP      r0,#1
        0x00018726:    f000805b    ..[.    BEQ.W    0x187e0 ; am_bsp_mspi_pins_enable + 196
        0x0001872a:    2800        .(      CMP      r0,#0
        0x0001872c:    f04080aa    @...    BNE.W    0x18884 ; am_bsp_mspi_pins_enable + 360
        0x00018730:    ea4f0074    O.t.    ROR      r0,r4,#1
        0x00018734:    2809        .(      CMP      r0,#9
        0x00018736:    f20080a5    ....    BHI.W    0x18884 ; am_bsp_mspi_pins_enable + 360
        0x0001873a:    e8dff010    ....    TBH      [pc,r0,LSL #1]
    $d.32
        0x0001873e:    0122        ".      DCW    290
        0x00018740:    000a00a3    ....    DCD    655523
        0x00018744:    01390245    E.9.    DCD    20513349
        0x00018748:    00a30190    ....    DCD    10682768
        0x0001874c:    000a00a3    ....    DCD    655523
        0x00018750:    000a        ..      DCW    10
    $t.33
        0x00018752:    f240105c    @.\.    MOVW     r0,#0x15c
        0x00018756:    f2c10000    ....    MOVT     r0,#0x1000
        0x0001875a:    6801        .h      LDR      r1,[r0,#0]
        0x0001875c:    2039        9       MOVS     r0,#0x39
        0x0001875e:    f002fbc7    ....    BL       am_hal_gpio_pinconfig ; 0x1aef0
        0x00018762:    f2401060    @.`.    MOVW     r0,#0x160
        0x00018766:    f2c10000    ....    MOVT     r0,#0x1000
        0x0001876a:    6801        .h      LDR      r1,[r0,#0]
        0x0001876c:    2040        @       MOVS     r0,#0x40
        0x0001876e:    f002fbbf    ....    BL       am_hal_gpio_pinconfig ; 0x1aef0
        0x00018772:    f2401064    @.d.    MOVW     r0,#0x164
        0x00018776:    f2c10000    ....    MOVT     r0,#0x1000
        0x0001877a:    6801        .h      LDR      r1,[r0,#0]
        0x0001877c:    2041        A       MOVS     r0,#0x41
        0x0001877e:    f002fbb7    ....    BL       am_hal_gpio_pinconfig ; 0x1aef0
        0x00018782:    f2401080    @...    MOVW     r0,#0x180
        0x00018786:    f2c10000    ....    MOVT     r0,#0x1000
        0x0001878a:    6801        .h      LDR      r1,[r0,#0]
        0x0001878c:    2042        B       MOVS     r0,#0x42
        0x0001878e:    f002fbaf    ....    BL       am_hal_gpio_pinconfig ; 0x1aef0
        0x00018792:    f2401084    @...    MOVW     r0,#0x184
        0x00018796:    f2c10000    ....    MOVT     r0,#0x1000
        0x0001879a:    6801        .h      LDR      r1,[r0,#0]
        0x0001879c:    2043        C       MOVS     r0,#0x43
        0x0001879e:    e259        Y.      B        0x18c54 ; am_bsp_mspi_pins_enable + 1336
        0x000187a0:    2c13        .,      CMP      r4,#0x13
        0x000187a2:    f200806f    ..o.    BHI.W    0x18884 ; am_bsp_mspi_pins_enable + 360
        0x000187a6:    e8dff014    ....    TBH      [pc,r4,LSL #1]
    $d.34
        0x000187aa:    02c4        ..      DCW    708
        0x000187ac:    006d02cb    ..m.    DCD    7144139
        0x000187b0:    0014006d    m...    DCD    1310829
        0x000187b4:    02e200c5    ....    DCD    48365765
        0x000187b8:    033b02e9    ..;.    DCD    54199017
        0x000187bc:    006d0342    B.m.    DCD    7144258
        0x000187c0:    006d006d    m.m.    DCD    7143533
        0x000187c4:    006d006d    m.m.    DCD    7143533
        0x000187c8:    0014006d    m...    DCD    1310829
        0x000187cc:    001400c5    ....    DCD    1310917
        0x000187d0:    00c5        ..      DCW    197
    $t.35
        0x000187d2:    f2401000    @...    MOVW     r0,#0x100
        0x000187d6:    f2c10000    ....    MOVT     r0,#0x1000
        0x000187da:    6801        .h      LDR      r1,[r0,#0]
        0x000187dc:    2000        .       MOVS     r0,#0
        0x000187de:    e0af        ..      B        0x18940 ; am_bsp_mspi_pins_enable + 548
        0x000187e0:    f24000fc    @...    MOVW     r0,#0xfc
        0x000187e4:    f2c10000    ....    MOVT     r0,#0x1000
        0x000187e8:    6801        .h      LDR      r1,[r0,#0]
        0x000187ea:    2022        "       MOVS     r0,#0x22
        0x000187ec:    f002fb80    ....    BL       am_hal_gpio_pinconfig ; 0x1aef0
        0x000187f0:    f24000f8    @...    MOVW     r0,#0xf8
        0x000187f4:    f2c10000    ....    MOVT     r0,#0x1000
        0x000187f8:    6801        .h      LDR      r1,[r0,#0]
        0x000187fa:    2023        #       MOVS     r0,#0x23
        0x000187fc:    f002fb78    ..x.    BL       am_hal_gpio_pinconfig ; 0x1aef0
        0x00018800:    2022        "       MOVS     r0,#0x22
        0x00018802:    2100        .!      MOVS     r1,#0
        0x00018804:    f002fba2    ....    BL       am_hal_gpio_state_write ; 0x1af4c
        0x00018808:    2023        #       MOVS     r0,#0x23
        0x0001880a:    2100        .!      MOVS     r1,#0
        0x0001880c:    f002fb9e    ....    BL       am_hal_gpio_state_write ; 0x1af4c
        0x00018810:    ea4f0074    O.t.    ROR      r0,r4,#1
        0x00018814:    280c        .(      CMP      r0,#0xc
        0x00018816:    d835        5.      BHI      0x18884 ; am_bsp_mspi_pins_enable + 360
        0x00018818:    e8dff010    ....    TBH      [pc,r0,LSL #1]
    $d.36
        0x0001881c:    00340225    %.4.    DCD    3408421
        0x00018820:    023c000d    ..<.    DCD    37486605
        0x00018824:    00340035    5.4.    DCD    3407925
        0x00018828:    00340034    4.4.    DCD    3407924
        0x0001882c:    000d000d    ....    DCD    851981
        0x00018830:    00350034    4.5.    DCD    3473460
        0x00018834:    0035        5.      DCW    53
    $t.37
        0x00018836:    f2401030    @.0.    MOVW     r0,#0x130
        0x0001883a:    f2c10000    ....    MOVT     r0,#0x1000
        0x0001883e:    6801        .h      LDR      r1,[r0,#0]
        0x00018840:    2038        8       MOVS     r0,#0x38
        0x00018842:    f002fb55    ..U.    BL       am_hal_gpio_pinconfig ; 0x1aef0
        0x00018846:    f2401034    @.4.    MOVW     r0,#0x134
        0x0001884a:    f2c10000    ....    MOVT     r0,#0x1000
        0x0001884e:    6801        .h      LDR      r1,[r0,#0]
        0x00018850:    2025        %       MOVS     r0,#0x25
        0x00018852:    f002fb4d    ..M.    BL       am_hal_gpio_pinconfig ; 0x1aef0
        0x00018856:    f2401038    @.8.    MOVW     r0,#0x138
        0x0001885a:    f2c10000    ....    MOVT     r0,#0x1000
        0x0001885e:    6801        .h      LDR      r1,[r0,#0]
        0x00018860:    2026        &       MOVS     r0,#0x26
        0x00018862:    f002fb45    ..E.    BL       am_hal_gpio_pinconfig ; 0x1aef0
        0x00018866:    f240103c    @.<.    MOVW     r0,#0x13c
        0x0001886a:    f2c10000    ....    MOVT     r0,#0x1000
        0x0001886e:    6801        .h      LDR      r1,[r0,#0]
        0x00018870:    2027        '       MOVS     r0,#0x27
        0x00018872:    f002fb3d    ..=.    BL       am_hal_gpio_pinconfig ; 0x1aef0
        0x00018876:    f2401040    @.@.    MOVW     r0,#0x140
        0x0001887a:    f2c10000    ....    MOVT     r0,#0x1000
        0x0001887e:    6801        .h      LDR      r1,[r0,#0]
        0x00018880:    2028        (       MOVS     r0,#0x28
        0x00018882:    e24d        M.      B        0x18d20 ; am_bsp_mspi_pins_enable + 1540
        0x00018884:    bd10        ..      POP      {r4,pc}
        0x00018886:    f2401030    @.0.    MOVW     r0,#0x130
        0x0001888a:    f2c10000    ....    MOVT     r0,#0x1000
        0x0001888e:    6801        .h      LDR      r1,[r0,#0]
        0x00018890:    2038        8       MOVS     r0,#0x38
        0x00018892:    f002fb2d    ..-.    BL       am_hal_gpio_pinconfig ; 0x1aef0
        0x00018896:    f2401034    @.4.    MOVW     r0,#0x134
        0x0001889a:    f2c10000    ....    MOVT     r0,#0x1000
        0x0001889e:    6801        .h      LDR      r1,[r0,#0]
        0x000188a0:    2025        %       MOVS     r0,#0x25
        0x000188a2:    f002fb25    ..%.    BL       am_hal_gpio_pinconfig ; 0x1aef0
        0x000188a6:    f2401038    @.8.    MOVW     r0,#0x138
        0x000188aa:    f2c10000    ....    MOVT     r0,#0x1000
        0x000188ae:    6801        .h      LDR      r1,[r0,#0]
        0x000188b0:    2026        &       MOVS     r0,#0x26
        0x000188b2:    f002fb1d    ....    BL       am_hal_gpio_pinconfig ; 0x1aef0
        0x000188b6:    f240103c    @.<.    MOVW     r0,#0x13c
        0x000188ba:    f2c10000    ....    MOVT     r0,#0x1000
        0x000188be:    6801        .h      LDR      r1,[r0,#0]
        0x000188c0:    2027        '       MOVS     r0,#0x27
        0x000188c2:    f002fb15    ....    BL       am_hal_gpio_pinconfig ; 0x1aef0
        0x000188c6:    f2401040    @.@.    MOVW     r0,#0x140
        0x000188ca:    f2c10000    ....    MOVT     r0,#0x1000
        0x000188ce:    6801        .h      LDR      r1,[r0,#0]
        0x000188d0:    2028        (       MOVS     r0,#0x28
        0x000188d2:    f002fb0d    ....    BL       am_hal_gpio_pinconfig ; 0x1aef0
        0x000188d6:    f2401044    @.D.    MOVW     r0,#0x144
        0x000188da:    f2c10000    ....    MOVT     r0,#0x1000
        0x000188de:    6801        .h      LDR      r1,[r0,#0]
        0x000188e0:    2029        )       MOVS     r0,#0x29
        0x000188e2:    f002fb05    ....    BL       am_hal_gpio_pinconfig ; 0x1aef0
        0x000188e6:    f2401048    @.H.    MOVW     r0,#0x148
        0x000188ea:    f2c10000    ....    MOVT     r0,#0x1000
        0x000188ee:    6801        .h      LDR      r1,[r0,#0]
        0x000188f0:    202a        *       MOVS     r0,#0x2a
        0x000188f2:    f002fafd    ....    BL       am_hal_gpio_pinconfig ; 0x1aef0
        0x000188f6:    f240104c    @.L.    MOVW     r0,#0x14c
        0x000188fa:    f2c10000    ....    MOVT     r0,#0x1000
        0x000188fe:    6801        .h      LDR      r1,[r0,#0]
        0x00018900:    202b        +       MOVS     r0,#0x2b
        0x00018902:    f002faf5    ....    BL       am_hal_gpio_pinconfig ; 0x1aef0
        0x00018906:    f2401050    @.P.    MOVW     r0,#0x150
        0x0001890a:    f2c10000    ....    MOVT     r0,#0x1000
        0x0001890e:    6801        .h      LDR      r1,[r0,#0]
        0x00018910:    202c        ,       MOVS     r0,#0x2c
        0x00018912:    f002faed    ....    BL       am_hal_gpio_pinconfig ; 0x1aef0
        0x00018916:    f2401058    @.X.    MOVW     r0,#0x158
        0x0001891a:    f2c10000    ....    MOVT     r0,#0x1000
        0x0001891e:    6801        .h      LDR      r1,[r0,#0]
        0x00018920:    202d        -       MOVS     r0,#0x2d
        0x00018922:    f002fae5    ....    BL       am_hal_gpio_pinconfig ; 0x1aef0
        0x00018926:    f2401054    @.T.    MOVW     r0,#0x154
        0x0001892a:    f2c10000    ....    MOVT     r0,#0x1000
        0x0001892e:    6801        .h      LDR      r1,[r0,#0]
        0x00018930:    202e        .       MOVS     r0,#0x2e
        0x00018932:    e271        q.      B        0x18e18 ; am_bsp_mspi_pins_enable + 1788
        0x00018934:    f2401004    @...    MOVW     r0,#0x104
        0x00018938:    f2c10000    ....    MOVT     r0,#0x1000
        0x0001893c:    6801        .h      LDR      r1,[r0,#0]
        0x0001893e:    2056        V       MOVS     r0,#0x56
        0x00018940:    f002fad6    ....    BL       am_hal_gpio_pinconfig ; 0x1aef0
        0x00018944:    f2401008    @...    MOVW     r0,#0x108
        0x00018948:    f2c10000    ....    MOVT     r0,#0x1000
        0x0001894c:    6801        .h      LDR      r1,[r0,#0]
        0x0001894e:    204a        J       MOVS     r0,#0x4a
        0x00018950:    f002face    ....    BL       am_hal_gpio_pinconfig ; 0x1aef0
        0x00018954:    f240100c    @...    MOVW     r0,#0x10c
        0x00018958:    f2c10000    ....    MOVT     r0,#0x1000
        0x0001895c:    6801        .h      LDR      r1,[r0,#0]
        0x0001895e:    204b        K       MOVS     r0,#0x4b
        0x00018960:    f002fac6    ....    BL       am_hal_gpio_pinconfig ; 0x1aef0
        0x00018964:    f2401010    @...    MOVW     r0,#0x110
        0x00018968:    f2c10000    ....    MOVT     r0,#0x1000
        0x0001896c:    6801        .h      LDR      r1,[r0,#0]
        0x0001896e:    204c        L       MOVS     r0,#0x4c
        0x00018970:    f002fabe    ....    BL       am_hal_gpio_pinconfig ; 0x1aef0
        0x00018974:    f2401014    @...    MOVW     r0,#0x114
        0x00018978:    f2c10000    ....    MOVT     r0,#0x1000
        0x0001897c:    6801        .h      LDR      r1,[r0,#0]
        0x0001897e:    204d        M       MOVS     r0,#0x4d
        0x00018980:    e242        B.      B        0x18e08 ; am_bsp_mspi_pins_enable + 1772
        0x00018982:    f240105c    @.\.    MOVW     r0,#0x15c
        0x00018986:    f2c10000    ....    MOVT     r0,#0x1000
        0x0001898a:    6801        .h      LDR      r1,[r0,#0]
        0x0001898c:    2039        9       MOVS     r0,#0x39
        0x0001898e:    f002faaf    ....    BL       am_hal_gpio_pinconfig ; 0x1aef0
        0x00018992:    f2401060    @.`.    MOVW     r0,#0x160
        0x00018996:    f2c10000    ....    MOVT     r0,#0x1000
        0x0001899a:    6801        .h      LDR      r1,[r0,#0]
        0x0001899c:    2040        @       MOVS     r0,#0x40
        0x0001899e:    f002faa7    ....    BL       am_hal_gpio_pinconfig ; 0x1aef0
        0x000189a2:    f2401064    @.d.    MOVW     r0,#0x164
        0x000189a6:    f2c10000    ....    MOVT     r0,#0x1000
        0x000189aa:    6801        .h      LDR      r1,[r0,#0]
        0x000189ac:    2041        A       MOVS     r0,#0x41
        0x000189ae:    e151        Q.      B        0x18c54 ; am_bsp_mspi_pins_enable + 1336
        0x000189b0:    f240105c    @.\.    MOVW     r0,#0x15c
        0x000189b4:    f2c10000    ....    MOVT     r0,#0x1000
        0x000189b8:    6801        .h      LDR      r1,[r0,#0]
        0x000189ba:    2039        9       MOVS     r0,#0x39
        0x000189bc:    f002fa98    ....    BL       am_hal_gpio_pinconfig ; 0x1aef0
        0x000189c0:    f2401060    @.`.    MOVW     r0,#0x160
        0x000189c4:    f2c10000    ....    MOVT     r0,#0x1000
        0x000189c8:    6801        .h      LDR      r1,[r0,#0]
        0x000189ca:    2040        @       MOVS     r0,#0x40
        0x000189cc:    f002fa90    ....    BL       am_hal_gpio_pinconfig ; 0x1aef0
        0x000189d0:    f2401064    @.d.    MOVW     r0,#0x164
        0x000189d4:    f2c10000    ....    MOVT     r0,#0x1000
        0x000189d8:    6801        .h      LDR      r1,[r0,#0]
        0x000189da:    2041        A       MOVS     r0,#0x41
        0x000189dc:    f002fa88    ....    BL       am_hal_gpio_pinconfig ; 0x1aef0
        0x000189e0:    f2401080    @...    MOVW     r0,#0x180
        0x000189e4:    f2c10000    ....    MOVT     r0,#0x1000
        0x000189e8:    6801        .h      LDR      r1,[r0,#0]
        0x000189ea:    2042        B       MOVS     r0,#0x42
        0x000189ec:    f002fa80    ....    BL       am_hal_gpio_pinconfig ; 0x1aef0
        0x000189f0:    f2401084    @...    MOVW     r0,#0x184
        0x000189f4:    f2c10000    ....    MOVT     r0,#0x1000
        0x000189f8:    6801        .h      LDR      r1,[r0,#0]
        0x000189fa:    2043        C       MOVS     r0,#0x43
        0x000189fc:    f002fa78    ..x.    BL       am_hal_gpio_pinconfig ; 0x1aef0
        0x00018a00:    f2401088    @...    MOVW     r0,#0x188
        0x00018a04:    f2c10000    ....    MOVT     r0,#0x1000
        0x00018a08:    6801        .h      LDR      r1,[r0,#0]
        0x00018a0a:    2044        D       MOVS     r0,#0x44
        0x00018a0c:    f002fa70    ..p.    BL       am_hal_gpio_pinconfig ; 0x1aef0
        0x00018a10:    f240108c    @...    MOVW     r0,#0x18c
        0x00018a14:    f2c10000    ....    MOVT     r0,#0x1000
        0x00018a18:    6801        .h      LDR      r1,[r0,#0]
        0x00018a1a:    2045        E       MOVS     r0,#0x45
        0x00018a1c:    f002fa68    ..h.    BL       am_hal_gpio_pinconfig ; 0x1aef0
        0x00018a20:    f2401090    @...    MOVW     r0,#0x190
        0x00018a24:    f2c10000    ....    MOVT     r0,#0x1000
        0x00018a28:    6801        .h      LDR      r1,[r0,#0]
        0x00018a2a:    2046        F       MOVS     r0,#0x46
        0x00018a2c:    f002fa60    ..`.    BL       am_hal_gpio_pinconfig ; 0x1aef0
        0x00018a30:    f2401094    @...    MOVW     r0,#0x194
        0x00018a34:    f2c10000    ....    MOVT     r0,#0x1000
        0x00018a38:    6801        .h      LDR      r1,[r0,#0]
        0x00018a3a:    2047        G       MOVS     r0,#0x47
        0x00018a3c:    f002fa58    ..X.    BL       am_hal_gpio_pinconfig ; 0x1aef0
        0x00018a40:    f24010a8    @...    MOVW     r0,#0x1a8
        0x00018a44:    f2c10000    ....    MOVT     r0,#0x1000
        0x00018a48:    6801        .h      LDR      r1,[r0,#0]
        0x00018a4a:    2048        H       MOVS     r0,#0x48
        0x00018a4c:    f002fa50    ..P.    BL       am_hal_gpio_pinconfig ; 0x1aef0
        0x00018a50:    f24010a0    @...    MOVW     r0,#0x1a0
        0x00018a54:    f2c10000    ....    MOVT     r0,#0x1000
        0x00018a58:    6801        .h      LDR      r1,[r0,#0]
        0x00018a5a:    2049        I       MOVS     r0,#0x49
        0x00018a5c:    e1dc        ..      B        0x18e18 ; am_bsp_mspi_pins_enable + 1788
        0x00018a5e:    f24000fc    @...    MOVW     r0,#0xfc
        0x00018a62:    f2c10000    ....    MOVT     r0,#0x1000
        0x00018a66:    6801        .h      LDR      r1,[r0,#0]
        0x00018a68:    2022        "       MOVS     r0,#0x22
        0x00018a6a:    f002fa41    ..A.    BL       am_hal_gpio_pinconfig ; 0x1aef0
        0x00018a6e:    f24000f8    @...    MOVW     r0,#0xf8
        0x00018a72:    f2c10000    ....    MOVT     r0,#0x1000
        0x00018a76:    6801        .h      LDR      r1,[r0,#0]
        0x00018a78:    2023        #       MOVS     r0,#0x23
        0x00018a7a:    f002fa39    ..9.    BL       am_hal_gpio_pinconfig ; 0x1aef0
        0x00018a7e:    2022        "       MOVS     r0,#0x22
        0x00018a80:    2101        .!      MOVS     r1,#1
        0x00018a82:    f002fa63    ..c.    BL       am_hal_gpio_state_write ; 0x1af4c
        0x00018a86:    2023        #       MOVS     r0,#0x23
        0x00018a88:    2100        .!      MOVS     r1,#0
        0x00018a8a:    f002fa5f    .._.    BL       am_hal_gpio_state_write ; 0x1af4c
        0x00018a8e:    f240105c    @.\.    MOVW     r0,#0x15c
        0x00018a92:    f2c10000    ....    MOVT     r0,#0x1000
        0x00018a96:    6801        .h      LDR      r1,[r0,#0]
        0x00018a98:    2039        9       MOVS     r0,#0x39
        0x00018a9a:    f002fa29    ..).    BL       am_hal_gpio_pinconfig ; 0x1aef0
        0x00018a9e:    f2401060    @.`.    MOVW     r0,#0x160
        0x00018aa2:    f2c10000    ....    MOVT     r0,#0x1000
        0x00018aa6:    6801        .h      LDR      r1,[r0,#0]
        0x00018aa8:    2040        @       MOVS     r0,#0x40
        0x00018aaa:    f002fa21    ..!.    BL       am_hal_gpio_pinconfig ; 0x1aef0
        0x00018aae:    f2401064    @.d.    MOVW     r0,#0x164
        0x00018ab2:    f2c10000    ....    MOVT     r0,#0x1000
        0x00018ab6:    6801        .h      LDR      r1,[r0,#0]
        0x00018ab8:    2041        A       MOVS     r0,#0x41
        0x00018aba:    f002fa19    ....    BL       am_hal_gpio_pinconfig ; 0x1aef0
        0x00018abe:    f2401080    @...    MOVW     r0,#0x180
        0x00018ac2:    f2c10000    ....    MOVT     r0,#0x1000
        0x00018ac6:    6801        .h      LDR      r1,[r0,#0]
        0x00018ac8:    2042        B       MOVS     r0,#0x42
        0x00018aca:    f002fa11    ....    BL       am_hal_gpio_pinconfig ; 0x1aef0
        0x00018ace:    f2401084    @...    MOVW     r0,#0x184
        0x00018ad2:    f2c10000    ....    MOVT     r0,#0x1000
        0x00018ad6:    6801        .h      LDR      r1,[r0,#0]
        0x00018ad8:    2043        C       MOVS     r0,#0x43
        0x00018ada:    f002fa09    ....    BL       am_hal_gpio_pinconfig ; 0x1aef0
        0x00018ade:    f2401088    @...    MOVW     r0,#0x188
        0x00018ae2:    f2c10000    ....    MOVT     r0,#0x1000
        0x00018ae6:    6801        .h      LDR      r1,[r0,#0]
        0x00018ae8:    2044        D       MOVS     r0,#0x44
        0x00018aea:    f002fa01    ....    BL       am_hal_gpio_pinconfig ; 0x1aef0
        0x00018aee:    f240108c    @...    MOVW     r0,#0x18c
        0x00018af2:    f2c10000    ....    MOVT     r0,#0x1000
        0x00018af6:    6801        .h      LDR      r1,[r0,#0]
        0x00018af8:    2045        E       MOVS     r0,#0x45
        0x00018afa:    f002f9f9    ....    BL       am_hal_gpio_pinconfig ; 0x1aef0
        0x00018afe:    f2401090    @...    MOVW     r0,#0x190
        0x00018b02:    f2c10000    ....    MOVT     r0,#0x1000
        0x00018b06:    6801        .h      LDR      r1,[r0,#0]
        0x00018b08:    2046        F       MOVS     r0,#0x46
        0x00018b0a:    f002f9f1    ....    BL       am_hal_gpio_pinconfig ; 0x1aef0
        0x00018b0e:    f2401094    @...    MOVW     r0,#0x194
        0x00018b12:    f2c10000    ....    MOVT     r0,#0x1000
        0x00018b16:    6801        .h      LDR      r1,[r0,#0]
        0x00018b18:    2047        G       MOVS     r0,#0x47
        0x00018b1a:    f002f9e9    ....    BL       am_hal_gpio_pinconfig ; 0x1aef0
        0x00018b1e:    f2401098    @...    MOVW     r0,#0x198
        0x00018b22:    f2c10000    ....    MOVT     r0,#0x1000
        0x00018b26:    6801        .h      LDR      r1,[r0,#0]
        0x00018b28:    2025        %       MOVS     r0,#0x25
        0x00018b2a:    f002f9e1    ....    BL       am_hal_gpio_pinconfig ; 0x1aef0
        0x00018b2e:    f240109c    @...    MOVW     r0,#0x19c
        0x00018b32:    f2c10000    ....    MOVT     r0,#0x1000
        0x00018b36:    6801        .h      LDR      r1,[r0,#0]
        0x00018b38:    2026        &       MOVS     r0,#0x26
        0x00018b3a:    f002f9d9    ....    BL       am_hal_gpio_pinconfig ; 0x1aef0
        0x00018b3e:    f2401068    @.h.    MOVW     r0,#0x168
        0x00018b42:    f2c10000    ....    MOVT     r0,#0x1000
        0x00018b46:    6801        .h      LDR      r1,[r0,#0]
        0x00018b48:    2027        '       MOVS     r0,#0x27
        0x00018b4a:    f002f9d1    ....    BL       am_hal_gpio_pinconfig ; 0x1aef0
        0x00018b4e:    f240106c    @.l.    MOVW     r0,#0x16c
        0x00018b52:    f2c10000    ....    MOVT     r0,#0x1000
        0x00018b56:    6801        .h      LDR      r1,[r0,#0]
        0x00018b58:    2028        (       MOVS     r0,#0x28
        0x00018b5a:    f002f9c9    ....    BL       am_hal_gpio_pinconfig ; 0x1aef0
        0x00018b5e:    f2401070    @.p.    MOVW     r0,#0x170
        0x00018b62:    f2c10000    ....    MOVT     r0,#0x1000
        0x00018b66:    6801        .h      LDR      r1,[r0,#0]
        0x00018b68:    2029        )       MOVS     r0,#0x29
        0x00018b6a:    f002f9c1    ....    BL       am_hal_gpio_pinconfig ; 0x1aef0
        0x00018b6e:    f2401074    @.t.    MOVW     r0,#0x174
        0x00018b72:    f2c10000    ....    MOVT     r0,#0x1000
        0x00018b76:    6801        .h      LDR      r1,[r0,#0]
        0x00018b78:    202a        *       MOVS     r0,#0x2a
        0x00018b7a:    f002f9b9    ....    BL       am_hal_gpio_pinconfig ; 0x1aef0
        0x00018b7e:    f2401078    @.x.    MOVW     r0,#0x178
        0x00018b82:    f2c10000    ....    MOVT     r0,#0x1000
        0x00018b86:    6801        .h      LDR      r1,[r0,#0]
        0x00018b88:    202b        +       MOVS     r0,#0x2b
        0x00018b8a:    f002f9b1    ....    BL       am_hal_gpio_pinconfig ; 0x1aef0
        0x00018b8e:    f240107c    @.|.    MOVW     r0,#0x17c
        0x00018b92:    f2c10000    ....    MOVT     r0,#0x1000
        0x00018b96:    6801        .h      LDR      r1,[r0,#0]
        0x00018b98:    202c        ,       MOVS     r0,#0x2c
        0x00018b9a:    f002f9a9    ....    BL       am_hal_gpio_pinconfig ; 0x1aef0
        0x00018b9e:    f24010a8    @...    MOVW     r0,#0x1a8
        0x00018ba2:    f2c10000    ....    MOVT     r0,#0x1000
        0x00018ba6:    6801        .h      LDR      r1,[r0,#0]
        0x00018ba8:    2048        H       MOVS     r0,#0x48
        0x00018baa:    f002f9a1    ....    BL       am_hal_gpio_pinconfig ; 0x1aef0
        0x00018bae:    f24010a0    @...    MOVW     r0,#0x1a0
        0x00018bb2:    f2c10000    ....    MOVT     r0,#0x1000
        0x00018bb6:    6801        .h      LDR      r1,[r0,#0]
        0x00018bb8:    2049        I       MOVS     r0,#0x49
        0x00018bba:    f002f999    ....    BL       am_hal_gpio_pinconfig ; 0x1aef0
        0x00018bbe:    f24010a4    @...    MOVW     r0,#0x1a4
        0x00018bc2:    f2c10000    ....    MOVT     r0,#0x1000
        0x00018bc6:    e0b1        ..      B        0x18d2c ; am_bsp_mspi_pins_enable + 1552
        0x00018bc8:    f240105c    @.\.    MOVW     r0,#0x15c
        0x00018bcc:    f2c10000    ....    MOVT     r0,#0x1000
        0x00018bd0:    6801        .h      LDR      r1,[r0,#0]
        0x00018bd2:    2039        9       MOVS     r0,#0x39
        0x00018bd4:    f002f98c    ....    BL       am_hal_gpio_pinconfig ; 0x1aef0
        0x00018bd8:    f2401060    @.`.    MOVW     r0,#0x160
        0x00018bdc:    f2c10000    ....    MOVT     r0,#0x1000
        0x00018be0:    6801        .h      LDR      r1,[r0,#0]
        0x00018be2:    2040        @       MOVS     r0,#0x40
        0x00018be4:    f002f984    ....    BL       am_hal_gpio_pinconfig ; 0x1aef0
        0x00018be8:    f2401064    @.d.    MOVW     r0,#0x164
        0x00018bec:    f2c10000    ....    MOVT     r0,#0x1000
        0x00018bf0:    6801        .h      LDR      r1,[r0,#0]
        0x00018bf2:    2041        A       MOVS     r0,#0x41
        0x00018bf4:    f002f97c    ..|.    BL       am_hal_gpio_pinconfig ; 0x1aef0
        0x00018bf8:    f2401080    @...    MOVW     r0,#0x180
        0x00018bfc:    f2c10000    ....    MOVT     r0,#0x1000
        0x00018c00:    6801        .h      LDR      r1,[r0,#0]
        0x00018c02:    2042        B       MOVS     r0,#0x42
        0x00018c04:    f002f974    ..t.    BL       am_hal_gpio_pinconfig ; 0x1aef0
        0x00018c08:    f2401084    @...    MOVW     r0,#0x184
        0x00018c0c:    f2c10000    ....    MOVT     r0,#0x1000
        0x00018c10:    6801        .h      LDR      r1,[r0,#0]
        0x00018c12:    2043        C       MOVS     r0,#0x43
        0x00018c14:    f002f96c    ..l.    BL       am_hal_gpio_pinconfig ; 0x1aef0
        0x00018c18:    f2401088    @...    MOVW     r0,#0x188
        0x00018c1c:    f2c10000    ....    MOVT     r0,#0x1000
        0x00018c20:    6801        .h      LDR      r1,[r0,#0]
        0x00018c22:    2044        D       MOVS     r0,#0x44
        0x00018c24:    f002f964    ..d.    BL       am_hal_gpio_pinconfig ; 0x1aef0
        0x00018c28:    f240108c    @...    MOVW     r0,#0x18c
        0x00018c2c:    f2c10000    ....    MOVT     r0,#0x1000
        0x00018c30:    6801        .h      LDR      r1,[r0,#0]
        0x00018c32:    2045        E       MOVS     r0,#0x45
        0x00018c34:    f002f95c    ..\.    BL       am_hal_gpio_pinconfig ; 0x1aef0
        0x00018c38:    f2401090    @...    MOVW     r0,#0x190
        0x00018c3c:    f2c10000    ....    MOVT     r0,#0x1000
        0x00018c40:    6801        .h      LDR      r1,[r0,#0]
        0x00018c42:    2046        F       MOVS     r0,#0x46
        0x00018c44:    f002f954    ..T.    BL       am_hal_gpio_pinconfig ; 0x1aef0
        0x00018c48:    f2401094    @...    MOVW     r0,#0x194
        0x00018c4c:    f2c10000    ....    MOVT     r0,#0x1000
        0x00018c50:    6801        .h      LDR      r1,[r0,#0]
        0x00018c52:    2047        G       MOVS     r0,#0x47
        0x00018c54:    f002f94c    ..L.    BL       am_hal_gpio_pinconfig ; 0x1aef0
        0x00018c58:    f24010a8    @...    MOVW     r0,#0x1a8
        0x00018c5c:    f2c10000    ....    MOVT     r0,#0x1000
        0x00018c60:    6801        .h      LDR      r1,[r0,#0]
        0x00018c62:    2048        H       MOVS     r0,#0x48
        0x00018c64:    e0d8        ..      B        0x18e18 ; am_bsp_mspi_pins_enable + 1788
        0x00018c66:    f2401030    @.0.    MOVW     r0,#0x130
        0x00018c6a:    f2c10000    ....    MOVT     r0,#0x1000
        0x00018c6e:    6801        .h      LDR      r1,[r0,#0]
        0x00018c70:    2038        8       MOVS     r0,#0x38
        0x00018c72:    f002f93d    ..=.    BL       am_hal_gpio_pinconfig ; 0x1aef0
        0x00018c76:    f2401034    @.4.    MOVW     r0,#0x134
        0x00018c7a:    f2c10000    ....    MOVT     r0,#0x1000
        0x00018c7e:    6801        .h      LDR      r1,[r0,#0]
        0x00018c80:    2025        %       MOVS     r0,#0x25
        0x00018c82:    f002f935    ..5.    BL       am_hal_gpio_pinconfig ; 0x1aef0
        0x00018c86:    f2401038    @.8.    MOVW     r0,#0x138
        0x00018c8a:    f2c10000    ....    MOVT     r0,#0x1000
        0x00018c8e:    6801        .h      LDR      r1,[r0,#0]
        0x00018c90:    2026        &       MOVS     r0,#0x26
        0x00018c92:    e045        E.      B        0x18d20 ; am_bsp_mspi_pins_enable + 1540
        0x00018c94:    f2401030    @.0.    MOVW     r0,#0x130
        0x00018c98:    f2c10000    ....    MOVT     r0,#0x1000
        0x00018c9c:    6801        .h      LDR      r1,[r0,#0]
        0x00018c9e:    2038        8       MOVS     r0,#0x38
        0x00018ca0:    f002f926    ..&.    BL       am_hal_gpio_pinconfig ; 0x1aef0
        0x00018ca4:    f2401034    @.4.    MOVW     r0,#0x134
        0x00018ca8:    f2c10000    ....    MOVT     r0,#0x1000
        0x00018cac:    6801        .h      LDR      r1,[r0,#0]
        0x00018cae:    2025        %       MOVS     r0,#0x25
        0x00018cb0:    f002f91e    ....    BL       am_hal_gpio_pinconfig ; 0x1aef0
        0x00018cb4:    f2401038    @.8.    MOVW     r0,#0x138
        0x00018cb8:    f2c10000    ....    MOVT     r0,#0x1000
        0x00018cbc:    6801        .h      LDR      r1,[r0,#0]
        0x00018cbe:    2026        &       MOVS     r0,#0x26
        0x00018cc0:    f002f916    ....    BL       am_hal_gpio_pinconfig ; 0x1aef0
        0x00018cc4:    f240103c    @.<.    MOVW     r0,#0x13c
        0x00018cc8:    f2c10000    ....    MOVT     r0,#0x1000
        0x00018ccc:    6801        .h      LDR      r1,[r0,#0]
        0x00018cce:    2027        '       MOVS     r0,#0x27
        0x00018cd0:    f002f90e    ....    BL       am_hal_gpio_pinconfig ; 0x1aef0
        0x00018cd4:    f2401040    @.@.    MOVW     r0,#0x140
        0x00018cd8:    f2c10000    ....    MOVT     r0,#0x1000
        0x00018cdc:    6801        .h      LDR      r1,[r0,#0]
        0x00018cde:    2028        (       MOVS     r0,#0x28
        0x00018ce0:    f002f906    ....    BL       am_hal_gpio_pinconfig ; 0x1aef0
        0x00018ce4:    f2401044    @.D.    MOVW     r0,#0x144
        0x00018ce8:    f2c10000    ....    MOVT     r0,#0x1000
        0x00018cec:    6801        .h      LDR      r1,[r0,#0]
        0x00018cee:    2029        )       MOVS     r0,#0x29
        0x00018cf0:    f002f8fe    ....    BL       am_hal_gpio_pinconfig ; 0x1aef0
        0x00018cf4:    f2401048    @.H.    MOVW     r0,#0x148
        0x00018cf8:    f2c10000    ....    MOVT     r0,#0x1000
        0x00018cfc:    6801        .h      LDR      r1,[r0,#0]
        0x00018cfe:    202a        *       MOVS     r0,#0x2a
        0x00018d00:    f002f8f6    ....    BL       am_hal_gpio_pinconfig ; 0x1aef0
        0x00018d04:    f240104c    @.L.    MOVW     r0,#0x14c
        0x00018d08:    f2c10000    ....    MOVT     r0,#0x1000
        0x00018d0c:    6801        .h      LDR      r1,[r0,#0]
        0x00018d0e:    202b        +       MOVS     r0,#0x2b
        0x00018d10:    f002f8ee    ....    BL       am_hal_gpio_pinconfig ; 0x1aef0
        0x00018d14:    f2401050    @.P.    MOVW     r0,#0x150
        0x00018d18:    f2c10000    ....    MOVT     r0,#0x1000
        0x00018d1c:    6801        .h      LDR      r1,[r0,#0]
        0x00018d1e:    202c        ,       MOVS     r0,#0x2c
        0x00018d20:    f002f8e6    ....    BL       am_hal_gpio_pinconfig ; 0x1aef0
        0x00018d24:    f2401058    @.X.    MOVW     r0,#0x158
        0x00018d28:    f2c10000    ....    MOVT     r0,#0x1000
        0x00018d2c:    6801        .h      LDR      r1,[r0,#0]
        0x00018d2e:    202d        -       MOVS     r0,#0x2d
        0x00018d30:    e072        r.      B        0x18e18 ; am_bsp_mspi_pins_enable + 1788
        0x00018d32:    f2401000    @...    MOVW     r0,#0x100
        0x00018d36:    f2c10000    ....    MOVT     r0,#0x1000
        0x00018d3a:    6801        .h      LDR      r1,[r0,#0]
        0x00018d3c:    2000        .       MOVS     r0,#0
        0x00018d3e:    e005        ..      B        0x18d4c ; am_bsp_mspi_pins_enable + 1584
        0x00018d40:    f2401004    @...    MOVW     r0,#0x104
        0x00018d44:    f2c10000    ....    MOVT     r0,#0x1000
        0x00018d48:    6801        .h      LDR      r1,[r0,#0]
        0x00018d4a:    2056        V       MOVS     r0,#0x56
        0x00018d4c:    f002f8d0    ....    BL       am_hal_gpio_pinconfig ; 0x1aef0
        0x00018d50:    f2401008    @...    MOVW     r0,#0x108
        0x00018d54:    f2c10000    ....    MOVT     r0,#0x1000
        0x00018d58:    6801        .h      LDR      r1,[r0,#0]
        0x00018d5a:    204a        J       MOVS     r0,#0x4a
        0x00018d5c:    f002f8c8    ....    BL       am_hal_gpio_pinconfig ; 0x1aef0
        0x00018d60:    f240100c    @...    MOVW     r0,#0x10c
        0x00018d64:    f2c10000    ....    MOVT     r0,#0x1000
        0x00018d68:    6801        .h      LDR      r1,[r0,#0]
        0x00018d6a:    204b        K       MOVS     r0,#0x4b
        0x00018d6c:    e04c        L.      B        0x18e08 ; am_bsp_mspi_pins_enable + 1772
        0x00018d6e:    f2401000    @...    MOVW     r0,#0x100
        0x00018d72:    f2c10000    ....    MOVT     r0,#0x1000
        0x00018d76:    6801        .h      LDR      r1,[r0,#0]
        0x00018d78:    2000        .       MOVS     r0,#0
        0x00018d7a:    e005        ..      B        0x18d88 ; am_bsp_mspi_pins_enable + 1644
        0x00018d7c:    f2401004    @...    MOVW     r0,#0x104
        0x00018d80:    f2c10000    ....    MOVT     r0,#0x1000
        0x00018d84:    6801        .h      LDR      r1,[r0,#0]
        0x00018d86:    2056        V       MOVS     r0,#0x56
        0x00018d88:    f002f8b2    ....    BL       am_hal_gpio_pinconfig ; 0x1aef0
        0x00018d8c:    f2401008    @...    MOVW     r0,#0x108
        0x00018d90:    f2c10000    ....    MOVT     r0,#0x1000
        0x00018d94:    6801        .h      LDR      r1,[r0,#0]
        0x00018d96:    204a        J       MOVS     r0,#0x4a
        0x00018d98:    f002f8aa    ....    BL       am_hal_gpio_pinconfig ; 0x1aef0
        0x00018d9c:    f240100c    @...    MOVW     r0,#0x10c
        0x00018da0:    f2c10000    ....    MOVT     r0,#0x1000
        0x00018da4:    6801        .h      LDR      r1,[r0,#0]
        0x00018da6:    204b        K       MOVS     r0,#0x4b
        0x00018da8:    f002f8a2    ....    BL       am_hal_gpio_pinconfig ; 0x1aef0
        0x00018dac:    f2401010    @...    MOVW     r0,#0x110
        0x00018db0:    f2c10000    ....    MOVT     r0,#0x1000
        0x00018db4:    6801        .h      LDR      r1,[r0,#0]
        0x00018db6:    204c        L       MOVS     r0,#0x4c
        0x00018db8:    f002f89a    ....    BL       am_hal_gpio_pinconfig ; 0x1aef0
        0x00018dbc:    f2401014    @...    MOVW     r0,#0x114
        0x00018dc0:    f2c10000    ....    MOVT     r0,#0x1000
        0x00018dc4:    6801        .h      LDR      r1,[r0,#0]
        0x00018dc6:    204d        M       MOVS     r0,#0x4d
        0x00018dc8:    f002f892    ....    BL       am_hal_gpio_pinconfig ; 0x1aef0
        0x00018dcc:    f2401018    @...    MOVW     r0,#0x118
        0x00018dd0:    f2c10000    ....    MOVT     r0,#0x1000
        0x00018dd4:    6801        .h      LDR      r1,[r0,#0]
        0x00018dd6:    204e        N       MOVS     r0,#0x4e
        0x00018dd8:    f002f88a    ....    BL       am_hal_gpio_pinconfig ; 0x1aef0
        0x00018ddc:    f240101c    @...    MOVW     r0,#0x11c
        0x00018de0:    f2c10000    ....    MOVT     r0,#0x1000
        0x00018de4:    6801        .h      LDR      r1,[r0,#0]
        0x00018de6:    204f        O       MOVS     r0,#0x4f
        0x00018de8:    f002f882    ....    BL       am_hal_gpio_pinconfig ; 0x1aef0
        0x00018dec:    f2401020    @. .    MOVW     r0,#0x120
        0x00018df0:    f2c10000    ....    MOVT     r0,#0x1000
        0x00018df4:    6801        .h      LDR      r1,[r0,#0]
        0x00018df6:    2050        P       MOVS     r0,#0x50
        0x00018df8:    f002f87a    ..z.    BL       am_hal_gpio_pinconfig ; 0x1aef0
        0x00018dfc:    f2401024    @.$.    MOVW     r0,#0x124
        0x00018e00:    f2c10000    ....    MOVT     r0,#0x1000
        0x00018e04:    6801        .h      LDR      r1,[r0,#0]
        0x00018e06:    2051        Q       MOVS     r0,#0x51
        0x00018e08:    f002f872    ..r.    BL       am_hal_gpio_pinconfig ; 0x1aef0
        0x00018e0c:    f240102c    @.,.    MOVW     r0,#0x12c
        0x00018e10:    f2c10000    ....    MOVT     r0,#0x1000
        0x00018e14:    6801        .h      LDR      r1,[r0,#0]
        0x00018e16:    2052        R       MOVS     r0,#0x52
        0x00018e18:    e8bd4010    ...@    POP      {r4,lr}
        0x00018e1c:    f002b868    ..h.    B.W      am_hal_gpio_pinconfig ; 0x1aef0
        0x00018e20:    f2401000    @...    MOVW     r0,#0x100
        0x00018e24:    f2c10000    ....    MOVT     r0,#0x1000
        0x00018e28:    6801        .h      LDR      r1,[r0,#0]
        0x00018e2a:    2000        .       MOVS     r0,#0
        0x00018e2c:    e005        ..      B        0x18e3a ; am_bsp_mspi_pins_enable + 1822
        0x00018e2e:    f2401004    @...    MOVW     r0,#0x104
        0x00018e32:    f2c10000    ....    MOVT     r0,#0x1000
        0x00018e36:    6801        .h      LDR      r1,[r0,#0]
        0x00018e38:    2056        V       MOVS     r0,#0x56
        0x00018e3a:    f002f859    ..Y.    BL       am_hal_gpio_pinconfig ; 0x1aef0
        0x00018e3e:    f2401008    @...    MOVW     r0,#0x108
        0x00018e42:    f2c10000    ....    MOVT     r0,#0x1000
        0x00018e46:    6801        .h      LDR      r1,[r0,#0]
        0x00018e48:    204a        J       MOVS     r0,#0x4a
        0x00018e4a:    f002f851    ..Q.    BL       am_hal_gpio_pinconfig ; 0x1aef0
        0x00018e4e:    f240100c    @...    MOVW     r0,#0x10c
        0x00018e52:    f2c10000    ....    MOVT     r0,#0x1000
        0x00018e56:    6801        .h      LDR      r1,[r0,#0]
        0x00018e58:    204b        K       MOVS     r0,#0x4b
        0x00018e5a:    f002f849    ..I.    BL       am_hal_gpio_pinconfig ; 0x1aef0
        0x00018e5e:    f2401010    @...    MOVW     r0,#0x110
        0x00018e62:    f2c10000    ....    MOVT     r0,#0x1000
        0x00018e66:    6801        .h      LDR      r1,[r0,#0]
        0x00018e68:    204c        L       MOVS     r0,#0x4c
        0x00018e6a:    f002f841    ..A.    BL       am_hal_gpio_pinconfig ; 0x1aef0
        0x00018e6e:    f2401014    @...    MOVW     r0,#0x114
        0x00018e72:    f2c10000    ....    MOVT     r0,#0x1000
        0x00018e76:    6801        .h      LDR      r1,[r0,#0]
        0x00018e78:    204d        M       MOVS     r0,#0x4d
        0x00018e7a:    f002f839    ..9.    BL       am_hal_gpio_pinconfig ; 0x1aef0
        0x00018e7e:    f2401018    @...    MOVW     r0,#0x118
        0x00018e82:    f2c10000    ....    MOVT     r0,#0x1000
        0x00018e86:    6801        .h      LDR      r1,[r0,#0]
        0x00018e88:    204e        N       MOVS     r0,#0x4e
        0x00018e8a:    f002f831    ..1.    BL       am_hal_gpio_pinconfig ; 0x1aef0
        0x00018e8e:    f240101c    @...    MOVW     r0,#0x11c
        0x00018e92:    f2c10000    ....    MOVT     r0,#0x1000
        0x00018e96:    6801        .h      LDR      r1,[r0,#0]
        0x00018e98:    204f        O       MOVS     r0,#0x4f
        0x00018e9a:    f002f829    ..).    BL       am_hal_gpio_pinconfig ; 0x1aef0
        0x00018e9e:    f2401020    @. .    MOVW     r0,#0x120
        0x00018ea2:    f2c10000    ....    MOVT     r0,#0x1000
        0x00018ea6:    6801        .h      LDR      r1,[r0,#0]
        0x00018ea8:    2050        P       MOVS     r0,#0x50
        0x00018eaa:    f002f821    ..!.    BL       am_hal_gpio_pinconfig ; 0x1aef0
        0x00018eae:    f2401024    @.$.    MOVW     r0,#0x124
        0x00018eb2:    f2c10000    ....    MOVT     r0,#0x1000
        0x00018eb6:    6801        .h      LDR      r1,[r0,#0]
        0x00018eb8:    2051        Q       MOVS     r0,#0x51
        0x00018eba:    f002f819    ....    BL       am_hal_gpio_pinconfig ; 0x1aef0
        0x00018ebe:    f240102c    @.,.    MOVW     r0,#0x12c
        0x00018ec2:    f2c10000    ....    MOVT     r0,#0x1000
        0x00018ec6:    6801        .h      LDR      r1,[r0,#0]
        0x00018ec8:    2052        R       MOVS     r0,#0x52
        0x00018eca:    f002f811    ....    BL       am_hal_gpio_pinconfig ; 0x1aef0
        0x00018ece:    f2401028    @.(.    MOVW     r0,#0x128
        0x00018ed2:    f2c10000    ....    MOVT     r0,#0x1000
        0x00018ed6:    6801        .h      LDR      r1,[r0,#0]
        0x00018ed8:    2053        S       MOVS     r0,#0x53
        0x00018eda:    e79d        ..      B        0x18e18 ; am_bsp_mspi_pins_enable + 1788
    am_device_deinit_flash
        0x00018edc:    b580        ..      PUSH     {r7,lr}
        0x00018ede:    b084        ..      SUB      sp,sp,#0x10
        0x00018ee0:    9002        ..      STR      r0,[sp,#8]
        0x00018ee2:    9802        ..      LDR      r0,[sp,#8]
        0x00018ee4:    9000        ..      STR      r0,[sp,#0]
        0x00018ee6:    9802        ..      LDR      r0,[sp,#8]
        0x00018ee8:    9900        ..      LDR      r1,[sp,#0]
        0x00018eea:    3108        .1      ADDS     r1,r1,#8
        0x00018eec:    f001f9d4    ....    BL       am_devices_mspi_is25wx064_reset ; 0x1a298
        0x00018ef0:    9001        ..      STR      r0,[sp,#4]
        0x00018ef2:    9801        ..      LDR      r0,[sp,#4]
        0x00018ef4:    b118        ..      CBZ      r0,0x18efe ; am_device_deinit_flash + 34
        0x00018ef6:    e7ff        ..      B        0x18ef8 ; am_device_deinit_flash + 28
        0x00018ef8:    2001        .       MOVS     r0,#1
        0x00018efa:    9003        ..      STR      r0,[sp,#0xc]
        0x00018efc:    e002        ..      B        0x18f04 ; am_device_deinit_flash + 40
        0x00018efe:    2000        .       MOVS     r0,#0
        0x00018f00:    9003        ..      STR      r0,[sp,#0xc]
        0x00018f02:    e7ff        ..      B        0x18f04 ; am_device_deinit_flash + 40
        0x00018f04:    9803        ..      LDR      r0,[sp,#0xc]
        0x00018f06:    b004        ..      ADD      sp,sp,#0x10
        0x00018f08:    bd80        ..      POP      {r7,pc}
        0x00018f0a:    0000        ..      MOVS     r0,r0
    am_devices_mspi_device_reconfigure
        0x00018f0c:    b580        ..      PUSH     {r7,lr}
        0x00018f0e:    b086        ..      SUB      sp,sp,#0x18
        0x00018f10:    9004        ..      STR      r0,[sp,#0x10]
        0x00018f12:    9103        ..      STR      r1,[sp,#0xc]
        0x00018f14:    9804        ..      LDR      r0,[sp,#0x10]
        0x00018f16:    9002        ..      STR      r0,[sp,#8]
        0x00018f18:    9802        ..      LDR      r0,[sp,#8]
        0x00018f1a:    6840        @h      LDR      r0,[r0,#4]
        0x00018f1c:    f003f92c    ..,.    BL       am_hal_mspi_disable ; 0x1c178
        0x00018f20:    9001        ..      STR      r0,[sp,#4]
        0x00018f22:    9801        ..      LDR      r0,[sp,#4]
        0x00018f24:    b148        H.      CBZ      r0,0x18f3a ; am_devices_mspi_device_reconfigure + 46
        0x00018f26:    e7ff        ..      B        0x18f28 ; am_devices_mspi_device_reconfigure + 28
        0x00018f28:    f6406015    @..`    MOV      r0,#0xe15
        0x00018f2c:    f2c00002    ....    MOVT     r0,#2
        0x00018f30:    f004fb92    ....    BL       am_util_stdio_printf ; 0x1d658
        0x00018f34:    2001        .       MOVS     r0,#1
        0x00018f36:    9005        ..      STR      r0,[sp,#0x14]
        0x00018f38:    e02b        +.      B        0x18f92 ; am_devices_mspi_device_reconfigure + 134
        0x00018f3a:    9802        ..      LDR      r0,[sp,#8]
        0x00018f3c:    6840        @h      LDR      r0,[r0,#4]
        0x00018f3e:    9903        ..      LDR      r1,[sp,#0xc]
        0x00018f40:    f003f83c    ..<.    BL       am_hal_mspi_device_configure ; 0x1bfbc
        0x00018f44:    9001        ..      STR      r0,[sp,#4]
        0x00018f46:    9801        ..      LDR      r0,[sp,#4]
        0x00018f48:    b148        H.      CBZ      r0,0x18f5e ; am_devices_mspi_device_reconfigure + 82
        0x00018f4a:    e7ff        ..      B        0x18f4c ; am_devices_mspi_device_reconfigure + 64
        0x00018f4c:    f6406035    @.5`    MOV      r0,#0xe35
        0x00018f50:    f2c00002    ....    MOVT     r0,#2
        0x00018f54:    f004fb80    ....    BL       am_util_stdio_printf ; 0x1d658
        0x00018f58:    2001        .       MOVS     r0,#1
        0x00018f5a:    9005        ..      STR      r0,[sp,#0x14]
        0x00018f5c:    e019        ..      B        0x18f92 ; am_devices_mspi_device_reconfigure + 134
        0x00018f5e:    9802        ..      LDR      r0,[sp,#8]
        0x00018f60:    6840        @h      LDR      r0,[r0,#4]
        0x00018f62:    f003f951    ..Q.    BL       am_hal_mspi_enable ; 0x1c208
        0x00018f66:    9001        ..      STR      r0,[sp,#4]
        0x00018f68:    9801        ..      LDR      r0,[sp,#4]
        0x00018f6a:    b148        H.      CBZ      r0,0x18f80 ; am_devices_mspi_device_reconfigure + 116
        0x00018f6c:    e7ff        ..      B        0x18f6e ; am_devices_mspi_device_reconfigure + 98
        0x00018f6e:    f6406035    @.5`    MOV      r0,#0xe35
        0x00018f72:    f2c00002    ....    MOVT     r0,#2
        0x00018f76:    f004fb6f    ..o.    BL       am_util_stdio_printf ; 0x1d658
        0x00018f7a:    2001        .       MOVS     r0,#1
        0x00018f7c:    9005        ..      STR      r0,[sp,#0x14]
        0x00018f7e:    e008        ..      B        0x18f92 ; am_devices_mspi_device_reconfigure + 134
        0x00018f80:    9802        ..      LDR      r0,[sp,#8]
        0x00018f82:    6800        .h      LDR      r0,[r0,#0]
        0x00018f84:    9903        ..      LDR      r1,[sp,#0xc]
        0x00018f86:    7a09        .z      LDRB     r1,[r1,#8]
        0x00018f88:    f7fffbc8    ....    BL       am_bsp_mspi_pins_enable ; 0x1871c
        0x00018f8c:    2000        .       MOVS     r0,#0
        0x00018f8e:    9005        ..      STR      r0,[sp,#0x14]
        0x00018f90:    e7ff        ..      B        0x18f92 ; am_devices_mspi_device_reconfigure + 134
        0x00018f92:    9805        ..      LDR      r0,[sp,#0x14]
        0x00018f94:    b006        ..      ADD      sp,sp,#0x18
        0x00018f96:    bd80        ..      POP      {r7,pc}
    am_devices_mspi_is25wx064_apply_ddr_timing
        0x00018f98:    b580        ..      PUSH     {r7,lr}
        0x00018f9a:    b086        ..      SUB      sp,sp,#0x18
        0x00018f9c:    9005        ..      STR      r0,[sp,#0x14]
        0x00018f9e:    9104        ..      STR      r1,[sp,#0x10]
        0x00018fa0:    9805        ..      LDR      r0,[sp,#0x14]
        0x00018fa2:    9003        ..      STR      r0,[sp,#0xc]
        0x00018fa4:    f240006e    @.n.    MOVW     r0,#0x6e
        0x00018fa8:    f2c00002    ....    MOVT     r0,#2
        0x00018fac:    8881        ..      LDRH     r1,[r0,#4]
        0x00018fae:    f8ad1008    ....    STRH     r1,[sp,#8]
        0x00018fb2:    6800        .h      LDR      r0,[r0,#0]
        0x00018fb4:    9001        ..      STR      r0,[sp,#4]
        0x00018fb6:    9803        ..      LDR      r0,[sp,#0xc]
        0x00018fb8:    7cc0        .|      LDRB     r0,[r0,#0x13]
        0x00018fba:    2801        .(      CMP      r0,#1
        0x00018fbc:    d112        ..      BNE      0x18fe4 ; am_devices_mspi_is25wx064_apply_ddr_timing + 76
        0x00018fbe:    e7ff        ..      B        0x18fc0 ; am_devices_mspi_is25wx064_apply_ddr_timing + 40
        0x00018fc0:    2001        .       MOVS     r0,#1
        0x00018fc2:    f88d0004    ....    STRB     r0,[sp,#4]
        0x00018fc6:    f88d0005    ....    STRB     r0,[sp,#5]
        0x00018fca:    2000        .       MOVS     r0,#0
        0x00018fcc:    f88d0006    ....    STRB     r0,[sp,#6]
        0x00018fd0:    201f        .       MOVS     r0,#0x1f
        0x00018fd2:    f88d0009    ....    STRB     r0,[sp,#9]
        0x00018fd6:    2005        .       MOVS     r0,#5
        0x00018fd8:    f88d0007    ....    STRB     r0,[sp,#7]
        0x00018fdc:    200e        .       MOVS     r0,#0xe
        0x00018fde:    f88d0008    ....    STRB     r0,[sp,#8]
        0x00018fe2:    e027        '.      B        0x19034 ; am_devices_mspi_is25wx064_apply_ddr_timing + 156
        0x00018fe4:    9803        ..      LDR      r0,[sp,#0xc]
        0x00018fe6:    7cc0        .|      LDRB     r0,[r0,#0x13]
        0x00018fe8:    2802        .(      CMP      r0,#2
        0x00018fea:    d111        ..      BNE      0x19010 ; am_devices_mspi_is25wx064_apply_ddr_timing + 120
        0x00018fec:    e7ff        ..      B        0x18fee ; am_devices_mspi_is25wx064_apply_ddr_timing + 86
        0x00018fee:    2001        .       MOVS     r0,#1
        0x00018ff0:    f88d0004    ....    STRB     r0,[sp,#4]
        0x00018ff4:    2100        .!      MOVS     r1,#0
        0x00018ff6:    f88d1005    ....    STRB     r1,[sp,#5]
        0x00018ffa:    f88d0006    ....    STRB     r0,[sp,#6]
        0x00018ffe:    211f        .!      MOVS     r1,#0x1f
        0x00019000:    f88d1009    ....    STRB     r1,[sp,#9]
        0x00019004:    f88d0007    ....    STRB     r0,[sp,#7]
        0x00019008:    200e        .       MOVS     r0,#0xe
        0x0001900a:    f88d0008    ....    STRB     r0,[sp,#8]
        0x0001900e:    e010        ..      B        0x19032 ; am_devices_mspi_is25wx064_apply_ddr_timing + 154
        0x00019010:    2001        .       MOVS     r0,#1
        0x00019012:    f88d0004    ....    STRB     r0,[sp,#4]
        0x00019016:    2100        .!      MOVS     r1,#0
        0x00019018:    f88d1005    ....    STRB     r1,[sp,#5]
        0x0001901c:    f88d0006    ....    STRB     r0,[sp,#6]
        0x00019020:    211f        .!      MOVS     r1,#0x1f
        0x00019022:    f88d1009    ....    STRB     r1,[sp,#9]
        0x00019026:    f88d0007    ....    STRB     r0,[sp,#7]
        0x0001902a:    200e        .       MOVS     r0,#0xe
        0x0001902c:    f88d0008    ....    STRB     r0,[sp,#8]
        0x00019030:    e7ff        ..      B        0x19032 ; am_devices_mspi_is25wx064_apply_ddr_timing + 154
        0x00019032:    e7ff        ..      B        0x19034 ; am_devices_mspi_is25wx064_apply_ddr_timing + 156
        0x00019034:    9804        ..      LDR      r0,[sp,#0x10]
        0x00019036:    7800        .x      LDRB     r0,[r0,#0]
        0x00019038:    f0000001    ....    AND      r0,r0,#1
        0x0001903c:    f64811f4    H...    MOV      r1,#0x89f4
        0x00019040:    f2c10100    ....    MOVT     r1,#0x1000
        0x00019044:    7008        .p      STRB     r0,[r1,#0]
        0x00019046:    9804        ..      LDR      r0,[sp,#0x10]
        0x00019048:    7840        @x      LDRB     r0,[r0,#1]
        0x0001904a:    f0000001    ....    AND      r0,r0,#1
        0x0001904e:    7048        Hp      STRB     r0,[r1,#1]
        0x00019050:    9804        ..      LDR      r0,[sp,#0x10]
        0x00019052:    7880        .x      LDRB     r0,[r0,#2]
        0x00019054:    f0000001    ....    AND      r0,r0,#1
        0x00019058:    7088        .p      STRB     r0,[r1,#2]
        0x0001905a:    9804        ..      LDR      r0,[sp,#0x10]
        0x0001905c:    78c0        .x      LDRB     r0,[r0,#3]
        0x0001905e:    70c8        .p      STRB     r0,[r1,#3]
        0x00019060:    9804        ..      LDR      r0,[sp,#0x10]
        0x00019062:    7900        .y      LDRB     r0,[r0,#4]
        0x00019064:    7108        .q      STRB     r0,[r1,#4]
        0x00019066:    9804        ..      LDR      r0,[sp,#0x10]
        0x00019068:    7940        @y      LDRB     r0,[r0,#5]
        0x0001906a:    7148        Hq      STRB     r0,[r1,#5]
        0x0001906c:    f244713e    D.>q    MOV      r1,#0x473e
        0x00019070:    f2c10100    ....    MOVT     r1,#0x1000
        0x00019074:    2001        .       MOVS     r0,#1
        0x00019076:    7008        .p      STRB     r0,[r1,#0]
        0x00019078:    9804        ..      LDR      r0,[sp,#0x10]
        0x0001907a:    7800        .x      LDRB     r0,[r0,#0]
        0x0001907c:    f0000001    ....    AND      r0,r0,#1
        0x00019080:    f88d0004    ....    STRB     r0,[sp,#4]
        0x00019084:    9804        ..      LDR      r0,[sp,#0x10]
        0x00019086:    7840        @x      LDRB     r0,[r0,#1]
        0x00019088:    f0000001    ....    AND      r0,r0,#1
        0x0001908c:    f88d0005    ....    STRB     r0,[sp,#5]
        0x00019090:    9804        ..      LDR      r0,[sp,#0x10]
        0x00019092:    7880        .x      LDRB     r0,[r0,#2]
        0x00019094:    f0000001    ....    AND      r0,r0,#1
        0x00019098:    f88d0006    ....    STRB     r0,[sp,#6]
        0x0001909c:    9804        ..      LDR      r0,[sp,#0x10]
        0x0001909e:    78c0        .x      LDRB     r0,[r0,#3]
        0x000190a0:    f88d0007    ....    STRB     r0,[sp,#7]
        0x000190a4:    9804        ..      LDR      r0,[sp,#0x10]
        0x000190a6:    7900        .y      LDRB     r0,[r0,#4]
        0x000190a8:    f88d0008    ....    STRB     r0,[sp,#8]
        0x000190ac:    9804        ..      LDR      r0,[sp,#0x10]
        0x000190ae:    7940        @y      LDRB     r0,[r0,#5]
        0x000190b0:    f88d0009    ....    STRB     r0,[sp,#9]
        0x000190b4:    9803        ..      LDR      r0,[sp,#0xc]
        0x000190b6:    6840        @h      LDR      r0,[r0,#4]
        0x000190b8:    210d        .!      MOVS     r1,#0xd
        0x000190ba:    aa01        ..      ADD      r2,sp,#4
        0x000190bc:    f002f986    ....    BL       am_hal_mspi_control ; 0x1b3cc
        0x000190c0:    b006        ..      ADD      sp,sp,#0x18
        0x000190c2:    bd80        ..      POP      {r7,pc}
    am_devices_mspi_is25wx064_deinit
        0x000190c4:    b580        ..      PUSH     {r7,lr}
        0x000190c6:    b084        ..      SUB      sp,sp,#0x10
        0x000190c8:    9002        ..      STR      r0,[sp,#8]
        0x000190ca:    9802        ..      LDR      r0,[sp,#8]
        0x000190cc:    9000        ..      STR      r0,[sp,#0]
        0x000190ce:    9802        ..      LDR      r0,[sp,#8]
        0x000190d0:    f7ffff04    ....    BL       am_device_deinit_flash ; 0x18edc
        0x000190d4:    9001        ..      STR      r0,[sp,#4]
        0x000190d6:    9801        ..      LDR      r0,[sp,#4]
        0x000190d8:    b118        ..      CBZ      r0,0x190e2 ; am_devices_mspi_is25wx064_deinit + 30
        0x000190da:    e7ff        ..      B        0x190dc ; am_devices_mspi_is25wx064_deinit + 24
        0x000190dc:    2001        .       MOVS     r0,#1
        0x000190de:    9003        ..      STR      r0,[sp,#0xc]
        0x000190e0:    e050        P.      B        0x19184 ; am_devices_mspi_is25wx064_deinit + 192
        0x000190e2:    9802        ..      LDR      r0,[sp,#8]
        0x000190e4:    9900        ..      LDR      r1,[sp,#0]
        0x000190e6:    3108        .1      ADDS     r1,r1,#8
        0x000190e8:    f001f8d6    ....    BL       am_devices_mspi_is25wx064_reset ; 0x1a298
        0x000190ec:    b118        ..      CBZ      r0,0x190f6 ; am_devices_mspi_is25wx064_deinit + 50
        0x000190ee:    e7ff        ..      B        0x190f0 ; am_devices_mspi_is25wx064_deinit + 44
        0x000190f0:    2001        .       MOVS     r0,#1
        0x000190f2:    9003        ..      STR      r0,[sp,#0xc]
        0x000190f4:    e046        F.      B        0x19184 ; am_devices_mspi_is25wx064_deinit + 192
        0x000190f6:    9800        ..      LDR      r0,[sp,#0]
        0x000190f8:    6840        @h      LDR      r0,[r0,#4]
        0x000190fa:    f04f31ff    O..1    MOV      r1,#0xffffffff
        0x000190fe:    f003f914    ....    BL       am_hal_mspi_interrupt_disable ; 0x1c32a
        0x00019102:    9001        ..      STR      r0,[sp,#4]
        0x00019104:    9801        ..      LDR      r0,[sp,#4]
        0x00019106:    b118        ..      CBZ      r0,0x19110 ; am_devices_mspi_is25wx064_deinit + 76
        0x00019108:    e7ff        ..      B        0x1910a ; am_devices_mspi_is25wx064_deinit + 70
        0x0001910a:    2001        .       MOVS     r0,#1
        0x0001910c:    9003        ..      STR      r0,[sp,#0xc]
        0x0001910e:    e039        9.      B        0x19184 ; am_devices_mspi_is25wx064_deinit + 192
        0x00019110:    9800        ..      LDR      r0,[sp,#0]
        0x00019112:    6840        @h      LDR      r0,[r0,#4]
        0x00019114:    f04f31ff    O..1    MOV      r1,#0xffffffff
        0x00019118:    f003f8f2    ....    BL       am_hal_mspi_interrupt_clear ; 0x1c300
        0x0001911c:    9001        ..      STR      r0,[sp,#4]
        0x0001911e:    9801        ..      LDR      r0,[sp,#4]
        0x00019120:    b118        ..      CBZ      r0,0x1912a ; am_devices_mspi_is25wx064_deinit + 102
        0x00019122:    e7ff        ..      B        0x19124 ; am_devices_mspi_is25wx064_deinit + 96
        0x00019124:    2001        .       MOVS     r0,#1
        0x00019126:    9003        ..      STR      r0,[sp,#0xc]
        0x00019128:    e02c        ,.      B        0x19184 ; am_devices_mspi_is25wx064_deinit + 192
        0x0001912a:    9800        ..      LDR      r0,[sp,#0]
        0x0001912c:    6840        @h      LDR      r0,[r0,#4]
        0x0001912e:    f003f823    ..#.    BL       am_hal_mspi_disable ; 0x1c178
        0x00019132:    9001        ..      STR      r0,[sp,#4]
        0x00019134:    9801        ..      LDR      r0,[sp,#4]
        0x00019136:    b118        ..      CBZ      r0,0x19140 ; am_devices_mspi_is25wx064_deinit + 124
        0x00019138:    e7ff        ..      B        0x1913a ; am_devices_mspi_is25wx064_deinit + 118
        0x0001913a:    2001        .       MOVS     r0,#1
        0x0001913c:    9003        ..      STR      r0,[sp,#0xc]
        0x0001913e:    e021        !.      B        0x19184 ; am_devices_mspi_is25wx064_deinit + 192
        0x00019140:    9800        ..      LDR      r0,[sp,#0]
        0x00019142:    6840        @h      LDR      r0,[r0,#4]
        0x00019144:    2102        .!      MOVS     r1,#2
        0x00019146:    2200        ."      MOVS     r2,#0
        0x00019148:    f003fb3e    ..>.    BL       am_hal_mspi_power_control ; 0x1c7c8
        0x0001914c:    b148        H.      CBZ      r0,0x19162 ; am_devices_mspi_is25wx064_deinit + 158
        0x0001914e:    e7ff        ..      B        0x19150 ; am_devices_mspi_is25wx064_deinit + 140
        0x00019150:    f640508a    @..P    MOV      r0,#0xd8a
        0x00019154:    f2c00002    ....    MOVT     r0,#2
        0x00019158:    f004fa7e    ..~.    BL       am_util_stdio_printf ; 0x1d658
        0x0001915c:    2001        .       MOVS     r0,#1
        0x0001915e:    9003        ..      STR      r0,[sp,#0xc]
        0x00019160:    e010        ..      B        0x19184 ; am_devices_mspi_is25wx064_deinit + 192
        0x00019162:    9800        ..      LDR      r0,[sp,#0]
        0x00019164:    6840        @h      LDR      r0,[r0,#4]
        0x00019166:    f002ff0f    ....    BL       am_hal_mspi_deinitialize ; 0x1bf88
        0x0001916a:    9001        ..      STR      r0,[sp,#4]
        0x0001916c:    9801        ..      LDR      r0,[sp,#4]
        0x0001916e:    b118        ..      CBZ      r0,0x19178 ; am_devices_mspi_is25wx064_deinit + 180
        0x00019170:    e7ff        ..      B        0x19172 ; am_devices_mspi_is25wx064_deinit + 174
        0x00019172:    2001        .       MOVS     r0,#1
        0x00019174:    9003        ..      STR      r0,[sp,#0xc]
        0x00019176:    e005        ..      B        0x19184 ; am_devices_mspi_is25wx064_deinit + 192
        0x00019178:    9900        ..      LDR      r1,[sp,#0]
        0x0001917a:    2000        .       MOVS     r0,#0
        0x0001917c:    f8810034    ..4.    STRB     r0,[r1,#0x34]
        0x00019180:    9003        ..      STR      r0,[sp,#0xc]
        0x00019182:    e7ff        ..      B        0x19184 ; am_devices_mspi_is25wx064_deinit + 192
        0x00019184:    9803        ..      LDR      r0,[sp,#0xc]
        0x00019186:    b004        ..      ADD      sp,sp,#0x10
        0x00019188:    bd80        ..      POP      {r7,pc}
        0x0001918a:    0000        ..      MOVS     r0,r0
    am_devices_mspi_is25wx064_disable_scrambling
        0x0001918c:    b580        ..      PUSH     {r7,lr}
        0x0001918e:    b0a8        ..      SUB      sp,sp,#0xa0
        0x00019190:    9026        &.      STR      r0,[sp,#0x98]
        0x00019192:    9826        &.      LDR      r0,[sp,#0x98]
        0x00019194:    9024        $.      STR      r0,[sp,#0x90]
        0x00019196:    a804        ..      ADD      r0,sp,#0x10
        0x00019198:    9003        ..      STR      r0,[sp,#0xc]
        0x0001919a:    2180        .!      MOVS     r1,#0x80
        0x0001919c:    f7fff945    ..E.    BL       __aeabi_memclr4 ; 0x1842a
        0x000191a0:    9903        ..      LDR      r1,[sp,#0xc]
        0x000191a2:    9826        &.      LDR      r0,[sp,#0x98]
        0x000191a4:    466a        jF      MOV      r2,sp
        0x000191a6:    2300        .#      MOVS     r3,#0
        0x000191a8:    6053        S`      STR      r3,[r2,#4]
        0x000191aa:    6011        .`      STR      r1,[r2,#0]
        0x000191ac:    2106        .!      MOVS     r1,#6
        0x000191ae:    461a        .F      MOV      r2,r3
        0x000191b0:    f005f934    ..4.    BL       command_write_serial ; 0x1e41c
        0x000191b4:    9025        %.      STR      r0,[sp,#0x94]
        0x000191b6:    9825        %.      LDR      r0,[sp,#0x94]
        0x000191b8:    b118        ..      CBZ      r0,0x191c2 ; am_devices_mspi_is25wx064_disable_scrambling + 54
        0x000191ba:    e7ff        ..      B        0x191bc ; am_devices_mspi_is25wx064_disable_scrambling + 48
        0x000191bc:    2001        .       MOVS     r0,#1
        0x000191be:    9027        '.      STR      r0,[sp,#0x9c]
        0x000191c0:    e015        ..      B        0x191ee ; am_devices_mspi_is25wx064_disable_scrambling + 98
        0x000191c2:    9824        $.      LDR      r0,[sp,#0x90]
        0x000191c4:    6802        .h      LDR      r2,[r0,#0]
        0x000191c6:    6840        @h      LDR      r0,[r0,#4]
        0x000191c8:    f24001c8    @...    MOVW     r1,#0xc8
        0x000191cc:    f2c10100    ....    MOVT     r1,#0x1000
        0x000191d0:    eb011202    ....    ADD      r2,r1,r2,LSL #4
        0x000191d4:    2106        .!      MOVS     r1,#6
        0x000191d6:    f002f8f9    ....    BL       am_hal_mspi_control ; 0x1b3cc
        0x000191da:    9025        %.      STR      r0,[sp,#0x94]
        0x000191dc:    9825        %.      LDR      r0,[sp,#0x94]
        0x000191de:    b118        ..      CBZ      r0,0x191e8 ; am_devices_mspi_is25wx064_disable_scrambling + 92
        0x000191e0:    e7ff        ..      B        0x191e2 ; am_devices_mspi_is25wx064_disable_scrambling + 86
        0x000191e2:    2001        .       MOVS     r0,#1
        0x000191e4:    9027        '.      STR      r0,[sp,#0x9c]
        0x000191e6:    e002        ..      B        0x191ee ; am_devices_mspi_is25wx064_disable_scrambling + 98
        0x000191e8:    2000        .       MOVS     r0,#0
        0x000191ea:    9027        '.      STR      r0,[sp,#0x9c]
        0x000191ec:    e7ff        ..      B        0x191ee ; am_devices_mspi_is25wx064_disable_scrambling + 98
        0x000191ee:    9827        '.      LDR      r0,[sp,#0x9c]
        0x000191f0:    b028        (.      ADD      sp,sp,#0xa0
        0x000191f2:    bd80        ..      POP      {r7,pc}
    am_devices_mspi_is25wx064_disable_xip
        0x000191f4:    b580        ..      PUSH     {r7,lr}
        0x000191f6:    b084        ..      SUB      sp,sp,#0x10
        0x000191f8:    9002        ..      STR      r0,[sp,#8]
        0x000191fa:    9802        ..      LDR      r0,[sp,#8]
        0x000191fc:    9000        ..      STR      r0,[sp,#0]
        0x000191fe:    9800        ..      LDR      r0,[sp,#0]
        0x00019200:    6802        .h      LDR      r2,[r0,#0]
        0x00019202:    6840        @h      LDR      r0,[r0,#4]
        0x00019204:    f24001c8    @...    MOVW     r1,#0xc8
        0x00019208:    f2c10100    ....    MOVT     r1,#0x1000
        0x0001920c:    eb011202    ....    ADD      r2,r1,r2,LSL #4
        0x00019210:    2110        .!      MOVS     r1,#0x10
        0x00019212:    f002f8db    ....    BL       am_hal_mspi_control ; 0x1b3cc
        0x00019216:    9001        ..      STR      r0,[sp,#4]
        0x00019218:    9801        ..      LDR      r0,[sp,#4]
        0x0001921a:    b118        ..      CBZ      r0,0x19224 ; am_devices_mspi_is25wx064_disable_xip + 48
        0x0001921c:    e7ff        ..      B        0x1921e ; am_devices_mspi_is25wx064_disable_xip + 42
        0x0001921e:    2001        .       MOVS     r0,#1
        0x00019220:    9003        ..      STR      r0,[sp,#0xc]
        0x00019222:    e002        ..      B        0x1922a ; am_devices_mspi_is25wx064_disable_xip + 54
        0x00019224:    9801        ..      LDR      r0,[sp,#4]
        0x00019226:    9003        ..      STR      r0,[sp,#0xc]
        0x00019228:    e7ff        ..      B        0x1922a ; am_devices_mspi_is25wx064_disable_xip + 54
        0x0001922a:    9803        ..      LDR      r0,[sp,#0xc]
        0x0001922c:    b004        ..      ADD      sp,sp,#0x10
        0x0001922e:    bd80        ..      POP      {r7,pc}
    am_devices_mspi_is25wx064_enable_scrambling
        0x00019230:    b580        ..      PUSH     {r7,lr}
        0x00019232:    b084        ..      SUB      sp,sp,#0x10
        0x00019234:    9002        ..      STR      r0,[sp,#8]
        0x00019236:    9802        ..      LDR      r0,[sp,#8]
        0x00019238:    9000        ..      STR      r0,[sp,#0]
        0x0001923a:    9800        ..      LDR      r0,[sp,#0]
        0x0001923c:    6802        .h      LDR      r2,[r0,#0]
        0x0001923e:    6840        @h      LDR      r0,[r0,#4]
        0x00019240:    f24001c8    @...    MOVW     r1,#0xc8
        0x00019244:    f2c10100    ....    MOVT     r1,#0x1000
        0x00019248:    eb011202    ....    ADD      r2,r1,r2,LSL #4
        0x0001924c:    2107        .!      MOVS     r1,#7
        0x0001924e:    f002f8bd    ....    BL       am_hal_mspi_control ; 0x1b3cc
        0x00019252:    9001        ..      STR      r0,[sp,#4]
        0x00019254:    9801        ..      LDR      r0,[sp,#4]
        0x00019256:    b118        ..      CBZ      r0,0x19260 ; am_devices_mspi_is25wx064_enable_scrambling + 48
        0x00019258:    e7ff        ..      B        0x1925a ; am_devices_mspi_is25wx064_enable_scrambling + 42
        0x0001925a:    2001        .       MOVS     r0,#1
        0x0001925c:    9003        ..      STR      r0,[sp,#0xc]
        0x0001925e:    e002        ..      B        0x19266 ; am_devices_mspi_is25wx064_enable_scrambling + 54
        0x00019260:    2000        .       MOVS     r0,#0
        0x00019262:    9003        ..      STR      r0,[sp,#0xc]
        0x00019264:    e7ff        ..      B        0x19266 ; am_devices_mspi_is25wx064_enable_scrambling + 54
        0x00019266:    9803        ..      LDR      r0,[sp,#0xc]
        0x00019268:    b004        ..      ADD      sp,sp,#0x10
        0x0001926a:    bd80        ..      POP      {r7,pc}
    am_devices_mspi_is25wx064_enable_xip
        0x0001926c:    b580        ..      PUSH     {r7,lr}
        0x0001926e:    b084        ..      SUB      sp,sp,#0x10
        0x00019270:    9002        ..      STR      r0,[sp,#8]
        0x00019272:    9802        ..      LDR      r0,[sp,#8]
        0x00019274:    9000        ..      STR      r0,[sp,#0]
        0x00019276:    9800        ..      LDR      r0,[sp,#0]
        0x00019278:    6802        .h      LDR      r2,[r0,#0]
        0x0001927a:    6840        @h      LDR      r0,[r0,#4]
        0x0001927c:    f24001c8    @...    MOVW     r1,#0xc8
        0x00019280:    f2c10100    ....    MOVT     r1,#0x1000
        0x00019284:    eb011202    ....    ADD      r2,r1,r2,LSL #4
        0x00019288:    210e        .!      MOVS     r1,#0xe
        0x0001928a:    f002f89f    ....    BL       am_hal_mspi_control ; 0x1b3cc
        0x0001928e:    9001        ..      STR      r0,[sp,#4]
        0x00019290:    9801        ..      LDR      r0,[sp,#4]
        0x00019292:    b118        ..      CBZ      r0,0x1929c ; am_devices_mspi_is25wx064_enable_xip + 48
        0x00019294:    e7ff        ..      B        0x19296 ; am_devices_mspi_is25wx064_enable_xip + 42
        0x00019296:    2001        .       MOVS     r0,#1
        0x00019298:    9003        ..      STR      r0,[sp,#0xc]
        0x0001929a:    e021        !.      B        0x192e0 ; am_devices_mspi_is25wx064_enable_xip + 116
        0x0001929c:    9800        ..      LDR      r0,[sp,#0]
        0x0001929e:    6802        .h      LDR      r2,[r0,#0]
        0x000192a0:    6840        @h      LDR      r0,[r0,#4]
        0x000192a2:    f24001c8    @...    MOVW     r1,#0xc8
        0x000192a6:    f2c10100    ....    MOVT     r1,#0x1000
        0x000192aa:    eb011202    ....    ADD      r2,r1,r2,LSL #4
        0x000192ae:    2111        .!      MOVS     r1,#0x11
        0x000192b0:    f002f88c    ....    BL       am_hal_mspi_control ; 0x1b3cc
        0x000192b4:    9001        ..      STR      r0,[sp,#4]
        0x000192b6:    9801        ..      LDR      r0,[sp,#4]
        0x000192b8:    b118        ..      CBZ      r0,0x192c2 ; am_devices_mspi_is25wx064_enable_xip + 86
        0x000192ba:    e7ff        ..      B        0x192bc ; am_devices_mspi_is25wx064_enable_xip + 80
        0x000192bc:    2001        .       MOVS     r0,#1
        0x000192be:    9003        ..      STR      r0,[sp,#0xc]
        0x000192c0:    e00e        ..      B        0x192e0 ; am_devices_mspi_is25wx064_enable_xip + 116
        0x000192c2:    9800        ..      LDR      r0,[sp,#0]
        0x000192c4:    6840        @h      LDR      r0,[r0,#4]
        0x000192c6:    21c0        .!      MOVS     r1,#0xc0
        0x000192c8:    f003f82f    ../.    BL       am_hal_mspi_interrupt_disable ; 0x1c32a
        0x000192cc:    9001        ..      STR      r0,[sp,#4]
        0x000192ce:    9801        ..      LDR      r0,[sp,#4]
        0x000192d0:    b118        ..      CBZ      r0,0x192da ; am_devices_mspi_is25wx064_enable_xip + 110
        0x000192d2:    e7ff        ..      B        0x192d4 ; am_devices_mspi_is25wx064_enable_xip + 104
        0x000192d4:    2001        .       MOVS     r0,#1
        0x000192d6:    9003        ..      STR      r0,[sp,#0xc]
        0x000192d8:    e002        ..      B        0x192e0 ; am_devices_mspi_is25wx064_enable_xip + 116
        0x000192da:    9801        ..      LDR      r0,[sp,#4]
        0x000192dc:    9003        ..      STR      r0,[sp,#0xc]
        0x000192de:    e7ff        ..      B        0x192e0 ; am_devices_mspi_is25wx064_enable_xip + 116
        0x000192e0:    9803        ..      LDR      r0,[sp,#0xc]
        0x000192e2:    b004        ..      ADD      sp,sp,#0x10
        0x000192e4:    bd80        ..      POP      {r7,pc}
        0x000192e6:    0000        ..      MOVS     r0,r0
    am_devices_mspi_is25wx064_id
        0x000192e8:    b580        ..      PUSH     {r7,lr}
        0x000192ea:    b08c        ..      SUB      sp,sp,#0x30
        0x000192ec:    900a        ..      STR      r0,[sp,#0x28]
        0x000192ee:    980a        ..      LDR      r0,[sp,#0x28]
        0x000192f0:    9007        ..      STR      r0,[sp,#0x1c]
        0x000192f2:    9807        ..      LDR      r0,[sp,#0x1c]
        0x000192f4:    7c00        .|      LDRB     r0,[r0,#0x10]
        0x000192f6:    b1c8        ..      CBZ      r0,0x1932c ; am_devices_mspi_is25wx064_id + 68
        0x000192f8:    e7ff        ..      B        0x192fa ; am_devices_mspi_is25wx064_id + 18
        0x000192fa:    9807        ..      LDR      r0,[sp,#0x1c]
        0x000192fc:    7c00        .|      LDRB     r0,[r0,#0x10]
        0x000192fe:    2801        .(      CMP      r0,#1
        0x00019300:    d014        ..      BEQ      0x1932c ; am_devices_mspi_is25wx064_id + 68
        0x00019302:    e7ff        ..      B        0x19304 ; am_devices_mspi_is25wx064_id + 28
        0x00019304:    9807        ..      LDR      r0,[sp,#0x1c]
        0x00019306:    7c00        .|      LDRB     r0,[r0,#0x10]
        0x00019308:    2816        .(      CMP      r0,#0x16
        0x0001930a:    d00f        ..      BEQ      0x1932c ; am_devices_mspi_is25wx064_id + 68
        0x0001930c:    e7ff        ..      B        0x1930e ; am_devices_mspi_is25wx064_id + 38
        0x0001930e:    9807        ..      LDR      r0,[sp,#0x1c]
        0x00019310:    7c00        .|      LDRB     r0,[r0,#0x10]
        0x00019312:    2817        .(      CMP      r0,#0x17
        0x00019314:    d00a        ..      BEQ      0x1932c ; am_devices_mspi_is25wx064_id + 68
        0x00019316:    e7ff        ..      B        0x19318 ; am_devices_mspi_is25wx064_id + 48
        0x00019318:    9807        ..      LDR      r0,[sp,#0x1c]
        0x0001931a:    7c00        .|      LDRB     r0,[r0,#0x10]
        0x0001931c:    2818        .(      CMP      r0,#0x18
        0x0001931e:    d005        ..      BEQ      0x1932c ; am_devices_mspi_is25wx064_id + 68
        0x00019320:    e7ff        ..      B        0x19322 ; am_devices_mspi_is25wx064_id + 58
        0x00019322:    9807        ..      LDR      r0,[sp,#0x1c]
        0x00019324:    7c00        .|      LDRB     r0,[r0,#0x10]
        0x00019326:    2819        .(      CMP      r0,#0x19
        0x00019328:    d10d        ..      BNE      0x19346 ; am_devices_mspi_is25wx064_id + 94
        0x0001932a:    e7ff        ..      B        0x1932c ; am_devices_mspi_is25wx064_id + 68
        0x0001932c:    980a        ..      LDR      r0,[sp,#0x28]
        0x0001932e:    466a        jF      MOV      r2,sp
        0x00019330:    210b        .!      MOVS     r1,#0xb
        0x00019332:    6051        Q`      STR      r1,[r2,#4]
        0x00019334:    a902        ..      ADD      r1,sp,#8
        0x00019336:    6011        .`      STR      r1,[r2,#0]
        0x00019338:    219f        .!      MOVS     r1,#0x9f
        0x0001933a:    2300        .#      MOVS     r3,#0
        0x0001933c:    461a        .F      MOV      r2,r3
        0x0001933e:    f004fee1    ....    BL       command_read_serial ; 0x1e104
        0x00019342:    9009        ..      STR      r0,[sp,#0x24]
        0x00019344:    e018        ..      B        0x19378 ; am_devices_mspi_is25wx064_id + 144
        0x00019346:    9807        ..      LDR      r0,[sp,#0x1c]
        0x00019348:    7c00        .|      LDRB     r0,[r0,#0x10]
        0x0001934a:    2808        .(      CMP      r0,#8
        0x0001934c:    d005        ..      BEQ      0x1935a ; am_devices_mspi_is25wx064_id + 114
        0x0001934e:    e7ff        ..      B        0x19350 ; am_devices_mspi_is25wx064_id + 104
        0x00019350:    9807        ..      LDR      r0,[sp,#0x1c]
        0x00019352:    7c00        .|      LDRB     r0,[r0,#0x10]
        0x00019354:    2809        .(      CMP      r0,#9
        0x00019356:    d10e        ..      BNE      0x19376 ; am_devices_mspi_is25wx064_id + 142
        0x00019358:    e7ff        ..      B        0x1935a ; am_devices_mspi_is25wx064_id + 114
        0x0001935a:    980a        ..      LDR      r0,[sp,#0x28]
        0x0001935c:    466a        jF      MOV      r2,sp
        0x0001935e:    210b        .!      MOVS     r1,#0xb
        0x00019360:    6051        Q`      STR      r1,[r2,#4]
        0x00019362:    a902        ..      ADD      r1,sp,#8
        0x00019364:    6011        .`      STR      r1,[r2,#0]
        0x00019366:    f649719f    I..q    MOV      r1,#0x9f9f
        0x0001936a:    2300        .#      MOVS     r3,#0
        0x0001936c:    461a        .F      MOV      r2,r3
        0x0001936e:    f004fe3d    ..=.    BL       command_read_octal ; 0x1dfec
        0x00019372:    9009        ..      STR      r0,[sp,#0x24]
        0x00019374:    e7ff        ..      B        0x19376 ; am_devices_mspi_is25wx064_id + 142
        0x00019376:    e7ff        ..      B        0x19378 ; am_devices_mspi_is25wx064_id + 144
        0x00019378:    f89d0008    ....    LDRB     r0,[sp,#8]
        0x0001937c:    f89d2009    ...     LDRB     r2,[sp,#9]
        0x00019380:    f89d100a    ....    LDRB     r1,[sp,#0xa]
        0x00019384:    0400        ..      LSLS     r0,r0,#16
        0x00019386:    ea402002    @..     ORR      r0,r0,r2,LSL #8
        0x0001938a:    4408        .D      ADD      r0,r0,r1
        0x0001938c:    9008        ..      STR      r0,[sp,#0x20]
        0x0001938e:    9908        ..      LDR      r1,[sp,#0x20]
        0x00019390:    f64060c1    @..`    MOV      r0,#0xec1
        0x00019394:    f2c00002    ....    MOVT     r0,#2
        0x00019398:    f004f95e    ..^.    BL       am_util_stdio_printf ; 0x1d658
        0x0001939c:    9808        ..      LDR      r0,[sp,#0x20]
        0x0001939e:    f020407f     ..@    BIC      r0,r0,#0xff000000
        0x000193a2:    f6453117    E..1    MOV      r1,#0x5b17
        0x000193a6:    f2c0019d    ....    MOVT     r1,#0x9d
        0x000193aa:    4288        .B      CMP      r0,r1
        0x000193ac:    d106        ..      BNE      0x193bc ; am_devices_mspi_is25wx064_id + 212
        0x000193ae:    e7ff        ..      B        0x193b0 ; am_devices_mspi_is25wx064_id + 200
        0x000193b0:    9809        ..      LDR      r0,[sp,#0x24]
        0x000193b2:    b918        ..      CBNZ     r0,0x193bc ; am_devices_mspi_is25wx064_id + 212
        0x000193b4:    e7ff        ..      B        0x193b6 ; am_devices_mspi_is25wx064_id + 206
        0x000193b6:    2000        .       MOVS     r0,#0
        0x000193b8:    900b        ..      STR      r0,[sp,#0x2c]
        0x000193ba:    e002        ..      B        0x193c2 ; am_devices_mspi_is25wx064_id + 218
        0x000193bc:    2001        .       MOVS     r0,#1
        0x000193be:    900b        ..      STR      r0,[sp,#0x2c]
        0x000193c0:    e7ff        ..      B        0x193c2 ; am_devices_mspi_is25wx064_id + 218
        0x000193c2:    980b        ..      LDR      r0,[sp,#0x2c]
        0x000193c4:    b00c        ..      ADD      sp,sp,#0x30
        0x000193c6:    bd80        ..      POP      {r7,pc}
    am_devices_mspi_is25wx064_init
        0x000193c8:    b580        ..      PUSH     {r7,lr}
        0x000193ca:    b09e        ..      SUB      sp,sp,#0x78
        0x000193cc:    901c        ..      STR      r0,[sp,#0x70]
        0x000193ce:    911b        ..      STR      r1,[sp,#0x6c]
        0x000193d0:    921a        ..      STR      r2,[sp,#0x68]
        0x000193d2:    9319        ..      STR      r3,[sp,#0x64]
        0x000193d4:    f24010ac    @...    MOVW     r0,#0x1ac
        0x000193d8:    f2c10000    ....    MOVT     r0,#0x1000
        0x000193dc:    6840        @h      LDR      r0,[r0,#4]
        0x000193de:    9017        ..      STR      r0,[sp,#0x5c]
        0x000193e0:    2000        .       MOVS     r0,#0
        0x000193e2:    9015        ..      STR      r0,[sp,#0x54]
        0x000193e4:    f005fce8    ....    BL       is25wx064_power_reset ; 0x1edb8
        0x000193e8:    981c        ..      LDR      r0,[sp,#0x70]
        0x000193ea:    2803        .(      CMP      r0,#3
        0x000193ec:    d803        ..      BHI      0x193f6 ; am_devices_mspi_is25wx064_init + 46
        0x000193ee:    e7ff        ..      B        0x193f0 ; am_devices_mspi_is25wx064_init + 40
        0x000193f0:    981b        ..      LDR      r0,[sp,#0x6c]
        0x000193f2:    b918        ..      CBNZ     r0,0x193fc ; am_devices_mspi_is25wx064_init + 52
        0x000193f4:    e7ff        ..      B        0x193f6 ; am_devices_mspi_is25wx064_init + 46
        0x000193f6:    2001        .       MOVS     r0,#1
        0x000193f8:    901d        ..      STR      r0,[sp,#0x74]
        0x000193fa:    e295        ..      B        0x19928 ; am_devices_mspi_is25wx064_init + 1376
        0x000193fc:    2000        .       MOVS     r0,#0
        0x000193fe:    9015        ..      STR      r0,[sp,#0x54]
        0x00019400:    e7ff        ..      B        0x19402 ; am_devices_mspi_is25wx064_init + 58
        0x00019402:    9815        ..      LDR      r0,[sp,#0x54]
        0x00019404:    b9a0        ..      CBNZ     r0,0x19430 ; am_devices_mspi_is25wx064_init + 104
        0x00019406:    e7ff        ..      B        0x19408 ; am_devices_mspi_is25wx064_init + 64
        0x00019408:    9815        ..      LDR      r0,[sp,#0x54]
        0x0001940a:    ebc001c0    ....    RSB      r1,r0,r0,LSL #3
        0x0001940e:    f6441024    D.$.    MOV      r0,#0x4924
        0x00019412:    f2c10000    ....    MOVT     r0,#0x1000
        0x00019416:    eb0000c1    ....    ADD      r0,r0,r1,LSL #3
        0x0001941a:    f8900034    ..4.    LDRB     r0,[r0,#0x34]
        0x0001941e:    07c0        ..      LSLS     r0,r0,#31
        0x00019420:    b908        ..      CBNZ     r0,0x19426 ; am_devices_mspi_is25wx064_init + 94
        0x00019422:    e7ff        ..      B        0x19424 ; am_devices_mspi_is25wx064_init + 92
        0x00019424:    e004        ..      B        0x19430 ; am_devices_mspi_is25wx064_init + 104
        0x00019426:    e7ff        ..      B        0x19428 ; am_devices_mspi_is25wx064_init + 96
        0x00019428:    9815        ..      LDR      r0,[sp,#0x54]
        0x0001942a:    3001        .0      ADDS     r0,#1
        0x0001942c:    9015        ..      STR      r0,[sp,#0x54]
        0x0001942e:    e7e8        ..      B        0x19402 ; am_devices_mspi_is25wx064_init + 58
        0x00019430:    9815        ..      LDR      r0,[sp,#0x54]
        0x00019432:    2801        .(      CMP      r0,#1
        0x00019434:    d103        ..      BNE      0x1943e ; am_devices_mspi_is25wx064_init + 118
        0x00019436:    e7ff        ..      B        0x19438 ; am_devices_mspi_is25wx064_init + 112
        0x00019438:    2001        .       MOVS     r0,#1
        0x0001943a:    901d        ..      STR      r0,[sp,#0x74]
        0x0001943c:    e274        t.      B        0x19928 ; am_devices_mspi_is25wx064_init + 1376
        0x0001943e:    2000        .       MOVS     r0,#0
        0x00019440:    9014        ..      STR      r0,[sp,#0x50]
        0x00019442:    e7ff        ..      B        0x19444 ; am_devices_mspi_is25wx064_init + 124
        0x00019444:    9814        ..      LDR      r0,[sp,#0x50]
        0x00019446:    2805        .(      CMP      r0,#5
        0x00019448:    d81b        ..      BHI      0x19482 ; am_devices_mspi_is25wx064_init + 186
        0x0001944a:    e7ff        ..      B        0x1944c ; am_devices_mspi_is25wx064_init + 132
        0x0001944c:    981b        ..      LDR      r0,[sp,#0x6c]
        0x0001944e:    7800        .x      LDRB     r0,[r0,#0]
        0x00019450:    9a14        ..      LDR      r2,[sp,#0x50]
        0x00019452:    f24011ac    @...    MOVW     r1,#0x1ac
        0x00019456:    f2c10100    ....    MOVT     r1,#0x1000
        0x0001945a:    f8111032    ..2.    LDRB     r1,[r1,r2,LSL #3]
        0x0001945e:    4288        .B      CMP      r0,r1
        0x00019460:    d10a        ..      BNE      0x19478 ; am_devices_mspi_is25wx064_init + 176
        0x00019462:    e7ff        ..      B        0x19464 ; am_devices_mspi_is25wx064_init + 156
        0x00019464:    9914        ..      LDR      r1,[sp,#0x50]
        0x00019466:    f24010ac    @...    MOVW     r0,#0x1ac
        0x0001946a:    f2c10000    ....    MOVT     r0,#0x1000
        0x0001946e:    eb0000c1    ....    ADD      r0,r0,r1,LSL #3
        0x00019472:    6840        @h      LDR      r0,[r0,#4]
        0x00019474:    9017        ..      STR      r0,[sp,#0x5c]
        0x00019476:    e004        ..      B        0x19482 ; am_devices_mspi_is25wx064_init + 186
        0x00019478:    e7ff        ..      B        0x1947a ; am_devices_mspi_is25wx064_init + 178
        0x0001947a:    9814        ..      LDR      r0,[sp,#0x50]
        0x0001947c:    3001        .0      ADDS     r0,#1
        0x0001947e:    9014        ..      STR      r0,[sp,#0x50]
        0x00019480:    e7e0        ..      B        0x19444 ; am_devices_mspi_is25wx064_init + 124
        0x00019482:    f001fd0e    ....    BL       am_hal_fault_capture_enable ; 0x1aea2
        0x00019486:    9817        ..      LDR      r0,[sp,#0x5c]
        0x00019488:    7a00        .z      LDRB     r0,[r0,#8]
        0x0001948a:    4601        .F      MOV      r1,r0
        0x0001948c:    9107        ..      STR      r1,[sp,#0x1c]
        0x0001948e:    b300        ..      CBZ      r0,0x194d2 ; am_devices_mspi_is25wx064_init + 266
        0x00019490:    e7ff        ..      B        0x19492 ; am_devices_mspi_is25wx064_init + 202
        0x00019492:    9807        ..      LDR      r0,[sp,#0x1c]
        0x00019494:    2801        .(      CMP      r0,#1
        0x00019496:    f00080b4    ....    BEQ.W    0x19602 ; am_devices_mspi_is25wx064_init + 570
        0x0001949a:    e7ff        ..      B        0x1949c ; am_devices_mspi_is25wx064_init + 212
        0x0001949c:    9807        ..      LDR      r0,[sp,#0x1c]
        0x0001949e:    2808        .(      CMP      r0,#8
        0x000194a0:    d017        ..      BEQ      0x194d2 ; am_devices_mspi_is25wx064_init + 266
        0x000194a2:    e7ff        ..      B        0x194a4 ; am_devices_mspi_is25wx064_init + 220
        0x000194a4:    9807        ..      LDR      r0,[sp,#0x1c]
        0x000194a6:    2809        .(      CMP      r0,#9
        0x000194a8:    f00080ab    ....    BEQ.W    0x19602 ; am_devices_mspi_is25wx064_init + 570
        0x000194ac:    e7ff        ..      B        0x194ae ; am_devices_mspi_is25wx064_init + 230
        0x000194ae:    9807        ..      LDR      r0,[sp,#0x1c]
        0x000194b0:    2816        .(      CMP      r0,#0x16
        0x000194b2:    d00e        ..      BEQ      0x194d2 ; am_devices_mspi_is25wx064_init + 266
        0x000194b4:    e7ff        ..      B        0x194b6 ; am_devices_mspi_is25wx064_init + 238
        0x000194b6:    9807        ..      LDR      r0,[sp,#0x1c]
        0x000194b8:    2817        .(      CMP      r0,#0x17
        0x000194ba:    f00080a2    ....    BEQ.W    0x19602 ; am_devices_mspi_is25wx064_init + 570
        0x000194be:    e7ff        ..      B        0x194c0 ; am_devices_mspi_is25wx064_init + 248
        0x000194c0:    9807        ..      LDR      r0,[sp,#0x1c]
        0x000194c2:    2818        .(      CMP      r0,#0x18
        0x000194c4:    d005        ..      BEQ      0x194d2 ; am_devices_mspi_is25wx064_init + 266
        0x000194c6:    e7ff        ..      B        0x194c8 ; am_devices_mspi_is25wx064_init + 256
        0x000194c8:    9807        ..      LDR      r0,[sp,#0x1c]
        0x000194ca:    2819        .(      CMP      r0,#0x19
        0x000194cc:    f0008099    ....    BEQ.W    0x19602 ; am_devices_mspi_is25wx064_init + 570
        0x000194d0:    e12f        /.      B        0x19732 ; am_devices_mspi_is25wx064_init + 874
        0x000194d2:    9815        ..      LDR      r0,[sp,#0x54]
        0x000194d4:    ebc001c0    ....    RSB      r1,r0,r0,LSL #3
        0x000194d8:    f6441024    D.$.    MOV      r0,#0x4924
        0x000194dc:    f2c10000    ....    MOVT     r0,#0x1000
        0x000194e0:    9006        ..      STR      r0,[sp,#0x18]
        0x000194e2:    eb0000c1    ....    ADD      r0,r0,r1,LSL #3
        0x000194e6:    3008        .0      ADDS     r0,r0,#8
        0x000194e8:    f240012c    @.,.    MOVW     r1,#0x2c
        0x000194ec:    f2c10100    ....    MOVT     r1,#0x1000
        0x000194f0:    9104        ..      STR      r1,[sp,#0x10]
        0x000194f2:    2216        ."      MOVS     r2,#0x16
        0x000194f4:    9205        ..      STR      r2,[sp,#0x14]
        0x000194f6:    f7feff53    ..S.    BL       __aeabi_memcpy ; 0x183a0
        0x000194fa:    9904        ..      LDR      r1,[sp,#0x10]
        0x000194fc:    9a05        ..      LDR      r2,[sp,#0x14]
        0x000194fe:    9806        ..      LDR      r0,[sp,#0x18]
        0x00019500:    9b15        ..      LDR      r3,[sp,#0x54]
        0x00019502:    ebc303c3    ....    RSB      r3,r3,r3,LSL #3
        0x00019506:    eb0000c3    ....    ADD      r0,r0,r3,LSL #3
        0x0001950a:    301e        .0      ADDS     r0,r0,#0x1e
        0x0001950c:    f7feff48    ..H.    BL       __aeabi_memcpy ; 0x183a0
        0x00019510:    981c        ..      LDR      r0,[sp,#0x70]
        0x00019512:    a916        ..      ADD      r1,sp,#0x58
        0x00019514:    f002fecc    ....    BL       am_hal_mspi_initialize ; 0x1c2b0
        0x00019518:    b148        H.      CBZ      r0,0x1952e ; am_devices_mspi_is25wx064_init + 358
        0x0001951a:    e7ff        ..      B        0x1951c ; am_devices_mspi_is25wx064_init + 340
        0x0001951c:    f6405066    @.fP    MOV      r0,#0xd66
        0x00019520:    f2c00002    ....    MOVT     r0,#2
        0x00019524:    f004f898    ....    BL       am_util_stdio_printf ; 0x1d658
        0x00019528:    2001        .       MOVS     r0,#1
        0x0001952a:    901d        ..      STR      r0,[sp,#0x74]
        0x0001952c:    e1fc        ..      B        0x19928 ; am_devices_mspi_is25wx064_init + 1376
        0x0001952e:    9816        ..      LDR      r0,[sp,#0x58]
        0x00019530:    2200        ."      MOVS     r2,#0
        0x00019532:    4611        .F      MOV      r1,r2
        0x00019534:    f003f948    ..H.    BL       am_hal_mspi_power_control ; 0x1c7c8
        0x00019538:    b148        H.      CBZ      r0,0x1954e ; am_devices_mspi_is25wx064_init + 390
        0x0001953a:    e7ff        ..      B        0x1953c ; am_devices_mspi_is25wx064_init + 372
        0x0001953c:    f640508a    @..P    MOV      r0,#0xd8a
        0x00019540:    f2c00002    ....    MOVT     r0,#2
        0x00019544:    f004f888    ....    BL       am_util_stdio_printf ; 0x1d658
        0x00019548:    2001        .       MOVS     r0,#1
        0x0001954a:    901d        ..      STR      r0,[sp,#0x74]
        0x0001954c:    e1ec        ..      B        0x19928 ; am_devices_mspi_is25wx064_init + 1376
        0x0001954e:    9815        ..      LDR      r0,[sp,#0x54]
        0x00019550:    ebc001c0    ....    RSB      r1,r0,r0,LSL #3
        0x00019554:    f6441024    D.$.    MOV      r0,#0x4924
        0x00019558:    f2c10000    ....    MOVT     r0,#0x1000
        0x0001955c:    eb0001c1    ....    ADD      r1,r0,r1,LSL #3
        0x00019560:    2004        .       MOVS     r0,#4
        0x00019562:    f8810029    ..).    STRB     r0,[r1,#0x29]
        0x00019566:    f644325c    D.\2    MOV      r2,#0x4b5c
        0x0001956a:    f2c10200    ....    MOVT     r2,#0x1000
        0x0001956e:    6810        .h      LDR      r0,[r2,#0]
        0x00019570:    6851        Qh      LDR      r1,[r2,#4]
        0x00019572:    6892        .h      LDR      r2,[r2,#8]
        0x00019574:    9213        ..      STR      r2,[sp,#0x4c]
        0x00019576:    9112        ..      STR      r1,[sp,#0x48]
        0x00019578:    9011        ..      STR      r0,[sp,#0x44]
        0x0001957a:    981b        ..      LDR      r0,[sp,#0x6c]
        0x0001957c:    6880        .h      LDR      r0,[r0,#8]
        0x0001957e:    9011        ..      STR      r0,[sp,#0x44]
        0x00019580:    981b        ..      LDR      r0,[sp,#0x6c]
        0x00019582:    6840        @h      LDR      r0,[r0,#4]
        0x00019584:    9012        ..      STR      r0,[sp,#0x48]
        0x00019586:    9816        ..      LDR      r0,[sp,#0x58]
        0x00019588:    a911        ..      ADD      r1,sp,#0x44
        0x0001958a:    f001feb4    ....    BL       am_hal_mspi_configure ; 0x1b2f6
        0x0001958e:    b148        H.      CBZ      r0,0x195a4 ; am_devices_mspi_is25wx064_init + 476
        0x00019590:    e7ff        ..      B        0x19592 ; am_devices_mspi_is25wx064_init + 458
        0x00019592:    f64050eb    @..P    MOV      r0,#0xdeb
        0x00019596:    f2c00002    ....    MOVT     r0,#2
        0x0001959a:    f004f85d    ..].    BL       am_util_stdio_printf ; 0x1d658
        0x0001959e:    2001        .       MOVS     r0,#1
        0x000195a0:    901d        ..      STR      r0,[sp,#0x74]
        0x000195a2:    e1c1        ..      B        0x19928 ; am_devices_mspi_is25wx064_init + 1376
        0x000195a4:    9816        ..      LDR      r0,[sp,#0x58]
        0x000195a6:    9915        ..      LDR      r1,[sp,#0x54]
        0x000195a8:    ebc102c1    ....    RSB      r2,r1,r1,LSL #3
        0x000195ac:    f6441124    D.$.    MOV      r1,#0x4924
        0x000195b0:    f2c10100    ....    MOVT     r1,#0x1000
        0x000195b4:    eb0101c2    ....    ADD      r1,r1,r2,LSL #3
        0x000195b8:    311e        .1      ADDS     r1,r1,#0x1e
        0x000195ba:    f002fcff    ....    BL       am_hal_mspi_device_configure ; 0x1bfbc
        0x000195be:    b148        H.      CBZ      r0,0x195d4 ; am_devices_mspi_is25wx064_init + 524
        0x000195c0:    e7ff        ..      B        0x195c2 ; am_devices_mspi_is25wx064_init + 506
        0x000195c2:    f6405043    @.CP    MOV      r0,#0xd43
        0x000195c6:    f2c00002    ....    MOVT     r0,#2
        0x000195ca:    f004f845    ..E.    BL       am_util_stdio_printf ; 0x1d658
        0x000195ce:    2001        .       MOVS     r0,#1
        0x000195d0:    901d        ..      STR      r0,[sp,#0x74]
        0x000195d2:    e1a9        ..      B        0x19928 ; am_devices_mspi_is25wx064_init + 1376
        0x000195d4:    9816        ..      LDR      r0,[sp,#0x58]
        0x000195d6:    f002fe17    ....    BL       am_hal_mspi_enable ; 0x1c208
        0x000195da:    b148        H.      CBZ      r0,0x195f0 ; am_devices_mspi_is25wx064_init + 552
        0x000195dc:    e7ff        ..      B        0x195de ; am_devices_mspi_is25wx064_init + 534
        0x000195de:    f6405023    @.#P    MOV      r0,#0xd23
        0x000195e2:    f2c00002    ....    MOVT     r0,#2
        0x000195e6:    f004f837    ..7.    BL       am_util_stdio_printf ; 0x1d658
        0x000195ea:    2001        .       MOVS     r0,#1
        0x000195ec:    901d        ..      STR      r0,[sp,#0x74]
        0x000195ee:    e19b        ..      B        0x19928 ; am_devices_mspi_is25wx064_init + 1376
        0x000195f0:    981c        ..      LDR      r0,[sp,#0x70]
        0x000195f2:    f240012c    @.,.    MOVW     r1,#0x2c
        0x000195f6:    f2c10100    ....    MOVT     r1,#0x1000
        0x000195fa:    7a09        .z      LDRB     r1,[r1,#8]
        0x000195fc:    f7fff88e    ....    BL       am_bsp_mspi_pins_enable ; 0x1871c
        0x00019600:    e09a        ..      B        0x19738 ; am_devices_mspi_is25wx064_init + 880
        0x00019602:    9815        ..      LDR      r0,[sp,#0x54]
        0x00019604:    ebc001c0    ....    RSB      r1,r0,r0,LSL #3
        0x00019608:    f6441024    D.$.    MOV      r0,#0x4924
        0x0001960c:    f2c10000    ....    MOVT     r0,#0x1000
        0x00019610:    9003        ..      STR      r0,[sp,#0xc]
        0x00019612:    eb0000c1    ....    ADD      r0,r0,r1,LSL #3
        0x00019616:    3008        .0      ADDS     r0,r0,#8
        0x00019618:    f2400142    @.B.    MOVW     r1,#0x42
        0x0001961c:    f2c10100    ....    MOVT     r1,#0x1000
        0x00019620:    9101        ..      STR      r1,[sp,#4]
        0x00019622:    2216        ."      MOVS     r2,#0x16
        0x00019624:    9202        ..      STR      r2,[sp,#8]
        0x00019626:    f7fefebb    ....    BL       __aeabi_memcpy ; 0x183a0
        0x0001962a:    9901        ..      LDR      r1,[sp,#4]
        0x0001962c:    9a02        ..      LDR      r2,[sp,#8]
        0x0001962e:    9803        ..      LDR      r0,[sp,#0xc]
        0x00019630:    9b15        ..      LDR      r3,[sp,#0x54]
        0x00019632:    ebc303c3    ....    RSB      r3,r3,r3,LSL #3
        0x00019636:    eb0000c3    ....    ADD      r0,r0,r3,LSL #3
        0x0001963a:    301e        .0      ADDS     r0,r0,#0x1e
        0x0001963c:    f7fefeb0    ....    BL       __aeabi_memcpy ; 0x183a0
        0x00019640:    981c        ..      LDR      r0,[sp,#0x70]
        0x00019642:    a916        ..      ADD      r1,sp,#0x58
        0x00019644:    f002fe34    ..4.    BL       am_hal_mspi_initialize ; 0x1c2b0
        0x00019648:    b148        H.      CBZ      r0,0x1965e ; am_devices_mspi_is25wx064_init + 662
        0x0001964a:    e7ff        ..      B        0x1964c ; am_devices_mspi_is25wx064_init + 644
        0x0001964c:    f6405066    @.fP    MOV      r0,#0xd66
        0x00019650:    f2c00002    ....    MOVT     r0,#2
        0x00019654:    f004f800    ....    BL       am_util_stdio_printf ; 0x1d658
        0x00019658:    2001        .       MOVS     r0,#1
        0x0001965a:    901d        ..      STR      r0,[sp,#0x74]
        0x0001965c:    e164        d.      B        0x19928 ; am_devices_mspi_is25wx064_init + 1376
        0x0001965e:    9816        ..      LDR      r0,[sp,#0x58]
        0x00019660:    2200        ."      MOVS     r2,#0
        0x00019662:    4611        .F      MOV      r1,r2
        0x00019664:    f003f8b0    ....    BL       am_hal_mspi_power_control ; 0x1c7c8
        0x00019668:    b148        H.      CBZ      r0,0x1967e ; am_devices_mspi_is25wx064_init + 694
        0x0001966a:    e7ff        ..      B        0x1966c ; am_devices_mspi_is25wx064_init + 676
        0x0001966c:    f640508a    @..P    MOV      r0,#0xd8a
        0x00019670:    f2c00002    ....    MOVT     r0,#2
        0x00019674:    f003fff0    ....    BL       am_util_stdio_printf ; 0x1d658
        0x00019678:    2001        .       MOVS     r0,#1
        0x0001967a:    901d        ..      STR      r0,[sp,#0x74]
        0x0001967c:    e154        T.      B        0x19928 ; am_devices_mspi_is25wx064_init + 1376
        0x0001967e:    9815        ..      LDR      r0,[sp,#0x54]
        0x00019680:    ebc001c0    ....    RSB      r1,r0,r0,LSL #3
        0x00019684:    f6441024    D.$.    MOV      r0,#0x4924
        0x00019688:    f2c10000    ....    MOVT     r0,#0x1000
        0x0001968c:    eb0001c1    ....    ADD      r1,r0,r1,LSL #3
        0x00019690:    2004        .       MOVS     r0,#4
        0x00019692:    f8810029    ..).    STRB     r0,[r1,#0x29]
        0x00019696:    f644325c    D.\2    MOV      r2,#0x4b5c
        0x0001969a:    f2c10200    ....    MOVT     r2,#0x1000
        0x0001969e:    6810        .h      LDR      r0,[r2,#0]
        0x000196a0:    6851        Qh      LDR      r1,[r2,#4]
        0x000196a2:    6892        .h      LDR      r2,[r2,#8]
        0x000196a4:    9210        ..      STR      r2,[sp,#0x40]
        0x000196a6:    910f        ..      STR      r1,[sp,#0x3c]
        0x000196a8:    900e        ..      STR      r0,[sp,#0x38]
        0x000196aa:    981b        ..      LDR      r0,[sp,#0x6c]
        0x000196ac:    6880        .h      LDR      r0,[r0,#8]
        0x000196ae:    900e        ..      STR      r0,[sp,#0x38]
        0x000196b0:    981b        ..      LDR      r0,[sp,#0x6c]
        0x000196b2:    6840        @h      LDR      r0,[r0,#4]
        0x000196b4:    900f        ..      STR      r0,[sp,#0x3c]
        0x000196b6:    9816        ..      LDR      r0,[sp,#0x58]
        0x000196b8:    a90e        ..      ADD      r1,sp,#0x38
        0x000196ba:    f001fe1c    ....    BL       am_hal_mspi_configure ; 0x1b2f6
        0x000196be:    b148        H.      CBZ      r0,0x196d4 ; am_devices_mspi_is25wx064_init + 780
        0x000196c0:    e7ff        ..      B        0x196c2 ; am_devices_mspi_is25wx064_init + 762
        0x000196c2:    f64050eb    @..P    MOV      r0,#0xdeb
        0x000196c6:    f2c00002    ....    MOVT     r0,#2
        0x000196ca:    f003ffc5    ....    BL       am_util_stdio_printf ; 0x1d658
        0x000196ce:    2001        .       MOVS     r0,#1
        0x000196d0:    901d        ..      STR      r0,[sp,#0x74]
        0x000196d2:    e129        ).      B        0x19928 ; am_devices_mspi_is25wx064_init + 1376
        0x000196d4:    9816        ..      LDR      r0,[sp,#0x58]
        0x000196d6:    9915        ..      LDR      r1,[sp,#0x54]
        0x000196d8:    ebc102c1    ....    RSB      r2,r1,r1,LSL #3
        0x000196dc:    f6441124    D.$.    MOV      r1,#0x4924
        0x000196e0:    f2c10100    ....    MOVT     r1,#0x1000
        0x000196e4:    eb0101c2    ....    ADD      r1,r1,r2,LSL #3
        0x000196e8:    311e        .1      ADDS     r1,r1,#0x1e
        0x000196ea:    f002fc67    ..g.    BL       am_hal_mspi_device_configure ; 0x1bfbc
        0x000196ee:    b148        H.      CBZ      r0,0x19704 ; am_devices_mspi_is25wx064_init + 828
        0x000196f0:    e7ff        ..      B        0x196f2 ; am_devices_mspi_is25wx064_init + 810
        0x000196f2:    f6405043    @.CP    MOV      r0,#0xd43
        0x000196f6:    f2c00002    ....    MOVT     r0,#2
        0x000196fa:    f003ffad    ....    BL       am_util_stdio_printf ; 0x1d658
        0x000196fe:    2001        .       MOVS     r0,#1
        0x00019700:    901d        ..      STR      r0,[sp,#0x74]
        0x00019702:    e111        ..      B        0x19928 ; am_devices_mspi_is25wx064_init + 1376
        0x00019704:    9816        ..      LDR      r0,[sp,#0x58]
        0x00019706:    f002fd7f    ....    BL       am_hal_mspi_enable ; 0x1c208
        0x0001970a:    b148        H.      CBZ      r0,0x19720 ; am_devices_mspi_is25wx064_init + 856
        0x0001970c:    e7ff        ..      B        0x1970e ; am_devices_mspi_is25wx064_init + 838
        0x0001970e:    f6405023    @.#P    MOV      r0,#0xd23
        0x00019712:    f2c00002    ....    MOVT     r0,#2
        0x00019716:    f003ff9f    ....    BL       am_util_stdio_printf ; 0x1d658
        0x0001971a:    2001        .       MOVS     r0,#1
        0x0001971c:    901d        ..      STR      r0,[sp,#0x74]
        0x0001971e:    e103        ..      B        0x19928 ; am_devices_mspi_is25wx064_init + 1376
        0x00019720:    981c        ..      LDR      r0,[sp,#0x70]
        0x00019722:    f2400142    @.B.    MOVW     r1,#0x42
        0x00019726:    f2c10100    ....    MOVT     r1,#0x1000
        0x0001972a:    7a09        .z      LDRB     r1,[r1,#8]
        0x0001972c:    f7fefff6    ....    BL       am_bsp_mspi_pins_enable ; 0x1871c
        0x00019730:    e002        ..      B        0x19738 ; am_devices_mspi_is25wx064_init + 880
        0x00019732:    2001        .       MOVS     r0,#1
        0x00019734:    901d        ..      STR      r0,[sp,#0x74]
        0x00019736:    e0f7        ..      B        0x19928 ; am_devices_mspi_is25wx064_init + 1376
        0x00019738:    9916        ..      LDR      r1,[sp,#0x58]
        0x0001973a:    9815        ..      LDR      r0,[sp,#0x54]
        0x0001973c:    ebc002c0    ....    RSB      r2,r0,r0,LSL #3
        0x00019740:    f6441024    D.$.    MOV      r0,#0x4924
        0x00019744:    f2c10000    ....    MOVT     r0,#0x1000
        0x00019748:    eb0002c2    ....    ADD      r2,r0,r2,LSL #3
        0x0001974c:    6051        Q`      STR      r1,[r2,#4]
        0x0001974e:    991c        ..      LDR      r1,[sp,#0x70]
        0x00019750:    9a15        ..      LDR      r2,[sp,#0x54]
        0x00019752:    ebc202c2    ....    RSB      r2,r2,r2,LSL #3
        0x00019756:    f8401032    @.2.    STR      r1,[r0,r2,LSL #3]
        0x0001975a:    9915        ..      LDR      r1,[sp,#0x54]
        0x0001975c:    ebc101c1    ....    RSB      r1,r1,r1,LSL #3
        0x00019760:    eb0000c1    ....    ADD      r0,r0,r1,LSL #3
        0x00019764:    f1000108    ....    ADD      r1,r0,#8
        0x00019768:    f000fd96    ....    BL       am_devices_mspi_is25wx064_reset ; 0x1a298
        0x0001976c:    b118        ..      CBZ      r0,0x19776 ; am_devices_mspi_is25wx064_init + 942
        0x0001976e:    e7ff        ..      B        0x19770 ; am_devices_mspi_is25wx064_init + 936
        0x00019770:    2001        .       MOVS     r0,#1
        0x00019772:    901d        ..      STR      r0,[sp,#0x74]
        0x00019774:    e0d8        ..      B        0x19928 ; am_devices_mspi_is25wx064_init + 1376
        0x00019776:    9815        ..      LDR      r0,[sp,#0x54]
        0x00019778:    ebc001c0    ....    RSB      r1,r0,r0,LSL #3
        0x0001977c:    f6441024    D.$.    MOV      r0,#0x4924
        0x00019780:    f2c10000    ....    MOVT     r0,#0x1000
        0x00019784:    9000        ..      STR      r0,[sp,#0]
        0x00019786:    eb0000c1    ....    ADD      r0,r0,r1,LSL #3
        0x0001978a:    f7fffdad    ....    BL       am_devices_mspi_is25wx064_id ; 0x192e8
        0x0001978e:    9800        ..      LDR      r0,[sp,#0]
        0x00019790:    9915        ..      LDR      r1,[sp,#0x54]
        0x00019792:    ebc101c1    ....    RSB      r1,r1,r1,LSL #3
        0x00019796:    eb0000c1    ....    ADD      r0,r0,r1,LSL #3
        0x0001979a:    9917        ..      LDR      r1,[sp,#0x5c]
        0x0001979c:    f005fb28    ..(.    BL       is25wx064_pre_config ; 0x1edf0
        0x000197a0:    9800        ..      LDR      r0,[sp,#0]
        0x000197a2:    9915        ..      LDR      r1,[sp,#0x54]
        0x000197a4:    ebc101c1    ....    RSB      r1,r1,r1,LSL #3
        0x000197a8:    eb0000c1    ....    ADD      r0,r0,r1,LSL #3
        0x000197ac:    3008        .0      ADDS     r0,r0,#8
        0x000197ae:    9917        ..      LDR      r1,[sp,#0x5c]
        0x000197b0:    2216        ."      MOVS     r2,#0x16
        0x000197b2:    f7fefdf5    ....    BL       __aeabi_memcpy ; 0x183a0
        0x000197b6:    9800        ..      LDR      r0,[sp,#0]
        0x000197b8:    991b        ..      LDR      r1,[sp,#0x6c]
        0x000197ba:    7849        Ix      LDRB     r1,[r1,#1]
        0x000197bc:    9a15        ..      LDR      r2,[sp,#0x54]
        0x000197be:    ebc202c2    ....    RSB      r2,r2,r2,LSL #3
        0x000197c2:    eb0002c2    ....    ADD      r2,r0,r2,LSL #3
        0x000197c6:    74d1        .t      STRB     r1,[r2,#0x13]
        0x000197c8:    9915        ..      LDR      r1,[sp,#0x54]
        0x000197ca:    ebc101c1    ....    RSB      r1,r1,r1,LSL #3
        0x000197ce:    eb0000c1    ....    ADD      r0,r0,r1,LSL #3
        0x000197d2:    f7fffd4b    ..K.    BL       am_devices_mspi_is25wx064_enable_xip ; 0x1926c
        0x000197d6:    9816        ..      LDR      r0,[sp,#0x58]
        0x000197d8:    f002fcce    ....    BL       am_hal_mspi_disable ; 0x1c178
        0x000197dc:    9018        ..      STR      r0,[sp,#0x60]
        0x000197de:    9818        ..      LDR      r0,[sp,#0x60]
        0x000197e0:    b118        ..      CBZ      r0,0x197ea ; am_devices_mspi_is25wx064_init + 1058
        0x000197e2:    e7ff        ..      B        0x197e4 ; am_devices_mspi_is25wx064_init + 1052
        0x000197e4:    2001        .       MOVS     r0,#1
        0x000197e6:    901d        ..      STR      r0,[sp,#0x74]
        0x000197e8:    e09e        ..      B        0x19928 ; am_devices_mspi_is25wx064_init + 1376
        0x000197ea:    9817        ..      LDR      r0,[sp,#0x5c]
        0x000197ec:    7a00        .z      LDRB     r0,[r0,#8]
        0x000197ee:    2808        .(      CMP      r0,#8
        0x000197f0:    d005        ..      BEQ      0x197fe ; am_devices_mspi_is25wx064_init + 1078
        0x000197f2:    e7ff        ..      B        0x197f4 ; am_devices_mspi_is25wx064_init + 1068
        0x000197f4:    9817        ..      LDR      r0,[sp,#0x5c]
        0x000197f6:    7a00        .z      LDRB     r0,[r0,#8]
        0x000197f8:    2809        .(      CMP      r0,#9
        0x000197fa:    d10d        ..      BNE      0x19818 ; am_devices_mspi_is25wx064_init + 1104
        0x000197fc:    e7ff        ..      B        0x197fe ; am_devices_mspi_is25wx064_init + 1078
        0x000197fe:    9816        ..      LDR      r0,[sp,#0x58]
        0x00019800:    210a        .!      MOVS     r1,#0xa
        0x00019802:    2200        ."      MOVS     r2,#0
        0x00019804:    f001fde2    ....    BL       am_hal_mspi_control ; 0x1b3cc
        0x00019808:    9018        ..      STR      r0,[sp,#0x60]
        0x0001980a:    9818        ..      LDR      r0,[sp,#0x60]
        0x0001980c:    b118        ..      CBZ      r0,0x19816 ; am_devices_mspi_is25wx064_init + 1102
        0x0001980e:    e7ff        ..      B        0x19810 ; am_devices_mspi_is25wx064_init + 1096
        0x00019810:    2001        .       MOVS     r0,#1
        0x00019812:    901d        ..      STR      r0,[sp,#0x74]
        0x00019814:    e088        ..      B        0x19928 ; am_devices_mspi_is25wx064_init + 1376
        0x00019816:    e7ff        ..      B        0x19818 ; am_devices_mspi_is25wx064_init + 1104
        0x00019818:    9816        ..      LDR      r0,[sp,#0x58]
        0x0001981a:    9915        ..      LDR      r1,[sp,#0x54]
        0x0001981c:    ebc102c1    ....    RSB      r2,r1,r1,LSL #3
        0x00019820:    f6441124    D.$.    MOV      r1,#0x4924
        0x00019824:    f2c10100    ....    MOVT     r1,#0x1000
        0x00019828:    eb0101c2    ....    ADD      r1,r1,r2,LSL #3
        0x0001982c:    3108        .1      ADDS     r1,r1,#8
        0x0001982e:    f002fbc5    ....    BL       am_hal_mspi_device_configure ; 0x1bfbc
        0x00019832:    9018        ..      STR      r0,[sp,#0x60]
        0x00019834:    9818        ..      LDR      r0,[sp,#0x60]
        0x00019836:    b118        ..      CBZ      r0,0x19840 ; am_devices_mspi_is25wx064_init + 1144
        0x00019838:    e7ff        ..      B        0x1983a ; am_devices_mspi_is25wx064_init + 1138
        0x0001983a:    2001        .       MOVS     r0,#1
        0x0001983c:    901d        ..      STR      r0,[sp,#0x74]
        0x0001983e:    e073        s.      B        0x19928 ; am_devices_mspi_is25wx064_init + 1376
        0x00019840:    981c        ..      LDR      r0,[sp,#0x70]
        0x00019842:    eb000280    ....    ADD      r2,r0,r0,LSL #2
        0x00019846:    f24001a0    @...    MOVW     r1,#0xa0
        0x0001984a:    f2c10100    ....    MOVT     r1,#0x1000
        0x0001984e:    eb010042    ..B.    ADD      r0,r1,r2,LSL #1
        0x00019852:    f8511012    Q...    LDR      r1,[r1,r2,LSL #1]
        0x00019856:    910b        ..      STR      r1,[sp,#0x2c]
        0x00019858:    8901        ..      LDRH     r1,[r0,#8]
        0x0001985a:    f8ad1034    ..4.    STRH     r1,[sp,#0x34]
        0x0001985e:    6840        @h      LDR      r0,[r0,#4]
        0x00019860:    900c        ..      STR      r0,[sp,#0x30]
        0x00019862:    9816        ..      LDR      r0,[sp,#0x58]
        0x00019864:    210b        .!      MOVS     r1,#0xb
        0x00019866:    aa0b        ..      ADD      r2,sp,#0x2c
        0x00019868:    f001fdb0    ....    BL       am_hal_mspi_control ; 0x1b3cc
        0x0001986c:    9018        ..      STR      r0,[sp,#0x60]
        0x0001986e:    9818        ..      LDR      r0,[sp,#0x60]
        0x00019870:    b118        ..      CBZ      r0,0x1987a ; am_devices_mspi_is25wx064_init + 1202
        0x00019872:    e7ff        ..      B        0x19874 ; am_devices_mspi_is25wx064_init + 1196
        0x00019874:    2001        .       MOVS     r0,#1
        0x00019876:    901d        ..      STR      r0,[sp,#0x74]
        0x00019878:    e056        V.      B        0x19928 ; am_devices_mspi_is25wx064_init + 1376
        0x0001987a:    f24001be    @...    MOVW     r1,#0xbe
        0x0001987e:    f2c10100    ....    MOVT     r1,#0x1000
        0x00019882:    8908        ..      LDRH     r0,[r1,#8]
        0x00019884:    f8ad0028    ..(.    STRH     r0,[sp,#0x28]
        0x00019888:    6808        .h      LDR      r0,[r1,#0]
        0x0001988a:    6849        Ih      LDR      r1,[r1,#4]
        0x0001988c:    9109        ..      STR      r1,[sp,#0x24]
        0x0001988e:    9008        ..      STR      r0,[sp,#0x20]
        0x00019890:    9816        ..      LDR      r0,[sp,#0x58]
        0x00019892:    210c        .!      MOVS     r1,#0xc
        0x00019894:    aa08        ..      ADD      r2,sp,#0x20
        0x00019896:    f001fd99    ....    BL       am_hal_mspi_control ; 0x1b3cc
        0x0001989a:    9018        ..      STR      r0,[sp,#0x60]
        0x0001989c:    9818        ..      LDR      r0,[sp,#0x60]
        0x0001989e:    b118        ..      CBZ      r0,0x198a8 ; am_devices_mspi_is25wx064_init + 1248
        0x000198a0:    e7ff        ..      B        0x198a2 ; am_devices_mspi_is25wx064_init + 1242
        0x000198a2:    2001        .       MOVS     r0,#1
        0x000198a4:    901d        ..      STR      r0,[sp,#0x74]
        0x000198a6:    e03f        ?.      B        0x19928 ; am_devices_mspi_is25wx064_init + 1376
        0x000198a8:    9816        ..      LDR      r0,[sp,#0x58]
        0x000198aa:    f002fcad    ....    BL       am_hal_mspi_enable ; 0x1c208
        0x000198ae:    9018        ..      STR      r0,[sp,#0x60]
        0x000198b0:    9818        ..      LDR      r0,[sp,#0x60]
        0x000198b2:    b118        ..      CBZ      r0,0x198bc ; am_devices_mspi_is25wx064_init + 1268
        0x000198b4:    e7ff        ..      B        0x198b6 ; am_devices_mspi_is25wx064_init + 1262
        0x000198b6:    2001        .       MOVS     r0,#1
        0x000198b8:    901d        ..      STR      r0,[sp,#0x74]
        0x000198ba:    e035        5.      B        0x19928 ; am_devices_mspi_is25wx064_init + 1376
        0x000198bc:    981c        ..      LDR      r0,[sp,#0x70]
        0x000198be:    9917        ..      LDR      r1,[sp,#0x5c]
        0x000198c0:    7a09        .z      LDRB     r1,[r1,#8]
        0x000198c2:    f7feff2b    ..+.    BL       am_bsp_mspi_pins_enable ; 0x1871c
        0x000198c6:    9816        ..      LDR      r0,[sp,#0x58]
        0x000198c8:    f44f51d4    O..Q    MOV      r1,#0x1a80
        0x000198cc:    f002fd18    ....    BL       am_hal_mspi_interrupt_clear ; 0x1c300
        0x000198d0:    9018        ..      STR      r0,[sp,#0x60]
        0x000198d2:    9818        ..      LDR      r0,[sp,#0x60]
        0x000198d4:    b118        ..      CBZ      r0,0x198de ; am_devices_mspi_is25wx064_init + 1302
        0x000198d6:    e7ff        ..      B        0x198d8 ; am_devices_mspi_is25wx064_init + 1296
        0x000198d8:    2001        .       MOVS     r0,#1
        0x000198da:    901d        ..      STR      r0,[sp,#0x74]
        0x000198dc:    e024        $.      B        0x19928 ; am_devices_mspi_is25wx064_init + 1376
        0x000198de:    9816        ..      LDR      r0,[sp,#0x58]
        0x000198e0:    f44f51d4    O..Q    MOV      r1,#0x1a80
        0x000198e4:    f002fd39    ..9.    BL       am_hal_mspi_interrupt_enable ; 0x1c35a
        0x000198e8:    9018        ..      STR      r0,[sp,#0x60]
        0x000198ea:    9818        ..      LDR      r0,[sp,#0x60]
        0x000198ec:    b118        ..      CBZ      r0,0x198f6 ; am_devices_mspi_is25wx064_init + 1326
        0x000198ee:    e7ff        ..      B        0x198f0 ; am_devices_mspi_is25wx064_init + 1320
        0x000198f0:    2001        .       MOVS     r0,#1
        0x000198f2:    901d        ..      STR      r0,[sp,#0x74]
        0x000198f4:    e018        ..      B        0x19928 ; am_devices_mspi_is25wx064_init + 1376
        0x000198f6:    9815        ..      LDR      r0,[sp,#0x54]
        0x000198f8:    ebc001c0    ....    RSB      r1,r0,r0,LSL #3
        0x000198fc:    f6441024    D.$.    MOV      r0,#0x4924
        0x00019900:    f2c10000    ....    MOVT     r0,#0x1000
        0x00019904:    eb0002c1    ....    ADD      r2,r0,r1,LSL #3
        0x00019908:    2101        .!      MOVS     r1,#1
        0x0001990a:    f8821034    ..4.    STRB     r1,[r2,#0x34]
        0x0001990e:    9916        ..      LDR      r1,[sp,#0x58]
        0x00019910:    9a19        ..      LDR      r2,[sp,#0x64]
        0x00019912:    6011        .`      STR      r1,[r2,#0]
        0x00019914:    9915        ..      LDR      r1,[sp,#0x54]
        0x00019916:    ebc101c1    ....    RSB      r1,r1,r1,LSL #3
        0x0001991a:    eb0000c1    ....    ADD      r0,r0,r1,LSL #3
        0x0001991e:    991a        ..      LDR      r1,[sp,#0x68]
        0x00019920:    6008        .`      STR      r0,[r1,#0]
        0x00019922:    2000        .       MOVS     r0,#0
        0x00019924:    901d        ..      STR      r0,[sp,#0x74]
        0x00019926:    e7ff        ..      B        0x19928 ; am_devices_mspi_is25wx064_init + 1376
        0x00019928:    981d        ..      LDR      r0,[sp,#0x74]
        0x0001992a:    b01e        ..      ADD      sp,sp,#0x78
        0x0001992c:    bd80        ..      POP      {r7,pc}
        0x0001992e:    0000        ..      MOVS     r0,r0
    am_devices_mspi_is25wx064_init_timing_check
        0x00019930:    b510        ..      PUSH     {r4,lr}
        0x00019932:    f5ad7d56    ..V}    SUB      sp,sp,#0x358
        0x00019936:    90d4        ..      STR      r0,[sp,#0x350]
        0x00019938:    91d3        ..      STR      r1,[sp,#0x34c]
        0x0001993a:    92d2        ..      STR      r2,[sp,#0x348]
        0x0001993c:    a812        ..      ADD      r0,sp,#0x48
        0x0001993e:    f44f713d    O.=q    MOV      r1,#0x2f4
        0x00019942:    f7fefd72    ..r.    BL       __aeabi_memclr4 ; 0x1842a
        0x00019946:    20bd        .       MOVS     r0,#0xbd
        0x00019948:    9011        ..      STR      r0,[sp,#0x44]
        0x0001994a:    f2400074    @.t.    MOVW     r0,#0x74
        0x0001994e:    f2c00002    ....    MOVT     r0,#2
        0x00019952:    8881        ..      LDRH     r1,[r0,#4]
        0x00019954:    f8ad1040    ..@.    STRH     r1,[sp,#0x40]
        0x00019958:    6800        .h      LDR      r0,[r0,#0]
        0x0001995a:    900f        ..      STR      r0,[sp,#0x3c]
        0x0001995c:    f244703e    D.>p    MOV      r0,#0x473e
        0x00019960:    f2c10000    ....    MOVT     r0,#0x1000
        0x00019964:    7800        .x      LDRB     r0,[r0,#0]
        0x00019966:    07c0        ..      LSLS     r0,r0,#31
        0x00019968:    b138        8.      CBZ      r0,0x1997a ; am_devices_mspi_is25wx064_init_timing_check + 74
        0x0001996a:    e7ff        ..      B        0x1996c ; am_devices_mspi_is25wx064_init_timing_check + 60
        0x0001996c:    f244713e    D.>q    MOV      r1,#0x473e
        0x00019970:    f2c10100    ....    MOVT     r1,#0x1000
        0x00019974:    2000        .       MOVS     r0,#0
        0x00019976:    7008        .p      STRB     r0,[r1,#0]
        0x00019978:    e7ff        ..      B        0x1997a ; am_devices_mspi_is25wx064_init_timing_check + 74
        0x0001997a:    98d4        ..      LDR      r0,[sp,#0x350]
        0x0001997c:    99d3        ..      LDR      r1,[sp,#0x34c]
        0x0001997e:    aad0        ..      ADD      r2,sp,#0x340
        0x00019980:    abcf        ..      ADD      r3,sp,#0x33c
        0x00019982:    f7fffd21    ..!.    BL       am_devices_mspi_is25wx064_init ; 0x193c8
        0x00019986:    90d1        ..      STR      r0,[sp,#0x344]
        0x00019988:    98d1        ..      LDR      r0,[sp,#0x344]
        0x0001998a:    b148        H.      CBZ      r0,0x199a0 ; am_devices_mspi_is25wx064_init_timing_check + 112
        0x0001998c:    e7ff        ..      B        0x1998e ; am_devices_mspi_is25wx064_init_timing_check + 94
        0x0001998e:    f64040e5    @..@    MOV      r0,#0xce5
        0x00019992:    f2c00002    ....    MOVT     r0,#2
        0x00019996:    f003fe5f    .._.    BL       am_util_stdio_printf ; 0x1d658
        0x0001999a:    98d1        ..      LDR      r0,[sp,#0x344]
        0x0001999c:    90d5        ..      STR      r0,[sp,#0x354]
        0x0001999e:    e2ca        ..      B        0x19f36 ; am_devices_mspi_is25wx064_init_timing_check + 1542
        0x000199a0:    2000        .       MOVS     r0,#0
        0x000199a2:    9005        ..      STR      r0,[sp,#0x14]
        0x000199a4:    f88d0030    ..0.    STRB     r0,[sp,#0x30]
        0x000199a8:    f88d0031    ..1.    STRB     r0,[sp,#0x31]
        0x000199ac:    f88d0032    ..2.    STRB     r0,[sp,#0x32]
        0x000199b0:    f88d0035    ..5.    STRB     r0,[sp,#0x35]
        0x000199b4:    f88d0036    ..6.    STRB     r0,[sp,#0x36]
        0x000199b8:    f88d0039    ..9.    STRB     r0,[sp,#0x39]
        0x000199bc:    2110        .!      MOVS     r1,#0x10
        0x000199be:    f88d1034    ..4.    STRB     r1,[sp,#0x34]
        0x000199c2:    f88d0033    ..3.    STRB     r0,[sp,#0x33]
        0x000199c6:    98cf        ..      LDR      r0,[sp,#0x33c]
        0x000199c8:    210b        .!      MOVS     r1,#0xb
        0x000199ca:    aa0c        ..      ADD      r2,sp,#0x30
        0x000199cc:    f001fcfe    ....    BL       am_hal_mspi_control ; 0x1b3cc
        0x000199d0:    9805        ..      LDR      r0,[sp,#0x14]
        0x000199d2:    f88d002f    ../.    STRB     r0,[sp,#0x2f]
        0x000199d6:    e7ff        ..      B        0x199d8 ; am_devices_mspi_is25wx064_init_timing_check + 168
        0x000199d8:    f89d002f    ../.    LDRB     r0,[sp,#0x2f]
        0x000199dc:    2800        .(      CMP      r0,#0
        0x000199de:    dc1d        ..      BGT      0x19a1c ; am_devices_mspi_is25wx064_init_timing_check + 236
        0x000199e0:    e7ff        ..      B        0x199e2 ; am_devices_mspi_is25wx064_init_timing_check + 178
        0x000199e2:    98d0        ..      LDR      r0,[sp,#0x340]
        0x000199e4:    f89d202f    ../     LDRB     r2,[sp,#0x2f]
        0x000199e8:    f44f01fc    O...    MOV      r1,#0x7e0000
        0x000199ec:    eb014142    ..BA    ADD      r1,r1,r2,LSL #17
        0x000199f0:    f000fcca    ....    BL       am_devices_mspi_is25wx064_sector_erase ; 0x1a388
        0x000199f4:    90d1        ..      STR      r0,[sp,#0x344]
        0x000199f6:    98d1        ..      LDR      r0,[sp,#0x344]
        0x000199f8:    b148        H.      CBZ      r0,0x19a0e ; am_devices_mspi_is25wx064_init_timing_check + 222
        0x000199fa:    e7ff        ..      B        0x199fc ; am_devices_mspi_is25wx064_init_timing_check + 204
        0x000199fc:    f240702a    @.*p    MOV      r0,#0x72a
        0x00019a00:    f2c00002    ....    MOVT     r0,#2
        0x00019a04:    f003fe28    ..(.    BL       am_util_stdio_printf ; 0x1d658
        0x00019a08:    2001        .       MOVS     r0,#1
        0x00019a0a:    90d5        ..      STR      r0,[sp,#0x354]
        0x00019a0c:    e293        ..      B        0x19f36 ; am_devices_mspi_is25wx064_init_timing_check + 1542
        0x00019a0e:    e7ff        ..      B        0x19a10 ; am_devices_mspi_is25wx064_init_timing_check + 224
        0x00019a10:    f89d002f    ../.    LDRB     r0,[sp,#0x2f]
        0x00019a14:    3001        .0      ADDS     r0,#1
        0x00019a16:    f88d002f    ../.    STRB     r0,[sp,#0x2f]
        0x00019a1a:    e7dd        ..      B        0x199d8 ; am_devices_mspi_is25wx064_init_timing_check + 168
        0x00019a1c:    98d0        ..      LDR      r0,[sp,#0x340]
        0x00019a1e:    f44f3100    O..1    MOV      r1,#0x20000
        0x00019a22:    f005f81f    ....    BL       flash_write ; 0x1ea64
        0x00019a26:    b118        ..      CBZ      r0,0x19a30 ; am_devices_mspi_is25wx064_init_timing_check + 256
        0x00019a28:    e7ff        ..      B        0x19a2a ; am_devices_mspi_is25wx064_init_timing_check + 250
        0x00019a2a:    2001        .       MOVS     r0,#1
        0x00019a2c:    90d5        ..      STR      r0,[sp,#0x354]
        0x00019a2e:    e282        ..      B        0x19f36 ; am_devices_mspi_is25wx064_init_timing_check + 1542
        0x00019a30:    f64040b6    @..@    MOV      r0,#0xcb6
        0x00019a34:    f2c00002    ....    MOVT     r0,#2
        0x00019a38:    f003fe0e    ....    BL       am_util_stdio_printf ; 0x1d658
        0x00019a3c:    f64060d4    @..`    MOV      r0,#0xed4
        0x00019a40:    f2c00002    ....    MOVT     r0,#2
        0x00019a44:    f003fe08    ....    BL       am_util_stdio_printf ; 0x1d658
        0x00019a48:    2000        .       MOVS     r0,#0
        0x00019a4a:    f88d002e    ....    STRB     r0,[sp,#0x2e]
        0x00019a4e:    e7ff        ..      B        0x19a50 ; am_devices_mspi_is25wx064_init_timing_check + 288
        0x00019a50:    f89d002e    ....    LDRB     r0,[sp,#0x2e]
        0x00019a54:    28bc        .(      CMP      r0,#0xbc
        0x00019a56:    f20080ca    ....    BHI.W    0x19bee ; am_devices_mspi_is25wx064_init_timing_check + 702
        0x00019a5a:    e7ff        ..      B        0x19a5c ; am_devices_mspi_is25wx064_init_timing_check + 300
        0x00019a5c:    f89d002e    ....    LDRB     r0,[sp,#0x2e]
        0x00019a60:    0780        ..      LSLS     r0,r0,#30
        0x00019a62:    b938        8.      CBNZ     r0,0x19a74 ; am_devices_mspi_is25wx064_init_timing_check + 324
        0x00019a64:    e7ff        ..      B        0x19a66 ; am_devices_mspi_is25wx064_init_timing_check + 310
        0x00019a66:    f64060e5    @..`    MOV      r0,#0xee5
        0x00019a6a:    f2c00002    ....    MOVT     r0,#2
        0x00019a6e:    f003fdf3    ....    BL       am_util_stdio_printf ; 0x1d658
        0x00019a72:    e7ff        ..      B        0x19a74 ; am_devices_mspi_is25wx064_init_timing_check + 324
        0x00019a74:    f89d002e    ....    LDRB     r0,[sp,#0x2e]
        0x00019a78:    eb000140    ..@.    ADD      r1,r0,r0,LSL #1
        0x00019a7c:    f24010ec    @...    MOVW     r0,#0x1ec
        0x00019a80:    f2c10000    ....    MOVT     r0,#0x1000
        0x00019a84:    f8101011    ....    LDRB     r1,[r0,r1,LSL #1]
        0x00019a88:    f0010101    ....    AND      r1,r1,#1
        0x00019a8c:    f88d103c    ..<.    STRB     r1,[sp,#0x3c]
        0x00019a90:    f89d102e    ....    LDRB     r1,[sp,#0x2e]
        0x00019a94:    eb010141    ..A.    ADD      r1,r1,r1,LSL #1
        0x00019a98:    eb000141    ..A.    ADD      r1,r0,r1,LSL #1
        0x00019a9c:    7849        Ix      LDRB     r1,[r1,#1]
        0x00019a9e:    f0010101    ....    AND      r1,r1,#1
        0x00019aa2:    f88d103d    ..=.    STRB     r1,[sp,#0x3d]
        0x00019aa6:    f89d102e    ....    LDRB     r1,[sp,#0x2e]
        0x00019aaa:    eb010141    ..A.    ADD      r1,r1,r1,LSL #1
        0x00019aae:    eb000141    ..A.    ADD      r1,r0,r1,LSL #1
        0x00019ab2:    7889        .x      LDRB     r1,[r1,#2]
        0x00019ab4:    f0010101    ....    AND      r1,r1,#1
        0x00019ab8:    f88d103e    ..>.    STRB     r1,[sp,#0x3e]
        0x00019abc:    f89d102e    ....    LDRB     r1,[sp,#0x2e]
        0x00019ac0:    eb010141    ..A.    ADD      r1,r1,r1,LSL #1
        0x00019ac4:    eb000041    ..A.    ADD      r0,r0,r1,LSL #1
        0x00019ac8:    78c0        .x      LDRB     r0,[r0,#3]
        0x00019aca:    f88d003f    ..?.    STRB     r0,[sp,#0x3f]
        0x00019ace:    98d3        ..      LDR      r0,[sp,#0x34c]
        0x00019ad0:    7800        .x      LDRB     r0,[r0,#0]
        0x00019ad2:    2808        .(      CMP      r0,#8
        0x00019ad4:    d005        ..      BEQ      0x19ae2 ; am_devices_mspi_is25wx064_init_timing_check + 434
        0x00019ad6:    e7ff        ..      B        0x19ad8 ; am_devices_mspi_is25wx064_init_timing_check + 424
        0x00019ad8:    98d3        ..      LDR      r0,[sp,#0x34c]
        0x00019ada:    7800        .x      LDRB     r0,[r0,#0]
        0x00019adc:    2809        .(      CMP      r0,#9
        0x00019ade:    d10e        ..      BNE      0x19afe ; am_devices_mspi_is25wx064_init_timing_check + 462
        0x00019ae0:    e7ff        ..      B        0x19ae2 ; am_devices_mspi_is25wx064_init_timing_check + 434
        0x00019ae2:    f89d002e    ....    LDRB     r0,[sp,#0x2e]
        0x00019ae6:    eb000140    ..@.    ADD      r1,r0,r0,LSL #1
        0x00019aea:    f24010ec    @...    MOVW     r0,#0x1ec
        0x00019aee:    f2c10000    ....    MOVT     r0,#0x1000
        0x00019af2:    eb000041    ..A.    ADD      r0,r0,r1,LSL #1
        0x00019af6:    7940        @y      LDRB     r0,[r0,#5]
        0x00019af8:    f88d0041    ..A.    STRB     r0,[sp,#0x41]
        0x00019afc:    e03a        :.      B        0x19b74 ; am_devices_mspi_is25wx064_init_timing_check + 580
        0x00019afe:    f89d002e    ....    LDRB     r0,[sp,#0x2e]
        0x00019b02:    eb000140    ..@.    ADD      r1,r0,r0,LSL #1
        0x00019b06:    f24010ec    @...    MOVW     r0,#0x1ec
        0x00019b0a:    f2c10000    ....    MOVT     r0,#0x1000
        0x00019b0e:    eb000041    ..A.    ADD      r0,r0,r1,LSL #1
        0x00019b12:    7940        @y      LDRB     r0,[r0,#5]
        0x00019b14:    07c0        ..      LSLS     r0,r0,#31
        0x00019b16:    b108        ..      CBZ      r0,0x19b1c ; am_devices_mspi_is25wx064_init_timing_check + 492
        0x00019b18:    e7ff        ..      B        0x19b1a ; am_devices_mspi_is25wx064_init_timing_check + 490
        0x00019b1a:    e062        b.      B        0x19be2 ; am_devices_mspi_is25wx064_init_timing_check + 690
        0x00019b1c:    f89d002e    ....    LDRB     r0,[sp,#0x2e]
        0x00019b20:    eb000140    ..@.    ADD      r1,r0,r0,LSL #1
        0x00019b24:    f24010ec    @...    MOVW     r0,#0x1ec
        0x00019b28:    f2c10000    ....    MOVT     r0,#0x1000
        0x00019b2c:    eb000041    ..A.    ADD      r0,r0,r1,LSL #1
        0x00019b30:    7940        @y      LDRB     r0,[r0,#5]
        0x00019b32:    0840        @.      LSRS     r0,r0,#1
        0x00019b34:    f88d0041    ..A.    STRB     r0,[sp,#0x41]
        0x00019b38:    98d3        ..      LDR      r0,[sp,#0x34c]
        0x00019b3a:    7800        .x      LDRB     r0,[r0,#0]
        0x00019b3c:    2818        .(      CMP      r0,#0x18
        0x00019b3e:    d005        ..      BEQ      0x19b4c ; am_devices_mspi_is25wx064_init_timing_check + 540
        0x00019b40:    e7ff        ..      B        0x19b42 ; am_devices_mspi_is25wx064_init_timing_check + 530
        0x00019b42:    98d3        ..      LDR      r0,[sp,#0x34c]
        0x00019b44:    7800        .x      LDRB     r0,[r0,#0]
        0x00019b46:    2819        .(      CMP      r0,#0x19
        0x00019b48:    d107        ..      BNE      0x19b5a ; am_devices_mspi_is25wx064_init_timing_check + 554
        0x00019b4a:    e7ff        ..      B        0x19b4c ; am_devices_mspi_is25wx064_init_timing_check + 540
        0x00019b4c:    f89d0041    ..A.    LDRB     r0,[sp,#0x41]
        0x00019b50:    2810        .(      CMP      r0,#0x10
        0x00019b52:    d001        ..      BEQ      0x19b58 ; am_devices_mspi_is25wx064_init_timing_check + 552
        0x00019b54:    e7ff        ..      B        0x19b56 ; am_devices_mspi_is25wx064_init_timing_check + 550
        0x00019b56:    e044        D.      B        0x19be2 ; am_devices_mspi_is25wx064_init_timing_check + 690
        0x00019b58:    e00b        ..      B        0x19b72 ; am_devices_mspi_is25wx064_init_timing_check + 578
        0x00019b5a:    f89d0041    ..A.    LDRB     r0,[sp,#0x41]
        0x00019b5e:    0840        @.      LSRS     r0,r0,#1
        0x00019b60:    f88d0041    ..A.    STRB     r0,[sp,#0x41]
        0x00019b64:    f89d0041    ..A.    LDRB     r0,[sp,#0x41]
        0x00019b68:    2808        .(      CMP      r0,#8
        0x00019b6a:    d001        ..      BEQ      0x19b70 ; am_devices_mspi_is25wx064_init_timing_check + 576
        0x00019b6c:    e7ff        ..      B        0x19b6e ; am_devices_mspi_is25wx064_init_timing_check + 574
        0x00019b6e:    e038        8.      B        0x19be2 ; am_devices_mspi_is25wx064_init_timing_check + 690
        0x00019b70:    e7ff        ..      B        0x19b72 ; am_devices_mspi_is25wx064_init_timing_check + 578
        0x00019b72:    e7ff        ..      B        0x19b74 ; am_devices_mspi_is25wx064_init_timing_check + 580
        0x00019b74:    2000        .       MOVS     r0,#0
        0x00019b76:    f88d002d    ..-.    STRB     r0,[sp,#0x2d]
        0x00019b7a:    e7ff        ..      B        0x19b7c ; am_devices_mspi_is25wx064_init_timing_check + 588
        0x00019b7c:    f89d002d    ..-.    LDRB     r0,[sp,#0x2d]
        0x00019b80:    281f        .(      CMP      r0,#0x1f
        0x00019b82:    dc2d        -.      BGT      0x19be0 ; am_devices_mspi_is25wx064_init_timing_check + 688
        0x00019b84:    e7ff        ..      B        0x19b86 ; am_devices_mspi_is25wx064_init_timing_check + 598
        0x00019b86:    f89d002d    ..-.    LDRB     r0,[sp,#0x2d]
        0x00019b8a:    f88d0040    ..@.    STRB     r0,[sp,#0x40]
        0x00019b8e:    98cf        ..      LDR      r0,[sp,#0x33c]
        0x00019b90:    210d        .!      MOVS     r1,#0xd
        0x00019b92:    aa0f        ..      ADD      r2,sp,#0x3c
        0x00019b94:    f001fc1a    ....    BL       am_hal_mspi_control ; 0x1b3cc
        0x00019b98:    90d1        ..      STR      r0,[sp,#0x344]
        0x00019b9a:    98d1        ..      LDR      r0,[sp,#0x344]
        0x00019b9c:    b118        ..      CBZ      r0,0x19ba6 ; am_devices_mspi_is25wx064_init_timing_check + 630
        0x00019b9e:    e7ff        ..      B        0x19ba0 ; am_devices_mspi_is25wx064_init_timing_check + 624
        0x00019ba0:    2001        .       MOVS     r0,#1
        0x00019ba2:    90d5        ..      STR      r0,[sp,#0x354]
        0x00019ba4:    e1c7        ..      B        0x19f36 ; am_devices_mspi_is25wx064_init_timing_check + 1542
        0x00019ba6:    98d0        ..      LDR      r0,[sp,#0x340]
        0x00019ba8:    f44f3100    O..1    MOV      r1,#0x20000
        0x00019bac:    f004feec    ....    BL       flash_check ; 0x1e988
        0x00019bb0:    b970        p.      CBNZ     r0,0x19bd0 ; am_devices_mspi_is25wx064_init_timing_check + 672
        0x00019bb2:    e7ff        ..      B        0x19bb4 ; am_devices_mspi_is25wx064_init_timing_check + 644
        0x00019bb4:    f89d102d    ..-.    LDRB     r1,[sp,#0x2d]
        0x00019bb8:    2001        .       MOVS     r0,#1
        0x00019bba:    fa00f301    ....    LSL      r3,r0,r1
        0x00019bbe:    f89d202e    ...     LDRB     r2,[sp,#0x2e]
        0x00019bc2:    a912        ..      ADD      r1,sp,#0x48
        0x00019bc4:    f8510022    Q.".    LDR      r0,[r1,r2,LSL #2]
        0x00019bc8:    4318        .C      ORRS     r0,r0,r3
        0x00019bca:    f8410022    A.".    STR      r0,[r1,r2,LSL #2]
        0x00019bce:    e000        ..      B        0x19bd2 ; am_devices_mspi_is25wx064_init_timing_check + 674
        0x00019bd0:    e7ff        ..      B        0x19bd2 ; am_devices_mspi_is25wx064_init_timing_check + 674
        0x00019bd2:    e7ff        ..      B        0x19bd4 ; am_devices_mspi_is25wx064_init_timing_check + 676
        0x00019bd4:    f89d002d    ..-.    LDRB     r0,[sp,#0x2d]
        0x00019bd8:    3001        .0      ADDS     r0,#1
        0x00019bda:    f88d002d    ..-.    STRB     r0,[sp,#0x2d]
        0x00019bde:    e7cd        ..      B        0x19b7c ; am_devices_mspi_is25wx064_init_timing_check + 588
        0x00019be0:    e7ff        ..      B        0x19be2 ; am_devices_mspi_is25wx064_init_timing_check + 690
        0x00019be2:    f89d002e    ....    LDRB     r0,[sp,#0x2e]
        0x00019be6:    3001        .0      ADDS     r0,#1
        0x00019be8:    f88d002e    ....    STRB     r0,[sp,#0x2e]
        0x00019bec:    e730        0.      B        0x19a50 ; am_devices_mspi_is25wx064_init_timing_check + 288
        0x00019bee:    f64060d2    @..`    MOV      r0,#0xed2
        0x00019bf2:    f2c00002    ....    MOVT     r0,#2
        0x00019bf6:    f003fd2f    ../.    BL       am_util_stdio_printf ; 0x1d658
        0x00019bfa:    2000        .       MOVS     r0,#0
        0x00019bfc:    900a        ..      STR      r0,[sp,#0x28]
        0x00019bfe:    9009        ..      STR      r0,[sp,#0x24]
        0x00019c00:    9008        ..      STR      r0,[sp,#0x20]
        0x00019c02:    9007        ..      STR      r0,[sp,#0x1c]
        0x00019c04:    e7ff        ..      B        0x19c06 ; am_devices_mspi_is25wx064_init_timing_check + 726
        0x00019c06:    9807        ..      LDR      r0,[sp,#0x1c]
        0x00019c08:    28bc        .(      CMP      r0,#0xbc
        0x00019c0a:    d840        @.      BHI      0x19c8e ; am_devices_mspi_is25wx064_init_timing_check + 862
        0x00019c0c:    e7ff        ..      B        0x19c0e ; am_devices_mspi_is25wx064_init_timing_check + 734
        0x00019c0e:    9907        ..      LDR      r1,[sp,#0x1c]
        0x00019c10:    a812        ..      ADD      r0,sp,#0x48
        0x00019c12:    eb000081    ....    ADD      r0,r0,r1,LSL #2
        0x00019c16:    f004fc99    ....    BL       count_consecutive_ones ; 0x1e54c
        0x00019c1a:    9008        ..      STR      r0,[sp,#0x20]
        0x00019c1c:    9808        ..      LDR      r0,[sp,#0x20]
        0x00019c1e:    9909        ..      LDR      r1,[sp,#0x24]
        0x00019c20:    4288        .B      CMP      r0,r1
        0x00019c22:    d905        ..      BLS      0x19c30 ; am_devices_mspi_is25wx064_init_timing_check + 768
        0x00019c24:    e7ff        ..      B        0x19c26 ; am_devices_mspi_is25wx064_init_timing_check + 758
        0x00019c26:    9808        ..      LDR      r0,[sp,#0x20]
        0x00019c28:    9009        ..      STR      r0,[sp,#0x24]
        0x00019c2a:    9807        ..      LDR      r0,[sp,#0x1c]
        0x00019c2c:    900a        ..      STR      r0,[sp,#0x28]
        0x00019c2e:    e7ff        ..      B        0x19c30 ; am_devices_mspi_is25wx064_init_timing_check + 768
        0x00019c30:    9c07        ..      LDR      r4,[sp,#0x1c]
        0x00019c32:    eb040144    ..D.    ADD      r1,r4,r4,LSL #1
        0x00019c36:    f24010ec    @...    MOVW     r0,#0x1ec
        0x00019c3a:    f2c10000    ....    MOVT     r0,#0x1000
        0x00019c3e:    eb000c41    ..A.    ADD      r12,r0,r1,LSL #1
        0x00019c42:    f8100011    ....    LDRB     r0,[r0,r1,LSL #1]
        0x00019c46:    f0000101    ....    AND      r1,r0,#1
        0x00019c4a:    f89c2001    ...     LDRB     r2,[r12,#1]
        0x00019c4e:    f89c3002    ...0    LDRB     r3,[r12,#2]
        0x00019c52:    f89c0003    ....    LDRB     r0,[r12,#3]
        0x00019c56:    f89ce005    ....    LDRB     lr,[r12,#5]
        0x00019c5a:    f0020201    ....    AND      r2,r2,#1
        0x00019c5e:    f0030301    ....    AND      r3,r3,#1
        0x00019c62:    f10d0c48    ..H.    ADD      r12,sp,#0x48
        0x00019c66:    f85c4024    \.$@    LDR      r4,[r12,r4,LSL #2]
        0x00019c6a:    46ec        .F      MOV      r12,sp
        0x00019c6c:    f8cc4008    ...@    STR      r4,[r12,#8]
        0x00019c70:    f8cce004    ....    STR      lr,[r12,#4]
        0x00019c74:    f8cc0000    ....    STR      r0,[r12,#0]
        0x00019c78:    f6406058    @.X`    MOV      r0,#0xe58
        0x00019c7c:    f2c00002    ....    MOVT     r0,#2
        0x00019c80:    f003fcea    ....    BL       am_util_stdio_printf ; 0x1d658
        0x00019c84:    e7ff        ..      B        0x19c86 ; am_devices_mspi_is25wx064_init_timing_check + 854
        0x00019c86:    9807        ..      LDR      r0,[sp,#0x1c]
        0x00019c88:    3001        .0      ADDS     r0,#1
        0x00019c8a:    9007        ..      STR      r0,[sp,#0x1c]
        0x00019c8c:    e7bb        ..      B        0x19c06 ; am_devices_mspi_is25wx064_init_timing_check + 726
        0x00019c8e:    9909        ..      LDR      r1,[sp,#0x24]
        0x00019c90:    9a0a        ..      LDR      r2,[sp,#0x28]
        0x00019c92:    f64050ac    @..P    MOV      r0,#0xdac
        0x00019c96:    f2c00002    ....    MOVT     r0,#2
        0x00019c9a:    f003fcdd    ....    BL       am_util_stdio_printf ; 0x1d658
        0x00019c9e:    9c0a        ..      LDR      r4,[sp,#0x28]
        0x00019ca0:    eb040144    ..D.    ADD      r1,r4,r4,LSL #1
        0x00019ca4:    f24010ec    @...    MOVW     r0,#0x1ec
        0x00019ca8:    f2c10000    ....    MOVT     r0,#0x1000
        0x00019cac:    eb000c41    ..A.    ADD      r12,r0,r1,LSL #1
        0x00019cb0:    f8100011    ....    LDRB     r0,[r0,r1,LSL #1]
        0x00019cb4:    f0000101    ....    AND      r1,r0,#1
        0x00019cb8:    f89c2001    ...     LDRB     r2,[r12,#1]
        0x00019cbc:    f89c3002    ...0    LDRB     r3,[r12,#2]
        0x00019cc0:    f89c0003    ....    LDRB     r0,[r12,#3]
        0x00019cc4:    f89ce005    ....    LDRB     lr,[r12,#5]
        0x00019cc8:    f0020201    ....    AND      r2,r2,#1
        0x00019ccc:    f0030301    ....    AND      r3,r3,#1
        0x00019cd0:    f10d0c48    ..H.    ADD      r12,sp,#0x48
        0x00019cd4:    f8cdc010    ....    STR      r12,[sp,#0x10]
        0x00019cd8:    f85c4024    \.$@    LDR      r4,[r12,r4,LSL #2]
        0x00019cdc:    46ec        .F      MOV      r12,sp
        0x00019cde:    f8cc4008    ...@    STR      r4,[r12,#8]
        0x00019ce2:    f8cce004    ....    STR      lr,[r12,#4]
        0x00019ce6:    f8cc0000    ....    STR      r0,[r12,#0]
        0x00019cea:    f6406058    @.X`    MOV      r0,#0xe58
        0x00019cee:    f2c00002    ....    MOVT     r0,#2
        0x00019cf2:    f003fcb1    ....    BL       am_util_stdio_printf ; 0x1d658
        0x00019cf6:    9804        ..      LDR      r0,[sp,#0x10]
        0x00019cf8:    990a        ..      LDR      r1,[sp,#0x28]
        0x00019cfa:    eb000081    ....    ADD      r0,r0,r1,LSL #2
        0x00019cfe:    f004fdc1    ....    BL       find_mid_point ; 0x1e884
        0x00019d02:    9006        ..      STR      r0,[sp,#0x18]
        0x00019d04:    9906        ..      LDR      r1,[sp,#0x18]
        0x00019d06:    f640408b    @..@    MOV      r0,#0xc8b
        0x00019d0a:    f2c00002    ....    MOVT     r0,#2
        0x00019d0e:    f003fca3    ....    BL       am_util_stdio_printf ; 0x1d658
        0x00019d12:    98d0        ..      LDR      r0,[sp,#0x340]
        0x00019d14:    f7fff9d6    ....    BL       am_devices_mspi_is25wx064_deinit ; 0x190c4
        0x00019d18:    99d4        ..      LDR      r1,[sp,#0x350]
        0x00019d1a:    f24040ab    @..@    MOV      r0,#0x4ab
        0x00019d1e:    f2c00002    ....    MOVT     r0,#2
        0x00019d22:    5640        @V      LDRSB    r0,[r0,r1]
        0x00019d24:    f7fefc44    ..D.    BL       __NVIC_ClearPendingIRQ ; 0x185b0
        0x00019d28:    9809        ..      LDR      r0,[sp,#0x24]
        0x00019d2a:    2807        .(      CMP      r0,#7
        0x00019d2c:    d86c        l.      BHI      0x19e08 ; am_devices_mspi_is25wx064_init_timing_check + 1240
        0x00019d2e:    e7ff        ..      B        0x19d30 ; am_devices_mspi_is25wx064_init_timing_check + 1024
        0x00019d30:    f24060ce    @..`    MOV      r0,#0x6ce
        0x00019d34:    f2c10000    ....    MOVT     r0,#0x1000
        0x00019d38:    7801        .x      LDRB     r1,[r0,#0]
        0x00019d3a:    9ad2        ..      LDR      r2,[sp,#0x348]
        0x00019d3c:    f0010101    ....    AND      r1,r1,#1
        0x00019d40:    7011        .p      STRB     r1,[r2,#0]
        0x00019d42:    7841        Ax      LDRB     r1,[r0,#1]
        0x00019d44:    9ad2        ..      LDR      r2,[sp,#0x348]
        0x00019d46:    f0010101    ....    AND      r1,r1,#1
        0x00019d4a:    7051        Qp      STRB     r1,[r2,#1]
        0x00019d4c:    7881        .x      LDRB     r1,[r0,#2]
        0x00019d4e:    9ad2        ..      LDR      r2,[sp,#0x348]
        0x00019d50:    f0010101    ....    AND      r1,r1,#1
        0x00019d54:    7091        .p      STRB     r1,[r2,#2]
        0x00019d56:    78c1        .x      LDRB     r1,[r0,#3]
        0x00019d58:    9ad2        ..      LDR      r2,[sp,#0x348]
        0x00019d5a:    70d1        .p      STRB     r1,[r2,#3]
        0x00019d5c:    7900        .y      LDRB     r0,[r0,#4]
        0x00019d5e:    99d2        ..      LDR      r1,[sp,#0x348]
        0x00019d60:    7108        .q      STRB     r0,[r1,#4]
        0x00019d62:    98d3        ..      LDR      r0,[sp,#0x34c]
        0x00019d64:    7800        .x      LDRB     r0,[r0,#0]
        0x00019d66:    2808        .(      CMP      r0,#8
        0x00019d68:    d005        ..      BEQ      0x19d76 ; am_devices_mspi_is25wx064_init_timing_check + 1094
        0x00019d6a:    e7ff        ..      B        0x19d6c ; am_devices_mspi_is25wx064_init_timing_check + 1084
        0x00019d6c:    98d3        ..      LDR      r0,[sp,#0x34c]
        0x00019d6e:    7800        .x      LDRB     r0,[r0,#0]
        0x00019d70:    2809        .(      CMP      r0,#9
        0x00019d72:    d108        ..      BNE      0x19d86 ; am_devices_mspi_is25wx064_init_timing_check + 1110
        0x00019d74:    e7ff        ..      B        0x19d76 ; am_devices_mspi_is25wx064_init_timing_check + 1094
        0x00019d76:    f24060ce    @..`    MOV      r0,#0x6ce
        0x00019d7a:    f2c10000    ....    MOVT     r0,#0x1000
        0x00019d7e:    7940        @y      LDRB     r0,[r0,#5]
        0x00019d80:    99d2        ..      LDR      r1,[sp,#0x348]
        0x00019d82:    7148        Hq      STRB     r0,[r1,#5]
        0x00019d84:    e01c        ..      B        0x19dc0 ; am_devices_mspi_is25wx064_init_timing_check + 1168
        0x00019d86:    98d3        ..      LDR      r0,[sp,#0x34c]
        0x00019d88:    7800        .x      LDRB     r0,[r0,#0]
        0x00019d8a:    2818        .(      CMP      r0,#0x18
        0x00019d8c:    d005        ..      BEQ      0x19d9a ; am_devices_mspi_is25wx064_init_timing_check + 1130
        0x00019d8e:    e7ff        ..      B        0x19d90 ; am_devices_mspi_is25wx064_init_timing_check + 1120
        0x00019d90:    98d3        ..      LDR      r0,[sp,#0x34c]
        0x00019d92:    7800        .x      LDRB     r0,[r0,#0]
        0x00019d94:    2819        .(      CMP      r0,#0x19
        0x00019d96:    d109        ..      BNE      0x19dac ; am_devices_mspi_is25wx064_init_timing_check + 1148
        0x00019d98:    e7ff        ..      B        0x19d9a ; am_devices_mspi_is25wx064_init_timing_check + 1130
        0x00019d9a:    f24060ce    @..`    MOV      r0,#0x6ce
        0x00019d9e:    f2c10000    ....    MOVT     r0,#0x1000
        0x00019da2:    7940        @y      LDRB     r0,[r0,#5]
        0x00019da4:    0840        @.      LSRS     r0,r0,#1
        0x00019da6:    99d2        ..      LDR      r1,[sp,#0x348]
        0x00019da8:    7148        Hq      STRB     r0,[r1,#5]
        0x00019daa:    e008        ..      B        0x19dbe ; am_devices_mspi_is25wx064_init_timing_check + 1166
        0x00019dac:    f24060ce    @..`    MOV      r0,#0x6ce
        0x00019db0:    f2c10000    ....    MOVT     r0,#0x1000
        0x00019db4:    7940        @y      LDRB     r0,[r0,#5]
        0x00019db6:    0880        ..      LSRS     r0,r0,#2
        0x00019db8:    99d2        ..      LDR      r1,[sp,#0x348]
        0x00019dba:    7148        Hq      STRB     r0,[r1,#5]
        0x00019dbc:    e7ff        ..      B        0x19dbe ; am_devices_mspi_is25wx064_init_timing_check + 1166
        0x00019dbe:    e7ff        ..      B        0x19dc0 ; am_devices_mspi_is25wx064_init_timing_check + 1168
        0x00019dc0:    f244713e    D.>q    MOV      r1,#0x473e
        0x00019dc4:    f2c10100    ....    MOVT     r1,#0x1000
        0x00019dc8:    2001        .       MOVS     r0,#1
        0x00019dca:    7008        .p      STRB     r0,[r1,#0]
        0x00019dcc:    99d2        ..      LDR      r1,[sp,#0x348]
        0x00019dce:    7809        .x      LDRB     r1,[r1,#0]
        0x00019dd0:    f0010101    ....    AND      r1,r1,#1
        0x00019dd4:    f64812f4    H...    MOV      r2,#0x89f4
        0x00019dd8:    f2c10200    ....    MOVT     r2,#0x1000
        0x00019ddc:    7011        .p      STRB     r1,[r2,#0]
        0x00019dde:    99d2        ..      LDR      r1,[sp,#0x348]
        0x00019de0:    7849        Ix      LDRB     r1,[r1,#1]
        0x00019de2:    f0010101    ....    AND      r1,r1,#1
        0x00019de6:    7051        Qp      STRB     r1,[r2,#1]
        0x00019de8:    99d2        ..      LDR      r1,[sp,#0x348]
        0x00019dea:    7889        .x      LDRB     r1,[r1,#2]
        0x00019dec:    f0010101    ....    AND      r1,r1,#1
        0x00019df0:    7091        .p      STRB     r1,[r2,#2]
        0x00019df2:    99d2        ..      LDR      r1,[sp,#0x348]
        0x00019df4:    78c9        .x      LDRB     r1,[r1,#3]
        0x00019df6:    70d1        .p      STRB     r1,[r2,#3]
        0x00019df8:    99d2        ..      LDR      r1,[sp,#0x348]
        0x00019dfa:    7909        .y      LDRB     r1,[r1,#4]
        0x00019dfc:    7111        .q      STRB     r1,[r2,#4]
        0x00019dfe:    99d2        ..      LDR      r1,[sp,#0x348]
        0x00019e00:    7949        Iy      LDRB     r1,[r1,#5]
        0x00019e02:    7151        Qq      STRB     r1,[r2,#5]
        0x00019e04:    90d5        ..      STR      r0,[sp,#0x354]
        0x00019e06:    e096        ..      B        0x19f36 ; am_devices_mspi_is25wx064_init_timing_check + 1542
        0x00019e08:    9806        ..      LDR      r0,[sp,#0x18]
        0x00019e0a:    99d2        ..      LDR      r1,[sp,#0x348]
        0x00019e0c:    7108        .q      STRB     r0,[r1,#4]
        0x00019e0e:    980a        ..      LDR      r0,[sp,#0x28]
        0x00019e10:    eb000140    ..@.    ADD      r1,r0,r0,LSL #1
        0x00019e14:    f24010ec    @...    MOVW     r0,#0x1ec
        0x00019e18:    f2c10000    ....    MOVT     r0,#0x1000
        0x00019e1c:    f8101011    ....    LDRB     r1,[r0,r1,LSL #1]
        0x00019e20:    9ad2        ..      LDR      r2,[sp,#0x348]
        0x00019e22:    f0010101    ....    AND      r1,r1,#1
        0x00019e26:    7011        .p      STRB     r1,[r2,#0]
        0x00019e28:    990a        ..      LDR      r1,[sp,#0x28]
        0x00019e2a:    eb010141    ..A.    ADD      r1,r1,r1,LSL #1
        0x00019e2e:    eb000141    ..A.    ADD      r1,r0,r1,LSL #1
        0x00019e32:    7849        Ix      LDRB     r1,[r1,#1]
        0x00019e34:    9ad2        ..      LDR      r2,[sp,#0x348]
        0x00019e36:    f0010101    ....    AND      r1,r1,#1
        0x00019e3a:    7051        Qp      STRB     r1,[r2,#1]
        0x00019e3c:    990a        ..      LDR      r1,[sp,#0x28]
        0x00019e3e:    eb010141    ..A.    ADD      r1,r1,r1,LSL #1
        0x00019e42:    eb000141    ..A.    ADD      r1,r0,r1,LSL #1
        0x00019e46:    7889        .x      LDRB     r1,[r1,#2]
        0x00019e48:    9ad2        ..      LDR      r2,[sp,#0x348]
        0x00019e4a:    f0010101    ....    AND      r1,r1,#1
        0x00019e4e:    7091        .p      STRB     r1,[r2,#2]
        0x00019e50:    990a        ..      LDR      r1,[sp,#0x28]
        0x00019e52:    eb010141    ..A.    ADD      r1,r1,r1,LSL #1
        0x00019e56:    eb000141    ..A.    ADD      r1,r0,r1,LSL #1
        0x00019e5a:    78c9        .x      LDRB     r1,[r1,#3]
        0x00019e5c:    9ad2        ..      LDR      r2,[sp,#0x348]
        0x00019e5e:    70d1        .p      STRB     r1,[r2,#3]
        0x00019e60:    990a        ..      LDR      r1,[sp,#0x28]
        0x00019e62:    eb010141    ..A.    ADD      r1,r1,r1,LSL #1
        0x00019e66:    eb000041    ..A.    ADD      r0,r0,r1,LSL #1
        0x00019e6a:    7940        @y      LDRB     r0,[r0,#5]
        0x00019e6c:    99d2        ..      LDR      r1,[sp,#0x348]
        0x00019e6e:    7148        Hq      STRB     r0,[r1,#5]
        0x00019e70:    98d3        ..      LDR      r0,[sp,#0x34c]
        0x00019e72:    7800        .x      LDRB     r0,[r0,#0]
        0x00019e74:    2808        .(      CMP      r0,#8
        0x00019e76:    d005        ..      BEQ      0x19e84 ; am_devices_mspi_is25wx064_init_timing_check + 1364
        0x00019e78:    e7ff        ..      B        0x19e7a ; am_devices_mspi_is25wx064_init_timing_check + 1354
        0x00019e7a:    98d3        ..      LDR      r0,[sp,#0x34c]
        0x00019e7c:    7800        .x      LDRB     r0,[r0,#0]
        0x00019e7e:    2809        .(      CMP      r0,#9
        0x00019e80:    d10d        ..      BNE      0x19e9e ; am_devices_mspi_is25wx064_init_timing_check + 1390
        0x00019e82:    e7ff        ..      B        0x19e84 ; am_devices_mspi_is25wx064_init_timing_check + 1364
        0x00019e84:    980a        ..      LDR      r0,[sp,#0x28]
        0x00019e86:    eb000140    ..@.    ADD      r1,r0,r0,LSL #1
        0x00019e8a:    f24010ec    @...    MOVW     r0,#0x1ec
        0x00019e8e:    f2c10000    ....    MOVT     r0,#0x1000
        0x00019e92:    eb000041    ..A.    ADD      r0,r0,r1,LSL #1
        0x00019e96:    7940        @y      LDRB     r0,[r0,#5]
        0x00019e98:    99d2        ..      LDR      r1,[sp,#0x348]
        0x00019e9a:    7148        Hq      STRB     r0,[r1,#5]
        0x00019e9c:    e026        &.      B        0x19eec ; am_devices_mspi_is25wx064_init_timing_check + 1468
        0x00019e9e:    98d3        ..      LDR      r0,[sp,#0x34c]
        0x00019ea0:    7800        .x      LDRB     r0,[r0,#0]
        0x00019ea2:    2818        .(      CMP      r0,#0x18
        0x00019ea4:    d005        ..      BEQ      0x19eb2 ; am_devices_mspi_is25wx064_init_timing_check + 1410
        0x00019ea6:    e7ff        ..      B        0x19ea8 ; am_devices_mspi_is25wx064_init_timing_check + 1400
        0x00019ea8:    98d3        ..      LDR      r0,[sp,#0x34c]
        0x00019eaa:    7800        .x      LDRB     r0,[r0,#0]
        0x00019eac:    2819        .(      CMP      r0,#0x19
        0x00019eae:    d10e        ..      BNE      0x19ece ; am_devices_mspi_is25wx064_init_timing_check + 1438
        0x00019eb0:    e7ff        ..      B        0x19eb2 ; am_devices_mspi_is25wx064_init_timing_check + 1410
        0x00019eb2:    980a        ..      LDR      r0,[sp,#0x28]
        0x00019eb4:    eb000140    ..@.    ADD      r1,r0,r0,LSL #1
        0x00019eb8:    f24010ec    @...    MOVW     r0,#0x1ec
        0x00019ebc:    f2c10000    ....    MOVT     r0,#0x1000
        0x00019ec0:    eb000041    ..A.    ADD      r0,r0,r1,LSL #1
        0x00019ec4:    7940        @y      LDRB     r0,[r0,#5]
        0x00019ec6:    0840        @.      LSRS     r0,r0,#1
        0x00019ec8:    99d2        ..      LDR      r1,[sp,#0x348]
        0x00019eca:    7148        Hq      STRB     r0,[r1,#5]
        0x00019ecc:    e00d        ..      B        0x19eea ; am_devices_mspi_is25wx064_init_timing_check + 1466
        0x00019ece:    980a        ..      LDR      r0,[sp,#0x28]
        0x00019ed0:    eb000140    ..@.    ADD      r1,r0,r0,LSL #1
        0x00019ed4:    f24010ec    @...    MOVW     r0,#0x1ec
        0x00019ed8:    f2c10000    ....    MOVT     r0,#0x1000
        0x00019edc:    eb000041    ..A.    ADD      r0,r0,r1,LSL #1
        0x00019ee0:    7940        @y      LDRB     r0,[r0,#5]
        0x00019ee2:    0880        ..      LSRS     r0,r0,#2
        0x00019ee4:    99d2        ..      LDR      r1,[sp,#0x348]
        0x00019ee6:    7148        Hq      STRB     r0,[r1,#5]
        0x00019ee8:    e7ff        ..      B        0x19eea ; am_devices_mspi_is25wx064_init_timing_check + 1466
        0x00019eea:    e7ff        ..      B        0x19eec ; am_devices_mspi_is25wx064_init_timing_check + 1468
        0x00019eec:    f244713e    D.>q    MOV      r1,#0x473e
        0x00019ef0:    f2c10100    ....    MOVT     r1,#0x1000
        0x00019ef4:    2001        .       MOVS     r0,#1
        0x00019ef6:    7008        .p      STRB     r0,[r1,#0]
        0x00019ef8:    98d2        ..      LDR      r0,[sp,#0x348]
        0x00019efa:    7800        .x      LDRB     r0,[r0,#0]
        0x00019efc:    f0000001    ....    AND      r0,r0,#1
        0x00019f00:    f64811f4    H...    MOV      r1,#0x89f4
        0x00019f04:    f2c10100    ....    MOVT     r1,#0x1000
        0x00019f08:    7008        .p      STRB     r0,[r1,#0]
        0x00019f0a:    98d2        ..      LDR      r0,[sp,#0x348]
        0x00019f0c:    7840        @x      LDRB     r0,[r0,#1]
        0x00019f0e:    f0000001    ....    AND      r0,r0,#1
        0x00019f12:    7048        Hp      STRB     r0,[r1,#1]
        0x00019f14:    98d2        ..      LDR      r0,[sp,#0x348]
        0x00019f16:    7880        .x      LDRB     r0,[r0,#2]
        0x00019f18:    f0000001    ....    AND      r0,r0,#1
        0x00019f1c:    7088        .p      STRB     r0,[r1,#2]
        0x00019f1e:    98d2        ..      LDR      r0,[sp,#0x348]
        0x00019f20:    78c0        .x      LDRB     r0,[r0,#3]
        0x00019f22:    70c8        .p      STRB     r0,[r1,#3]
        0x00019f24:    98d2        ..      LDR      r0,[sp,#0x348]
        0x00019f26:    7900        .y      LDRB     r0,[r0,#4]
        0x00019f28:    7108        .q      STRB     r0,[r1,#4]
        0x00019f2a:    98d2        ..      LDR      r0,[sp,#0x348]
        0x00019f2c:    7940        @y      LDRB     r0,[r0,#5]
        0x00019f2e:    7148        Hq      STRB     r0,[r1,#5]
        0x00019f30:    2000        .       MOVS     r0,#0
        0x00019f32:    90d5        ..      STR      r0,[sp,#0x354]
        0x00019f34:    e7ff        ..      B        0x19f36 ; am_devices_mspi_is25wx064_init_timing_check + 1542
        0x00019f36:    98d5        ..      LDR      r0,[sp,#0x354]
        0x00019f38:    f50d7d56    ..V}    ADD      sp,sp,#0x358
        0x00019f3c:    bd10        ..      POP      {r4,pc}
        0x00019f3e:    0000        ..      MOVS     r0,r0
    am_devices_mspi_is25wx064_mass_erase
        0x00019f40:    b580        ..      PUSH     {r7,lr}
        0x00019f42:    b0aa        ..      SUB      sp,sp,#0xa8
        0x00019f44:    9028        (.      STR      r0,[sp,#0xa0]
        0x00019f46:    2000        .       MOVS     r0,#0
        0x00019f48:    9004        ..      STR      r0,[sp,#0x10]
        0x00019f4a:    f88d009f    ....    STRB     r0,[sp,#0x9f]
        0x00019f4e:    a806        ..      ADD      r0,sp,#0x18
        0x00019f50:    9003        ..      STR      r0,[sp,#0xc]
        0x00019f52:    2180        .!      MOVS     r1,#0x80
        0x00019f54:    f7fefa69    ..i.    BL       __aeabi_memclr4 ; 0x1842a
        0x00019f58:    9903        ..      LDR      r1,[sp,#0xc]
        0x00019f5a:    9b04        ..      LDR      r3,[sp,#0x10]
        0x00019f5c:    9828        (.      LDR      r0,[sp,#0xa0]
        0x00019f5e:    466a        jF      MOV      r2,sp
        0x00019f60:    6053        S`      STR      r3,[r2,#4]
        0x00019f62:    6011        .`      STR      r1,[r2,#0]
        0x00019f64:    f2406106    @..a    MOV      r1,#0x606
        0x00019f68:    461a        .F      MOV      r2,r3
        0x00019f6a:    f004f96b    ..k.    BL       command_write_combo ; 0x1e244
        0x00019f6e:    9026        &.      STR      r0,[sp,#0x98]
        0x00019f70:    9826        &.      LDR      r0,[sp,#0x98]
        0x00019f72:    b118        ..      CBZ      r0,0x19f7c ; am_devices_mspi_is25wx064_mass_erase + 60
        0x00019f74:    e7ff        ..      B        0x19f76 ; am_devices_mspi_is25wx064_mass_erase + 54
        0x00019f76:    2001        .       MOVS     r0,#1
        0x00019f78:    9029        ).      STR      r0,[sp,#0xa4]
        0x00019f7a:    e05a        Z.      B        0x1a032 ; am_devices_mspi_is25wx064_mass_erase + 242
        0x00019f7c:    9828        (.      LDR      r0,[sp,#0xa0]
        0x00019f7e:    466a        jF      MOV      r2,sp
        0x00019f80:    2300        .#      MOVS     r3,#0
        0x00019f82:    6053        S`      STR      r3,[r2,#4]
        0x00019f84:    a906        ..      ADD      r1,sp,#0x18
        0x00019f86:    6011        .`      STR      r1,[r2,#0]
        0x00019f88:    f2460160    F.`.    MOV      r1,#0x6060
        0x00019f8c:    461a        .F      MOV      r2,r3
        0x00019f8e:    f004f959    ..Y.    BL       command_write_combo ; 0x1e244
        0x00019f92:    9026        &.      STR      r0,[sp,#0x98]
        0x00019f94:    9826        &.      LDR      r0,[sp,#0x98]
        0x00019f96:    b118        ..      CBZ      r0,0x19fa0 ; am_devices_mspi_is25wx064_mass_erase + 96
        0x00019f98:    e7ff        ..      B        0x19f9a ; am_devices_mspi_is25wx064_mass_erase + 90
        0x00019f9a:    2001        .       MOVS     r0,#1
        0x00019f9c:    9029        ).      STR      r0,[sp,#0xa4]
        0x00019f9e:    e048        H.      B        0x1a032 ; am_devices_mspi_is25wx064_mass_erase + 242
        0x00019fa0:    2000        .       MOVS     r0,#0
        0x00019fa2:    9005        ..      STR      r0,[sp,#0x14]
        0x00019fa4:    e7ff        ..      B        0x19fa6 ; am_devices_mspi_is25wx064_mass_erase + 102
        0x00019fa6:    9805        ..      LDR      r0,[sp,#0x14]
        0x00019fa8:    f244213f    D.?!    MOV      r1,#0x423f
        0x00019fac:    f2c0010f    ....    MOVT     r1,#0xf
        0x00019fb0:    4288        .B      CMP      r0,r1
        0x00019fb2:    d821        !.      BHI      0x19ff8 ; am_devices_mspi_is25wx064_mass_erase + 184
        0x00019fb4:    e7ff        ..      B        0x19fb6 ; am_devices_mspi_is25wx064_mass_erase + 118
        0x00019fb6:    2300        .#      MOVS     r3,#0
        0x00019fb8:    9306        ..      STR      r3,[sp,#0x18]
        0x00019fba:    9828        (.      LDR      r0,[sp,#0xa0]
        0x00019fbc:    466a        jF      MOV      r2,sp
        0x00019fbe:    2101        .!      MOVS     r1,#1
        0x00019fc0:    9102        ..      STR      r1,[sp,#8]
        0x00019fc2:    6051        Q`      STR      r1,[r2,#4]
        0x00019fc4:    a906        ..      ADD      r1,sp,#0x18
        0x00019fc6:    6011        .`      STR      r1,[r2,#0]
        0x00019fc8:    f2405105    @..Q    MOV      r1,#0x505
        0x00019fcc:    461a        .F      MOV      r2,r3
        0x00019fce:    f003ffa9    ....    BL       command_read_combo ; 0x1df24
        0x00019fd2:    9802        ..      LDR      r0,[sp,#8]
        0x00019fd4:    9906        ..      LDR      r1,[sp,#0x18]
        0x00019fd6:    4388        .C      BICS     r0,r0,r1
        0x00019fd8:    f88d009f    ....    STRB     r0,[sp,#0x9f]
        0x00019fdc:    f89d009f    ....    LDRB     r0,[sp,#0x9f]
        0x00019fe0:    07c0        ..      LSLS     r0,r0,#31
        0x00019fe2:    b108        ..      CBZ      r0,0x19fe8 ; am_devices_mspi_is25wx064_mass_erase + 168
        0x00019fe4:    e7ff        ..      B        0x19fe6 ; am_devices_mspi_is25wx064_mass_erase + 166
        0x00019fe6:    e007        ..      B        0x19ff8 ; am_devices_mspi_is25wx064_mass_erase + 184
        0x00019fe8:    200a        .       MOVS     r0,#0xa
        0x00019fea:    f003f98d    ....    BL       am_util_delay_ms ; 0x1d308
        0x00019fee:    e7ff        ..      B        0x19ff0 ; am_devices_mspi_is25wx064_mass_erase + 176
        0x00019ff0:    9805        ..      LDR      r0,[sp,#0x14]
        0x00019ff2:    3001        .0      ADDS     r0,#1
        0x00019ff4:    9005        ..      STR      r0,[sp,#0x14]
        0x00019ff6:    e7d6        ..      B        0x19fa6 ; am_devices_mspi_is25wx064_mass_erase + 102
        0x00019ff8:    f89d009f    ....    LDRB     r0,[sp,#0x9f]
        0x00019ffc:    07c0        ..      LSLS     r0,r0,#31
        0x00019ffe:    b918        ..      CBNZ     r0,0x1a008 ; am_devices_mspi_is25wx064_mass_erase + 200
        0x0001a000:    e7ff        ..      B        0x1a002 ; am_devices_mspi_is25wx064_mass_erase + 194
        0x0001a002:    2001        .       MOVS     r0,#1
        0x0001a004:    9029        ).      STR      r0,[sp,#0xa4]
        0x0001a006:    e014        ..      B        0x1a032 ; am_devices_mspi_is25wx064_mass_erase + 242
        0x0001a008:    9828        (.      LDR      r0,[sp,#0xa0]
        0x0001a00a:    466a        jF      MOV      r2,sp
        0x0001a00c:    2300        .#      MOVS     r3,#0
        0x0001a00e:    6053        S`      STR      r3,[r2,#4]
        0x0001a010:    a906        ..      ADD      r1,sp,#0x18
        0x0001a012:    6011        .`      STR      r1,[r2,#0]
        0x0001a014:    f2404104    @..A    MOV      r1,#0x404
        0x0001a018:    461a        .F      MOV      r2,r3
        0x0001a01a:    f004f913    ....    BL       command_write_combo ; 0x1e244
        0x0001a01e:    9026        &.      STR      r0,[sp,#0x98]
        0x0001a020:    9826        &.      LDR      r0,[sp,#0x98]
        0x0001a022:    b118        ..      CBZ      r0,0x1a02c ; am_devices_mspi_is25wx064_mass_erase + 236
        0x0001a024:    e7ff        ..      B        0x1a026 ; am_devices_mspi_is25wx064_mass_erase + 230
        0x0001a026:    2001        .       MOVS     r0,#1
        0x0001a028:    9029        ).      STR      r0,[sp,#0xa4]
        0x0001a02a:    e002        ..      B        0x1a032 ; am_devices_mspi_is25wx064_mass_erase + 242
        0x0001a02c:    2000        .       MOVS     r0,#0
        0x0001a02e:    9029        ).      STR      r0,[sp,#0xa4]
        0x0001a030:    e7ff        ..      B        0x1a032 ; am_devices_mspi_is25wx064_mass_erase + 242
        0x0001a032:    9829        ).      LDR      r0,[sp,#0xa4]
        0x0001a034:    b02a        *.      ADD      sp,sp,#0xa8
        0x0001a036:    bd80        ..      POP      {r7,pc}
    am_devices_mspi_is25wx064_read
        0x0001a038:    b580        ..      PUSH     {r7,lr}
        0x0001a03a:    b094        ..      SUB      sp,sp,#0x50
        0x0001a03c:    4684        .F      MOV      r12,r0
        0x0001a03e:    9816        ..      LDR      r0,[sp,#0x58]
        0x0001a040:    f8cdc048    ..H.    STR      r12,[sp,#0x48]
        0x0001a044:    9111        ..      STR      r1,[sp,#0x44]
        0x0001a046:    9210        ..      STR      r2,[sp,#0x40]
        0x0001a048:    930f        ..      STR      r3,[sp,#0x3c]
        0x0001a04a:    f88d003b    ..;.    STRB     r0,[sp,#0x3b]
        0x0001a04e:    9812        ..      LDR      r0,[sp,#0x48]
        0x0001a050:    9006        ..      STR      r0,[sp,#0x18]
        0x0001a052:    f244703e    D.>p    MOV      r0,#0x473e
        0x0001a056:    f2c10000    ....    MOVT     r0,#0x1000
        0x0001a05a:    7800        .x      LDRB     r0,[r0,#0]
        0x0001a05c:    07c0        ..      LSLS     r0,r0,#31
        0x0001a05e:    b318        ..      CBZ      r0,0x1a0a8 ; am_devices_mspi_is25wx064_read + 112
        0x0001a060:    e7ff        ..      B        0x1a062 ; am_devices_mspi_is25wx064_read + 42
        0x0001a062:    f64810f4    H...    MOV      r0,#0x89f4
        0x0001a066:    f2c10000    ....    MOVT     r0,#0x1000
        0x0001a06a:    7801        .x      LDRB     r1,[r0,#0]
        0x0001a06c:    f0010101    ....    AND      r1,r1,#1
        0x0001a070:    f88d1010    ....    STRB     r1,[sp,#0x10]
        0x0001a074:    7841        Ax      LDRB     r1,[r0,#1]
        0x0001a076:    f0010101    ....    AND      r1,r1,#1
        0x0001a07a:    f88d1011    ....    STRB     r1,[sp,#0x11]
        0x0001a07e:    7881        .x      LDRB     r1,[r0,#2]
        0x0001a080:    f0010101    ....    AND      r1,r1,#1
        0x0001a084:    f88d1012    ....    STRB     r1,[sp,#0x12]
        0x0001a088:    78c1        .x      LDRB     r1,[r0,#3]
        0x0001a08a:    f88d1013    ....    STRB     r1,[sp,#0x13]
        0x0001a08e:    7901        .y      LDRB     r1,[r0,#4]
        0x0001a090:    f88d1014    ....    STRB     r1,[sp,#0x14]
        0x0001a094:    7940        @y      LDRB     r0,[r0,#5]
        0x0001a096:    f88d0015    ....    STRB     r0,[sp,#0x15]
        0x0001a09a:    9806        ..      LDR      r0,[sp,#0x18]
        0x0001a09c:    6840        @h      LDR      r0,[r0,#4]
        0x0001a09e:    210d        .!      MOVS     r1,#0xd
        0x0001a0a0:    aa04        ..      ADD      r2,sp,#0x10
        0x0001a0a2:    f001f993    ....    BL       am_hal_mspi_control ; 0x1b3cc
        0x0001a0a6:    e048        H.      B        0x1a13a ; am_devices_mspi_is25wx064_read + 258
        0x0001a0a8:    9806        ..      LDR      r0,[sp,#0x18]
        0x0001a0aa:    7c00        .|      LDRB     r0,[r0,#0x10]
        0x0001a0ac:    4601        .F      MOV      r1,r0
        0x0001a0ae:    9101        ..      STR      r1,[sp,#4]
        0x0001a0b0:    2819        .(      CMP      r0,#0x19
        0x0001a0b2:    d840        @.      BHI      0x1a136 ; am_devices_mspi_is25wx064_read + 254
        0x0001a0b4:    9901        ..      LDR      r1,[sp,#4]
        0x0001a0b6:    e8dff001    ....    TBB      [pc,r1]
    $d.14
        0x0001a0ba:    0d0d        ..      DCW    3341
        0x0001a0bc:    3e3e3e3e    >>>>    DCD    1044266558
        0x0001a0c0:    0e0e3e3e    >>..    DCD    235814462
        0x0001a0c4:    3e3e3e3e    >>>>    DCD    1044266558
        0x0001a0c8:    3e3e3e3e    >>>>    DCD    1044266558
        0x0001a0cc:    3e3e3e3e    >>>>    DCD    1044266558
        0x0001a0d0:    2e2e1e1e    ....    DCD    774774302
    $t.15
        0x0001a0d4:    e030        0.      B        0x1a138 ; am_devices_mspi_is25wx064_read + 256
        0x0001a0d6:    f24060c8    @..`    MOVW     r0,#0x6c8
        0x0001a0da:    f2c10000    ....    MOVT     r0,#0x1000
        0x0001a0de:    8881        ..      LDRH     r1,[r0,#4]
        0x0001a0e0:    f8ad1014    ....    STRH     r1,[sp,#0x14]
        0x0001a0e4:    6800        .h      LDR      r0,[r0,#0]
        0x0001a0e6:    9004        ..      STR      r0,[sp,#0x10]
        0x0001a0e8:    9806        ..      LDR      r0,[sp,#0x18]
        0x0001a0ea:    6840        @h      LDR      r0,[r0,#4]
        0x0001a0ec:    210d        .!      MOVS     r1,#0xd
        0x0001a0ee:    aa04        ..      ADD      r2,sp,#0x10
        0x0001a0f0:    f001f96c    ..l.    BL       am_hal_mspi_control ; 0x1b3cc
        0x0001a0f4:    e020         .      B        0x1a138 ; am_devices_mspi_is25wx064_read + 256
        0x0001a0f6:    f24060bc    @..`    MOV      r0,#0x6bc
        0x0001a0fa:    f2c10000    ....    MOVT     r0,#0x1000
        0x0001a0fe:    8881        ..      LDRH     r1,[r0,#4]
        0x0001a100:    f8ad1014    ....    STRH     r1,[sp,#0x14]
        0x0001a104:    6800        .h      LDR      r0,[r0,#0]
        0x0001a106:    9004        ..      STR      r0,[sp,#0x10]
        0x0001a108:    9806        ..      LDR      r0,[sp,#0x18]
        0x0001a10a:    6840        @h      LDR      r0,[r0,#4]
        0x0001a10c:    210d        .!      MOVS     r1,#0xd
        0x0001a10e:    aa04        ..      ADD      r2,sp,#0x10
        0x0001a110:    f001f95c    ..\.    BL       am_hal_mspi_control ; 0x1b3cc
        0x0001a114:    e010        ..      B        0x1a138 ; am_devices_mspi_is25wx064_read + 256
        0x0001a116:    f24060c2    @..`    MOV      r0,#0x6c2
        0x0001a11a:    f2c10000    ....    MOVT     r0,#0x1000
        0x0001a11e:    8881        ..      LDRH     r1,[r0,#4]
        0x0001a120:    f8ad1014    ....    STRH     r1,[sp,#0x14]
        0x0001a124:    6800        .h      LDR      r0,[r0,#0]
        0x0001a126:    9004        ..      STR      r0,[sp,#0x10]
        0x0001a128:    9806        ..      LDR      r0,[sp,#0x18]
        0x0001a12a:    6840        @h      LDR      r0,[r0,#4]
        0x0001a12c:    210d        .!      MOVS     r1,#0xd
        0x0001a12e:    aa04        ..      ADD      r2,sp,#0x10
        0x0001a130:    f001f94c    ..L.    BL       am_hal_mspi_control ; 0x1b3cc
        0x0001a134:    e000        ..      B        0x1a138 ; am_devices_mspi_is25wx064_read + 256
        0x0001a136:    e7ff        ..      B        0x1a138 ; am_devices_mspi_is25wx064_read + 256
        0x0001a138:    e7ff        ..      B        0x1a13a ; am_devices_mspi_is25wx064_read + 258
        0x0001a13a:    2001        .       MOVS     r0,#1
        0x0001a13c:    f88d0020    .. .    STRB     r0,[sp,#0x20]
        0x0001a140:    2000        .       MOVS     r0,#0
        0x0001a142:    f88d0021    ..!.    STRB     r0,[sp,#0x21]
        0x0001a146:    990f        ..      LDR      r1,[sp,#0x3c]
        0x0001a148:    9109        ..      STR      r1,[sp,#0x24]
        0x0001a14a:    9910        ..      LDR      r1,[sp,#0x40]
        0x0001a14c:    910a        ..      STR      r1,[sp,#0x28]
        0x0001a14e:    9911        ..      LDR      r1,[sp,#0x44]
        0x0001a150:    910b        ..      STR      r1,[sp,#0x2c]
        0x0001a152:    900c        ..      STR      r0,[sp,#0x30]
        0x0001a154:    900d        ..      STR      r0,[sp,#0x34]
        0x0001a156:    f89d003b    ..;.    LDRB     r0,[sp,#0x3b]
        0x0001a15a:    07c0        ..      LSLS     r0,r0,#31
        0x0001a15c:    2800        .(      CMP      r0,#0
        0x0001a15e:    d04b        K.      BEQ      0x1a1f8 ; am_devices_mspi_is25wx064_read + 448
        0x0001a160:    e7ff        ..      B        0x1a162 ; am_devices_mspi_is25wx064_read + 298
        0x0001a162:    f04f30ff    O..0    MOV      r0,#0xffffffff
        0x0001a166:    9003        ..      STR      r0,[sp,#0xc]
        0x0001a168:    9806        ..      LDR      r0,[sp,#0x18]
        0x0001a16a:    6840        @h      LDR      r0,[r0,#4]
        0x0001a16c:    466a        jF      MOV      r2,sp
        0x0001a16e:    a903        ..      ADD      r1,sp,#0xc
        0x0001a170:    6011        .`      STR      r1,[r2,#0]
        0x0001a172:    f64f336d    O.m3    MOV      r3,#0xfb6d
        0x0001a176:    f2c00301    ....    MOVT     r3,#1
        0x0001a17a:    a908        ..      ADD      r1,sp,#0x20
        0x0001a17c:    2201        ."      MOVS     r2,#1
        0x0001a17e:    f002fa7a    ..z.    BL       am_hal_mspi_nonblocking_transfer ; 0x1c676
        0x0001a182:    9007        ..      STR      r0,[sp,#0x1c]
        0x0001a184:    9807        ..      LDR      r0,[sp,#0x1c]
        0x0001a186:    b118        ..      CBZ      r0,0x1a190 ; am_devices_mspi_is25wx064_read + 344
        0x0001a188:    e7ff        ..      B        0x1a18a ; am_devices_mspi_is25wx064_read + 338
        0x0001a18a:    2001        .       MOVS     r0,#1
        0x0001a18c:    9013        ..      STR      r0,[sp,#0x4c]
        0x0001a18e:    e047        G.      B        0x1a220 ; am_devices_mspi_is25wx064_read + 488
        0x0001a190:    2000        .       MOVS     r0,#0
        0x0001a192:    9002        ..      STR      r0,[sp,#8]
        0x0001a194:    e7ff        ..      B        0x1a196 ; am_devices_mspi_is25wx064_read + 350
        0x0001a196:    9802        ..      LDR      r0,[sp,#8]
        0x0001a198:    f244213f    D.?!    MOV      r1,#0x423f
        0x0001a19c:    f2c0010f    ....    MOVT     r1,#0xf
        0x0001a1a0:    4288        .B      CMP      r0,r1
        0x0001a1a2:    d811        ..      BHI      0x1a1c8 ; am_devices_mspi_is25wx064_read + 400
        0x0001a1a4:    e7ff        ..      B        0x1a1a6 ; am_devices_mspi_is25wx064_read + 366
        0x0001a1a6:    9803        ..      LDR      r0,[sp,#0xc]
        0x0001a1a8:    b128        (.      CBZ      r0,0x1a1b6 ; am_devices_mspi_is25wx064_read + 382
        0x0001a1aa:    e7ff        ..      B        0x1a1ac ; am_devices_mspi_is25wx064_read + 372
        0x0001a1ac:    9803        ..      LDR      r0,[sp,#0xc]
        0x0001a1ae:    f1b06f00    ...o    CMP      r0,#0x8000000
        0x0001a1b2:    d101        ..      BNE      0x1a1b8 ; am_devices_mspi_is25wx064_read + 384
        0x0001a1b4:    e7ff        ..      B        0x1a1b6 ; am_devices_mspi_is25wx064_read + 382
        0x0001a1b6:    e007        ..      B        0x1a1c8 ; am_devices_mspi_is25wx064_read + 400
        0x0001a1b8:    2001        .       MOVS     r0,#1
        0x0001a1ba:    f003f8b1    ....    BL       am_util_delay_us ; 0x1d320
        0x0001a1be:    e7ff        ..      B        0x1a1c0 ; am_devices_mspi_is25wx064_read + 392
        0x0001a1c0:    9802        ..      LDR      r0,[sp,#8]
        0x0001a1c2:    3001        .0      ADDS     r0,#1
        0x0001a1c4:    9002        ..      STR      r0,[sp,#8]
        0x0001a1c6:    e7e6        ..      B        0x1a196 ; am_devices_mspi_is25wx064_read + 350
        0x0001a1c8:    9803        ..      LDR      r0,[sp,#0xc]
        0x0001a1ca:    f1b06f00    ...o    CMP      r0,#0x8000000
        0x0001a1ce:    d10a        ..      BNE      0x1a1e6 ; am_devices_mspi_is25wx064_read + 430
        0x0001a1d0:    e7ff        ..      B        0x1a1d2 ; am_devices_mspi_is25wx064_read + 410
        0x0001a1d2:    f64040a6    @..@    MOV      r0,#0xca6
        0x0001a1d6:    f2c00002    ....    MOVT     r0,#2
        0x0001a1da:    f003fa3d    ..=.    BL       am_util_stdio_printf ; 0x1d658
        0x0001a1de:    f04f6000    O..`    MOV      r0,#0x8000000
        0x0001a1e2:    9013        ..      STR      r0,[sp,#0x4c]
        0x0001a1e4:    e01c        ..      B        0x1a220 ; am_devices_mspi_is25wx064_read + 488
        0x0001a1e6:    9803        ..      LDR      r0,[sp,#0xc]
        0x0001a1e8:    b918        ..      CBNZ     r0,0x1a1f2 ; am_devices_mspi_is25wx064_read + 442
        0x0001a1ea:    e7ff        ..      B        0x1a1ec ; am_devices_mspi_is25wx064_read + 436
        0x0001a1ec:    2000        .       MOVS     r0,#0
        0x0001a1ee:    9013        ..      STR      r0,[sp,#0x4c]
        0x0001a1f0:    e016        ..      B        0x1a220 ; am_devices_mspi_is25wx064_read + 488
        0x0001a1f2:    2001        .       MOVS     r0,#1
        0x0001a1f4:    9013        ..      STR      r0,[sp,#0x4c]
        0x0001a1f6:    e013        ..      B        0x1a220 ; am_devices_mspi_is25wx064_read + 488
        0x0001a1f8:    9806        ..      LDR      r0,[sp,#0x18]
        0x0001a1fa:    6840        @h      LDR      r0,[r0,#4]
        0x0001a1fc:    4669        iF      MOV      r1,sp
        0x0001a1fe:    2300        .#      MOVS     r3,#0
        0x0001a200:    600b        .`      STR      r3,[r1,#0]
        0x0001a202:    a908        ..      ADD      r1,sp,#0x20
        0x0001a204:    2201        ."      MOVS     r2,#1
        0x0001a206:    f002fa36    ..6.    BL       am_hal_mspi_nonblocking_transfer ; 0x1c676
        0x0001a20a:    9007        ..      STR      r0,[sp,#0x1c]
        0x0001a20c:    9807        ..      LDR      r0,[sp,#0x1c]
        0x0001a20e:    b118        ..      CBZ      r0,0x1a218 ; am_devices_mspi_is25wx064_read + 480
        0x0001a210:    e7ff        ..      B        0x1a212 ; am_devices_mspi_is25wx064_read + 474
        0x0001a212:    2001        .       MOVS     r0,#1
        0x0001a214:    9013        ..      STR      r0,[sp,#0x4c]
        0x0001a216:    e003        ..      B        0x1a220 ; am_devices_mspi_is25wx064_read + 488
        0x0001a218:    e7ff        ..      B        0x1a21a ; am_devices_mspi_is25wx064_read + 482
        0x0001a21a:    2000        .       MOVS     r0,#0
        0x0001a21c:    9013        ..      STR      r0,[sp,#0x4c]
        0x0001a21e:    e7ff        ..      B        0x1a220 ; am_devices_mspi_is25wx064_read + 488
        0x0001a220:    9813        ..      LDR      r0,[sp,#0x4c]
        0x0001a222:    b014        ..      ADD      sp,sp,#0x50
        0x0001a224:    bd80        ..      POP      {r7,pc}
        0x0001a226:    0000        ..      MOVS     r0,r0
    am_devices_mspi_is25wx064_read_adv
        0x0001a228:    b580        ..      PUSH     {r7,lr}
        0x0001a22a:    b08e        ..      SUB      sp,sp,#0x38
        0x0001a22c:    f8ddc04c    ..L.    LDR      r12,[sp,#0x4c]
        0x0001a230:    f8ddc048    ..H.    LDR      r12,[sp,#0x48]
        0x0001a234:    f8ddc044    ..D.    LDR      r12,[sp,#0x44]
        0x0001a238:    f8ddc040    ..@.    LDR      r12,[sp,#0x40]
        0x0001a23c:    900c        ..      STR      r0,[sp,#0x30]
        0x0001a23e:    910b        ..      STR      r1,[sp,#0x2c]
        0x0001a240:    920a        ..      STR      r2,[sp,#0x28]
        0x0001a242:    9309        ..      STR      r3,[sp,#0x24]
        0x0001a244:    980c        ..      LDR      r0,[sp,#0x30]
        0x0001a246:    9001        ..      STR      r0,[sp,#4]
        0x0001a248:    2201        ."      MOVS     r2,#1
        0x0001a24a:    f88d200c    ...     STRB     r2,[sp,#0xc]
        0x0001a24e:    2000        .       MOVS     r0,#0
        0x0001a250:    f88d000d    ....    STRB     r0,[sp,#0xd]
        0x0001a254:    9809        ..      LDR      r0,[sp,#0x24]
        0x0001a256:    9004        ..      STR      r0,[sp,#0x10]
        0x0001a258:    980a        ..      LDR      r0,[sp,#0x28]
        0x0001a25a:    9005        ..      STR      r0,[sp,#0x14]
        0x0001a25c:    980b        ..      LDR      r0,[sp,#0x2c]
        0x0001a25e:    9006        ..      STR      r0,[sp,#0x18]
        0x0001a260:    9810        ..      LDR      r0,[sp,#0x40]
        0x0001a262:    9007        ..      STR      r0,[sp,#0x1c]
        0x0001a264:    9811        ..      LDR      r0,[sp,#0x44]
        0x0001a266:    9008        ..      STR      r0,[sp,#0x20]
        0x0001a268:    9801        ..      LDR      r0,[sp,#4]
        0x0001a26a:    6840        @h      LDR      r0,[r0,#4]
        0x0001a26c:    9b12        ..      LDR      r3,[sp,#0x48]
        0x0001a26e:    9913        ..      LDR      r1,[sp,#0x4c]
        0x0001a270:    46ec        .F      MOV      r12,sp
        0x0001a272:    f8cc1000    ....    STR      r1,[r12,#0]
        0x0001a276:    a903        ..      ADD      r1,sp,#0xc
        0x0001a278:    f002f9fd    ....    BL       am_hal_mspi_nonblocking_transfer ; 0x1c676
        0x0001a27c:    9002        ..      STR      r0,[sp,#8]
        0x0001a27e:    9802        ..      LDR      r0,[sp,#8]
        0x0001a280:    b118        ..      CBZ      r0,0x1a28a ; am_devices_mspi_is25wx064_read_adv + 98
        0x0001a282:    e7ff        ..      B        0x1a284 ; am_devices_mspi_is25wx064_read_adv + 92
        0x0001a284:    2001        .       MOVS     r0,#1
        0x0001a286:    900d        ..      STR      r0,[sp,#0x34]
        0x0001a288:    e002        ..      B        0x1a290 ; am_devices_mspi_is25wx064_read_adv + 104
        0x0001a28a:    2000        .       MOVS     r0,#0
        0x0001a28c:    900d        ..      STR      r0,[sp,#0x34]
        0x0001a28e:    e7ff        ..      B        0x1a290 ; am_devices_mspi_is25wx064_read_adv + 104
        0x0001a290:    980d        ..      LDR      r0,[sp,#0x34]
        0x0001a292:    b00e        ..      ADD      sp,sp,#0x38
        0x0001a294:    bd80        ..      POP      {r7,pc}
        0x0001a296:    0000        ..      MOVS     r0,r0
    am_devices_mspi_is25wx064_reset
        0x0001a298:    b580        ..      PUSH     {r7,lr}
        0x0001a29a:    b0a8        ..      SUB      sp,sp,#0xa0
        0x0001a29c:    9026        &.      STR      r0,[sp,#0x98]
        0x0001a29e:    9125        %.      STR      r1,[sp,#0x94]
        0x0001a2a0:    a804        ..      ADD      r0,sp,#0x10
        0x0001a2a2:    9003        ..      STR      r0,[sp,#0xc]
        0x0001a2a4:    2180        .!      MOVS     r1,#0x80
        0x0001a2a6:    f7fef8c0    ....    BL       __aeabi_memclr4 ; 0x1842a
        0x0001a2aa:    9903        ..      LDR      r1,[sp,#0xc]
        0x0001a2ac:    9826        &.      LDR      r0,[sp,#0x98]
        0x0001a2ae:    466a        jF      MOV      r2,sp
        0x0001a2b0:    2300        .#      MOVS     r3,#0
        0x0001a2b2:    6053        S`      STR      r3,[r2,#4]
        0x0001a2b4:    6011        .`      STR      r1,[r2,#0]
        0x0001a2b6:    2106        .!      MOVS     r1,#6
        0x0001a2b8:    461a        .F      MOV      r2,r3
        0x0001a2ba:    f004f8af    ....    BL       command_write_serial ; 0x1e41c
        0x0001a2be:    9024        $.      STR      r0,[sp,#0x90]
        0x0001a2c0:    9824        $.      LDR      r0,[sp,#0x90]
        0x0001a2c2:    b118        ..      CBZ      r0,0x1a2cc ; am_devices_mspi_is25wx064_reset + 52
        0x0001a2c4:    e7ff        ..      B        0x1a2c6 ; am_devices_mspi_is25wx064_reset + 46
        0x0001a2c6:    2001        .       MOVS     r0,#1
        0x0001a2c8:    9027        '.      STR      r0,[sp,#0x9c]
        0x0001a2ca:    e05a        Z.      B        0x1a382 ; am_devices_mspi_is25wx064_reset + 234
        0x0001a2cc:    9826        &.      LDR      r0,[sp,#0x98]
        0x0001a2ce:    466a        jF      MOV      r2,sp
        0x0001a2d0:    2300        .#      MOVS     r3,#0
        0x0001a2d2:    6053        S`      STR      r3,[r2,#4]
        0x0001a2d4:    a904        ..      ADD      r1,sp,#0x10
        0x0001a2d6:    6011        .`      STR      r1,[r2,#0]
        0x0001a2d8:    2166        f!      MOVS     r1,#0x66
        0x0001a2da:    461a        .F      MOV      r2,r3
        0x0001a2dc:    f004f89e    ....    BL       command_write_serial ; 0x1e41c
        0x0001a2e0:    9024        $.      STR      r0,[sp,#0x90]
        0x0001a2e2:    9824        $.      LDR      r0,[sp,#0x90]
        0x0001a2e4:    b118        ..      CBZ      r0,0x1a2ee ; am_devices_mspi_is25wx064_reset + 86
        0x0001a2e6:    e7ff        ..      B        0x1a2e8 ; am_devices_mspi_is25wx064_reset + 80
        0x0001a2e8:    2001        .       MOVS     r0,#1
        0x0001a2ea:    9027        '.      STR      r0,[sp,#0x9c]
        0x0001a2ec:    e049        I.      B        0x1a382 ; am_devices_mspi_is25wx064_reset + 234
        0x0001a2ee:    9826        &.      LDR      r0,[sp,#0x98]
        0x0001a2f0:    466a        jF      MOV      r2,sp
        0x0001a2f2:    2300        .#      MOVS     r3,#0
        0x0001a2f4:    6053        S`      STR      r3,[r2,#4]
        0x0001a2f6:    a904        ..      ADD      r1,sp,#0x10
        0x0001a2f8:    6011        .`      STR      r1,[r2,#0]
        0x0001a2fa:    2104        .!      MOVS     r1,#4
        0x0001a2fc:    461a        .F      MOV      r2,r3
        0x0001a2fe:    f004f88d    ....    BL       command_write_serial ; 0x1e41c
        0x0001a302:    9024        $.      STR      r0,[sp,#0x90]
        0x0001a304:    9824        $.      LDR      r0,[sp,#0x90]
        0x0001a306:    b118        ..      CBZ      r0,0x1a310 ; am_devices_mspi_is25wx064_reset + 120
        0x0001a308:    e7ff        ..      B        0x1a30a ; am_devices_mspi_is25wx064_reset + 114
        0x0001a30a:    2001        .       MOVS     r0,#1
        0x0001a30c:    9027        '.      STR      r0,[sp,#0x9c]
        0x0001a30e:    e038        8.      B        0x1a382 ; am_devices_mspi_is25wx064_reset + 234
        0x0001a310:    9826        &.      LDR      r0,[sp,#0x98]
        0x0001a312:    466a        jF      MOV      r2,sp
        0x0001a314:    2300        .#      MOVS     r3,#0
        0x0001a316:    6053        S`      STR      r3,[r2,#4]
        0x0001a318:    a904        ..      ADD      r1,sp,#0x10
        0x0001a31a:    6011        .`      STR      r1,[r2,#0]
        0x0001a31c:    f2406106    @..a    MOV      r1,#0x606
        0x0001a320:    461a        .F      MOV      r2,r3
        0x0001a322:    f003fff3    ....    BL       command_write_octal ; 0x1e30c
        0x0001a326:    9024        $.      STR      r0,[sp,#0x90]
        0x0001a328:    9824        $.      LDR      r0,[sp,#0x90]
        0x0001a32a:    b118        ..      CBZ      r0,0x1a334 ; am_devices_mspi_is25wx064_reset + 156
        0x0001a32c:    e7ff        ..      B        0x1a32e ; am_devices_mspi_is25wx064_reset + 150
        0x0001a32e:    2001        .       MOVS     r0,#1
        0x0001a330:    9027        '.      STR      r0,[sp,#0x9c]
        0x0001a332:    e026        &.      B        0x1a382 ; am_devices_mspi_is25wx064_reset + 234
        0x0001a334:    9826        &.      LDR      r0,[sp,#0x98]
        0x0001a336:    466a        jF      MOV      r2,sp
        0x0001a338:    2300        .#      MOVS     r3,#0
        0x0001a33a:    6053        S`      STR      r3,[r2,#4]
        0x0001a33c:    a904        ..      ADD      r1,sp,#0x10
        0x0001a33e:    6011        .`      STR      r1,[r2,#0]
        0x0001a340:    f2466166    F.fa    MOV      r1,#0x6666
        0x0001a344:    461a        .F      MOV      r2,r3
        0x0001a346:    f003ffe1    ....    BL       command_write_octal ; 0x1e30c
        0x0001a34a:    9024        $.      STR      r0,[sp,#0x90]
        0x0001a34c:    9824        $.      LDR      r0,[sp,#0x90]
        0x0001a34e:    b118        ..      CBZ      r0,0x1a358 ; am_devices_mspi_is25wx064_reset + 192
        0x0001a350:    e7ff        ..      B        0x1a352 ; am_devices_mspi_is25wx064_reset + 186
        0x0001a352:    2001        .       MOVS     r0,#1
        0x0001a354:    9027        '.      STR      r0,[sp,#0x9c]
        0x0001a356:    e014        ..      B        0x1a382 ; am_devices_mspi_is25wx064_reset + 234
        0x0001a358:    9826        &.      LDR      r0,[sp,#0x98]
        0x0001a35a:    466a        jF      MOV      r2,sp
        0x0001a35c:    2300        .#      MOVS     r3,#0
        0x0001a35e:    6053        S`      STR      r3,[r2,#4]
        0x0001a360:    a904        ..      ADD      r1,sp,#0x10
        0x0001a362:    6011        .`      STR      r1,[r2,#0]
        0x0001a364:    f2404104    @..A    MOV      r1,#0x404
        0x0001a368:    461a        .F      MOV      r2,r3
        0x0001a36a:    f003ffcf    ....    BL       command_write_octal ; 0x1e30c
        0x0001a36e:    9024        $.      STR      r0,[sp,#0x90]
        0x0001a370:    9824        $.      LDR      r0,[sp,#0x90]
        0x0001a372:    b118        ..      CBZ      r0,0x1a37c ; am_devices_mspi_is25wx064_reset + 228
        0x0001a374:    e7ff        ..      B        0x1a376 ; am_devices_mspi_is25wx064_reset + 222
        0x0001a376:    2001        .       MOVS     r0,#1
        0x0001a378:    9027        '.      STR      r0,[sp,#0x9c]
        0x0001a37a:    e002        ..      B        0x1a382 ; am_devices_mspi_is25wx064_reset + 234
        0x0001a37c:    2000        .       MOVS     r0,#0
        0x0001a37e:    9027        '.      STR      r0,[sp,#0x9c]
        0x0001a380:    e7ff        ..      B        0x1a382 ; am_devices_mspi_is25wx064_reset + 234
        0x0001a382:    9827        '.      LDR      r0,[sp,#0x9c]
        0x0001a384:    b028        (.      ADD      sp,sp,#0xa0
        0x0001a386:    bd80        ..      POP      {r7,pc}
    am_devices_mspi_is25wx064_sector_erase
        0x0001a388:    b580        ..      PUSH     {r7,lr}
        0x0001a38a:    b0aa        ..      SUB      sp,sp,#0xa8
        0x0001a38c:    9028        (.      STR      r0,[sp,#0xa0]
        0x0001a38e:    9127        '.      STR      r1,[sp,#0x9c]
        0x0001a390:    2000        .       MOVS     r0,#0
        0x0001a392:    9004        ..      STR      r0,[sp,#0x10]
        0x0001a394:    f88d009b    ....    STRB     r0,[sp,#0x9b]
        0x0001a398:    a805        ..      ADD      r0,sp,#0x14
        0x0001a39a:    9003        ..      STR      r0,[sp,#0xc]
        0x0001a39c:    2180        .!      MOVS     r1,#0x80
        0x0001a39e:    f7fef844    ..D.    BL       __aeabi_memclr4 ; 0x1842a
        0x0001a3a2:    9903        ..      LDR      r1,[sp,#0xc]
        0x0001a3a4:    9b04        ..      LDR      r3,[sp,#0x10]
        0x0001a3a6:    9828        (.      LDR      r0,[sp,#0xa0]
        0x0001a3a8:    466a        jF      MOV      r2,sp
        0x0001a3aa:    6053        S`      STR      r3,[r2,#4]
        0x0001a3ac:    6011        .`      STR      r1,[r2,#0]
        0x0001a3ae:    f2406106    @..a    MOV      r1,#0x606
        0x0001a3b2:    461a        .F      MOV      r2,r3
        0x0001a3b4:    f003ff46    ..F.    BL       command_write_combo ; 0x1e244
        0x0001a3b8:    9025        %.      STR      r0,[sp,#0x94]
        0x0001a3ba:    9825        %.      LDR      r0,[sp,#0x94]
        0x0001a3bc:    b118        ..      CBZ      r0,0x1a3c6 ; am_devices_mspi_is25wx064_sector_erase + 62
        0x0001a3be:    e7ff        ..      B        0x1a3c0 ; am_devices_mspi_is25wx064_sector_erase + 56
        0x0001a3c0:    2001        .       MOVS     r0,#1
        0x0001a3c2:    9029        ).      STR      r0,[sp,#0xa4]
        0x0001a3c4:    e03d        =.      B        0x1a442 ; am_devices_mspi_is25wx064_sector_erase + 186
        0x0001a3c6:    9828        (.      LDR      r0,[sp,#0xa0]
        0x0001a3c8:    9b27        '.      LDR      r3,[sp,#0x9c]
        0x0001a3ca:    466a        jF      MOV      r2,sp
        0x0001a3cc:    2100        .!      MOVS     r1,#0
        0x0001a3ce:    6051        Q`      STR      r1,[r2,#4]
        0x0001a3d0:    a905        ..      ADD      r1,sp,#0x14
        0x0001a3d2:    6011        .`      STR      r1,[r2,#0]
        0x0001a3d4:    f64d41dc    M..A    MOV      r1,#0xdcdc
        0x0001a3d8:    2201        ."      MOVS     r2,#1
        0x0001a3da:    f003ff33    ..3.    BL       command_write_combo ; 0x1e244
        0x0001a3de:    9025        %.      STR      r0,[sp,#0x94]
        0x0001a3e0:    9825        %.      LDR      r0,[sp,#0x94]
        0x0001a3e2:    b118        ..      CBZ      r0,0x1a3ec ; am_devices_mspi_is25wx064_sector_erase + 100
        0x0001a3e4:    e7ff        ..      B        0x1a3e6 ; am_devices_mspi_is25wx064_sector_erase + 94
        0x0001a3e6:    2001        .       MOVS     r0,#1
        0x0001a3e8:    9029        ).      STR      r0,[sp,#0xa4]
        0x0001a3ea:    e02a        *.      B        0x1a442 ; am_devices_mspi_is25wx064_sector_erase + 186
        0x0001a3ec:    9828        (.      LDR      r0,[sp,#0xa0]
        0x0001a3ee:    f2496180    I..a    MOV      r1,#0x9680
        0x0001a3f2:    f2c00198    ....    MOVT     r1,#0x98
        0x0001a3f6:    f004fcab    ....    BL       is25wx064_busy_wait_until ; 0x1ed50
        0x0001a3fa:    2803        .(      CMP      r0,#3
        0x0001a3fc:    d104        ..      BNE      0x1a408 ; am_devices_mspi_is25wx064_sector_erase + 128
        0x0001a3fe:    e7ff        ..      B        0x1a400 ; am_devices_mspi_is25wx064_sector_erase + 120
        0x0001a400:    2001        .       MOVS     r0,#1
        0x0001a402:    f88d009b    ....    STRB     r0,[sp,#0x9b]
        0x0001a406:    e7ff        ..      B        0x1a408 ; am_devices_mspi_is25wx064_sector_erase + 128
        0x0001a408:    f89d009b    ....    LDRB     r0,[sp,#0x9b]
        0x0001a40c:    07c0        ..      LSLS     r0,r0,#31
        0x0001a40e:    b918        ..      CBNZ     r0,0x1a418 ; am_devices_mspi_is25wx064_sector_erase + 144
        0x0001a410:    e7ff        ..      B        0x1a412 ; am_devices_mspi_is25wx064_sector_erase + 138
        0x0001a412:    2001        .       MOVS     r0,#1
        0x0001a414:    9029        ).      STR      r0,[sp,#0xa4]
        0x0001a416:    e014        ..      B        0x1a442 ; am_devices_mspi_is25wx064_sector_erase + 186
        0x0001a418:    9828        (.      LDR      r0,[sp,#0xa0]
        0x0001a41a:    466a        jF      MOV      r2,sp
        0x0001a41c:    2300        .#      MOVS     r3,#0
        0x0001a41e:    6053        S`      STR      r3,[r2,#4]
        0x0001a420:    a905        ..      ADD      r1,sp,#0x14
        0x0001a422:    6011        .`      STR      r1,[r2,#0]
        0x0001a424:    f2404104    @..A    MOV      r1,#0x404
        0x0001a428:    461a        .F      MOV      r2,r3
        0x0001a42a:    f003ff0b    ....    BL       command_write_combo ; 0x1e244
        0x0001a42e:    9025        %.      STR      r0,[sp,#0x94]
        0x0001a430:    9825        %.      LDR      r0,[sp,#0x94]
        0x0001a432:    b118        ..      CBZ      r0,0x1a43c ; am_devices_mspi_is25wx064_sector_erase + 180
        0x0001a434:    e7ff        ..      B        0x1a436 ; am_devices_mspi_is25wx064_sector_erase + 174
        0x0001a436:    2001        .       MOVS     r0,#1
        0x0001a438:    9029        ).      STR      r0,[sp,#0xa4]
        0x0001a43a:    e002        ..      B        0x1a442 ; am_devices_mspi_is25wx064_sector_erase + 186
        0x0001a43c:    2000        .       MOVS     r0,#0
        0x0001a43e:    9029        ).      STR      r0,[sp,#0xa4]
        0x0001a440:    e7ff        ..      B        0x1a442 ; am_devices_mspi_is25wx064_sector_erase + 186
        0x0001a442:    9829        ).      LDR      r0,[sp,#0xa4]
        0x0001a444:    b02a        *.      ADD      sp,sp,#0xa8
        0x0001a446:    bd80        ..      POP      {r7,pc}
    am_devices_mspi_is25wx064_write
        0x0001a448:    b580        ..      PUSH     {r7,lr}
        0x0001a44a:    b0ba        ..      SUB      sp,sp,#0xe8
        0x0001a44c:    4684        .F      MOV      r12,r0
        0x0001a44e:    983c        <.      LDR      r0,[sp,#0xf0]
        0x0001a450:    f8cdc0e0    ....    STR      r12,[sp,#0xe0]
        0x0001a454:    9137        7.      STR      r1,[sp,#0xdc]
        0x0001a456:    9236        6.      STR      r2,[sp,#0xd8]
        0x0001a458:    9335        5.      STR      r3,[sp,#0xd4]
        0x0001a45a:    f88d00d3    ....    STRB     r0,[sp,#0xd3]
        0x0001a45e:    2000        .       MOVS     r0,#0
        0x0001a460:    f88d00b7    ....    STRB     r0,[sp,#0xb7]
        0x0001a464:    9835        5.      LDR      r0,[sp,#0xd4]
        0x0001a466:    902c        ,.      STR      r0,[sp,#0xb0]
        0x0001a468:    9836        6.      LDR      r0,[sp,#0xd8]
        0x0001a46a:    902b        +.      STR      r0,[sp,#0xac]
        0x0001a46c:    9837        7.      LDR      r0,[sp,#0xdc]
        0x0001a46e:    902a        *.      STR      r0,[sp,#0xa8]
        0x0001a470:    9838        8.      LDR      r0,[sp,#0xe0]
        0x0001a472:    9028        (.      STR      r0,[sp,#0xa0]
        0x0001a474:    a808        ..      ADD      r0,sp,#0x20
        0x0001a476:    2180        .!      MOVS     r1,#0x80
        0x0001a478:    f7fdffd7    ....    BL       __aeabi_memclr4 ; 0x1842a
        0x0001a47c:    e7ff        ..      B        0x1a47e ; am_devices_mspi_is25wx064_write + 54
        0x0001a47e:    982c        ,.      LDR      r0,[sp,#0xb0]
        0x0001a480:    2800        .(      CMP      r0,#0
        0x0001a482:    f0008125    ..%.    BEQ.W    0x1a6d0 ; am_devices_mspi_is25wx064_write + 648
        0x0001a486:    e7ff        ..      B        0x1a488 ; am_devices_mspi_is25wx064_write + 64
        0x0001a488:    9838        8.      LDR      r0,[sp,#0xe0]
        0x0001a48a:    466a        jF      MOV      r2,sp
        0x0001a48c:    2300        .#      MOVS     r3,#0
        0x0001a48e:    6053        S`      STR      r3,[r2,#4]
        0x0001a490:    a908        ..      ADD      r1,sp,#0x20
        0x0001a492:    6011        .`      STR      r1,[r2,#0]
        0x0001a494:    f2406106    @..a    MOV      r1,#0x606
        0x0001a498:    461a        .F      MOV      r2,r3
        0x0001a49a:    f003fed3    ....    BL       command_write_combo ; 0x1e244
        0x0001a49e:    9029        ).      STR      r0,[sp,#0xa4]
        0x0001a4a0:    9829        ).      LDR      r0,[sp,#0xa4]
        0x0001a4a2:    b118        ..      CBZ      r0,0x1a4ac ; am_devices_mspi_is25wx064_write + 100
        0x0001a4a4:    e7ff        ..      B        0x1a4a6 ; am_devices_mspi_is25wx064_write + 94
        0x0001a4a6:    2001        .       MOVS     r0,#1
        0x0001a4a8:    9039        9.      STR      r0,[sp,#0xe4]
        0x0001a4aa:    e114        ..      B        0x1a6d6 ; am_devices_mspi_is25wx064_write + 654
        0x0001a4ac:    f244703e    D.>p    MOV      r0,#0x473e
        0x0001a4b0:    f2c10000    ....    MOVT     r0,#0x1000
        0x0001a4b4:    7800        .x      LDRB     r0,[r0,#0]
        0x0001a4b6:    07c0        ..      LSLS     r0,r0,#31
        0x0001a4b8:    b318        ..      CBZ      r0,0x1a502 ; am_devices_mspi_is25wx064_write + 186
        0x0001a4ba:    e7ff        ..      B        0x1a4bc ; am_devices_mspi_is25wx064_write + 116
        0x0001a4bc:    f64810f4    H...    MOV      r0,#0x89f4
        0x0001a4c0:    f2c10000    ....    MOVT     r0,#0x1000
        0x0001a4c4:    7801        .x      LDRB     r1,[r0,#0]
        0x0001a4c6:    f0010101    ....    AND      r1,r1,#1
        0x0001a4ca:    f88d1018    ....    STRB     r1,[sp,#0x18]
        0x0001a4ce:    7841        Ax      LDRB     r1,[r0,#1]
        0x0001a4d0:    f0010101    ....    AND      r1,r1,#1
        0x0001a4d4:    f88d1019    ....    STRB     r1,[sp,#0x19]
        0x0001a4d8:    7881        .x      LDRB     r1,[r0,#2]
        0x0001a4da:    f0010101    ....    AND      r1,r1,#1
        0x0001a4de:    f88d101a    ....    STRB     r1,[sp,#0x1a]
        0x0001a4e2:    78c1        .x      LDRB     r1,[r0,#3]
        0x0001a4e4:    f88d101b    ....    STRB     r1,[sp,#0x1b]
        0x0001a4e8:    7901        .y      LDRB     r1,[r0,#4]
        0x0001a4ea:    f88d101c    ....    STRB     r1,[sp,#0x1c]
        0x0001a4ee:    7940        @y      LDRB     r0,[r0,#5]
        0x0001a4f0:    f88d001d    ....    STRB     r0,[sp,#0x1d]
        0x0001a4f4:    9828        (.      LDR      r0,[sp,#0xa0]
        0x0001a4f6:    6840        @h      LDR      r0,[r0,#4]
        0x0001a4f8:    210d        .!      MOVS     r1,#0xd
        0x0001a4fa:    aa06        ..      ADD      r2,sp,#0x18
        0x0001a4fc:    f000ff66    ..f.    BL       am_hal_mspi_control ; 0x1b3cc
        0x0001a500:    e048        H.      B        0x1a594 ; am_devices_mspi_is25wx064_write + 332
        0x0001a502:    9828        (.      LDR      r0,[sp,#0xa0]
        0x0001a504:    7c00        .|      LDRB     r0,[r0,#0x10]
        0x0001a506:    4601        .F      MOV      r1,r0
        0x0001a508:    9102        ..      STR      r1,[sp,#8]
        0x0001a50a:    2819        .(      CMP      r0,#0x19
        0x0001a50c:    d840        @.      BHI      0x1a590 ; am_devices_mspi_is25wx064_write + 328
        0x0001a50e:    9902        ..      LDR      r1,[sp,#8]
        0x0001a510:    e8dff001    ....    TBB      [pc,r1]
    $d.19
        0x0001a514:    3e3e0d0d    ..>>    DCD    1044253965
        0x0001a518:    3e3e3e3e    >>>>    DCD    1044266558
        0x0001a51c:    3e3e0e0e    ..>>    DCD    1044254222
        0x0001a520:    3e3e3e3e    >>>>    DCD    1044266558
        0x0001a524:    3e3e3e3e    >>>>    DCD    1044266558
        0x0001a528:    1e1e3e3e    >>..    DCD    505298494
        0x0001a52c:    2e2e        ..      DCW    11822
    $t.20
        0x0001a52e:    e030        0.      B        0x1a592 ; am_devices_mspi_is25wx064_write + 330
        0x0001a530:    f24060c8    @..`    MOVW     r0,#0x6c8
        0x0001a534:    f2c10000    ....    MOVT     r0,#0x1000
        0x0001a538:    8881        ..      LDRH     r1,[r0,#4]
        0x0001a53a:    f8ad101c    ....    STRH     r1,[sp,#0x1c]
        0x0001a53e:    6800        .h      LDR      r0,[r0,#0]
        0x0001a540:    9006        ..      STR      r0,[sp,#0x18]
        0x0001a542:    9828        (.      LDR      r0,[sp,#0xa0]
        0x0001a544:    6840        @h      LDR      r0,[r0,#4]
        0x0001a546:    210d        .!      MOVS     r1,#0xd
        0x0001a548:    aa06        ..      ADD      r2,sp,#0x18
        0x0001a54a:    f000ff3f    ..?.    BL       am_hal_mspi_control ; 0x1b3cc
        0x0001a54e:    e020         .      B        0x1a592 ; am_devices_mspi_is25wx064_write + 330
        0x0001a550:    f24060bc    @..`    MOV      r0,#0x6bc
        0x0001a554:    f2c10000    ....    MOVT     r0,#0x1000
        0x0001a558:    8881        ..      LDRH     r1,[r0,#4]
        0x0001a55a:    f8ad101c    ....    STRH     r1,[sp,#0x1c]
        0x0001a55e:    6800        .h      LDR      r0,[r0,#0]
        0x0001a560:    9006        ..      STR      r0,[sp,#0x18]
        0x0001a562:    9828        (.      LDR      r0,[sp,#0xa0]
        0x0001a564:    6840        @h      LDR      r0,[r0,#4]
        0x0001a566:    210d        .!      MOVS     r1,#0xd
        0x0001a568:    aa06        ..      ADD      r2,sp,#0x18
        0x0001a56a:    f000ff2f    ../.    BL       am_hal_mspi_control ; 0x1b3cc
        0x0001a56e:    e010        ..      B        0x1a592 ; am_devices_mspi_is25wx064_write + 330
        0x0001a570:    f24060c2    @..`    MOV      r0,#0x6c2
        0x0001a574:    f2c10000    ....    MOVT     r0,#0x1000
        0x0001a578:    8881        ..      LDRH     r1,[r0,#4]
        0x0001a57a:    f8ad101c    ....    STRH     r1,[sp,#0x1c]
        0x0001a57e:    6800        .h      LDR      r0,[r0,#0]
        0x0001a580:    9006        ..      STR      r0,[sp,#0x18]
        0x0001a582:    9828        (.      LDR      r0,[sp,#0xa0]
        0x0001a584:    6840        @h      LDR      r0,[r0,#4]
        0x0001a586:    210d        .!      MOVS     r1,#0xd
        0x0001a588:    aa06        ..      ADD      r2,sp,#0x18
        0x0001a58a:    f000ff1f    ....    BL       am_hal_mspi_control ; 0x1b3cc
        0x0001a58e:    e000        ..      B        0x1a592 ; am_devices_mspi_is25wx064_write + 330
        0x0001a590:    e7ff        ..      B        0x1a592 ; am_devices_mspi_is25wx064_write + 330
        0x0001a592:    e7ff        ..      B        0x1a594 ; am_devices_mspi_is25wx064_write + 332
        0x0001a594:    2001        .       MOVS     r0,#1
        0x0001a596:    f88d00b8    ....    STRB     r0,[sp,#0xb8]
        0x0001a59a:    f88d00b9    ....    STRB     r0,[sp,#0xb9]
        0x0001a59e:    982c        ,.      LDR      r0,[sp,#0xb0]
        0x0001a5a0:    f5b07f80    ....    CMP      r0,#0x100
        0x0001a5a4:    d908        ..      BLS      0x1a5b8 ; am_devices_mspi_is25wx064_write + 368
        0x0001a5a6:    e7ff        ..      B        0x1a5a8 ; am_devices_mspi_is25wx064_write + 352
        0x0001a5a8:    f44f7080    O..p    MOV      r0,#0x100
        0x0001a5ac:    902f        /.      STR      r0,[sp,#0xbc]
        0x0001a5ae:    982c        ,.      LDR      r0,[sp,#0xb0]
        0x0001a5b0:    f5a07080    ...p    SUB      r0,r0,#0x100
        0x0001a5b4:    902c        ,.      STR      r0,[sp,#0xb0]
        0x0001a5b6:    e004        ..      B        0x1a5c2 ; am_devices_mspi_is25wx064_write + 378
        0x0001a5b8:    982c        ,.      LDR      r0,[sp,#0xb0]
        0x0001a5ba:    902f        /.      STR      r0,[sp,#0xbc]
        0x0001a5bc:    2000        .       MOVS     r0,#0
        0x0001a5be:    902c        ,.      STR      r0,[sp,#0xb0]
        0x0001a5c0:    e7ff        ..      B        0x1a5c2 ; am_devices_mspi_is25wx064_write + 378
        0x0001a5c2:    982b        +.      LDR      r0,[sp,#0xac]
        0x0001a5c4:    9030        0.      STR      r0,[sp,#0xc0]
        0x0001a5c6:    982b        +.      LDR      r0,[sp,#0xac]
        0x0001a5c8:    f5007080    ...p    ADD      r0,r0,#0x100
        0x0001a5cc:    902b        +.      STR      r0,[sp,#0xac]
        0x0001a5ce:    982a        *.      LDR      r0,[sp,#0xa8]
        0x0001a5d0:    9031        1.      STR      r0,[sp,#0xc4]
        0x0001a5d2:    982a        *.      LDR      r0,[sp,#0xa8]
        0x0001a5d4:    f5007080    ...p    ADD      r0,r0,#0x100
        0x0001a5d8:    902a        *.      STR      r0,[sp,#0xa8]
        0x0001a5da:    2000        .       MOVS     r0,#0
        0x0001a5dc:    9032        2.      STR      r0,[sp,#0xc8]
        0x0001a5de:    9033        3.      STR      r0,[sp,#0xcc]
        0x0001a5e0:    f04f30ff    O..0    MOV      r0,#0xffffffff
        0x0001a5e4:    9005        ..      STR      r0,[sp,#0x14]
        0x0001a5e6:    9828        (.      LDR      r0,[sp,#0xa0]
        0x0001a5e8:    6840        @h      LDR      r0,[r0,#4]
        0x0001a5ea:    466a        jF      MOV      r2,sp
        0x0001a5ec:    a905        ..      ADD      r1,sp,#0x14
        0x0001a5ee:    6011        .`      STR      r1,[r2,#0]
        0x0001a5f0:    f64f336d    O.m3    MOV      r3,#0xfb6d
        0x0001a5f4:    f2c00301    ....    MOVT     r3,#1
        0x0001a5f8:    a92e        ..      ADD      r1,sp,#0xb8
        0x0001a5fa:    2201        ."      MOVS     r2,#1
        0x0001a5fc:    f002f83b    ..;.    BL       am_hal_mspi_nonblocking_transfer ; 0x1c676
        0x0001a600:    9029        ).      STR      r0,[sp,#0xa4]
        0x0001a602:    9829        ).      LDR      r0,[sp,#0xa4]
        0x0001a604:    b118        ..      CBZ      r0,0x1a60e ; am_devices_mspi_is25wx064_write + 454
        0x0001a606:    e7ff        ..      B        0x1a608 ; am_devices_mspi_is25wx064_write + 448
        0x0001a608:    2001        .       MOVS     r0,#1
        0x0001a60a:    9039        9.      STR      r0,[sp,#0xe4]
        0x0001a60c:    e063        c.      B        0x1a6d6 ; am_devices_mspi_is25wx064_write + 654
        0x0001a60e:    2000        .       MOVS     r0,#0
        0x0001a610:    9004        ..      STR      r0,[sp,#0x10]
        0x0001a612:    e7ff        ..      B        0x1a614 ; am_devices_mspi_is25wx064_write + 460
        0x0001a614:    9804        ..      LDR      r0,[sp,#0x10]
        0x0001a616:    f244213f    D.?!    MOV      r1,#0x423f
        0x0001a61a:    f2c0010f    ....    MOVT     r1,#0xf
        0x0001a61e:    4288        .B      CMP      r0,r1
        0x0001a620:    d80c        ..      BHI      0x1a63c ; am_devices_mspi_is25wx064_write + 500
        0x0001a622:    e7ff        ..      B        0x1a624 ; am_devices_mspi_is25wx064_write + 476
        0x0001a624:    9805        ..      LDR      r0,[sp,#0x14]
        0x0001a626:    b908        ..      CBNZ     r0,0x1a62c ; am_devices_mspi_is25wx064_write + 484
        0x0001a628:    e7ff        ..      B        0x1a62a ; am_devices_mspi_is25wx064_write + 482
        0x0001a62a:    e007        ..      B        0x1a63c ; am_devices_mspi_is25wx064_write + 500
        0x0001a62c:    2001        .       MOVS     r0,#1
        0x0001a62e:    f002fe77    ..w.    BL       am_util_delay_us ; 0x1d320
        0x0001a632:    e7ff        ..      B        0x1a634 ; am_devices_mspi_is25wx064_write + 492
        0x0001a634:    9804        ..      LDR      r0,[sp,#0x10]
        0x0001a636:    3001        .0      ADDS     r0,#1
        0x0001a638:    9004        ..      STR      r0,[sp,#0x10]
        0x0001a63a:    e7eb        ..      B        0x1a614 ; am_devices_mspi_is25wx064_write + 460
        0x0001a63c:    9805        ..      LDR      r0,[sp,#0x14]
        0x0001a63e:    b118        ..      CBZ      r0,0x1a648 ; am_devices_mspi_is25wx064_write + 512
        0x0001a640:    e7ff        ..      B        0x1a642 ; am_devices_mspi_is25wx064_write + 506
        0x0001a642:    2001        .       MOVS     r0,#1
        0x0001a644:    9039        9.      STR      r0,[sp,#0xe4]
        0x0001a646:    e046        F.      B        0x1a6d6 ; am_devices_mspi_is25wx064_write + 654
        0x0001a648:    2000        .       MOVS     r0,#0
        0x0001a64a:    9003        ..      STR      r0,[sp,#0xc]
        0x0001a64c:    e7ff        ..      B        0x1a64e ; am_devices_mspi_is25wx064_write + 518
        0x0001a64e:    9803        ..      LDR      r0,[sp,#0xc]
        0x0001a650:    f244213f    D.?!    MOV      r1,#0x423f
        0x0001a654:    f2c0010f    ....    MOVT     r1,#0xf
        0x0001a658:    4288        .B      CMP      r0,r1
        0x0001a65a:    d826        &.      BHI      0x1a6aa ; am_devices_mspi_is25wx064_write + 610
        0x0001a65c:    e7ff        ..      B        0x1a65e ; am_devices_mspi_is25wx064_write + 534
        0x0001a65e:    9838        8.      LDR      r0,[sp,#0xe0]
        0x0001a660:    466a        jF      MOV      r2,sp
        0x0001a662:    2102        .!      MOVS     r1,#2
        0x0001a664:    6051        Q`      STR      r1,[r2,#4]
        0x0001a666:    a908        ..      ADD      r1,sp,#0x20
        0x0001a668:    6011        .`      STR      r1,[r2,#0]
        0x0001a66a:    f2405105    @..Q    MOV      r1,#0x505
        0x0001a66e:    2300        .#      MOVS     r3,#0
        0x0001a670:    461a        .F      MOV      r2,r3
        0x0001a672:    f003fc57    ..W.    BL       command_read_combo ; 0x1df24
        0x0001a676:    9029        ).      STR      r0,[sp,#0xa4]
        0x0001a678:    9829        ).      LDR      r0,[sp,#0xa4]
        0x0001a67a:    b118        ..      CBZ      r0,0x1a684 ; am_devices_mspi_is25wx064_write + 572
        0x0001a67c:    e7ff        ..      B        0x1a67e ; am_devices_mspi_is25wx064_write + 566
        0x0001a67e:    2001        .       MOVS     r0,#1
        0x0001a680:    9039        9.      STR      r0,[sp,#0xe4]
        0x0001a682:    e028        (.      B        0x1a6d6 ; am_devices_mspi_is25wx064_write + 654
        0x0001a684:    9908        ..      LDR      r1,[sp,#0x20]
        0x0001a686:    2001        .       MOVS     r0,#1
        0x0001a688:    4388        .C      BICS     r0,r0,r1
        0x0001a68a:    f88d00b7    ....    STRB     r0,[sp,#0xb7]
        0x0001a68e:    2064        d       MOVS     r0,#0x64
        0x0001a690:    f002fe46    ..F.    BL       am_util_delay_us ; 0x1d320
        0x0001a694:    f89d00b7    ....    LDRB     r0,[sp,#0xb7]
        0x0001a698:    07c0        ..      LSLS     r0,r0,#31
        0x0001a69a:    b108        ..      CBZ      r0,0x1a6a0 ; am_devices_mspi_is25wx064_write + 600
        0x0001a69c:    e7ff        ..      B        0x1a69e ; am_devices_mspi_is25wx064_write + 598
        0x0001a69e:    e004        ..      B        0x1a6aa ; am_devices_mspi_is25wx064_write + 610
        0x0001a6a0:    e7ff        ..      B        0x1a6a2 ; am_devices_mspi_is25wx064_write + 602
        0x0001a6a2:    9803        ..      LDR      r0,[sp,#0xc]
        0x0001a6a4:    3001        .0      ADDS     r0,#1
        0x0001a6a6:    9003        ..      STR      r0,[sp,#0xc]
        0x0001a6a8:    e7d1        ..      B        0x1a64e ; am_devices_mspi_is25wx064_write + 518
        0x0001a6aa:    9838        8.      LDR      r0,[sp,#0xe0]
        0x0001a6ac:    466a        jF      MOV      r2,sp
        0x0001a6ae:    2300        .#      MOVS     r3,#0
        0x0001a6b0:    6053        S`      STR      r3,[r2,#4]
        0x0001a6b2:    a908        ..      ADD      r1,sp,#0x20
        0x0001a6b4:    6011        .`      STR      r1,[r2,#0]
        0x0001a6b6:    f2404104    @..A    MOV      r1,#0x404
        0x0001a6ba:    461a        .F      MOV      r2,r3
        0x0001a6bc:    f003fdc2    ....    BL       command_write_combo ; 0x1e244
        0x0001a6c0:    9029        ).      STR      r0,[sp,#0xa4]
        0x0001a6c2:    9829        ).      LDR      r0,[sp,#0xa4]
        0x0001a6c4:    b118        ..      CBZ      r0,0x1a6ce ; am_devices_mspi_is25wx064_write + 646
        0x0001a6c6:    e7ff        ..      B        0x1a6c8 ; am_devices_mspi_is25wx064_write + 640
        0x0001a6c8:    2001        .       MOVS     r0,#1
        0x0001a6ca:    9039        9.      STR      r0,[sp,#0xe4]
        0x0001a6cc:    e003        ..      B        0x1a6d6 ; am_devices_mspi_is25wx064_write + 654
        0x0001a6ce:    e6d6        ..      B        0x1a47e ; am_devices_mspi_is25wx064_write + 54
        0x0001a6d0:    2000        .       MOVS     r0,#0
        0x0001a6d2:    9039        9.      STR      r0,[sp,#0xe4]
        0x0001a6d4:    e7ff        ..      B        0x1a6d6 ; am_devices_mspi_is25wx064_write + 654
        0x0001a6d6:    9839        9.      LDR      r0,[sp,#0xe4]
        0x0001a6d8:    b03a        :.      ADD      sp,sp,#0xe8
        0x0001a6da:    bd80        ..      POP      {r7,pc}
    am_hal_cmdq_alloc_block
        0x0001a6dc:    b5f0        ..      PUSH     {r4-r7,lr}
        0x0001a6de:    b081        ..      SUB      sp,sp,#4
        0x0001a6e0:    b1f0        ..      CBZ      r0,0x1a720 ; am_hal_cmdq_alloc_block + 68
        0x0001a6e2:    4605        .F      MOV      r5,r0
        0x0001a6e4:    6800        .h      LDR      r0,[r0,#0]
        0x0001a6e6:    460f        .F      MOV      r7,r1
        0x0001a6e8:    f64c51cd    L..Q    MOV      r1,#0xcdcd
        0x0001a6ec:    f020407e     .~@    BIC      r0,r0,#0xfe000000
        0x0001a6f0:    f2c011cd    ....    MOVT     r1,#0x1cd
        0x0001a6f4:    4288        .B      CMP      r0,r1
        0x0001a6f6:    d113        ..      BNE      0x1a720 ; am_hal_cmdq_alloc_block + 68
        0x0001a6f8:    4616        .F      MOV      r6,r2
        0x0001a6fa:    f04f0006    O...    MOV      r0,#6
        0x0001a6fe:    b182        ..      CBZ      r2,0x1a722 ; am_hal_cmdq_alloc_block + 70
        0x0001a700:    461c        .F      MOV      r4,r3
        0x0001a702:    b173        s.      CBZ      r3,0x1a722 ; am_hal_cmdq_alloc_block + 70
        0x0001a704:    e9d50104    ....    LDRD     r0,r1,[r5,#0x10]
        0x0001a708:    4288        .B      CMP      r0,r1
        0x0001a70a:    d10c        ..      BNE      0x1a726 ; am_hal_cmdq_alloc_block + 74
        0x0001a70c:    4628        (F      MOV      r0,r5
        0x0001a70e:    f005fbdf    ....    BL       update_indices ; 0x1fed0
        0x0001a712:    e9d51007    ....    LDRD     r1,r0,[r5,#0x1c]
        0x0001a716:    31fe        .1      ADDS     r1,r1,#0xfe
        0x0001a718:    4281        .B      CMP      r1,r0
        0x0001a71a:    da06        ..      BGE      0x1a72a ; am_hal_cmdq_alloc_block + 78
        0x0001a71c:    2005        .       MOVS     r0,#5
        0x0001a71e:    e000        ..      B        0x1a722 ; am_hal_cmdq_alloc_block + 70
        0x0001a720:    2002        .       MOVS     r0,#2
        0x0001a722:    b001        ..      ADD      sp,sp,#4
        0x0001a724:    bdf0        ..      POP      {r4-r7,pc}
        0x0001a726:    2007        .       MOVS     r0,#7
        0x0001a728:    e7fb        ..      B        0x1a722 ; am_hal_cmdq_alloc_block + 70
        0x0001a72a:    e9d53103    ...1    LDRD     r3,r1,[r5,#0xc]
        0x0001a72e:    00fa        ..      LSLS     r2,r7,#3
        0x0001a730:    4299        .B      CMP      r1,r3
        0x0001a732:    d204        ..      BCS      0x1a73e ; am_hal_cmdq_alloc_block + 98
        0x0001a734:    1857        W.      ADDS     r7,r2,r1
        0x0001a736:    3708        .7      ADDS     r7,r7,#8
        0x0001a738:    429f        .B      CMP      r7,r3
        0x0001a73a:    d2ef        ..      BCS      0x1a71c ; am_hal_cmdq_alloc_block + 64
        0x0001a73c:    e013        ..      B        0x1a766 ; am_hal_cmdq_alloc_block + 138
        0x0001a73e:    eb020c01    ....    ADD      r12,r2,r1
        0x0001a742:    f8d5e008    ....    LDR      lr,[r5,#8]
        0x0001a746:    f10c0710    ....    ADD      r7,r12,#0x10
        0x0001a74a:    4577        wE      CMP      r7,lr
        0x0001a74c:    d90b        ..      BLS      0x1a766 ; am_hal_cmdq_alloc_block + 138
        0x0001a74e:    f8d5c004    ....    LDR      r12,[r5,#4]
        0x0001a752:    eb02070c    ....    ADD      r7,r2,r12
        0x0001a756:    3708        .7      ADDS     r7,r7,#8
        0x0001a758:    429f        .B      CMP      r7,r3
        0x0001a75a:    d2df        ..      BCS      0x1a71c ; am_hal_cmdq_alloc_block + 64
        0x0001a75c:    6a6b        kj      LDR      r3,[r5,#0x24]
        0x0001a75e:    685b        [h      LDR      r3,[r3,#4]
        0x0001a760:    e9c13c00    ...<    STRD     r3,r12,[r1,#0]
        0x0001a764:    4661        aF      MOV      r1,r12
        0x0001a766:    3001        .0      ADDS     r0,#1
        0x0001a768:    6228        (b      STR      r0,[r5,#0x20]
        0x0001a76a:    6020         `      STR      r0,[r4,#0]
        0x0001a76c:    1888        ..      ADDS     r0,r1,r2
        0x0001a76e:    6168        ha      STR      r0,[r5,#0x14]
        0x0001a770:    2000        .       MOVS     r0,#0
        0x0001a772:    6031        1`      STR      r1,[r6,#0]
        0x0001a774:    e7d5        ..      B        0x1a722 ; am_hal_cmdq_alloc_block + 70
    am_hal_cmdq_disable
        0x0001a776:    b1b0        ..      CBZ      r0,0x1a7a6 ; am_hal_cmdq_disable + 48
        0x0001a778:    6801        .h      LDR      r1,[r0,#0]
        0x0001a77a:    f64c53cd    L..S    MOV      r3,#0xcdcd
        0x0001a77e:    f021427e    !.~B    BIC      r2,r1,#0xfe000000
        0x0001a782:    f2c013cd    ....    MOVT     r3,#0x1cd
        0x0001a786:    429a        .B      CMP      r2,r3
        0x0001a788:    d10d        ..      BNE      0x1a7a6 ; am_hal_cmdq_disable + 48
        0x0001a78a:    0189        ..      LSLS     r1,r1,#6
        0x0001a78c:    d509        ..      BPL      0x1a7a2 ; am_hal_cmdq_disable + 44
        0x0001a78e:    6a41        Aj      LDR      r1,[r0,#0x24]
        0x0001a790:    6809        .h      LDR      r1,[r1,#0]
        0x0001a792:    680a        .h      LDR      r2,[r1,#0]
        0x0001a794:    f0220201    "...    BIC      r2,r2,#1
        0x0001a798:    600a        .`      STR      r2,[r1,#0]
        0x0001a79a:    6801        .h      LDR      r1,[r0,#0]
        0x0001a79c:    f0217100    !..q    BIC      r1,r1,#0x2000000
        0x0001a7a0:    6001        .`      STR      r1,[r0,#0]
        0x0001a7a2:    2000        .       MOVS     r0,#0
        0x0001a7a4:    4770        pG      BX       lr
        0x0001a7a6:    2002        .       MOVS     r0,#2
        0x0001a7a8:    4770        pG      BX       lr
    am_hal_cmdq_enable
        0x0001a7aa:    b510        ..      PUSH     {r4,lr}
        0x0001a7ac:    b308        ..      CBZ      r0,0x1a7f2 ; am_hal_cmdq_enable + 72
        0x0001a7ae:    4604        .F      MOV      r4,r0
        0x0001a7b0:    6800        .h      LDR      r0,[r0,#0]
        0x0001a7b2:    f64c52cd    L..R    MOV      r2,#0xcdcd
        0x0001a7b6:    f020417e     .~A    BIC      r1,r0,#0xfe000000
        0x0001a7ba:    f2c012cd    ....    MOVT     r2,#0x1cd
        0x0001a7be:    4291        .B      CMP      r1,r2
        0x0001a7c0:    d117        ..      BNE      0x1a7f2 ; am_hal_cmdq_enable + 72
        0x0001a7c2:    0180        ..      LSLS     r0,r0,#6
        0x0001a7c4:    d413        ..      BMI      0x1a7ee ; am_hal_cmdq_enable + 68
        0x0001a7c6:    68a0        .h      LDR      r0,[r4,#8]
        0x0001a7c8:    2100        .!      MOVS     r1,#0
        0x0001a7ca:    f2c10106    ....    MOVT     r1,#0x1006
        0x0001a7ce:    4288        .B      CMP      r0,r1
        0x0001a7d0:    d303        ..      BCC      0x1a7da ; am_hal_cmdq_enable + 48
        0x0001a7d2:    2001        .       MOVS     r0,#1
        0x0001a7d4:    2100        .!      MOVS     r1,#0
        0x0001a7d6:    f000f9dd    ....    BL       am_hal_daxi_control ; 0x1ab94
        0x0001a7da:    6a60        `j      LDR      r0,[r4,#0x24]
        0x0001a7dc:    6800        .h      LDR      r0,[r0,#0]
        0x0001a7de:    6801        .h      LDR      r1,[r0,#0]
        0x0001a7e0:    f0410101    A...    ORR      r1,r1,#1
        0x0001a7e4:    6001        .`      STR      r1,[r0,#0]
        0x0001a7e6:    6820         h      LDR      r0,[r4,#0]
        0x0001a7e8:    f0407000    @..p    ORR      r0,r0,#0x2000000
        0x0001a7ec:    6020         `      STR      r0,[r4,#0]
        0x0001a7ee:    2000        .       MOVS     r0,#0
        0x0001a7f0:    bd10        ..      POP      {r4,pc}
        0x0001a7f2:    2002        .       MOVS     r0,#2
        0x0001a7f4:    bd10        ..      POP      {r4,pc}
        0x0001a7f6:    0000        ..      MOVS     r0,r0
    am_hal_cmdq_error_resume
        0x0001a7f8:    b510        ..      PUSH     {r4,lr}
        0x0001a7fa:    b368        h.      CBZ      r0,0x1a858 ; am_hal_cmdq_error_resume + 96
        0x0001a7fc:    6801        .h      LDR      r1,[r0,#0]
        0x0001a7fe:    f64c53cd    L..S    MOV      r3,#0xcdcd
        0x0001a802:    f021427e    !.~B    BIC      r2,r1,#0xfe000000
        0x0001a806:    f2c013cd    ....    MOVT     r3,#0x1cd
        0x0001a80a:    429a        .B      CMP      r2,r3
        0x0001a80c:    d124        $.      BNE      0x1a858 ; am_hal_cmdq_error_resume + 96
        0x0001a80e:    0189        ..      LSLS     r1,r1,#6
        0x0001a810:    d520         .      BPL      0x1a854 ; am_hal_cmdq_error_resume + 92
        0x0001a812:    6a41        Aj      LDR      r1,[r0,#0x24]
        0x0001a814:    e9d12c00    ...,    LDRD     r2,r12,[r1,#0]
        0x0001a818:    688c        .h      LDR      r4,[r1,#8]
        0x0001a81a:    6811        .h      LDR      r1,[r2,#0]
        0x0001a81c:    f0210101    !...    BIC      r1,r1,#1
        0x0001a820:    6011        .`      STR      r1,[r2,#0]
        0x0001a822:    f8dc2000    ...     LDR      r2,[r12,#0]
        0x0001a826:    6811        .h      LDR      r1,[r2,#0]
        0x0001a828:    f0210e01    !...    BIC      lr,r1,#1
        0x0001a82c:    45a6        .E      CMP      lr,r4
        0x0001a82e:    d009        ..      BEQ      0x1a844 ; am_hal_cmdq_error_resume + 76
        0x0001a830:    4561        aE      CMP      r1,r12
        0x0001a832:    bf14        ..      ITE      NE
        0x0001a834:    3208        .2      ADDNE    r2,r2,#8
        0x0001a836:    6852        Rh      LDREQ    r2,[r2,#4]
        0x0001a838:    6811        .h      LDR      r1,[r2,#0]
        0x0001a83a:    f0210301    !...    BIC      r3,r1,#1
        0x0001a83e:    42a3        .B      CMP      r3,r4
        0x0001a840:    d1f6        ..      BNE      0x1a830 ; am_hal_cmdq_error_resume + 56
        0x0001a842:    46a6        .F      MOV      lr,r4
        0x0001a844:    f8c2e000    ....    STR      lr,[r2,#0]
        0x0001a848:    f8cc2000    ...     STR      r2,[r12,#0]
        0x0001a84c:    6801        .h      LDR      r1,[r0,#0]
        0x0001a84e:    f0217100    !..q    BIC      r1,r1,#0x2000000
        0x0001a852:    6001        .`      STR      r1,[r0,#0]
        0x0001a854:    2000        .       MOVS     r0,#0
        0x0001a856:    bd10        ..      POP      {r4,pc}
        0x0001a858:    2002        .       MOVS     r0,#2
        0x0001a85a:    bd10        ..      POP      {r4,pc}
    am_hal_cmdq_get_status
        0x0001a85c:    b5b0        ..      PUSH     {r4,r5,r7,lr}
        0x0001a85e:    b368        h.      CBZ      r0,0x1a8bc ; am_hal_cmdq_get_status + 96
        0x0001a860:    4605        .F      MOV      r5,r0
        0x0001a862:    6800        .h      LDR      r0,[r0,#0]
        0x0001a864:    460c        .F      MOV      r4,r1
        0x0001a866:    f64c51cd    L..Q    MOV      r1,#0xcdcd
        0x0001a86a:    f020407e     .~@    BIC      r0,r0,#0xfe000000
        0x0001a86e:    f2c011cd    ....    MOVT     r1,#0x1cd
        0x0001a872:    4288        .B      CMP      r0,r1
        0x0001a874:    d122        ".      BNE      0x1a8bc ; am_hal_cmdq_get_status + 96
        0x0001a876:    b31c        ..      CBZ      r4,0x1a8c0 ; am_hal_cmdq_get_status + 100
        0x0001a878:    4628        (F      MOV      r0,r5
        0x0001a87a:    f005fb29    ..).    BL       update_indices ; 0x1fed0
        0x0001a87e:    e9d50104    ....    LDRD     r0,r1,[r5,#0x10]
        0x0001a882:    e9d52307    ...#    LDRD     r2,r3,[r5,#0x1c]
        0x0001a886:    4281        .B      CMP      r1,r0
        0x0001a888:    60a3        .`      STR      r3,[r4,#8]
        0x0001a88a:    bf18        ..      IT       NE
        0x0001a88c:    3b01        .;      SUBNE    r3,#1
        0x0001a88e:    6a68        hj      LDR      r0,[r5,#0x24]
        0x0001a890:    6063        c`      STR      r3,[r4,#4]
        0x0001a892:    f1000318    ....    ADD      r3,r0,#0x18
        0x0001a896:    6022        "`      STR      r2,[r4,#0]
        0x0001a898:    cb0e        ..      LDM      r3,{r1-r3}
        0x0001a89a:    6a40        @j      LDR      r0,[r0,#0x24]
        0x0001a89c:    6809        .h      LDR      r1,[r1,#0]
        0x0001a89e:    400a        .@      ANDS     r2,r2,r1
        0x0001a8a0:    bf18        ..      IT       NE
        0x0001a8a2:    2201        ."      MOVNE    r2,#1
        0x0001a8a4:    4008        .@      ANDS     r0,r0,r1
        0x0001a8a6:    7322        "s      STRB     r2,[r4,#0xc]
        0x0001a8a8:    bf18        ..      IT       NE
        0x0001a8aa:    2001        .       MOVNE    r0,#1
        0x0001a8ac:    7360        `s      STRB     r0,[r4,#0xd]
        0x0001a8ae:    ea130001    ....    ANDS     r0,r3,r1
        0x0001a8b2:    bf18        ..      IT       NE
        0x0001a8b4:    2001        .       MOVNE    r0,#1
        0x0001a8b6:    73a0        .s      STRB     r0,[r4,#0xe]
        0x0001a8b8:    2000        .       MOVS     r0,#0
        0x0001a8ba:    bdb0        ..      POP      {r4,r5,r7,pc}
        0x0001a8bc:    2002        .       MOVS     r0,#2
        0x0001a8be:    bdb0        ..      POP      {r4,r5,r7,pc}
        0x0001a8c0:    2006        .       MOVS     r0,#6
        0x0001a8c2:    bdb0        ..      POP      {r4,r5,r7,pc}
    am_hal_cmdq_init
        0x0001a8c4:    e92d41f0    -..A    PUSH     {r4-r8,lr}
        0x0001a8c8:    280a        .(      CMP      r0,#0xa
        0x0001a8ca:    bf84        ..      ITT      HI
        0x0001a8cc:    2005        .       MOVHI    r0,#5
        0x0001a8ce:    e8bd81f0    ....    POPHI    {r4-r8,pc}
        0x0001a8d2:    b171        q.      CBZ      r1,0x1a8f2 ; am_hal_cmdq_init + 46
        0x0001a8d4:    4603        .F      MOV      r3,r0
        0x0001a8d6:    2a00        .*      CMP      r2,#0
        0x0001a8d8:    f04f0006    O...    MOV      r0,#6
        0x0001a8dc:    d04f        O.      BEQ      0x1a97e ; am_hal_cmdq_init + 186
        0x0001a8de:    f8d1e004    ....    LDR      lr,[r1,#4]
        0x0001a8e2:    f1be0f00    ....    CMP      lr,#0
        0x0001a8e6:    bf08        ..      IT       EQ
        0x0001a8e8:    e8bd81f0    ....    POPEQ    {r4-r8,pc}
        0x0001a8ec:    6808        .h      LDR      r0,[r1,#0]
        0x0001a8ee:    2802        .(      CMP      r0,#2
        0x0001a8f0:    d202        ..      BCS      0x1a8f8 ; am_hal_cmdq_init + 52
        0x0001a8f2:    2006        .       MOVS     r0,#6
        0x0001a8f4:    e8bd81f0    ....    POP      {r4-r8,pc}
        0x0001a8f8:    f2447c40    D.@|    MOV      r12,#0x4740
        0x0001a8fc:    252c        ,%      MOVS     r5,#0x2c
        0x0001a8fe:    f2c10c00    ....    MOVT     r12,#0x1000
        0x0001a902:    fb03f405    ....    MUL      r4,r3,r5
        0x0001a906:    f85c4004    \..@    LDR      r4,[r12,r4]
        0x0001a90a:    01e6        ..      LSLS     r6,r4,#7
        0x0001a90c:    bf44        D.      ITT      MI
        0x0001a90e:    2007        .       MOVMI    r0,#7
        0x0001a910:    e8bd81f0    ....    POPMI    {r4-r8,pc}
        0x0001a914:    f24028bc    @..(    MOVW     r8,#0x2bc
        0x0001a918:    fb13cc05    ....    SMLABB   r12,r3,r5,r12
        0x0001a91c:    00c5        ..      LSLS     r5,r0,#3
        0x0001a91e:    eb0e06c0    ....    ADD      r6,lr,r0,LSL #3
        0x0001a922:    f64c50cd    L..P    MOV      r0,#0xcdcd
        0x0001a926:    eb030383    ....    ADD      r3,r3,r3,LSL #2
        0x0001a92a:    f2c00802    ....    MOVT     r8,#2
        0x0001a92e:    f2c010cd    ....    MOVT     r0,#0x1cd
        0x0001a932:    eb0807c3    ....    ADD      r7,r8,r3,LSL #3
        0x0001a936:    f3600419    `...    BFI      r4,r0,#0,#26
        0x0001a93a:    e9cce601    ....    STRD     lr,r6,[r12,#4]
        0x0001a93e:    e9cce505    ....    STRD     lr,r5,[r12,#0x14]
        0x0001a942:    e9d76502    ...e    LDRD     r6,r5,[r7,#8]
        0x0001a946:    f8cc4000    ...@    STR      r4,[r12,#0]
        0x0001a94a:    2000        .       MOVS     r0,#0
        0x0001a94c:    693c        <i      LDR      r4,[r7,#0x10]
        0x0001a94e:    f8cc7024    ..$p    STR      r7,[r12,#0x24]
        0x0001a952:    e9ccee03    ....    STRD     lr,lr,[r12,#0xc]
        0x0001a956:    e9cc0007    ....    STRD     r0,r0,[r12,#0x1c]
        0x0001a95a:    6030        0`      STR      r0,[r6,#0]
        0x0001a95c:    6028        (`      STR      r0,[r5,#0]
        0x0001a95e:    697e        ~i      LDR      r6,[r7,#0x14]
        0x0001a960:    6825        %h      LDR      r5,[r4,#0]
        0x0001a962:    687f        .h      LDR      r7,[r7,#4]
        0x0001a964:    432e        .C      ORRS     r6,r6,r5
        0x0001a966:    6026        &`      STR      r6,[r4,#0]
        0x0001a968:    684e        Nh      LDR      r6,[r1,#4]
        0x0001a96a:    f8583033    X.30    LDR      r3,[r8,r3,LSL #3]
        0x0001a96e:    603e        >`      STR      r6,[r7,#0]
        0x0001a970:    7a09        .z      LDRB     r1,[r1,#8]
        0x0001a972:    2702        .'      MOVS     r7,#2
        0x0001a974:    ea070141    ..A.    AND      r1,r7,r1,LSL #1
        0x0001a978:    6019        .`      STR      r1,[r3,#0]
        0x0001a97a:    f8c2c000    ....    STR      r12,[r2,#0]
        0x0001a97e:    e8bd81f0    ....    POP      {r4-r8,pc}
    am_hal_cmdq_post_block
        0x0001a982:    b510        ..      PUSH     {r4,lr}
        0x0001a984:    b370        p.      CBZ      r0,0x1a9e4 ; am_hal_cmdq_post_block + 98
        0x0001a986:    4604        .F      MOV      r4,r0
        0x0001a988:    6800        .h      LDR      r0,[r0,#0]
        0x0001a98a:    f64c52cd    L..R    MOV      r2,#0xcdcd
        0x0001a98e:    f020407e     .~@    BIC      r0,r0,#0xfe000000
        0x0001a992:    f2c012cd    ....    MOVT     r2,#0x1cd
        0x0001a996:    4290        .B      CMP      r0,r2
        0x0001a998:    d124        $.      BNE      0x1a9e4 ; am_hal_cmdq_post_block + 98
        0x0001a99a:    e9d40304    ....    LDRD     r0,r3,[r4,#0x10]
        0x0001a99e:    4298        .B      CMP      r0,r3
        0x0001a9a0:    bf04        ..      ITT      EQ
        0x0001a9a2:    2007        .       MOVEQ    r0,#7
        0x0001a9a4:    bd10        ..      POPEQ    {r4,pc}
        0x0001a9a6:    6a62        bj      LDR      r2,[r4,#0x24]
        0x0001a9a8:    f8d4c008    ....    LDR      r12,[r4,#8]
        0x0001a9ac:    6890        .h      LDR      r0,[r2,#8]
        0x0001a9ae:    f8d4e020    .. .    LDR      lr,[r4,#0x20]
        0x0001a9b2:    4308        .C      ORRS     r0,r0,r1
        0x0001a9b4:    2100        .!      MOVS     r1,#0
        0x0001a9b6:    f2c10106    ....    MOVT     r1,#0x1006
        0x0001a9ba:    e9c30e00    ....    STRD     r0,lr,[r3,#0]
        0x0001a9be:    f1030008    ....    ADD      r0,r3,#8
        0x0001a9c2:    458c        .E      CMP      r12,r1
        0x0001a9c4:    6120         a      STR      r0,[r4,#0x10]
        0x0001a9c6:    6160        `a      STR      r0,[r4,#0x14]
        0x0001a9c8:    d306        ..      BCC      0x1a9d8 ; am_hal_cmdq_post_block + 86
        0x0001a9ca:    2001        .       MOVS     r0,#1
        0x0001a9cc:    2100        .!      MOVS     r1,#0
        0x0001a9ce:    f000f8e1    ....    BL       am_hal_daxi_control ; 0x1ab94
        0x0001a9d2:    f894e020    .. .    LDRB     lr,[r4,#0x20]
        0x0001a9d6:    6a62        bj      LDR      r2,[r4,#0x24]
        0x0001a9d8:    68d0        .h      LDR      r0,[r2,#0xc]
        0x0001a9da:    fa5ff18e    _...    UXTB     r1,lr
        0x0001a9de:    6001        .`      STR      r1,[r0,#0]
        0x0001a9e0:    2000        .       MOVS     r0,#0
        0x0001a9e2:    bd10        ..      POP      {r4,pc}
        0x0001a9e4:    2002        .       MOVS     r0,#2
        0x0001a9e6:    bd10        ..      POP      {r4,pc}
    am_hal_cmdq_post_loop_block
        0x0001a9e8:    b570        p.      PUSH     {r4-r6,lr}
        0x0001a9ea:    b370        p.      CBZ      r0,0x1aa4a ; am_hal_cmdq_post_loop_block + 98
        0x0001a9ec:    4604        .F      MOV      r4,r0
        0x0001a9ee:    6800        .h      LDR      r0,[r0,#0]
        0x0001a9f0:    f64c52cd    L..R    MOV      r2,#0xcdcd
        0x0001a9f4:    f020407e     .~@    BIC      r0,r0,#0xfe000000
        0x0001a9f8:    f2c012cd    ....    MOVT     r2,#0x1cd
        0x0001a9fc:    4290        .B      CMP      r0,r2
        0x0001a9fe:    d124        $.      BNE      0x1aa4a ; am_hal_cmdq_post_loop_block + 98
        0x0001aa00:    e9d40204    ....    LDRD     r0,r2,[r4,#0x10]
        0x0001aa04:    4290        .B      CMP      r0,r2
        0x0001aa06:    bf04        ..      ITT      EQ
        0x0001aa08:    2007        .       MOVEQ    r0,#7
        0x0001aa0a:    bd70        p.      POPEQ    {r4-r6,pc}
        0x0001aa0c:    6a60        `j      LDR      r0,[r4,#0x24]
        0x0001aa0e:    e9d4ec01    ....    LDRD     lr,r12,[r4,#4]
        0x0001aa12:    e9d03501    ...5    LDRD     r3,r5,[r0,#4]
        0x0001aa16:    2600        .&      MOVS     r6,#0
        0x0001aa18:    4319        .C      ORRS     r1,r1,r3
        0x0001aa1a:    e9c25600    ...V    STRD     r5,r6,[r2,#0]
        0x0001aa1e:    e9c21e02    ....    STRD     r1,lr,[r2,#8]
        0x0001aa22:    f1020110    ....    ADD      r1,r2,#0x10
        0x0001aa26:    2200        ."      MOVS     r2,#0
        0x0001aa28:    f2c10206    ....    MOVT     r2,#0x1006
        0x0001aa2c:    4594        .E      CMP      r12,r2
        0x0001aa2e:    6121        !a      STR      r1,[r4,#0x10]
        0x0001aa30:    6161        aa      STR      r1,[r4,#0x14]
        0x0001aa32:    d304        ..      BCC      0x1aa3e ; am_hal_cmdq_post_loop_block + 86
        0x0001aa34:    2001        .       MOVS     r0,#1
        0x0001aa36:    2100        .!      MOVS     r1,#0
        0x0001aa38:    f000f8ac    ....    BL       am_hal_daxi_control ; 0x1ab94
        0x0001aa3c:    6a60        `j      LDR      r0,[r4,#0x24]
        0x0001aa3e:    f8941020    .. .    LDRB     r1,[r4,#0x20]
        0x0001aa42:    68c0        .h      LDR      r0,[r0,#0xc]
        0x0001aa44:    6001        .`      STR      r1,[r0,#0]
        0x0001aa46:    2000        .       MOVS     r0,#0
        0x0001aa48:    bd70        p.      POP      {r4-r6,pc}
        0x0001aa4a:    2002        .       MOVS     r0,#2
        0x0001aa4c:    bd70        p.      POP      {r4-r6,pc}
    am_hal_cmdq_release_block
        0x0001aa4e:    b1a0        ..      CBZ      r0,0x1aa7a ; am_hal_cmdq_release_block + 44
        0x0001aa50:    6801        .h      LDR      r1,[r0,#0]
        0x0001aa52:    f64c52cd    L..R    MOV      r2,#0xcdcd
        0x0001aa56:    f021417e    !.~A    BIC      r1,r1,#0xfe000000
        0x0001aa5a:    f2c012cd    ....    MOVT     r2,#0x1cd
        0x0001aa5e:    4291        .B      CMP      r1,r2
        0x0001aa60:    d10b        ..      BNE      0x1aa7a ; am_hal_cmdq_release_block + 44
        0x0001aa62:    e9d01204    ....    LDRD     r1,r2,[r0,#0x10]
        0x0001aa66:    4291        .B      CMP      r1,r2
        0x0001aa68:    bf04        ..      ITT      EQ
        0x0001aa6a:    2007        .       MOVEQ    r0,#7
        0x0001aa6c:    4770        pG      BXEQ     lr
        0x0001aa6e:    6a02        .j      LDR      r2,[r0,#0x20]
        0x0001aa70:    6141        Aa      STR      r1,[r0,#0x14]
        0x0001aa72:    1e51        Q.      SUBS     r1,r2,#1
        0x0001aa74:    6201        .b      STR      r1,[r0,#0x20]
        0x0001aa76:    2000        .       MOVS     r0,#0
        0x0001aa78:    4770        pG      BX       lr
        0x0001aa7a:    2002        .       MOVS     r0,#2
        0x0001aa7c:    4770        pG      BX       lr
    am_hal_cmdq_reset
        0x0001aa7e:    b580        ..      PUSH     {r7,lr}
        0x0001aa80:    b328        (.      CBZ      r0,0x1aace ; am_hal_cmdq_reset + 80
        0x0001aa82:    6801        .h      LDR      r1,[r0,#0]
        0x0001aa84:    f64c53cd    L..S    MOV      r3,#0xcdcd
        0x0001aa88:    f021427e    !.~B    BIC      r2,r1,#0xfe000000
        0x0001aa8c:    f2c013cd    ....    MOVT     r3,#0x1cd
        0x0001aa90:    429a        .B      CMP      r2,r3
        0x0001aa92:    d11c        ..      BNE      0x1aace ; am_hal_cmdq_reset + 80
        0x0001aa94:    0189        ..      LSLS     r1,r1,#6
        0x0001aa96:    d41d        ..      BMI      0x1aad4 ; am_hal_cmdq_reset + 86
        0x0001aa98:    6a41        Aj      LDR      r1,[r0,#0x24]
        0x0001aa9a:    e9d12c00    ...,    LDRD     r2,r12,[r1,#0]
        0x0001aa9e:    e9d13e02    ...>    LDRD     r3,lr,[r1,#8]
        0x0001aaa2:    6811        .h      LDR      r1,[r2,#0]
        0x0001aaa4:    f0210101    !...    BIC      r1,r1,#1
        0x0001aaa8:    6011        .`      STR      r1,[r2,#0]
        0x0001aaaa:    6841        Ah      LDR      r1,[r0,#4]
        0x0001aaac:    e9c01103    ....    STRD     r1,r1,[r0,#0xc]
        0x0001aab0:    6141        Aa      STR      r1,[r0,#0x14]
        0x0001aab2:    2100        .!      MOVS     r1,#0
        0x0001aab4:    e9c01107    ....    STRD     r1,r1,[r0,#0x1c]
        0x0001aab8:    6019        .`      STR      r1,[r3,#0]
        0x0001aaba:    f8ce1000    ....    STR      r1,[lr,#0]
        0x0001aabe:    6842        Bh      LDR      r2,[r0,#4]
        0x0001aac0:    f8cc2000    ...     STR      r2,[r12,#0]
        0x0001aac4:    6802        .h      LDR      r2,[r0,#0]
        0x0001aac6:    f0227200    "..r    BIC      r2,r2,#0x2000000
        0x0001aaca:    6002        .`      STR      r2,[r0,#0]
        0x0001aacc:    e000        ..      B        0x1aad0 ; am_hal_cmdq_reset + 82
        0x0001aace:    2102        .!      MOVS     r1,#2
        0x0001aad0:    4608        .F      MOV      r0,r1
        0x0001aad2:    bd80        ..      POP      {r7,pc}
        0x0001aad4:    2107        .!      MOVS     r1,#7
        0x0001aad6:    e7fb        ..      B        0x1aad0 ; am_hal_cmdq_reset + 82
    am_hal_cmdq_term
        0x0001aad8:    b5b0        ..      PUSH     {r4,r5,r7,lr}
        0x0001aada:    b330        0.      CBZ      r0,0x1ab2a ; am_hal_cmdq_term + 82
        0x0001aadc:    4604        .F      MOV      r4,r0
        0x0001aade:    6800        .h      LDR      r0,[r0,#0]
        0x0001aae0:    460d        .F      MOV      r5,r1
        0x0001aae2:    f64c51cd    L..Q    MOV      r1,#0xcdcd
        0x0001aae6:    f020407e     .~@    BIC      r0,r0,#0xfe000000
        0x0001aaea:    f2c011cd    ....    MOVT     r1,#0x1cd
        0x0001aaee:    4288        .B      CMP      r0,r1
        0x0001aaf0:    d11b        ..      BNE      0x1ab2a ; am_hal_cmdq_term + 82
        0x0001aaf2:    4620         F      MOV      r0,r4
        0x0001aaf4:    f005f9ec    ....    BL       update_indices ; 0x1fed0
        0x0001aaf8:    b92d        -.      CBNZ     r5,0x1ab06 ; am_hal_cmdq_term + 46
        0x0001aafa:    e9d40107    ....    LDRD     r0,r1,[r4,#0x1c]
        0x0001aafe:    4288        .B      CMP      r0,r1
        0x0001ab00:    bf1c        ..      ITT      NE
        0x0001ab02:    2003        .       MOVNE    r0,#3
        0x0001ab04:    bdb0        ..      POPNE    {r4,r5,r7,pc}
        0x0001ab06:    6820         h      LDR      r0,[r4,#0]
        0x0001ab08:    6a61        aj      LDR      r1,[r4,#0x24]
        0x0001ab0a:    f0207080     ..p    BIC      r0,r0,#0x1000000
        0x0001ab0e:    6020         `      STR      r0,[r4,#0]
        0x0001ab10:    6808        .h      LDR      r0,[r1,#0]
        0x0001ab12:    690a        .i      LDR      r2,[r1,#0x10]
        0x0001ab14:    6803        .h      LDR      r3,[r0,#0]
        0x0001ab16:    f0230301    #...    BIC      r3,r3,#1
        0x0001ab1a:    6003        .`      STR      r3,[r0,#0]
        0x0001ab1c:    6948        Hi      LDR      r0,[r1,#0x14]
        0x0001ab1e:    6811        .h      LDR      r1,[r2,#0]
        0x0001ab20:    ea210000    !...    BIC      r0,r1,r0
        0x0001ab24:    6010        .`      STR      r0,[r2,#0]
        0x0001ab26:    2000        .       MOVS     r0,#0
        0x0001ab28:    bdb0        ..      POP      {r4,r5,r7,pc}
        0x0001ab2a:    2002        .       MOVS     r0,#2
        0x0001ab2c:    bdb0        ..      POP      {r4,r5,r7,pc}
    am_hal_daxi_config
        0x0001ab2e:    b5b0        ..      PUSH     {r4,r5,r7,lr}
        0x0001ab30:    b082        ..      SUB      sp,sp,#8
        0x0001ab32:    2550        P%      MOVS     r5,#0x50
        0x0001ab34:    4604        .F      MOV      r4,r0
        0x0001ab36:    f6c40500    ....    MOVT     r5,#0x4800
        0x0001ab3a:    f000fa7b    ..{.    BL       am_hal_interrupt_master_disable ; 0x1b034
        0x0001ab3e:    9001        ..      STR      r0,[sp,#4]
        0x0001ab40:    2001        .       MOVS     r0,#1
        0x0001ab42:    f000f827    ..'.    BL       am_hal_daxi_control ; 0x1ab94
        0x0001ab46:    b1cc        ..      CBZ      r4,0x1ab7c ; am_hal_daxi_config + 78
        0x0001ab48:    7860        `x      LDRB     r0,[r4,#1]
        0x0001ab4a:    7922        "y      LDRB     r2,[r4,#4]
        0x0001ab4c:    78a1        .x      LDRB     r1,[r4,#2]
        0x0001ab4e:    78e3        .x      LDRB     r3,[r4,#3]
        0x0001ab50:    f0020201    ....    AND      r2,r2,#1
        0x0001ab54:    f000007f    ....    AND      r0,r0,#0x7f
        0x0001ab58:    ea420040    B.@.    ORR      r0,r2,r0,LSL #1
        0x0001ab5c:    f363200b    c..     BFI      r0,r3,#8,#4
        0x0001ab60:    f001011f    ....    AND      r1,r1,#0x1f
        0x0001ab64:    ea404001    @..@    ORR      r0,r0,r1,LSL #16
        0x0001ab68:    6028        (`      STR      r0,[r5,#0]
        0x0001ab6a:    7920         y      LDRB     r0,[r4,#4]
        0x0001ab6c:    f2400184    @...    MOVW     r1,#0x84
        0x0001ab70:    f2c10100    ....    MOVT     r1,#0x1000
        0x0001ab74:    7108        .q      STRB     r0,[r1,#4]
        0x0001ab76:    6820         h      LDR      r0,[r4,#0]
        0x0001ab78:    6008        .`      STR      r0,[r1,#0]
        0x0001ab7a:    e001        ..      B        0x1ab80 ; am_hal_daxi_config + 82
        0x0001ab7c:    2006        .       MOVS     r0,#6
        0x0001ab7e:    6028        (`      STR      r0,[r5,#0]
        0x0001ab80:    2000        .       MOVS     r0,#0
        0x0001ab82:    f2c470ff    ...p    MOVT     r0,#0x47ff
        0x0001ab86:    6800        .h      LDR      r0,[r0,#0]
        0x0001ab88:    9801        ..      LDR      r0,[sp,#4]
        0x0001ab8a:    f000fa5b    ..[.    BL       am_hal_interrupt_master_set ; 0x1b044
        0x0001ab8e:    2000        .       MOVS     r0,#0
        0x0001ab90:    b002        ..      ADD      sp,sp,#8
        0x0001ab92:    bdb0        ..      POP      {r4,r5,r7,pc}
    am_hal_daxi_control
        0x0001ab94:    b510        ..      PUSH     {r4,lr}
        0x0001ab96:    b082        ..      SUB      sp,sp,#8
        0x0001ab98:    2803        .(      CMP      r0,#3
        0x0001ab9a:    d821        !.      BHI      0x1abe0 ; am_hal_daxi_control + 76
        0x0001ab9c:    e8dff000    ....    TBB      [pc,r0]
    $d.9
        0x0001aba0:    19142202    ."..    DCD    420749826
    $t.10
        0x0001aba4:    2054        T       MOVS     r0,#0x54
        0x0001aba6:    f6c40000    ....    MOVT     r0,#0x4800
        0x0001abaa:    f8501c04    P...    LDR      r1,[r0,#-4]
        0x0001abae:    0749        I.      LSLS     r1,r1,#29
        0x0001abb0:    d438        8.      BMI      0x1ac24 ; am_hal_daxi_control + 144
        0x0001abb2:    f3bf8f4f    ..O.    DSB      
        0x0001abb6:    6801        .h      LDR      r1,[r0,#0]
        0x0001abb8:    f0410102    A...    ORR      r1,r1,#2
        0x0001abbc:    6001        .`      STR      r1,[r0,#0]
        0x0001abbe:    2000        .       MOVS     r0,#0
        0x0001abc0:    f2c470ff    ...p    MOVT     r0,#0x47ff
        0x0001abc4:    6800        .h      LDR      r0,[r0,#0]
        0x0001abc6:    e02d        -.      B        0x1ac24 ; am_hal_daxi_control + 144
        0x0001abc8:    2000        .       MOVS     r0,#0
        0x0001abca:    2400        .$      MOVS     r4,#0
        0x0001abcc:    f7ffffaf    ....    BL       am_hal_daxi_config ; 0x1ab2e
        0x0001abd0:    e029        ).      B        0x1ac26 ; am_hal_daxi_control + 146
        0x0001abd2:    f2400084    @...    MOVW     r0,#0x84
        0x0001abd6:    f2c10000    ....    MOVT     r0,#0x1000
        0x0001abda:    f7ffffa8    ....    BL       am_hal_daxi_config ; 0x1ab2e
        0x0001abde:    e021        !.      B        0x1ac24 ; am_hal_daxi_control + 144
        0x0001abe0:    2406        .$      MOVS     r4,#6
        0x0001abe2:    e020         .      B        0x1ac26 ; am_hal_daxi_control + 146
        0x0001abe4:    2454        T$      MOVS     r4,#0x54
        0x0001abe6:    f6c40400    ....    MOVT     r4,#0x4800
        0x0001abea:    f000fa23    ..#.    BL       am_hal_interrupt_master_disable ; 0x1b034
        0x0001abee:    9001        ..      STR      r0,[sp,#4]
        0x0001abf0:    f8540c04    T...    LDR      r0,[r4,#-4]
        0x0001abf4:    0740        @.      LSLS     r0,r0,#29
        0x0001abf6:    d40f        ..      BMI      0x1ac18 ; am_hal_daxi_control + 132
        0x0001abf8:    f3bf8f4f    ..O.    DSB      
        0x0001abfc:    6820         h      LDR      r0,[r4,#0]
        0x0001abfe:    f0400001    @...    ORR      r0,r0,#1
        0x0001ac02:    6020         `      STR      r0,[r4,#0]
        0x0001ac04:    2000        .       MOVS     r0,#0
        0x0001ac06:    f2c470ff    ...p    MOVT     r0,#0x47ff
        0x0001ac0a:    6801        .h      LDR      r1,[r0,#0]
        0x0001ac0c:    6821        !h      LDR      r1,[r4,#0]
        0x0001ac0e:    f0410102    A...    ORR      r1,r1,#2
        0x0001ac12:    6021        !`      STR      r1,[r4,#0]
        0x0001ac14:    6800        .h      LDR      r0,[r0,#0]
        0x0001ac16:    bf00        ..      NOP      
        0x0001ac18:    6820         h      LDR      r0,[r4,#0]
        0x0001ac1a:    0740        @.      LSLS     r0,r0,#29
        0x0001ac1c:    d5fc        ..      BPL      0x1ac18 ; am_hal_daxi_control + 132
        0x0001ac1e:    9801        ..      LDR      r0,[sp,#4]
        0x0001ac20:    f000fa10    ....    BL       am_hal_interrupt_master_set ; 0x1b044
        0x0001ac24:    2400        .$      MOVS     r4,#0
        0x0001ac26:    4620         F      MOV      r0,r4
        0x0001ac28:    b002        ..      ADD      sp,sp,#8
        0x0001ac2a:    bd10        ..      POP      {r4,pc}
    am_hal_dcu_get
        0x0001ac2c:    b5b0        ..      PUSH     {r4,r5,r7,lr}
        0x0001ac2e:    b084        ..      SUB      sp,sp,#0x10
        0x0001ac30:    f2410108    A...    MOV      r1,#0x1008
        0x0001ac34:    f2c40102    ....    MOVT     r1,#0x4002
        0x0001ac38:    6809        .h      LDR      r1,[r1,#0]
        0x0001ac3a:    02c9        ..      LSLS     r1,r1,#11
        0x0001ac3c:    d506        ..      BPL      0x1ac4c ; am_hal_dcu_get + 32
        0x0001ac3e:    f640217c    @.|!    MOV      r1,#0xa7c
        0x0001ac42:    f2c4010c    ....    MOVT     r1,#0x400c
        0x0001ac46:    6809        .h      LDR      r1,[r1,#0]
        0x0001ac48:    07c9        ..      LSLS     r1,r1,#31
        0x0001ac4a:    d101        ..      BNE      0x1ac50 ; am_hal_dcu_get + 36
        0x0001ac4c:    2007        .       MOVS     r0,#7
        0x0001ac4e:    e038        8.      B        0x1acc2 ; am_hal_dcu_get + 150
        0x0001ac50:    f24011e4    @...    MOVW     r1,#0x1e4
        0x0001ac54:    f2c10100    ....    MOVT     r1,#0x1000
        0x0001ac58:    6809        .h      LDR      r1,[r1,#0]
        0x0001ac5a:    f6443368    D.h3    MOV      r3,#0x4b68
        0x0001ac5e:    684a        Jh      LDR      r2,[r1,#4]
        0x0001ac60:    f2c10300    ....    MOVT     r3,#0x1000
        0x0001ac64:    9201        ..      STR      r2,[sp,#4]
        0x0001ac66:    6809        .h      LDR      r1,[r1,#0]
        0x0001ac68:    9102        ..      STR      r1,[sp,#8]
        0x0001ac6a:    681b        .h      LDR      r3,[r3,#0]
        0x0001ac6c:    fa21fc03    !...    LSR      r12,r1,r3
        0x0001ac70:    f1c30120    .. .    RSB      r1,r3,#0x20
        0x0001ac74:    fa02f101    ....    LSL      r1,r2,r1
        0x0001ac78:    ea4c0e01    L...    ORR      lr,r12,r1
        0x0001ac7c:    f1b30120    .. .    SUBS     r1,r3,#0x20
        0x0001ac80:    bf58        X.      IT       PL
        0x0001ac82:    fa22fe01    "...    LSRPL    lr,r2,r1
        0x0001ac86:    fa22f203    "...    LSR      r2,r2,r3
        0x0001ac8a:    f04f0300    O...    MOV      r3,#0
        0x0001ac8e:    f04f0c01    O...    MOV      r12,#1
        0x0001ac92:    f04f0100    O...    MOV      r1,#0
        0x0001ac96:    bf58        X.      IT       PL
        0x0001ac98:    2200        ."      MOVPL    r2,#0
        0x0001ac9a:    bf00        ..      NOP      
        0x0001ac9c:    f00e0407    ....    AND      r4,lr,#7
        0x0001aca0:    fa0cf503    ....    LSL      r5,r12,r3
        0x0001aca4:    f0940f05    ....    TEQ      r4,#5
        0x0001aca8:    bf08        ..      IT       EQ
        0x0001acaa:    4329        )C      ORREQ    r1,r1,r5
        0x0001acac:    ea4f05de    O...    LSR      r5,lr,#3
        0x0001acb0:    3301        .3      ADDS     r3,#1
        0x0001acb2:    ea457e42    E.B~    ORR      lr,r5,r2,LSL #29
        0x0001acb6:    2b14        .+      CMP      r3,#0x14
        0x0001acb8:    ea4f02d2    O...    LSR      r2,r2,#3
        0x0001acbc:    d1ee        ..      BNE      0x1ac9c ; am_hal_dcu_get + 112
        0x0001acbe:    6001        .`      STR      r1,[r0,#0]
        0x0001acc0:    2000        .       MOVS     r0,#0
        0x0001acc2:    b004        ..      ADD      sp,sp,#0x10
        0x0001acc4:    bdb0        ..      POP      {r4,r5,r7,pc}
        0x0001acc6:    0000        ..      MOVS     r0,r0
    am_hal_dcu_update
        0x0001acc8:    e92d41f0    -..A    PUSH     {r4-r8,lr}
        0x0001accc:    b086        ..      SUB      sp,sp,#0x18
        0x0001acce:    f2410208    A...    MOV      r2,#0x1008
        0x0001acd2:    f2c40202    ....    MOVT     r2,#0x4002
        0x0001acd6:    6812        .h      LDR      r2,[r2,#0]
        0x0001acd8:    02d2        ..      LSLS     r2,r2,#11
        0x0001acda:    d53b        ;.      BPL      0x1ad54 ; am_hal_dcu_update + 140
        0x0001acdc:    f6402c7c    @.|,    MOV      r12,#0xa7c
        0x0001ace0:    f2c40c0c    ....    MOVT     r12,#0x400c
        0x0001ace4:    f8dc2000    ...     LDR      r2,[r12,#0]
        0x0001ace8:    07d2        ..      LSLS     r2,r2,#31
        0x0001acea:    f04f0207    O...    MOV      r2,#7
        0x0001acee:    d032        2.      BEQ      0x1ad56 ; am_hal_dcu_update + 142
        0x0001acf0:    f6443368    D.h3    MOV      r3,#0x4b68
        0x0001acf4:    f2c10300    ....    MOVT     r3,#0x1000
        0x0001acf8:    f8d38000    ....    LDR      r8,[r3,#0]
        0x0001acfc:    2500        .%      MOVS     r5,#0
        0x0001acfe:    2300        .#      MOVS     r3,#0
        0x0001ad00:    f04f0e00    O...    MOV      lr,#0
        0x0001ad04:    078e        ..      LSLS     r6,r1,#30
        0x0001ad06:    d511        ..      BPL      0x1ad2c ; am_hal_dcu_update + 100
        0x0001ad08:    eb080605    ....    ADD      r6,r8,r5
        0x0001ad0c:    f1c60420    .. .    RSB      r4,r6,#0x20
        0x0001ad10:    f1b60720    .. .    SUBS     r7,r6,#0x20
        0x0001ad14:    fa22f404    "...    LSR      r4,r2,r4
        0x0001ad18:    fa02f606    ....    LSL      r6,r2,r6
        0x0001ad1c:    bf58        X.      IT       PL
        0x0001ad1e:    fa02f407    ....    LSLPL    r4,r2,r7
        0x0001ad22:    bf58        X.      IT       PL
        0x0001ad24:    2600        .&      MOVPL    r6,#0
        0x0001ad26:    ea4e0e04    N...    ORR      lr,lr,r4
        0x0001ad2a:    4333        3C      ORRS     r3,r3,r6
        0x0001ad2c:    3503        .5      ADDS     r5,#3
        0x0001ad2e:    2d3c        <-      CMP      r5,#0x3c
        0x0001ad30:    ea4f0151    O.Q.    LSR      r1,r1,#1
        0x0001ad34:    d1e6        ..      BNE      0x1ad04 ; am_hal_dcu_update + 60
        0x0001ad36:    f24011e8    @...    MOVW     r1,#0x1e8
        0x0001ad3a:    f2c10100    ....    MOVT     r1,#0x1000
        0x0001ad3e:    6809        .h      LDR      r1,[r1,#0]
        0x0001ad40:    684a        Jh      LDR      r2,[r1,#4]
        0x0001ad42:    9201        ..      STR      r2,[sp,#4]
        0x0001ad44:    6809        .h      LDR      r1,[r1,#0]
        0x0001ad46:    ea02020e    ....    AND      r2,r2,lr
        0x0001ad4a:    ea010403    ....    AND      r4,r1,r3
        0x0001ad4e:    4322        "C      ORRS     r2,r2,r4
        0x0001ad50:    9102        ..      STR      r1,[sp,#8]
        0x0001ad52:    d004        ..      BEQ      0x1ad5e ; am_hal_dcu_update + 150
        0x0001ad54:    2207        ."      MOVS     r2,#7
        0x0001ad56:    4610        .F      MOV      r0,r2
        0x0001ad58:    b006        ..      ADD      sp,sp,#0x18
        0x0001ad5a:    e8bd81f0    ....    POP      {r4-r8,pc}
        0x0001ad5e:    f24011e4    @...    MOVW     r1,#0x1e4
        0x0001ad62:    f2c10100    ....    MOVT     r1,#0x1000
        0x0001ad66:    6809        .h      LDR      r1,[r1,#0]
        0x0001ad68:    f2400598    @...    MOVW     r5,#0x98
        0x0001ad6c:    684a        Jh      LDR      r2,[r1,#4]
        0x0001ad6e:    f2400690    @...    MOVW     r6,#0x90
        0x0001ad72:    9203        ..      STR      r2,[sp,#0xc]
        0x0001ad74:    680c        .h      LDR      r4,[r1,#0]
        0x0001ad76:    f2c10500    ....    MOVT     r5,#0x1000
        0x0001ad7a:    f2c10600    ....    MOVT     r6,#0x1000
        0x0001ad7e:    9404        ..      STR      r4,[sp,#0x10]
        0x0001ad80:    2800        .(      CMP      r0,#0
        0x0001ad82:    bf18        ..      IT       NE
        0x0001ad84:    462e        .F      MOVNE    r6,r5
        0x0001ad86:    e9d65000    ...P    LDRD     r5,r0,[r6,#0]
        0x0001ad8a:    439c        .C      BICS     r4,r4,r3
        0x0001ad8c:    ea22020e    "...    BIC      r2,r2,lr
        0x0001ad90:    402b        +@      ANDS     r3,r3,r5
        0x0001ad92:    ea00000e    ....    AND      r0,r0,lr
        0x0001ad96:    4310        .C      ORRS     r0,r0,r2
        0x0001ad98:    ea430204    C...    ORR      r2,r3,r4
        0x0001ad9c:    e9cd0203    ....    STRD     r0,r2,[sp,#0xc]
        0x0001ada0:    9803        ..      LDR      r0,[sp,#0xc]
        0x0001ada2:    6048        H`      STR      r0,[r1,#4]
        0x0001ada4:    9804        ..      LDR      r0,[sp,#0x10]
        0x0001ada6:    6008        .`      STR      r0,[r1,#0]
        0x0001ada8:    f8dc0000    ....    LDR      r0,[r12,#0]
        0x0001adac:    07c0        ..      LSLS     r0,r0,#31
        0x0001adae:    d0fb        ..      BEQ      0x1ada8 ; am_hal_dcu_update + 224
        0x0001adb0:    2200        ."      MOVS     r2,#0
        0x0001adb2:    e7d0        ..      B        0x1ad56 ; am_hal_dcu_update + 142
    am_hal_delay_us
        0x0001adb4:    f2410100    A...    MOVW     r1,#0x1000
        0x0001adb8:    f2c40102    ....    MOVT     r1,#0x4002
        0x0001adbc:    6809        .h      LDR      r1,[r1,#0]
        0x0001adbe:    2205        ."      MOVS     r2,#5
        0x0001adc0:    f0010118    ....    AND      r1,r1,#0x18
        0x0001adc4:    2910        .)      CMP      r1,#0x10
        0x0001adc6:    bf08        ..      IT       EQ
        0x0001adc8:    2206        ."      MOVEQ    r2,#6
        0x0001adca:    fa00f002    ....    LSL      r0,r0,r2
        0x0001adce:    f04f010f    O...    MOV      r1,#0xf
        0x0001add2:    bf08        ..      IT       EQ
        0x0001add4:    2115        .!      MOVEQ    r1,#0x15
        0x0001add6:    4281        .B      CMP      r1,r0
        0x0001add8:    bf28        (.      IT       CS
        0x0001adda:    4770        pG      BXCS     lr
        0x0001addc:    1a40        @.      SUBS     r0,r0,r1
        0x0001adde:    f2404180    @..A    MOVW     r1,#0x480
        0x0001ade2:    f2c00102    ....    MOVT     r1,#2
        0x0001ade6:    6a49        Ij      LDR      r1,[r1,#0x24]
        0x0001ade8:    4708        .G      BX       r1
        0x0001adea:    0000        ..      MOVS     r0,r0
    am_hal_delay_us_status_change
        0x0001adec:    e92d43f0    -..C    PUSH     {r4-r9,lr}
        0x0001adf0:    b081        ..      SUB      sp,sp,#4
        0x0001adf2:    460d        .F      MOV      r5,r1
        0x0001adf4:    6809        .h      LDR      r1,[r1,#0]
        0x0001adf6:    4011        .@      ANDS     r1,r1,r2
        0x0001adf8:    4299        .B      CMP      r1,r3
        0x0001adfa:    d01b        ..      BEQ      0x1ae34 ; am_hal_delay_us_status_change + 72
        0x0001adfc:    f2404180    @..A    MOVW     r1,#0x480
        0x0001ae00:    f2c00102    ....    MOVT     r1,#2
        0x0001ae04:    6a4f        Oj      LDR      r7,[r1,#0x24]
        0x0001ae06:    f2410900    A...    MOVW     r9,#0x1000
        0x0001ae0a:    4698        .F      MOV      r8,r3
        0x0001ae0c:    4616        .F      MOV      r6,r2
        0x0001ae0e:    1c44        D.      ADDS     r4,r0,#1
        0x0001ae10:    f2c40902    ....    MOVT     r9,#0x4002
        0x0001ae14:    3c01        .<      SUBS     r4,#1
        0x0001ae16:    d00f        ..      BEQ      0x1ae38 ; am_hal_delay_us_status_change + 76
        0x0001ae18:    f8d90000    ....    LDR      r0,[r9,#0]
        0x0001ae1c:    f0000018    ....    AND      r0,r0,#0x18
        0x0001ae20:    2810        .(      CMP      r0,#0x10
        0x0001ae22:    f04f0011    O...    MOV      r0,#0x11
        0x0001ae26:    bf08        ..      IT       EQ
        0x0001ae28:    202b        +       MOVEQ    r0,#0x2b
        0x0001ae2a:    47b8        .G      BLX      r7
        0x0001ae2c:    6828        (h      LDR      r0,[r5,#0]
        0x0001ae2e:    4030        0@      ANDS     r0,r0,r6
        0x0001ae30:    4540        @E      CMP      r0,r8
        0x0001ae32:    d1ef        ..      BNE      0x1ae14 ; am_hal_delay_us_status_change + 40
        0x0001ae34:    2000        .       MOVS     r0,#0
        0x0001ae36:    e000        ..      B        0x1ae3a ; am_hal_delay_us_status_change + 78
        0x0001ae38:    2004        .       MOVS     r0,#4
        0x0001ae3a:    b001        ..      ADD      sp,sp,#4
        0x0001ae3c:    e8bd83f0    ....    POP      {r4-r9,pc}
    am_hal_delay_us_status_check
        0x0001ae40:    e92d47f0    -..G    PUSH     {r4-r10,lr}
        0x0001ae44:    4607        .F      MOV      r7,r0
        0x0001ae46:    f2404080    @..@    MOVW     r0,#0x480
        0x0001ae4a:    f2c00002    ....    MOVT     r0,#2
        0x0001ae4e:    f8dd8020    .. .    LDR      r8,[sp,#0x20]
        0x0001ae52:    6a44        Dj      LDR      r4,[r0,#0x24]
        0x0001ae54:    f2410a00    A...    MOVW     r10,#0x1000
        0x0001ae58:    4699        .F      MOV      r9,r3
        0x0001ae5a:    4615        .F      MOV      r5,r2
        0x0001ae5c:    460e        .F      MOV      r6,r1
        0x0001ae5e:    f2c40a02    ....    MOVT     r10,#0x4002
        0x0001ae62:    bf00        ..      NOP      
        0x0001ae64:    6830        0h      LDR      r0,[r6,#0]
        0x0001ae66:    f1b80f00    ....    CMP      r8,#0
        0x0001ae6a:    ea000005    ....    AND      r0,r0,r5
        0x0001ae6e:    d003        ..      BEQ      0x1ae78 ; am_hal_delay_us_status_check + 56
        0x0001ae70:    4548        HE      CMP      r0,r9
        0x0001ae72:    d103        ..      BNE      0x1ae7c ; am_hal_delay_us_status_check + 60
        0x0001ae74:    e00f        ..      B        0x1ae96 ; am_hal_delay_us_status_check + 86
        0x0001ae76:    bf00        ..      NOP      
        0x0001ae78:    4548        HE      CMP      r0,r9
        0x0001ae7a:    d10c        ..      BNE      0x1ae96 ; am_hal_delay_us_status_check + 86
        0x0001ae7c:    b177        w.      CBZ      r7,0x1ae9c ; am_hal_delay_us_status_check + 92
        0x0001ae7e:    f8da0000    ....    LDR      r0,[r10,#0]
        0x0001ae82:    3f01        .?      SUBS     r7,#1
        0x0001ae84:    f0000018    ....    AND      r0,r0,#0x18
        0x0001ae88:    2810        .(      CMP      r0,#0x10
        0x0001ae8a:    f04f0011    O...    MOV      r0,#0x11
        0x0001ae8e:    bf08        ..      IT       EQ
        0x0001ae90:    202b        +       MOVEQ    r0,#0x2b
        0x0001ae92:    47a0        .G      BLX      r4
        0x0001ae94:    e7e6        ..      B        0x1ae64 ; am_hal_delay_us_status_check + 36
        0x0001ae96:    2000        .       MOVS     r0,#0
        0x0001ae98:    e8bd87f0    ....    POP      {r4-r10,pc}
        0x0001ae9c:    2004        .       MOVS     r0,#4
        0x0001ae9e:    e8bd87f0    ....    POP      {r4-r10,pc}
    am_hal_fault_capture_enable
        0x0001aea2:    2190        .!      MOVS     r1,#0x90
        0x0001aea4:    f6c40100    ....    MOVT     r1,#0x4800
        0x0001aea8:    6808        .h      LDR      r0,[r1,#0]
        0x0001aeaa:    f0400201    @...    ORR      r2,r0,#1
        0x0001aeae:    2000        .       MOVS     r0,#0
        0x0001aeb0:    600a        .`      STR      r2,[r1,#0]
        0x0001aeb2:    4770        pG      BX       lr
    am_hal_fault_status_get
        0x0001aeb4:    b1c8        ..      CBZ      r0,0x1aeea ; am_hal_fault_status_get + 54
        0x0001aeb6:    2180        .!      MOVS     r1,#0x80
        0x0001aeb8:    f6c40100    ....    MOVT     r1,#0x4800
        0x0001aebc:    68ca        .h      LDR      r2,[r1,#0xc]
        0x0001aebe:    b2d3        ..      UXTB     r3,r2
        0x0001aec0:    f0020201    ....    AND      r2,r2,#1
        0x0001aec4:    7002        .p      STRB     r2,[r0,#0]
        0x0001aec6:    f3c30240    ..@.    UBFX     r2,r3,#1,#1
        0x0001aeca:    7202        .r      STRB     r2,[r0,#8]
        0x0001aecc:    f3c30280    ....    UBFX     r2,r3,#2,#1
        0x0001aed0:    7402        .t      STRB     r2,[r0,#0x10]
        0x0001aed2:    684a        Jh      LDR      r2,[r1,#4]
        0x0001aed4:    60c2        .`      STR      r2,[r0,#0xc]
        0x0001aed6:    680a        .h      LDR      r2,[r1,#0]
        0x0001aed8:    6843        Ch      LDR      r3,[r0,#4]
        0x0001aeda:    431a        .C      ORRS     r2,r2,r3
        0x0001aedc:    6042        B`      STR      r2,[r0,#4]
        0x0001aede:    6889        .h      LDR      r1,[r1,#8]
        0x0001aee0:    6942        Bi      LDR      r2,[r0,#0x14]
        0x0001aee2:    4311        .C      ORRS     r1,r1,r2
        0x0001aee4:    6141        Aa      STR      r1,[r0,#0x14]
        0x0001aee6:    2000        .       MOVS     r0,#0
        0x0001aee8:    4770        pG      BX       lr
        0x0001aeea:    2006        .       MOVS     r0,#6
        0x0001aeec:    4770        pG      BX       lr
        0x0001aeee:    0000        ..      MOVS     r0,r0
    am_hal_gpio_pinconfig
        0x0001aef0:    b081        ..      SUB      sp,sp,#4
        0x0001aef2:    287f        .(      CMP      r0,#0x7f
        0x0001aef4:    9100        ..      STR      r1,[sp,#0]
        0x0001aef6:    d901        ..      BLS      0x1aefc ; am_hal_gpio_pinconfig + 12
        0x0001aef8:    2005        .       MOVS     r0,#5
        0x0001aefa:    e01c        ..      B        0x1af36 ; am_hal_gpio_pinconfig + 70
        0x0001aefc:    0509        ..      LSLS     r1,r1,#20
        0x0001aefe:    d508        ..      BPL      0x1af12 ; am_hal_gpio_pinconfig + 34
        0x0001af00:    0941        A.      LSRS     r1,r0,#5
        0x0001af02:    a20e        ..      ADR      r2,{pc}+0x3a ; 0x1af3c
        0x0001af04:    f8521021    R.!.    LDR      r1,[r2,r1,LSL #2]
        0x0001af08:    f000021f    ....    AND      r2,r0,#0x1f
        0x0001af0c:    40d1        .@      LSRS     r1,r1,r2
        0x0001af0e:    07c9        ..      LSLS     r1,r1,#31
        0x0001af10:    d010        ..      BEQ      0x1af34 ; am_hal_gpio_pinconfig + 68
        0x0001af12:    f2402100    @..!    MOVW     r1,#0x200
        0x0001af16:    f2c40101    ....    MOVT     r1,#0x4001
        0x0001af1a:    2273        s"      MOVS     r2,#0x73
        0x0001af1c:    600a        .`      STR      r2,[r1,#0]
        0x0001af1e:    9a00        ..      LDR      r2,[sp,#0]
        0x0001af20:    f64f6300    O..c    MOVW     r3,#0xfe00
        0x0001af24:    eb010080    ....    ADD      r0,r1,r0,LSL #2
        0x0001af28:    f6cf73ff    ...s    MOVT     r3,#0xffff
        0x0001af2c:    50c2        .P      STR      r2,[r0,r3]
        0x0001af2e:    2000        .       MOVS     r0,#0
        0x0001af30:    6008        .`      STR      r0,[r1,#0]
        0x0001af32:    e000        ..      B        0x1af36 ; am_hal_gpio_pinconfig + 70
        0x0001af34:    2007        .       MOVS     r0,#7
        0x0001af36:    b001        ..      ADD      sp,sp,#4
        0x0001af38:    4770        pG      BX       lr
        0x0001af3a:    bf00        ..      NOP      
    $d.2
    g_ui32DSpintbl
        0x0001af3c:    8fc007e0    ....    DCD    2411726816
        0x0001af40:    e3fbffff    ....    DCD    3824943103
        0x0001af44:    01ffffff    ....    DCD    33554431
        0x0001af48:    00000000    ....    DCD    0
    $t.5
    am_hal_gpio_state_write
        0x0001af4c:    b510        ..      PUSH     {r4,lr}
        0x0001af4e:    b082        ..      SUB      sp,sp,#8
        0x0001af50:    2905        .)      CMP      r1,#5
        0x0001af52:    d86c        l.      BHI      0x1b02e ; am_hal_gpio_state_write + 226
        0x0001af54:    4604        .F      MOV      r4,r0
        0x0001af56:    e8dff001    ....    TBB      [pc,r1]
    $d.6
        0x0001af5a:    1203        ..      DCW    4611
        0x0001af5c:    54453621    !6ET    DCD    1413821985
    $t.7
        0x0001af60:    f004001f    ....    AND      r0,r4,#0x1f
        0x0001af64:    2101        .!      MOVS     r1,#1
        0x0001af66:    f2402214    @.."    MOVW     r2,#0x214
        0x0001af6a:    fa01f000    ....    LSL      r0,r1,r0
        0x0001af6e:    f3c41141    ..A.    UBFX     r1,r4,#5,#2
        0x0001af72:    f2c40201    ....    MOVT     r2,#0x4001
        0x0001af76:    eb020181    ....    ADD      r1,r2,r1,LSL #2
        0x0001af7a:    6208        .b      STR      r0,[r1,#0x20]
        0x0001af7c:    e057        W.      B        0x1b02e ; am_hal_gpio_state_write + 226
        0x0001af7e:    f004001f    ....    AND      r0,r4,#0x1f
        0x0001af82:    2101        .!      MOVS     r1,#1
        0x0001af84:    f2402214    @.."    MOVW     r2,#0x214
        0x0001af88:    fa01f000    ....    LSL      r0,r1,r0
        0x0001af8c:    f3c41141    ..A.    UBFX     r1,r4,#5,#2
        0x0001af90:    f2c40201    ....    MOVT     r2,#0x4001
        0x0001af94:    eb020181    ....    ADD      r1,r2,r1,LSL #2
        0x0001af98:    6108        .a      STR      r0,[r1,#0x10]
        0x0001af9a:    e048        H.      B        0x1b02e ; am_hal_gpio_state_write + 226
        0x0001af9c:    f000f84a    ..J.    BL       am_hal_interrupt_master_disable ; 0x1b034
        0x0001afa0:    f2402314    @..#    MOVW     r3,#0x214
        0x0001afa4:    9001        ..      STR      r0,[sp,#4]
        0x0001afa6:    f3c41241    ..A.    UBFX     r2,r4,#5,#2
        0x0001afaa:    f2c40301    ....    MOVT     r3,#0x4001
        0x0001afae:    f004001f    ....    AND      r0,r4,#0x1f
        0x0001afb2:    2101        .!      MOVS     r1,#1
        0x0001afb4:    f8534022    S."@    LDR      r4,[r3,r2,LSL #2]
        0x0001afb8:    fa01f000    ....    LSL      r0,r1,r0
        0x0001afbc:    4060        `@      EORS     r0,r0,r4
        0x0001afbe:    f8430022    C.".    STR      r0,[r3,r2,LSL #2]
        0x0001afc2:    9801        ..      LDR      r0,[sp,#4]
        0x0001afc4:    e031        1.      B        0x1b02a ; am_hal_gpio_state_write + 222
        0x0001afc6:    f004001f    ....    AND      r0,r4,#0x1f
        0x0001afca:    2101        .!      MOVS     r1,#1
        0x0001afcc:    f2402214    @.."    MOVW     r2,#0x214
        0x0001afd0:    fa01f000    ....    LSL      r0,r1,r0
        0x0001afd4:    f3c41141    ..A.    UBFX     r1,r4,#5,#2
        0x0001afd8:    f2c40201    ....    MOVT     r2,#0x4001
        0x0001afdc:    eb020181    ....    ADD      r1,r2,r1,LSL #2
        0x0001afe0:    6508        .e      STR      r0,[r1,#0x50]
        0x0001afe2:    e024        $.      B        0x1b02e ; am_hal_gpio_state_write + 226
        0x0001afe4:    f004001f    ....    AND      r0,r4,#0x1f
        0x0001afe8:    2101        .!      MOVS     r1,#1
        0x0001afea:    f2402214    @.."    MOVW     r2,#0x214
        0x0001afee:    fa01f000    ....    LSL      r0,r1,r0
        0x0001aff2:    f3c41141    ..A.    UBFX     r1,r4,#5,#2
        0x0001aff6:    f2c40201    ....    MOVT     r2,#0x4001
        0x0001affa:    eb020181    ....    ADD      r1,r2,r1,LSL #2
        0x0001affe:    6408        .d      STR      r0,[r1,#0x40]
        0x0001b000:    e015        ..      B        0x1b02e ; am_hal_gpio_state_write + 226
        0x0001b002:    f000f817    ....    BL       am_hal_interrupt_master_disable ; 0x1b034
        0x0001b006:    f2402314    @..#    MOVW     r3,#0x214
        0x0001b00a:    f3c41241    ..A.    UBFX     r2,r4,#5,#2
        0x0001b00e:    f2c40301    ....    MOVT     r3,#0x4001
        0x0001b012:    9000        ..      STR      r0,[sp,#0]
        0x0001b014:    eb030282    ....    ADD      r2,r3,r2,LSL #2
        0x0001b018:    f004001f    ....    AND      r0,r4,#0x1f
        0x0001b01c:    2101        .!      MOVS     r1,#1
        0x0001b01e:    6b13        .k      LDR      r3,[r2,#0x30]
        0x0001b020:    fa01f000    ....    LSL      r0,r1,r0
        0x0001b024:    4058        X@      EORS     r0,r0,r3
        0x0001b026:    6310        .c      STR      r0,[r2,#0x30]
        0x0001b028:    9800        ..      LDR      r0,[sp,#0]
        0x0001b02a:    f000f80b    ....    BL       am_hal_interrupt_master_set ; 0x1b044
        0x0001b02e:    2000        .       MOVS     r0,#0
        0x0001b030:    b002        ..      ADD      sp,sp,#8
        0x0001b032:    bd10        ..      POP      {r4,pc}
    am_hal_interrupt_master_disable
        0x0001b034:    f3ef8010    ....    MRS      r0,PRIMASK
        0x0001b038:    b672        r.      CPSID    i
        0x0001b03a:    4770        pG      BX       lr
    am_hal_interrupt_master_enable
        0x0001b03c:    f3ef8010    ....    MRS      r0,PRIMASK
        0x0001b040:    b662        b.      CPSIE    i
        0x0001b042:    4770        pG      BX       lr
    am_hal_interrupt_master_set
        0x0001b044:    f3808810    ....    MSR      PRIMASK,r0
        0x0001b048:    4770        pG      BX       lr
        0x0001b04a:    0000        ..      MOVS     r0,r0
    am_hal_itm_enable
        0x0001b04c:    f64e50fc    N..P    MOV      r0,#0xedfc
        0x0001b050:    f2ce0000    ....    MOVT     r0,#0xe000
        0x0001b054:    6801        .h      LDR      r1,[r0,#0]
        0x0001b056:    f0417180    A..q    ORR      r1,r1,#0x1000000
        0x0001b05a:    6001        .`      STR      r1,[r0,#0]
        0x0001b05c:    6801        .h      LDR      r1,[r0,#0]
        0x0001b05e:    01c9        ..      LSLS     r1,r1,#7
        0x0001b060:    d5fc        ..      BPL      0x1b05c ; am_hal_itm_enable + 16
        0x0001b062:    f6406000    @..`    MOVW     r0,#0xe00
        0x0001b066:    f64c6155    L.Ua    MOV      r1,#0xce55
        0x0001b06a:    f2ce0000    ....    MOVT     r0,#0xe000
        0x0001b06e:    f2cc51ac    ...Q    MOVT     r1,#0xc5ac
        0x0001b072:    f8c011b0    ....    STR      r1,[r0,#0x1b0]
        0x0001b076:    210f        .!      MOVS     r1,#0xf
        0x0001b078:    6401        .d      STR      r1,[r0,#0x40]
        0x0001b07a:    f04f31ff    O..1    MOV      r1,#0xffffffff
        0x0001b07e:    6001        .`      STR      r1,[r0,#0]
        0x0001b080:    f2405111    @..Q    MOV      r1,#0x511
        0x0001b084:    f2c00115    ....    MOVT     r1,#0x15
        0x0001b088:    f8c01080    ....    STR      r1,[r0,#0x80]
        0x0001b08c:    4770        pG      BX       lr
        0x0001b08e:    0000        ..      MOVS     r0,r0
    am_hal_itm_print
        0x0001b090:    2100        .!      MOVS     r1,#0
        0x0001b092:    bf00        ..      NOP      
        0x0001b094:    5c42        B\      LDRB     r2,[r0,r1]
        0x0001b096:    3101        .1      ADDS     r1,#1
        0x0001b098:    2a00        .*      CMP      r2,#0
        0x0001b09a:    d1fb        ..      BNE      0x1b094 ; am_hal_itm_print + 4
        0x0001b09c:    3901        .9      SUBS     r1,#1
        0x0001b09e:    bf08        ..      IT       EQ
        0x0001b0a0:    4770        pG      BXEQ     lr
        0x0001b0a2:    f04f4260    O.`B    MOV      r2,#0xe0000000
        0x0001b0a6:    bf00        ..      NOP      
        0x0001b0a8:    f890c000    ....    LDRB     r12,[r0,#0]
        0x0001b0ac:    6813        .h      LDR      r3,[r2,#0]
        0x0001b0ae:    2b00        .+      CMP      r3,#0
        0x0001b0b0:    d0fc        ..      BEQ      0x1b0ac ; am_hal_itm_print + 28
        0x0001b0b2:    3001        .0      ADDS     r0,#1
        0x0001b0b4:    3901        .9      SUBS     r1,#1
        0x0001b0b6:    f882c000    ....    STRB     r12,[r2,#0]
        0x0001b0ba:    d1f5        ..      BNE      0x1b0a8 ; am_hal_itm_print + 24
        0x0001b0bc:    4770        pG      BX       lr
        0x0001b0be:    0000        ..      MOVS     r0,r0
    am_hal_mram_info_read
        0x0001b0c0:    2801        .(      CMP      r0,#1
        0x0001b0c2:    d00e        ..      BEQ      0x1b0e2 ; am_hal_mram_info_read + 34
        0x0001b0c4:    bb50        P.      CBNZ     r0,0x1b11c ; am_hal_mram_info_read + 92
        0x0001b0c6:    2000        .       MOVS     r0,#0
        0x0001b0c8:    ebb02f51    ..Q/    CMP      r0,r1,LSR #9
        0x0001b0cc:    f04f0002    O...    MOV      r0,#2
        0x0001b0d0:    d123        #.      BNE      0x1b11a ; am_hal_mram_info_read + 90
        0x0001b0d2:    eb020c01    ....    ADD      r12,r2,r1
        0x0001b0d6:    f5bc7f00    ....    CMP      r12,#0x200
        0x0001b0da:    d81e        ..      BHI      0x1b11a ; am_hal_mram_info_read + 90
        0x0001b0dc:    f04f4084    O..@    MOV      r0,#0x42000000
        0x0001b0e0:    e010        ..      B        0x1b104 ; am_hal_mram_info_read + 68
        0x0001b0e2:    f5a16090    ...`    SUB      r0,r1,#0x480
        0x0001b0e6:    09c0        ..      LSRS     r0,r0,#7
        0x0001b0e8:    2802        .(      CMP      r0,#2
        0x0001b0ea:    f04f0002    O...    MOV      r0,#2
        0x0001b0ee:    d814        ..      BHI      0x1b11a ; am_hal_mram_info_read + 90
        0x0001b0f0:    eb020c01    ....    ADD      r12,r2,r1
        0x0001b0f4:    f5bc6fc0    ...o    CMP      r12,#0x600
        0x0001b0f8:    bf88        ..      IT       HI
        0x0001b0fa:    4770        pG      BXHI     lr
        0x0001b0fc:    f2420000    B...    MOVW     r0,#0x2000
        0x0001b100:    f2c42000    ...     MOVT     r0,#0x4200
        0x0001b104:    b142        B.      CBZ      r2,0x1b118 ; am_hal_mram_info_read + 88
        0x0001b106:    eb000081    ....    ADD      r0,r0,r1,LSL #2
        0x0001b10a:    bf00        ..      NOP      
        0x0001b10c:    f8501b04    P...    LDR      r1,[r0],#4
        0x0001b110:    3a01        .:      SUBS     r2,#1
        0x0001b112:    f8431b04    C...    STR      r1,[r3],#4
        0x0001b116:    d1f9        ..      BNE      0x1b10c ; am_hal_mram_info_read + 76
        0x0001b118:    2000        .       MOVS     r0,#0
        0x0001b11a:    4770        pG      BX       lr
        0x0001b11c:    2001        .       MOVS     r0,#1
        0x0001b11e:    4770        pG      BX       lr
    am_hal_mspi_blocking_transfer
        0x0001b120:    e92d4ff0    -..O    PUSH     {r4-r11,lr}
        0x0001b124:    b087        ..      SUB      sp,sp,#0x1c
        0x0001b126:    b1f0        ..      CBZ      r0,0x1b166 ; am_hal_mspi_blocking_transfer + 70
        0x0001b128:    4614        .F      MOV      r4,r2
        0x0001b12a:    6802        .h      LDR      r2,[r0,#0]
        0x0001b12c:    f64b63be    K..c    MOV      r3,#0xbebe
        0x0001b130:    f022427e    ".~B    BIC      r2,r2,#0xfe000000
        0x0001b134:    f2c013be    ....    MOVT     r3,#0x1be
        0x0001b138:    429a        .B      CMP      r2,r3
        0x0001b13a:    d114        ..      BNE      0x1b166 ; am_hal_mspi_blocking_transfer + 70
        0x0001b13c:    7a82        .z      LDRB     r2,[r0,#0xa]
        0x0001b13e:    f00202fe    ....    AND      r2,r2,#0xfe
        0x0001b142:    2a0a        .*      CMP      r2,#0xa
        0x0001b144:    d102        ..      BNE      0x1b14c ; am_hal_mspi_blocking_transfer + 44
        0x0001b146:    7a0a        .z      LDRB     r2,[r1,#8]
        0x0001b148:    0792        ..      LSLS     r2,r2,#30
        0x0001b14a:    d10a        ..      BNE      0x1b162 ; am_hal_mspi_blocking_transfer + 66
        0x0001b14c:    7c8a        .|      LDRB     r2,[r1,#0x12]
        0x0001b14e:    b942        B.      CBNZ     r2,0x1b162 ; am_hal_mspi_blocking_transfer + 66
        0x0001b150:    6a02        .j      LDR      r2,[r0,#0x20]
        0x0001b152:    b932        2.      CBNZ     r2,0x1b162 ; am_hal_mspi_blocking_transfer + 66
        0x0001b154:    f8d02840    ..@(    LDR      r2,[r0,#0x840]
        0x0001b158:    b91a        ..      CBNZ     r2,0x1b162 ; am_hal_mspi_blocking_transfer + 66
        0x0001b15a:    f890282c    ..,(    LDRB     r2,[r0,#0x82c]
        0x0001b15e:    2a02        .*      CMP      r2,#2
        0x0001b160:    d106        ..      BNE      0x1b170 ; am_hal_mspi_blocking_transfer + 80
        0x0001b162:    2507        .%      MOVS     r5,#7
        0x0001b164:    e000        ..      B        0x1b168 ; am_hal_mspi_blocking_transfer + 72
        0x0001b166:    2502        .%      MOVS     r5,#2
        0x0001b168:    4628        (F      MOV      r0,r5
        0x0001b16a:    b007        ..      ADD      sp,sp,#0x1c
        0x0001b16c:    e8bd8ff0    ....    POP      {r4-r11,pc}
        0x0001b170:    790b        .y      LDRB     r3,[r1,#4]
        0x0001b172:    680f        .h      LDR      r7,[r1,#0]
        0x0001b174:    025b        [.      LSLS     r3,r3,#9
        0x0001b176:    ea434307    C..C    ORR      r3,r3,r7,LSL #16
        0x0001b17a:    7b0f        .{      LDRB     r7,[r1,#0xc]
        0x0001b17c:    798e        .y      LDRB     r6,[r1,#6]
        0x0001b17e:    6842        Bh      LDR      r2,[r0,#4]
        0x0001b180:    2f00        ./      CMP      r7,#0
        0x0001b182:    f2400700    @...    MOVW     r7,#0
        0x0001b186:    f0060601    ....    AND      r6,r6,#1
        0x0001b18a:    f2c40706    ....    MOVT     r7,#0x4006
        0x0001b18e:    ea4313c6    C...    ORR      r3,r3,r6,LSL #7
        0x0001b192:    d005        ..      BEQ      0x1b1a0 ; am_hal_mspi_blocking_transfer + 128
        0x0001b194:    89ce        ..      LDRH     r6,[r1,#0xe]
        0x0001b196:    f0430340    C.@.    ORR      r3,r3,#0x40
        0x0001b19a:    eb073502    ...5    ADD      r5,r7,r2,LSL #12
        0x0001b19e:    60ee        .`      STR      r6,[r5,#0xc]
        0x0001b1a0:    79ce        .y      LDRB     r6,[r1,#7]
        0x0001b1a2:    b13e        >.      CBZ      r6,0x1b1b4 ; am_hal_mspi_blocking_transfer + 148
        0x0001b1a4:    688e        .h      LDR      r6,[r1,#8]
        0x0001b1a6:    f0430320    C. .    ORR      r3,r3,#0x20
        0x0001b1aa:    eb073902    ...9    ADD      r9,r7,r2,LSL #12
        0x0001b1ae:    f8c96008    ...`    STR      r6,[r9,#8]
        0x0001b1b2:    e001        ..      B        0x1b1b8 ; am_hal_mspi_blocking_transfer + 152
        0x0001b1b4:    eb073902    ...9    ADD      r9,r7,r2,LSL #12
        0x0001b1b8:    7c0e        .|      LDRB     r6,[r1,#0x10]
        0x0001b1ba:    794f        Oy      LDRB     r7,[r1,#5]
        0x0001b1bc:    2e00        ..      CMP      r6,#0
        0x0001b1be:    7b46        F{      LDRB     r6,[r0,#0xd]
        0x0001b1c0:    7c4d        M|      LDRB     r5,[r1,#0x11]
        0x0001b1c2:    bf18        ..      IT       NE
        0x0001b1c4:    f4436380    C..c    ORRNE    r3,r3,#0x400
        0x0001b1c8:    ea432306    C..#    ORR      r3,r3,r6,LSL #8
        0x0001b1cc:    ea433305    C..3    ORR      r3,r3,r5,LSL #12
        0x0001b1d0:    2f00        ./      CMP      r7,#0
        0x0001b1d2:    bf18        ..      IT       NE
        0x0001b1d4:    f4436300    C..c    ORRNE    r3,r3,#0x800
        0x0001b1d8:    2700        .'      MOVS     r7,#0
        0x0001b1da:    f0430301    C...    ORR      r3,r3,#1
        0x0001b1de:    f8d96200    ...b    LDR      r6,[r9,#0x200]
        0x0001b1e2:    f8c97200    ...r    STR      r7,[r9,#0x200]
        0x0001b1e6:    f04f37ff    O..7    MOV      r7,#0xffffffff
        0x0001b1ea:    f8c97208    ...r    STR      r7,[r9,#0x208]
        0x0001b1ee:    f8c93000    ...0    STR      r3,[r9,#0]
        0x0001b1f2:    798b        .y      LDRB     r3,[r1,#6]
        0x0001b1f4:    2b01        .+      CMP      r3,#1
        0x0001b1f6:    d005        ..      BEQ      0x1b204 ; am_hal_mspi_blocking_transfer + 228
        0x0001b1f8:    2b00        .+      CMP      r3,#0
        0x0001b1fa:    d16d        m.      BNE      0x1b2d8 ; am_hal_mspi_blocking_transfer + 440
        0x0001b1fc:    2a02        .*      CMP      r2,#2
        0x0001b1fe:    d905        ..      BLS      0x1b20c ; am_hal_mspi_blocking_transfer + 236
        0x0001b200:    2505        .%      MOVS     r5,#5
        0x0001b202:    e061        a.      B        0x1b2c8 ; am_hal_mspi_blocking_transfer + 424
        0x0001b204:    2a02        .*      CMP      r2,#2
        0x0001b206:    d940        @.      BLS      0x1b28a ; am_hal_mspi_blocking_transfer + 362
        0x0001b208:    2505        .%      MOVS     r5,#5
        0x0001b20a:    e05e        ^.      B        0x1b2ca ; am_hal_mspi_blocking_transfer + 426
        0x0001b20c:    680a        .h      LDR      r2,[r1,#0]
        0x0001b20e:    9605        ..      STR      r6,[sp,#0x14]
        0x0001b210:    6949        Ii      LDR      r1,[r1,#0x14]
        0x0001b212:    f8d08010    ....    LDR      r8,[r0,#0x10]
        0x0001b216:    2600        .&      MOVS     r6,#0
        0x0001b218:    ebb60f92    ....    CMP      r6,r2,LSR #2
        0x0001b21c:    ea4f0092    O...    LSR      r0,r2,#2
        0x0001b220:    9104        ..      STR      r1,[sp,#0x10]
        0x0001b222:    9202        ..      STR      r2,[sp,#8]
        0x0001b224:    9003        ..      STR      r0,[sp,#0xc]
        0x0001b226:    d013        ..      BEQ      0x1b250 ; am_hal_mspi_blocking_transfer + 304
        0x0001b228:    e9ddab03    ....    LDRD     r10,r11,[sp,#0xc]
        0x0001b22c:    f109071c    ....    ADD      r7,r9,#0x1c
        0x0001b230:    4640        @F      MOV      r0,r8
        0x0001b232:    4639        9F      MOV      r1,r7
        0x0001b234:    223f        ?"      MOVS     r2,#0x3f
        0x0001b236:    2300        .#      MOVS     r3,#0
        0x0001b238:    9600        ..      STR      r6,[sp,#0]
        0x0001b23a:    f7fffe01    ....    BL       am_hal_delay_us_status_check ; 0x1ae40
        0x0001b23e:    2800        .(      CMP      r0,#0
        0x0001b240:    d140        @.      BNE      0x1b2c4 ; am_hal_mspi_blocking_transfer + 420
        0x0001b242:    f8d90014    ....    LDR      r0,[r9,#0x14]
        0x0001b246:    f1ba0a01    ....    SUBS     r10,r10,#1
        0x0001b24a:    f84b0b04    K...    STR      r0,[r11],#4
        0x0001b24e:    d1ef        ..      BNE      0x1b230 ; am_hal_mspi_blocking_transfer + 272
        0x0001b250:    9802        ..      LDR      r0,[sp,#8]
        0x0001b252:    2500        .%      MOVS     r5,#0
        0x0001b254:    f0100703    ....    ANDS     r7,r0,#3
        0x0001b258:    d035        5.      BEQ      0x1b2c6 ; am_hal_mspi_blocking_transfer + 422
        0x0001b25a:    f109011c    ....    ADD      r1,r9,#0x1c
        0x0001b25e:    4640        @F      MOV      r0,r8
        0x0001b260:    223f        ?"      MOVS     r2,#0x3f
        0x0001b262:    2300        .#      MOVS     r3,#0
        0x0001b264:    9500        ..      STR      r5,[sp,#0]
        0x0001b266:    f7fffdeb    ....    BL       am_hal_delay_us_status_check ; 0x1ae40
        0x0001b26a:    9e05        ..      LDR      r6,[sp,#0x14]
        0x0001b26c:    4605        .F      MOV      r5,r0
        0x0001b26e:    bb58        X.      CBNZ     r0,0x1b2c8 ; am_hal_mspi_blocking_transfer + 424
        0x0001b270:    f8d90014    ....    LDR      r0,[r9,#0x14]
        0x0001b274:    463a        :F      MOV      r2,r7
        0x0001b276:    9006        ..      STR      r0,[sp,#0x18]
        0x0001b278:    e9dd1003    ....    LDRD     r1,r0,[sp,#0xc]
        0x0001b27c:    eb000081    ....    ADD      r0,r0,r1,LSL #2
        0x0001b280:    a906        ..      ADD      r1,sp,#0x18
        0x0001b282:    f7fdf88d    ....    BL       __aeabi_memcpy ; 0x183a0
        0x0001b286:    2500        .%      MOVS     r5,#0
        0x0001b288:    e01e        ..      B        0x1b2c8 ; am_hal_mspi_blocking_transfer + 424
        0x0001b28a:    f8d18000    ....    LDR      r8,[r1,#0]
        0x0001b28e:    f1b80f00    ....    CMP      r8,#0
        0x0001b292:    d021        !.      BEQ      0x1b2d8 ; am_hal_mspi_blocking_transfer + 440
        0x0001b294:    f8d1b014    ....    LDR      r11,[r1,#0x14]
        0x0001b298:    6907        .i      LDR      r7,[r0,#0x10]
        0x0001b29a:    9605        ..      STR      r6,[sp,#0x14]
        0x0001b29c:    f1090618    ....    ADD      r6,r9,#0x18
        0x0001b2a0:    f04f0a00    O...    MOV      r10,#0
        0x0001b2a4:    f85b000a    [...    LDR      r0,[r11,r10]
        0x0001b2a8:    4631        1F      MOV      r1,r6
        0x0001b2aa:    f8c90010    ....    STR      r0,[r9,#0x10]
        0x0001b2ae:    4638        8F      MOV      r0,r7
        0x0001b2b0:    223f        ?"      MOVS     r2,#0x3f
        0x0001b2b2:    2310        .#      MOVS     r3,#0x10
        0x0001b2b4:    2500        .%      MOVS     r5,#0
        0x0001b2b6:    9500        ..      STR      r5,[sp,#0]
        0x0001b2b8:    f7fffdc2    ....    BL       am_hal_delay_us_status_check ; 0x1ae40
        0x0001b2bc:    f10a0a04    ....    ADD      r10,r10,#4
        0x0001b2c0:    45c2        .E      CMP      r10,r8
        0x0001b2c2:    d3ef        ..      BCC      0x1b2a4 ; am_hal_mspi_blocking_transfer + 388
        0x0001b2c4:    4605        .F      MOV      r5,r0
        0x0001b2c6:    9e05        ..      LDR      r6,[sp,#0x14]
        0x0001b2c8:    b135        5.      CBZ      r5,0x1b2d8 ; am_hal_mspi_blocking_transfer + 440
        0x0001b2ca:    f04f30ff    O..0    MOV      r0,#0xffffffff
        0x0001b2ce:    f8c90208    ....    STR      r0,[r9,#0x208]
        0x0001b2d2:    f8c96200    ...b    STR      r6,[r9,#0x200]
        0x0001b2d6:    e747        G.      B        0x1b168 ; am_hal_mspi_blocking_transfer + 72
        0x0001b2d8:    2701        .'      MOVS     r7,#1
        0x0001b2da:    4620         F      MOV      r0,r4
        0x0001b2dc:    4649        IF      MOV      r1,r9
        0x0001b2de:    2202        ."      MOVS     r2,#2
        0x0001b2e0:    2302        .#      MOVS     r3,#2
        0x0001b2e2:    9700        ..      STR      r7,[sp,#0]
        0x0001b2e4:    f7fffdac    ....    BL       am_hal_delay_us_status_check ; 0x1ae40
        0x0001b2e8:    f04f31ff    O..1    MOV      r1,#0xffffffff
        0x0001b2ec:    f8c91208    ....    STR      r1,[r9,#0x208]
        0x0001b2f0:    f8c96200    ...b    STR      r6,[r9,#0x200]
        0x0001b2f4:    e739        9.      B        0x1b16a ; am_hal_mspi_blocking_transfer + 74
    am_hal_mspi_configure
        0x0001b2f6:    b5f0        ..      PUSH     {r4-r7,lr}
        0x0001b2f8:    6802        .h      LDR      r2,[r0,#0]
        0x0001b2fa:    f64b65be    K..e    MOV      r5,#0xbebe
        0x0001b2fe:    f022437e    ".~C    BIC      r3,r2,#0xfe000000
        0x0001b302:    f2c015be    ....    MOVT     r5,#0x1be
        0x0001b306:    42ab        .B      CMP      r3,r5
        0x0001b308:    bf1c        ..      ITT      NE
        0x0001b30a:    2002        .       MOVNE    r0,#2
        0x0001b30c:    bdf0        ..      POPNE    {r4-r7,pc}
        0x0001b30e:    0192        ..      LSLS     r2,r2,#6
        0x0001b310:    bf44        D.      ITT      MI
        0x0001b312:    2007        .       MOVMI    r0,#7
        0x0001b314:    bdf0        ..      POPMI    {r4-r7,pc}
        0x0001b316:    f8d0e004    ....    LDR      lr,[r0,#4]
        0x0001b31a:    2290        ."      MOVS     r2,#0x90
        0x0001b31c:    ea4f330e    O..3    LSL      r3,lr,#12
        0x0001b320:    f2c40206    ....    MOVT     r2,#0x4006
        0x0001b324:    58d5        .X      LDR      r5,[r2,r3]
        0x0001b326:    f6443c78    D.x<    MOV      r12,#0x4b78
        0x0001b32a:    f0250501    %...    BIC      r5,r5,#1
        0x0001b32e:    50d5        .P      STR      r5,[r2,r3]
        0x0001b330:    259c        .%      MOVS     r5,#0x9c
        0x0001b332:    f2c40506    ....    MOVT     r5,#0x4006
        0x0001b336:    2200        ."      MOVS     r2,#0
        0x0001b338:    50ea        .P      STR      r2,[r5,r3]
        0x0001b33a:    2580        .%      MOVS     r5,#0x80
        0x0001b33c:    f2c40506    ....    MOVT     r5,#0x4006
        0x0001b340:    50ea        .P      STR      r2,[r5,r3]
        0x0001b342:    f2c10c00    ....    MOVT     r12,#0x1000
        0x0001b346:    f64003c4    @...    MOV      r3,#0x8c4
        0x0001b34a:    684c        Lh      LDR      r4,[r1,#4]
        0x0001b34c:    fb0ec303    ....    MLA      r3,lr,r3,r12
        0x0001b350:    680d        .h      LDR      r5,[r1,#0]
        0x0001b352:    619c        .a      STR      r4,[r3,#0x18]
        0x0001b354:    6984        .i      LDR      r4,[r0,#0x18]
        0x0001b356:    615d        ]a      STR      r5,[r3,#0x14]
        0x0001b358:    b37c        |.      CBZ      r4,0x1b3ba ; am_hal_mspi_configure + 196
        0x0001b35a:    6946        Fi      LDR      r6,[r0,#0x14]
        0x0001b35c:    2700        .'      MOVS     r7,#0
        0x0001b35e:    00b5        ..      LSLS     r5,r6,#2
        0x0001b360:    eb040686    ....    ADD      r6,r4,r6,LSL #2
        0x0001b364:    f2c10706    ....    MOVT     r7,#0x1006
        0x0001b368:    42be        .B      CMP      r6,r7
        0x0001b36a:    bf38        8.      IT       CC
        0x0001b36c:    2201        ."      MOVCC    r2,#1
        0x0001b36e:    f88028c0    ...(    STRB     r2,[r0,#0x8c0]
        0x0001b372:    d30d        ..      BCC      0x1b390 ; am_hal_mspi_configure + 154
        0x0001b374:    f104020f    ....    ADD      r2,r4,#0xf
        0x0001b378:    f004040f    ....    AND      r4,r4,#0xf
        0x0001b37c:    1b2c        ,.      SUBS     r4,r5,r4
        0x0001b37e:    f06f0503    o...    MVN      r5,#3
        0x0001b382:    ea050494    ....    AND      r4,r5,r4,LSR #2
        0x0001b386:    f022020f    "...    BIC      r2,r2,#0xf
        0x0001b38a:    00a5        ..      LSLS     r5,r4,#2
        0x0001b38c:    e9c04205    ...B    STRD     r4,r2,[r0,#0x14]
        0x0001b390:    f6486239    H.9b    MOV      r2,#0x8e39
        0x0001b394:    f1a50020    .. .    SUB      r0,r5,#0x20
        0x0001b398:    f6c302e3    ....    MOVT     r2,#0x38e3
        0x0001b39c:    fba02402    ...$    UMULL    r2,r4,r0,r2
        0x0001b3a0:    0922        ".      LSRS     r2,r4,#4
        0x0001b3a2:    f64004c4    @...    MOV      r4,#0x8c4
        0x0001b3a6:    fb0ec704    ....    MLA      r7,lr,r4,r12
        0x0001b3aa:    f6440647    D.G.    MOV      r6,#0x4847
        0x0001b3ae:    42b0        .B      CMP      r0,r6
        0x0001b3b0:    bf88        ..      IT       HI
        0x0001b3b2:    f44f7280    O..r    MOVHI    r2,#0x100
        0x0001b3b6:    f8c72858    ..X(    STR      r2,[r7,#0x858]
        0x0001b3ba:    7a08        .z      LDRB     r0,[r1,#8]
        0x0001b3bc:    7258        Xr      STRB     r0,[r3,#9]
        0x0001b3be:    2001        .       MOVS     r0,#1
        0x0001b3c0:    7218        .r      STRB     r0,[r3,#8]
        0x0001b3c2:    201a        .       MOVS     r0,#0x1a
        0x0001b3c4:    7298        .r      STRB     r0,[r3,#0xa]
        0x0001b3c6:    2000        .       MOVS     r0,#0
        0x0001b3c8:    bdf0        ..      POP      {r4-r7,pc}
        0x0001b3ca:    0000        ..      MOVS     r0,r0
    am_hal_mspi_control
        0x0001b3cc:    e92d47f0    -..G    PUSH     {r4-r10,lr}
        0x0001b3d0:    b082        ..      SUB      sp,sp,#8
        0x0001b3d2:    b170        p.      CBZ      r0,0x1b3f2 ; am_hal_mspi_control + 38
        0x0001b3d4:    4605        .F      MOV      r5,r0
        0x0001b3d6:    6800        .h      LDR      r0,[r0,#0]
        0x0001b3d8:    4614        .F      MOV      r4,r2
        0x0001b3da:    f64b62be    K..b    MOV      r2,#0xbebe
        0x0001b3de:    f020407e     .~@    BIC      r0,r0,#0xfe000000
        0x0001b3e2:    f2c012be    ....    MOVT     r2,#0x1be
        0x0001b3e6:    4290        .B      CMP      r0,r2
        0x0001b3e8:    d103        ..      BNE      0x1b3f2 ; am_hal_mspi_control + 38
        0x0001b3ea:    2921        !)      CMP      r1,#0x21
        0x0001b3ec:    d906        ..      BLS      0x1b3fc ; am_hal_mspi_control + 48
        0x0001b3ee:    2606        .&      MOVS     r6,#6
        0x0001b3f0:    e000        ..      B        0x1b3f4 ; am_hal_mspi_control + 40
        0x0001b3f2:    2602        .&      MOVS     r6,#2
        0x0001b3f4:    4630        0F      MOV      r0,r6
        0x0001b3f6:    b002        ..      ADD      sp,sp,#8
        0x0001b3f8:    e8bd87f0    ....    POP      {r4-r10,pc}
        0x0001b3fc:    7a28        (z      LDRB     r0,[r5,#8]
        0x0001b3fe:    2800        .(      CMP      r0,#0
        0x0001b400:    f00083eb    ....    BEQ.W    0x1bbda ; am_hal_mspi_control + 2062
        0x0001b404:    2920         )      CMP      r1,#0x20
        0x0001b406:    d8f2        ..      BHI      0x1b3ee ; am_hal_mspi_control + 34
        0x0001b408:    686f        oh      LDR      r7,[r5,#4]
        0x0001b40a:    e8dff011    ....    TBH      [pc,r1,LSL #1]
    $d.12
        0x0001b40e:    0021        !.      DCW    33
        0x0001b410:    003f002d    -.?.    DCD    4128813
        0x0001b414:    0068004c    L.h.    DCD    6815820
        0x0001b418:    007c0072    r.|.    DCD    8126578
        0x0001b41c:    00920086    ....    DCD    9568390
        0x0001b420:    00ac00a2    ....    DCD    11272354
        0x0001b424:    012700b6    ..'.    DCD    19333302
        0x0001b428:    01e20192    ....    DCD    31588754
        0x0001b42c:    020f01f3    ....    DCD    34537971
        0x0001b430:    022a0220     .*.    DCD    36307488
        0x0001b434:    0250023d    =.P.    DCD    38797885
        0x0001b438:    0286027d    }...    DCD    42336893
        0x0001b43c:    02e202dc    ....    DCD    48366300
        0x0001b440:    030a02f2    ....    DCD    50987762
        0x0001b444:    03870369    i...    DCD    59179881
        0x0001b448:    03bb0398    ....    DCD    62587800
        0x0001b44c:    040903e9    ....    DCD    67699689
    $t.13
        0x0001b450:    2c00        .,      CMP      r4,#0
        0x0001b452:    d0cc        ..      BEQ      0x1b3ee ; am_hal_mspi_control + 34
        0x0001b454:    2100        .!      MOVS     r1,#0
        0x0001b456:    f2c40106    ....    MOVT     r1,#0x4006
        0x0001b45a:    eb013107    ...1    ADD      r1,r1,r7,LSL #12
        0x0001b45e:    6820         h      LDR      r0,[r4,#0]
        0x0001b460:    6b0a        .k      LDR      r2,[r1,#0x30]
        0x0001b462:    f3600200    `...    BFI      r2,r0,#0,#1
        0x0001b466:    e038        8.      B        0x1b4da ; am_hal_mspi_control + 270
        0x0001b468:    2c00        .,      CMP      r4,#0
        0x0001b46a:    d0c0        ..      BEQ      0x1b3ee ; am_hal_mspi_control + 34
        0x0001b46c:    6820         h      LDR      r0,[r4,#0]
        0x0001b46e:    f24e01e0    N...    MOV      r1,#0xe0e0
        0x0001b472:    f2c001e0    ....    MOVT     r1,#0xe0
        0x0001b476:    4208        .B      TST      r0,r1
        0x0001b478:    d1b9        ..      BNE      0x1b3ee ; am_hal_mspi_control + 34
        0x0001b47a:    2100        .!      MOVS     r1,#0
        0x0001b47c:    f2c40106    ....    MOVT     r1,#0x4006
        0x0001b480:    eb013107    ...1    ADD      r1,r1,r7,LSL #12
        0x0001b484:    f8c102b4    ....    STR      r0,[r1,#0x2b4]
        0x0001b488:    f000bbeb    ....    B.W      0x1bc62 ; am_hal_mspi_control + 2198
        0x0001b48c:    2c00        .,      CMP      r4,#0
        0x0001b48e:    d0ae        ..      BEQ      0x1b3ee ; am_hal_mspi_control + 34
        0x0001b490:    6820         h      LDR      r0,[r4,#0]
        0x0001b492:    2807        .(      CMP      r0,#7
        0x0001b494:    f63fafab    ?...    BHI.W    0x1b3ee ; am_hal_mspi_control + 34
        0x0001b498:    2100        .!      MOVS     r1,#0
        0x0001b49a:    f2c40106    ....    MOVT     r1,#0x4006
        0x0001b49e:    eb013107    ...1    ADD      r1,r1,r7,LSL #12
        0x0001b4a2:    6b0a        .k      LDR      r2,[r1,#0x30]
        0x0001b4a4:    e017        ..      B        0x1b4d6 ; am_hal_mspi_control + 266
        0x0001b4a6:    2c00        .,      CMP      r4,#0
        0x0001b4a8:    f43fafa1    ?...    BEQ.W    0x1b3ee ; am_hal_mspi_control + 34
        0x0001b4ac:    6820         h      LDR      r0,[r4,#0]
        0x0001b4ae:    2606        .&      MOVS     r6,#6
        0x0001b4b0:    2807        .(      CMP      r0,#7
        0x0001b4b2:    f63faf9f    ?...    BHI.W    0x1b3f4 ; am_hal_mspi_control + 40
        0x0001b4b6:    2101        .!      MOVS     r1,#1
        0x0001b4b8:    4081        .@      LSLS     r1,r1,r0
        0x0001b4ba:    f0110f87    ....    TST      r1,#0x87
        0x0001b4be:    f43faf99    ?...    BEQ.W    0x1b3f4 ; am_hal_mspi_control + 40
        0x0001b4c2:    2100        .!      MOVS     r1,#0
        0x0001b4c4:    f2c40106    ....    MOVT     r1,#0x4006
        0x0001b4c8:    eb013107    ...1    ADD      r1,r1,r7,LSL #12
        0x0001b4cc:    2380        .#      MOVS     r3,#0x80
        0x0001b4ce:    6b0a        .k      LDR      r2,[r1,#0x30]
        0x0001b4d0:    eb031000    ....    ADD      r0,r3,r0,LSL #4
        0x0001b4d4:    0900        ..      LSRS     r0,r0,#4
        0x0001b4d6:    f3601207    `...    BFI      r2,r0,#4,#4
        0x0001b4da:    630a        .c      STR      r2,[r1,#0x30]
        0x0001b4dc:    e3c1        ..      B        0x1bc62 ; am_hal_mspi_control + 2198
        0x0001b4de:    2000        .       MOVS     r0,#0
        0x0001b4e0:    f2c40006    ....    MOVT     r0,#0x4006
        0x0001b4e4:    eb003007    ...0    ADD      r0,r0,r7,LSL #12
        0x0001b4e8:    f8d01090    ....    LDR      r1,[r0,#0x90]
        0x0001b4ec:    f4215180    !..Q    BIC      r1,r1,#0x1000
        0x0001b4f0:    e3b5        ..      B        0x1bc5e ; am_hal_mspi_control + 2194
        0x0001b4f2:    2000        .       MOVS     r0,#0
        0x0001b4f4:    f2c40006    ....    MOVT     r0,#0x4006
        0x0001b4f8:    eb003007    ...0    ADD      r0,r0,r7,LSL #12
        0x0001b4fc:    f8d01090    ....    LDR      r1,[r0,#0x90]
        0x0001b500:    f4415180    A..Q    ORR      r1,r1,#0x1000
        0x0001b504:    e3ab        ..      B        0x1bc5e ; am_hal_mspi_control + 2194
        0x0001b506:    2000        .       MOVS     r0,#0
        0x0001b508:    f2c40006    ....    MOVT     r0,#0x4006
        0x0001b50c:    eb003007    ...0    ADD      r0,r0,r7,LSL #12
        0x0001b510:    f8d0109c    ....    LDR      r1,[r0,#0x9c]
        0x0001b514:    f0214100    !..A    BIC      r1,r1,#0x80000000
        0x0001b518:    e008        ..      B        0x1b52c ; am_hal_mspi_control + 352
        0x0001b51a:    2000        .       MOVS     r0,#0
        0x0001b51c:    f2c40006    ....    MOVT     r0,#0x4006
        0x0001b520:    eb003007    ...0    ADD      r0,r0,r7,LSL #12
        0x0001b524:    f8d0109c    ....    LDR      r1,[r0,#0x9c]
        0x0001b528:    f0414100    A..A    ORR      r1,r1,#0x80000000
        0x0001b52c:    f8c0109c    ....    STR      r1,[r0,#0x9c]
        0x0001b530:    e397        ..      B        0x1bc62 ; am_hal_mspi_control + 2198
        0x0001b532:    2c00        .,      CMP      r4,#0
        0x0001b534:    f43faf5b    ?.[.    BEQ      0x1b3ee ; am_hal_mspi_control + 34
        0x0001b538:    2100        .!      MOVS     r1,#0
        0x0001b53a:    f2c40106    ....    MOVT     r1,#0x4006
        0x0001b53e:    eb013107    ...1    ADD      r1,r1,r7,LSL #12
        0x0001b542:    7820         x      LDRB     r0,[r4,#0]
        0x0001b544:    f8d12090    ...     LDR      r2,[r1,#0x90]
        0x0001b548:    f3600283    `...    BFI      r2,r0,#2,#2
        0x0001b54c:    f8c12090    ...     STR      r2,[r1,#0x90]
        0x0001b550:    e387        ..      B        0x1bc62 ; am_hal_mspi_control + 2198
        0x0001b552:    2000        .       MOVS     r0,#0
        0x0001b554:    f2c40006    ....    MOVT     r0,#0x4006
        0x0001b558:    eb003007    ...0    ADD      r0,r0,r7,LSL #12
        0x0001b55c:    f8d01088    ....    LDR      r1,[r0,#0x88]
        0x0001b560:    f0210101    !...    BIC      r1,r1,#1
        0x0001b564:    e132        2.      B        0x1b7cc ; am_hal_mspi_control + 1024
        0x0001b566:    2000        .       MOVS     r0,#0
        0x0001b568:    f2c40006    ....    MOVT     r0,#0x4006
        0x0001b56c:    eb003007    ...0    ADD      r0,r0,r7,LSL #12
        0x0001b570:    f8d01088    ....    LDR      r1,[r0,#0x88]
        0x0001b574:    f0410101    A...    ORR      r1,r1,#1
        0x0001b578:    e128        (.      B        0x1b7cc ; am_hal_mspi_control + 1024
        0x0001b57a:    2c00        .,      CMP      r4,#0
        0x0001b57c:    f43faf37    ?.7.    BEQ      0x1b3ee ; am_hal_mspi_control + 34
        0x0001b580:    2000        .       MOVS     r0,#0
        0x0001b582:    f2c40006    ....    MOVT     r0,#0x4006
        0x0001b586:    eb003007    ...0    ADD      r0,r0,r7,LSL #12
        0x0001b58a:    7821        !x      LDRB     r1,[r4,#0]
        0x0001b58c:    f8d02088    ...     LDR      r2,[r0,#0x88]
        0x0001b590:    f001013f    ..?.    AND      r1,r1,#0x3f
        0x0001b594:    f0220204    "...    BIC      r2,r2,#4
        0x0001b598:    ea420181    B...    ORR      r1,r2,r1,LSL #2
        0x0001b59c:    f8c01088    ....    STR      r1,[r0,#0x88]
        0x0001b5a0:    7861        ax      LDRB     r1,[r4,#1]
        0x0001b5a2:    f8d02088    ...     LDR      r2,[r0,#0x88]
        0x0001b5a6:    f001011f    ....    AND      r1,r1,#0x1f
        0x0001b5aa:    f0220208    "...    BIC      r2,r2,#8
        0x0001b5ae:    ea4201c1    B...    ORR      r1,r2,r1,LSL #3
        0x0001b5b2:    f8c01088    ....    STR      r1,[r0,#0x88]
        0x0001b5b6:    78a1        .x      LDRB     r1,[r4,#2]
        0x0001b5b8:    f8d02088    ...     LDR      r2,[r0,#0x88]
        0x0001b5bc:    f001010f    ....    AND      r1,r1,#0xf
        0x0001b5c0:    f0220210    "...    BIC      r2,r2,#0x10
        0x0001b5c4:    ea421101    B...    ORR      r1,r2,r1,LSL #4
        0x0001b5c8:    f8c01088    ....    STR      r1,[r0,#0x88]
        0x0001b5cc:    78e1        .x      LDRB     r1,[r4,#3]
        0x0001b5ce:    f8d02088    ...     LDR      r2,[r0,#0x88]
        0x0001b5d2:    f001011f    ....    AND      r1,r1,#0x1f
        0x0001b5d6:    f4227278    ".xr    BIC      r2,r2,#0x3e0
        0x0001b5da:    ea421141    B.A.    ORR      r1,r2,r1,LSL #5
        0x0001b5de:    f8c01088    ....    STR      r1,[r0,#0x88]
        0x0001b5e2:    7921        !y      LDRB     r1,[r4,#4]
        0x0001b5e4:    f8d02088    ...     LDR      r2,[r0,#0x88]
        0x0001b5e8:    f001011f    ....    AND      r1,r1,#0x1f
        0x0001b5ec:    f42242f8    "..B    BIC      r2,r2,#0x7c00
        0x0001b5f0:    ea422181    B..!    ORR      r1,r2,r1,LSL #10
        0x0001b5f4:    f8c01088    ....    STR      r1,[r0,#0x88]
        0x0001b5f8:    7961        ay      LDRB     r1,[r4,#5]
        0x0001b5fa:    f8d02088    ...     LDR      r2,[r0,#0x88]
        0x0001b5fe:    f001011f    ....    AND      r1,r1,#0x1f
        0x0001b602:    f4222278    ".x"    BIC      r2,r2,#0xf8000
        0x0001b606:    ea4231c1    B..1    ORR      r1,r2,r1,LSL #15
        0x0001b60a:    f8c01088    ....    STR      r1,[r0,#0x88]
        0x0001b60e:    79a1        .y      LDRB     r1,[r4,#6]
        0x0001b610:    f8d02088    ...     LDR      r2,[r0,#0x88]
        0x0001b614:    f4221280    "...    BIC      r2,r2,#0x100000
        0x0001b618:    ea425101    B..Q    ORR      r1,r2,r1,LSL #20
        0x0001b61c:    f8c01088    ....    STR      r1,[r0,#0x88]
        0x0001b620:    79e1        .y      LDRB     r1,[r4,#7]
        0x0001b622:    f8d02088    ...     LDR      r2,[r0,#0x88]
        0x0001b626:    f001011f    ....    AND      r1,r1,#0x1f
        0x0001b62a:    f0227278    ".xr    BIC      r2,r2,#0x3e00000
        0x0001b62e:    ea425141    B.AQ    ORR      r1,r2,r1,LSL #21
        0x0001b632:    f8c01088    ....    STR      r1,[r0,#0x88]
        0x0001b636:    7a21        !z      LDRB     r1,[r4,#8]
        0x0001b638:    f8d02088    ...     LDR      r2,[r0,#0x88]
        0x0001b63c:    f001011f    ....    AND      r1,r1,#0x1f
        0x0001b640:    f02242f8    "..B    BIC      r2,r2,#0x7c000000
        0x0001b644:    ea426181    B..a    ORR      r1,r2,r1,LSL #26
        0x0001b648:    f8c01088    ....    STR      r1,[r0,#0x88]
        0x0001b64c:    7a61        az      LDRB     r1,[r4,#9]
        0x0001b64e:    f8d02088    ...     LDR      r2,[r0,#0x88]
        0x0001b652:    f0224200    "..B    BIC      r2,r2,#0x80000000
        0x0001b656:    ea4271c1    B..q    ORR      r1,r2,r1,LSL #31
        0x0001b65a:    e0b7        ..      B        0x1b7cc ; am_hal_mspi_control + 1024
        0x0001b65c:    2c00        .,      CMP      r4,#0
        0x0001b65e:    f43faec6    ?...    BEQ      0x1b3ee ; am_hal_mspi_control + 34
        0x0001b662:    2000        .       MOVS     r0,#0
        0x0001b664:    f2c40006    ....    MOVT     r0,#0x4006
        0x0001b668:    eb003007    ...0    ADD      r0,r0,r7,LSL #12
        0x0001b66c:    7a61        az      LDRB     r1,[r4,#9]
        0x0001b66e:    f8d0208c    ...     LDR      r2,[r0,#0x8c]
        0x0001b672:    f3610203    a...    BFI      r2,r1,#0,#4
        0x0001b676:    f8c0208c    ...     STR      r2,[r0,#0x8c]
        0x0001b67a:    7a21        !z      LDRB     r1,[r4,#8]
        0x0001b67c:    f8d0208c    ...     LDR      r2,[r0,#0x8c]
        0x0001b680:    f001010f    ....    AND      r1,r1,#0xf
        0x0001b684:    f0220210    "...    BIC      r2,r2,#0x10
        0x0001b688:    ea421101    B...    ORR      r1,r2,r1,LSL #4
        0x0001b68c:    f8c0108c    ....    STR      r1,[r0,#0x8c]
        0x0001b690:    79e1        .y      LDRB     r1,[r4,#7]
        0x0001b692:    f8d0208c    ...     LDR      r2,[r0,#0x8c]
        0x0001b696:    f0010107    ....    AND      r1,r1,#7
        0x0001b69a:    f0220220    ". .    BIC      r2,r2,#0x20
        0x0001b69e:    ea421141    B.A.    ORR      r1,r2,r1,LSL #5
        0x0001b6a2:    f8c0108c    ....    STR      r1,[r0,#0x8c]
        0x0001b6a6:    79a1        .y      LDRB     r1,[r4,#6]
        0x0001b6a8:    f8d0208c    ...     LDR      r2,[r0,#0x8c]
        0x0001b6ac:    f0010101    ....    AND      r1,r1,#1
        0x0001b6b0:    f0220280    "...    BIC      r2,r2,#0x80
        0x0001b6b4:    ea4211c1    B...    ORR      r1,r2,r1,LSL #7
        0x0001b6b8:    f8c0108c    ....    STR      r1,[r0,#0x8c]
        0x0001b6bc:    7961        ay      LDRB     r1,[r4,#5]
        0x0001b6be:    f8d0208c    ...     LDR      r2,[r0,#0x8c]
        0x0001b6c2:    f4227280    "..r    BIC      r2,r2,#0x100
        0x0001b6c6:    ea422101    B..!    ORR      r1,r2,r1,LSL #8
        0x0001b6ca:    f8c0108c    ....    STR      r1,[r0,#0x8c]
        0x0001b6ce:    7921        !y      LDRB     r1,[r4,#4]
        0x0001b6d0:    f8d0208c    ...     LDR      r2,[r0,#0x8c]
        0x0001b6d4:    f0010103    ....    AND      r1,r1,#3
        0x0001b6d8:    f42262c0    "..b    BIC      r2,r2,#0x600
        0x0001b6dc:    ea422141    B.A!    ORR      r1,r2,r1,LSL #9
        0x0001b6e0:    f8c0108c    ....    STR      r1,[r0,#0x8c]
        0x0001b6e4:    78e1        .x      LDRB     r1,[r4,#3]
        0x0001b6e6:    f8d0208c    ...     LDR      r2,[r0,#0x8c]
        0x0001b6ea:    f4226200    "..b    BIC      r2,r2,#0x800
        0x0001b6ee:    ea4221c1    B..!    ORR      r1,r2,r1,LSL #11
        0x0001b6f2:    f8c0108c    ....    STR      r1,[r0,#0x8c]
        0x0001b6f6:    78a1        .x      LDRB     r1,[r4,#2]
        0x0001b6f8:    f8d0208c    ...     LDR      r2,[r0,#0x8c]
        0x0001b6fc:    f4225280    "..R    BIC      r2,r2,#0x1000
        0x0001b700:    ea423101    B..1    ORR      r1,r2,r1,LSL #12
        0x0001b704:    f8c0108c    ....    STR      r1,[r0,#0x8c]
        0x0001b708:    7861        ax      LDRB     r1,[r4,#1]
        0x0001b70a:    f8d0208c    ...     LDR      r2,[r0,#0x8c]
        0x0001b70e:    f4225200    "..R    BIC      r2,r2,#0x2000
        0x0001b712:    ea423141    B.A1    ORR      r1,r2,r1,LSL #13
        0x0001b716:    f8c0108c    ....    STR      r1,[r0,#0x8c]
        0x0001b71a:    7821        !x      LDRB     r1,[r4,#0]
        0x0001b71c:    f8d0208c    ...     LDR      r2,[r0,#0x8c]
        0x0001b720:    f0010107    ....    AND      r1,r1,#7
        0x0001b724:    f42232e0    "..2    BIC      r2,r2,#0x1c000
        0x0001b728:    ea423181    B..1    ORR      r1,r2,r1,LSL #14
        0x0001b72c:    f8c0108c    ....    STR      r1,[r0,#0x8c]
        0x0001b730:    e297        ..      B        0x1bc62 ; am_hal_mspi_control + 2198
        0x0001b732:    2c00        .,      CMP      r4,#0
        0x0001b734:    f43fae5b    ?.[.    BEQ      0x1b3ee ; am_hal_mspi_control + 34
        0x0001b738:    2000        .       MOVS     r0,#0
        0x0001b73a:    f2c40006    ....    MOVT     r0,#0x4006
        0x0001b73e:    eb003007    ...0    ADD      r0,r0,r7,LSL #12
        0x0001b742:    7821        !x      LDRB     r1,[r4,#0]
        0x0001b744:    f8d02084    ...     LDR      r2,[r0,#0x84]
        0x0001b748:    f0227280    "..r    BIC      r2,r2,#0x1000000
        0x0001b74c:    ea426101    B..a    ORR      r1,r2,r1,LSL #24
        0x0001b750:    f8c01084    ....    STR      r1,[r0,#0x84]
        0x0001b754:    7861        ax      LDRB     r1,[r4,#1]
        0x0001b756:    f8d02084    ...     LDR      r2,[r0,#0x84]
        0x0001b75a:    f4220200    "...    BIC      r2,r2,#0x800000
        0x0001b75e:    ea4251c1    B..Q    ORR      r1,r2,r1,LSL #23
        0x0001b762:    f8c01084    ....    STR      r1,[r0,#0x84]
        0x0001b766:    78a1        .x      LDRB     r1,[r4,#2]
        0x0001b768:    f8d02084    ...     LDR      r2,[r0,#0x84]
        0x0001b76c:    f4220280    "...    BIC      r2,r2,#0x400000
        0x0001b770:    ea425181    B..Q    ORR      r1,r2,r1,LSL #22
        0x0001b774:    f8c01084    ....    STR      r1,[r0,#0x84]
        0x0001b778:    7961        ay      LDRB     r1,[r4,#5]
        0x0001b77a:    f8d02084    ...     LDR      r2,[r0,#0x84]
        0x0001b77e:    f001013f    ..?.    AND      r1,r1,#0x3f
        0x0001b782:    f422527c    ".|R    BIC      r2,r2,#0x3f00
        0x0001b786:    ea422101    B..!    ORR      r1,r2,r1,LSL #8
        0x0001b78a:    f8c01084    ....    STR      r1,[r0,#0x84]
        0x0001b78e:    7961        ay      LDRB     r1,[r4,#5]
        0x0001b790:    f8d02090    ...     LDR      r2,[r0,#0x90]
        0x0001b794:    f001013f    ..?.    AND      r1,r1,#0x3f
        0x0001b798:    f422227c    ".|"    BIC      r2,r2,#0xfc000
        0x0001b79c:    ea423181    B..1    ORR      r1,r2,r1,LSL #14
        0x0001b7a0:    f8c01090    ....    STR      r1,[r0,#0x90]
        0x0001b7a4:    78e1        .x      LDRB     r1,[r4,#3]
        0x0001b7a6:    f8d02088    ...     LDR      r2,[r0,#0x88]
        0x0001b7aa:    f001011f    ....    AND      r1,r1,#0x1f
        0x0001b7ae:    f4227278    ".xr    BIC      r2,r2,#0x3e0
        0x0001b7b2:    ea421141    B.A.    ORR      r1,r2,r1,LSL #5
        0x0001b7b6:    f8c01088    ....    STR      r1,[r0,#0x88]
        0x0001b7ba:    7921        !y      LDRB     r1,[r4,#4]
        0x0001b7bc:    f8d02088    ...     LDR      r2,[r0,#0x88]
        0x0001b7c0:    f001011f    ....    AND      r1,r1,#0x1f
        0x0001b7c4:    f42242f8    "..B    BIC      r2,r2,#0x7c00
        0x0001b7c8:    ea422181    B..!    ORR      r1,r2,r1,LSL #10
        0x0001b7cc:    f8c01088    ....    STR      r1,[r0,#0x88]
        0x0001b7d0:    e247        G.      B        0x1bc62 ; am_hal_mspi_control + 2198
        0x0001b7d2:    2f00        ./      CMP      r7,#0
        0x0001b7d4:    f0008248    ..H.    BEQ.W    0x1bc68 ; am_hal_mspi_control + 2204
        0x0001b7d8:    2f01        ./      CMP      r7,#1
        0x0001b7da:    f000824c    ..L.    BEQ.W    0x1bc76 ; am_hal_mspi_control + 2218
        0x0001b7de:    2f02        ./      CMP      r7,#2
        0x0001b7e0:    f0408252    @.R.    BNE.W    0x1bc88 ; am_hal_mspi_control + 2236
        0x0001b7e4:    68a0        .h      LDR      r0,[r4,#8]
        0x0001b7e6:    f000417c    ..|A    AND      r1,r0,#0xfc000000
        0x0001b7ea:    f1b15fe0    ..._    CMP      r1,#0x1c000000
        0x0001b7ee:    f0408248    @.H.    BNE.W    0x1bc82 ; am_hal_mspi_control + 2230
        0x0001b7f2:    e24a        J.      B        0x1bc8a ; am_hal_mspi_control + 2238
        0x0001b7f4:    2c00        .,      CMP      r4,#0
        0x0001b7f6:    f43fadfa    ?...    BEQ      0x1b3ee ; am_hal_mspi_control + 34
        0x0001b7fa:    79e0        .y      LDRB     r0,[r4,#7]
        0x0001b7fc:    79a1        .y      LDRB     r1,[r4,#6]
        0x0001b7fe:    7a22        "z      LDRB     r2,[r4,#8]
        0x0001b800:    0380        ..      LSLS     r0,r0,#14
        0x0001b802:    ea405041    @.AP    ORR      r0,r0,r1,LSL #21
        0x0001b806:    f0020101    ....    AND      r1,r2,#1
        0x0001b80a:    ea403041    @.A0    ORR      r0,r0,r1,LSL #13
        0x0001b80e:    7961        ay      LDRB     r1,[r4,#5]
        0x0001b810:    6822        "h      LDR      r2,[r4,#0]
        0x0001b812:    ea403001    @..0    ORR      r0,r0,r1,LSL #12
        0x0001b816:    2100        .!      MOVS     r1,#0
        0x0001b818:    f36f321f    o..2    BFC      r2,#12,#20
        0x0001b81c:    f2c40106    ....    MOVT     r1,#0x4006
        0x0001b820:    4410        .D      ADD      r0,r0,r2
        0x0001b822:    eb013107    ...1    ADD      r1,r1,r7,LSL #12
        0x0001b826:    f8c100a0    ....    STR      r0,[r1,#0xa0]
        0x0001b82a:    e21a        ..      B        0x1bc62 ; am_hal_mspi_control + 2198
        0x0001b82c:    2001        .       MOVS     r0,#1
        0x0001b82e:    2100        .!      MOVS     r1,#0
        0x0001b830:    2600        .&      MOVS     r6,#0
        0x0001b832:    f7fff9af    ....    BL       am_hal_daxi_control ; 0x1ab94
        0x0001b836:    2000        .       MOVS     r0,#0
        0x0001b838:    f2c40006    ....    MOVT     r0,#0x4006
        0x0001b83c:    eb003007    ...0    ADD      r0,r0,r7,LSL #12
        0x0001b840:    f8d01090    ....    LDR      r1,[r0,#0x90]
        0x0001b844:    f0210101    !...    BIC      r1,r1,#1
        0x0001b848:    f8c01090    ....    STR      r1,[r0,#0x90]
        0x0001b84c:    e5d2        ..      B        0x1b3f4 ; am_hal_mspi_control + 40
        0x0001b84e:    2000        .       MOVS     r0,#0
        0x0001b850:    f2c40006    ....    MOVT     r0,#0x4006
        0x0001b854:    eb003007    ...0    ADD      r0,r0,r7,LSL #12
        0x0001b858:    f8d01090    ....    LDR      r1,[r0,#0x90]
        0x0001b85c:    f0410101    A...    ORR      r1,r1,#1
        0x0001b860:    e1fd        ..      B        0x1bc5e ; am_hal_mspi_control + 2194
        0x0001b862:    2100        .!      MOVS     r1,#0
        0x0001b864:    0338        8.      LSLS     r0,r7,#12
        0x0001b866:    f2c40106    ....    MOVT     r1,#0x4006
        0x0001b86a:    580a        .X      LDR      r2,[r1,r0]
        0x0001b86c:    eb013307    ...3    ADD      r3,r1,r7,LSL #12
        0x0001b870:    f4427280    B..r    ORR      r2,r2,#0x100
        0x0001b874:    500a        .P      STR      r2,[r1,r0]
        0x0001b876:    f8d30090    ....    LDR      r0,[r3,#0x90]
        0x0001b87a:    f0400010    @...    ORR      r0,r0,#0x10
        0x0001b87e:    f8c30090    ....    STR      r0,[r3,#0x90]
        0x0001b882:    2001        .       MOVS     r0,#1
        0x0001b884:    7368        hs      STRB     r0,[r5,#0xd]
        0x0001b886:    e1ec        ..      B        0x1bc62 ; am_hal_mspi_control + 2198
        0x0001b888:    2100        .!      MOVS     r1,#0
        0x0001b88a:    0338        8.      LSLS     r0,r7,#12
        0x0001b88c:    f2c40106    ....    MOVT     r1,#0x4006
        0x0001b890:    580a        .X      LDR      r2,[r1,r0]
        0x0001b892:    eb013307    ...3    ADD      r3,r1,r7,LSL #12
        0x0001b896:    f4227280    "..r    BIC      r2,r2,#0x100
        0x0001b89a:    500a        .P      STR      r2,[r1,r0]
        0x0001b89c:    f8d30090    ....    LDR      r0,[r3,#0x90]
        0x0001b8a0:    2600        .&      MOVS     r6,#0
        0x0001b8a2:    f0200010     ...    BIC      r0,r0,#0x10
        0x0001b8a6:    f8c30090    ....    STR      r0,[r3,#0x90]
        0x0001b8aa:    736e        ns      STRB     r6,[r5,#0xd]
        0x0001b8ac:    e5a2        ..      B        0x1b3f4 ; am_hal_mspi_control + 40
        0x0001b8ae:    2c00        .,      CMP      r4,#0
        0x0001b8b0:    f43fad9d    ?...    BEQ      0x1b3ee ; am_hal_mspi_control + 34
        0x0001b8b4:    7820         x      LDRB     r0,[r4,#0]
        0x0001b8b6:    2819        .(      CMP      r0,#0x19
        0x0001b8b8:    72e8        .r      STRB     r0,[r5,#0xb]
        0x0001b8ba:    f20081d2    ....    BHI.W    0x1bc62 ; am_hal_mspi_control + 2198
        0x0001b8be:    e8dff010    ....    TBH      [pc,r0,LSL #1]
    $d.14
        0x0001b8c2:    001a        ..      DCW    26
        0x0001b8c4:    001a001a    ....    DCD    1703962
        0x0001b8c8:    001a001a    ....    DCD    1703962
        0x0001b8cc:    001a001a    ....    DCD    1703962
        0x0001b8d0:    001a001a    ....    DCD    1703962
        0x0001b8d4:    001a001a    ....    DCD    1703962
        0x0001b8d8:    022b001a    ..+.    DCD    36372506
        0x0001b8dc:    0233022b    +.3.    DCD    36897323
        0x0001b8e0:    023b0233    3.;.    DCD    37421619
        0x0001b8e4:    0243023b    ;.C.    DCD    37945915
        0x0001b8e8:    001a0243    C...    DCD    1704515
        0x0001b8ec:    024b001a    ..K.    DCD    38469658
        0x0001b8f0:    0253024b    K.S.    DCD    38994507
        0x0001b8f4:    0253        S.      DCW    595
    $t.15
        0x0001b8f6:    2000        .       MOVS     r0,#0
        0x0001b8f8:    f2c40006    ....    MOVT     r0,#0x4006
        0x0001b8fc:    eb003007    ...0    ADD      r0,r0,r7,LSL #12
        0x0001b900:    6841        Ah      LDR      r1,[r0,#4]
        0x0001b902:    f021010f    !...    BIC      r1,r1,#0xf
        0x0001b906:    e238        8.      B        0x1bd7a ; am_hal_mspi_control + 2478
        0x0001b908:    2c00        .,      CMP      r4,#0
        0x0001b90a:    f43fad70    ?.p.    BEQ      0x1b3ee ; am_hal_mspi_control + 34
        0x0001b90e:    7820         x      LDRB     r0,[r4,#0]
        0x0001b910:    72a8        .r      STRB     r0,[r5,#0xa]
        0x0001b912:    4628        (F      MOV      r0,r5
        0x0001b914:    f003fdd2    ....    BL       mspi_device_configure ; 0x1f4bc
        0x0001b918:    e1a3        ..      B        0x1bc62 ; am_hal_mspi_control + 2198
        0x0001b91a:    2100        .!      MOVS     r1,#0
        0x0001b91c:    f2c40106    ....    MOVT     r1,#0x4006
        0x0001b920:    eb013107    ...1    ADD      r1,r1,r7,LSL #12
        0x0001b924:    7820         x      LDRB     r0,[r4,#0]
        0x0001b926:    f8d12084    ...     LDR      r2,[r1,#0x84]
        0x0001b92a:    2605        .&      MOVS     r6,#5
        0x0001b92c:    f3604215    `..B    BFI      r2,r0,#16,#6
        0x0001b930:    f8c12084    ...     STR      r2,[r1,#0x84]
        0x0001b934:    1e42        B.      SUBS     r2,r0,#1
        0x0001b936:    2a1f        .*      CMP      r2,#0x1f
        0x0001b938:    f63fad5c    ?.\.    BHI      0x1b3f4 ; am_hal_mspi_control + 40
        0x0001b93c:    2301        .#      MOVS     r3,#1
        0x0001b93e:    f64807ae    H...    MOV      r7,#0x88ae
        0x0001b942:    4093        .@      LSLS     r3,r3,r2
        0x0001b944:    f2c80780    ....    MOVT     r7,#0x8080
        0x0001b948:    423b        ;B      TST      r3,r7
        0x0001b94a:    f00081bf    ....    BEQ.W    0x1bccc ; am_hal_mspi_control + 2304
        0x0001b94e:    f8d13084    ...0    LDR      r3,[r1,#0x84]
        0x0001b952:    f0237380    #..s    BIC      r3,r3,#0x1000000
        0x0001b956:    f8c13084    ...0    STR      r3,[r1,#0x84]
        0x0001b95a:    f8d13084    ...0    LDR      r3,[r1,#0x84]
        0x0001b95e:    f4230300    #...    BIC      r3,r3,#0x800000
        0x0001b962:    f8c13084    ...0    STR      r3,[r1,#0x84]
        0x0001b966:    f8d13084    ...0    LDR      r3,[r1,#0x84]
        0x0001b96a:    f4230380    #...    BIC      r3,r3,#0x400000
        0x0001b96e:    f8c13084    ...0    STR      r3,[r1,#0x84]
        0x0001b972:    69ab        .i      LDR      r3,[r5,#0x18]
        0x0001b974:    b32b        +.      CBZ      r3,0x1b9c2 ; am_hal_mspi_control + 1526
        0x0001b976:    2320         #      MOVS     r3,#0x20
        0x0001b978:    2a1f        .*      CMP      r2,#0x1f
        0x0001b97a:    f04f0605    O...    MOV      r6,#5
        0x0001b97e:    f8c13114    ...1    STR      r3,[r1,#0x114]
        0x0001b982:    f63fad37    ?.7.    BHI      0x1b3f4 ; am_hal_mspi_control + 40
        0x0001b986:    2301        .#      MOVS     r3,#1
        0x0001b988:    fa03f202    ....    LSL      r2,r3,r2
        0x0001b98c:    f64803ac    H...    MOV      r3,#0x88ac
        0x0001b990:    f2c80380    ....    MOVT     r3,#0x8080
        0x0001b994:    421a        .B      TST      r2,r3
        0x0001b996:    f00081a1    ....    BEQ.W    0x1bcdc ; am_hal_mspi_control + 2320
        0x0001b99a:    2208        ."      MOVS     r2,#8
        0x0001b99c:    f8d13118    ...1    LDR      r3,[r1,#0x118]
        0x0001b9a0:    f023031f    #...    BIC      r3,r3,#0x1f
        0x0001b9a4:    441a        .D      ADD      r2,r2,r3
        0x0001b9a6:    f8c12118    ...!    STR      r2,[r1,#0x118]
        0x0001b9aa:    6a0a        .j      LDR      r2,[r1,#0x20]
        0x0001b9ac:    231e        .#      MOVS     r3,#0x1e
        0x0001b9ae:    f363220d    c.."    BFI      r2,r3,#8,#6
        0x0001b9b2:    620a        .b      STR      r2,[r1,#0x20]
        0x0001b9b4:    f8d12118    ...!    LDR      r2,[r1,#0x118]
        0x0001b9b8:    2308        .#      MOVS     r3,#8
        0x0001b9ba:    f363220c    c.."    BFI      r2,r3,#8,#5
        0x0001b9be:    f8c12118    ...!    STR      r2,[r1,#0x118]
        0x0001b9c2:    7328        (s      STRB     r0,[r5,#0xc]
        0x0001b9c4:    e14d        M.      B        0x1bc62 ; am_hal_mspi_control + 2198
        0x0001b9c6:    4628        (F      MOV      r0,r5
        0x0001b9c8:    b002        ..      ADD      sp,sp,#8
        0x0001b9ca:    e8bd47f0    ...G    POP      {r4-r10,lr}
        0x0001b9ce:    f003bd37    ..7.    B.W      mspi_cq_pause ; 0x1f440
        0x0001b9d2:    f89508c0    ....    LDRB     r0,[r5,#0x8c0]
        0x0001b9d6:    b918        ..      CBNZ     r0,0x1b9e0 ; am_hal_mspi_control + 1556
        0x0001b9d8:    2001        .       MOVS     r0,#1
        0x0001b9da:    2100        .!      MOVS     r1,#0
        0x0001b9dc:    f7fff8da    ....    BL       am_hal_daxi_control ; 0x1ab94
        0x0001b9e0:    2000        .       MOVS     r0,#0
        0x0001b9e2:    f2c40006    ....    MOVT     r0,#0x4006
        0x0001b9e6:    eb003007    ...0    ADD      r0,r0,r7,LSL #12
        0x0001b9ea:    2180        .!      MOVS     r1,#0x80
        0x0001b9ec:    f8c012b4    ....    STR      r1,[r0,#0x2b4]
        0x0001b9f0:    e137        7.      B        0x1bc62 ; am_hal_mspi_control + 2198
        0x0001b9f2:    2c00        .,      CMP      r4,#0
        0x0001b9f4:    f43facfb    ?...    BEQ      0x1b3ee ; am_hal_mspi_control + 34
        0x0001b9f8:    69a8        .i      LDR      r0,[r5,#0x18]
        0x0001b9fa:    2800        .(      CMP      r0,#0
        0x0001b9fc:    f00080ed    ....    BEQ.W    0x1bbda ; am_hal_mspi_control + 2062
        0x0001ba00:    7824        $x      LDRB     r4,[r4,#0]
        0x0001ba02:    f895082c    ..,.    LDRB     r0,[r5,#0x82c]
        0x0001ba06:    4284        .B      CMP      r4,r0
        0x0001ba08:    f000812b    ..+.    BEQ.W    0x1bc62 ; am_hal_mspi_control + 2198
        0x0001ba0c:    2802        .(      CMP      r0,#2
        0x0001ba0e:    f000816a    ..j.    BEQ.W    0x1bce6 ; am_hal_mspi_control + 2330
        0x0001ba12:    2800        .(      CMP      r0,#0
        0x0001ba14:    f040816e    @.n.    BNE.W    0x1bcf4 ; am_hal_mspi_control + 2344
        0x0001ba18:    6a28        (j      LDR      r0,[r5,#0x20]
        0x0001ba1a:    2800        .(      CMP      r0,#0
        0x0001ba1c:    f04080dd    @...    BNE.W    0x1bbda ; am_hal_mspi_control + 2062
        0x0001ba20:    e168        h.      B        0x1bcf4 ; am_hal_mspi_control + 2344
        0x0001ba22:    2c00        .,      CMP      r4,#0
        0x0001ba24:    f43face3    ?...    BEQ      0x1b3ee ; am_hal_mspi_control + 34
        0x0001ba28:    7920         y      LDRB     r0,[r4,#4]
        0x0001ba2a:    f0100fe0    ....    TST      r0,#0xe0
        0x0001ba2e:    f47facde    ....    BNE      0x1b3ee ; am_hal_mspi_control + 34
        0x0001ba32:    68a0        .h      LDR      r0,[r4,#8]
        0x0001ba34:    f24e01e0    N...    MOV      r1,#0xe0e0
        0x0001ba38:    f2c001e0    ....    MOVT     r1,#0xe0
        0x0001ba3c:    4208        .B      TST      r0,r1
        0x0001ba3e:    f47facd6    ....    BNE      0x1b3ee ; am_hal_mspi_control + 34
        0x0001ba42:    f895082c    ..,.    LDRB     r0,[r5,#0x82c]
        0x0001ba46:    2801        .(      CMP      r0,#1
        0x0001ba48:    f04080c7    @...    BNE.W    0x1bbda ; am_hal_mspi_control + 2062
        0x0001ba4c:    f8d50838    ..8.    LDR      r0,[r5,#0x838]
        0x0001ba50:    f2400900    @...    MOVW     r9,#0
        0x0001ba54:    f2c40906    ....    MOVT     r9,#0x4006
        0x0001ba58:    b170        p.      CBZ      r0,0x1ba78 ; am_hal_mspi_control + 1708
        0x0001ba5a:    f89508c0    ....    LDRB     r0,[r5,#0x8c0]
        0x0001ba5e:    2100        .!      MOVS     r1,#0
        0x0001ba60:    f8c51838    ..8.    STR      r1,[r5,#0x838]
        0x0001ba64:    b918        ..      CBNZ     r0,0x1ba6e ; am_hal_mspi_control + 1698
        0x0001ba66:    2001        .       MOVS     r0,#1
        0x0001ba68:    2100        .!      MOVS     r1,#0
        0x0001ba6a:    f7fff893    ....    BL       am_hal_daxi_control ; 0x1ab94
        0x0001ba6e:    eb093007    ...0    ADD      r0,r9,r7,LSL #12
        0x0001ba72:    2120         !      MOVS     r1,#0x20
        0x0001ba74:    f8c012b4    ....    STR      r1,[r0,#0x2b4]
        0x0001ba78:    7820         x      LDRB     r0,[r4,#0]
        0x0001ba7a:    b120         .      CBZ      r0,0x1ba86 ; am_hal_mspi_control + 1722
        0x0001ba7c:    f895082d    ..-.    LDRB     r0,[r5,#0x82d]
        0x0001ba80:    2800        .(      CMP      r0,#0
        0x0001ba82:    f00081dc    ....    BEQ.W    0x1be3e ; am_hal_mspi_control + 2674
        0x0001ba86:    f04f0800    O...    MOV      r8,#0
        0x0001ba8a:    f04f0a00    O...    MOV      r10,#0
        0x0001ba8e:    f8d50828    ..(.    LDR      r0,[r5,#0x828]
        0x0001ba92:    aa01        ..      ADD      r2,sp,#4
        0x0001ba94:    466b        kF      MOV      r3,sp
        0x0001ba96:    2103        .!      MOVS     r1,#3
        0x0001ba98:    f7fefe20    .. .    BL       am_hal_cmdq_alloc_block ; 0x1a6dc
        0x0001ba9c:    4606        .F      MOV      r6,r0
        0x0001ba9e:    2800        .(      CMP      r0,#0
        0x0001baa0:    f47faca8    ....    BNE      0x1b3f4 ; am_hal_mspi_control + 40
        0x0001baa4:    9801        ..      LDR      r0,[sp,#4]
        0x0001baa6:    eb093107    ...1    ADD      r1,r9,r7,LSL #12
        0x0001baaa:    f501722e    ...r    ADD      r2,r1,#0x2b8
        0x0001baae:    f501712d    ..-q    ADD      r1,r1,#0x2b4
        0x0001bab2:    6082        .`      STR      r2,[r0,#8]
        0x0001bab4:    6002        .`      STR      r2,[r0,#0]
        0x0001bab6:    6101        .a      STR      r1,[r0,#0x10]
        0x0001bab8:    f8d52838    ..8(    LDR      r2,[r5,#0x838]
        0x0001babc:    f44f4180    O..A    MOV      r1,#0x4000
        0x0001bac0:    2a02        .*      CMP      r2,#2
        0x0001bac2:    f00081ec    ....    BEQ.W    0x1be9e ; am_hal_mspi_control + 2770
        0x0001bac6:    6863        ch      LDR      r3,[r4,#4]
        0x0001bac8:    2a01        .*      CMP      r2,#1
        0x0001baca:    ea43020a    C...    ORR      r2,r3,r10
        0x0001bace:    f04081e9    @...    BNE.W    0x1bea4 ; am_hal_mspi_control + 2776
        0x0001bad2:    f24403a0    D...    MOV      r3,#0x40a0
        0x0001bad6:    431a        .C      ORRS     r2,r2,r3
        0x0001bad8:    2302        .#      MOVS     r3,#2
        0x0001bada:    f8c53838    ..88    STR      r3,[r5,#0x838]
        0x0001bade:    e1e3        ..      B        0x1bea8 ; am_hal_mspi_control + 2780
        0x0001bae0:    2c00        .,      CMP      r4,#0
        0x0001bae2:    f43fac84    ?...    BEQ      0x1b3ee ; am_hal_mspi_control + 34
        0x0001bae6:    f8d50854    ..T.    LDR      r0,[r5,#0x854]
        0x0001baea:    2800        .(      CMP      r0,#0
        0x0001baec:    d175        u.      BNE      0x1bbda ; am_hal_mspi_control + 2062
        0x0001baee:    2600        .&      MOVS     r6,#0
        0x0001baf0:    2001        .       MOVS     r0,#1
        0x0001baf2:    f8c56850    ..Ph    STR      r6,[r5,#0x850]
        0x0001baf6:    f8c56840    ..@h    STR      r6,[r5,#0x840]
        0x0001bafa:    f8c5084c    ..L.    STR      r0,[r5,#0x84c]
        0x0001bafe:    6860        `h      LDR      r0,[r4,#4]
        0x0001bb00:    f64a21ab    J..!    MOV      r1,#0xaaab
        0x0001bb04:    f6ca21aa    ...!    MOVT     r1,#0xaaaa
        0x0001bb08:    fba00101    ....    UMULL    r0,r1,r0,r1
        0x0001bb0c:    6820         h      LDR      r0,[r4,#0]
        0x0001bb0e:    f8c50854    ..T.    STR      r0,[r5,#0x854]
        0x0001bb12:    0908        ..      LSRS     r0,r1,#4
        0x0001bb14:    f8c50848    ..H.    STR      r0,[r5,#0x848]
        0x0001bb18:    f7ffbc6c    ..l.    B.W      0x1b3f4 ; am_hal_mspi_control + 40
        0x0001bb1c:    2000        .       MOVS     r0,#0
        0x0001bb1e:    f2c40006    ....    MOVT     r0,#0x4006
        0x0001bb22:    eb003007    ...0    ADD      r0,r0,r7,LSL #12
        0x0001bb26:    f44f1100    O...    MOV      r1,#0x200000
        0x0001bb2a:    f8c012b4    ....    STR      r1,[r0,#0x2b4]
        0x0001bb2e:    2001        .       MOVS     r0,#1
        0x0001bb30:    2600        .&      MOVS     r6,#0
        0x0001bb32:    f8c50838    ..8.    STR      r0,[r5,#0x838]
        0x0001bb36:    f8c56844    ..Dh    STR      r6,[r5,#0x844]
        0x0001bb3a:    f7ffbc5b    ..[.    B.W      0x1b3f4 ; am_hal_mspi_control + 40
        0x0001bb3e:    f89508c0    ....    LDRB     r0,[r5,#0x8c0]
        0x0001bb42:    b918        ..      CBNZ     r0,0x1bb4c ; am_hal_mspi_control + 1920
        0x0001bb44:    2001        .       MOVS     r0,#1
        0x0001bb46:    2100        .!      MOVS     r1,#0
        0x0001bb48:    f7fff824    ..$.    BL       am_hal_daxi_control ; 0x1ab94
        0x0001bb4c:    2000        .       MOVS     r0,#0
        0x0001bb4e:    f2c40006    ....    MOVT     r0,#0x4006
        0x0001bb52:    eb003007    ...0    ADD      r0,r0,r7,LSL #12
        0x0001bb56:    2120         !      MOVS     r1,#0x20
        0x0001bb58:    f8c012b4    ....    STR      r1,[r0,#0x2b4]
        0x0001bb5c:    f8d50844    ..D.    LDR      r0,[r5,#0x844]
        0x0001bb60:    2600        .&      MOVS     r6,#0
        0x0001bb62:    2800        .(      CMP      r0,#0
        0x0001bb64:    f8c56838    ..8h    STR      r6,[r5,#0x838]
        0x0001bb68:    f47fac44    ..D.    BNE      0x1b3f4 ; am_hal_mspi_control + 40
        0x0001bb6c:    4628        (F      MOV      r0,r5
        0x0001bb6e:    2100        .!      MOVS     r1,#0
        0x0001bb70:    2400        .$      MOVS     r4,#0
        0x0001bb72:    f004f89d    ....    BL       sched_hiprio ; 0x1fcb0
        0x0001bb76:    4606        .F      MOV      r6,r0
        0x0001bb78:    2800        .(      CMP      r0,#0
        0x0001bb7a:    f47fac3b    ..;.    BNE      0x1b3f4 ; am_hal_mspi_control + 40
        0x0001bb7e:    f8c54844    ..DH    STR      r4,[r5,#0x844]
        0x0001bb82:    e06e        n.      B        0x1bc62 ; am_hal_mspi_control + 2198
        0x0001bb84:    2c00        .,      CMP      r4,#0
        0x0001bb86:    f43fac32    ?.2.    BEQ      0x1b3ee ; am_hal_mspi_control + 34
        0x0001bb8a:    f8d50828    ..(.    LDR      r0,[r5,#0x828]
        0x0001bb8e:    b320         .      CBZ      r0,0x1bbda ; am_hal_mspi_control + 2062
        0x0001bb90:    6a29        )j      LDR      r1,[r5,#0x20]
        0x0001bb92:    f5b17f80    ....    CMP      r1,#0x100
        0x0001bb96:    d074        t.      BEQ      0x1bc82 ; am_hal_mspi_control + 2230
        0x0001bb98:    68e1        .h      LDR      r1,[r4,#0xc]
        0x0001bb9a:    aa01        ..      ADD      r2,sp,#4
        0x0001bb9c:    3103        .1      ADDS     r1,#3
        0x0001bb9e:    466b        kF      MOV      r3,sp
        0x0001bba0:    f7fefd9c    ....    BL       am_hal_cmdq_alloc_block ; 0x1a6dc
        0x0001bba4:    2800        .(      CMP      r0,#0
        0x0001bba6:    d16c        l.      BNE      0x1bc82 ; am_hal_mspi_control + 2230
        0x0001bba8:    2000        .       MOVS     r0,#0
        0x0001bbaa:    f2c40006    ....    MOVT     r0,#0x4006
        0x0001bbae:    eb003007    ...0    ADD      r0,r0,r7,LSL #12
        0x0001bbb2:    9a01        ..      LDR      r2,[sp,#4]
        0x0001bbb4:    f500712e    ...q    ADD      r1,r0,#0x2b8
        0x0001bbb8:    6011        .`      STR      r1,[r2,#0]
        0x0001bbba:    f8d57838    ..8x    LDR      r7,[r5,#0x838]
        0x0001bbbe:    2f02        ./      CMP      r7,#2
        0x0001bbc0:    f00080dd    ....    BEQ.W    0x1bd7e ; am_hal_mspi_control + 2482
        0x0001bbc4:    6823        #h      LDR      r3,[r4,#0]
        0x0001bbc6:    2f01        ./      CMP      r7,#1
        0x0001bbc8:    f04080dc    @...    BNE.W    0x1bd84 ; am_hal_mspi_control + 2488
        0x0001bbcc:    f24407a0    D...    MOV      r7,#0x40a0
        0x0001bbd0:    433b        ;C      ORRS     r3,r3,r7
        0x0001bbd2:    2702        .'      MOVS     r7,#2
        0x0001bbd4:    f8c57838    ..8x    STR      r7,[r5,#0x838]
        0x0001bbd8:    e0d6        ..      B        0x1bd88 ; am_hal_mspi_control + 2492
        0x0001bbda:    2607        .&      MOVS     r6,#7
        0x0001bbdc:    f7ffbc0a    ....    B.W      0x1b3f4 ; am_hal_mspi_control + 40
        0x0001bbe0:    2c00        .,      CMP      r4,#0
        0x0001bbe2:    f43fac04    ?...    BEQ      0x1b3ee ; am_hal_mspi_control + 34
        0x0001bbe6:    7820         x      LDRB     r0,[r4,#0]
        0x0001bbe8:    2803        .(      CMP      r0,#3
        0x0001bbea:    f63fac00    ?...    BHI      0x1b3ee ; am_hal_mspi_control + 34
        0x0001bbee:    7860        `x      LDRB     r0,[r4,#1]
        0x0001bbf0:    2801        .(      CMP      r0,#1
        0x0001bbf2:    f63fabfc    ?...    BHI      0x1b3ee ; am_hal_mspi_control + 34
        0x0001bbf6:    2100        .!      MOVS     r1,#0
        0x0001bbf8:    f2c40106    ....    MOVT     r1,#0x4006
        0x0001bbfc:    eb013107    ...1    ADD      r1,r1,r7,LSL #12
        0x0001bc00:    f8d12084    ...     LDR      r2,[r1,#0x84]
        0x0001bc04:    f0220280    "...    BIC      r2,r2,#0x80
        0x0001bc08:    ea4210c0    B...    ORR      r0,r2,r0,LSL #7
        0x0001bc0c:    f8c10084    ....    STR      r0,[r1,#0x84]
        0x0001bc10:    7820         x      LDRB     r0,[r4,#0]
        0x0001bc12:    f8d12084    ...     LDR      r2,[r1,#0x84]
        0x0001bc16:    f3601246    `.F.    BFI      r2,r0,#5,#2
        0x0001bc1a:    f8c12084    ...     STR      r2,[r1,#0x84]
        0x0001bc1e:    e020         .      B        0x1bc62 ; am_hal_mspi_control + 2198
        0x0001bc20:    2c00        .,      CMP      r4,#0
        0x0001bc22:    f43fabe4    ?...    BEQ      0x1b3ee ; am_hal_mspi_control + 34
        0x0001bc26:    2000        .       MOVS     r0,#0
        0x0001bc28:    f2c40006    ....    MOVT     r0,#0x4006
        0x0001bc2c:    eb003007    ...0    ADD      r0,r0,r7,LSL #12
        0x0001bc30:    7a61        az      LDRB     r1,[r4,#9]
        0x0001bc32:    f8d02084    ...     LDR      r2,[r0,#0x84]
        0x0001bc36:    f022427c    ".|B    BIC      r2,r2,#0xfc000000
        0x0001bc3a:    ea426181    B..a    ORR      r1,r2,r1,LSL #26
        0x0001bc3e:    f8c01084    ....    STR      r1,[r0,#0x84]
        0x0001bc42:    f8d01090    ....    LDR      r1,[r0,#0x90]
        0x0001bc46:    2205        ."      MOVS     r2,#5
        0x0001bc48:    f362210b    b..!    BFI      r1,r2,#8,#4
        0x0001bc4c:    f8c01090    ....    STR      r1,[r0,#0x90]
        0x0001bc50:    7b21        !{      LDRB     r1,[r4,#0xc]
        0x0001bc52:    f8d02090    ...     LDR      r2,[r0,#0x90]
        0x0001bc56:    f4225200    "..R    BIC      r2,r2,#0x2000
        0x0001bc5a:    ea423141    B.A1    ORR      r1,r2,r1,LSL #13
        0x0001bc5e:    f8c01090    ....    STR      r1,[r0,#0x90]
        0x0001bc62:    2600        .&      MOVS     r6,#0
        0x0001bc64:    f7ffbbc6    ....    B        0x1b3f4 ; am_hal_mspi_control + 40
        0x0001bc68:    68a0        .h      LDR      r0,[r4,#8]
        0x0001bc6a:    f000417c    ..|A    AND      r1,r0,#0xfc000000
        0x0001bc6e:    f1b15fa0    ..._    CMP      r1,#0x14000000
        0x0001bc72:    d106        ..      BNE      0x1bc82 ; am_hal_mspi_control + 2230
        0x0001bc74:    e009        ..      B        0x1bc8a ; am_hal_mspi_control + 2238
        0x0001bc76:    68a0        .h      LDR      r0,[r4,#8]
        0x0001bc78:    f000417c    ..|A    AND      r1,r0,#0xfc000000
        0x0001bc7c:    f1b15fc0    ..._    CMP      r1,#0x18000000
        0x0001bc80:    d003        ..      BEQ      0x1bc8a ; am_hal_mspi_control + 2238
        0x0001bc82:    2605        .&      MOVS     r6,#5
        0x0001bc84:    f7ffbbb6    ....    B        0x1b3f4 ; am_hal_mspi_control + 40
        0x0001bc88:    68a0        .h      LDR      r0,[r4,#8]
        0x0001bc8a:    2600        .&      MOVS     r6,#0
        0x0001bc8c:    2100        .!      MOVS     r1,#0
        0x0001bc8e:    f2c40606    ....    MOVT     r6,#0x4006
        0x0001bc92:    f2c031ff    ...1    MOVT     r1,#0x3ff
        0x0001bc96:    eb063707    ...7    ADD      r7,r6,r7,LSL #12
        0x0001bc9a:    4008        .@      ANDS     r0,r0,r1
        0x0001bc9c:    7b21        !{      LDRB     r1,[r4,#0xc]
        0x0001bc9e:    7b62        b{      LDRB     r2,[r4,#0xd]
        0x0001bca0:    8863        c.      LDRH     r3,[r4,#2]
        0x0001bca2:    f8d7609c    ...`    LDR      r6,[r7,#0x9c]
        0x0001bca6:    f3611004    a...    BFI      r0,r1,#4,#1
        0x0001bcaa:    f3630609    c...    BFI      r6,r3,#0,#10
        0x0001bcae:    f8c7609c    ...`    STR      r6,[r7,#0x9c]
        0x0001bcb2:    f002010f    ....    AND      r1,r2,#0xf
        0x0001bcb6:    88e2        ..      LDRH     r2,[r4,#6]
        0x0001bcb8:    f8d7309c    ...0    LDR      r3,[r7,#0x9c]
        0x0001bcbc:    4408        .D      ADD      r0,r0,r1
        0x0001bcbe:    f3624319    b..C    BFI      r3,r2,#16,#10
        0x0001bcc2:    f8c7309c    ...0    STR      r3,[r7,#0x9c]
        0x0001bcc6:    f8c70080    ....    STR      r0,[r7,#0x80]
        0x0001bcca:    e7ca        ..      B        0x1bc62 ; am_hal_mspi_control + 2198
        0x0001bccc:    2a00        .*      CMP      r2,#0
        0x0001bcce:    f47fab91    ....    BNE      0x1b3f4 ; am_hal_mspi_control + 40
        0x0001bcd2:    f8d13084    ...0    LDR      r3,[r1,#0x84]
        0x0001bcd6:    f0437380    C..s    ORR      r3,r3,#0x1000000
        0x0001bcda:    e63c        <.      B        0x1b956 ; am_hal_mspi_control + 1418
        0x0001bcdc:    0792        ..      LSLS     r2,r2,#30
        0x0001bcde:    f43fab89    ?...    BEQ      0x1b3f4 ; am_hal_mspi_control + 40
        0x0001bce2:    220c        ."      MOVS     r2,#0xc
        0x0001bce4:    e65a        Z.      B        0x1b99c ; am_hal_mspi_control + 1488
        0x0001bce6:    4628        (F      MOV      r0,r5
        0x0001bce8:    f003fbaa    ....    BL       mspi_cq_pause ; 0x1f440
        0x0001bcec:    4606        .F      MOV      r6,r0
        0x0001bcee:    2800        .(      CMP      r0,#0
        0x0001bcf0:    f47fab80    ....    BNE      0x1b3f4 ; am_hal_mspi_control + 40
        0x0001bcf4:    f8d50828    ..(.    LDR      r0,[r5,#0x828]
        0x0001bcf8:    f7fefec1    ....    BL       am_hal_cmdq_reset ; 0x1aa7e
        0x0001bcfc:    2600        .&      MOVS     r6,#0
        0x0001bcfe:    2001        .       MOVS     r0,#1
        0x0001bd00:    f8c56830    ..0h    STR      r6,[r5,#0x830]
        0x0001bd04:    e9c56607    ...f    STRD     r6,r6,[r5,#0x1c]
        0x0001bd08:    f885482c    ..,H    STRB     r4,[r5,#0x82c]
        0x0001bd0c:    f885082d    ..-.    STRB     r0,[r5,#0x82d]
        0x0001bd10:    f8c5685c    ..\h    STR      r6,[r5,#0x85c]
        0x0001bd14:    f7ffbb6e    ..n.    B        0x1b3f4 ; am_hal_mspi_control + 40
        0x0001bd18:    2000        .       MOVS     r0,#0
        0x0001bd1a:    f2c40006    ....    MOVT     r0,#0x4006
        0x0001bd1e:    eb003007    ...0    ADD      r0,r0,r7,LSL #12
        0x0001bd22:    6841        Ah      LDR      r1,[r0,#4]
        0x0001bd24:    2201        ."      MOVS     r2,#1
        0x0001bd26:    e026        &.      B        0x1bd76 ; am_hal_mspi_control + 2474
        0x0001bd28:    2000        .       MOVS     r0,#0
        0x0001bd2a:    f2c40006    ....    MOVT     r0,#0x4006
        0x0001bd2e:    eb003007    ...0    ADD      r0,r0,r7,LSL #12
        0x0001bd32:    6841        Ah      LDR      r1,[r0,#4]
        0x0001bd34:    2203        ."      MOVS     r2,#3
        0x0001bd36:    e01e        ..      B        0x1bd76 ; am_hal_mspi_control + 2474
        0x0001bd38:    2000        .       MOVS     r0,#0
        0x0001bd3a:    f2c40006    ....    MOVT     r0,#0x4006
        0x0001bd3e:    eb003007    ...0    ADD      r0,r0,r7,LSL #12
        0x0001bd42:    6841        Ah      LDR      r1,[r0,#4]
        0x0001bd44:    2205        ."      MOVS     r2,#5
        0x0001bd46:    e016        ..      B        0x1bd76 ; am_hal_mspi_control + 2474
        0x0001bd48:    2000        .       MOVS     r0,#0
        0x0001bd4a:    f2c40006    ....    MOVT     r0,#0x4006
        0x0001bd4e:    eb003007    ...0    ADD      r0,r0,r7,LSL #12
        0x0001bd52:    6841        Ah      LDR      r1,[r0,#4]
        0x0001bd54:    2207        ."      MOVS     r2,#7
        0x0001bd56:    e00e        ..      B        0x1bd76 ; am_hal_mspi_control + 2474
        0x0001bd58:    2000        .       MOVS     r0,#0
        0x0001bd5a:    f2c40006    ....    MOVT     r0,#0x4006
        0x0001bd5e:    eb003007    ...0    ADD      r0,r0,r7,LSL #12
        0x0001bd62:    6841        Ah      LDR      r1,[r0,#4]
        0x0001bd64:    2209        ."      MOVS     r2,#9
        0x0001bd66:    e006        ..      B        0x1bd76 ; am_hal_mspi_control + 2474
        0x0001bd68:    2000        .       MOVS     r0,#0
        0x0001bd6a:    f2c40006    ....    MOVT     r0,#0x4006
        0x0001bd6e:    eb003007    ...0    ADD      r0,r0,r7,LSL #12
        0x0001bd72:    6841        Ah      LDR      r1,[r0,#4]
        0x0001bd74:    220b        ."      MOVS     r2,#0xb
        0x0001bd76:    f3620103    b...    BFI      r1,r2,#0,#4
        0x0001bd7a:    6041        A`      STR      r1,[r0,#4]
        0x0001bd7c:    e771        q.      B        0x1bc62 ; am_hal_mspi_control + 2198
        0x0001bd7e:    f44f4380    O..C    MOV      r3,#0x4000
        0x0001bd82:    e001        ..      B        0x1bd88 ; am_hal_mspi_control + 2492
        0x0001bd84:    f4434381    C..C    ORR      r3,r3,#0x4080
        0x0001bd88:    6053        S`      STR      r3,[r2,#4]
        0x0001bd8a:    68e7        .h      LDR      r7,[r4,#0xc]
        0x0001bd8c:    f1020308    ....    ADD      r3,r2,#8
        0x0001bd90:    b177        w.      CBZ      r7,0x1bdb0 ; am_hal_mspi_control + 2532
        0x0001bd92:    68a2        .h      LDR      r2,[r4,#8]
        0x0001bd94:    3204        .2      ADDS     r2,#4
        0x0001bd96:    f8526c04    R..l    LDR      r6,[r2,#-4]
        0x0001bd9a:    3f01        .?      SUBS     r7,#1
        0x0001bd9c:    601e        .`      STR      r6,[r3,#0]
        0x0001bd9e:    6816        .h      LDR      r6,[r2,#0]
        0x0001bda0:    f1020208    ....    ADD      r2,r2,#8
        0x0001bda4:    605e        ^`      STR      r6,[r3,#4]
        0x0001bda6:    f1030308    ....    ADD      r3,r3,#8
        0x0001bdaa:    d1f4        ..      BNE      0x1bd96 ; am_hal_mspi_control + 2506
        0x0001bdac:    f1a30208    ....    SUB      r2,r3,#8
        0x0001bdb0:    69a7        .i      LDR      r7,[r4,#0x18]
        0x0001bdb2:    b107        ..      CBZ      r7,0x1bdb6 ; am_hal_mspi_control + 2538
        0x0001bdb4:    603b        ;`      STR      r3,[r7,#0]
        0x0001bdb6:    f500702d    ..-p    ADD      r0,r0,#0x2b4
        0x0001bdba:    6019        .`      STR      r1,[r3,#0]
        0x0001bdbc:    f8420f10    B...    STR      r0,[r2,#0x10]!
        0x0001bdc0:    f44f4080    O..@    MOV      r0,#0x4000
        0x0001bdc4:    f8420c04    B...    STR      r0,[r2,#-4]
        0x0001bdc8:    6926        &i      LDR      r6,[r4,#0x10]
        0x0001bdca:    6860        `h      LDR      r0,[r4,#4]
        0x0001bdcc:    9201        ..      STR      r2,[sp,#4]
        0x0001bdce:    6050        P`      STR      r0,[r2,#4]
        0x0001bdd0:    b946        F.      CBNZ     r6,0x1bde4 ; am_hal_mspi_control + 2584
        0x0001bdd2:    f8d50838    ..8.    LDR      r0,[r5,#0x838]
        0x0001bdd6:    b920         .      CBNZ     r0,0x1bde2 ; am_hal_mspi_control + 2582
        0x0001bdd8:    f895082c    ..,.    LDRB     r0,[r5,#0x82c]
        0x0001bddc:    2800        .(      CMP      r0,#0
        0x0001bdde:    f000809a    ....    BEQ.W    0x1bf16 ; am_hal_mspi_control + 2890
        0x0001bde2:    2600        .&      MOVS     r6,#0
        0x0001bde4:    f89d0000    ....    LDRB     r0,[sp,#0]
        0x0001bde8:    eb050080    ....    ADD      r0,r5,r0,LSL #2
        0x0001bdec:    6286        .b      STR      r6,[r0,#0x28]
        0x0001bdee:    6961        ai      LDR      r1,[r4,#0x14]
        0x0001bdf0:    f8c01428    ..(.    STR      r1,[r0,#0x428]
        0x0001bdf4:    f7fff91e    ....    BL       am_hal_interrupt_master_disable ; 0x1b034
        0x0001bdf8:    4680        .F      MOV      r8,r0
        0x0001bdfa:    f8d50828    ..(.    LDR      r0,[r5,#0x828]
        0x0001bdfe:    4631        1F      MOV      r1,r6
        0x0001be00:    2e00        ..      CMP      r6,#0
        0x0001be02:    bf18        ..      IT       NE
        0x0001be04:    2101        .!      MOVNE    r1,#1
        0x0001be06:    f7fefdbc    ....    BL       am_hal_cmdq_post_block ; 0x1a982
        0x0001be0a:    4607        .F      MOV      r7,r0
        0x0001be0c:    b138        8.      CBZ      r0,0x1be1e ; am_hal_mspi_control + 2642
        0x0001be0e:    4640        @F      MOV      r0,r8
        0x0001be10:    f7fff918    ....    BL       am_hal_interrupt_master_set ; 0x1b044
        0x0001be14:    f8d50828    ..(.    LDR      r0,[r5,#0x828]
        0x0001be18:    f7fefe19    ....    BL       am_hal_cmdq_release_block ; 0x1aa4e
        0x0001be1c:    e093        ..      B        0x1bf46 ; am_hal_mspi_control + 2938
        0x0001be1e:    f8d59020    .. .    LDR      r9,[r5,#0x20]
        0x0001be22:    f8d51830    ..0.    LDR      r1,[r5,#0x830]
        0x0001be26:    f1090001    ....    ADD      r0,r9,#1
        0x0001be2a:    6228        (b      STR      r0,[r5,#0x20]
        0x0001be2c:    1c48        H.      ADDS     r0,r1,#1
        0x0001be2e:    f8c50830    ..0.    STR      r0,[r5,#0x830]
        0x0001be32:    6920         i      LDR      r0,[r4,#0x10]
        0x0001be34:    b378        x.      CBZ      r0,0x1be96 ; am_hal_mspi_control + 2762
        0x0001be36:    2000        .       MOVS     r0,#0
        0x0001be38:    f885082d    ..-.    STRB     r0,[r5,#0x82d]
        0x0001be3c:    e07b        {.      B        0x1bf36 ; am_hal_mspi_control + 2922
        0x0001be3e:    f8d50828    ..(.    LDR      r0,[r5,#0x828]
        0x0001be42:    aa01        ..      ADD      r2,sp,#4
        0x0001be44:    466b        kF      MOV      r3,sp
        0x0001be46:    2101        .!      MOVS     r1,#1
        0x0001be48:    f7fefc48    ..H.    BL       am_hal_cmdq_alloc_block ; 0x1a6dc
        0x0001be4c:    4606        .F      MOV      r6,r0
        0x0001be4e:    2800        .(      CMP      r0,#0
        0x0001be50:    f47faad0    ....    BNE      0x1b3f4 ; am_hal_mspi_control + 40
        0x0001be54:    f89d0000    ....    LDRB     r0,[sp,#0]
        0x0001be58:    f64f214d    O.M!    MOV      r1,#0xfa4d
        0x0001be5c:    f2c00101    ....    MOVT     r1,#1
        0x0001be60:    eb050080    ....    ADD      r0,r5,r0,LSL #2
        0x0001be64:    6281        .b      STR      r1,[r0,#0x28]
        0x0001be66:    f8c05428    ..(T    STR      r5,[r0,#0x428]
        0x0001be6a:    eb093007    ...0    ADD      r0,r9,r7,LSL #12
        0x0001be6e:    9901        ..      LDR      r1,[sp,#4]
        0x0001be70:    f500702d    ..-p    ADD      r0,r0,#0x2b4
        0x0001be74:    2200        ."      MOVS     r2,#0
        0x0001be76:    e9c10200    ....    STRD     r0,r2,[r1,#0]
        0x0001be7a:    f7fff8db    ....    BL       am_hal_interrupt_master_disable ; 0x1b034
        0x0001be7e:    f8d51828    ..(.    LDR      r1,[r5,#0x828]
        0x0001be82:    4680        .F      MOV      r8,r0
        0x0001be84:    4608        .F      MOV      r0,r1
        0x0001be86:    2101        .!      MOVS     r1,#1
        0x0001be88:    f7fefd7b    ..{.    BL       am_hal_cmdq_post_block ; 0x1a982
        0x0001be8c:    2800        .(      CMP      r0,#0
        0x0001be8e:    d067        g.      BEQ      0x1bf60 ; am_hal_mspi_control + 2964
        0x0001be90:    4606        .F      MOV      r6,r0
        0x0001be92:    4640        @F      MOV      r0,r8
        0x0001be94:    e020         .      B        0x1bed8 ; am_hal_mspi_control + 2828
        0x0001be96:    2e00        ..      CMP      r6,#0
        0x0001be98:    d04a        J.      BEQ      0x1bf30 ; am_hal_mspi_control + 2916
        0x0001be9a:    2000        .       MOVS     r0,#0
        0x0001be9c:    e04b        K.      B        0x1bf36 ; am_hal_mspi_control + 2922
        0x0001be9e:    f44f4280    O..B    MOV      r2,#0x4000
        0x0001bea2:    e001        ..      B        0x1bea8 ; am_hal_mspi_control + 2780
        0x0001bea4:    f4424281    B..B    ORR      r2,r2,#0x4080
        0x0001bea8:    6042        B`      STR      r2,[r0,#4]
        0x0001beaa:    60c1        .`      STR      r1,[r0,#0xc]
        0x0001beac:    68a1        .h      LDR      r1,[r4,#8]
        0x0001beae:    ea410108    A...    ORR      r1,r1,r8
        0x0001beb2:    6141        Aa      STR      r1,[r0,#0x14]
        0x0001beb4:    f7fff8be    ....    BL       am_hal_interrupt_master_disable ; 0x1b034
        0x0001beb8:    7822        "x      LDRB     r2,[r4,#0]
        0x0001beba:    f8d51828    ..(.    LDR      r1,[r5,#0x828]
        0x0001bebe:    4607        .F      MOV      r7,r0
        0x0001bec0:    4608        .F      MOV      r0,r1
        0x0001bec2:    f04f0100    O...    MOV      r1,#0
        0x0001bec6:    b112        ..      CBZ      r2,0x1bece ; am_hal_mspi_control + 2818
        0x0001bec8:    f7fefd8e    ....    BL       am_hal_cmdq_post_loop_block ; 0x1a9e8
        0x0001becc:    e001        ..      B        0x1bed2 ; am_hal_mspi_control + 2822
        0x0001bece:    f7fefd58    ..X.    BL       am_hal_cmdq_post_block ; 0x1a982
        0x0001bed2:    4606        .F      MOV      r6,r0
        0x0001bed4:    b140        @.      CBZ      r0,0x1bee8 ; am_hal_mspi_control + 2844
        0x0001bed6:    4638        8F      MOV      r0,r7
        0x0001bed8:    f7fff8b4    ....    BL       am_hal_interrupt_master_set ; 0x1b044
        0x0001bedc:    f8d50828    ..(.    LDR      r0,[r5,#0x828]
        0x0001bee0:    f7fefdb5    ....    BL       am_hal_cmdq_release_block ; 0x1aa4e
        0x0001bee4:    f7ffba86    ....    B        0x1b3f4 ; am_hal_mspi_control + 40
        0x0001bee8:    6a2e        .j      LDR      r6,[r5,#0x20]
        0x0001beea:    1c70        p.      ADDS     r0,r6,#1
        0x0001beec:    6228        (b      STR      r0,[r5,#0x20]
        0x0001beee:    7820         x      LDRB     r0,[r4,#0]
        0x0001bef0:    0040        @.      LSLS     r0,r0,#1
        0x0001bef2:    f885082c    ..,.    STRB     r0,[r5,#0x82c]
        0x0001bef6:    4638        8F      MOV      r0,r7
        0x0001bef8:    f7fff8a4    ....    BL       am_hal_interrupt_master_set ; 0x1b044
        0x0001befc:    2e00        ..      CMP      r6,#0
        0x0001befe:    f47faeb0    ....    BNE      0x1bc62 ; am_hal_mspi_control + 2198
        0x0001bf02:    f8d50828    ..(.    LDR      r0,[r5,#0x828]
        0x0001bf06:    f7fefc50    ..P.    BL       am_hal_cmdq_enable ; 0x1a7aa
        0x0001bf0a:    4606        .F      MOV      r6,r0
        0x0001bf0c:    2800        .(      CMP      r0,#0
        0x0001bf0e:    bf08        ..      IT       EQ
        0x0001bf10:    2600        .&      MOVEQ    r6,#0
        0x0001bf12:    f7ffba6f    ..o.    B        0x1b3f4 ; am_hal_mspi_control + 40
        0x0001bf16:    f8d50858    ..X.    LDR      r0,[r5,#0x858]
        0x0001bf1a:    f8d5185c    ..\.    LDR      r1,[r5,#0x85c]
        0x0001bf1e:    f24f76ff    O..v    MOV      r6,#0xf7ff
        0x0001bf22:    f2c00601    ....    MOVT     r6,#1
        0x0001bf26:    ebb10f50    ..P.    CMP      r1,r0,LSR #1
        0x0001bf2a:    bf38        8.      IT       CC
        0x0001bf2c:    2600        .&      MOVCC    r6,#0
        0x0001bf2e:    e759        Y.      B        0x1bde4 ; am_hal_mspi_control + 2584
        0x0001bf30:    f8d5085c    ..\.    LDR      r0,[r5,#0x85c]
        0x0001bf34:    3001        .0      ADDS     r0,#1
        0x0001bf36:    f8c5085c    ..\.    STR      r0,[r5,#0x85c]
        0x0001bf3a:    4640        @F      MOV      r0,r8
        0x0001bf3c:    f7fff882    ....    BL       am_hal_interrupt_master_set ; 0x1b044
        0x0001bf40:    f1b90f00    ....    CMP      r9,#0
        0x0001bf44:    d002        ..      BEQ      0x1bf4c ; am_hal_mspi_control + 2944
        0x0001bf46:    463e        >F      MOV      r6,r7
        0x0001bf48:    f7ffba54    ..T.    B        0x1b3f4 ; am_hal_mspi_control + 40
        0x0001bf4c:    f8d50828    ..(.    LDR      r0,[r5,#0x828]
        0x0001bf50:    f7fefc2b    ..+.    BL       am_hal_cmdq_enable ; 0x1a7aa
        0x0001bf54:    4606        .F      MOV      r6,r0
        0x0001bf56:    2800        .(      CMP      r0,#0
        0x0001bf58:    bf08        ..      IT       EQ
        0x0001bf5a:    463e        >F      MOVEQ    r6,r7
        0x0001bf5c:    f7ffba4a    ..J.    B        0x1b3f4 ; am_hal_mspi_control + 40
        0x0001bf60:    6a2e        .j      LDR      r6,[r5,#0x20]
        0x0001bf62:    1c70        p.      ADDS     r0,r6,#1
        0x0001bf64:    6228        (b      STR      r0,[r5,#0x20]
        0x0001bf66:    4640        @F      MOV      r0,r8
        0x0001bf68:    f7fff86c    ..l.    BL       am_hal_interrupt_master_set ; 0x1b044
        0x0001bf6c:    b93e        >.      CBNZ     r6,0x1bf7e ; am_hal_mspi_control + 2994
        0x0001bf6e:    f8d50828    ..(.    LDR      r0,[r5,#0x828]
        0x0001bf72:    f7fefc1a    ....    BL       am_hal_cmdq_enable ; 0x1a7aa
        0x0001bf76:    4606        .F      MOV      r6,r0
        0x0001bf78:    2800        .(      CMP      r0,#0
        0x0001bf7a:    f47faa3b    ..;.    BNE      0x1b3f4 ; am_hal_mspi_control + 40
        0x0001bf7e:    f04f0a40    O.@.    MOV      r10,#0x40
        0x0001bf82:    f44f0880    O...    MOV      r8,#0x400000
        0x0001bf86:    e582        ..      B        0x1ba8e ; am_hal_mspi_control + 1730
    am_hal_mspi_deinitialize
        0x0001bf88:    b510        ..      PUSH     {r4,lr}
        0x0001bf8a:    b1a8        ..      CBZ      r0,0x1bfb8 ; am_hal_mspi_deinitialize + 48
        0x0001bf8c:    4604        .F      MOV      r4,r0
        0x0001bf8e:    6800        .h      LDR      r0,[r0,#0]
        0x0001bf90:    f64b62be    K..b    MOV      r2,#0xbebe
        0x0001bf94:    f020417e     .~A    BIC      r1,r0,#0xfe000000
        0x0001bf98:    f2c012be    ....    MOVT     r2,#0x1be
        0x0001bf9c:    4291        .B      CMP      r1,r2
        0x0001bf9e:    d10b        ..      BNE      0x1bfb8 ; am_hal_mspi_deinitialize + 48
        0x0001bfa0:    0181        ..      LSLS     r1,r0,#6
        0x0001bfa2:    d503        ..      BPL      0x1bfac ; am_hal_mspi_deinitialize + 36
        0x0001bfa4:    4620         F      MOV      r0,r4
        0x0001bfa6:    f000f8e7    ....    BL       am_hal_mspi_disable ; 0x1c178
        0x0001bfaa:    6820         h      LDR      r0,[r4,#0]
        0x0001bfac:    f0207180     ..q    BIC      r1,r0,#0x1000000
        0x0001bfb0:    2000        .       MOVS     r0,#0
        0x0001bfb2:    e9c41000    ....    STRD     r1,r0,[r4,#0]
        0x0001bfb6:    bd10        ..      POP      {r4,pc}
        0x0001bfb8:    2002        .       MOVS     r0,#2
        0x0001bfba:    bd10        ..      POP      {r4,pc}
    am_hal_mspi_device_configure
        0x0001bfbc:    b570        p.      PUSH     {r4-r6,lr}
        0x0001bfbe:    b320         .      CBZ      r0,0x1c00a ; am_hal_mspi_device_configure + 78
        0x0001bfc0:    4604        .F      MOV      r4,r0
        0x0001bfc2:    6800        .h      LDR      r0,[r0,#0]
        0x0001bfc4:    460d        .F      MOV      r5,r1
        0x0001bfc6:    f64b61be    K..a    MOV      r1,#0xbebe
        0x0001bfca:    f020407e     .~@    BIC      r0,r0,#0xfe000000
        0x0001bfce:    f2c011be    ....    MOVT     r1,#0x1be
        0x0001bfd2:    4288        .B      CMP      r0,r1
        0x0001bfd4:    d119        ..      BNE      0x1c00a ; am_hal_mspi_device_configure + 78
        0x0001bfd6:    7a20         z      LDRB     r0,[r4,#8]
        0x0001bfd8:    b1c8        ..      CBZ      r0,0x1c00e ; am_hal_mspi_device_configure + 82
        0x0001bfda:    786b        kx      LDRB     r3,[r5,#1]
        0x0001bfdc:    782a        *x      LDRB     r2,[r5,#0]
        0x0001bfde:    78ae        .x      LDRB     r6,[r5,#2]
        0x0001bfe0:    2160        `!      MOVS     r1,#0x60
        0x0001bfe2:    7aa8        .z      LDRB     r0,[r5,#0xa]
        0x0001bfe4:    ea011143    ..C.    AND      r1,r1,r3,LSL #5
        0x0001bfe8:    f8d4c004    ....    LDR      r12,[r4,#4]
        0x0001bfec:    f36611c7    f...    BFI      r1,r6,#7,#1
        0x0001bff0:    f002023f    ..?.    AND      r2,r2,#0x3f
        0x0001bff4:    2803        .(      CMP      r0,#3
        0x0001bff6:    ea412e02    A...    ORR      lr,r1,r2,LSL #8
        0x0001bffa:    d00a        ..      BEQ      0x1c012 ; am_hal_mspi_device_configure + 86
        0x0001bffc:    2802        .(      CMP      r0,#2
        0x0001bffe:    d00b        ..      BEQ      0x1c018 ; am_hal_mspi_device_configure + 92
        0x0001c000:    2801        .(      CMP      r0,#1
        0x0001c002:    bf08        ..      IT       EQ
        0x0001c004:    f50e4e00    ...N    ADDEQ    lr,lr,#0x8000
        0x0001c008:    e008        ..      B        0x1c01c ; am_hal_mspi_device_configure + 96
        0x0001c00a:    2002        .       MOVS     r0,#2
        0x0001c00c:    bd70        p.      POP      {r4-r6,pc}
        0x0001c00e:    2007        .       MOVS     r0,#7
        0x0001c010:    bd70        p.      POP      {r4-r6,pc}
        0x0001c012:    f50e4e40    ..@N    ADD      lr,lr,#0xc000
        0x0001c016:    e001        ..      B        0x1c01c ; am_hal_mspi_device_configure + 96
        0x0001c018:    f50e4e80    ...N    ADD      lr,lr,#0x4000
        0x0001c01c:    7aee        .z      LDRB     r6,[r5,#0xb]
        0x0001c01e:    2005        .       MOVS     r0,#5
        0x0001c020:    1e73        s.      SUBS     r3,r6,#1
        0x0001c022:    2b1f        .+      CMP      r3,#0x1f
        0x0001c024:    f20080a7    ....    BHI.W    0x1c176 ; am_hal_mspi_device_configure + 442
        0x0001c028:    2101        .!      MOVS     r1,#1
        0x0001c02a:    f64802ae    H...    MOV      r2,#0x88ae
        0x0001c02e:    4099        .@      LSLS     r1,r1,r3
        0x0001c030:    f2c80280    ....    MOVT     r2,#0x8080
        0x0001c034:    4211        .B      TST      r1,r2
        0x0001c036:    f3664e15    f..N    BFI      lr,r6,#16,#6
        0x0001c03a:    d076        v.      BEQ      0x1c12a ; am_hal_mspi_device_configure + 366
        0x0001c03c:    7a68        hz      LDRB     r0,[r5,#9]
        0x0001c03e:    2184        .!      MOVS     r1,#0x84
        0x0001c040:    ea4e6080    N..`    ORR      r0,lr,r0,LSL #26
        0x0001c044:    ea4f320c    O..2    LSL      r2,r12,#12
        0x0001c048:    f2c40106    ....    MOVT     r1,#0x4006
        0x0001c04c:    5088        .P      STR      r0,[r1,r2]
        0x0001c04e:    2188        .!      MOVS     r1,#0x88
        0x0001c050:    f2c40106    ....    MOVT     r1,#0x4006
        0x0001c054:    7c28        (|      LDRB     r0,[r5,#0x10]
        0x0001c056:    588b        .X      LDR      r3,[r1,r2]
        0x0001c058:    f0230301    #...    BIC      r3,r3,#1
        0x0001c05c:    4318        .C      ORRS     r0,r0,r3
        0x0001c05e:    5088        .P      STR      r0,[r1,r2]
        0x0001c060:    2030        0       MOVS     r0,#0x30
        0x0001c062:    f2c40006    ....    MOVT     r0,#0x4006
        0x0001c066:    2300        .#      MOVS     r3,#0
        0x0001c068:    5886        .X      LDR      r6,[r0,r2]
        0x0001c06a:    f2c40306    ....    MOVT     r3,#0x4006
        0x0001c06e:    eb03310c    ...1    ADD      r1,r3,r12,LSL #12
        0x0001c072:    f0260301    &...    BIC      r3,r6,#1
        0x0001c076:    5083        .P      STR      r3,[r0,r2]
        0x0001c078:    2090        .       MOVS     r0,#0x90
        0x0001c07a:    f2c40006    ....    MOVT     r0,#0x4006
        0x0001c07e:    5880        .X      LDR      r0,[r0,r2]
        0x0001c080:    f6417203    A..r    MOV      r2,#0x1f03
        0x0001c084:    f6cf4200    ...B    MOVT     r2,#0xfc00
        0x0001c088:    4010        .@      ANDS     r0,r0,r2
        0x0001c08a:    7b62        b{      LDRB     r2,[r4,#0xd]
        0x0001c08c:    7beb        .{      LDRB     r3,[r5,#0xf]
        0x0001c08e:    f002020f    ....    AND      r2,r2,#0xf
        0x0001c092:    ea401002    @...    ORR      r0,r0,r2,LSL #4
        0x0001c096:    b13b        ;.      CBZ      r3,0x1c0a8 ; am_hal_mspi_device_configure + 236
        0x0001c098:    782a        *x      LDRB     r2,[r5,#0]
        0x0001c09a:    f002023f    ..?.    AND      r2,r2,#0x3f
        0x0001c09e:    ea403082    @..0    ORR      r0,r0,r2,LSL #14
        0x0001c0a2:    f040002c    @.,.    ORR      r0,r0,#0x2c
        0x0001c0a6:    e000        ..      B        0x1c0aa ; am_hal_mspi_device_configure + 238
        0x0001c0a8:    300c        .0      ADDS     r0,r0,#0xc
        0x0001c0aa:    7b6e        n{      LDRB     r6,[r5,#0xd]
        0x0001c0ac:    7baa        .{      LDRB     r2,[r5,#0xe]
        0x0001c0ae:    f895c009    ....    LDRB     r12,[r5,#9]
        0x0001c0b2:    7b2b        +{      LDRB     r3,[r5,#0xc]
        0x0001c0b4:    2e00        ..      CMP      r6,#0
        0x0001c0b6:    bf18        ..      IT       NE
        0x0001c0b8:    f0400040    @.@.    ORRNE    r0,r0,#0x40
        0x0001c0bc:    2a00        .*      CMP      r2,#0
        0x0001c0be:    bf18        ..      IT       NE
        0x0001c0c0:    f0400080    @...    ORRNE    r0,r0,#0x80
        0x0001c0c4:    ea403043    @.C0    ORR      r0,r0,r3,LSL #13
        0x0001c0c8:    f00c023f    ..?.    AND      r2,r12,#0x3f
        0x0001c0cc:    ea405002    @..P    ORR      r0,r0,r2,LSL #20
        0x0001c0d0:    f8c10090    ....    STR      r0,[r1,#0x90]
        0x0001c0d4:    88e8        ..      LDRH     r0,[r5,#6]
        0x0001c0d6:    88aa        ..      LDRH     r2,[r5,#4]
        0x0001c0d8:    2600        .&      MOVS     r6,#0
        0x0001c0da:    ea404002    @..@    ORR      r0,r0,r2,LSL #16
        0x0001c0de:    f8c10094    ....    STR      r0,[r1,#0x94]
        0x0001c0e2:    8a68        h.      LDRH     r0,[r5,#0x12]
        0x0001c0e4:    7d2a        *}      LDRB     r2,[r5,#0x14]
        0x0001c0e6:    f36f301f    o..0    BFC      r0,#12,#20
        0x0001c0ea:    f362300f    b..0    BFI      r0,r2,#12,#4
        0x0001c0ee:    f8c10098    ....    STR      r0,[r1,#0x98]
        0x0001c0f2:    6b08        .k      LDR      r0,[r1,#0x30]
        0x0001c0f4:    2207        ."      MOVS     r2,#7
        0x0001c0f6:    f3621007    b...    BFI      r0,r2,#4,#4
        0x0001c0fa:    6308        .c      STR      r0,[r1,#0x30]
        0x0001c0fc:    69a0        .i      LDR      r0,[r4,#0x18]
        0x0001c0fe:    7366        fs      STRB     r6,[r4,#0xd]
        0x0001c100:    b368        h.      CBZ      r0,0x1c15e ; am_hal_mspi_device_configure + 418
        0x0001c102:    2020                MOVS     r0,#0x20
        0x0001c104:    f8c10114    ....    STR      r0,[r1,#0x114]
        0x0001c108:    7ae8        .z      LDRB     r0,[r5,#0xb]
        0x0001c10a:    1e42        B.      SUBS     r2,r0,#1
        0x0001c10c:    2a1f        .*      CMP      r2,#0x1f
        0x0001c10e:    f04f0005    O...    MOV      r0,#5
        0x0001c112:    d830        0.      BHI      0x1c176 ; am_hal_mspi_device_configure + 442
        0x0001c114:    2301        .#      MOVS     r3,#1
        0x0001c116:    fa03f202    ....    LSL      r2,r3,r2
        0x0001c11a:    f64803ac    H...    MOV      r3,#0x88ac
        0x0001c11e:    f2c80380    ....    MOVT     r3,#0x8080
        0x0001c122:    421a        .B      TST      r2,r3
        0x0001c124:    d005        ..      BEQ      0x1c132 ; am_hal_mspi_device_configure + 374
        0x0001c126:    2008        .       MOVS     r0,#8
        0x0001c128:    e006        ..      B        0x1c138 ; am_hal_mspi_device_configure + 380
        0x0001c12a:    bb23        #.      CBNZ     r3,0x1c176 ; am_hal_mspi_device_configure + 442
        0x0001c12c:    f10e7e80    ...~    ADD      lr,lr,#0x1000000
        0x0001c130:    e784        ..      B        0x1c03c ; am_hal_mspi_device_configure + 128
        0x0001c132:    0792        ..      LSLS     r2,r2,#30
        0x0001c134:    d01f        ..      BEQ      0x1c176 ; am_hal_mspi_device_configure + 442
        0x0001c136:    200c        .       MOVS     r0,#0xc
        0x0001c138:    f8d12118    ...!    LDR      r2,[r1,#0x118]
        0x0001c13c:    f022021f    "...    BIC      r2,r2,#0x1f
        0x0001c140:    4410        .D      ADD      r0,r0,r2
        0x0001c142:    f8c10118    ....    STR      r0,[r1,#0x118]
        0x0001c146:    6a08        .j      LDR      r0,[r1,#0x20]
        0x0001c148:    221e        ."      MOVS     r2,#0x1e
        0x0001c14a:    f362200d    b..     BFI      r0,r2,#8,#6
        0x0001c14e:    6208        .b      STR      r0,[r1,#0x20]
        0x0001c150:    f8d10118    ....    LDR      r0,[r1,#0x118]
        0x0001c154:    2208        ."      MOVS     r2,#8
        0x0001c156:    f362200c    b..     BFI      r0,r2,#8,#5
        0x0001c15a:    f8c10118    ....    STR      r0,[r1,#0x118]
        0x0001c15e:    7a28        (z      LDRB     r0,[r5,#8]
        0x0001c160:    72a0        .r      STRB     r0,[r4,#0xa]
        0x0001c162:    4620         F      MOV      r0,r4
        0x0001c164:    f003f9aa    ....    BL       mspi_device_configure ; 0x1f4bc
        0x0001c168:    7ae8        .z      LDRB     r0,[r5,#0xb]
        0x0001c16a:    7366        fs      STRB     r6,[r4,#0xd]
        0x0001c16c:    7320         s      STRB     r0,[r4,#0xc]
        0x0001c16e:    f2427010    B..p    MOV      r0,#0x2710
        0x0001c172:    6120         a      STR      r0,[r4,#0x10]
        0x0001c174:    2000        .       MOVS     r0,#0
        0x0001c176:    bd70        p.      POP      {r4-r6,pc}
    am_hal_mspi_disable
        0x0001c178:    b5b0        ..      PUSH     {r4,r5,r7,lr}
        0x0001c17a:    b168        h.      CBZ      r0,0x1c198 ; am_hal_mspi_disable + 32
        0x0001c17c:    4604        .F      MOV      r4,r0
        0x0001c17e:    6800        .h      LDR      r0,[r0,#0]
        0x0001c180:    f64b62be    K..b    MOV      r2,#0xbebe
        0x0001c184:    f020417e     .~A    BIC      r1,r0,#0xfe000000
        0x0001c188:    f2c012be    ....    MOVT     r2,#0x1be
        0x0001c18c:    4291        .B      CMP      r1,r2
        0x0001c18e:    d103        ..      BNE      0x1c198 ; am_hal_mspi_disable + 32
        0x0001c190:    0180        ..      LSLS     r0,r0,#6
        0x0001c192:    d404        ..      BMI      0x1c19e ; am_hal_mspi_disable + 38
        0x0001c194:    2500        .%      MOVS     r5,#0
        0x0001c196:    e000        ..      B        0x1c19a ; am_hal_mspi_disable + 34
        0x0001c198:    2502        .%      MOVS     r5,#2
        0x0001c19a:    4628        (F      MOV      r0,r5
        0x0001c19c:    bdb0        ..      POP      {r4,r5,r7,pc}
        0x0001c19e:    f8d40840    ..@.    LDR      r0,[r4,#0x840]
        0x0001c1a2:    b908        ..      CBNZ     r0,0x1c1a8 ; am_hal_mspi_disable + 48
        0x0001c1a4:    6a20         j      LDR      r0,[r4,#0x20]
        0x0001c1a6:    b108        ..      CBZ      r0,0x1c1ac ; am_hal_mspi_disable + 52
        0x0001c1a8:    2503        .%      MOVS     r5,#3
        0x0001c1aa:    e7f6        ..      B        0x1c19a ; am_hal_mspi_disable + 34
        0x0001c1ac:    69a0        .i      LDR      r0,[r4,#0x18]
        0x0001c1ae:    b1c8        ..      CBZ      r0,0x1c1e4 ; am_hal_mspi_disable + 108
        0x0001c1b0:    f8d40828    ..(.    LDR      r0,[r4,#0x828]
        0x0001c1b4:    f7fefadf    ....    BL       am_hal_cmdq_disable ; 0x1a776
        0x0001c1b8:    4605        .F      MOV      r5,r0
        0x0001c1ba:    2800        .(      CMP      r0,#0
        0x0001c1bc:    d1ed        ..      BNE      0x1c19a ; am_hal_mspi_disable + 34
        0x0001c1be:    6860        `h      LDR      r0,[r4,#4]
        0x0001c1c0:    f6443178    D.x1    MOV      r1,#0x4b78
        0x0001c1c4:    f2c10100    ....    MOVT     r1,#0x1000
        0x0001c1c8:    f64002c4    @...    MOV      r2,#0x8c4
        0x0001c1cc:    fb001102    ....    MLA      r1,r0,r2,r1
        0x0001c1d0:    f8d10828    ..(.    LDR      r0,[r1,#0x828]
        0x0001c1d4:    b130        0.      CBZ      r0,0x1c1e4 ; am_hal_mspi_disable + 108
        0x0001c1d6:    f6010528    ..(.    ADD      r5,r1,#0x828
        0x0001c1da:    2101        .!      MOVS     r1,#1
        0x0001c1dc:    f7fefc7c    ..|.    BL       am_hal_cmdq_term ; 0x1aad8
        0x0001c1e0:    2000        .       MOVS     r0,#0
        0x0001c1e2:    6028        (`      STR      r0,[r5,#0]
        0x0001c1e4:    e9d40100    ....    LDRD     r0,r1,[r4,#0]
        0x0001c1e8:    f0207000     ..p    BIC      r0,r0,#0x2000000
        0x0001c1ec:    6020         `      STR      r0,[r4,#0]
        0x0001c1ee:    0308        ..      LSLS     r0,r1,#12
        0x0001c1f0:    2190        .!      MOVS     r1,#0x90
        0x0001c1f2:    f2c40106    ....    MOVT     r1,#0x4006
        0x0001c1f6:    5808        .X      LDR      r0,[r1,r0]
        0x0001c1f8:    07c0        ..      LSLS     r0,r0,#31
        0x0001c1fa:    d0cb        ..      BEQ      0x1c194 ; am_hal_mspi_disable + 28
        0x0001c1fc:    2001        .       MOVS     r0,#1
        0x0001c1fe:    2100        .!      MOVS     r1,#0
        0x0001c200:    2500        .%      MOVS     r5,#0
        0x0001c202:    f7fefcc7    ....    BL       am_hal_daxi_control ; 0x1ab94
        0x0001c206:    e7c8        ..      B        0x1c19a ; am_hal_mspi_disable + 34
    am_hal_mspi_enable
        0x0001c208:    b5b0        ..      PUSH     {r4,r5,r7,lr}
        0x0001c20a:    b084        ..      SUB      sp,sp,#0x10
        0x0001c20c:    2800        .(      CMP      r0,#0
        0x0001c20e:    d04a        J.      BEQ      0x1c2a6 ; am_hal_mspi_enable + 158
        0x0001c210:    4604        .F      MOV      r4,r0
        0x0001c212:    6800        .h      LDR      r0,[r0,#0]
        0x0001c214:    f64b62be    K..b    MOV      r2,#0xbebe
        0x0001c218:    f020417e     .~A    BIC      r1,r0,#0xfe000000
        0x0001c21c:    f2c012be    ....    MOVT     r2,#0x1be
        0x0001c220:    4291        .B      CMP      r1,r2
        0x0001c222:    d140        @.      BNE      0x1c2a6 ; am_hal_mspi_enable + 158
        0x0001c224:    7a21        !z      LDRB     r1,[r4,#8]
        0x0001c226:    2900        .)      CMP      r1,#0
        0x0001c228:    d040        @.      BEQ      0x1c2ac ; am_hal_mspi_enable + 164
        0x0001c22a:    69a1        .i      LDR      r1,[r4,#0x18]
        0x0001c22c:    b3b1        ..      CBZ      r1,0x1c29c ; am_hal_mspi_enable + 148
        0x0001c22e:    6962        bi      LDR      r2,[r4,#0x14]
        0x0001c230:    9102        ..      STR      r1,[sp,#8]
        0x0001c232:    0851        Q.      LSRS     r1,r2,#1
        0x0001c234:    9101        ..      STR      r1,[sp,#4]
        0x0001c236:    2101        .!      MOVS     r1,#1
        0x0001c238:    6860        `h      LDR      r0,[r4,#4]
        0x0001c23a:    f88d100c    ....    STRB     r1,[sp,#0xc]
        0x0001c23e:    f6443178    D.x1    MOV      r1,#0x4b78
        0x0001c242:    f2c10100    ....    MOVT     r1,#0x1000
        0x0001c246:    f64002c4    @...    MOV      r2,#0x8c4
        0x0001c24a:    fb001102    ....    MLA      r1,r0,r2,r1
        0x0001c24e:    3008        .0      ADDS     r0,r0,#8
        0x0001c250:    2500        .%      MOVS     r5,#0
        0x0001c252:    f6010228    ..(.    ADD      r2,r1,#0x828
        0x0001c256:    b2c0        ..      UXTB     r0,r0
        0x0001c258:    a901        ..      ADD      r1,sp,#4
        0x0001c25a:    e9c45507    ...U    STRD     r5,r5,[r4,#0x1c]
        0x0001c25e:    f7fefb31    ..1.    BL       am_hal_cmdq_init ; 0x1a8c4
        0x0001c262:    6860        `h      LDR      r0,[r4,#4]
        0x0001c264:    f24021b4    @..!    MOVW     r1,#0x2b4
        0x0001c268:    2280        ."      MOVS     r2,#0x80
        0x0001c26a:    0300        ..      LSLS     r0,r0,#12
        0x0001c26c:    f2c40106    ....    MOVT     r1,#0x4006
        0x0001c270:    f2c00240    ..@.    MOVT     r2,#0x40
        0x0001c274:    500a        .P      STR      r2,[r1,r0]
        0x0001c276:    f8c45854    ..TX    STR      r5,[r4,#0x854]
        0x0001c27a:    f884583c    ..<X    STRB     r5,[r4,#0x83c]
        0x0001c27e:    f44f7080    O..p    MOV      r0,#0x100
        0x0001c282:    f8a4082c    ..,.    STRH     r0,[r4,#0x82c]
        0x0001c286:    6820         h      LDR      r0,[r4,#0]
        0x0001c288:    f8c45838    ..8X    STR      r5,[r4,#0x838]
        0x0001c28c:    f8c45840    ..@X    STR      r5,[r4,#0x840]
        0x0001c290:    f8c45844    ..DX    STR      r5,[r4,#0x844]
        0x0001c294:    f8c45830    ..0X    STR      r5,[r4,#0x830]
        0x0001c298:    f8c4585c    ..\X    STR      r5,[r4,#0x85c]
        0x0001c29c:    f0407000    @..p    ORR      r0,r0,#0x2000000
        0x0001c2a0:    6020         `      STR      r0,[r4,#0]
        0x0001c2a2:    2000        .       MOVS     r0,#0
        0x0001c2a4:    e000        ..      B        0x1c2a8 ; am_hal_mspi_enable + 160
        0x0001c2a6:    2002        .       MOVS     r0,#2
        0x0001c2a8:    b004        ..      ADD      sp,sp,#0x10
        0x0001c2aa:    bdb0        ..      POP      {r4,r5,r7,pc}
        0x0001c2ac:    2007        .       MOVS     r0,#7
        0x0001c2ae:    e7fb        ..      B        0x1c2a8 ; am_hal_mspi_enable + 160
    am_hal_mspi_initialize
        0x0001c2b0:    b580        ..      PUSH     {r7,lr}
        0x0001c2b2:    2802        .(      CMP      r0,#2
        0x0001c2b4:    bf84        ..      ITT      HI
        0x0001c2b6:    2005        .       MOVHI    r0,#5
        0x0001c2b8:    bd80        ..      POPHI    {r7,pc}
        0x0001c2ba:    b1f9        ..      CBZ      r1,0x1c2fc ; am_hal_mspi_initialize + 76
        0x0001c2bc:    f6443c78    D.x<    MOV      r12,#0x4b78
        0x0001c2c0:    f6400ec4    @...    MOV      lr,#0x8c4
        0x0001c2c4:    f2c10c00    ....    MOVT     r12,#0x1000
        0x0001c2c8:    fb00f20e    ....    MUL      r2,r0,lr
        0x0001c2cc:    f85c2002    \..     LDR      r2,[r12,r2]
        0x0001c2d0:    01d3        ..      LSLS     r3,r2,#7
        0x0001c2d2:    bf44        D.      ITT      MI
        0x0001c2d4:    2007        .       MOVMI    r0,#7
        0x0001c2d6:    bd80        ..      POPMI    {r7,pc}
        0x0001c2d8:    f64b63be    K..c    MOV      r3,#0xbebe
        0x0001c2dc:    fb00cc0e    ....    MLA      r12,r0,lr,r12
        0x0001c2e0:    f2c013be    ....    MOVT     r3,#0x1be
        0x0001c2e4:    f3630218    c...    BFI      r2,r3,#0,#25
        0x0001c2e8:    e9cc2000    ...     STRD     r2,r0,[r12,#0]
        0x0001c2ec:    2000        .       MOVS     r0,#0
        0x0001c2ee:    f88c000c    ....    STRB     r0,[r12,#0xc]
        0x0001c2f2:    f8cc0018    ....    STR      r0,[r12,#0x18]
        0x0001c2f6:    f8c1c000    ....    STR      r12,[r1,#0]
        0x0001c2fa:    bd80        ..      POP      {r7,pc}
        0x0001c2fc:    2006        .       MOVS     r0,#6
        0x0001c2fe:    bd80        ..      POP      {r7,pc}
    am_hal_mspi_interrupt_clear
        0x0001c300:    b188        ..      CBZ      r0,0x1c326 ; am_hal_mspi_interrupt_clear + 38
        0x0001c302:    6802        .h      LDR      r2,[r0,#0]
        0x0001c304:    f64b63be    K..c    MOV      r3,#0xbebe
        0x0001c308:    f022427e    ".~B    BIC      r2,r2,#0xfe000000
        0x0001c30c:    f2c013be    ....    MOVT     r3,#0x1be
        0x0001c310:    429a        .B      CMP      r2,r3
        0x0001c312:    d108        ..      BNE      0x1c326 ; am_hal_mspi_interrupt_clear + 38
        0x0001c314:    6840        @h      LDR      r0,[r0,#4]
        0x0001c316:    f2402208    @.."    MOVW     r2,#0x208
        0x0001c31a:    0300        ..      LSLS     r0,r0,#12
        0x0001c31c:    f2c40206    ....    MOVT     r2,#0x4006
        0x0001c320:    5011        .P      STR      r1,[r2,r0]
        0x0001c322:    2000        .       MOVS     r0,#0
        0x0001c324:    4770        pG      BX       lr
        0x0001c326:    2002        .       MOVS     r0,#2
        0x0001c328:    4770        pG      BX       lr
    am_hal_mspi_interrupt_disable
        0x0001c32a:    b1a0        ..      CBZ      r0,0x1c356 ; am_hal_mspi_interrupt_disable + 44
        0x0001c32c:    6802        .h      LDR      r2,[r0,#0]
        0x0001c32e:    f64b63be    K..c    MOV      r3,#0xbebe
        0x0001c332:    f022427e    ".~B    BIC      r2,r2,#0xfe000000
        0x0001c336:    f2c013be    ....    MOVT     r3,#0x1be
        0x0001c33a:    429a        .B      CMP      r2,r3
        0x0001c33c:    d10b        ..      BNE      0x1c356 ; am_hal_mspi_interrupt_disable + 44
        0x0001c33e:    6840        @h      LDR      r0,[r0,#4]
        0x0001c340:    f2402200    @.."    MOVW     r2,#0x200
        0x0001c344:    0300        ..      LSLS     r0,r0,#12
        0x0001c346:    f2c40206    ....    MOVT     r2,#0x4006
        0x0001c34a:    5813        .X      LDR      r3,[r2,r0]
        0x0001c34c:    ea230101    #...    BIC      r1,r3,r1
        0x0001c350:    5011        .P      STR      r1,[r2,r0]
        0x0001c352:    2000        .       MOVS     r0,#0
        0x0001c354:    4770        pG      BX       lr
        0x0001c356:    2002        .       MOVS     r0,#2
        0x0001c358:    4770        pG      BX       lr
    am_hal_mspi_interrupt_enable
        0x0001c35a:    b198        ..      CBZ      r0,0x1c384 ; am_hal_mspi_interrupt_enable + 42
        0x0001c35c:    6802        .h      LDR      r2,[r0,#0]
        0x0001c35e:    f64b63be    K..c    MOV      r3,#0xbebe
        0x0001c362:    f022427e    ".~B    BIC      r2,r2,#0xfe000000
        0x0001c366:    f2c013be    ....    MOVT     r3,#0x1be
        0x0001c36a:    429a        .B      CMP      r2,r3
        0x0001c36c:    d10a        ..      BNE      0x1c384 ; am_hal_mspi_interrupt_enable + 42
        0x0001c36e:    6840        @h      LDR      r0,[r0,#4]
        0x0001c370:    f2402200    @.."    MOVW     r2,#0x200
        0x0001c374:    0300        ..      LSLS     r0,r0,#12
        0x0001c376:    f2c40206    ....    MOVT     r2,#0x4006
        0x0001c37a:    5813        .X      LDR      r3,[r2,r0]
        0x0001c37c:    4319        .C      ORRS     r1,r1,r3
        0x0001c37e:    5011        .P      STR      r1,[r2,r0]
        0x0001c380:    2000        .       MOVS     r0,#0
        0x0001c382:    4770        pG      BX       lr
        0x0001c384:    2002        .       MOVS     r0,#2
        0x0001c386:    4770        pG      BX       lr
    am_hal_mspi_interrupt_service
        0x0001c388:    e92d4ff0    -..O    PUSH     {r4-r11,lr}
        0x0001c38c:    b085        ..      SUB      sp,sp,#0x14
        0x0001c38e:    b3e0        ..      CBZ      r0,0x1c40a ; am_hal_mspi_interrupt_service + 130
        0x0001c390:    4604        .F      MOV      r4,r0
        0x0001c392:    6800        .h      LDR      r0,[r0,#0]
        0x0001c394:    460d        .F      MOV      r5,r1
        0x0001c396:    f64b61be    K..a    MOV      r1,#0xbebe
        0x0001c39a:    f020407e     .~@    BIC      r0,r0,#0xfe000000
        0x0001c39e:    f2c011be    ....    MOVT     r1,#0x1be
        0x0001c3a2:    4288        .B      CMP      r0,r1
        0x0001c3a4:    d131        1.      BNE      0x1c40a ; am_hal_mspi_interrupt_service + 130
        0x0001c3a6:    f8d4b004    ....    LDR      r11,[r4,#4]
        0x0001c3aa:    f894083c    ..<.    LDRB     r0,[r4,#0x83c]
        0x0001c3ae:    b370        p.      CBZ      r0,0x1c40e ; am_hal_mspi_interrupt_service + 134
        0x0001c3b0:    6a60        `j      LDR      r0,[r4,#0x24]
        0x0001c3b2:    4328        (C      ORRS     r0,r0,r5
        0x0001c3b4:    f4105fc6    ..._    TST      r0,#0x18c0
        0x0001c3b8:    6260        `b      STR      r0,[r4,#0x24]
        0x0001c3ba:    d07c        |.      BEQ      0x1c4b6 ; am_hal_mspi_interrupt_service + 302
        0x0001c3bc:    f2400800    @...    MOVW     r8,#0
        0x0001c3c0:    f2c40806    ....    MOVT     r8,#0x4006
        0x0001c3c4:    eb08360b    ...6    ADD      r6,r8,r11,LSL #12
        0x0001c3c8:    f8d61104    ....    LDR      r1,[r6,#0x104]
        0x0001c3cc:    07c9        ..      LSLS     r1,r1,#31
        0x0001c3ce:    d1fb        ..      BNE      0x1c3c8 ; am_hal_mspi_interrupt_service + 64
        0x0001c3d0:    f8d61204    ....    LDR      r1,[r6,#0x204]
        0x0001c3d4:    4308        .C      ORRS     r0,r0,r1
        0x0001c3d6:    6260        `b      STR      r0,[r4,#0x24]
        0x0001c3d8:    f04f30ff    O..0    MOV      r0,#0xffffffff
        0x0001c3dc:    f8c60208    ....    STR      r0,[r6,#0x208]
        0x0001c3e0:    8ca0        ..      LDRH     r0,[r4,#0x24]
        0x0001c3e2:    f4105fc4    ..._    TST      r0,#0x1880
        0x0001c3e6:    d068        h.      BEQ      0x1c4ba ; am_hal_mspi_interrupt_service + 306
        0x0001c3e8:    f8d60100    ....    LDR      r0,[r6,#0x100]
        0x0001c3ec:    f04f0901    O...    MOV      r9,#1
        0x0001c3f0:    f0200003     ...    BIC      r0,r0,#3
        0x0001c3f4:    f8c60100    ....    STR      r0,[r6,#0x100]
        0x0001c3f8:    6b30        0k      LDR      r0,[r6,#0x30]
        0x0001c3fa:    f0204080     ..@    BIC      r0,r0,#0x40000000
        0x0001c3fe:    6330        0c      STR      r0,[r6,#0x30]
        0x0001c400:    6b30        0k      LDR      r0,[r6,#0x30]
        0x0001c402:    f0404080    @..@    ORR      r0,r0,#0x40000000
        0x0001c406:    6330        0c      STR      r0,[r6,#0x30]
        0x0001c408:    e059        Y.      B        0x1c4be ; am_hal_mspi_interrupt_service + 310
        0x0001c40a:    2002        .       MOVS     r0,#2
        0x0001c40c:    e0b2        ..      B        0x1c574 ; am_hal_mspi_interrupt_service + 492
        0x0001c40e:    6a20         j      LDR      r0,[r4,#0x20]
        0x0001c410:    2800        .(      CMP      r0,#0
        0x0001c412:    d050        P.      BEQ      0x1c4b6 ; am_hal_mspi_interrupt_service + 302
        0x0001c414:    6a60        `j      LDR      r0,[r4,#0x24]
        0x0001c416:    f6443178    D.x1    MOV      r1,#0x4b78
        0x0001c41a:    f2c10100    ....    MOVT     r1,#0x1000
        0x0001c41e:    f64002c4    @...    MOV      r2,#0x8c4
        0x0001c422:    fb0b1902    ....    MLA      r9,r11,r2,r1
        0x0001c426:    4328        (C      ORRS     r0,r0,r5
        0x0001c428:    6260        `b      STR      r0,[r4,#0x24]
        0x0001c42a:    f8d90828    ..(.    LDR      r0,[r9,#0x828]
        0x0001c42e:    b3a8        ..      CBZ      r0,0x1c49c ; am_hal_mspi_interrupt_service + 276
        0x0001c430:    a901        ..      ADD      r1,sp,#4
        0x0001c432:    f7fefa13    ....    BL       am_hal_cmdq_get_status ; 0x1a85c
        0x0001c436:    bb88        ..      CBNZ     r0,0x1c49c ; am_hal_mspi_interrupt_service + 276
        0x0001c438:    f04f0800    O...    MOV      r8,#0
        0x0001c43c:    f8848834    ..4.    STRB     r8,[r4,#0x834]
        0x0001c440:    f8940834    ..4.    LDRB     r0,[r4,#0x834]
        0x0001c444:    bb30        0.      CBNZ     r0,0x1c494 ; am_hal_mspi_interrupt_service + 268
        0x0001c446:    f1040728    ..(.    ADD      r7,r4,#0x28
        0x0001c44a:    f5046a85    ...j    ADD      r10,r4,#0x428
        0x0001c44e:    69e0        .i      LDR      r0,[r4,#0x1c]
        0x0001c450:    9901        ..      LDR      r1,[sp,#4]
        0x0001c452:    4288        .B      CMP      r0,r1
        0x0001c454:    d01e        ..      BEQ      0x1c494 ; am_hal_mspi_interrupt_service + 268
        0x0001c456:    3001        .0      ADDS     r0,#1
        0x0001c458:    b2c6        ..      UXTB     r6,r0
        0x0001c45a:    61e0        .a      STR      r0,[r4,#0x1c]
        0x0001c45c:    f8570026    W.&.    LDR      r0,[r7,r6,LSL #2]
        0x0001c460:    6a21        !j      LDR      r1,[r4,#0x20]
        0x0001c462:    2800        .(      CMP      r0,#0
        0x0001c464:    f1a10001    ....    SUB      r0,r1,#1
        0x0001c468:    6220         b      STR      r0,[r4,#0x20]
        0x0001c46a:    d00f        ..      BEQ      0x1c48c ; am_hal_mspi_interrupt_service + 260
        0x0001c46c:    2000        .       MOVS     r0,#0
        0x0001c46e:    2100        .!      MOVS     r1,#0
        0x0001c470:    f7fefb90    ....    BL       am_hal_daxi_control ; 0x1ab94
        0x0001c474:    f8572026    W.&     LDR      r2,[r7,r6,LSL #2]
        0x0001c478:    f85a0026    Z.&.    LDR      r0,[r10,r6,LSL #2]
        0x0001c47c:    2100        .!      MOVS     r1,#0
        0x0001c47e:    4790        .G      BLX      r2
        0x0001c480:    f894082c    ..,.    LDRB     r0,[r4,#0x82c]
        0x0001c484:    2802        .(      CMP      r0,#2
        0x0001c486:    bf18        ..      IT       NE
        0x0001c488:    f8478026    G.&.    STRNE    r8,[r7,r6,LSL #2]
        0x0001c48c:    f8940834    ..4.    LDRB     r0,[r4,#0x834]
        0x0001c490:    2800        .(      CMP      r0,#0
        0x0001c492:    d0dc        ..      BEQ      0x1c44e ; am_hal_mspi_interrupt_service + 198
        0x0001c494:    f8940834    ..4.    LDRB     r0,[r4,#0x834]
        0x0001c498:    2800        .(      CMP      r0,#0
        0x0001c49a:    d06e        n.      BEQ      0x1c57a ; am_hal_mspi_interrupt_service + 498
        0x0001c49c:    6a20         j      LDR      r0,[r4,#0x20]
        0x0001c49e:    b950        P.      CBNZ     r0,0x1c4b6 ; am_hal_mspi_interrupt_service + 302
        0x0001c4a0:    2000        .       MOVS     r0,#0
        0x0001c4a2:    f2c40006    ....    MOVT     r0,#0x4006
        0x0001c4a6:    eb00300b    ...0    ADD      r0,r0,r11,LSL #12
        0x0001c4aa:    f8d01100    ....    LDR      r1,[r0,#0x100]
        0x0001c4ae:    f0210103    !...    BIC      r1,r1,#3
        0x0001c4b2:    f8c01100    ....    STR      r1,[r0,#0x100]
        0x0001c4b6:    2000        .       MOVS     r0,#0
        0x0001c4b8:    e05c        \.      B        0x1c574 ; am_hal_mspi_interrupt_service + 492
        0x0001c4ba:    f04f0900    O...    MOV      r9,#0
        0x0001c4be:    f8d42850    ..P(    LDR      r2,[r4,#0x850]
        0x0001c4c2:    f8d41848    ..H.    LDR      r1,[r4,#0x848]
        0x0001c4c6:    3201        .2      ADDS     r2,#1
        0x0001c4c8:    fbb2f7f1    ....    UDIV     r7,r2,r1
        0x0001c4cc:    f8d40840    ..@.    LDR      r0,[r4,#0x840]
        0x0001c4d0:    fb072111    ...!    MLS      r1,r7,r1,r2
        0x0001c4d4:    f8d43854    ..T8    LDR      r3,[r4,#0x854]
        0x0001c4d8:    eb010141    ..A.    ADD      r1,r1,r1,LSL #1
        0x0001c4dc:    3801        .8      SUBS     r0,#1
        0x0001c4de:    eb0305c1    ....    ADD      r5,r3,r1,LSL #3
        0x0001c4e2:    f8c42850    ..P(    STR      r2,[r4,#0x850]
        0x0001c4e6:    f8c40840    ..@.    STR      r0,[r4,#0x840]
        0x0001c4ea:    462f        /F      MOV      r7,r5
        0x0001c4ec:    f8571f10    W...    LDR      r1,[r7,#0x10]!
        0x0001c4f0:    b169        i.      CBZ      r1,0x1c50e ; am_hal_mspi_interrupt_service + 390
        0x0001c4f2:    2000        .       MOVS     r0,#0
        0x0001c4f4:    2100        .!      MOVS     r1,#0
        0x0001c4f6:    f04f0a00    O...    MOV      r10,#0
        0x0001c4fa:    f7fefb4b    ..K.    BL       am_hal_daxi_control ; 0x1ab94
        0x0001c4fe:    683a        :h      LDR      r2,[r7,#0]
        0x0001c500:    6968        hi      LDR      r0,[r5,#0x14]
        0x0001c502:    4649        IF      MOV      r1,r9
        0x0001c504:    4790        .G      BLX      r2
        0x0001c506:    f8c7a000    ....    STR      r10,[r7,#0]
        0x0001c50a:    f8d40840    ..@.    LDR      r0,[r4,#0x840]
        0x0001c50e:    b318        ..      CBZ      r0,0x1c558 ; am_hal_mspi_interrupt_service + 464
        0x0001c510:    f8d42850    ..P(    LDR      r2,[r4,#0x850]
        0x0001c514:    f8d43848    ..H8    LDR      r3,[r4,#0x848]
        0x0001c518:    3201        .2      ADDS     r2,#1
        0x0001c51a:    fbb2f7f3    ....    UDIV     r7,r2,r3
        0x0001c51e:    6861        ah      LDR      r1,[r4,#4]
        0x0001c520:    fb072213    ..."    MLS      r2,r7,r3,r2
        0x0001c524:    2000        .       MOVS     r0,#0
        0x0001c526:    f8d46854    ..Th    LDR      r6,[r4,#0x854]
        0x0001c52a:    eb083101    ...1    ADD      r1,r8,r1,LSL #12
        0x0001c52e:    6260        `b      STR      r0,[r4,#0x24]
        0x0001c530:    f8c10100    ....    STR      r0,[r1,#0x100]
        0x0001c534:    eb020242    ..B.    ADD      r2,r2,r2,LSL #1
        0x0001c538:    f8563032    V.20    LDR      r3,[r6,r2,LSL #3]
        0x0001c53c:    eb0602c2    ....    ADD      r2,r6,r2,LSL #3
        0x0001c540:    f8c13108    ...1    STR      r3,[r1,#0x108]
        0x0001c544:    6853        Sh      LDR      r3,[r2,#4]
        0x0001c546:    f8c1310c    ...1    STR      r3,[r1,#0x10c]
        0x0001c54a:    6893        .h      LDR      r3,[r2,#8]
        0x0001c54c:    f8c13110    ...1    STR      r3,[r1,#0x110]
        0x0001c550:    68d2        .h      LDR      r2,[r2,#0xc]
        0x0001c552:    f8c12100    ...!    STR      r2,[r1,#0x100]
        0x0001c556:    e00d        ..      B        0x1c574 ; am_hal_mspi_interrupt_service + 492
        0x0001c558:    2000        .       MOVS     r0,#0
        0x0001c55a:    f884083c    ..<.    STRB     r0,[r4,#0x83c]
        0x0001c55e:    f8c60100    ....    STR      r0,[r6,#0x100]
        0x0001c562:    f8d61200    ....    LDR      r1,[r6,#0x200]
        0x0001c566:    f0210140    !.@.    BIC      r1,r1,#0x40
        0x0001c56a:    f8c61200    ....    STR      r1,[r6,#0x200]
        0x0001c56e:    2180        .!      MOVS     r1,#0x80
        0x0001c570:    f8c612b4    ....    STR      r1,[r6,#0x2b4]
        0x0001c574:    b005        ..      ADD      sp,sp,#0x14
        0x0001c576:    e8bd8ff0    ....    POP      {r4-r11,pc}
        0x0001c57a:    f4155fc4    ..._    TST      r5,#0x1880
        0x0001c57e:    d103        ..      BNE      0x1c588 ; am_hal_mspi_interrupt_service + 512
        0x0001c580:    f89d0012    ....    LDRB     r0,[sp,#0x12]
        0x0001c584:    2800        .(      CMP      r0,#0
        0x0001c586:    d04a        J.      BEQ      0x1c61e ; am_hal_mspi_interrupt_service + 662
        0x0001c588:    69e0        .i      LDR      r0,[r4,#0x1c]
        0x0001c58a:    f1040728    ..(.    ADD      r7,r4,#0x28
        0x0001c58e:    3001        .0      ADDS     r0,#1
        0x0001c590:    b2c5        ..      UXTB     r5,r0
        0x0001c592:    61e0        .a      STR      r0,[r4,#0x1c]
        0x0001c594:    f8570025    W.%.    LDR      r0,[r7,r5,LSL #2]
        0x0001c598:    6a21        !j      LDR      r1,[r4,#0x20]
        0x0001c59a:    2800        .(      CMP      r0,#0
        0x0001c59c:    f1a10001    ....    SUB      r0,r1,#1
        0x0001c5a0:    6220         b      STR      r0,[r4,#0x20]
        0x0001c5a2:    d012        ..      BEQ      0x1c5ca ; am_hal_mspi_interrupt_service + 578
        0x0001c5a4:    2000        .       MOVS     r0,#0
        0x0001c5a6:    2100        .!      MOVS     r1,#0
        0x0001c5a8:    2600        .&      MOVS     r6,#0
        0x0001c5aa:    f7fefaf3    ....    BL       am_hal_daxi_control ; 0x1ab94
        0x0001c5ae:    eb040085    ....    ADD      r0,r4,r5,LSL #2
        0x0001c5b2:    f8572025    W.%     LDR      r2,[r7,r5,LSL #2]
        0x0001c5b6:    f8d00428    ..(.    LDR      r0,[r0,#0x428]
        0x0001c5ba:    2101        .!      MOVS     r1,#1
        0x0001c5bc:    4790        .G      BLX      r2
        0x0001c5be:    f894082c    ..,.    LDRB     r0,[r4,#0x82c]
        0x0001c5c2:    2802        .(      CMP      r0,#2
        0x0001c5c4:    bf18        ..      IT       NE
        0x0001c5c6:    f8476025    G.%`    STRNE    r6,[r7,r5,LSL #2]
        0x0001c5ca:    f8d40828    ..(.    LDR      r0,[r4,#0x828]
        0x0001c5ce:    f7fef8d2    ....    BL       am_hal_cmdq_disable ; 0x1a776
        0x0001c5d2:    2800        .(      CMP      r0,#0
        0x0001c5d4:    d1ce        ..      BNE      0x1c574 ; am_hal_mspi_interrupt_service + 492
        0x0001c5d6:    2000        .       MOVS     r0,#0
        0x0001c5d8:    f2c40006    ....    MOVT     r0,#0x4006
        0x0001c5dc:    eb00300b    ...0    ADD      r0,r0,r11,LSL #12
        0x0001c5e0:    f8d01100    ....    LDR      r1,[r0,#0x100]
        0x0001c5e4:    f6090228    ..(.    ADD      r2,r9,#0x828
        0x0001c5e8:    f0210103    !...    BIC      r1,r1,#3
        0x0001c5ec:    f8c01100    ....    STR      r1,[r0,#0x100]
        0x0001c5f0:    6b01        .k      LDR      r1,[r0,#0x30]
        0x0001c5f2:    f0214180    !..A    BIC      r1,r1,#0x40000000
        0x0001c5f6:    6301        .c      STR      r1,[r0,#0x30]
        0x0001c5f8:    6b01        .k      LDR      r1,[r0,#0x30]
        0x0001c5fa:    f0414180    A..A    ORR      r1,r1,#0x40000000
        0x0001c5fe:    6301        .c      STR      r1,[r0,#0x30]
        0x0001c600:    f8d012ac    ....    LDR      r1,[r0,#0x2ac]
        0x0001c604:    f8c012ac    ....    STR      r1,[r0,#0x2ac]
        0x0001c608:    6810        .h      LDR      r0,[r2,#0]
        0x0001c60a:    f7fef8f5    ....    BL       am_hal_cmdq_error_resume ; 0x1a7f8
        0x0001c60e:    6a20         j      LDR      r0,[r4,#0x20]
        0x0001c610:    b148        H.      CBZ      r0,0x1c626 ; am_hal_mspi_interrupt_service + 670
        0x0001c612:    f8d40828    ..(.    LDR      r0,[r4,#0x828]
        0x0001c616:    f7fef8c8    ....    BL       am_hal_cmdq_enable ; 0x1a7aa
        0x0001c61a:    2800        .(      CMP      r0,#0
        0x0001c61c:    d1aa        ..      BNE      0x1c574 ; am_hal_mspi_interrupt_service + 492
        0x0001c61e:    6a20         j      LDR      r0,[r4,#0x20]
        0x0001c620:    2800        .(      CMP      r0,#0
        0x0001c622:    f47faf48    ..H.    BNE      0x1c4b6 ; am_hal_mspi_interrupt_service + 302
        0x0001c626:    f8d40828    ..(.    LDR      r0,[r4,#0x828]
        0x0001c62a:    f7fef8a4    ....    BL       am_hal_cmdq_disable ; 0x1a776
        0x0001c62e:    2800        .(      CMP      r0,#0
        0x0001c630:    d1a0        ..      BNE      0x1c574 ; am_hal_mspi_interrupt_service + 492
        0x0001c632:    e733        3.      B        0x1c49c ; am_hal_mspi_interrupt_service + 276
    am_hal_mspi_interrupt_status_get
        0x0001c634:    b1e8        ..      CBZ      r0,0x1c672 ; am_hal_mspi_interrupt_status_get + 62
        0x0001c636:    6803        .h      LDR      r3,[r0,#0]
        0x0001c638:    f0234c7e    #.~L    BIC      r12,r3,#0xfe000000
        0x0001c63c:    f64b63be    K..c    MOV      r3,#0xbebe
        0x0001c640:    f2c013be    ....    MOVT     r3,#0x1be
        0x0001c644:    459c        .E      CMP      r12,r3
        0x0001c646:    d114        ..      BNE      0x1c672 ; am_hal_mspi_interrupt_status_get + 62
        0x0001c648:    6843        Ch      LDR      r3,[r0,#4]
        0x0001c64a:    f2402004    @..     MOVW     r0,#0x204
        0x0001c64e:    ea4f3c03    O..<    LSL      r12,r3,#12
        0x0001c652:    f2c40006    ....    MOVT     r0,#0x4006
        0x0001c656:    f850000c    P...    LDR      r0,[r0,r12]
        0x0001c65a:    b13a        :.      CBZ      r2,0x1c66c ; am_hal_mspi_interrupt_status_get + 56
        0x0001c65c:    2200        ."      MOVS     r2,#0
        0x0001c65e:    f2c40206    ....    MOVT     r2,#0x4006
        0x0001c662:    eb023203    ...2    ADD      r2,r2,r3,LSL #12
        0x0001c666:    f8d22200    ..."    LDR      r2,[r2,#0x200]
        0x0001c66a:    4010        .@      ANDS     r0,r0,r2
        0x0001c66c:    6008        .`      STR      r0,[r1,#0]
        0x0001c66e:    2000        .       MOVS     r0,#0
        0x0001c670:    4770        pG      BX       lr
        0x0001c672:    2002        .       MOVS     r0,#2
        0x0001c674:    4770        pG      BX       lr
    am_hal_mspi_nonblocking_transfer
        0x0001c676:    e92d43f0    -..C    PUSH     {r4-r9,lr}
        0x0001c67a:    b083        ..      SUB      sp,sp,#0xc
        0x0001c67c:    b1e0        ..      CBZ      r0,0x1c6b8 ; am_hal_mspi_nonblocking_transfer + 66
        0x0001c67e:    4604        .F      MOV      r4,r0
        0x0001c680:    6800        .h      LDR      r0,[r0,#0]
        0x0001c682:    460f        .F      MOV      r7,r1
        0x0001c684:    f64b61be    K..a    MOV      r1,#0xbebe
        0x0001c688:    f020407e     .~@    BIC      r0,r0,#0xfe000000
        0x0001c68c:    f2c011be    ....    MOVT     r1,#0x1be
        0x0001c690:    4288        .B      CMP      r0,r1
        0x0001c692:    d111        ..      BNE      0x1c6b8 ; am_hal_mspi_nonblocking_transfer + 66
        0x0001c694:    69a0        .i      LDR      r0,[r4,#0x18]
        0x0001c696:    b168        h.      CBZ      r0,0x1c6b4 ; am_hal_mspi_nonblocking_transfer + 62
        0x0001c698:    f894082c    ..,.    LDRB     r0,[r4,#0x82c]
        0x0001c69c:    2802        .(      CMP      r0,#2
        0x0001c69e:    d009        ..      BEQ      0x1c6b4 ; am_hal_mspi_nonblocking_transfer + 62
        0x0001c6a0:    7aa1        .z      LDRB     r1,[r4,#0xa]
        0x0001c6a2:    4698        .F      MOV      r8,r3
        0x0001c6a4:    f00101fe    ....    AND      r1,r1,#0xfe
        0x0001c6a8:    4615        .F      MOV      r5,r2
        0x0001c6aa:    290a        .)      CMP      r1,#0xa
        0x0001c6ac:    d109        ..      BNE      0x1c6c2 ; am_hal_mspi_nonblocking_transfer + 76
        0x0001c6ae:    7a39        9z      LDRB     r1,[r7,#8]
        0x0001c6b0:    0789        ..      LSLS     r1,r1,#30
        0x0001c6b2:    d006        ..      BEQ      0x1c6c2 ; am_hal_mspi_nonblocking_transfer + 76
        0x0001c6b4:    2607        .&      MOVS     r6,#7
        0x0001c6b6:    e000        ..      B        0x1c6ba ; am_hal_mspi_nonblocking_transfer + 68
        0x0001c6b8:    2602        .&      MOVS     r6,#2
        0x0001c6ba:    4630        0F      MOV      r0,r6
        0x0001c6bc:    b003        ..      ADD      sp,sp,#0xc
        0x0001c6be:    e8bd83f0    ....    POP      {r4-r9,pc}
        0x0001c6c2:    f1b80f00    ....    CMP      r8,#0
        0x0001c6c6:    46c1        .F      MOV      r9,r8
        0x0001c6c8:    d113        ..      BNE      0x1c6f2 ; am_hal_mspi_nonblocking_transfer + 124
        0x0001c6ca:    f8d41838    ..8.    LDR      r1,[r4,#0x838]
        0x0001c6ce:    4308        .C      ORRS     r0,r0,r1
        0x0001c6d0:    d10d        ..      BNE      0x1c6ee ; am_hal_mspi_nonblocking_transfer + 120
        0x0001c6d2:    f8d40858    ..X.    LDR      r0,[r4,#0x858]
        0x0001c6d6:    f8d4185c    ..\.    LDR      r1,[r4,#0x85c]
        0x0001c6da:    f24f79ff    O..y    MOV      r9,#0xf7ff
        0x0001c6de:    f2c00901    ....    MOVT     r9,#1
        0x0001c6e2:    ebb10f50    ..P.    CMP      r1,r0,LSR #1
        0x0001c6e6:    bf38        8.      IT       CC
        0x0001c6e8:    f04f0900    O...    MOVCC    r9,#0
        0x0001c6ec:    e001        ..      B        0x1c6f2 ; am_hal_mspi_nonblocking_transfer + 124
        0x0001c6ee:    f04f0900    O...    MOV      r9,#0
        0x0001c6f2:    6a20         j      LDR      r0,[r4,#0x20]
        0x0001c6f4:    f5b07f80    ....    CMP      r0,#0x100
        0x0001c6f8:    d101        ..      BNE      0x1c6fe ; am_hal_mspi_nonblocking_transfer + 136
        0x0001c6fa:    2605        .&      MOVS     r6,#5
        0x0001c6fc:    e7dd        ..      B        0x1c6ba ; am_hal_mspi_nonblocking_transfer + 68
        0x0001c6fe:    1e68        h.      SUBS     r0,r5,#1
        0x0001c700:    fab0f080    ....    CLZ      r0,r0
        0x0001c704:    0940        @.      LSRS     r0,r0,#5
        0x0001c706:    00c1        ..      LSLS     r1,r0,#3
        0x0001c708:    f8d40828    ..(.    LDR      r0,[r4,#0x828]
        0x0001c70c:    aa02        ..      ADD      r2,sp,#8
        0x0001c70e:    ab01        ..      ADD      r3,sp,#4
        0x0001c710:    2d00        .-      CMP      r5,#0
        0x0001c712:    bf08        ..      IT       EQ
        0x0001c714:    2103        .!      MOVEQ    r1,#3
        0x0001c716:    f7fdffe1    ....    BL       am_hal_cmdq_alloc_block ; 0x1a6dc
        0x0001c71a:    4606        .F      MOV      r6,r0
        0x0001c71c:    2800        .(      CMP      r0,#0
        0x0001c71e:    d1cc        ..      BNE      0x1c6ba ; am_hal_mspi_nonblocking_transfer + 68
        0x0001c720:    9a02        ..      LDR      r2,[sp,#8]
        0x0001c722:    4620         F      MOV      r0,r4
        0x0001c724:    4629        )F      MOV      r1,r5
        0x0001c726:    463b        ;F      MOV      r3,r7
        0x0001c728:    f001fb59    ..Y.    BL       build_dma_cmdlist ; 0x1ddde
        0x0001c72c:    b128        (.      CBZ      r0,0x1c73a ; am_hal_mspi_nonblocking_transfer + 196
        0x0001c72e:    4606        .F      MOV      r6,r0
        0x0001c730:    f8d40828    ..(.    LDR      r0,[r4,#0x828]
        0x0001c734:    f7fef98b    ....    BL       am_hal_cmdq_release_block ; 0x1aa4e
        0x0001c738:    e7bf        ..      B        0x1c6ba ; am_hal_mspi_nonblocking_transfer + 68
        0x0001c73a:    f89d0004    ....    LDRB     r0,[sp,#4]
        0x0001c73e:    990a        ..      LDR      r1,[sp,#0x28]
        0x0001c740:    eb040080    ....    ADD      r0,r4,r0,LSL #2
        0x0001c744:    f8c09028    ..(.    STR      r9,[r0,#0x28]
        0x0001c748:    f8c01428    ..(.    STR      r1,[r0,#0x428]
        0x0001c74c:    f7fefc72    ..r.    BL       am_hal_interrupt_master_disable ; 0x1b034
        0x0001c750:    4606        .F      MOV      r6,r0
        0x0001c752:    f8d40828    ..(.    LDR      r0,[r4,#0x828]
        0x0001c756:    4649        IF      MOV      r1,r9
        0x0001c758:    f1b90f00    ....    CMP      r9,#0
        0x0001c75c:    bf18        ..      IT       NE
        0x0001c75e:    2101        .!      MOVNE    r1,#1
        0x0001c760:    f7fef90f    ....    BL       am_hal_cmdq_post_block ; 0x1a982
        0x0001c764:    4605        .F      MOV      r5,r0
        0x0001c766:    b138        8.      CBZ      r0,0x1c778 ; am_hal_mspi_nonblocking_transfer + 258
        0x0001c768:    4630        0F      MOV      r0,r6
        0x0001c76a:    f7fefc6b    ..k.    BL       am_hal_interrupt_master_set ; 0x1b044
        0x0001c76e:    f8d40828    ..(.    LDR      r0,[r4,#0x828]
        0x0001c772:    f7fef96c    ..l.    BL       am_hal_cmdq_release_block ; 0x1aa4e
        0x0001c776:    e01c        ..      B        0x1c7b2 ; am_hal_mspi_nonblocking_transfer + 316
        0x0001c778:    6a27        'j      LDR      r7,[r4,#0x20]
        0x0001c77a:    f8d41830    ..0.    LDR      r1,[r4,#0x830]
        0x0001c77e:    1c78        x.      ADDS     r0,r7,#1
        0x0001c780:    6220         b      STR      r0,[r4,#0x20]
        0x0001c782:    1c48        H.      ADDS     r0,r1,#1
        0x0001c784:    f1b80f00    ....    CMP      r8,#0
        0x0001c788:    f8c40830    ..0.    STR      r0,[r4,#0x830]
        0x0001c78c:    d003        ..      BEQ      0x1c796 ; am_hal_mspi_nonblocking_transfer + 288
        0x0001c78e:    2000        .       MOVS     r0,#0
        0x0001c790:    f884082d    ..-.    STRB     r0,[r4,#0x82d]
        0x0001c794:    e007        ..      B        0x1c7a6 ; am_hal_mspi_nonblocking_transfer + 304
        0x0001c796:    f1b90f00    ....    CMP      r9,#0
        0x0001c79a:    d001        ..      BEQ      0x1c7a0 ; am_hal_mspi_nonblocking_transfer + 298
        0x0001c79c:    2000        .       MOVS     r0,#0
        0x0001c79e:    e002        ..      B        0x1c7a6 ; am_hal_mspi_nonblocking_transfer + 304
        0x0001c7a0:    f8d4085c    ..\.    LDR      r0,[r4,#0x85c]
        0x0001c7a4:    3001        .0      ADDS     r0,#1
        0x0001c7a6:    f8c4085c    ..\.    STR      r0,[r4,#0x85c]
        0x0001c7aa:    4630        0F      MOV      r0,r6
        0x0001c7ac:    f7fefc4a    ..J.    BL       am_hal_interrupt_master_set ; 0x1b044
        0x0001c7b0:    b10f        ..      CBZ      r7,0x1c7b6 ; am_hal_mspi_nonblocking_transfer + 320
        0x0001c7b2:    462e        .F      MOV      r6,r5
        0x0001c7b4:    e781        ..      B        0x1c6ba ; am_hal_mspi_nonblocking_transfer + 68
        0x0001c7b6:    f8d40828    ..(.    LDR      r0,[r4,#0x828]
        0x0001c7ba:    f7fdfff6    ....    BL       am_hal_cmdq_enable ; 0x1a7aa
        0x0001c7be:    4606        .F      MOV      r6,r0
        0x0001c7c0:    2800        .(      CMP      r0,#0
        0x0001c7c2:    bf08        ..      IT       EQ
        0x0001c7c4:    462e        .F      MOVEQ    r6,r5
        0x0001c7c6:    e778        x.      B        0x1c6ba ; am_hal_mspi_nonblocking_transfer + 68
    am_hal_mspi_power_control
        0x0001c7c8:    b570        p.      PUSH     {r4-r6,lr}
        0x0001c7ca:    b1b0        ..      CBZ      r0,0x1c7fa ; am_hal_mspi_power_control + 50
        0x0001c7cc:    4604        .F      MOV      r4,r0
        0x0001c7ce:    6800        .h      LDR      r0,[r0,#0]
        0x0001c7d0:    f64b66be    K..f    MOV      r6,#0xbebe
        0x0001c7d4:    4615        .F      MOV      r5,r2
        0x0001c7d6:    f2c016be    ....    MOVT     r6,#0x1be
        0x0001c7da:    f020427e     .~B    BIC      r2,r0,#0xfe000000
        0x0001c7de:    42b2        .B      CMP      r2,r6
        0x0001c7e0:    d10b        ..      BNE      0x1c7fa ; am_hal_mspi_power_control + 50
        0x0001c7e2:    1e4a        J.      SUBS     r2,r1,#1
        0x0001c7e4:    2a02        .*      CMP      r2,#2
        0x0001c7e6:    d20a        ..      BCS      0x1c7fe ; am_hal_mspi_power_control + 54
        0x0001c7e8:    f8d41840    ..@.    LDR      r1,[r4,#0x840]
        0x0001c7ec:    b919        ..      CBNZ     r1,0x1c7f6 ; am_hal_mspi_power_control + 46
        0x0001c7ee:    6a21        !j      LDR      r1,[r4,#0x20]
        0x0001c7f0:    2900        .)      CMP      r1,#0
        0x0001c7f2:    f00080c4    ....    BEQ.W    0x1c97e ; am_hal_mspi_power_control + 438
        0x0001c7f6:    2003        .       MOVS     r0,#3
        0x0001c7f8:    bd70        p.      POP      {r4-r6,pc}
        0x0001c7fa:    2002        .       MOVS     r0,#2
        0x0001c7fc:    bd70        p.      POP      {r4-r6,pc}
        0x0001c7fe:    2900        .)      CMP      r1,#0
        0x0001c800:    f04080bb    @...    BNE.W    0x1c97a ; am_hal_mspi_power_control + 434
        0x0001c804:    b125        %.      CBZ      r5,0x1c810 ; am_hal_mspi_power_control + 72
        0x0001c806:    f8940860    ..`.    LDRB     r0,[r4,#0x860]
        0x0001c80a:    2800        .(      CMP      r0,#0
        0x0001c80c:    f0008143    ..C.    BEQ.W    0x1ca96 ; am_hal_mspi_power_control + 718
        0x0001c810:    7920         y      LDRB     r0,[r4,#4]
        0x0001c812:    300e        .0      ADDS     r0,r0,#0xe
        0x0001c814:    b2c0        ..      UXTB     r0,r0
        0x0001c816:    f000fbf1    ....    BL       am_hal_pwrctrl_periph_enable ; 0x1cffc
        0x0001c81a:    2d00        .-      CMP      r5,#0
        0x0001c81c:    f0008139    ..9.    BEQ.W    0x1ca92 ; am_hal_mspi_power_control + 714
        0x0001c820:    6862        bh      LDR      r2,[r4,#4]
        0x0001c822:    2000        .       MOVS     r0,#0
        0x0001c824:    f8d41864    ..d.    LDR      r1,[r4,#0x864]
        0x0001c828:    f2c40006    ....    MOVT     r0,#0x4006
        0x0001c82c:    eb003202    ...2    ADD      r2,r0,r2,LSL #12
        0x0001c830:    f8c21080    ....    STR      r1,[r2,#0x80]
        0x0001c834:    6861        ah      LDR      r1,[r4,#4]
        0x0001c836:    f8d42868    ..h(    LDR      r2,[r4,#0x868]
        0x0001c83a:    eb003101    ...1    ADD      r1,r0,r1,LSL #12
        0x0001c83e:    f8c12084    ...     STR      r2,[r1,#0x84]
        0x0001c842:    6861        ah      LDR      r1,[r4,#4]
        0x0001c844:    f8d4286c    ..l(    LDR      r2,[r4,#0x86c]
        0x0001c848:    eb003101    ...1    ADD      r1,r0,r1,LSL #12
        0x0001c84c:    f8c12088    ...     STR      r2,[r1,#0x88]
        0x0001c850:    6861        ah      LDR      r1,[r4,#4]
        0x0001c852:    f8d42870    ..p(    LDR      r2,[r4,#0x870]
        0x0001c856:    eb003101    ...1    ADD      r1,r0,r1,LSL #12
        0x0001c85a:    f8c1208c    ...     STR      r2,[r1,#0x8c]
        0x0001c85e:    6861        ah      LDR      r1,[r4,#4]
        0x0001c860:    f8d42874    ..t(    LDR      r2,[r4,#0x874]
        0x0001c864:    eb003101    ...1    ADD      r1,r0,r1,LSL #12
        0x0001c868:    f8c12090    ...     STR      r2,[r1,#0x90]
        0x0001c86c:    6861        ah      LDR      r1,[r4,#4]
        0x0001c86e:    f8d42878    ..x(    LDR      r2,[r4,#0x878]
        0x0001c872:    eb003101    ...1    ADD      r1,r0,r1,LSL #12
        0x0001c876:    f8c12094    ...     STR      r2,[r1,#0x94]
        0x0001c87a:    6861        ah      LDR      r1,[r4,#4]
        0x0001c87c:    f8d4287c    ..|(    LDR      r2,[r4,#0x87c]
        0x0001c880:    eb003101    ...1    ADD      r1,r0,r1,LSL #12
        0x0001c884:    f8c12098    ...     STR      r2,[r1,#0x98]
        0x0001c888:    6861        ah      LDR      r1,[r4,#4]
        0x0001c88a:    f8d42880    ...(    LDR      r2,[r4,#0x880]
        0x0001c88e:    eb003101    ...1    ADD      r1,r0,r1,LSL #12
        0x0001c892:    f8c1209c    ...     STR      r2,[r1,#0x9c]
        0x0001c896:    6861        ah      LDR      r1,[r4,#4]
        0x0001c898:    f8d42884    ...(    LDR      r2,[r4,#0x884]
        0x0001c89c:    eb003101    ...1    ADD      r1,r0,r1,LSL #12
        0x0001c8a0:    f8c120a0    ...     STR      r2,[r1,#0xa0]
        0x0001c8a4:    6861        ah      LDR      r1,[r4,#4]
        0x0001c8a6:    f8d42888    ...(    LDR      r2,[r4,#0x888]
        0x0001c8aa:    eb003101    ...1    ADD      r1,r0,r1,LSL #12
        0x0001c8ae:    630a        .c      STR      r2,[r1,#0x30]
        0x0001c8b0:    6861        ah      LDR      r1,[r4,#4]
        0x0001c8b2:    f8d4288c    ...(    LDR      r2,[r4,#0x88c]
        0x0001c8b6:    eb003101    ...1    ADD      r1,r0,r1,LSL #12
        0x0001c8ba:    644a        Jd      STR      r2,[r1,#0x44]
        0x0001c8bc:    6861        ah      LDR      r1,[r4,#4]
        0x0001c8be:    f8d42890    ...(    LDR      r2,[r4,#0x890]
        0x0001c8c2:    eb003101    ...1    ADD      r1,r0,r1,LSL #12
        0x0001c8c6:    648a        .d      STR      r2,[r1,#0x48]
        0x0001c8c8:    6861        ah      LDR      r1,[r4,#4]
        0x0001c8ca:    f8d42894    ...(    LDR      r2,[r4,#0x894]
        0x0001c8ce:    eb003101    ...1    ADD      r1,r0,r1,LSL #12
        0x0001c8d2:    64ca        .d      STR      r2,[r1,#0x4c]
        0x0001c8d4:    6861        ah      LDR      r1,[r4,#4]
        0x0001c8d6:    f8d4289c    ...(    LDR      r2,[r4,#0x89c]
        0x0001c8da:    eb003101    ...1    ADD      r1,r0,r1,LSL #12
        0x0001c8de:    f8c122a8    ..."    STR      r2,[r1,#0x2a8]
        0x0001c8e2:    6861        ah      LDR      r1,[r4,#4]
        0x0001c8e4:    f8d428a0    ...(    LDR      r2,[r4,#0x8a0]
        0x0001c8e8:    eb003101    ...1    ADD      r1,r0,r1,LSL #12
        0x0001c8ec:    f8c122b8    ..."    STR      r2,[r1,#0x2b8]
        0x0001c8f0:    6861        ah      LDR      r1,[r4,#4]
        0x0001c8f2:    f8d428a4    ...(    LDR      r2,[r4,#0x8a4]
        0x0001c8f6:    eb003101    ...1    ADD      r1,r0,r1,LSL #12
        0x0001c8fa:    f8c122c0    ..."    STR      r2,[r1,#0x2c0]
        0x0001c8fe:    6861        ah      LDR      r1,[r4,#4]
        0x0001c900:    f8d428a8    ...(    LDR      r2,[r4,#0x8a8]
        0x0001c904:    eb003101    ...1    ADD      r1,r0,r1,LSL #12
        0x0001c908:    f8c122c4    ..."    STR      r2,[r1,#0x2c4]
        0x0001c90c:    6861        ah      LDR      r1,[r4,#4]
        0x0001c90e:    f8d428ac    ...(    LDR      r2,[r4,#0x8ac]
        0x0001c912:    eb003101    ...1    ADD      r1,r0,r1,LSL #12
        0x0001c916:    f8c12200    ..."    STR      r2,[r1,#0x200]
        0x0001c91a:    6861        ah      LDR      r1,[r4,#4]
        0x0001c91c:    f89428b0    ...(    LDRB     r2,[r4,#0x8b0]
        0x0001c920:    eb003101    ...1    ADD      r1,r0,r1,LSL #12
        0x0001c924:    f8c122b4    ..."    STR      r2,[r1,#0x2b4]
        0x0001c928:    6861        ah      LDR      r1,[r4,#4]
        0x0001c92a:    f8d428b4    ...(    LDR      r2,[r4,#0x8b4]
        0x0001c92e:    eb003101    ...1    ADD      r1,r0,r1,LSL #12
        0x0001c932:    f8c12114    ...!    STR      r2,[r1,#0x114]
        0x0001c936:    6861        ah      LDR      r1,[r4,#4]
        0x0001c938:    f8d428b8    ...(    LDR      r2,[r4,#0x8b8]
        0x0001c93c:    eb003101    ...1    ADD      r1,r0,r1,LSL #12
        0x0001c940:    f8c12118    ...!    STR      r2,[r1,#0x118]
        0x0001c944:    6861        ah      LDR      r1,[r4,#4]
        0x0001c946:    f8d428bc    ...(    LDR      r2,[r4,#0x8bc]
        0x0001c94a:    eb003101    ...1    ADD      r1,r0,r1,LSL #12
        0x0001c94e:    620a        .b      STR      r2,[r1,#0x20]
        0x0001c950:    f8d41898    ....    LDR      r1,[r4,#0x898]
        0x0001c954:    6862        bh      LDR      r2,[r4,#4]
        0x0001c956:    f0210101    !...    BIC      r1,r1,#1
        0x0001c95a:    eb003002    ...0    ADD      r0,r0,r2,LSL #12
        0x0001c95e:    f8c012a0    ....    STR      r1,[r0,#0x2a0]
        0x0001c962:    f8940898    ....    LDRB     r0,[r4,#0x898]
        0x0001c966:    07c0        ..      LSLS     r0,r0,#31
        0x0001c968:    d003        ..      BEQ      0x1c972 ; am_hal_mspi_power_control + 426
        0x0001c96a:    f8d40828    ..(.    LDR      r0,[r4,#0x828]
        0x0001c96e:    f7fdff1c    ....    BL       am_hal_cmdq_enable ; 0x1a7aa
        0x0001c972:    2000        .       MOVS     r0,#0
        0x0001c974:    f8840860    ..`.    STRB     r0,[r4,#0x860]
        0x0001c978:    bd70        p.      POP      {r4-r6,pc}
        0x0001c97a:    2006        .       MOVS     r0,#6
        0x0001c97c:    bd70        p.      POP      {r4-r6,pc}
        0x0001c97e:    2d00        .-      CMP      r5,#0
        0x0001c980:    f2400500    @...    MOVW     r5,#0
        0x0001c984:    f2c40506    ....    MOVT     r5,#0x4006
        0x0001c988:    d065        e.      BEQ      0x1ca56 ; am_hal_mspi_power_control + 654
        0x0001c98a:    6860        `h      LDR      r0,[r4,#4]
        0x0001c98c:    eb053000    ...0    ADD      r0,r5,r0,LSL #12
        0x0001c990:    f8d01080    ....    LDR      r1,[r0,#0x80]
        0x0001c994:    f8c41864    ..d.    STR      r1,[r4,#0x864]
        0x0001c998:    f8d01084    ....    LDR      r1,[r0,#0x84]
        0x0001c99c:    f8c41868    ..h.    STR      r1,[r4,#0x868]
        0x0001c9a0:    f8d01088    ....    LDR      r1,[r0,#0x88]
        0x0001c9a4:    f8c4186c    ..l.    STR      r1,[r4,#0x86c]
        0x0001c9a8:    f8d0108c    ....    LDR      r1,[r0,#0x8c]
        0x0001c9ac:    f8c41870    ..p.    STR      r1,[r4,#0x870]
        0x0001c9b0:    f8d01090    ....    LDR      r1,[r0,#0x90]
        0x0001c9b4:    f8c41874    ..t.    STR      r1,[r4,#0x874]
        0x0001c9b8:    f8d01094    ....    LDR      r1,[r0,#0x94]
        0x0001c9bc:    f8c41878    ..x.    STR      r1,[r4,#0x878]
        0x0001c9c0:    f8d01098    ....    LDR      r1,[r0,#0x98]
        0x0001c9c4:    f8c4187c    ..|.    STR      r1,[r4,#0x87c]
        0x0001c9c8:    f8d0109c    ....    LDR      r1,[r0,#0x9c]
        0x0001c9cc:    f8c41880    ....    STR      r1,[r4,#0x880]
        0x0001c9d0:    f8d010a0    ....    LDR      r1,[r0,#0xa0]
        0x0001c9d4:    f8c41884    ....    STR      r1,[r4,#0x884]
        0x0001c9d8:    6b01        .k      LDR      r1,[r0,#0x30]
        0x0001c9da:    f8c41888    ....    STR      r1,[r4,#0x888]
        0x0001c9de:    6c41        Al      LDR      r1,[r0,#0x44]
        0x0001c9e0:    f8c4188c    ....    STR      r1,[r4,#0x88c]
        0x0001c9e4:    6c81        .l      LDR      r1,[r0,#0x48]
        0x0001c9e6:    f8c41890    ....    STR      r1,[r4,#0x890]
        0x0001c9ea:    6cc1        .l      LDR      r1,[r0,#0x4c]
        0x0001c9ec:    f8c41894    ....    STR      r1,[r4,#0x894]
        0x0001c9f0:    f8d012a8    ....    LDR      r1,[r0,#0x2a8]
        0x0001c9f4:    f8c4189c    ....    STR      r1,[r4,#0x89c]
        0x0001c9f8:    f8d012b8    ....    LDR      r1,[r0,#0x2b8]
        0x0001c9fc:    f8c418a0    ....    STR      r1,[r4,#0x8a0]
        0x0001ca00:    f8d012c0    ....    LDR      r1,[r0,#0x2c0]
        0x0001ca04:    f8c418a4    ....    STR      r1,[r4,#0x8a4]
        0x0001ca08:    f8d012c4    ....    LDR      r1,[r0,#0x2c4]
        0x0001ca0c:    f8c418a8    ....    STR      r1,[r4,#0x8a8]
        0x0001ca10:    f8d01200    ....    LDR      r1,[r0,#0x200]
        0x0001ca14:    f8c418ac    ....    STR      r1,[r4,#0x8ac]
        0x0001ca18:    f8d012b0    ....    LDR      r1,[r0,#0x2b0]
        0x0001ca1c:    f8c418b0    ....    STR      r1,[r4,#0x8b0]
        0x0001ca20:    f8d01114    ....    LDR      r1,[r0,#0x114]
        0x0001ca24:    f8c418b4    ....    STR      r1,[r4,#0x8b4]
        0x0001ca28:    f8d01118    ....    LDR      r1,[r0,#0x118]
        0x0001ca2c:    f8c418b8    ....    STR      r1,[r4,#0x8b8]
        0x0001ca30:    6a01        .j      LDR      r1,[r0,#0x20]
        0x0001ca32:    f8c418bc    ....    STR      r1,[r4,#0x8bc]
        0x0001ca36:    f8d012a0    ....    LDR      r1,[r0,#0x2a0]
        0x0001ca3a:    f8c41898    ....    STR      r1,[r4,#0x898]
        0x0001ca3e:    f8d002a0    ....    LDR      r0,[r0,#0x2a0]
        0x0001ca42:    07c0        ..      LSLS     r0,r0,#31
        0x0001ca44:    d003        ..      BEQ      0x1ca4e ; am_hal_mspi_power_control + 646
        0x0001ca46:    f8d40828    ..(.    LDR      r0,[r4,#0x828]
        0x0001ca4a:    f7fdfe94    ....    BL       am_hal_cmdq_disable ; 0x1a776
        0x0001ca4e:    6820         h      LDR      r0,[r4,#0]
        0x0001ca50:    2101        .!      MOVS     r1,#1
        0x0001ca52:    f8841860    ..`.    STRB     r1,[r4,#0x860]
        0x0001ca56:    f020407e     .~@    BIC      r0,r0,#0xfe000000
        0x0001ca5a:    42b0        .B      CMP      r0,r6
        0x0001ca5c:    d109        ..      BNE      0x1ca72 ; am_hal_mspi_power_control + 682
        0x0001ca5e:    6860        `h      LDR      r0,[r4,#4]
        0x0001ca60:    f64172ff    A..r    MOV      r2,#0x1fff
        0x0001ca64:    eb053000    ...0    ADD      r0,r5,r0,LSL #12
        0x0001ca68:    f8d01200    ....    LDR      r1,[r0,#0x200]
        0x0001ca6c:    4391        .C      BICS     r1,r1,r2
        0x0001ca6e:    f8c01200    ....    STR      r1,[r0,#0x200]
        0x0001ca72:    6860        `h      LDR      r0,[r4,#4]
        0x0001ca74:    eb053100    ...1    ADD      r1,r5,r0,LSL #12
        0x0001ca78:    f8d11090    ....    LDR      r1,[r1,#0x90]
        0x0001ca7c:    07c9        ..      LSLS     r1,r1,#31
        0x0001ca7e:    d004        ..      BEQ      0x1ca8a ; am_hal_mspi_power_control + 706
        0x0001ca80:    2001        .       MOVS     r0,#1
        0x0001ca82:    2100        .!      MOVS     r1,#0
        0x0001ca84:    f7fef886    ....    BL       am_hal_daxi_control ; 0x1ab94
        0x0001ca88:    6860        `h      LDR      r0,[r4,#4]
        0x0001ca8a:    300e        .0      ADDS     r0,r0,#0xe
        0x0001ca8c:    b2c0        ..      UXTB     r0,r0
        0x0001ca8e:    f000fa26    ..&.    BL       am_hal_pwrctrl_periph_disable ; 0x1cede
        0x0001ca92:    2000        .       MOVS     r0,#0
        0x0001ca94:    bd70        p.      POP      {r4-r6,pc}
        0x0001ca96:    2007        .       MOVS     r0,#7
        0x0001ca98:    bd70        p.      POP      {r4-r6,pc}
        0x0001ca9a:    0000        ..      MOVS     r0,r0
    am_hal_pwrctrl_control
        0x0001ca9c:    b510        ..      PUSH     {r4,lr}
        0x0001ca9e:    b082        ..      SUB      sp,sp,#8
        0x0001caa0:    2200        ."      MOVS     r2,#0
        0x0001caa2:    2804        .(      CMP      r0,#4
        0x0001caa4:    9201        ..      STR      r2,[sp,#4]
        0x0001caa6:    f20080a3    ....    BHI.W    0x1cbf0 ; am_hal_pwrctrl_control + 340
        0x0001caaa:    e8dff000    ....    TBB      [pc,r0]
    $d.22
        0x0001caae:    a303        ..      DCW    41731
        0x0001cab0:    009a9387    ....    DCD    10130311
    $t.23
        0x0001cab4:    f2401420    @. .    MOVW     r4,#0x120
        0x0001cab8:    a801        ..      ADD      r0,sp,#4
        0x0001caba:    f2c40402    ....    MOVT     r4,#0x4002
        0x0001cabe:    f7fbfd5d    ..].    BL       TrimVersionGet ; 0x1857c
        0x0001cac2:    9801        ..      LDR      r0,[sp,#4]
        0x0001cac4:    2802        .(      CMP      r0,#2
        0x0001cac6:    d831        1.      BHI      0x1cb2c ; am_hal_pwrctrl_control + 144
        0x0001cac8:    f8d41258    ..X.    LDR      r1,[r4,#0x258]
        0x0001cacc:    220a        ."      MOVS     r2,#0xa
        0x0001cace:    f02151f8    !..Q    BIC      r1,r1,#0x1f000000
        0x0001cad2:    f8c41258    ..X.    STR      r1,[r4,#0x258]
        0x0001cad6:    f8d41238    ..8.    LDR      r1,[r4,#0x238]
        0x0001cada:    f42101f8    !...    BIC      r1,r1,#0x7c0000
        0x0001cade:    f8c41238    ..8.    STR      r1,[r4,#0x238]
        0x0001cae2:    f8d41224    ..$.    LDR      r1,[r4,#0x224]
        0x0001cae6:    f362611c    b..a    BFI      r1,r2,#24,#5
        0x0001caea:    f8c41224    ..$.    STR      r1,[r4,#0x224]
        0x0001caee:    f8d41224    ..$.    LDR      r1,[r4,#0x224]
        0x0001caf2:    f36221ce    b..!    BFI      r1,r2,#11,#4
        0x0001caf6:    f8c41224    ..$.    STR      r1,[r4,#0x224]
        0x0001cafa:    f8d41238    ..8.    LDR      r1,[r4,#0x238]
        0x0001cafe:    220f        ."      MOVS     r2,#0xf
        0x0001cb00:    f362210c    b..!    BFI      r1,r2,#8,#5
        0x0001cb04:    f8c41238    ..8.    STR      r1,[r4,#0x238]
        0x0001cb08:    f8d41234    ..4.    LDR      r1,[r4,#0x234]
        0x0001cb0c:    f44111f0    A...    ORR      r1,r1,#0x1e0000
        0x0001cb10:    f8c41234    ..4.    STR      r1,[r4,#0x234]
        0x0001cb14:    f8d41240    ..@.    LDR      r1,[r4,#0x240]
        0x0001cb18:    f362519a    b..Q    BFI      r1,r2,#22,#5
        0x0001cb1c:    f8c41240    ..@.    STR      r1,[r4,#0x240]
        0x0001cb20:    f8d41240    ..@.    LDR      r1,[r4,#0x240]
        0x0001cb24:    f44111f0    A...    ORR      r1,r1,#0x1e0000
        0x0001cb28:    f8c41240    ..@.    STR      r1,[r4,#0x240]
        0x0001cb2c:    f8d41228    ..(.    LDR      r1,[r4,#0x228]
        0x0001cb30:    220a        ."      MOVS     r2,#0xa
        0x0001cb32:    f362619d    b..a    BFI      r1,r2,#26,#4
        0x0001cb36:    f8c41228    ..(.    STR      r1,[r4,#0x228]
        0x0001cb3a:    f8d41228    ..(.    LDR      r1,[r4,#0x228]
        0x0001cb3e:    2802        .(      CMP      r0,#2
        0x0001cb40:    f3623150    b.P1    BFI      r1,r2,#13,#4
        0x0001cb44:    f8c41228    ..(.    STR      r1,[r4,#0x228]
        0x0001cb48:    f8d4123c    ..<.    LDR      r1,[r4,#0x23c]
        0x0001cb4c:    f24012e0    @...    MOVW     r2,#0x1e0
        0x0001cb50:    f0417170    A.pq    ORR      r1,r1,#0x3c00000
        0x0001cb54:    f8c4123c    ..<.    STR      r1,[r4,#0x23c]
        0x0001cb58:    f8d4123c    ..<.    LDR      r1,[r4,#0x23c]
        0x0001cb5c:    f2c10200    ....    MOVT     r2,#0x1000
        0x0001cb60:    f44151f0    A..Q    ORR      r1,r1,#0x1e00
        0x0001cb64:    f8c4123c    ..<.    STR      r1,[r4,#0x23c]
        0x0001cb68:    f8d41260    ..`.    LDR      r1,[r4,#0x260]
        0x0001cb6c:    f0414100    A..A    ORR      r1,r1,#0x80000000
        0x0001cb70:    f8c41260    ..`.    STR      r1,[r4,#0x260]
        0x0001cb74:    f8d41260    ..`.    LDR      r1,[r4,#0x260]
        0x0001cb78:    f0414180    A..A    ORR      r1,r1,#0x40000000
        0x0001cb7c:    f8c41260    ..`.    STR      r1,[r4,#0x260]
        0x0001cb80:    f8d41250    ..P.    LDR      r1,[r4,#0x250]
        0x0001cb84:    f3c15105    ...Q    UBFX     r1,r1,#20,#6
        0x0001cb88:    6011        .`      STR      r1,[r2,#0]
        0x0001cb8a:    f8d41250    ..P.    LDR      r1,[r4,#0x250]
        0x0001cb8e:    f021717c    !.|q    BIC      r1,r1,#0x3f00000
        0x0001cb92:    f8c41250    ..P.    STR      r1,[r4,#0x250]
        0x0001cb96:    f04f0107    O...    MOV      r1,#7
        0x0001cb9a:    f8c4121c    ....    STR      r1,[r4,#0x21c]
        0x0001cb9e:    d837        7.      BHI      0x1cc10 ; am_hal_pwrctrl_control + 372
        0x0001cba0:    f8d40220    .. .    LDR      r0,[r4,#0x220]
        0x0001cba4:    2101        .!      MOVS     r1,#1
        0x0001cba6:    f0207070     .pp    BIC      r0,r0,#0x3c00000
        0x0001cbaa:    f8c40220    .. .    STR      r0,[r4,#0x220]
        0x0001cbae:    f8d40220    .. .    LDR      r0,[r4,#0x220]
        0x0001cbb2:    f361108a    a...    BFI      r0,r1,#6,#5
        0x0001cbb6:    f8c40220    .. .    STR      r0,[r4,#0x220]
        0x0001cbba:    e034        4.      B        0x1cc26 ; am_hal_pwrctrl_control + 394
        0x0001cbbc:    f2401020    @. .    MOVW     r0,#0x120
        0x0001cbc0:    f2c40002    ....    MOVT     r0,#0x4002
        0x0001cbc4:    6841        Ah      LDR      r1,[r0,#4]
        0x0001cbc6:    2220         "      MOVS     r2,#0x20
        0x0001cbc8:    f3620187    b...    BFI      r1,r2,#2,#6
        0x0001cbcc:    6041        A`      STR      r1,[r0,#4]
        0x0001cbce:    2101        .!      MOVS     r1,#1
        0x0001cbd0:    6001        .`      STR      r1,[r0,#0]
        0x0001cbd2:    e03a        :.      B        0x1cc4a ; am_hal_pwrctrl_control + 430
        0x0001cbd4:    f2410104    A...    MOV      r1,#0x1004
        0x0001cbd8:    f2c40102    ....    MOVT     r1,#0x4002
        0x0001cbdc:    2000        .       MOVS     r0,#0
        0x0001cbde:    6008        .`      STR      r0,[r1,#0]
        0x0001cbe0:    e034        4.      B        0x1cc4c ; am_hal_pwrctrl_control + 432
        0x0001cbe2:    b129        ).      CBZ      r1,0x1cbf0 ; am_hal_pwrctrl_control + 340
        0x0001cbe4:    f24850e8    H..P    MOV      r0,#0x85e8
        0x0001cbe8:    f2c10000    ....    MOVT     r0,#0x1000
        0x0001cbec:    6800        .h      LDR      r0,[r0,#0]
        0x0001cbee:    6008        .`      STR      r0,[r1,#0]
        0x0001cbf0:    2006        .       MOVS     r0,#6
        0x0001cbf2:    e02b        +.      B        0x1cc4c ; am_hal_pwrctrl_control + 432
        0x0001cbf4:    f2410004    A...    MOV      r0,#0x1004
        0x0001cbf8:    f2c40002    ....    MOVT     r0,#0x4002
        0x0001cbfc:    6840        @h      LDR      r0,[r0,#4]
        0x0001cbfe:    02c0        ..      LSLS     r0,r0,#11
        0x0001cc00:    d523        #.      BPL      0x1cc4a ; am_hal_pwrctrl_control + 430
        0x0001cc02:    2014        .       MOVS     r0,#0x14
        0x0001cc04:    f000f96b    ..k.    BL       am_hal_pwrctrl_periph_disable ; 0x1cede
        0x0001cc08:    2800        .(      CMP      r0,#0
        0x0001cc0a:    bf08        ..      IT       EQ
        0x0001cc0c:    2000        .       MOVEQ    r0,#0
        0x0001cc0e:    e01d        ..      B        0x1cc4c ; am_hal_pwrctrl_control + 432
        0x0001cc10:    2806        .(      CMP      r0,#6
        0x0001cc12:    d308        ..      BCC      0x1cc26 ; am_hal_pwrctrl_control + 394
        0x0001cc14:    200f        .       MOVS     r0,#0xf
        0x0001cc16:    f8c4021c    ....    STR      r0,[r4,#0x21c]
        0x0001cc1a:    f8d40090    ....    LDR      r0,[r4,#0x90]
        0x0001cc1e:    f0200018     ...    BIC      r0,r0,#0x18
        0x0001cc22:    f8c40090    ....    STR      r0,[r4,#0x90]
        0x0001cc26:    f2410004    A...    MOV      r0,#0x1004
        0x0001cc2a:    f2c40002    ....    MOVT     r0,#0x4002
        0x0001cc2e:    f8d010fc    ....    LDR      r1,[r0,#0xfc]
        0x0001cc32:    f0410101    A...    ORR      r1,r1,#1
        0x0001cc36:    f8c010fc    ....    STR      r1,[r0,#0xfc]
        0x0001cc3a:    f8d40258    ..X.    LDR      r0,[r4,#0x258]
        0x0001cc3e:    f0404000    @..@    ORR      r0,r0,#0x80000000
        0x0001cc42:    f8c40258    ..X.    STR      r0,[r4,#0x258]
        0x0001cc46:    f001f889    ....    BL       buck_ldo_override_init ; 0x1dd5c
        0x0001cc4a:    2000        .       MOVS     r0,#0
        0x0001cc4c:    b002        ..      ADD      sp,sp,#8
        0x0001cc4e:    bd10        ..      POP      {r4,pc}
    am_hal_pwrctrl_low_power_init
        0x0001cc50:    b570        p.      PUSH     {r4-r6,lr}
        0x0001cc52:    b082        ..      SUB      sp,sp,#8
        0x0001cc54:    f64f60c8    O..`    MOV      r0,#0xfec8
        0x0001cc58:    f2411540    A.@.    MOVW     r5,#0x1140
        0x0001cc5c:    f6cf70ff    ...p    MOVT     r0,#0xffff
        0x0001cc60:    f2c40502    ....    MOVT     r5,#0x4002
        0x0001cc64:    5828        (X      LDR      r0,[r5,r0]
        0x0001cc66:    f24851c4    H..Q    MOV      r1,#0x85c4
        0x0001cc6a:    f3c05000    ...P    UBFX     r0,r0,#20,#1
        0x0001cc6e:    f2c10100    ....    MOVT     r1,#0x1000
        0x0001cc72:    7008        .p      STRB     r0,[r1,#0]
        0x0001cc74:    f2404074    @.t@    MOV      r0,#0x474
        0x0001cc78:    2444        D$      MOVS     r4,#0x44
        0x0001cc7a:    f2c00002    ....    MOVT     r0,#2
        0x0001cc7e:    f2c40402    ....    MOVT     r4,#0x4002
        0x0001cc82:    f000f8af    ....    BL       am_hal_pwrctrl_mcu_memory_config ; 0x1cde4
        0x0001cc86:    f240407a    @.z@    MOV      r0,#0x47a
        0x0001cc8a:    f2c00002    ....    MOVT     r0,#2
        0x0001cc8e:    f000fa0f    ....    BL       am_hal_pwrctrl_sram_config ; 0x1d0b0
        0x0001cc92:    f2440644    D.D.    MOV      r6,#0x4044
        0x0001cc96:    f2c40600    ....    MOVT     r6,#0x4000
        0x0001cc9a:    6830        0h      LDR      r0,[r6,#0]
        0x0001cc9c:    f440007c    @.|.    ORR      r0,r0,#0xfc0000
        0x0001cca0:    6030        0`      STR      r0,[r6,#0]
        0x0001cca2:    2000        .       MOVS     r0,#0
        0x0001cca4:    6028        (`      STR      r0,[r5,#0]
        0x0001cca6:    6068        h`      STR      r0,[r5,#4]
        0x0001cca8:    60a8        .`      STR      r0,[r5,#8]
        0x0001ccaa:    60e8        .`      STR      r0,[r5,#0xc]
        0x0001ccac:    6128        (a      STR      r0,[r5,#0x10]
        0x0001ccae:    6168        ha      STR      r0,[r5,#0x14]
        0x0001ccb0:    61a8        .a      STR      r0,[r5,#0x18]
        0x0001ccb2:    61e8        .a      STR      r0,[r5,#0x1c]
        0x0001ccb4:    6228        (b      STR      r0,[r5,#0x20]
        0x0001ccb6:    6268        hb      STR      r0,[r5,#0x24]
        0x0001ccb8:    62a8        .b      STR      r0,[r5,#0x28]
        0x0001ccba:    62e8        .b      STR      r0,[r5,#0x2c]
        0x0001ccbc:    6328        (c      STR      r0,[r5,#0x30]
        0x0001ccbe:    6368        hc      STR      r0,[r5,#0x34]
        0x0001ccc0:    63a8        .c      STR      r0,[r5,#0x38]
        0x0001ccc2:    63e8        .c      STR      r0,[r5,#0x3c]
        0x0001ccc4:    6428        (d      STR      r0,[r5,#0x40]
        0x0001ccc6:    6468        hd      STR      r0,[r5,#0x44]
        0x0001ccc8:    64a8        .d      STR      r0,[r5,#0x48]
        0x0001ccca:    f2400090    @...    MOVW     r0,#0x90
        0x0001ccce:    f2c00002    ....    MOVT     r0,#2
        0x0001ccd2:    f7fdff2c    ..,.    BL       am_hal_daxi_config ; 0x1ab2e
        0x0001ccd6:    2064        d       MOVS     r0,#0x64
        0x0001ccd8:    f7fef86c    ..l.    BL       am_hal_delay_us ; 0x1adb4
        0x0001ccdc:    6830        0h      LDR      r0,[r6,#0]
        0x0001ccde:    2104        .!      MOVS     r1,#4
        0x0001cce0:    f0400040    @.@.    ORR      r0,r0,#0x40
        0x0001cce4:    6030        0`      STR      r0,[r6,#0]
        0x0001cce6:    f8d40338    ..8.    LDR      r0,[r4,#0x338]
        0x0001ccea:    f04060b0    @..`    ORR      r0,r0,#0x5800000
        0x0001ccee:    f44000fd    @...    ORR      r0,r0,#0x7e8000
        0x0001ccf2:    f8c40338    ..8.    STR      r0,[r4,#0x338]
        0x0001ccf6:    f8d40400    ....    LDR      r0,[r4,#0x400]
        0x0001ccfa:    f361200f    a..     BFI      r0,r1,#8,#8
        0x0001ccfe:    f24851c5    H..Q    MOV      r1,#0x85c5
        0x0001cd02:    f8c40400    ....    STR      r0,[r4,#0x400]
        0x0001cd06:    f2c10100    ....    MOVT     r1,#0x1000
        0x0001cd0a:    7808        .x      LDRB     r0,[r1,#0]
        0x0001cd0c:    2801        .(      CMP      r0,#1
        0x0001cd0e:    d10a        ..      BNE      0x1cd26 ; am_hal_pwrctrl_low_power_init + 214
        0x0001cd10:    f24850d0    H..P    MOV      r0,#0x85d0
        0x0001cd14:    f24851dc    H..Q    MOV      r1,#0x85dc
        0x0001cd18:    f2c10000    ....    MOVT     r0,#0x1000
        0x0001cd1c:    f2c10100    ....    MOVT     r1,#0x1000
        0x0001cd20:    6800        .h      LDR      r0,[r0,#0]
        0x0001cd22:    680a        .h      LDR      r2,[r1,#0]
        0x0001cd24:    e032        2.      B        0x1cd8c ; am_hal_pwrctrl_low_power_init + 316
        0x0001cd26:    f8d40328    ..(.    LDR      r0,[r4,#0x328]
        0x0001cd2a:    f24852d0    H..R    MOV      r2,#0x85d0
        0x0001cd2e:    f3c05005    ...P    UBFX     r0,r0,#20,#6
        0x0001cd32:    f2c10200    ....    MOVT     r2,#0x1000
        0x0001cd36:    6010        .`      STR      r0,[r2,#0]
        0x0001cd38:    6c62        bl      LDR      r2,[r4,#0x44]
        0x0001cd3a:    f24853dc    H..S    MOV      r3,#0x85dc
        0x0001cd3e:    f002023f    ..?.    AND      r2,r2,#0x3f
        0x0001cd42:    f2c10300    ....    MOVT     r3,#0x1000
        0x0001cd46:    601a        .`      STR      r2,[r3,#0]
        0x0001cd48:    f8d43328    ..(3    LDR      r3,[r4,#0x328]
        0x0001cd4c:    f24856d8    H..V    MOV      r6,#0x85d8
        0x0001cd50:    0e9b        ..      LSRS     r3,r3,#26
        0x0001cd52:    f2c10600    ....    MOVT     r6,#0x1000
        0x0001cd56:    6033        3`      STR      r3,[r6,#0]
        0x0001cd58:    6c63        cl      LDR      r3,[r4,#0x44]
        0x0001cd5a:    f24856e0    H..V    MOV      r6,#0x85e0
        0x0001cd5e:    f3c34385    ...C    UBFX     r3,r3,#18,#6
        0x0001cd62:    f2c10600    ....    MOVT     r6,#0x1000
        0x0001cd66:    6033        3`      STR      r3,[r6,#0]
        0x0001cd68:    6823        #h      LDR      r3,[r4,#0]
        0x0001cd6a:    f24856e4    H..V    MOV      r6,#0x85e4
        0x0001cd6e:    f3c313c6    ....    UBFX     r3,r3,#7,#7
        0x0001cd72:    f2c10600    ....    MOVT     r6,#0x1000
        0x0001cd76:    6033        3`      STR      r3,[r6,#0]
        0x0001cd78:    6be3        .k      LDR      r3,[r4,#0x3c]
        0x0001cd7a:    f24856d4    H..V    MOV      r6,#0x85d4
        0x0001cd7e:    f36f239f    o..#    BFC      r3,#10,#22
        0x0001cd82:    f2c10600    ....    MOVT     r6,#0x1000
        0x0001cd86:    6033        3`      STR      r3,[r6,#0]
        0x0001cd88:    2301        .#      MOVS     r3,#1
        0x0001cd8a:    700b        .p      STRB     r3,[r1,#0]
        0x0001cd8c:    f24851cc    H..Q    MOV      r1,#0x85cc
        0x0001cd90:    f2c10100    ....    MOVT     r1,#0x1000
        0x0001cd94:    6008        .`      STR      r0,[r1,#0]
        0x0001cd96:    f24850c8    H..P    MOV      r0,#0x85c8
        0x0001cd9a:    f2c10000    ....    MOVT     r0,#0x1000
        0x0001cd9e:    f64814f0    H...    MOV      r4,#0x89f0
        0x0001cda2:    6002        .`      STR      r2,[r0,#0]
        0x0001cda4:    f2c10400    ....    MOVT     r4,#0x1000
        0x0001cda8:    2000        .       MOVS     r0,#0
        0x0001cdaa:    6020         `      STR      r0,[r4,#0]
        0x0001cdac:    ab01        ..      ADD      r3,sp,#4
        0x0001cdae:    2001        .       MOVS     r0,#1
        0x0001cdb0:    f44f6192    O..a    MOV      r1,#0x490
        0x0001cdb4:    2201        ."      MOVS     r2,#1
        0x0001cdb6:    f7fef983    ....    BL       am_hal_mram_info_read ; 0x1b0c0
        0x0001cdba:    b978        x.      CBNZ     r0,0x1cddc ; am_hal_pwrctrl_low_power_init + 396
        0x0001cdbc:    9801        ..      LDR      r0,[sp,#4]
        0x0001cdbe:    f0100f06    ....    TST      r0,#6
        0x0001cdc2:    d003        ..      BEQ      0x1cdcc ; am_hal_pwrctrl_low_power_init + 380
        0x0001cdc4:    0781        ..      LSLS     r1,r0,#30
        0x0001cdc6:    d403        ..      BMI      0x1cdd0 ; am_hal_pwrctrl_low_power_init + 384
        0x0001cdc8:    2006        .       MOVS     r0,#6
        0x0001cdca:    e006        ..      B        0x1cdda ; am_hal_pwrctrl_low_power_init + 394
        0x0001cdcc:    2003        .       MOVS     r0,#3
        0x0001cdce:    e004        ..      B        0x1cdda ; am_hal_pwrctrl_low_power_init + 394
        0x0001cdd0:    0740        @.      LSLS     r0,r0,#29
        0x0001cdd2:    f04f0000    O...    MOV      r0,#0
        0x0001cdd6:    bf58        X.      IT       PL
        0x0001cdd8:    2009        .       MOVPL    r0,#9
        0x0001cdda:    6020         `      STR      r0,[r4,#0]
        0x0001cddc:    2000        .       MOVS     r0,#0
        0x0001cdde:    b002        ..      ADD      sp,sp,#8
        0x0001cde0:    bd70        p.      POP      {r4-r6,pc}
        0x0001cde2:    0000        ..      MOVS     r0,r0
    am_hal_pwrctrl_mcu_memory_config
        0x0001cde4:    b570        p.      PUSH     {r4-r6,lr}
        0x0001cde6:    b082        ..      SUB      sp,sp,#8
        0x0001cde8:    4606        .F      MOV      r6,r0
        0x0001cdea:    7800        .x      LDRB     r0,[r0,#0]
        0x0001cdec:    f2410514    A...    MOV      r5,#0x1014
        0x0001cdf0:    2802        .(      CMP      r0,#2
        0x0001cdf2:    f2c40502    ....    MOVT     r5,#0x4002
        0x0001cdf6:    d006        ..      BEQ      0x1ce06 ; am_hal_pwrctrl_mcu_memory_config + 34
        0x0001cdf8:    2801        .(      CMP      r0,#1
        0x0001cdfa:    d00c        ..      BEQ      0x1ce16 ; am_hal_pwrctrl_mcu_memory_config + 50
        0x0001cdfc:    b998        ..      CBNZ     r0,0x1ce26 ; am_hal_pwrctrl_mcu_memory_config + 66
        0x0001cdfe:    6828        (h      LDR      r0,[r5,#0]
        0x0001ce00:    f0200010     ...    BIC      r0,r0,#0x10
        0x0001ce04:    e00a        ..      B        0x1ce1c ; am_hal_pwrctrl_mcu_memory_config + 56
        0x0001ce06:    6828        (h      LDR      r0,[r5,#0]
        0x0001ce08:    f0400010    @...    ORR      r0,r0,#0x10
        0x0001ce0c:    6028        (`      STR      r0,[r5,#0]
        0x0001ce0e:    6828        (h      LDR      r0,[r5,#0]
        0x0001ce10:    f0400020    @. .    ORR      r0,r0,#0x20
        0x0001ce14:    e006        ..      B        0x1ce24 ; am_hal_pwrctrl_mcu_memory_config + 64
        0x0001ce16:    6828        (h      LDR      r0,[r5,#0]
        0x0001ce18:    f0400010    @...    ORR      r0,r0,#0x10
        0x0001ce1c:    6028        (`      STR      r0,[r5,#0]
        0x0001ce1e:    6828        (h      LDR      r0,[r5,#0]
        0x0001ce20:    f0200020     . .    BIC      r0,r0,#0x20
        0x0001ce24:    6028        (`      STR      r0,[r5,#0]
        0x0001ce26:    78b0        .x      LDRB     r0,[r6,#2]
        0x0001ce28:    6829        )h      LDR      r1,[r5,#0]
        0x0001ce2a:    2401        .$      MOVS     r4,#1
        0x0001ce2c:    f3600102    `...    BFI      r1,r0,#0,#3
        0x0001ce30:    6029        )`      STR      r1,[r5,#0]
        0x0001ce32:    7930        0y      LDRB     r0,[r6,#4]
        0x0001ce34:    6829        )h      LDR      r1,[r5,#0]
        0x0001ce36:    f000001f    ....    AND      r0,r0,#0x1f
        0x0001ce3a:    f0210108    !...    BIC      r1,r1,#8
        0x0001ce3e:    ea4100c0    A...    ORR      r0,r1,r0,LSL #3
        0x0001ce42:    6028        (`      STR      r0,[r5,#0]
        0x0001ce44:    4629        )F      MOV      r1,r5
        0x0001ce46:    f8513b04    Q..;    LDR      r3,[r1],#4
        0x0001ce4a:    2005        .       MOVS     r0,#5
        0x0001ce4c:    223f        ?"      MOVS     r2,#0x3f
        0x0001ce4e:    9400        ..      STR      r4,[sp,#0]
        0x0001ce50:    f7fdfff6    ....    BL       am_hal_delay_us_status_check ; 0x1ae40
        0x0001ce54:    2800        .(      CMP      r0,#0
        0x0001ce56:    d132        2.      BNE      0x1cebe ; am_hal_pwrctrl_mcu_memory_config + 218
        0x0001ce58:    6868        hh      LDR      r0,[r5,#4]
        0x0001ce5a:    6829        )h      LDR      r1,[r5,#0]
        0x0001ce5c:    4048        H@      EORS     r0,r0,r1
        0x0001ce5e:    06c0        ..      LSLS     r0,r0,#27
        0x0001ce60:    d42c        ,.      BMI      0x1cebc ; am_hal_pwrctrl_mcu_memory_config + 216
        0x0001ce62:    6868        hh      LDR      r0,[r5,#4]
        0x0001ce64:    6829        )h      LDR      r1,[r5,#0]
        0x0001ce66:    4048        H@      EORS     r0,r0,r1
        0x0001ce68:    0680        ..      LSLS     r0,r0,#26
        0x0001ce6a:    d427        '.      BMI      0x1cebc ; am_hal_pwrctrl_mcu_memory_config + 216
        0x0001ce6c:    6868        hh      LDR      r0,[r5,#4]
        0x0001ce6e:    6829        )h      LDR      r1,[r5,#0]
        0x0001ce70:    4048        H@      EORS     r0,r0,r1
        0x0001ce72:    0740        @.      LSLS     r0,r0,#29
        0x0001ce74:    d122        ".      BNE      0x1cebc ; am_hal_pwrctrl_mcu_memory_config + 216
        0x0001ce76:    6868        hh      LDR      r0,[r5,#4]
        0x0001ce78:    6829        )h      LDR      r1,[r5,#0]
        0x0001ce7a:    4048        H@      EORS     r0,r0,r1
        0x0001ce7c:    0700        ..      LSLS     r0,r0,#28
        0x0001ce7e:    d41d        ..      BMI      0x1cebc ; am_hal_pwrctrl_mcu_memory_config + 216
        0x0001ce80:    7870        px      LDRB     r0,[r6,#1]
        0x0001ce82:    68a9        .h      LDR      r1,[r5,#8]
        0x0001ce84:    2800        .(      CMP      r0,#0
        0x0001ce86:    f0210110    !...    BIC      r1,r1,#0x10
        0x0001ce8a:    bf08        ..      IT       EQ
        0x0001ce8c:    3110        .1      ADDEQ    r1,r1,#0x10
        0x0001ce8e:    60a9        .`      STR      r1,[r5,#8]
        0x0001ce90:    7970        py      LDRB     r0,[r6,#5]
        0x0001ce92:    68a9        .h      LDR      r1,[r5,#8]
        0x0001ce94:    2800        .(      CMP      r0,#0
        0x0001ce96:    f0210108    !...    BIC      r1,r1,#8
        0x0001ce9a:    bf08        ..      IT       EQ
        0x0001ce9c:    3108        .1      ADDEQ    r1,r1,#8
        0x0001ce9e:    60a9        .`      STR      r1,[r5,#8]
        0x0001cea0:    78f1        .x      LDRB     r1,[r6,#3]
        0x0001cea2:    2000        .       MOVS     r0,#0
        0x0001cea4:    2907        .)      CMP      r1,#7
        0x0001cea6:    d80a        ..      BHI      0x1cebe ; am_hal_pwrctrl_mcu_memory_config + 218
        0x0001cea8:    e8dff001    ....    TBB      [pc,r1]
    $d.3
        0x0001ceac:    0e090b04    ....    DCD    235473668
        0x0001ceb0:    13090909    ....    DCD    319359241
    $t.4
        0x0001ceb4:    68a8        .h      LDR      r0,[r5,#8]
        0x0001ceb6:    f0400007    @...    ORR      r0,r0,#7
        0x0001ceba:    e00d        ..      B        0x1ced8 ; am_hal_pwrctrl_mcu_memory_config + 244
        0x0001cebc:    2001        .       MOVS     r0,#1
        0x0001cebe:    b002        ..      ADD      sp,sp,#8
        0x0001cec0:    bd70        p.      POP      {r4-r6,pc}
        0x0001cec2:    68a8        .h      LDR      r0,[r5,#8]
        0x0001cec4:    2106        .!      MOVS     r1,#6
        0x0001cec6:    e001        ..      B        0x1cecc ; am_hal_pwrctrl_mcu_memory_config + 232
        0x0001cec8:    68a8        .h      LDR      r0,[r5,#8]
        0x0001ceca:    2104        .!      MOVS     r1,#4
        0x0001cecc:    f3610002    a...    BFI      r0,r1,#0,#3
        0x0001ced0:    e002        ..      B        0x1ced8 ; am_hal_pwrctrl_mcu_memory_config + 244
        0x0001ced2:    68a8        .h      LDR      r0,[r5,#8]
        0x0001ced4:    f0200007     ...    BIC      r0,r0,#7
        0x0001ced8:    60a8        .`      STR      r0,[r5,#8]
        0x0001ceda:    2000        .       MOVS     r0,#0
        0x0001cedc:    e7ef        ..      B        0x1cebe ; am_hal_pwrctrl_mcu_memory_config + 218
    am_hal_pwrctrl_periph_disable
        0x0001cede:    e92d43f0    -..C    PUSH     {r4-r9,lr}
        0x0001cee2:    b083        ..      SUB      sp,sp,#0xc
        0x0001cee4:    2821        !(      CMP      r0,#0x21
        0x0001cee6:    d901        ..      BLS      0x1ceec ; am_hal_pwrctrl_periph_disable + 14
        0x0001cee8:    2406        .$      MOVS     r4,#6
        0x0001ceea:    e083        ..      B        0x1cff4 ; am_hal_pwrctrl_periph_disable + 278
        0x0001ceec:    f240019c    @...    MOVW     r1,#0x9c
        0x0001cef0:    f2c00102    ....    MOVT     r1,#2
        0x0001cef4:    0102        ..      LSLS     r2,r0,#4
        0x0001cef6:    f8518002    Q...    LDR      r8,[r1,r2]
        0x0001cefa:    eb011500    ....    ADD      r5,r1,r0,LSL #4
        0x0001cefe:    686f        oh      LDR      r7,[r5,#4]
        0x0001cf00:    f8d81000    ....    LDR      r1,[r8,#0]
        0x0001cf04:    4239        9B      TST      r1,r7
        0x0001cf06:    d074        t.      BEQ      0x1cff2 ; am_hal_pwrctrl_periph_disable + 276
        0x0001cf08:    2814        .(      CMP      r0,#0x14
        0x0001cf0a:    d12c        ,.      BNE      0x1cf66 ; am_hal_pwrctrl_periph_disable + 136
        0x0001cf0c:    f64076e0    @..v    MOVW     r6,#0xfe0
        0x0001cf10:    f2c4060c    ....    MOVT     r6,#0x400c
        0x0001cf14:    6830        0h      LDR      r0,[r6,#0]
        0x0001cf16:    28c0        .(      CMP      r0,#0xc0
        0x0001cf18:    d125        %.      BNE      0x1cf66 ; am_hal_pwrctrl_periph_disable + 136
        0x0001cf1a:    f640297c    @.|)    MOV      r9,#0xa7c
        0x0001cf1e:    f2c4090c    ....    MOVT     r9,#0x400c
        0x0001cf22:    2064        d       MOVS     r0,#0x64
        0x0001cf24:    4649        IF      MOV      r1,r9
        0x0001cf26:    2201        ."      MOVS     r2,#1
        0x0001cf28:    2301        .#      MOVS     r3,#1
        0x0001cf2a:    f7fdff5f    .._.    BL       am_hal_delay_us_status_change ; 0x1adec
        0x0001cf2e:    4604        .F      MOV      r4,r0
        0x0001cf30:    2800        .(      CMP      r0,#0
        0x0001cf32:    d15f        _.      BNE      0x1cff4 ; am_hal_pwrctrl_periph_disable + 278
        0x0001cf34:    f5066173    ..sa    ADD      r1,r6,#0xf30
        0x0001cf38:    2064        d       MOVS     r0,#0x64
        0x0001cf3a:    2201        ."      MOVS     r2,#1
        0x0001cf3c:    2301        .#      MOVS     r3,#1
        0x0001cf3e:    f7fdff55    ..U.    BL       am_hal_delay_us_status_change ; 0x1adec
        0x0001cf42:    4604        .F      MOV      r4,r0
        0x0001cf44:    2800        .(      CMP      r0,#0
        0x0001cf46:    d155        U.      BNE      0x1cff4 ; am_hal_pwrctrl_periph_disable + 278
        0x0001cf48:    f8d90004    ....    LDR      r0,[r9,#4]
        0x0001cf4c:    f0400001    @...    ORR      r0,r0,#1
        0x0001cf50:    f8c90004    ....    STR      r0,[r9,#4]
        0x0001cf54:    f64810f0    H...    MOV      r0,#0x89f0
        0x0001cf58:    f2c10000    ....    MOVT     r0,#0x1000
        0x0001cf5c:    6801        .h      LDR      r1,[r0,#0]
        0x0001cf5e:    b111        ..      CBZ      r1,0x1cf66 ; am_hal_pwrctrl_periph_disable + 136
        0x0001cf60:    2000        .       MOVS     r0,#0
        0x0001cf62:    f001fb09    ....    BL       crypto_boost_trims ; 0x1e578
        0x0001cf66:    e9d56502    ...e    LDRD     r6,r5,[r5,#8]
        0x0001cf6a:    f7fef863    ..c.    BL       am_hal_interrupt_master_disable ; 0x1b034
        0x0001cf6e:    9002        ..      STR      r0,[sp,#8]
        0x0001cf70:    f8d80000    ....    LDR      r0,[r8,#0]
        0x0001cf74:    43b8        .C      BICS     r0,r0,r7
        0x0001cf76:    f8c80000    ....    STR      r0,[r8,#0]
        0x0001cf7a:    9802        ..      LDR      r0,[sp,#8]
        0x0001cf7c:    f7fef862    ..b.    BL       am_hal_interrupt_master_set ; 0x1b044
        0x0001cf80:    2400        .$      MOVS     r4,#0
        0x0001cf82:    2005        .       MOVS     r0,#5
        0x0001cf84:    4631        1F      MOV      r1,r6
        0x0001cf86:    462a        *F      MOV      r2,r5
        0x0001cf88:    462b        +F      MOV      r3,r5
        0x0001cf8a:    9400        ..      STR      r4,[sp,#0]
        0x0001cf8c:    f7fdff58    ..X.    BL       am_hal_delay_us_status_check ; 0x1ae40
        0x0001cf90:    b380        ..      CBZ      r0,0x1cff4 ; am_hal_pwrctrl_periph_disable + 278
        0x0001cf92:    f5b57ff0    ....    CMP      r5,#0x1e0
        0x0001cf96:    f04f0400    O...    MOV      r4,#0
        0x0001cf9a:    db0c        ..      BLT      0x1cfb6 ; am_hal_pwrctrl_periph_disable + 216
        0x0001cf9c:    d014        ..      BEQ      0x1cfc8 ; am_hal_pwrctrl_periph_disable + 234
        0x0001cf9e:    f5b53fe0    ...?    CMP      r5,#0x1c000
        0x0001cfa2:    d019        ..      BEQ      0x1cfd8 ; am_hal_pwrctrl_periph_disable + 250
        0x0001cfa4:    f5b55ff0    ..._    CMP      r5,#0x1e00
        0x0001cfa8:    d124        $.      BNE      0x1cff4 ; am_hal_pwrctrl_periph_disable + 278
        0x0001cfaa:    f8d80000    ....    LDR      r0,[r8,#0]
        0x0001cfae:    f4105ff0    ..._    TST      r0,#0x1e00
        0x0001cfb2:    d11c        ..      BNE      0x1cfee ; am_hal_pwrctrl_periph_disable + 272
        0x0001cfb4:    e01d        ..      B        0x1cff2 ; am_hal_pwrctrl_periph_disable + 276
        0x0001cfb6:    2d1e        .-      CMP      r5,#0x1e
        0x0001cfb8:    d014        ..      BEQ      0x1cfe4 ; am_hal_pwrctrl_periph_disable + 262
        0x0001cfba:    2dff        .-      CMP      r5,#0xff
        0x0001cfbc:    d11a        ..      BNE      0x1cff4 ; am_hal_pwrctrl_periph_disable + 278
        0x0001cfbe:    f8d80000    ....    LDR      r0,[r8,#0]
        0x0001cfc2:    0600        ..      LSLS     r0,r0,#24
        0x0001cfc4:    d113        ..      BNE      0x1cfee ; am_hal_pwrctrl_periph_disable + 272
        0x0001cfc6:    e014        ..      B        0x1cff2 ; am_hal_pwrctrl_periph_disable + 276
        0x0001cfc8:    f8d80000    ....    LDR      r0,[r8,#0]
        0x0001cfcc:    f4107ff0    ....    TST      r0,#0x1e0
        0x0001cfd0:    bf18        ..      IT       NE
        0x0001cfd2:    f8d80000    ....    LDRNE    r0,[r8,#0]
        0x0001cfd6:    e00c        ..      B        0x1cff2 ; am_hal_pwrctrl_periph_disable + 276
        0x0001cfd8:    f8d80000    ....    LDR      r0,[r8,#0]
        0x0001cfdc:    f4103fe0    ...?    TST      r0,#0x1c000
        0x0001cfe0:    d105        ..      BNE      0x1cfee ; am_hal_pwrctrl_periph_disable + 272
        0x0001cfe2:    e006        ..      B        0x1cff2 ; am_hal_pwrctrl_periph_disable + 276
        0x0001cfe4:    f8d80000    ....    LDR      r0,[r8,#0]
        0x0001cfe8:    f0100f1e    ....    TST      r0,#0x1e
        0x0001cfec:    d001        ..      BEQ      0x1cff2 ; am_hal_pwrctrl_periph_disable + 276
        0x0001cfee:    f8d80000    ....    LDR      r0,[r8,#0]
        0x0001cff2:    2400        .$      MOVS     r4,#0
        0x0001cff4:    4620         F      MOV      r0,r4
        0x0001cff6:    b003        ..      ADD      sp,sp,#0xc
        0x0001cff8:    e8bd83f0    ....    POP      {r4-r9,pc}
    am_hal_pwrctrl_periph_enable
        0x0001cffc:    e92d43f0    -..C    PUSH     {r4-r9,lr}
        0x0001d000:    b083        ..      SUB      sp,sp,#0xc
        0x0001d002:    2821        !(      CMP      r0,#0x21
        0x0001d004:    d901        ..      BLS      0x1d00a ; am_hal_pwrctrl_periph_enable + 14
        0x0001d006:    2706        .'      MOVS     r7,#6
        0x0001d008:    e00d        ..      B        0x1d026 ; am_hal_pwrctrl_periph_enable + 42
        0x0001d00a:    4606        .F      MOV      r6,r0
        0x0001d00c:    f240019c    @...    MOVW     r1,#0x9c
        0x0001d010:    f2c00102    ....    MOVT     r1,#2
        0x0001d014:    0132        2.      LSLS     r2,r6,#4
        0x0001d016:    588f        .X      LDR      r7,[r1,r2]
        0x0001d018:    eb011000    ....    ADD      r0,r1,r0,LSL #4
        0x0001d01c:    6844        Dh      LDR      r4,[r0,#4]
        0x0001d01e:    6839        9h      LDR      r1,[r7,#0]
        0x0001d020:    4221        !B      TST      r1,r4
        0x0001d022:    d004        ..      BEQ      0x1d02e ; am_hal_pwrctrl_periph_enable + 50
        0x0001d024:    2700        .'      MOVS     r7,#0
        0x0001d026:    4638        8F      MOV      r0,r7
        0x0001d028:    b003        ..      ADD      sp,sp,#0xc
        0x0001d02a:    e8bd83f0    ....    POP      {r4-r9,pc}
        0x0001d02e:    e9d09502    ....    LDRD     r9,r5,[r0,#8]
        0x0001d032:    f64818f0    H...    MOV      r8,#0x89f0
        0x0001d036:    2e14        ..      CMP      r6,#0x14
        0x0001d038:    f2c10800    ....    MOVT     r8,#0x1000
        0x0001d03c:    d105        ..      BNE      0x1d04a ; am_hal_pwrctrl_periph_enable + 78
        0x0001d03e:    f8d81000    ....    LDR      r1,[r8,#0]
        0x0001d042:    b111        ..      CBZ      r1,0x1d04a ; am_hal_pwrctrl_periph_enable + 78
        0x0001d044:    2001        .       MOVS     r0,#1
        0x0001d046:    f001fa97    ....    BL       crypto_boost_trims ; 0x1e578
        0x0001d04a:    f7fdfff3    ....    BL       am_hal_interrupt_master_disable ; 0x1b034
        0x0001d04e:    9002        ..      STR      r0,[sp,#8]
        0x0001d050:    6838        8h      LDR      r0,[r7,#0]
        0x0001d052:    4320         C      ORRS     r0,r0,r4
        0x0001d054:    6038        8`      STR      r0,[r7,#0]
        0x0001d056:    9802        ..      LDR      r0,[sp,#8]
        0x0001d058:    f7fdfff4    ....    BL       am_hal_interrupt_master_set ; 0x1b044
        0x0001d05c:    2701        .'      MOVS     r7,#1
        0x0001d05e:    2005        .       MOVS     r0,#5
        0x0001d060:    4649        IF      MOV      r1,r9
        0x0001d062:    462a        *F      MOV      r2,r5
        0x0001d064:    462b        +F      MOV      r3,r5
        0x0001d066:    9700        ..      STR      r7,[sp,#0]
        0x0001d068:    f7fdfeea    ....    BL       am_hal_delay_us_status_check ; 0x1ae40
        0x0001d06c:    b150        P.      CBZ      r0,0x1d084 ; am_hal_pwrctrl_periph_enable + 136
        0x0001d06e:    4607        .F      MOV      r7,r0
        0x0001d070:    2e14        ..      CMP      r6,#0x14
        0x0001d072:    d1d8        ..      BNE      0x1d026 ; am_hal_pwrctrl_periph_enable + 42
        0x0001d074:    f8d81000    ....    LDR      r1,[r8,#0]
        0x0001d078:    2900        .)      CMP      r1,#0
        0x0001d07a:    d0d4        ..      BEQ      0x1d026 ; am_hal_pwrctrl_periph_enable + 42
        0x0001d07c:    2000        .       MOVS     r0,#0
        0x0001d07e:    f001fa7b    ..{.    BL       crypto_boost_trims ; 0x1e578
        0x0001d082:    e7d0        ..      B        0x1d026 ; am_hal_pwrctrl_periph_enable + 42
        0x0001d084:    2e14        ..      CMP      r6,#0x14
        0x0001d086:    d10b        ..      BNE      0x1d0a0 ; am_hal_pwrctrl_periph_enable + 164
        0x0001d088:    f6417110    A..q    MOV      r1,#0x1f10
        0x0001d08c:    f2c4010c    ....    MOVT     r1,#0x400c
        0x0001d090:    2064        d       MOVS     r0,#0x64
        0x0001d092:    2201        ."      MOVS     r2,#1
        0x0001d094:    2301        .#      MOVS     r3,#1
        0x0001d096:    f7fdfea9    ....    BL       am_hal_delay_us_status_change ; 0x1adec
        0x0001d09a:    4607        .F      MOV      r7,r0
        0x0001d09c:    2800        .(      CMP      r0,#0
        0x0001d09e:    d1c2        ..      BNE      0x1d026 ; am_hal_pwrctrl_periph_enable + 42
        0x0001d0a0:    f8d90000    ....    LDR      r0,[r9,#0]
        0x0001d0a4:    4028        (@      ANDS     r0,r0,r5
        0x0001d0a6:    fab0f080    ....    CLZ      r0,r0
        0x0001d0aa:    0947        G.      LSRS     r7,r0,#5
        0x0001d0ac:    e7bb        ..      B        0x1d026 ; am_hal_pwrctrl_periph_enable + 42
        0x0001d0ae:    0000        ..      MOVS     r0,r0
    am_hal_pwrctrl_sram_config
        0x0001d0b0:    b570        p.      PUSH     {r4-r6,lr}
        0x0001d0b2:    b082        ..      SUB      sp,sp,#8
        0x0001d0b4:    f2410624    A.$.    MOV      r6,#0x1024
        0x0001d0b8:    f2c40602    ....    MOVT     r6,#0x4002
        0x0001d0bc:    4604        .F      MOV      r4,r0
        0x0001d0be:    7800        .x      LDRB     r0,[r0,#0]
        0x0001d0c0:    6831        1h      LDR      r1,[r6,#0]
        0x0001d0c2:    2501        .%      MOVS     r5,#1
        0x0001d0c4:    f3600101    `...    BFI      r1,r0,#0,#2
        0x0001d0c8:    6031        1`      STR      r1,[r6,#0]
        0x0001d0ca:    4631        1F      MOV      r1,r6
        0x0001d0cc:    f8513b04    Q..;    LDR      r3,[r1],#4
        0x0001d0d0:    2005        .       MOVS     r0,#5
        0x0001d0d2:    2203        ."      MOVS     r2,#3
        0x0001d0d4:    9500        ..      STR      r5,[sp,#0]
        0x0001d0d6:    f7fdfeb3    ....    BL       am_hal_delay_us_status_check ; 0x1ae40
        0x0001d0da:    2800        .(      CMP      r0,#0
        0x0001d0dc:    d13a        :.      BNE      0x1d154 ; am_hal_pwrctrl_sram_config + 164
        0x0001d0de:    6870        ph      LDR      r0,[r6,#4]
        0x0001d0e0:    6831        1h      LDR      r1,[r6,#0]
        0x0001d0e2:    4048        H@      EORS     r0,r0,r1
        0x0001d0e4:    0780        ..      LSLS     r0,r0,#30
        0x0001d0e6:    d001        ..      BEQ      0x1d0ec ; am_hal_pwrctrl_sram_config + 60
        0x0001d0e8:    2001        .       MOVS     r0,#1
        0x0001d0ea:    e033        3.      B        0x1d154 ; am_hal_pwrctrl_sram_config + 164
        0x0001d0ec:    7860        `x      LDRB     r0,[r4,#1]
        0x0001d0ee:    68b1        .h      LDR      r1,[r6,#8]
        0x0001d0f0:    f3600183    `...    BFI      r1,r0,#2,#2
        0x0001d0f4:    60b1        .`      STR      r1,[r6,#8]
        0x0001d0f6:    78a0        .x      LDRB     r0,[r4,#2]
        0x0001d0f8:    68b1        .h      LDR      r1,[r6,#8]
        0x0001d0fa:    f0000003    ....    AND      r0,r0,#3
        0x0001d0fe:    f02101c0    !...    BIC      r1,r1,#0xc0
        0x0001d102:    ea411080    A...    ORR      r0,r1,r0,LSL #6
        0x0001d106:    60b0        .`      STR      r0,[r6,#8]
        0x0001d108:    78e0        .x      LDRB     r0,[r4,#3]
        0x0001d10a:    68b1        .h      LDR      r1,[r6,#8]
        0x0001d10c:    f0000003    ....    AND      r0,r0,#3
        0x0001d110:    f4217140    !.@q    BIC      r1,r1,#0x300
        0x0001d114:    ea412000    A..     ORR      r0,r1,r0,LSL #8
        0x0001d118:    60b0        .`      STR      r0,[r6,#8]
        0x0001d11a:    7920         y      LDRB     r0,[r4,#4]
        0x0001d11c:    68b1        .h      LDR      r1,[r6,#8]
        0x0001d11e:    f3601105    `...    BFI      r1,r0,#4,#2
        0x0001d122:    60b1        .`      STR      r1,[r6,#8]
        0x0001d124:    7960        `y      LDRB     r0,[r4,#5]
        0x0001d126:    2803        .(      CMP      r0,#3
        0x0001d128:    d813        ..      BHI      0x1d152 ; am_hal_pwrctrl_sram_config + 162
        0x0001d12a:    e8dff000    ....    TBB      [pc,r0]
    $d.7
        0x0001d12e:    0602        ..      DCW    1538
        0x0001d130:    0e09        ..      DCW    3593
    $t.8
        0x0001d132:    68b0        .h      LDR      r0,[r6,#8]
        0x0001d134:    f0400003    @...    ORR      r0,r0,#3
        0x0001d138:    e00a        ..      B        0x1d150 ; am_hal_pwrctrl_sram_config + 160
        0x0001d13a:    68b0        .h      LDR      r0,[r6,#8]
        0x0001d13c:    2102        .!      MOVS     r1,#2
        0x0001d13e:    e001        ..      B        0x1d144 ; am_hal_pwrctrl_sram_config + 148
        0x0001d140:    68b0        .h      LDR      r0,[r6,#8]
        0x0001d142:    2101        .!      MOVS     r1,#1
        0x0001d144:    f3610001    a...    BFI      r0,r1,#0,#2
        0x0001d148:    e002        ..      B        0x1d150 ; am_hal_pwrctrl_sram_config + 160
        0x0001d14a:    68b0        .h      LDR      r0,[r6,#8]
        0x0001d14c:    f0200003     ...    BIC      r0,r0,#3
        0x0001d150:    60b0        .`      STR      r0,[r6,#8]
        0x0001d152:    2000        .       MOVS     r0,#0
        0x0001d154:    b002        ..      ADD      sp,sp,#8
        0x0001d156:    bd70        p.      POP      {r4-r6,pc}
    am_hal_rtc_osc_disable
        0x0001d158:    f6440100    D...    MOVW     r1,#0x4800
        0x0001d15c:    f2c40100    ....    MOVT     r1,#0x4000
        0x0001d160:    6808        .h      LDR      r0,[r1,#0]
        0x0001d162:    f0400210    @...    ORR      r2,r0,#0x10
        0x0001d166:    2000        .       MOVS     r0,#0
        0x0001d168:    600a        .`      STR      r2,[r1,#0]
        0x0001d16a:    4770        pG      BX       lr
    am_hal_sysctrl_sleep
        0x0001d16c:    b570        p.      PUSH     {r4-r6,lr}
        0x0001d16e:    b082        ..      SUB      sp,sp,#8
        0x0001d170:    a901        ..      ADD      r1,sp,#4
        0x0001d172:    f1b15f80    ..._    CMP      r1,#0x10000000
        0x0001d176:    d32d        -.      BCC      0x1d1d4 ; am_hal_sysctrl_sleep + 104
        0x0001d178:    4604        .F      MOV      r4,r0
        0x0001d17a:    2000        .       MOVS     r0,#0
        0x0001d17c:    f2c10006    ....    MOVT     r0,#0x1006
        0x0001d180:    4281        .B      CMP      r1,r0
        0x0001d182:    d227        '.      BCS      0x1d1d4 ; am_hal_sysctrl_sleep + 104
        0x0001d184:    f2410608    A...    MOV      r6,#0x1008
        0x0001d188:    f2c40602    ....    MOVT     r6,#0x4002
        0x0001d18c:    f7fdff52    ..R.    BL       am_hal_interrupt_master_disable ; 0x1b034
        0x0001d190:    9000        ..      STR      r0,[sp,#0]
        0x0001d192:    f8d60100    ....    LDR      r0,[r6,#0x100]
        0x0001d196:    b1f4        ..      CBZ      r4,0x1d1d6 ; am_hal_sysctrl_sleep + 106
        0x0001d198:    f2403470    @.p4    MOVW     r4,#0x370
        0x0001d19c:    f64f61e0    O..a    MOV      r1,#0xfee0
        0x0001d1a0:    f2c40402    ....    MOVT     r4,#0x4002
        0x0001d1a4:    f6cf71ff    ...q    MOVT     r1,#0xffff
        0x0001d1a8:    5861        aX      LDR      r1,[r4,r1]
        0x0001d1aa:    07c9        ..      LSLS     r1,r1,#31
        0x0001d1ac:    d113        ..      BNE      0x1d1d6 ; am_hal_sysctrl_sleep + 106
        0x0001d1ae:    f0000030    ..0.    AND      r0,r0,#0x30
        0x0001d1b2:    2830        0(      CMP      r0,#0x30
        0x0001d1b4:    d123        #.      BNE      0x1d1fe ; am_hal_sysctrl_sleep + 146
        0x0001d1b6:    68b0        .h      LDR      r0,[r6,#8]
        0x0001d1b8:    f64e5510    N..U    MOV      r5,#0xed10
        0x0001d1bc:    0540        @.      LSLS     r0,r0,#21
        0x0001d1be:    f2ce0500    ....    MOVT     r5,#0xe000
        0x0001d1c2:    d402        ..      BMI      0x1d1ca ; am_hal_sysctrl_sleep + 94
        0x0001d1c4:    6830        0h      LDR      r0,[r6,#0]
        0x0001d1c6:    01c0        ..      LSLS     r0,r0,#7
        0x0001d1c8:    d021        !.      BEQ      0x1d20e ; am_hal_sysctrl_sleep + 162
        0x0001d1ca:    6828        (h      LDR      r0,[r5,#0]
        0x0001d1cc:    f0400004    @...    ORR      r0,r0,#4
        0x0001d1d0:    6028        (`      STR      r0,[r5,#0]
        0x0001d1d2:    e008        ..      B        0x1d1e6 ; am_hal_sysctrl_sleep + 122
        0x0001d1d4:    e7fe        ..      B        0x1d1d4 ; am_hal_sysctrl_sleep + 104
        0x0001d1d6:    f64e5010    N..P    MOV      r0,#0xed10
        0x0001d1da:    f2ce0000    ....    MOVT     r0,#0xe000
        0x0001d1de:    6801        .h      LDR      r1,[r0,#0]
        0x0001d1e0:    f0210104    !...    BIC      r1,r1,#4
        0x0001d1e4:    6001        .`      STR      r1,[r0,#0]
        0x0001d1e6:    2001        .       MOVS     r0,#1
        0x0001d1e8:    2100        .!      MOVS     r1,#0
        0x0001d1ea:    f7fdfcd3    ....    BL       am_hal_daxi_control ; 0x1ab94
        0x0001d1ee:    bf30        0.      WFI      
        0x0001d1f0:    f3bf8f6f    ..o.    ISB      
        0x0001d1f4:    9800        ..      LDR      r0,[sp,#0]
        0x0001d1f6:    f7fdff25    ..%.    BL       am_hal_interrupt_master_set ; 0x1b044
        0x0001d1fa:    b002        ..      ADD      sp,sp,#8
        0x0001d1fc:    bd70        p.      POP      {r4-r6,pc}
        0x0001d1fe:    f64e5010    N..P    MOV      r0,#0xed10
        0x0001d202:    f2ce0000    ....    MOVT     r0,#0xe000
        0x0001d206:    6801        .h      LDR      r1,[r0,#0]
        0x0001d208:    f0410104    A...    ORR      r1,r1,#4
        0x0001d20c:    e7ea        ..      B        0x1d1e4 ; am_hal_sysctrl_sleep + 120
        0x0001d20e:    f24010e0    @...    MOVW     r0,#0x1e0
        0x0001d212:    f2c10000    ....    MOVT     r0,#0x1000
        0x0001d216:    6800        .h      LDR      r0,[r0,#0]
        0x0001d218:    6821        !h      LDR      r1,[r4,#0]
        0x0001d21a:    f3605119    `..Q    BFI      r1,r0,#20,#6
        0x0001d21e:    6021        !`      STR      r1,[r4,#0]
        0x0001d220:    6920         i      LDR      r0,[r4,#0x10]
        0x0001d222:    f0204000     ..@    BIC      r0,r0,#0x80000000
        0x0001d226:    6120         a      STR      r0,[r4,#0x10]
        0x0001d228:    6920         i      LDR      r0,[r4,#0x10]
        0x0001d22a:    f0204080     ..@    BIC      r0,r0,#0x40000000
        0x0001d22e:    6120         a      STR      r0,[r4,#0x10]
        0x0001d230:    2000        .       MOVS     r0,#0
        0x0001d232:    f000fdbf    ....    BL       buck_ldo_update_override ; 0x1ddb4
        0x0001d236:    6828        (h      LDR      r0,[r5,#0]
        0x0001d238:    2100        .!      MOVS     r1,#0
        0x0001d23a:    f0400004    @...    ORR      r0,r0,#4
        0x0001d23e:    6028        (`      STR      r0,[r5,#0]
        0x0001d240:    2001        .       MOVS     r0,#1
        0x0001d242:    f7fdfca7    ....    BL       am_hal_daxi_control ; 0x1ab94
        0x0001d246:    bf30        0.      WFI      
        0x0001d248:    2001        .       MOVS     r0,#1
        0x0001d24a:    f3bf8f6f    ..o.    ISB      
        0x0001d24e:    f000fdb1    ....    BL       buck_ldo_update_override ; 0x1ddb4
        0x0001d252:    6920         i      LDR      r0,[r4,#0x10]
        0x0001d254:    f0404000    @..@    ORR      r0,r0,#0x80000000
        0x0001d258:    6120         a      STR      r0,[r4,#0x10]
        0x0001d25a:    6920         i      LDR      r0,[r4,#0x10]
        0x0001d25c:    f0404080    @..@    ORR      r0,r0,#0x40000000
        0x0001d260:    6120         a      STR      r0,[r4,#0x10]
        0x0001d262:    6820         h      LDR      r0,[r4,#0]
        0x0001d264:    f020707c     .|p    BIC      r0,r0,#0x3f00000
        0x0001d268:    6020         `      STR      r0,[r4,#0]
        0x0001d26a:    e7c3        ..      B        0x1d1f4 ; am_hal_sysctrl_sleep + 136
    am_hal_tpiu_enable
        0x0001d26c:    f24a3280    J..2    MOV      r2,#0xa380
        0x0001d270:    2104        .!      MOVS     r1,#4
        0x0001d272:    f5a04361    ..aC    SUB      r3,r0,#0xe100
        0x0001d276:    f2c0021d    ....    MOVT     r2,#0x1d
        0x0001d27a:    f2ce0104    ....    MOVT     r1,#0xe004
        0x0001d27e:    f04f0c00    O...    MOV      r12,#0
        0x0001d282:    4293        .B      CMP      r3,r2
        0x0001d284:    f6464300    F..C    MOVW     r3,#0x6c00
        0x0001d288:    f8c1c300    ....    STR      r12,[r1,#0x300]
        0x0001d28c:    bf84        ..      ITT      HI
        0x0001d28e:    f2442040    D.@     MOVHI    r0,#0x4240
        0x0001d292:    f2c0000f    ....    MOVTHI   r0,#0xf
        0x0001d296:    f2c023dc    ...#    MOVT     r3,#0x2dc
        0x0001d29a:    fbb3f0f0    ....    UDIV     r0,r3,r0
        0x0001d29e:    2201        ."      MOVS     r2,#1
        0x0001d2a0:    3801        .8      SUBS     r0,#1
        0x0001d2a2:    b280        ..      UXTH     r0,r0
        0x0001d2a4:    600a        .`      STR      r2,[r1,#0]
        0x0001d2a6:    60c8        .`      STR      r0,[r1,#0xc]
        0x0001d2a8:    2002        .       MOVS     r0,#2
        0x0001d2aa:    f8c100ec    ....    STR      r0,[r1,#0xec]
        0x0001d2ae:    f6407100    @..q    MOVW     r1,#0xf00
        0x0001d2b2:    f2ce0104    ....    MOVT     r1,#0xe004
        0x0001d2b6:    f8c1c000    ....    STR      r12,[r1,#0]
        0x0001d2ba:    f2402150    @.P!    MOVW     r1,#0x250
        0x0001d2be:    f2c40102    ....    MOVT     r1,#0x4002
        0x0001d2c2:    680a        .h      LDR      r2,[r1,#0]
        0x0001d2c4:    f3600243    `.C.    BFI      r2,r0,#1,#3
        0x0001d2c8:    600a        .`      STR      r2,[r1,#0]
        0x0001d2ca:    6808        .h      LDR      r0,[r1,#0]
        0x0001d2cc:    f0400201    @...    ORR      r2,r0,#1
        0x0001d2d0:    2064        d       MOVS     r0,#0x64
        0x0001d2d2:    600a        .`      STR      r2,[r1,#0]
        0x0001d2d4:    f7fdbd6e    ..n.    B        am_hal_delay_us ; 0x1adb4
    am_mspi1_isr
        0x0001d2d8:    b580        ..      PUSH     {r7,lr}
        0x0001d2da:    b082        ..      SUB      sp,sp,#8
        0x0001d2dc:    f6443074    D.t0    MOV      r0,#0x4b74
        0x0001d2e0:    f2c10000    ....    MOVT     r0,#0x1000
        0x0001d2e4:    9000        ..      STR      r0,[sp,#0]
        0x0001d2e6:    6800        .h      LDR      r0,[r0,#0]
        0x0001d2e8:    a901        ..      ADD      r1,sp,#4
        0x0001d2ea:    2200        ."      MOVS     r2,#0
        0x0001d2ec:    f7fff9a2    ....    BL       am_hal_mspi_interrupt_status_get ; 0x1c634
        0x0001d2f0:    9800        ..      LDR      r0,[sp,#0]
        0x0001d2f2:    6800        .h      LDR      r0,[r0,#0]
        0x0001d2f4:    9901        ..      LDR      r1,[sp,#4]
        0x0001d2f6:    f7fff803    ....    BL       am_hal_mspi_interrupt_clear ; 0x1c300
        0x0001d2fa:    9800        ..      LDR      r0,[sp,#0]
        0x0001d2fc:    6800        .h      LDR      r0,[r0,#0]
        0x0001d2fe:    9901        ..      LDR      r1,[sp,#4]
        0x0001d300:    f7fff842    ..B.    BL       am_hal_mspi_interrupt_service ; 0x1c388
        0x0001d304:    b002        ..      ADD      sp,sp,#8
        0x0001d306:    bd80        ..      POP      {r7,pc}
    am_util_delay_ms
        0x0001d308:    b580        ..      PUSH     {r7,lr}
        0x0001d30a:    b082        ..      SUB      sp,sp,#8
        0x0001d30c:    9001        ..      STR      r0,[sp,#4]
        0x0001d30e:    9801        ..      LDR      r0,[sp,#4]
        0x0001d310:    f44f717a    O.zq    MOV      r1,#0x3e8
        0x0001d314:    4348        HC      MULS     r0,r1,r0
        0x0001d316:    f7fdfd4d    ..M.    BL       am_hal_delay_us ; 0x1adb4
        0x0001d31a:    b002        ..      ADD      sp,sp,#8
        0x0001d31c:    bd80        ..      POP      {r7,pc}
        0x0001d31e:    0000        ..      MOVS     r0,r0
    am_util_delay_us
        0x0001d320:    b580        ..      PUSH     {r7,lr}
        0x0001d322:    b082        ..      SUB      sp,sp,#8
        0x0001d324:    9001        ..      STR      r0,[sp,#4]
        0x0001d326:    9801        ..      LDR      r0,[sp,#4]
        0x0001d328:    f7fdfd44    ..D.    BL       am_hal_delay_us ; 0x1adb4
        0x0001d32c:    b002        ..      ADD      sp,sp,#8
        0x0001d32e:    bd80        ..      POP      {r7,pc}
    am_util_faultisr_collect_data
        0x0001d330:    b580        ..      PUSH     {r7,lr}
        0x0001d332:    b096        ..      SUB      sp,sp,#0x58
        0x0001d334:    9015        ..      STR      r0,[sp,#0x54]
        0x0001d336:    2000        .       MOVS     r0,#0
        0x0001d338:    9008        ..      STR      r0,[sp,#0x20]
        0x0001d33a:    9007        ..      STR      r0,[sp,#0x1c]
        0x0001d33c:    9006        ..      STR      r0,[sp,#0x18]
        0x0001d33e:    9005        ..      STR      r0,[sp,#0x14]
        0x0001d340:    9004        ..      STR      r0,[sp,#0x10]
        0x0001d342:    9003        ..      STR      r0,[sp,#0xc]
        0x0001d344:    9002        ..      STR      r0,[sp,#8]
        0x0001d346:    9802        ..      LDR      r0,[sp,#8]
        0x0001d348:    9013        ..      STR      r0,[sp,#0x4c]
        0x0001d34a:    f64e5028    N.(P    MOV      r0,#0xed28
        0x0001d34e:    f2ce0000    ....    MOVT     r0,#0xe000
        0x0001d352:    6800        .h      LDR      r0,[r0,#0]
        0x0001d354:    9013        ..      STR      r0,[sp,#0x4c]
        0x0001d356:    9813        ..      LDR      r0,[sp,#0x4c]
        0x0001d358:    f88d0050    ..P.    STRB     r0,[sp,#0x50]
        0x0001d35c:    9813        ..      LDR      r0,[sp,#0x4c]
        0x0001d35e:    0a00        ..      LSRS     r0,r0,#8
        0x0001d360:    f88d0051    ..Q.    STRB     r0,[sp,#0x51]
        0x0001d364:    9813        ..      LDR      r0,[sp,#0x4c]
        0x0001d366:    0c00        ..      LSRS     r0,r0,#16
        0x0001d368:    f8ad0052    ..R.    STRH     r0,[sp,#0x52]
        0x0001d36c:    f64e5038    N.8P    MOV      r0,#0xed38
        0x0001d370:    f2ce0000    ....    MOVT     r0,#0xe000
        0x0001d374:    6800        .h      LDR      r0,[r0,#0]
        0x0001d376:    9012        ..      STR      r0,[sp,#0x48]
        0x0001d378:    9815        ..      LDR      r0,[sp,#0x54]
        0x0001d37a:    f000fcd7    ....    BL       am_valid_sp ; 0x1dd2c
        0x0001d37e:    b3d8        ..      CBZ      r0,0x1d3f8 ; am_util_faultisr_collect_data + 200
        0x0001d380:    e7ff        ..      B        0x1d382 ; am_util_faultisr_collect_data + 82
        0x0001d382:    f89d0051    ..Q.    LDRB     r0,[sp,#0x51]
        0x0001d386:    0780        ..      LSLS     r0,r0,#30
        0x0001d388:    2800        .(      CMP      r0,#0
        0x0001d38a:    d506        ..      BPL      0x1d39a ; am_util_faultisr_collect_data + 106
        0x0001d38c:    e7ff        ..      B        0x1d38e ; am_util_faultisr_collect_data + 94
        0x0001d38e:    9915        ..      LDR      r1,[sp,#0x54]
        0x0001d390:    2006        .       MOVS     r0,#6
        0x0001d392:    f001fcd9    ....    BL       getStackedReg ; 0x1ed48
        0x0001d396:    9001        ..      STR      r0,[sp,#4]
        0x0001d398:    e003        ..      B        0x1d3a2 ; am_util_faultisr_collect_data + 114
        0x0001d39a:    f04f30ff    O..0    MOV      r0,#0xffffffff
        0x0001d39e:    9001        ..      STR      r0,[sp,#4]
        0x0001d3a0:    e7ff        ..      B        0x1d3a2 ; am_util_faultisr_collect_data + 114
        0x0001d3a2:    9801        ..      LDR      r0,[sp,#4]
        0x0001d3a4:    9011        ..      STR      r0,[sp,#0x44]
        0x0001d3a6:    9915        ..      LDR      r1,[sp,#0x54]
        0x0001d3a8:    2000        .       MOVS     r0,#0
        0x0001d3aa:    f001fccd    ....    BL       getStackedReg ; 0x1ed48
        0x0001d3ae:    9009        ..      STR      r0,[sp,#0x24]
        0x0001d3b0:    9915        ..      LDR      r1,[sp,#0x54]
        0x0001d3b2:    2001        .       MOVS     r0,#1
        0x0001d3b4:    f001fcc8    ....    BL       getStackedReg ; 0x1ed48
        0x0001d3b8:    900a        ..      STR      r0,[sp,#0x28]
        0x0001d3ba:    9915        ..      LDR      r1,[sp,#0x54]
        0x0001d3bc:    2002        .       MOVS     r0,#2
        0x0001d3be:    f001fcc3    ....    BL       getStackedReg ; 0x1ed48
        0x0001d3c2:    900b        ..      STR      r0,[sp,#0x2c]
        0x0001d3c4:    9915        ..      LDR      r1,[sp,#0x54]
        0x0001d3c6:    2003        .       MOVS     r0,#3
        0x0001d3c8:    f001fcbe    ....    BL       getStackedReg ; 0x1ed48
        0x0001d3cc:    900c        ..      STR      r0,[sp,#0x30]
        0x0001d3ce:    9915        ..      LDR      r1,[sp,#0x54]
        0x0001d3d0:    2004        .       MOVS     r0,#4
        0x0001d3d2:    f001fcb9    ....    BL       getStackedReg ; 0x1ed48
        0x0001d3d6:    900d        ..      STR      r0,[sp,#0x34]
        0x0001d3d8:    9915        ..      LDR      r1,[sp,#0x54]
        0x0001d3da:    2005        .       MOVS     r0,#5
        0x0001d3dc:    f001fcb4    ....    BL       getStackedReg ; 0x1ed48
        0x0001d3e0:    900e        ..      STR      r0,[sp,#0x38]
        0x0001d3e2:    9915        ..      LDR      r1,[sp,#0x54]
        0x0001d3e4:    2006        .       MOVS     r0,#6
        0x0001d3e6:    f001fcaf    ....    BL       getStackedReg ; 0x1ed48
        0x0001d3ea:    900f        ..      STR      r0,[sp,#0x3c]
        0x0001d3ec:    9915        ..      LDR      r1,[sp,#0x54]
        0x0001d3ee:    2007        .       MOVS     r0,#7
        0x0001d3f0:    f001fcaa    ....    BL       getStackedReg ; 0x1ed48
        0x0001d3f4:    9010        ..      STR      r0,[sp,#0x40]
        0x0001d3f6:    e7ff        ..      B        0x1d3f8 ; am_util_faultisr_collect_data + 200
        0x0001d3f8:    a803        ..      ADD      r0,sp,#0xc
        0x0001d3fa:    f7fdfd5b    ..[.    BL       am_hal_fault_status_get ; 0x1aeb4
        0x0001d3fe:    f6401076    @.v.    MOV      r0,#0x976
        0x0001d402:    f2c00002    ....    MOVT     r0,#2
        0x0001d406:    f000f927    ..'.    BL       am_util_stdio_printf ; 0x1d658
        0x0001d40a:    9815        ..      LDR      r0,[sp,#0x54]
        0x0001d40c:    f000fc8e    ....    BL       am_valid_sp ; 0x1dd2c
        0x0001d410:    b938        8.      CBNZ     r0,0x1d422 ; am_util_faultisr_collect_data + 242
        0x0001d412:    e7ff        ..      B        0x1d414 ; am_util_faultisr_collect_data + 228
        0x0001d414:    f6401005    @...    MOV      r0,#0x905
        0x0001d418:    f2c00002    ....    MOVT     r0,#2
        0x0001d41c:    f000f91c    ....    BL       am_util_stdio_printf ; 0x1d658
        0x0001d420:    e03e        >.      B        0x1d4a0 ; am_util_faultisr_collect_data + 368
        0x0001d422:    f64010a3    @...    MOV      r0,#0x9a3
        0x0001d426:    f2c00002    ....    MOVT     r0,#2
        0x0001d42a:    f000f915    ....    BL       am_util_stdio_printf ; 0x1d658
        0x0001d42e:    9909        ..      LDR      r1,[sp,#0x24]
        0x0001d430:    f64030b6    @..0    MOV      r0,#0xbb6
        0x0001d434:    f2c00002    ....    MOVT     r0,#2
        0x0001d438:    f000f90e    ....    BL       am_util_stdio_printf ; 0x1d658
        0x0001d43c:    990a        ..      LDR      r1,[sp,#0x28]
        0x0001d43e:    f64030c8    @..0    MOV      r0,#0xbc8
        0x0001d442:    f2c00002    ....    MOVT     r0,#2
        0x0001d446:    f000f907    ....    BL       am_util_stdio_printf ; 0x1d658
        0x0001d44a:    990b        ..      LDR      r1,[sp,#0x2c]
        0x0001d44c:    f64030da    @..0    MOV      r0,#0xbda
        0x0001d450:    f2c00002    ....    MOVT     r0,#2
        0x0001d454:    f000f900    ....    BL       am_util_stdio_printf ; 0x1d658
        0x0001d458:    990c        ..      LDR      r1,[sp,#0x30]
        0x0001d45a:    f64030ec    @..0    MOV      r0,#0xbec
        0x0001d45e:    f2c00002    ....    MOVT     r0,#2
        0x0001d462:    f000f8f9    ....    BL       am_util_stdio_printf ; 0x1d658
        0x0001d466:    990d        ..      LDR      r1,[sp,#0x34]
        0x0001d468:    f640404a    @.J@    MOV      r0,#0xc4a
        0x0001d46c:    f2c00002    ....    MOVT     r0,#2
        0x0001d470:    f000f8f2    ....    BL       am_util_stdio_printf ; 0x1d658
        0x0001d474:    990e        ..      LDR      r1,[sp,#0x38]
        0x0001d476:    f6404010    @..@    MOVW     r0,#0xc10
        0x0001d47a:    f2c00002    ....    MOVT     r0,#2
        0x0001d47e:    f000f8eb    ....    BL       am_util_stdio_printf ; 0x1d658
        0x0001d482:    990f        ..      LDR      r1,[sp,#0x3c]
        0x0001d484:    f64030fe    @..0    MOV      r0,#0xbfe
        0x0001d488:    f2c00002    ....    MOVT     r0,#2
        0x0001d48c:    f000f8e4    ....    BL       am_util_stdio_printf ; 0x1d658
        0x0001d490:    9910        ..      LDR      r1,[sp,#0x40]
        0x0001d492:    f6401090    @...    MOVW     r0,#0x990
        0x0001d496:    f2c00002    ....    MOVT     r0,#2
        0x0001d49a:    f000f8dd    ....    BL       am_util_stdio_printf ; 0x1d658
        0x0001d49e:    e7ff        ..      B        0x1d4a0 ; am_util_faultisr_collect_data + 368
        0x0001d4a0:    f64010cf    @...    MOV      r0,#0x9cf
        0x0001d4a4:    f2c00002    ....    MOVT     r0,#2
        0x0001d4a8:    f000f8d6    ....    BL       am_util_stdio_printf ; 0x1d658
        0x0001d4ac:    9911        ..      LDR      r1,[sp,#0x44]
        0x0001d4ae:    f640405c    @.\@    MOV      r0,#0xc5c
        0x0001d4b2:    f2c00002    ....    MOVT     r0,#2
        0x0001d4b6:    f000f8cf    ....    BL       am_util_stdio_printf ; 0x1d658
        0x0001d4ba:    9912        ..      LDR      r1,[sp,#0x48]
        0x0001d4bc:    f6404022    @."@    MOV      r0,#0xc22
        0x0001d4c0:    f2c00002    ....    MOVT     r0,#2
        0x0001d4c4:    f000f8c8    ....    BL       am_util_stdio_printf ; 0x1d658
        0x0001d4c8:    f89d1050    ..P.    LDRB     r1,[sp,#0x50]
        0x0001d4cc:    f64020fa    @..     MOV      r0,#0xafa
        0x0001d4d0:    f2c00002    ....    MOVT     r0,#2
        0x0001d4d4:    f000f8c0    ....    BL       am_util_stdio_printf ; 0x1d658
        0x0001d4d8:    f8bd1052    ..R.    LDRH     r1,[sp,#0x52]
        0x0001d4dc:    f6403029    @.)0    MOV      r0,#0xb29
        0x0001d4e0:    f2c00002    ....    MOVT     r0,#2
        0x0001d4e4:    f000f8b8    ....    BL       am_util_stdio_printf ; 0x1d658
        0x0001d4e8:    f89d1051    ..Q.    LDRB     r1,[sp,#0x51]
        0x0001d4ec:    f64020d0    @..     MOVW     r0,#0xad0
        0x0001d4f0:    f2c00002    ....    MOVT     r0,#2
        0x0001d4f4:    f000f8b0    ....    BL       am_util_stdio_printf ; 0x1d658
        0x0001d4f8:    2080        .       MOVS     r0,#0x80
        0x0001d4fa:    9002        ..      STR      r0,[sp,#8]
        0x0001d4fc:    e7ff        ..      B        0x1d4fe ; am_util_faultisr_collect_data + 462
        0x0001d4fe:    9802        ..      LDR      r0,[sp,#8]
        0x0001d500:    2800        .(      CMP      r0,#0
        0x0001d502:    d062        b.      BEQ      0x1d5ca ; am_util_faultisr_collect_data + 666
        0x0001d504:    e7ff        ..      B        0x1d506 ; am_util_faultisr_collect_data + 470
        0x0001d506:    f89d0051    ..Q.    LDRB     r0,[sp,#0x51]
        0x0001d50a:    9902        ..      LDR      r1,[sp,#8]
        0x0001d50c:    4008        .@      ANDS     r0,r0,r1
        0x0001d50e:    4601        .F      MOV      r1,r0
        0x0001d510:    9100        ..      STR      r1,[sp,#0]
        0x0001d512:    2801        .(      CMP      r0,#1
        0x0001d514:    d04d        M.      BEQ      0x1d5b2 ; am_util_faultisr_collect_data + 642
        0x0001d516:    e7ff        ..      B        0x1d518 ; am_util_faultisr_collect_data + 488
        0x0001d518:    9800        ..      LDR      r0,[sp,#0]
        0x0001d51a:    2802        .(      CMP      r0,#2
        0x0001d51c:    d042        B.      BEQ      0x1d5a4 ; am_util_faultisr_collect_data + 628
        0x0001d51e:    e7ff        ..      B        0x1d520 ; am_util_faultisr_collect_data + 496
        0x0001d520:    9800        ..      LDR      r0,[sp,#0]
        0x0001d522:    2804        .(      CMP      r0,#4
        0x0001d524:    d037        7.      BEQ      0x1d596 ; am_util_faultisr_collect_data + 614
        0x0001d526:    e7ff        ..      B        0x1d528 ; am_util_faultisr_collect_data + 504
        0x0001d528:    9800        ..      LDR      r0,[sp,#0]
        0x0001d52a:    2808        .(      CMP      r0,#8
        0x0001d52c:    d02c        ,.      BEQ      0x1d588 ; am_util_faultisr_collect_data + 600
        0x0001d52e:    e7ff        ..      B        0x1d530 ; am_util_faultisr_collect_data + 512
        0x0001d530:    9800        ..      LDR      r0,[sp,#0]
        0x0001d532:    2810        .(      CMP      r0,#0x10
        0x0001d534:    d021        !.      BEQ      0x1d57a ; am_util_faultisr_collect_data + 586
        0x0001d536:    e7ff        ..      B        0x1d538 ; am_util_faultisr_collect_data + 520
        0x0001d538:    9800        ..      LDR      r0,[sp,#0]
        0x0001d53a:    2820         (      CMP      r0,#0x20
        0x0001d53c:    d016        ..      BEQ      0x1d56c ; am_util_faultisr_collect_data + 572
        0x0001d53e:    e7ff        ..      B        0x1d540 ; am_util_faultisr_collect_data + 528
        0x0001d540:    9800        ..      LDR      r0,[sp,#0]
        0x0001d542:    2840        @(      CMP      r0,#0x40
        0x0001d544:    d00b        ..      BEQ      0x1d55e ; am_util_faultisr_collect_data + 558
        0x0001d546:    e7ff        ..      B        0x1d548 ; am_util_faultisr_collect_data + 536
        0x0001d548:    9800        ..      LDR      r0,[sp,#0]
        0x0001d54a:    2880        .(      CMP      r0,#0x80
        0x0001d54c:    d138        8.      BNE      0x1d5c0 ; am_util_faultisr_collect_data + 656
        0x0001d54e:    e7ff        ..      B        0x1d550 ; am_util_faultisr_collect_data + 544
        0x0001d550:    f6402004    @..     MOV      r0,#0xa04
        0x0001d554:    f2c00002    ....    MOVT     r0,#2
        0x0001d558:    f000f87e    ..~.    BL       am_util_stdio_printf ; 0x1d658
        0x0001d55c:    e031        1.      B        0x1d5c2 ; am_util_faultisr_collect_data + 658
        0x0001d55e:    f64010e7    @...    MOV      r0,#0x9e7
        0x0001d562:    f2c00002    ....    MOVT     r0,#2
        0x0001d566:    f000f877    ..w.    BL       am_util_stdio_printf ; 0x1d658
        0x0001d56a:    e02a        *.      B        0x1d5c2 ; am_util_faultisr_collect_data + 658
        0x0001d56c:    f6402079    @.y     MOV      r0,#0xa79
        0x0001d570:    f2c00002    ....    MOVT     r0,#2
        0x0001d574:    f000f870    ..p.    BL       am_util_stdio_printf ; 0x1d658
        0x0001d578:    e023        #.      B        0x1d5c2 ; am_util_faultisr_collect_data + 658
        0x0001d57a:    f6402041    @.A     MOV      r0,#0xa41
        0x0001d57e:    f2c00002    ....    MOVT     r0,#2
        0x0001d582:    f000f869    ..i.    BL       am_util_stdio_printf ; 0x1d658
        0x0001d586:    e01c        ..      B        0x1d5c2 ; am_util_faultisr_collect_data + 658
        0x0001d588:    f640205c    @.\     MOV      r0,#0xa5c
        0x0001d58c:    f2c00002    ....    MOVT     r0,#2
        0x0001d590:    f000f862    ..b.    BL       am_util_stdio_printf ; 0x1d658
        0x0001d594:    e015        ..      B        0x1d5c2 ; am_util_faultisr_collect_data + 658
        0x0001d596:    f6402094    @..     MOV      r0,#0xa94
        0x0001d59a:    f2c00002    ....    MOVT     r0,#2
        0x0001d59e:    f000f85b    ..[.    BL       am_util_stdio_printf ; 0x1d658
        0x0001d5a2:    e00e        ..      B        0x1d5c2 ; am_util_faultisr_collect_data + 658
        0x0001d5a4:    f6402022    @."     MOV      r0,#0xa22
        0x0001d5a8:    f2c00002    ....    MOVT     r0,#2
        0x0001d5ac:    f000f854    ..T.    BL       am_util_stdio_printf ; 0x1d658
        0x0001d5b0:    e007        ..      B        0x1d5c2 ; am_util_faultisr_collect_data + 658
        0x0001d5b2:    f64020b4    @..     MOV      r0,#0xab4
        0x0001d5b6:    f2c00002    ....    MOVT     r0,#2
        0x0001d5ba:    f000f84d    ..M.    BL       am_util_stdio_printf ; 0x1d658
        0x0001d5be:    e000        ..      B        0x1d5c2 ; am_util_faultisr_collect_data + 658
        0x0001d5c0:    e7ff        ..      B        0x1d5c2 ; am_util_faultisr_collect_data + 658
        0x0001d5c2:    9802        ..      LDR      r0,[sp,#8]
        0x0001d5c4:    0840        @.      LSRS     r0,r0,#1
        0x0001d5c6:    9002        ..      STR      r0,[sp,#8]
        0x0001d5c8:    e799        ..      B        0x1d4fe ; am_util_faultisr_collect_data + 462
        0x0001d5ca:    f89d000c    ....    LDRB     r0,[sp,#0xc]
        0x0001d5ce:    07c0        ..      LSLS     r0,r0,#31
        0x0001d5d0:    b950        P.      CBNZ     r0,0x1d5e8 ; am_util_faultisr_collect_data + 696
        0x0001d5d2:    e7ff        ..      B        0x1d5d4 ; am_util_faultisr_collect_data + 676
        0x0001d5d4:    f89d0014    ....    LDRB     r0,[sp,#0x14]
        0x0001d5d8:    07c0        ..      LSLS     r0,r0,#31
        0x0001d5da:    b928        (.      CBNZ     r0,0x1d5e8 ; am_util_faultisr_collect_data + 696
        0x0001d5dc:    e7ff        ..      B        0x1d5de ; am_util_faultisr_collect_data + 686
        0x0001d5de:    f89d001c    ....    LDRB     r0,[sp,#0x1c]
        0x0001d5e2:    07c0        ..      LSLS     r0,r0,#31
        0x0001d5e4:    b138        8.      CBZ      r0,0x1d5f6 ; am_util_faultisr_collect_data + 710
        0x0001d5e6:    e7ff        ..      B        0x1d5e8 ; am_util_faultisr_collect_data + 696
        0x0001d5e8:    f64010bd    @...    MOV      r0,#0x9bd
        0x0001d5ec:    f2c00002    ....    MOVT     r0,#2
        0x0001d5f0:    f000f832    ..2.    BL       am_util_stdio_printf ; 0x1d658
        0x0001d5f4:    e7ff        ..      B        0x1d5f6 ; am_util_faultisr_collect_data + 710
        0x0001d5f6:    f89d000c    ....    LDRB     r0,[sp,#0xc]
        0x0001d5fa:    07c0        ..      LSLS     r0,r0,#31
        0x0001d5fc:    b140        @.      CBZ      r0,0x1d610 ; am_util_faultisr_collect_data + 736
        0x0001d5fe:    e7ff        ..      B        0x1d600 ; am_util_faultisr_collect_data + 720
        0x0001d600:    9904        ..      LDR      r1,[sp,#0x10]
        0x0001d602:    f6403076    @.v0    MOV      r0,#0xb76
        0x0001d606:    f2c00002    ....    MOVT     r0,#2
        0x0001d60a:    f000f825    ..%.    BL       am_util_stdio_printf ; 0x1d658
        0x0001d60e:    e7ff        ..      B        0x1d610 ; am_util_faultisr_collect_data + 736
        0x0001d610:    f89d0014    ....    LDRB     r0,[sp,#0x14]
        0x0001d614:    07c0        ..      LSLS     r0,r0,#31
        0x0001d616:    b140        @.      CBZ      r0,0x1d62a ; am_util_faultisr_collect_data + 762
        0x0001d618:    e7ff        ..      B        0x1d61a ; am_util_faultisr_collect_data + 746
        0x0001d61a:    9906        ..      LDR      r1,[sp,#0x18]
        0x0001d61c:    f6403055    @.U0    MOV      r0,#0xb55
        0x0001d620:    f2c00002    ....    MOVT     r0,#2
        0x0001d624:    f000f818    ....    BL       am_util_stdio_printf ; 0x1d658
        0x0001d628:    e7ff        ..      B        0x1d62a ; am_util_faultisr_collect_data + 762
        0x0001d62a:    f89d001c    ....    LDRB     r0,[sp,#0x1c]
        0x0001d62e:    07c0        ..      LSLS     r0,r0,#31
        0x0001d630:    b140        @.      CBZ      r0,0x1d644 ; am_util_faultisr_collect_data + 788
        0x0001d632:    e7ff        ..      B        0x1d634 ; am_util_faultisr_collect_data + 772
        0x0001d634:    9908        ..      LDR      r1,[sp,#0x20]
        0x0001d636:    f6403097    @..0    MOV      r0,#0xb97
        0x0001d63a:    f2c00002    ....    MOVT     r0,#2
        0x0001d63e:    f000f80b    ....    BL       am_util_stdio_printf ; 0x1d658
        0x0001d642:    e7ff        ..      B        0x1d644 ; am_util_faultisr_collect_data + 788
        0x0001d644:    f6401048    @.H.    MOV      r0,#0x948
        0x0001d648:    f2c00002    ....    MOVT     r0,#2
        0x0001d64c:    f000f804    ....    BL       am_util_stdio_printf ; 0x1d658
        0x0001d650:    2000        .       MOVS     r0,#0
        0x0001d652:    9002        ..      STR      r0,[sp,#8]
        0x0001d654:    e7ff        ..      B        0x1d656 ; am_util_faultisr_collect_data + 806
        0x0001d656:    e7fe        ..      B        0x1d656 ; am_util_faultisr_collect_data + 806
    am_util_stdio_printf
        0x0001d658:    b083        ..      SUB      sp,sp,#0xc
        0x0001d65a:    b580        ..      PUSH     {r7,lr}
        0x0001d65c:    b085        ..      SUB      sp,sp,#0x14
        0x0001d65e:    9309        ..      STR      r3,[sp,#0x24]
        0x0001d660:    9208        ..      STR      r2,[sp,#0x20]
        0x0001d662:    9107        ..      STR      r1,[sp,#0x1c]
        0x0001d664:    9003        ..      STR      r0,[sp,#0xc]
        0x0001d666:    f24850ec    H..P    MOV      r0,#0x85ec
        0x0001d66a:    f2c10000    ....    MOVT     r0,#0x1000
        0x0001d66e:    6800        .h      LDR      r0,[r0,#0]
        0x0001d670:    b918        ..      CBNZ     r0,0x1d67a ; am_util_stdio_printf + 34
        0x0001d672:    e7ff        ..      B        0x1d674 ; am_util_stdio_printf + 28
        0x0001d674:    2000        .       MOVS     r0,#0
        0x0001d676:    9004        ..      STR      r0,[sp,#0x10]
        0x0001d678:    e016        ..      B        0x1d6a8 ; am_util_stdio_printf + 80
        0x0001d67a:    a807        ..      ADD      r0,sp,#0x1c
        0x0001d67c:    9001        ..      STR      r0,[sp,#4]
        0x0001d67e:    9903        ..      LDR      r1,[sp,#0xc]
        0x0001d680:    9a01        ..      LDR      r2,[sp,#4]
        0x0001d682:    f24850f0    H..P    MOV      r0,#0x85f0
        0x0001d686:    f2c10000    ....    MOVT     r0,#0x1000
        0x0001d68a:    9000        ..      STR      r0,[sp,#0]
        0x0001d68c:    f000f824    ..$.    BL       am_util_stdio_vsprintf ; 0x1d6d8
        0x0001d690:    4601        .F      MOV      r1,r0
        0x0001d692:    9800        ..      LDR      r0,[sp,#0]
        0x0001d694:    9102        ..      STR      r1,[sp,#8]
        0x0001d696:    f24851ec    H..Q    MOV      r1,#0x85ec
        0x0001d69a:    f2c10100    ....    MOVT     r1,#0x1000
        0x0001d69e:    6809        .h      LDR      r1,[r1,#0]
        0x0001d6a0:    4788        .G      BLX      r1
        0x0001d6a2:    9802        ..      LDR      r0,[sp,#8]
        0x0001d6a4:    9004        ..      STR      r0,[sp,#0x10]
        0x0001d6a6:    e7ff        ..      B        0x1d6a8 ; am_util_stdio_printf + 80
        0x0001d6a8:    9804        ..      LDR      r0,[sp,#0x10]
        0x0001d6aa:    b005        ..      ADD      sp,sp,#0x14
        0x0001d6ac:    e8bd4080    ...@    POP      {r7,lr}
        0x0001d6b0:    b003        ..      ADD      sp,sp,#0xc
        0x0001d6b2:    4770        pG      BX       lr
    am_util_stdio_printf_init
        0x0001d6b4:    b081        ..      SUB      sp,sp,#4
        0x0001d6b6:    9000        ..      STR      r0,[sp,#0]
        0x0001d6b8:    9800        ..      LDR      r0,[sp,#0]
        0x0001d6ba:    f24851ec    H..Q    MOV      r1,#0x85ec
        0x0001d6be:    f2c10100    ....    MOVT     r1,#0x1000
        0x0001d6c2:    6008        .`      STR      r0,[r1,#0]
        0x0001d6c4:    b001        ..      ADD      sp,sp,#4
        0x0001d6c6:    4770        pG      BX       lr
    am_util_stdio_terminal_clear
        0x0001d6c8:    b580        ..      PUSH     {r7,lr}
        0x0001d6ca:    f6404078    @.x@    MOV      r0,#0xc78
        0x0001d6ce:    f2c00002    ....    MOVT     r0,#2
        0x0001d6d2:    f7ffffc1    ....    BL       am_util_stdio_printf ; 0x1d658
        0x0001d6d6:    bd80        ..      POP      {r7,pc}
    am_util_stdio_vsprintf
        0x0001d6d8:    b580        ..      PUSH     {r7,lr}
        0x0001d6da:    b09e        ..      SUB      sp,sp,#0x78
        0x0001d6dc:    921d        ..      STR      r2,[sp,#0x74]
        0x0001d6de:    901c        ..      STR      r0,[sp,#0x70]
        0x0001d6e0:    911b        ..      STR      r1,[sp,#0x6c]
        0x0001d6e2:    2000        .       MOVS     r0,#0
        0x0001d6e4:    9014        ..      STR      r0,[sp,#0x50]
        0x0001d6e6:    900e        ..      STR      r0,[sp,#0x38]
        0x0001d6e8:    e7ff        ..      B        0x1d6ea ; am_util_stdio_vsprintf + 18
        0x0001d6ea:    981b        ..      LDR      r0,[sp,#0x6c]
        0x0001d6ec:    7800        .x      LDRB     r0,[r0,#0]
        0x0001d6ee:    2800        .(      CMP      r0,#0
        0x0001d6f0:    f0008312    ....    BEQ.W    0x1dd18 ; am_util_stdio_vsprintf + 1600
        0x0001d6f4:    e7ff        ..      B        0x1d6f6 ; am_util_stdio_vsprintf + 30
        0x0001d6f6:    2006        .       MOVS     r0,#6
        0x0001d6f8:    9011        ..      STR      r0,[sp,#0x44]
        0x0001d6fa:    981b        ..      LDR      r0,[sp,#0x6c]
        0x0001d6fc:    7800        .x      LDRB     r0,[r0,#0]
        0x0001d6fe:    2825        %(      CMP      r0,#0x25
        0x0001d700:    d027        '.      BEQ      0x1d752 ; am_util_stdio_vsprintf + 122
        0x0001d702:    e7ff        ..      B        0x1d704 ; am_util_stdio_vsprintf + 44
        0x0001d704:    981c        ..      LDR      r0,[sp,#0x70]
        0x0001d706:    b1e8        ..      CBZ      r0,0x1d744 ; am_util_stdio_vsprintf + 108
        0x0001d708:    e7ff        ..      B        0x1d70a ; am_util_stdio_vsprintf + 50
        0x0001d70a:    981b        ..      LDR      r0,[sp,#0x6c]
        0x0001d70c:    7800        .x      LDRB     r0,[r0,#0]
        0x0001d70e:    280a        .(      CMP      r0,#0xa
        0x0001d710:    d111        ..      BNE      0x1d736 ; am_util_stdio_vsprintf + 94
        0x0001d712:    e7ff        ..      B        0x1d714 ; am_util_stdio_vsprintf + 60
        0x0001d714:    f24850c6    H..P    MOV      r0,#0x85c6
        0x0001d718:    f2c10000    ....    MOVT     r0,#0x1000
        0x0001d71c:    7800        .x      LDRB     r0,[r0,#0]
        0x0001d71e:    07c0        ..      LSLS     r0,r0,#31
        0x0001d720:    b148        H.      CBZ      r0,0x1d736 ; am_util_stdio_vsprintf + 94
        0x0001d722:    e7ff        ..      B        0x1d724 ; am_util_stdio_vsprintf + 76
        0x0001d724:    991c        ..      LDR      r1,[sp,#0x70]
        0x0001d726:    1c48        H.      ADDS     r0,r1,#1
        0x0001d728:    901c        ..      STR      r0,[sp,#0x70]
        0x0001d72a:    200d        .       MOVS     r0,#0xd
        0x0001d72c:    7008        .p      STRB     r0,[r1,#0]
        0x0001d72e:    9814        ..      LDR      r0,[sp,#0x50]
        0x0001d730:    3001        .0      ADDS     r0,#1
        0x0001d732:    9014        ..      STR      r0,[sp,#0x50]
        0x0001d734:    e7ff        ..      B        0x1d736 ; am_util_stdio_vsprintf + 94
        0x0001d736:    981b        ..      LDR      r0,[sp,#0x6c]
        0x0001d738:    7800        .x      LDRB     r0,[r0,#0]
        0x0001d73a:    991c        ..      LDR      r1,[sp,#0x70]
        0x0001d73c:    1c4a        J.      ADDS     r2,r1,#1
        0x0001d73e:    921c        ..      STR      r2,[sp,#0x70]
        0x0001d740:    7008        .p      STRB     r0,[r1,#0]
        0x0001d742:    e7ff        ..      B        0x1d744 ; am_util_stdio_vsprintf + 108
        0x0001d744:    981b        ..      LDR      r0,[sp,#0x6c]
        0x0001d746:    3001        .0      ADDS     r0,#1
        0x0001d748:    901b        ..      STR      r0,[sp,#0x6c]
        0x0001d74a:    9814        ..      LDR      r0,[sp,#0x50]
        0x0001d74c:    3001        .0      ADDS     r0,#1
        0x0001d74e:    9014        ..      STR      r0,[sp,#0x50]
        0x0001d750:    e7cb        ..      B        0x1d6ea ; am_util_stdio_vsprintf + 18
        0x0001d752:    981b        ..      LDR      r0,[sp,#0x6c]
        0x0001d754:    3001        .0      ADDS     r0,#1
        0x0001d756:    901b        ..      STR      r0,[sp,#0x6c]
        0x0001d758:    2000        .       MOVS     r0,#0
        0x0001d75a:    f88d0040    ..@.    STRB     r0,[sp,#0x40]
        0x0001d75e:    f88d0041    ..A.    STRB     r0,[sp,#0x41]
        0x0001d762:    2020                MOVS     r0,#0x20
        0x0001d764:    f88d0042    ..B.    STRB     r0,[sp,#0x42]
        0x0001d768:    981b        ..      LDR      r0,[sp,#0x6c]
        0x0001d76a:    7800        .x      LDRB     r0,[r0,#0]
        0x0001d76c:    2830        0(      CMP      r0,#0x30
        0x0001d76e:    d107        ..      BNE      0x1d780 ; am_util_stdio_vsprintf + 168
        0x0001d770:    e7ff        ..      B        0x1d772 ; am_util_stdio_vsprintf + 154
        0x0001d772:    2030        0       MOVS     r0,#0x30
        0x0001d774:    f88d0042    ..B.    STRB     r0,[sp,#0x42]
        0x0001d778:    981b        ..      LDR      r0,[sp,#0x6c]
        0x0001d77a:    3001        .0      ADDS     r0,#1
        0x0001d77c:    901b        ..      STR      r0,[sp,#0x6c]
        0x0001d77e:    e7ff        ..      B        0x1d780 ; am_util_stdio_vsprintf + 168
        0x0001d780:    981b        ..      LDR      r0,[sp,#0x6c]
        0x0001d782:    a915        ..      ADD      r1,sp,#0x54
        0x0001d784:    f000ff62    ..b.    BL       decstr_to_int ; 0x1e64c
        0x0001d788:    9013        ..      STR      r0,[sp,#0x4c]
        0x0001d78a:    9915        ..      LDR      r1,[sp,#0x54]
        0x0001d78c:    981b        ..      LDR      r0,[sp,#0x6c]
        0x0001d78e:    4408        .D      ADD      r0,r0,r1
        0x0001d790:    901b        ..      STR      r0,[sp,#0x6c]
        0x0001d792:    981b        ..      LDR      r0,[sp,#0x6c]
        0x0001d794:    7800        .x      LDRB     r0,[r0,#0]
        0x0001d796:    2873        s(      CMP      r0,#0x73
        0x0001d798:    d009        ..      BEQ      0x1d7ae ; am_util_stdio_vsprintf + 214
        0x0001d79a:    e7ff        ..      B        0x1d79c ; am_util_stdio_vsprintf + 196
        0x0001d79c:    9813        ..      LDR      r0,[sp,#0x4c]
        0x0001d79e:    f1b03fff    ...?    CMP      r0,#0xffffffff
        0x0001d7a2:    dc04        ..      BGT      0x1d7ae ; am_util_stdio_vsprintf + 214
        0x0001d7a4:    e7ff        ..      B        0x1d7a6 ; am_util_stdio_vsprintf + 206
        0x0001d7a6:    9813        ..      LDR      r0,[sp,#0x4c]
        0x0001d7a8:    4240        @B      RSBS     r0,r0,#0
        0x0001d7aa:    9013        ..      STR      r0,[sp,#0x4c]
        0x0001d7ac:    e7ff        ..      B        0x1d7ae ; am_util_stdio_vsprintf + 214
        0x0001d7ae:    981b        ..      LDR      r0,[sp,#0x6c]
        0x0001d7b0:    7800        .x      LDRB     r0,[r0,#0]
        0x0001d7b2:    282e        .(      CMP      r0,#0x2e
        0x0001d7b4:    d10d        ..      BNE      0x1d7d2 ; am_util_stdio_vsprintf + 250
        0x0001d7b6:    e7ff        ..      B        0x1d7b8 ; am_util_stdio_vsprintf + 224
        0x0001d7b8:    981b        ..      LDR      r0,[sp,#0x6c]
        0x0001d7ba:    3001        .0      ADDS     r0,#1
        0x0001d7bc:    901b        ..      STR      r0,[sp,#0x6c]
        0x0001d7be:    981b        ..      LDR      r0,[sp,#0x6c]
        0x0001d7c0:    a915        ..      ADD      r1,sp,#0x54
        0x0001d7c2:    f000ff43    ..C.    BL       decstr_to_int ; 0x1e64c
        0x0001d7c6:    9011        ..      STR      r0,[sp,#0x44]
        0x0001d7c8:    9915        ..      LDR      r1,[sp,#0x54]
        0x0001d7ca:    981b        ..      LDR      r0,[sp,#0x6c]
        0x0001d7cc:    4408        .D      ADD      r0,r0,r1
        0x0001d7ce:    901b        ..      STR      r0,[sp,#0x6c]
        0x0001d7d0:    e7ff        ..      B        0x1d7d2 ; am_util_stdio_vsprintf + 250
        0x0001d7d2:    981b        ..      LDR      r0,[sp,#0x6c]
        0x0001d7d4:    7800        .x      LDRB     r0,[r0,#0]
        0x0001d7d6:    286c        l(      CMP      r0,#0x6c
        0x0001d7d8:    d110        ..      BNE      0x1d7fc ; am_util_stdio_vsprintf + 292
        0x0001d7da:    e7ff        ..      B        0x1d7dc ; am_util_stdio_vsprintf + 260
        0x0001d7dc:    981b        ..      LDR      r0,[sp,#0x6c]
        0x0001d7de:    3001        .0      ADDS     r0,#1
        0x0001d7e0:    901b        ..      STR      r0,[sp,#0x6c]
        0x0001d7e2:    981b        ..      LDR      r0,[sp,#0x6c]
        0x0001d7e4:    7800        .x      LDRB     r0,[r0,#0]
        0x0001d7e6:    286c        l(      CMP      r0,#0x6c
        0x0001d7e8:    d107        ..      BNE      0x1d7fa ; am_util_stdio_vsprintf + 290
        0x0001d7ea:    e7ff        ..      B        0x1d7ec ; am_util_stdio_vsprintf + 276
        0x0001d7ec:    981b        ..      LDR      r0,[sp,#0x6c]
        0x0001d7ee:    3001        .0      ADDS     r0,#1
        0x0001d7f0:    901b        ..      STR      r0,[sp,#0x6c]
        0x0001d7f2:    2001        .       MOVS     r0,#1
        0x0001d7f4:    f88d0040    ..@.    STRB     r0,[sp,#0x40]
        0x0001d7f8:    e7ff        ..      B        0x1d7fa ; am_util_stdio_vsprintf + 290
        0x0001d7fa:    e7ff        ..      B        0x1d7fc ; am_util_stdio_vsprintf + 292
        0x0001d7fc:    981b        ..      LDR      r0,[sp,#0x6c]
        0x0001d7fe:    7800        .x      LDRB     r0,[r0,#0]
        0x0001d800:    3846        F8      SUBS     r0,r0,#0x46
        0x0001d802:    4601        .F      MOV      r1,r0
        0x0001d804:    910b        ..      STR      r1,[sp,#0x2c]
        0x0001d806:    2832        2(      CMP      r0,#0x32
        0x0001d808:    f2008273    ..s.    BHI.W    0x1dcf2 ; am_util_stdio_vsprintf + 1562
        0x0001d80c:    990b        ..      LDR      r1,[sp,#0x2c]
        0x0001d80e:    e8dff011    ....    TBH      [pc,r1,LSL #1]
    $d.4
        0x0001d812:    0224        $.      DCW    548
        0x0001d814:    02700270    p.p.    DCD    40895088
        0x0001d818:    02700270    p.p.    DCD    40895088
        0x0001d81c:    02700270    p.p.    DCD    40895088
        0x0001d820:    02700270    p.p.    DCD    40895088
        0x0001d824:    02700270    p.p.    DCD    40895088
        0x0001d828:    02700270    p.p.    DCD    40895088
        0x0001d82c:    02700270    p.p.    DCD    40895088
        0x0001d830:    02700270    p.p.    DCD    40895088
        0x0001d834:    00bf0270    p...    DCD    12518000
        0x0001d838:    02700270    p.p.    DCD    40895088
        0x0001d83c:    02700270    p.p.    DCD    40895088
        0x0001d840:    02700270    p.p.    DCD    40895088
        0x0001d844:    02700270    p.p.    DCD    40895088
        0x0001d848:    02700270    p.p.    DCD    40895088
        0x0001d84c:    016f0033    3.o.    DCD    24051763
        0x0001d850:    02240270    p.$.    DCD    35914352
        0x0001d854:    02700270    p.p.    DCD    40895088
        0x0001d858:    0270016f    o.p.    DCD    40894831
        0x0001d85c:    02700270    p.p.    DCD    40895088
        0x0001d860:    02700270    p.p.    DCD    40895088
        0x0001d864:    02700270    p.p.    DCD    40895088
        0x0001d868:    02700270    p.p.    DCD    40895088
        0x0001d86c:    02700047    G.p.    DCD    40894535
        0x0001d870:    02700119    ..p.    DCD    40894745
        0x0001d874:    00bb0270    p...    DCD    12255856
    $t.5
        0x0001d878:    981d        ..      LDR      r0,[sp,#0x74]
        0x0001d87a:    1d01        ..      ADDS     r1,r0,#4
        0x0001d87c:    911d        ..      STR      r1,[sp,#0x74]
        0x0001d87e:    6800        .h      LDR      r0,[r0,#0]
        0x0001d880:    f88d0043    ..C.    STRB     r0,[sp,#0x43]
        0x0001d884:    981c        ..      LDR      r0,[sp,#0x70]
        0x0001d886:    b138        8.      CBZ      r0,0x1d898 ; am_util_stdio_vsprintf + 448
        0x0001d888:    e7ff        ..      B        0x1d88a ; am_util_stdio_vsprintf + 434
        0x0001d88a:    f89d0043    ..C.    LDRB     r0,[sp,#0x43]
        0x0001d88e:    991c        ..      LDR      r1,[sp,#0x70]
        0x0001d890:    1c4a        J.      ADDS     r2,r1,#1
        0x0001d892:    921c        ..      STR      r2,[sp,#0x70]
        0x0001d894:    7008        .p      STRB     r0,[r1,#0]
        0x0001d896:    e7ff        ..      B        0x1d898 ; am_util_stdio_vsprintf + 448
        0x0001d898:    9814        ..      LDR      r0,[sp,#0x50]
        0x0001d89a:    3001        .0      ADDS     r0,#1
        0x0001d89c:    9014        ..      STR      r0,[sp,#0x50]
        0x0001d89e:    e236        6.      B        0x1dd0e ; am_util_stdio_vsprintf + 1590
        0x0001d8a0:    981d        ..      LDR      r0,[sp,#0x74]
        0x0001d8a2:    1d01        ..      ADDS     r1,r0,#4
        0x0001d8a4:    911d        ..      STR      r1,[sp,#0x74]
        0x0001d8a6:    6800        .h      LDR      r0,[r0,#0]
        0x0001d8a8:    901a        ..      STR      r0,[sp,#0x68]
        0x0001d8aa:    981a        ..      LDR      r0,[sp,#0x68]
        0x0001d8ac:    f002fa50    ..P.    BL       simple_strlen ; 0x1fd50
        0x0001d8b0:    900e        ..      STR      r0,[sp,#0x38]
        0x0001d8b2:    9813        ..      LDR      r0,[sp,#0x4c]
        0x0001d8b4:    2801        .(      CMP      r0,#1
        0x0001d8b6:    db25        %.      BLT      0x1d904 ; am_util_stdio_vsprintf + 556
        0x0001d8b8:    e7ff        ..      B        0x1d8ba ; am_util_stdio_vsprintf + 482
        0x0001d8ba:    980e        ..      LDR      r0,[sp,#0x38]
        0x0001d8bc:    9913        ..      LDR      r1,[sp,#0x4c]
        0x0001d8be:    4288        .B      CMP      r0,r1
        0x0001d8c0:    d21f        ..      BCS      0x1d902 ; am_util_stdio_vsprintf + 554
        0x0001d8c2:    e7ff        ..      B        0x1d8c4 ; am_util_stdio_vsprintf + 492
        0x0001d8c4:    990e        ..      LDR      r1,[sp,#0x38]
        0x0001d8c6:    9813        ..      LDR      r0,[sp,#0x4c]
        0x0001d8c8:    1a40        @.      SUBS     r0,r0,r1
        0x0001d8ca:    9013        ..      STR      r0,[sp,#0x4c]
        0x0001d8cc:    981c        ..      LDR      r0,[sp,#0x70]
        0x0001d8ce:    f89d1042    ..B.    LDRB     r1,[sp,#0x42]
        0x0001d8d2:    9a13        ..      LDR      r2,[sp,#0x4c]
        0x0001d8d4:    f002f922    ..".    BL       padbuffer ; 0x1fb1c
        0x0001d8d8:    9013        ..      STR      r0,[sp,#0x4c]
        0x0001d8da:    981c        ..      LDR      r0,[sp,#0x70]
        0x0001d8dc:    b118        ..      CBZ      r0,0x1d8e6 ; am_util_stdio_vsprintf + 526
        0x0001d8de:    e7ff        ..      B        0x1d8e0 ; am_util_stdio_vsprintf + 520
        0x0001d8e0:    9813        ..      LDR      r0,[sp,#0x4c]
        0x0001d8e2:    900a        ..      STR      r0,[sp,#0x28]
        0x0001d8e4:    e002        ..      B        0x1d8ec ; am_util_stdio_vsprintf + 532
        0x0001d8e6:    2000        .       MOVS     r0,#0
        0x0001d8e8:    900a        ..      STR      r0,[sp,#0x28]
        0x0001d8ea:    e7ff        ..      B        0x1d8ec ; am_util_stdio_vsprintf + 532
        0x0001d8ec:    990a        ..      LDR      r1,[sp,#0x28]
        0x0001d8ee:    981c        ..      LDR      r0,[sp,#0x70]
        0x0001d8f0:    4408        .D      ADD      r0,r0,r1
        0x0001d8f2:    901c        ..      STR      r0,[sp,#0x70]
        0x0001d8f4:    9913        ..      LDR      r1,[sp,#0x4c]
        0x0001d8f6:    9814        ..      LDR      r0,[sp,#0x50]
        0x0001d8f8:    4408        .D      ADD      r0,r0,r1
        0x0001d8fa:    9014        ..      STR      r0,[sp,#0x50]
        0x0001d8fc:    2000        .       MOVS     r0,#0
        0x0001d8fe:    9013        ..      STR      r0,[sp,#0x4c]
        0x0001d900:    e7ff        ..      B        0x1d902 ; am_util_stdio_vsprintf + 554
        0x0001d902:    e7ff        ..      B        0x1d904 ; am_util_stdio_vsprintf + 556
        0x0001d904:    e7ff        ..      B        0x1d906 ; am_util_stdio_vsprintf + 558
        0x0001d906:    981a        ..      LDR      r0,[sp,#0x68]
        0x0001d908:    7800        .x      LDRB     r0,[r0,#0]
        0x0001d90a:    b188        ..      CBZ      r0,0x1d930 ; am_util_stdio_vsprintf + 600
        0x0001d90c:    e7ff        ..      B        0x1d90e ; am_util_stdio_vsprintf + 566
        0x0001d90e:    981c        ..      LDR      r0,[sp,#0x70]
        0x0001d910:    b138        8.      CBZ      r0,0x1d922 ; am_util_stdio_vsprintf + 586
        0x0001d912:    e7ff        ..      B        0x1d914 ; am_util_stdio_vsprintf + 572
        0x0001d914:    981a        ..      LDR      r0,[sp,#0x68]
        0x0001d916:    7800        .x      LDRB     r0,[r0,#0]
        0x0001d918:    991c        ..      LDR      r1,[sp,#0x70]
        0x0001d91a:    1c4a        J.      ADDS     r2,r1,#1
        0x0001d91c:    921c        ..      STR      r2,[sp,#0x70]
        0x0001d91e:    7008        .p      STRB     r0,[r1,#0]
        0x0001d920:    e7ff        ..      B        0x1d922 ; am_util_stdio_vsprintf + 586
        0x0001d922:    981a        ..      LDR      r0,[sp,#0x68]
        0x0001d924:    3001        .0      ADDS     r0,#1
        0x0001d926:    901a        ..      STR      r0,[sp,#0x68]
        0x0001d928:    9814        ..      LDR      r0,[sp,#0x50]
        0x0001d92a:    3001        .0      ADDS     r0,#1
        0x0001d92c:    9014        ..      STR      r0,[sp,#0x50]
        0x0001d92e:    e7ea        ..      B        0x1d906 ; am_util_stdio_vsprintf + 558
        0x0001d930:    9813        ..      LDR      r0,[sp,#0x4c]
        0x0001d932:    b340        @.      CBZ      r0,0x1d986 ; am_util_stdio_vsprintf + 686
        0x0001d934:    e7ff        ..      B        0x1d936 ; am_util_stdio_vsprintf + 606
        0x0001d936:    9813        ..      LDR      r0,[sp,#0x4c]
        0x0001d938:    4240        @B      RSBS     r0,r0,#0
        0x0001d93a:    9013        ..      STR      r0,[sp,#0x4c]
        0x0001d93c:    980e        ..      LDR      r0,[sp,#0x38]
        0x0001d93e:    9913        ..      LDR      r1,[sp,#0x4c]
        0x0001d940:    4288        .B      CMP      r0,r1
        0x0001d942:    d21f        ..      BCS      0x1d984 ; am_util_stdio_vsprintf + 684
        0x0001d944:    e7ff        ..      B        0x1d946 ; am_util_stdio_vsprintf + 622
        0x0001d946:    990e        ..      LDR      r1,[sp,#0x38]
        0x0001d948:    9813        ..      LDR      r0,[sp,#0x4c]
        0x0001d94a:    1a40        @.      SUBS     r0,r0,r1
        0x0001d94c:    9013        ..      STR      r0,[sp,#0x4c]
        0x0001d94e:    981c        ..      LDR      r0,[sp,#0x70]
        0x0001d950:    f89d1042    ..B.    LDRB     r1,[sp,#0x42]
        0x0001d954:    9a13        ..      LDR      r2,[sp,#0x4c]
        0x0001d956:    f002f8e1    ....    BL       padbuffer ; 0x1fb1c
        0x0001d95a:    9013        ..      STR      r0,[sp,#0x4c]
        0x0001d95c:    981c        ..      LDR      r0,[sp,#0x70]
        0x0001d95e:    b118        ..      CBZ      r0,0x1d968 ; am_util_stdio_vsprintf + 656
        0x0001d960:    e7ff        ..      B        0x1d962 ; am_util_stdio_vsprintf + 650
        0x0001d962:    9813        ..      LDR      r0,[sp,#0x4c]
        0x0001d964:    9009        ..      STR      r0,[sp,#0x24]
        0x0001d966:    e002        ..      B        0x1d96e ; am_util_stdio_vsprintf + 662
        0x0001d968:    2000        .       MOVS     r0,#0
        0x0001d96a:    9009        ..      STR      r0,[sp,#0x24]
        0x0001d96c:    e7ff        ..      B        0x1d96e ; am_util_stdio_vsprintf + 662
        0x0001d96e:    9909        ..      LDR      r1,[sp,#0x24]
        0x0001d970:    981c        ..      LDR      r0,[sp,#0x70]
        0x0001d972:    4408        .D      ADD      r0,r0,r1
        0x0001d974:    901c        ..      STR      r0,[sp,#0x70]
        0x0001d976:    9913        ..      LDR      r1,[sp,#0x4c]
        0x0001d978:    9814        ..      LDR      r0,[sp,#0x50]
        0x0001d97a:    4408        .D      ADD      r0,r0,r1
        0x0001d97c:    9014        ..      STR      r0,[sp,#0x50]
        0x0001d97e:    2000        .       MOVS     r0,#0
        0x0001d980:    9013        ..      STR      r0,[sp,#0x4c]
        0x0001d982:    e7ff        ..      B        0x1d984 ; am_util_stdio_vsprintf + 684
        0x0001d984:    e7ff        ..      B        0x1d986 ; am_util_stdio_vsprintf + 686
        0x0001d986:    e1c2        ..      B        0x1dd0e ; am_util_stdio_vsprintf + 1590
        0x0001d988:    2001        .       MOVS     r0,#1
        0x0001d98a:    f88d0041    ..A.    STRB     r0,[sp,#0x41]
        0x0001d98e:    e7ff        ..      B        0x1d990 ; am_util_stdio_vsprintf + 696
        0x0001d990:    f89d0040    ..@.    LDRB     r0,[sp,#0x40]
        0x0001d994:    07c0        ..      LSLS     r0,r0,#31
        0x0001d996:    b160        `.      CBZ      r0,0x1d9b2 ; am_util_stdio_vsprintf + 730
        0x0001d998:    e7ff        ..      B        0x1d99a ; am_util_stdio_vsprintf + 706
        0x0001d99a:    981d        ..      LDR      r0,[sp,#0x74]
        0x0001d99c:    3007        .0      ADDS     r0,#7
        0x0001d99e:    f0200007     ...    BIC      r0,r0,#7
        0x0001d9a2:    f1000108    ....    ADD      r1,r0,#8
        0x0001d9a6:    911d        ..      STR      r1,[sp,#0x74]
        0x0001d9a8:    6801        .h      LDR      r1,[r0,#0]
        0x0001d9aa:    6840        @h      LDR      r0,[r0,#4]
        0x0001d9ac:    9107        ..      STR      r1,[sp,#0x1c]
        0x0001d9ae:    9008        ..      STR      r0,[sp,#0x20]
        0x0001d9b0:    e007        ..      B        0x1d9c2 ; am_util_stdio_vsprintf + 746
        0x0001d9b2:    981d        ..      LDR      r0,[sp,#0x74]
        0x0001d9b4:    1d01        ..      ADDS     r1,r0,#4
        0x0001d9b6:    911d        ..      STR      r1,[sp,#0x74]
        0x0001d9b8:    6801        .h      LDR      r1,[r0,#0]
        0x0001d9ba:    2000        .       MOVS     r0,#0
        0x0001d9bc:    9107        ..      STR      r1,[sp,#0x1c]
        0x0001d9be:    9008        ..      STR      r0,[sp,#0x20]
        0x0001d9c0:    e7ff        ..      B        0x1d9c2 ; am_util_stdio_vsprintf + 746
        0x0001d9c2:    9907        ..      LDR      r1,[sp,#0x1c]
        0x0001d9c4:    9808        ..      LDR      r0,[sp,#0x20]
        0x0001d9c6:    9118        ..      STR      r1,[sp,#0x60]
        0x0001d9c8:    9019        ..      STR      r0,[sp,#0x64]
        0x0001d9ca:    9813        ..      LDR      r0,[sp,#0x4c]
        0x0001d9cc:    b318        ..      CBZ      r0,0x1da16 ; am_util_stdio_vsprintf + 830
        0x0001d9ce:    e7ff        ..      B        0x1d9d0 ; am_util_stdio_vsprintf + 760
        0x0001d9d0:    9818        ..      LDR      r0,[sp,#0x60]
        0x0001d9d2:    9919        ..      LDR      r1,[sp,#0x64]
        0x0001d9d4:    f002f84c    ..L.    BL       ndigits_in_hex ; 0x1fa70
        0x0001d9d8:    4601        .F      MOV      r1,r0
        0x0001d9da:    9813        ..      LDR      r0,[sp,#0x4c]
        0x0001d9dc:    1a40        @.      SUBS     r0,r0,r1
        0x0001d9de:    9013        ..      STR      r0,[sp,#0x4c]
        0x0001d9e0:    981c        ..      LDR      r0,[sp,#0x70]
        0x0001d9e2:    f89d1042    ..B.    LDRB     r1,[sp,#0x42]
        0x0001d9e6:    9a13        ..      LDR      r2,[sp,#0x4c]
        0x0001d9e8:    f002f898    ....    BL       padbuffer ; 0x1fb1c
        0x0001d9ec:    9013        ..      STR      r0,[sp,#0x4c]
        0x0001d9ee:    981c        ..      LDR      r0,[sp,#0x70]
        0x0001d9f0:    b118        ..      CBZ      r0,0x1d9fa ; am_util_stdio_vsprintf + 802
        0x0001d9f2:    e7ff        ..      B        0x1d9f4 ; am_util_stdio_vsprintf + 796
        0x0001d9f4:    9813        ..      LDR      r0,[sp,#0x4c]
        0x0001d9f6:    9006        ..      STR      r0,[sp,#0x18]
        0x0001d9f8:    e002        ..      B        0x1da00 ; am_util_stdio_vsprintf + 808
        0x0001d9fa:    2000        .       MOVS     r0,#0
        0x0001d9fc:    9006        ..      STR      r0,[sp,#0x18]
        0x0001d9fe:    e7ff        ..      B        0x1da00 ; am_util_stdio_vsprintf + 808
        0x0001da00:    9906        ..      LDR      r1,[sp,#0x18]
        0x0001da02:    981c        ..      LDR      r0,[sp,#0x70]
        0x0001da04:    4408        .D      ADD      r0,r0,r1
        0x0001da06:    901c        ..      STR      r0,[sp,#0x70]
        0x0001da08:    9913        ..      LDR      r1,[sp,#0x4c]
        0x0001da0a:    9814        ..      LDR      r0,[sp,#0x50]
        0x0001da0c:    4408        .D      ADD      r0,r0,r1
        0x0001da0e:    9014        ..      STR      r0,[sp,#0x50]
        0x0001da10:    2000        .       MOVS     r0,#0
        0x0001da12:    9013        ..      STR      r0,[sp,#0x4c]
        0x0001da14:    e7ff        ..      B        0x1da16 ; am_util_stdio_vsprintf + 830
        0x0001da16:    9818        ..      LDR      r0,[sp,#0x60]
        0x0001da18:    9919        ..      LDR      r1,[sp,#0x64]
        0x0001da1a:    9a1c        ..      LDR      r2,[sp,#0x70]
        0x0001da1c:    f89d3041    ..A0    LDRB     r3,[sp,#0x41]
        0x0001da20:    f0030301    ....    AND      r3,r3,#1
        0x0001da24:    f002f9b0    ....    BL       uint64_to_hexstr ; 0x1fd88
        0x0001da28:    9012        ..      STR      r0,[sp,#0x48]
        0x0001da2a:    981c        ..      LDR      r0,[sp,#0x70]
        0x0001da2c:    b128        (.      CBZ      r0,0x1da3a ; am_util_stdio_vsprintf + 866
        0x0001da2e:    e7ff        ..      B        0x1da30 ; am_util_stdio_vsprintf + 856
        0x0001da30:    9912        ..      LDR      r1,[sp,#0x48]
        0x0001da32:    981c        ..      LDR      r0,[sp,#0x70]
        0x0001da34:    4408        .D      ADD      r0,r0,r1
        0x0001da36:    901c        ..      STR      r0,[sp,#0x70]
        0x0001da38:    e7ff        ..      B        0x1da3a ; am_util_stdio_vsprintf + 866
        0x0001da3a:    9912        ..      LDR      r1,[sp,#0x48]
        0x0001da3c:    9814        ..      LDR      r0,[sp,#0x50]
        0x0001da3e:    4408        .D      ADD      r0,r0,r1
        0x0001da40:    9014        ..      STR      r0,[sp,#0x50]
        0x0001da42:    e164        d.      B        0x1dd0e ; am_util_stdio_vsprintf + 1590
        0x0001da44:    f89d0040    ..@.    LDRB     r0,[sp,#0x40]
        0x0001da48:    07c0        ..      LSLS     r0,r0,#31
        0x0001da4a:    b160        `.      CBZ      r0,0x1da66 ; am_util_stdio_vsprintf + 910
        0x0001da4c:    e7ff        ..      B        0x1da4e ; am_util_stdio_vsprintf + 886
        0x0001da4e:    981d        ..      LDR      r0,[sp,#0x74]
        0x0001da50:    3007        .0      ADDS     r0,#7
        0x0001da52:    f0200007     ...    BIC      r0,r0,#7
        0x0001da56:    f1000108    ....    ADD      r1,r0,#8
        0x0001da5a:    911d        ..      STR      r1,[sp,#0x74]
        0x0001da5c:    6801        .h      LDR      r1,[r0,#0]
        0x0001da5e:    6840        @h      LDR      r0,[r0,#4]
        0x0001da60:    9104        ..      STR      r1,[sp,#0x10]
        0x0001da62:    9005        ..      STR      r0,[sp,#0x14]
        0x0001da64:    e007        ..      B        0x1da76 ; am_util_stdio_vsprintf + 926
        0x0001da66:    981d        ..      LDR      r0,[sp,#0x74]
        0x0001da68:    1d01        ..      ADDS     r1,r0,#4
        0x0001da6a:    911d        ..      STR      r1,[sp,#0x74]
        0x0001da6c:    6801        .h      LDR      r1,[r0,#0]
        0x0001da6e:    2000        .       MOVS     r0,#0
        0x0001da70:    9104        ..      STR      r1,[sp,#0x10]
        0x0001da72:    9005        ..      STR      r0,[sp,#0x14]
        0x0001da74:    e7ff        ..      B        0x1da76 ; am_util_stdio_vsprintf + 926
        0x0001da76:    9904        ..      LDR      r1,[sp,#0x10]
        0x0001da78:    9805        ..      LDR      r0,[sp,#0x14]
        0x0001da7a:    9118        ..      STR      r1,[sp,#0x60]
        0x0001da7c:    9019        ..      STR      r0,[sp,#0x64]
        0x0001da7e:    9813        ..      LDR      r0,[sp,#0x4c]
        0x0001da80:    b318        ..      CBZ      r0,0x1daca ; am_util_stdio_vsprintf + 1010
        0x0001da82:    e7ff        ..      B        0x1da84 ; am_util_stdio_vsprintf + 940
        0x0001da84:    9818        ..      LDR      r0,[sp,#0x60]
        0x0001da86:    9919        ..      LDR      r1,[sp,#0x64]
        0x0001da88:    f002f82a    ..*.    BL       ndigits_in_u64 ; 0x1fae0
        0x0001da8c:    4601        .F      MOV      r1,r0
        0x0001da8e:    9813        ..      LDR      r0,[sp,#0x4c]
        0x0001da90:    1a40        @.      SUBS     r0,r0,r1
        0x0001da92:    9013        ..      STR      r0,[sp,#0x4c]
        0x0001da94:    981c        ..      LDR      r0,[sp,#0x70]
        0x0001da96:    f89d1042    ..B.    LDRB     r1,[sp,#0x42]
        0x0001da9a:    9a13        ..      LDR      r2,[sp,#0x4c]
        0x0001da9c:    f002f83e    ..>.    BL       padbuffer ; 0x1fb1c
        0x0001daa0:    9013        ..      STR      r0,[sp,#0x4c]
        0x0001daa2:    981c        ..      LDR      r0,[sp,#0x70]
        0x0001daa4:    b118        ..      CBZ      r0,0x1daae ; am_util_stdio_vsprintf + 982
        0x0001daa6:    e7ff        ..      B        0x1daa8 ; am_util_stdio_vsprintf + 976
        0x0001daa8:    9813        ..      LDR      r0,[sp,#0x4c]
        0x0001daaa:    9003        ..      STR      r0,[sp,#0xc]
        0x0001daac:    e002        ..      B        0x1dab4 ; am_util_stdio_vsprintf + 988
        0x0001daae:    2000        .       MOVS     r0,#0
        0x0001dab0:    9003        ..      STR      r0,[sp,#0xc]
        0x0001dab2:    e7ff        ..      B        0x1dab4 ; am_util_stdio_vsprintf + 988
        0x0001dab4:    9903        ..      LDR      r1,[sp,#0xc]
        0x0001dab6:    981c        ..      LDR      r0,[sp,#0x70]
        0x0001dab8:    4408        .D      ADD      r0,r0,r1
        0x0001daba:    901c        ..      STR      r0,[sp,#0x70]
        0x0001dabc:    9913        ..      LDR      r1,[sp,#0x4c]
        0x0001dabe:    9814        ..      LDR      r0,[sp,#0x50]
        0x0001dac0:    4408        .D      ADD      r0,r0,r1
        0x0001dac2:    9014        ..      STR      r0,[sp,#0x50]
        0x0001dac4:    2000        .       MOVS     r0,#0
        0x0001dac6:    9013        ..      STR      r0,[sp,#0x4c]
        0x0001dac8:    e7ff        ..      B        0x1daca ; am_util_stdio_vsprintf + 1010
        0x0001daca:    9818        ..      LDR      r0,[sp,#0x60]
        0x0001dacc:    9919        ..      LDR      r1,[sp,#0x64]
        0x0001dace:    9a1c        ..      LDR      r2,[sp,#0x70]
        0x0001dad0:    f002f9ba    ....    BL       uint64_to_str ; 0x1fe48
        0x0001dad4:    9012        ..      STR      r0,[sp,#0x48]
        0x0001dad6:    981c        ..      LDR      r0,[sp,#0x70]
        0x0001dad8:    b128        (.      CBZ      r0,0x1dae6 ; am_util_stdio_vsprintf + 1038
        0x0001dada:    e7ff        ..      B        0x1dadc ; am_util_stdio_vsprintf + 1028
        0x0001dadc:    9912        ..      LDR      r1,[sp,#0x48]
        0x0001dade:    981c        ..      LDR      r0,[sp,#0x70]
        0x0001dae0:    4408        .D      ADD      r0,r0,r1
        0x0001dae2:    901c        ..      STR      r0,[sp,#0x70]
        0x0001dae4:    e7ff        ..      B        0x1dae6 ; am_util_stdio_vsprintf + 1038
        0x0001dae6:    9912        ..      LDR      r1,[sp,#0x48]
        0x0001dae8:    9814        ..      LDR      r0,[sp,#0x50]
        0x0001daea:    4408        .D      ADD      r0,r0,r1
        0x0001daec:    9014        ..      STR      r0,[sp,#0x50]
        0x0001daee:    e10e        ..      B        0x1dd0e ; am_util_stdio_vsprintf + 1590
        0x0001daf0:    f89d0040    ..@.    LDRB     r0,[sp,#0x40]
        0x0001daf4:    07c0        ..      LSLS     r0,r0,#31
        0x0001daf6:    b160        `.      CBZ      r0,0x1db12 ; am_util_stdio_vsprintf + 1082
        0x0001daf8:    e7ff        ..      B        0x1dafa ; am_util_stdio_vsprintf + 1058
        0x0001dafa:    981d        ..      LDR      r0,[sp,#0x74]
        0x0001dafc:    3007        .0      ADDS     r0,#7
        0x0001dafe:    f0200007     ...    BIC      r0,r0,#7
        0x0001db02:    f1000108    ....    ADD      r1,r0,#8
        0x0001db06:    911d        ..      STR      r1,[sp,#0x74]
        0x0001db08:    6801        .h      LDR      r1,[r0,#0]
        0x0001db0a:    6840        @h      LDR      r0,[r0,#4]
        0x0001db0c:    9101        ..      STR      r1,[sp,#4]
        0x0001db0e:    9002        ..      STR      r0,[sp,#8]
        0x0001db10:    e007        ..      B        0x1db22 ; am_util_stdio_vsprintf + 1098
        0x0001db12:    981d        ..      LDR      r0,[sp,#0x74]
        0x0001db14:    1d01        ..      ADDS     r1,r0,#4
        0x0001db16:    911d        ..      STR      r1,[sp,#0x74]
        0x0001db18:    6801        .h      LDR      r1,[r0,#0]
        0x0001db1a:    17c8        ..      ASRS     r0,r1,#31
        0x0001db1c:    9101        ..      STR      r1,[sp,#4]
        0x0001db1e:    9002        ..      STR      r0,[sp,#8]
        0x0001db20:    e7ff        ..      B        0x1db22 ; am_util_stdio_vsprintf + 1098
        0x0001db22:    9901        ..      LDR      r1,[sp,#4]
        0x0001db24:    9802        ..      LDR      r0,[sp,#8]
        0x0001db26:    9116        ..      STR      r1,[sp,#0x58]
        0x0001db28:    9017        ..      STR      r0,[sp,#0x5c]
        0x0001db2a:    9817        ..      LDR      r0,[sp,#0x5c]
        0x0001db2c:    f1b03fff    ...?    CMP      r0,#0xffffffff
        0x0001db30:    dc0c        ..      BGT      0x1db4c ; am_util_stdio_vsprintf + 1140
        0x0001db32:    e7ff        ..      B        0x1db34 ; am_util_stdio_vsprintf + 1116
        0x0001db34:    9816        ..      LDR      r0,[sp,#0x58]
        0x0001db36:    9a17        ..      LDR      r2,[sp,#0x5c]
        0x0001db38:    4241        AB      RSBS     r1,r0,#0
        0x0001db3a:    f04f0000    O...    MOV      r0,#0
        0x0001db3e:    4190        .A      SBCS     r0,r0,r2
        0x0001db40:    9118        ..      STR      r1,[sp,#0x60]
        0x0001db42:    9019        ..      STR      r0,[sp,#0x64]
        0x0001db44:    2001        .       MOVS     r0,#1
        0x0001db46:    f88d003f    ..?.    STRB     r0,[sp,#0x3f]
        0x0001db4a:    e007        ..      B        0x1db5c ; am_util_stdio_vsprintf + 1156
        0x0001db4c:    9816        ..      LDR      r0,[sp,#0x58]
        0x0001db4e:    9917        ..      LDR      r1,[sp,#0x5c]
        0x0001db50:    9119        ..      STR      r1,[sp,#0x64]
        0x0001db52:    9018        ..      STR      r0,[sp,#0x60]
        0x0001db54:    2000        .       MOVS     r0,#0
        0x0001db56:    f88d003f    ..?.    STRB     r0,[sp,#0x3f]
        0x0001db5a:    e7ff        ..      B        0x1db5c ; am_util_stdio_vsprintf + 1156
        0x0001db5c:    9813        ..      LDR      r0,[sp,#0x4c]
        0x0001db5e:    2800        .(      CMP      r0,#0
        0x0001db60:    d055        U.      BEQ      0x1dc0e ; am_util_stdio_vsprintf + 1334
        0x0001db62:    e7ff        ..      B        0x1db64 ; am_util_stdio_vsprintf + 1164
        0x0001db64:    9818        ..      LDR      r0,[sp,#0x60]
        0x0001db66:    9919        ..      LDR      r1,[sp,#0x64]
        0x0001db68:    f001ffa2    ....    BL       ndigits_in_i64 ; 0x1fab0
        0x0001db6c:    4601        .F      MOV      r1,r0
        0x0001db6e:    9813        ..      LDR      r0,[sp,#0x4c]
        0x0001db70:    1a40        @.      SUBS     r0,r0,r1
        0x0001db72:    9013        ..      STR      r0,[sp,#0x4c]
        0x0001db74:    f89d003f    ..?.    LDRB     r0,[sp,#0x3f]
        0x0001db78:    07c0        ..      LSLS     r0,r0,#31
        0x0001db7a:    b1b0        ..      CBZ      r0,0x1dbaa ; am_util_stdio_vsprintf + 1234
        0x0001db7c:    e7ff        ..      B        0x1db7e ; am_util_stdio_vsprintf + 1190
        0x0001db7e:    9813        ..      LDR      r0,[sp,#0x4c]
        0x0001db80:    3801        .8      SUBS     r0,#1
        0x0001db82:    9013        ..      STR      r0,[sp,#0x4c]
        0x0001db84:    f89d0042    ..B.    LDRB     r0,[sp,#0x42]
        0x0001db88:    2830        0(      CMP      r0,#0x30
        0x0001db8a:    d10d        ..      BNE      0x1dba8 ; am_util_stdio_vsprintf + 1232
        0x0001db8c:    e7ff        ..      B        0x1db8e ; am_util_stdio_vsprintf + 1206
        0x0001db8e:    981c        ..      LDR      r0,[sp,#0x70]
        0x0001db90:    b130        0.      CBZ      r0,0x1dba0 ; am_util_stdio_vsprintf + 1224
        0x0001db92:    e7ff        ..      B        0x1db94 ; am_util_stdio_vsprintf + 1212
        0x0001db94:    991c        ..      LDR      r1,[sp,#0x70]
        0x0001db96:    1c48        H.      ADDS     r0,r1,#1
        0x0001db98:    901c        ..      STR      r0,[sp,#0x70]
        0x0001db9a:    202d        -       MOVS     r0,#0x2d
        0x0001db9c:    7008        .p      STRB     r0,[r1,#0]
        0x0001db9e:    e7ff        ..      B        0x1dba0 ; am_util_stdio_vsprintf + 1224
        0x0001dba0:    9814        ..      LDR      r0,[sp,#0x50]
        0x0001dba2:    3001        .0      ADDS     r0,#1
        0x0001dba4:    9014        ..      STR      r0,[sp,#0x50]
        0x0001dba6:    e7ff        ..      B        0x1dba8 ; am_util_stdio_vsprintf + 1232
        0x0001dba8:    e7ff        ..      B        0x1dbaa ; am_util_stdio_vsprintf + 1234
        0x0001dbaa:    981c        ..      LDR      r0,[sp,#0x70]
        0x0001dbac:    f89d1042    ..B.    LDRB     r1,[sp,#0x42]
        0x0001dbb0:    9a13        ..      LDR      r2,[sp,#0x4c]
        0x0001dbb2:    f001ffb3    ....    BL       padbuffer ; 0x1fb1c
        0x0001dbb6:    9013        ..      STR      r0,[sp,#0x4c]
        0x0001dbb8:    981c        ..      LDR      r0,[sp,#0x70]
        0x0001dbba:    b118        ..      CBZ      r0,0x1dbc4 ; am_util_stdio_vsprintf + 1260
        0x0001dbbc:    e7ff        ..      B        0x1dbbe ; am_util_stdio_vsprintf + 1254
        0x0001dbbe:    9813        ..      LDR      r0,[sp,#0x4c]
        0x0001dbc0:    9000        ..      STR      r0,[sp,#0]
        0x0001dbc2:    e002        ..      B        0x1dbca ; am_util_stdio_vsprintf + 1266
        0x0001dbc4:    2000        .       MOVS     r0,#0
        0x0001dbc6:    9000        ..      STR      r0,[sp,#0]
        0x0001dbc8:    e7ff        ..      B        0x1dbca ; am_util_stdio_vsprintf + 1266
        0x0001dbca:    9900        ..      LDR      r1,[sp,#0]
        0x0001dbcc:    981c        ..      LDR      r0,[sp,#0x70]
        0x0001dbce:    4408        .D      ADD      r0,r0,r1
        0x0001dbd0:    901c        ..      STR      r0,[sp,#0x70]
        0x0001dbd2:    9913        ..      LDR      r1,[sp,#0x4c]
        0x0001dbd4:    9814        ..      LDR      r0,[sp,#0x50]
        0x0001dbd6:    4408        .D      ADD      r0,r0,r1
        0x0001dbd8:    9014        ..      STR      r0,[sp,#0x50]
        0x0001dbda:    2000        .       MOVS     r0,#0
        0x0001dbdc:    9013        ..      STR      r0,[sp,#0x4c]
        0x0001dbde:    f89d003f    ..?.    LDRB     r0,[sp,#0x3f]
        0x0001dbe2:    07c0        ..      LSLS     r0,r0,#31
        0x0001dbe4:    b190        ..      CBZ      r0,0x1dc0c ; am_util_stdio_vsprintf + 1332
        0x0001dbe6:    e7ff        ..      B        0x1dbe8 ; am_util_stdio_vsprintf + 1296
        0x0001dbe8:    f89d0042    ..B.    LDRB     r0,[sp,#0x42]
        0x0001dbec:    2820         (      CMP      r0,#0x20
        0x0001dbee:    d10d        ..      BNE      0x1dc0c ; am_util_stdio_vsprintf + 1332
        0x0001dbf0:    e7ff        ..      B        0x1dbf2 ; am_util_stdio_vsprintf + 1306
        0x0001dbf2:    981c        ..      LDR      r0,[sp,#0x70]
        0x0001dbf4:    b130        0.      CBZ      r0,0x1dc04 ; am_util_stdio_vsprintf + 1324
        0x0001dbf6:    e7ff        ..      B        0x1dbf8 ; am_util_stdio_vsprintf + 1312
        0x0001dbf8:    991c        ..      LDR      r1,[sp,#0x70]
        0x0001dbfa:    1c48        H.      ADDS     r0,r1,#1
        0x0001dbfc:    901c        ..      STR      r0,[sp,#0x70]
        0x0001dbfe:    202d        -       MOVS     r0,#0x2d
        0x0001dc00:    7008        .p      STRB     r0,[r1,#0]
        0x0001dc02:    e7ff        ..      B        0x1dc04 ; am_util_stdio_vsprintf + 1324
        0x0001dc04:    9814        ..      LDR      r0,[sp,#0x50]
        0x0001dc06:    3001        .0      ADDS     r0,#1
        0x0001dc08:    9014        ..      STR      r0,[sp,#0x50]
        0x0001dc0a:    e7ff        ..      B        0x1dc0c ; am_util_stdio_vsprintf + 1332
        0x0001dc0c:    e012        ..      B        0x1dc34 ; am_util_stdio_vsprintf + 1372
        0x0001dc0e:    f89d003f    ..?.    LDRB     r0,[sp,#0x3f]
        0x0001dc12:    07c0        ..      LSLS     r0,r0,#31
        0x0001dc14:    b168        h.      CBZ      r0,0x1dc32 ; am_util_stdio_vsprintf + 1370
        0x0001dc16:    e7ff        ..      B        0x1dc18 ; am_util_stdio_vsprintf + 1344
        0x0001dc18:    981c        ..      LDR      r0,[sp,#0x70]
        0x0001dc1a:    b130        0.      CBZ      r0,0x1dc2a ; am_util_stdio_vsprintf + 1362
        0x0001dc1c:    e7ff        ..      B        0x1dc1e ; am_util_stdio_vsprintf + 1350
        0x0001dc1e:    991c        ..      LDR      r1,[sp,#0x70]
        0x0001dc20:    1c48        H.      ADDS     r0,r1,#1
        0x0001dc22:    901c        ..      STR      r0,[sp,#0x70]
        0x0001dc24:    202d        -       MOVS     r0,#0x2d
        0x0001dc26:    7008        .p      STRB     r0,[r1,#0]
        0x0001dc28:    e7ff        ..      B        0x1dc2a ; am_util_stdio_vsprintf + 1362
        0x0001dc2a:    9814        ..      LDR      r0,[sp,#0x50]
        0x0001dc2c:    3001        .0      ADDS     r0,#1
        0x0001dc2e:    9014        ..      STR      r0,[sp,#0x50]
        0x0001dc30:    e7ff        ..      B        0x1dc32 ; am_util_stdio_vsprintf + 1370
        0x0001dc32:    e7ff        ..      B        0x1dc34 ; am_util_stdio_vsprintf + 1372
        0x0001dc34:    9818        ..      LDR      r0,[sp,#0x60]
        0x0001dc36:    9919        ..      LDR      r1,[sp,#0x64]
        0x0001dc38:    9a1c        ..      LDR      r2,[sp,#0x70]
        0x0001dc3a:    f002f905    ....    BL       uint64_to_str ; 0x1fe48
        0x0001dc3e:    9012        ..      STR      r0,[sp,#0x48]
        0x0001dc40:    981c        ..      LDR      r0,[sp,#0x70]
        0x0001dc42:    b128        (.      CBZ      r0,0x1dc50 ; am_util_stdio_vsprintf + 1400
        0x0001dc44:    e7ff        ..      B        0x1dc46 ; am_util_stdio_vsprintf + 1390
        0x0001dc46:    9912        ..      LDR      r1,[sp,#0x48]
        0x0001dc48:    981c        ..      LDR      r0,[sp,#0x70]
        0x0001dc4a:    4408        .D      ADD      r0,r0,r1
        0x0001dc4c:    901c        ..      STR      r0,[sp,#0x70]
        0x0001dc4e:    e7ff        ..      B        0x1dc50 ; am_util_stdio_vsprintf + 1400
        0x0001dc50:    9912        ..      LDR      r1,[sp,#0x48]
        0x0001dc52:    9814        ..      LDR      r0,[sp,#0x50]
        0x0001dc54:    4408        .D      ADD      r0,r0,r1
        0x0001dc56:    9014        ..      STR      r0,[sp,#0x50]
        0x0001dc58:    e059        Y.      B        0x1dd0e ; am_util_stdio_vsprintf + 1590
        0x0001dc5a:    981c        ..      LDR      r0,[sp,#0x70]
        0x0001dc5c:    2800        .(      CMP      r0,#0
        0x0001dc5e:    d047        G.      BEQ      0x1dcf0 ; am_util_stdio_vsprintf + 1560
        0x0001dc60:    e7ff        ..      B        0x1dc62 ; am_util_stdio_vsprintf + 1418
        0x0001dc62:    981d        ..      LDR      r0,[sp,#0x74]
        0x0001dc64:    3007        .0      ADDS     r0,#7
        0x0001dc66:    f0200007     ...    BIC      r0,r0,#7
        0x0001dc6a:    f1000108    ....    ADD      r1,r0,#8
        0x0001dc6e:    911d        ..      STR      r1,[sp,#0x74]
        0x0001dc70:    ed900b00    ....    VLDR     d0,[r0,#0]
        0x0001dc74:    ec510b10    Q...    VMOV     r0,r1,d0
        0x0001dc78:    f002f968    ..h.    BL       __aeabi_d2f ; 0x1ff4c
        0x0001dc7c:    900d        ..      STR      r0,[sp,#0x34]
        0x0001dc7e:    991c        ..      LDR      r1,[sp,#0x70]
        0x0001dc80:    2014        .       MOVS     r0,#0x14
        0x0001dc82:    6008        .`      STR      r0,[r1,#0]
        0x0001dc84:    ed9d0a0d    ....    VLDR     s0,[sp,#0x34]
        0x0001dc88:    981c        ..      LDR      r0,[sp,#0x70]
        0x0001dc8a:    9911        ..      LDR      r1,[sp,#0x44]
        0x0001dc8c:    f000ff44    ..D.    BL       ftoa ; 0x1eb18
        0x0001dc90:    9012        ..      STR      r0,[sp,#0x48]
        0x0001dc92:    9812        ..      LDR      r0,[sp,#0x48]
        0x0001dc94:    f1b03fff    ...?    CMP      r0,#0xffffffff
        0x0001dc98:    dc21        !.      BGT      0x1dcde ; am_util_stdio_vsprintf + 1542
        0x0001dc9a:    e7ff        ..      B        0x1dc9c ; am_util_stdio_vsprintf + 1476
        0x0001dc9c:    9812        ..      LDR      r0,[sp,#0x48]
        0x0001dc9e:    3001        .0      ADDS     r0,#1
        0x0001dca0:    b930        0.      CBNZ     r0,0x1dcb0 ; am_util_stdio_vsprintf + 1496
        0x0001dca2:    e7ff        ..      B        0x1dca4 ; am_util_stdio_vsprintf + 1484
        0x0001dca4:    f6426030    B.0`    MOV      r0,#0x2e30
        0x0001dca8:    f2c00030    ..0.    MOVT     r0,#0x30
        0x0001dcac:    900c        ..      STR      r0,[sp,#0x30]
        0x0001dcae:    e010        ..      B        0x1dcd2 ; am_util_stdio_vsprintf + 1530
        0x0001dcb0:    9812        ..      LDR      r0,[sp,#0x48]
        0x0001dcb2:    3002        .0      ADDS     r0,#2
        0x0001dcb4:    b930        0.      CBNZ     r0,0x1dcc4 ; am_util_stdio_vsprintf + 1516
        0x0001dcb6:    e7ff        ..      B        0x1dcb8 ; am_util_stdio_vsprintf + 1504
        0x0001dcb8:    f6426023    B.#`    MOV      r0,#0x2e23
        0x0001dcbc:    f2c00023    ..#.    MOVT     r0,#0x23
        0x0001dcc0:    900c        ..      STR      r0,[sp,#0x30]
        0x0001dcc2:    e005        ..      B        0x1dcd0 ; am_util_stdio_vsprintf + 1528
        0x0001dcc4:    f642603f    B.?`    MOV      r0,#0x2e3f
        0x0001dcc8:    f2c0003f    ..?.    MOVT     r0,#0x3f
        0x0001dccc:    900c        ..      STR      r0,[sp,#0x30]
        0x0001dcce:    e7ff        ..      B        0x1dcd0 ; am_util_stdio_vsprintf + 1528
        0x0001dcd0:    e7ff        ..      B        0x1dcd2 ; am_util_stdio_vsprintf + 1530
        0x0001dcd2:    980c        ..      LDR      r0,[sp,#0x30]
        0x0001dcd4:    991c        ..      LDR      r1,[sp,#0x70]
        0x0001dcd6:    6008        .`      STR      r0,[r1,#0]
        0x0001dcd8:    2003        .       MOVS     r0,#3
        0x0001dcda:    9012        ..      STR      r0,[sp,#0x48]
        0x0001dcdc:    e7ff        ..      B        0x1dcde ; am_util_stdio_vsprintf + 1542
        0x0001dcde:    9912        ..      LDR      r1,[sp,#0x48]
        0x0001dce0:    9814        ..      LDR      r0,[sp,#0x50]
        0x0001dce2:    4408        .D      ADD      r0,r0,r1
        0x0001dce4:    9014        ..      STR      r0,[sp,#0x50]
        0x0001dce6:    9912        ..      LDR      r1,[sp,#0x48]
        0x0001dce8:    981c        ..      LDR      r0,[sp,#0x70]
        0x0001dcea:    4408        .D      ADD      r0,r0,r1
        0x0001dcec:    901c        ..      STR      r0,[sp,#0x70]
        0x0001dcee:    e7ff        ..      B        0x1dcf0 ; am_util_stdio_vsprintf + 1560
        0x0001dcf0:    e00d        ..      B        0x1dd0e ; am_util_stdio_vsprintf + 1590
        0x0001dcf2:    981c        ..      LDR      r0,[sp,#0x70]
        0x0001dcf4:    b138        8.      CBZ      r0,0x1dd06 ; am_util_stdio_vsprintf + 1582
        0x0001dcf6:    e7ff        ..      B        0x1dcf8 ; am_util_stdio_vsprintf + 1568
        0x0001dcf8:    981b        ..      LDR      r0,[sp,#0x6c]
        0x0001dcfa:    7800        .x      LDRB     r0,[r0,#0]
        0x0001dcfc:    991c        ..      LDR      r1,[sp,#0x70]
        0x0001dcfe:    1c4a        J.      ADDS     r2,r1,#1
        0x0001dd00:    921c        ..      STR      r2,[sp,#0x70]
        0x0001dd02:    7008        .p      STRB     r0,[r1,#0]
        0x0001dd04:    e7ff        ..      B        0x1dd06 ; am_util_stdio_vsprintf + 1582
        0x0001dd06:    9814        ..      LDR      r0,[sp,#0x50]
        0x0001dd08:    3001        .0      ADDS     r0,#1
        0x0001dd0a:    9014        ..      STR      r0,[sp,#0x50]
        0x0001dd0c:    e7ff        ..      B        0x1dd0e ; am_util_stdio_vsprintf + 1590
        0x0001dd0e:    981b        ..      LDR      r0,[sp,#0x6c]
        0x0001dd10:    3001        .0      ADDS     r0,#1
        0x0001dd12:    901b        ..      STR      r0,[sp,#0x6c]
        0x0001dd14:    f7ffbce9    ....    B.W      0x1d6ea ; am_util_stdio_vsprintf + 18
        0x0001dd18:    981c        ..      LDR      r0,[sp,#0x70]
        0x0001dd1a:    b120         .      CBZ      r0,0x1dd26 ; am_util_stdio_vsprintf + 1614
        0x0001dd1c:    e7ff        ..      B        0x1dd1e ; am_util_stdio_vsprintf + 1606
        0x0001dd1e:    991c        ..      LDR      r1,[sp,#0x70]
        0x0001dd20:    2000        .       MOVS     r0,#0
        0x0001dd22:    7008        .p      STRB     r0,[r1,#0]
        0x0001dd24:    e7ff        ..      B        0x1dd26 ; am_util_stdio_vsprintf + 1614
        0x0001dd26:    9814        ..      LDR      r0,[sp,#0x50]
        0x0001dd28:    b01e        ..      ADD      sp,sp,#0x78
        0x0001dd2a:    bd80        ..      POP      {r7,pc}
    am_valid_sp
        0x0001dd2c:    b082        ..      SUB      sp,sp,#8
        0x0001dd2e:    9001        ..      STR      r0,[sp,#4]
        0x0001dd30:    9901        ..      LDR      r1,[sp,#4]
        0x0001dd32:    2000        .       MOVS     r0,#0
        0x0001dd34:    f1b15f80    ..._    CMP      r1,#0x10000000
        0x0001dd38:    9000        ..      STR      r0,[sp,#0]
        0x0001dd3a:    d30a        ..      BCC      0x1dd52 ; am_valid_sp + 38
        0x0001dd3c:    e7ff        ..      B        0x1dd3e ; am_valid_sp + 18
        0x0001dd3e:    9901        ..      LDR      r1,[sp,#4]
        0x0001dd40:    2200        ."      MOVS     r2,#0
        0x0001dd42:    f2c1022c    ..,.    MOVT     r2,#0x102c
        0x0001dd46:    2000        .       MOVS     r0,#0
        0x0001dd48:    4291        .B      CMP      r1,r2
        0x0001dd4a:    bf38        8.      IT       CC
        0x0001dd4c:    2001        .       MOVCC    r0,#1
        0x0001dd4e:    9000        ..      STR      r0,[sp,#0]
        0x0001dd50:    e7ff        ..      B        0x1dd52 ; am_valid_sp + 38
        0x0001dd52:    9800        ..      LDR      r0,[sp,#0]
        0x0001dd54:    f0000001    ....    AND      r0,r0,#1
        0x0001dd58:    b002        ..      ADD      sp,sp,#8
        0x0001dd5a:    4770        pG      BX       lr
    buck_ldo_override_init
        0x0001dd5c:    2060        `       MOVS     r0,#0x60
        0x0001dd5e:    f2c40002    ....    MOVT     r0,#0x4002
        0x0001dd62:    6801        .h      LDR      r1,[r0,#0]
        0x0001dd64:    f4413100    A..1    ORR      r1,r1,#0x20000
        0x0001dd68:    6001        .`      STR      r1,[r0,#0]
        0x0001dd6a:    6801        .h      LDR      r1,[r0,#0]
        0x0001dd6c:    f4412180    A..!    ORR      r1,r1,#0x40000
        0x0001dd70:    6001        .`      STR      r1,[r0,#0]
        0x0001dd72:    6801        .h      LDR      r1,[r0,#0]
        0x0001dd74:    f4412100    A..!    ORR      r1,r1,#0x80000
        0x0001dd78:    6001        .`      STR      r1,[r0,#0]
        0x0001dd7a:    6801        .h      LDR      r1,[r0,#0]
        0x0001dd7c:    f4413180    A..1    ORR      r1,r1,#0x10000
        0x0001dd80:    6001        .`      STR      r1,[r0,#0]
        0x0001dd82:    6801        .h      LDR      r1,[r0,#0]
        0x0001dd84:    f0210110    !...    BIC      r1,r1,#0x10
        0x0001dd88:    6001        .`      STR      r1,[r0,#0]
        0x0001dd8a:    6801        .h      LDR      r1,[r0,#0]
        0x0001dd8c:    f041010e    A...    ORR      r1,r1,#0xe
        0x0001dd90:    6001        .`      STR      r1,[r0,#0]
        0x0001dd92:    6801        .h      LDR      r1,[r0,#0]
        0x0001dd94:    f0410101    A...    ORR      r1,r1,#1
        0x0001dd98:    6001        .`      STR      r1,[r0,#0]
        0x0001dd9a:    6801        .h      LDR      r1,[r0,#0]
        0x0001dd9c:    f4217100    !..q    BIC      r1,r1,#0x200
        0x0001dda0:    6001        .`      STR      r1,[r0,#0]
        0x0001dda2:    6801        .h      LDR      r1,[r0,#0]
        0x0001dda4:    f44171e0    A..q    ORR      r1,r1,#0x1c0
        0x0001dda8:    6001        .`      STR      r1,[r0,#0]
        0x0001ddaa:    6801        .h      LDR      r1,[r0,#0]
        0x0001ddac:    f0410120    A. .    ORR      r1,r1,#0x20
        0x0001ddb0:    6001        .`      STR      r1,[r0,#0]
        0x0001ddb2:    4770        pG      BX       lr
    buck_ldo_update_override
        0x0001ddb4:    2160        `!      MOVS     r1,#0x60
        0x0001ddb6:    f2c40102    ....    MOVT     r1,#0x4002
        0x0001ddba:    680a        .h      LDR      r2,[r1,#0]
        0x0001ddbc:    f4223280    "..2    BIC      r2,r2,#0x10000
        0x0001ddc0:    f3604210    `..B    BFI      r2,r0,#16,#1
        0x0001ddc4:    600a        .`      STR      r2,[r1,#0]
        0x0001ddc6:    680a        .h      LDR      r2,[r1,#0]
        0x0001ddc8:    f0220201    "...    BIC      r2,r2,#1
        0x0001ddcc:    4402        .D      ADD      r2,r2,r0
        0x0001ddce:    600a        .`      STR      r2,[r1,#0]
        0x0001ddd0:    680a        .h      LDR      r2,[r1,#0]
        0x0001ddd2:    f0220220    ". .    BIC      r2,r2,#0x20
        0x0001ddd6:    f3601245    `.E.    BFI      r2,r0,#5,#1
        0x0001ddda:    600a        .`      STR      r2,[r1,#0]
        0x0001dddc:    4770        pG      BX       lr
    build_dma_cmdlist
        0x0001ddde:    b5f0        ..      PUSH     {r4-r7,lr}
        0x0001dde0:    6844        Dh      LDR      r4,[r0,#4]
        0x0001dde2:    2901        .)      CMP      r1,#1
        0x0001dde4:    f04f0c00    O...    MOV      r12,#0
        0x0001dde8:    d03f        ?.      BEQ      0x1de6a ; build_dma_cmdlist + 140
        0x0001ddea:    2900        .)      CMP      r1,#0
        0x0001ddec:    f0408097    @...    BNE.W    0x1df1e ; build_dma_cmdlist + 320
        0x0001ddf0:    6819        .h      LDR      r1,[r3,#0]
        0x0001ddf2:    2500        .%      MOVS     r5,#0
        0x0001ddf4:    ebb54f11    ...O    CMP      r5,r1,LSR #16
        0x0001ddf8:    d13b        ;.      BNE      0x1de72 ; build_dma_cmdlist + 148
        0x0001ddfa:    7c9d        .|      LDRB     r5,[r3,#0x12]
        0x0001ddfc:    2d00        .-      CMP      r5,#0
        0x0001ddfe:    d145        E.      BNE      0x1de8c ; build_dma_cmdlist + 174
        0x0001de00:    2500        .%      MOVS     r5,#0
        0x0001de02:    f2c40506    ....    MOVT     r5,#0x4006
        0x0001de06:    eb053504    ...5    ADD      r5,r5,r4,LSL #12
        0x0001de0a:    689c        .h      LDR      r4,[r3,#8]
        0x0001de0c:    f1050c08    ....    ADD      r12,r5,#8
        0x0001de10:    e9c2c400    ....    STRD     r12,r4,[r2,#0]
        0x0001de14:    89dc        ..      LDRH     r4,[r3,#0xe]
        0x0001de16:    f1050c0c    ....    ADD      r12,r5,#0xc
        0x0001de1a:    e9c2c402    ....    STRD     r12,r4,[r2,#8]
        0x0001de1e:    795c        \y      LDRB     r4,[r3,#5]
        0x0001de20:    ea4f4c01    O..L    LSL      r12,r1,#16
        0x0001de24:    f893e004    ....    LDRB     lr,[r3,#4]
        0x0001de28:    7999        .y      LDRB     r1,[r3,#6]
        0x0001de2a:    7b1e        .{      LDRB     r6,[r3,#0xc]
        0x0001de2c:    ea4c24c4    L..$    ORR      r4,r12,r4,LSL #11
        0x0001de30:    6115        .a      STR      r5,[r2,#0x10]
        0x0001de32:    79dd        .y      LDRB     r5,[r3,#7]
        0x0001de34:    f0010101    ....    AND      r1,r1,#1
        0x0001de38:    ea44244e    D.N$    ORR      r4,r4,lr,LSL #9
        0x0001de3c:    f0060603    ....    AND      r6,r6,#3
        0x0001de40:    ea4411c1    D...    ORR      r1,r4,r1,LSL #7
        0x0001de44:    f0050507    ....    AND      r5,r5,#7
        0x0001de48:    7c1f        .|      LDRB     r7,[r3,#0x10]
        0x0001de4a:    ea411186    A...    ORR      r1,r1,r6,LSL #6
        0x0001de4e:    7b40        @{      LDRB     r0,[r0,#0xd]
        0x0001de50:    ea411145    A.E.    ORR      r1,r1,r5,LSL #5
        0x0001de54:    7c5b        [|      LDRB     r3,[r3,#0x11]
        0x0001de56:    ea412187    A..!    ORR      r1,r1,r7,LSL #10
        0x0001de5a:    ea412000    A..     ORR      r0,r1,r0,LSL #8
        0x0001de5e:    ea403003    @..0    ORR      r0,r0,r3,LSL #12
        0x0001de62:    f0400001    @...    ORR      r0,r0,#1
        0x0001de66:    6150        Pa      STR      r0,[r2,#0x14]
        0x0001de68:    e057        W.      B        0x1df1a ; build_dma_cmdlist + 316
        0x0001de6a:    685d        ]h      LDR      r5,[r3,#4]
        0x0001de6c:    ebbc6f15    ...o    CMP      r12,r5,LSR #24
        0x0001de70:    d002        ..      BEQ      0x1de78 ; build_dma_cmdlist + 154
        0x0001de72:    f04f0c05    O...    MOV      r12,#5
        0x0001de76:    e052        R.      B        0x1df1e ; build_dma_cmdlist + 320
        0x0001de78:    f8d0e838    ..8.    LDR      lr,[r0,#0x838]
        0x0001de7c:    f8d3c010    ....    LDR      r12,[r3,#0x10]
        0x0001de80:    f1be0f00    ....    CMP      lr,#0
        0x0001de84:    d007        ..      BEQ      0x1de96 ; build_dma_cmdlist + 184
        0x0001de86:    f1bc0f00    ....    CMP      r12,#0
        0x0001de8a:    d002        ..      BEQ      0x1de92 ; build_dma_cmdlist + 180
        0x0001de8c:    f04f0c07    O...    MOV      r12,#7
        0x0001de90:    e045        E.      B        0x1df1e ; build_dma_cmdlist + 320
        0x0001de92:    f04f0c00    O...    MOV      r12,#0
        0x0001de96:    2100        .!      MOVS     r1,#0
        0x0001de98:    f2c40106    ....    MOVT     r1,#0x4006
        0x0001de9c:    eb013104    ...1    ADD      r1,r1,r4,LSL #12
        0x0001dea0:    2400        .$      MOVS     r4,#0
        0x0001dea2:    6354        Tc      STR      r4,[r2,#0x34]
        0x0001dea4:    f5017484    ...t    ADD      r4,r1,#0x108
        0x0001dea8:    6114        .a      STR      r4,[r2,#0x10]
        0x0001deaa:    68dc        .h      LDR      r4,[r3,#0xc]
        0x0001deac:    f1020720    .. .    ADD      r7,r2,#0x20
        0x0001deb0:    6154        Ta      STR      r4,[r2,#0x14]
        0x0001deb2:    f5017486    ...t    ADD      r4,r1,#0x10c
        0x0001deb6:    6194        .a      STR      r4,[r2,#0x18]
        0x0001deb8:    689c        .h      LDR      r4,[r3,#8]
        0x0001deba:    f5017680    ...v    ADD      r6,r1,#0x100
        0x0001debe:    61d4        .a      STR      r4,[r2,#0x1c]
        0x0001dec0:    f5017488    ...t    ADD      r4,r1,#0x110
        0x0001dec4:    c770        p.      STM      r7!,{r4-r6}
        0x0001dec6:    785d        ]x      LDRB     r5,[r3,#1]
        0x0001dec8:    6316        .c      STR      r6,[r2,#0x30]
        0x0001deca:    781c        .x      LDRB     r4,[r3,#0]
        0x0001decc:    2604        .&      MOVS     r6,#4
        0x0001dece:    ea060585    ....    AND      r5,r6,r5,LSL #2
        0x0001ded2:    f3641505    d...    BFI      r5,r4,#4,#2
        0x0001ded6:    1cec        ..      ADDS     r4,r5,#3
        0x0001ded8:    62d4        .b      STR      r4,[r2,#0x2c]
        0x0001deda:    f501742e    ...t    ADD      r4,r1,#0x2b8
        0x0001dede:    6094        .`      STR      r4,[r2,#8]
        0x0001dee0:    6014        .`      STR      r4,[r2,#0]
        0x0001dee2:    f1be0f02    ....    CMP      lr,#2
        0x0001dee6:    f44f4480    O..D    MOV      r4,#0x4000
        0x0001deea:    d00a        ..      BEQ      0x1df02 ; build_dma_cmdlist + 292
        0x0001deec:    f1be0f01    ....    CMP      lr,#1
        0x0001def0:    d10a        ..      BNE      0x1df08 ; build_dma_cmdlist + 298
        0x0001def2:    f24407a0    D...    MOV      r7,#0x40a0
        0x0001def6:    ea4c0507    L...    ORR      r5,r12,r7
        0x0001defa:    2702        .'      MOVS     r7,#2
        0x0001defc:    f8c07838    ..8x    STR      r7,[r0,#0x838]
        0x0001df00:    e004        ..      B        0x1df0c ; build_dma_cmdlist + 302
        0x0001df02:    f44f4580    O..E    MOV      r5,#0x4000
        0x0001df06:    e001        ..      B        0x1df0c ; build_dma_cmdlist + 302
        0x0001df08:    f44c4581    L..E    ORR      r5,r12,#0x4080
        0x0001df0c:    6958        Xi      LDR      r0,[r3,#0x14]
        0x0001df0e:    f501712d    ..-q    ADD      r1,r1,#0x2b4
        0x0001df12:    6055        U`      STR      r5,[r2,#4]
        0x0001df14:    60d4        .`      STR      r4,[r2,#0xc]
        0x0001df16:    e9c2100e    ....    STRD     r1,r0,[r2,#0x38]
        0x0001df1a:    f04f0c00    O...    MOV      r12,#0
        0x0001df1e:    4660        `F      MOV      r0,r12
        0x0001df20:    bdf0        ..      POP      {r4-r7,pc}
        0x0001df22:    0000        ..      MOVS     r0,r0
    command_read_combo
        0x0001df24:    b510        ..      PUSH     {r4,lr}
        0x0001df26:    b088        ..      SUB      sp,sp,#0x20
        0x0001df28:    f8ddc02c    ..,.    LDR      r12,[sp,#0x2c]
        0x0001df2c:    f8ddc028    ..(.    LDR      r12,[sp,#0x28]
        0x0001df30:    9007        ..      STR      r0,[sp,#0x1c]
        0x0001df32:    f8ad101a    ....    STRH     r1,[sp,#0x1a]
        0x0001df36:    f88d2019    ...     STRB     r2,[sp,#0x19]
        0x0001df3a:    9305        ..      STR      r3,[sp,#0x14]
        0x0001df3c:    9807        ..      LDR      r0,[sp,#0x1c]
        0x0001df3e:    9003        ..      STR      r0,[sp,#0xc]
        0x0001df40:    9803        ..      LDR      r0,[sp,#0xc]
        0x0001df42:    7c00        .|      LDRB     r0,[r0,#0x10]
        0x0001df44:    b1c8        ..      CBZ      r0,0x1df7a ; command_read_combo + 86
        0x0001df46:    e7ff        ..      B        0x1df48 ; command_read_combo + 36
        0x0001df48:    9803        ..      LDR      r0,[sp,#0xc]
        0x0001df4a:    7c00        .|      LDRB     r0,[r0,#0x10]
        0x0001df4c:    2801        .(      CMP      r0,#1
        0x0001df4e:    d014        ..      BEQ      0x1df7a ; command_read_combo + 86
        0x0001df50:    e7ff        ..      B        0x1df52 ; command_read_combo + 46
        0x0001df52:    9803        ..      LDR      r0,[sp,#0xc]
        0x0001df54:    7c00        .|      LDRB     r0,[r0,#0x10]
        0x0001df56:    2816        .(      CMP      r0,#0x16
        0x0001df58:    d00f        ..      BEQ      0x1df7a ; command_read_combo + 86
        0x0001df5a:    e7ff        ..      B        0x1df5c ; command_read_combo + 56
        0x0001df5c:    9803        ..      LDR      r0,[sp,#0xc]
        0x0001df5e:    7c00        .|      LDRB     r0,[r0,#0x10]
        0x0001df60:    2817        .(      CMP      r0,#0x17
        0x0001df62:    d00a        ..      BEQ      0x1df7a ; command_read_combo + 86
        0x0001df64:    e7ff        ..      B        0x1df66 ; command_read_combo + 66
        0x0001df66:    9803        ..      LDR      r0,[sp,#0xc]
        0x0001df68:    7c00        .|      LDRB     r0,[r0,#0x10]
        0x0001df6a:    2818        .(      CMP      r0,#0x18
        0x0001df6c:    d005        ..      BEQ      0x1df7a ; command_read_combo + 86
        0x0001df6e:    e7ff        ..      B        0x1df70 ; command_read_combo + 76
        0x0001df70:    9803        ..      LDR      r0,[sp,#0xc]
        0x0001df72:    7c00        .|      LDRB     r0,[r0,#0x10]
        0x0001df74:    2819        .(      CMP      r0,#0x19
        0x0001df76:    d114        ..      BNE      0x1dfa2 ; command_read_combo + 126
        0x0001df78:    e7ff        ..      B        0x1df7a ; command_read_combo + 86
        0x0001df7a:    9807        ..      LDR      r0,[sp,#0x1c]
        0x0001df7c:    f89d101a    ....    LDRB     r1,[sp,#0x1a]
        0x0001df80:    9b05        ..      LDR      r3,[sp,#0x14]
        0x0001df82:    f8ddc028    ..(.    LDR      r12,[sp,#0x28]
        0x0001df86:    9c0b        ..      LDR      r4,[sp,#0x2c]
        0x0001df88:    f89d2019    ...     LDRB     r2,[sp,#0x19]
        0x0001df8c:    46ee        .F      MOV      lr,sp
        0x0001df8e:    f8ce4004    ...@    STR      r4,[lr,#4]
        0x0001df92:    f8cec000    ....    STR      r12,[lr,#0]
        0x0001df96:    f0020201    ....    AND      r2,r2,#1
        0x0001df9a:    f000f8b3    ....    BL       command_read_serial ; 0x1e104
        0x0001df9e:    9004        ..      STR      r0,[sp,#0x10]
        0x0001dfa0:    e021        !.      B        0x1dfe6 ; command_read_combo + 194
        0x0001dfa2:    9803        ..      LDR      r0,[sp,#0xc]
        0x0001dfa4:    7c00        .|      LDRB     r0,[r0,#0x10]
        0x0001dfa6:    2808        .(      CMP      r0,#8
        0x0001dfa8:    d005        ..      BEQ      0x1dfb6 ; command_read_combo + 146
        0x0001dfaa:    e7ff        ..      B        0x1dfac ; command_read_combo + 136
        0x0001dfac:    9803        ..      LDR      r0,[sp,#0xc]
        0x0001dfae:    7c00        .|      LDRB     r0,[r0,#0x10]
        0x0001dfb0:    2809        .(      CMP      r0,#9
        0x0001dfb2:    d114        ..      BNE      0x1dfde ; command_read_combo + 186
        0x0001dfb4:    e7ff        ..      B        0x1dfb6 ; command_read_combo + 146
        0x0001dfb6:    9807        ..      LDR      r0,[sp,#0x1c]
        0x0001dfb8:    f8bd101a    ....    LDRH     r1,[sp,#0x1a]
        0x0001dfbc:    9b05        ..      LDR      r3,[sp,#0x14]
        0x0001dfbe:    f8ddc028    ..(.    LDR      r12,[sp,#0x28]
        0x0001dfc2:    9c0b        ..      LDR      r4,[sp,#0x2c]
        0x0001dfc4:    f89d2019    ...     LDRB     r2,[sp,#0x19]
        0x0001dfc8:    46ee        .F      MOV      lr,sp
        0x0001dfca:    f8ce4004    ...@    STR      r4,[lr,#4]
        0x0001dfce:    f8cec000    ....    STR      r12,[lr,#0]
        0x0001dfd2:    f0020201    ....    AND      r2,r2,#1
        0x0001dfd6:    f000f809    ....    BL       command_read_octal ; 0x1dfec
        0x0001dfda:    9004        ..      STR      r0,[sp,#0x10]
        0x0001dfdc:    e002        ..      B        0x1dfe4 ; command_read_combo + 192
        0x0001dfde:    2001        .       MOVS     r0,#1
        0x0001dfe0:    9004        ..      STR      r0,[sp,#0x10]
        0x0001dfe2:    e7ff        ..      B        0x1dfe4 ; command_read_combo + 192
        0x0001dfe4:    e7ff        ..      B        0x1dfe6 ; command_read_combo + 194
        0x0001dfe6:    9804        ..      LDR      r0,[sp,#0x10]
        0x0001dfe8:    b008        ..      ADD      sp,sp,#0x20
        0x0001dfea:    bd10        ..      POP      {r4,pc}
    command_read_octal
        0x0001dfec:    b580        ..      PUSH     {r7,lr}
        0x0001dfee:    b094        ..      SUB      sp,sp,#0x50
        0x0001dff0:    f8ddc05c    ..\.    LDR      r12,[sp,#0x5c]
        0x0001dff4:    f8ddc058    ..X.    LDR      r12,[sp,#0x58]
        0x0001dff8:    9012        ..      STR      r0,[sp,#0x48]
        0x0001dffa:    f8ad1046    ..F.    STRH     r1,[sp,#0x46]
        0x0001dffe:    f88d2045    ..E     STRB     r2,[sp,#0x45]
        0x0001e002:    9310        ..      STR      r3,[sp,#0x40]
        0x0001e004:    9812        ..      LDR      r0,[sp,#0x48]
        0x0001e006:    900e        ..      STR      r0,[sp,#0x38]
        0x0001e008:    2000        .       MOVS     r0,#0
        0x0001e00a:    9001        ..      STR      r0,[sp,#4]
        0x0001e00c:    900d        ..      STR      r0,[sp,#0x34]
        0x0001e00e:    900c        ..      STR      r0,[sp,#0x30]
        0x0001e010:    900b        ..      STR      r0,[sp,#0x2c]
        0x0001e012:    900a        ..      STR      r0,[sp,#0x28]
        0x0001e014:    9009        ..      STR      r0,[sp,#0x24]
        0x0001e016:    9008        ..      STR      r0,[sp,#0x20]
        0x0001e018:    f88d0026    ..&.    STRB     r0,[sp,#0x26]
        0x0001e01c:    f89d1045    ..E.    LDRB     r1,[sp,#0x45]
        0x0001e020:    f0010101    ....    AND      r1,r1,#1
        0x0001e024:    f88d1027    ..'.    STRB     r1,[sp,#0x27]
        0x0001e028:    9910        ..      LDR      r1,[sp,#0x40]
        0x0001e02a:    910a        ..      STR      r1,[sp,#0x28]
        0x0001e02c:    2101        .!      MOVS     r1,#1
        0x0001e02e:    f88d102c    ..,.    STRB     r1,[sp,#0x2c]
        0x0001e032:    f8bd2046    ..F     LDRH     r2,[sp,#0x46]
        0x0001e036:    f8ad202e    ...     STRH     r2,[sp,#0x2e]
        0x0001e03a:    f88d1030    ..0.    STRB     r1,[sp,#0x30]
        0x0001e03e:    f88d0014    ....    STRB     r0,[sp,#0x14]
        0x0001e042:    f88d0015    ....    STRB     r0,[sp,#0x15]
        0x0001e046:    f88d0016    ....    STRB     r0,[sp,#0x16]
        0x0001e04a:    f88d0019    ....    STRB     r0,[sp,#0x19]
        0x0001e04e:    f88d001a    ....    STRB     r0,[sp,#0x1a]
        0x0001e052:    f88d001d    ....    STRB     r0,[sp,#0x1d]
        0x0001e056:    2110        .!      MOVS     r1,#0x10
        0x0001e058:    9102        ..      STR      r1,[sp,#8]
        0x0001e05a:    f88d1018    ....    STRB     r1,[sp,#0x18]
        0x0001e05e:    f88d0017    ....    STRB     r0,[sp,#0x17]
        0x0001e062:    980e        ..      LDR      r0,[sp,#0x38]
        0x0001e064:    6840        @h      LDR      r0,[r0,#4]
        0x0001e066:    210b        .!      MOVS     r1,#0xb
        0x0001e068:    aa05        ..      ADD      r2,sp,#0x14
        0x0001e06a:    f7fdf9af    ....    BL       am_hal_mspi_control ; 0x1b3cc
        0x0001e06e:    9901        ..      LDR      r1,[sp,#4]
        0x0001e070:    9802        ..      LDR      r0,[sp,#8]
        0x0001e072:    f88d100c    ....    STRB     r1,[sp,#0xc]
        0x0001e076:    f88d100d    ....    STRB     r1,[sp,#0xd]
        0x0001e07a:    f88d100e    ....    STRB     r1,[sp,#0xe]
        0x0001e07e:    f88d100f    ....    STRB     r1,[sp,#0xf]
        0x0001e082:    f88d0010    ....    STRB     r0,[sp,#0x10]
        0x0001e086:    f8bd0046    ..F.    LDRH     r0,[sp,#0x46]
        0x0001e08a:    f649719f    I..q    MOV      r1,#0x9f9f
        0x0001e08e:    4288        .B      CMP      r0,r1
        0x0001e090:    d10e        ..      BNE      0x1e0b0 ; command_read_octal + 196
        0x0001e092:    e7ff        ..      B        0x1e094 ; command_read_octal + 168
        0x0001e094:    980e        ..      LDR      r0,[sp,#0x38]
        0x0001e096:    7cc0        .|      LDRB     r0,[r0,#0x13]
        0x0001e098:    2801        .(      CMP      r0,#1
        0x0001e09a:    d104        ..      BNE      0x1e0a6 ; command_read_octal + 186
        0x0001e09c:    e7ff        ..      B        0x1e09e ; command_read_octal + 178
        0x0001e09e:    2010        .       MOVS     r0,#0x10
        0x0001e0a0:    f88d0011    ....    STRB     r0,[sp,#0x11]
        0x0001e0a4:    e003        ..      B        0x1e0ae ; command_read_octal + 194
        0x0001e0a6:    200f        .       MOVS     r0,#0xf
        0x0001e0a8:    f88d0011    ....    STRB     r0,[sp,#0x11]
        0x0001e0ac:    e7ff        ..      B        0x1e0ae ; command_read_octal + 194
        0x0001e0ae:    e003        ..      B        0x1e0b8 ; command_read_octal + 204
        0x0001e0b0:    2010        .       MOVS     r0,#0x10
        0x0001e0b2:    f88d0011    ....    STRB     r0,[sp,#0x11]
        0x0001e0b6:    e7ff        ..      B        0x1e0b8 ; command_read_octal + 204
        0x0001e0b8:    980e        ..      LDR      r0,[sp,#0x38]
        0x0001e0ba:    6840        @h      LDR      r0,[r0,#4]
        0x0001e0bc:    210d        .!      MOVS     r1,#0xd
        0x0001e0be:    aa03        ..      ADD      r2,sp,#0xc
        0x0001e0c0:    f7fdf984    ....    BL       am_hal_mspi_control ; 0x1b3cc
        0x0001e0c4:    9817        ..      LDR      r0,[sp,#0x5c]
        0x0001e0c6:    9008        ..      STR      r0,[sp,#0x20]
        0x0001e0c8:    9816        ..      LDR      r0,[sp,#0x58]
        0x0001e0ca:    900d        ..      STR      r0,[sp,#0x34]
        0x0001e0cc:    2000        .       MOVS     r0,#0
        0x0001e0ce:    f88d0025    ..%.    STRB     r0,[sp,#0x25]
        0x0001e0d2:    f88d0031    ..1.    STRB     r0,[sp,#0x31]
        0x0001e0d6:    980e        ..      LDR      r0,[sp,#0x38]
        0x0001e0d8:    6840        @h      LDR      r0,[r0,#4]
        0x0001e0da:    a908        ..      ADD      r1,sp,#0x20
        0x0001e0dc:    f2442240    D.@"    MOV      r2,#0x4240
        0x0001e0e0:    f2c0020f    ....    MOVT     r2,#0xf
        0x0001e0e4:    f7fdf81c    ....    BL       am_hal_mspi_blocking_transfer ; 0x1b120
        0x0001e0e8:    900f        ..      STR      r0,[sp,#0x3c]
        0x0001e0ea:    980f        ..      LDR      r0,[sp,#0x3c]
        0x0001e0ec:    b118        ..      CBZ      r0,0x1e0f6 ; command_read_octal + 266
        0x0001e0ee:    e7ff        ..      B        0x1e0f0 ; command_read_octal + 260
        0x0001e0f0:    980f        ..      LDR      r0,[sp,#0x3c]
        0x0001e0f2:    9013        ..      STR      r0,[sp,#0x4c]
        0x0001e0f4:    e002        ..      B        0x1e0fc ; command_read_octal + 272
        0x0001e0f6:    980f        ..      LDR      r0,[sp,#0x3c]
        0x0001e0f8:    9013        ..      STR      r0,[sp,#0x4c]
        0x0001e0fa:    e7ff        ..      B        0x1e0fc ; command_read_octal + 272
        0x0001e0fc:    9813        ..      LDR      r0,[sp,#0x4c]
        0x0001e0fe:    b014        ..      ADD      sp,sp,#0x50
        0x0001e100:    bd80        ..      POP      {r7,pc}
        0x0001e102:    0000        ..      MOVS     r0,r0
    command_read_serial
        0x0001e104:    b580        ..      PUSH     {r7,lr}
        0x0001e106:    b094        ..      SUB      sp,sp,#0x50
        0x0001e108:    f8ddc05c    ..\.    LDR      r12,[sp,#0x5c]
        0x0001e10c:    f8ddc058    ..X.    LDR      r12,[sp,#0x58]
        0x0001e110:    9012        ..      STR      r0,[sp,#0x48]
        0x0001e112:    f88d1047    ..G.    STRB     r1,[sp,#0x47]
        0x0001e116:    f88d2046    ..F     STRB     r2,[sp,#0x46]
        0x0001e11a:    9310        ..      STR      r3,[sp,#0x40]
        0x0001e11c:    9812        ..      LDR      r0,[sp,#0x48]
        0x0001e11e:    900e        ..      STR      r0,[sp,#0x38]
        0x0001e120:    2000        .       MOVS     r0,#0
        0x0001e122:    900d        ..      STR      r0,[sp,#0x34]
        0x0001e124:    900c        ..      STR      r0,[sp,#0x30]
        0x0001e126:    900b        ..      STR      r0,[sp,#0x2c]
        0x0001e128:    900a        ..      STR      r0,[sp,#0x28]
        0x0001e12a:    9009        ..      STR      r0,[sp,#0x24]
        0x0001e12c:    9008        ..      STR      r0,[sp,#0x20]
        0x0001e12e:    f88d0026    ..&.    STRB     r0,[sp,#0x26]
        0x0001e132:    f89d0046    ..F.    LDRB     r0,[sp,#0x46]
        0x0001e136:    f0000001    ....    AND      r0,r0,#1
        0x0001e13a:    f88d0027    ..'.    STRB     r0,[sp,#0x27]
        0x0001e13e:    9810        ..      LDR      r0,[sp,#0x40]
        0x0001e140:    900a        ..      STR      r0,[sp,#0x28]
        0x0001e142:    2001        .       MOVS     r0,#1
        0x0001e144:    f88d002c    ..,.    STRB     r0,[sp,#0x2c]
        0x0001e148:    f89d0047    ..G.    LDRB     r0,[sp,#0x47]
        0x0001e14c:    f8ad002e    ....    STRH     r0,[sp,#0x2e]
        0x0001e150:    9812        ..      LDR      r0,[sp,#0x48]
        0x0001e152:    f000fb5b    ..[.    BL       enter_command_mode ; 0x1e80c
        0x0001e156:    f89d0047    ..G.    LDRB     r0,[sp,#0x47]
        0x0001e15a:    2805        .(      CMP      r0,#5
        0x0001e15c:    d10e        ..      BNE      0x1e17c ; command_read_serial + 120
        0x0001e15e:    e7ff        ..      B        0x1e160 ; command_read_serial + 92
        0x0001e160:    2003        .       MOVS     r0,#3
        0x0001e162:    f88d0008    ....    STRB     r0,[sp,#8]
        0x0001e166:    980e        ..      LDR      r0,[sp,#0x38]
        0x0001e168:    7a80        .z      LDRB     r0,[r0,#0xa]
        0x0001e16a:    f88d0009    ....    STRB     r0,[sp,#9]
        0x0001e16e:    980e        ..      LDR      r0,[sp,#0x38]
        0x0001e170:    6840        @h      LDR      r0,[r0,#4]
        0x0001e172:    211f        .!      MOVS     r1,#0x1f
        0x0001e174:    aa02        ..      ADD      r2,sp,#8
        0x0001e176:    f7fdf929    ..).    BL       am_hal_mspi_control ; 0x1b3cc
        0x0001e17a:    e7ff        ..      B        0x1e17c ; command_read_serial + 120
        0x0001e17c:    2001        .       MOVS     r0,#1
        0x0001e17e:    f88d0030    ..0.    STRB     r0,[sp,#0x30]
        0x0001e182:    2000        .       MOVS     r0,#0
        0x0001e184:    9000        ..      STR      r0,[sp,#0]
        0x0001e186:    f88d0014    ....    STRB     r0,[sp,#0x14]
        0x0001e18a:    f88d0015    ....    STRB     r0,[sp,#0x15]
        0x0001e18e:    f88d0016    ....    STRB     r0,[sp,#0x16]
        0x0001e192:    f88d0019    ....    STRB     r0,[sp,#0x19]
        0x0001e196:    f88d001a    ....    STRB     r0,[sp,#0x1a]
        0x0001e19a:    f88d001d    ....    STRB     r0,[sp,#0x1d]
        0x0001e19e:    2110        .!      MOVS     r1,#0x10
        0x0001e1a0:    9101        ..      STR      r1,[sp,#4]
        0x0001e1a2:    f88d1018    ....    STRB     r1,[sp,#0x18]
        0x0001e1a6:    f88d0017    ....    STRB     r0,[sp,#0x17]
        0x0001e1aa:    980e        ..      LDR      r0,[sp,#0x38]
        0x0001e1ac:    6840        @h      LDR      r0,[r0,#4]
        0x0001e1ae:    210b        .!      MOVS     r1,#0xb
        0x0001e1b0:    aa05        ..      ADD      r2,sp,#0x14
        0x0001e1b2:    f7fdf90b    ....    BL       am_hal_mspi_control ; 0x1b3cc
        0x0001e1b6:    9900        ..      LDR      r1,[sp,#0]
        0x0001e1b8:    9801        ..      LDR      r0,[sp,#4]
        0x0001e1ba:    f88d100c    ....    STRB     r1,[sp,#0xc]
        0x0001e1be:    f88d100d    ....    STRB     r1,[sp,#0xd]
        0x0001e1c2:    f88d100e    ....    STRB     r1,[sp,#0xe]
        0x0001e1c6:    f88d100f    ....    STRB     r1,[sp,#0xf]
        0x0001e1ca:    f88d0010    ....    STRB     r0,[sp,#0x10]
        0x0001e1ce:    f89d0047    ..G.    LDRB     r0,[sp,#0x47]
        0x0001e1d2:    2885        .(      CMP      r0,#0x85
        0x0001e1d4:    d005        ..      BEQ      0x1e1e2 ; command_read_serial + 222
        0x0001e1d6:    e7ff        ..      B        0x1e1d8 ; command_read_serial + 212
        0x0001e1d8:    f89d0047    ..G.    LDRB     r0,[sp,#0x47]
        0x0001e1dc:    28b5        .(      CMP      r0,#0xb5
        0x0001e1de:    d104        ..      BNE      0x1e1ea ; command_read_serial + 230
        0x0001e1e0:    e7ff        ..      B        0x1e1e2 ; command_read_serial + 222
        0x0001e1e2:    2008        .       MOVS     r0,#8
        0x0001e1e4:    f88d0011    ....    STRB     r0,[sp,#0x11]
        0x0001e1e8:    e003        ..      B        0x1e1f2 ; command_read_serial + 238
        0x0001e1ea:    2000        .       MOVS     r0,#0
        0x0001e1ec:    f88d0011    ....    STRB     r0,[sp,#0x11]
        0x0001e1f0:    e7ff        ..      B        0x1e1f2 ; command_read_serial + 238
        0x0001e1f2:    980e        ..      LDR      r0,[sp,#0x38]
        0x0001e1f4:    6840        @h      LDR      r0,[r0,#4]
        0x0001e1f6:    210d        .!      MOVS     r1,#0xd
        0x0001e1f8:    aa03        ..      ADD      r2,sp,#0xc
        0x0001e1fa:    f7fdf8e7    ....    BL       am_hal_mspi_control ; 0x1b3cc
        0x0001e1fe:    9817        ..      LDR      r0,[sp,#0x5c]
        0x0001e200:    9008        ..      STR      r0,[sp,#0x20]
        0x0001e202:    9816        ..      LDR      r0,[sp,#0x58]
        0x0001e204:    900d        ..      STR      r0,[sp,#0x34]
        0x0001e206:    2000        .       MOVS     r0,#0
        0x0001e208:    f88d0025    ..%.    STRB     r0,[sp,#0x25]
        0x0001e20c:    f88d0031    ..1.    STRB     r0,[sp,#0x31]
        0x0001e210:    980e        ..      LDR      r0,[sp,#0x38]
        0x0001e212:    6840        @h      LDR      r0,[r0,#4]
        0x0001e214:    a908        ..      ADD      r1,sp,#0x20
        0x0001e216:    f2442240    D.@"    MOV      r2,#0x4240
        0x0001e21a:    f2c0020f    ....    MOVT     r2,#0xf
        0x0001e21e:    f7fcff7f    ....    BL       am_hal_mspi_blocking_transfer ; 0x1b120
        0x0001e222:    900f        ..      STR      r0,[sp,#0x3c]
        0x0001e224:    9812        ..      LDR      r0,[sp,#0x48]
        0x0001e226:    f000fb0f    ....    BL       exit_command_mode ; 0x1e848
        0x0001e22a:    980f        ..      LDR      r0,[sp,#0x3c]
        0x0001e22c:    b118        ..      CBZ      r0,0x1e236 ; command_read_serial + 306
        0x0001e22e:    e7ff        ..      B        0x1e230 ; command_read_serial + 300
        0x0001e230:    980f        ..      LDR      r0,[sp,#0x3c]
        0x0001e232:    9013        ..      STR      r0,[sp,#0x4c]
        0x0001e234:    e002        ..      B        0x1e23c ; command_read_serial + 312
        0x0001e236:    980f        ..      LDR      r0,[sp,#0x3c]
        0x0001e238:    9013        ..      STR      r0,[sp,#0x4c]
        0x0001e23a:    e7ff        ..      B        0x1e23c ; command_read_serial + 312
        0x0001e23c:    9813        ..      LDR      r0,[sp,#0x4c]
        0x0001e23e:    b014        ..      ADD      sp,sp,#0x50
        0x0001e240:    bd80        ..      POP      {r7,pc}
        0x0001e242:    0000        ..      MOVS     r0,r0
    command_write_combo
        0x0001e244:    b510        ..      PUSH     {r4,lr}
        0x0001e246:    b088        ..      SUB      sp,sp,#0x20
        0x0001e248:    f8ddc02c    ..,.    LDR      r12,[sp,#0x2c]
        0x0001e24c:    f8ddc028    ..(.    LDR      r12,[sp,#0x28]
        0x0001e250:    9007        ..      STR      r0,[sp,#0x1c]
        0x0001e252:    f8ad101a    ....    STRH     r1,[sp,#0x1a]
        0x0001e256:    f88d2019    ...     STRB     r2,[sp,#0x19]
        0x0001e25a:    9305        ..      STR      r3,[sp,#0x14]
        0x0001e25c:    9807        ..      LDR      r0,[sp,#0x1c]
        0x0001e25e:    9003        ..      STR      r0,[sp,#0xc]
        0x0001e260:    9803        ..      LDR      r0,[sp,#0xc]
        0x0001e262:    7c00        .|      LDRB     r0,[r0,#0x10]
        0x0001e264:    b1c8        ..      CBZ      r0,0x1e29a ; command_write_combo + 86
        0x0001e266:    e7ff        ..      B        0x1e268 ; command_write_combo + 36
        0x0001e268:    9803        ..      LDR      r0,[sp,#0xc]
        0x0001e26a:    7c00        .|      LDRB     r0,[r0,#0x10]
        0x0001e26c:    2801        .(      CMP      r0,#1
        0x0001e26e:    d014        ..      BEQ      0x1e29a ; command_write_combo + 86
        0x0001e270:    e7ff        ..      B        0x1e272 ; command_write_combo + 46
        0x0001e272:    9803        ..      LDR      r0,[sp,#0xc]
        0x0001e274:    7c00        .|      LDRB     r0,[r0,#0x10]
        0x0001e276:    2816        .(      CMP      r0,#0x16
        0x0001e278:    d00f        ..      BEQ      0x1e29a ; command_write_combo + 86
        0x0001e27a:    e7ff        ..      B        0x1e27c ; command_write_combo + 56
        0x0001e27c:    9803        ..      LDR      r0,[sp,#0xc]
        0x0001e27e:    7c00        .|      LDRB     r0,[r0,#0x10]
        0x0001e280:    2817        .(      CMP      r0,#0x17
        0x0001e282:    d00a        ..      BEQ      0x1e29a ; command_write_combo + 86
        0x0001e284:    e7ff        ..      B        0x1e286 ; command_write_combo + 66
        0x0001e286:    9803        ..      LDR      r0,[sp,#0xc]
        0x0001e288:    7c00        .|      LDRB     r0,[r0,#0x10]
        0x0001e28a:    2818        .(      CMP      r0,#0x18
        0x0001e28c:    d005        ..      BEQ      0x1e29a ; command_write_combo + 86
        0x0001e28e:    e7ff        ..      B        0x1e290 ; command_write_combo + 76
        0x0001e290:    9803        ..      LDR      r0,[sp,#0xc]
        0x0001e292:    7c00        .|      LDRB     r0,[r0,#0x10]
        0x0001e294:    2819        .(      CMP      r0,#0x19
        0x0001e296:    d114        ..      BNE      0x1e2c2 ; command_write_combo + 126
        0x0001e298:    e7ff        ..      B        0x1e29a ; command_write_combo + 86
        0x0001e29a:    9807        ..      LDR      r0,[sp,#0x1c]
        0x0001e29c:    f89d101a    ....    LDRB     r1,[sp,#0x1a]
        0x0001e2a0:    9b05        ..      LDR      r3,[sp,#0x14]
        0x0001e2a2:    f8ddc028    ..(.    LDR      r12,[sp,#0x28]
        0x0001e2a6:    9c0b        ..      LDR      r4,[sp,#0x2c]
        0x0001e2a8:    f89d2019    ...     LDRB     r2,[sp,#0x19]
        0x0001e2ac:    46ee        .F      MOV      lr,sp
        0x0001e2ae:    f8ce4004    ...@    STR      r4,[lr,#4]
        0x0001e2b2:    f8cec000    ....    STR      r12,[lr,#0]
        0x0001e2b6:    f0020201    ....    AND      r2,r2,#1
        0x0001e2ba:    f000f8af    ....    BL       command_write_serial ; 0x1e41c
        0x0001e2be:    9004        ..      STR      r0,[sp,#0x10]
        0x0001e2c0:    e021        !.      B        0x1e306 ; command_write_combo + 194
        0x0001e2c2:    9803        ..      LDR      r0,[sp,#0xc]
        0x0001e2c4:    7c00        .|      LDRB     r0,[r0,#0x10]
        0x0001e2c6:    2808        .(      CMP      r0,#8
        0x0001e2c8:    d005        ..      BEQ      0x1e2d6 ; command_write_combo + 146
        0x0001e2ca:    e7ff        ..      B        0x1e2cc ; command_write_combo + 136
        0x0001e2cc:    9803        ..      LDR      r0,[sp,#0xc]
        0x0001e2ce:    7c00        .|      LDRB     r0,[r0,#0x10]
        0x0001e2d0:    2809        .(      CMP      r0,#9
        0x0001e2d2:    d114        ..      BNE      0x1e2fe ; command_write_combo + 186
        0x0001e2d4:    e7ff        ..      B        0x1e2d6 ; command_write_combo + 146
        0x0001e2d6:    9807        ..      LDR      r0,[sp,#0x1c]
        0x0001e2d8:    f8bd101a    ....    LDRH     r1,[sp,#0x1a]
        0x0001e2dc:    9b05        ..      LDR      r3,[sp,#0x14]
        0x0001e2de:    f8ddc028    ..(.    LDR      r12,[sp,#0x28]
        0x0001e2e2:    9c0b        ..      LDR      r4,[sp,#0x2c]
        0x0001e2e4:    f89d2019    ...     LDRB     r2,[sp,#0x19]
        0x0001e2e8:    46ee        .F      MOV      lr,sp
        0x0001e2ea:    f8ce4004    ...@    STR      r4,[lr,#4]
        0x0001e2ee:    f8cec000    ....    STR      r12,[lr,#0]
        0x0001e2f2:    f0020201    ....    AND      r2,r2,#1
        0x0001e2f6:    f000f809    ....    BL       command_write_octal ; 0x1e30c
        0x0001e2fa:    9004        ..      STR      r0,[sp,#0x10]
        0x0001e2fc:    e002        ..      B        0x1e304 ; command_write_combo + 192
        0x0001e2fe:    2001        .       MOVS     r0,#1
        0x0001e300:    9004        ..      STR      r0,[sp,#0x10]
        0x0001e302:    e7ff        ..      B        0x1e304 ; command_write_combo + 192
        0x0001e304:    e7ff        ..      B        0x1e306 ; command_write_combo + 194
        0x0001e306:    9804        ..      LDR      r0,[sp,#0x10]
        0x0001e308:    b008        ..      ADD      sp,sp,#0x20
        0x0001e30a:    bd10        ..      POP      {r4,pc}
    command_write_octal
        0x0001e30c:    b580        ..      PUSH     {r7,lr}
        0x0001e30e:    b092        ..      SUB      sp,sp,#0x48
        0x0001e310:    f8ddc054    ..T.    LDR      r12,[sp,#0x54]
        0x0001e314:    f8ddc050    ..P.    LDR      r12,[sp,#0x50]
        0x0001e318:    9010        ..      STR      r0,[sp,#0x40]
        0x0001e31a:    f8ad103e    ..>.    STRH     r1,[sp,#0x3e]
        0x0001e31e:    f88d203d    ..=     STRB     r2,[sp,#0x3d]
        0x0001e322:    930e        ..      STR      r3,[sp,#0x38]
        0x0001e324:    9810        ..      LDR      r0,[sp,#0x40]
        0x0001e326:    900c        ..      STR      r0,[sp,#0x30]
        0x0001e328:    2000        .       MOVS     r0,#0
        0x0001e32a:    9000        ..      STR      r0,[sp,#0]
        0x0001e32c:    900b        ..      STR      r0,[sp,#0x2c]
        0x0001e32e:    900a        ..      STR      r0,[sp,#0x28]
        0x0001e330:    9009        ..      STR      r0,[sp,#0x24]
        0x0001e332:    9008        ..      STR      r0,[sp,#0x20]
        0x0001e334:    9007        ..      STR      r0,[sp,#0x1c]
        0x0001e336:    9006        ..      STR      r0,[sp,#0x18]
        0x0001e338:    9915        ..      LDR      r1,[sp,#0x54]
        0x0001e33a:    9106        ..      STR      r1,[sp,#0x18]
        0x0001e33c:    2101        .!      MOVS     r1,#1
        0x0001e33e:    f88d101e    ....    STRB     r1,[sp,#0x1e]
        0x0001e342:    f89d203d    ..=     LDRB     r2,[sp,#0x3d]
        0x0001e346:    f0020201    ....    AND      r2,r2,#1
        0x0001e34a:    f88d201f    ...     STRB     r2,[sp,#0x1f]
        0x0001e34e:    9a0e        ..      LDR      r2,[sp,#0x38]
        0x0001e350:    9208        ..      STR      r2,[sp,#0x20]
        0x0001e352:    f88d1024    ..$.    STRB     r1,[sp,#0x24]
        0x0001e356:    f8bd103e    ..>.    LDRH     r1,[sp,#0x3e]
        0x0001e35a:    f8ad1026    ..&.    STRH     r1,[sp,#0x26]
        0x0001e35e:    f88d0028    ..(.    STRB     r0,[sp,#0x28]
        0x0001e362:    9914        ..      LDR      r1,[sp,#0x50]
        0x0001e364:    910b        ..      STR      r1,[sp,#0x2c]
        0x0001e366:    f88d001d    ....    STRB     r0,[sp,#0x1d]
        0x0001e36a:    f88d0029    ..).    STRB     r0,[sp,#0x29]
        0x0001e36e:    f88d000c    ....    STRB     r0,[sp,#0xc]
        0x0001e372:    f88d000d    ....    STRB     r0,[sp,#0xd]
        0x0001e376:    f88d000e    ....    STRB     r0,[sp,#0xe]
        0x0001e37a:    f88d0011    ....    STRB     r0,[sp,#0x11]
        0x0001e37e:    f88d0012    ....    STRB     r0,[sp,#0x12]
        0x0001e382:    f88d0015    ....    STRB     r0,[sp,#0x15]
        0x0001e386:    2110        .!      MOVS     r1,#0x10
        0x0001e388:    f88d1010    ....    STRB     r1,[sp,#0x10]
        0x0001e38c:    f88d000f    ....    STRB     r0,[sp,#0xf]
        0x0001e390:    980c        ..      LDR      r0,[sp,#0x30]
        0x0001e392:    6840        @h      LDR      r0,[r0,#4]
        0x0001e394:    210b        .!      MOVS     r1,#0xb
        0x0001e396:    aa03        ..      ADD      r2,sp,#0xc
        0x0001e398:    f7fdf818    ....    BL       am_hal_mspi_control ; 0x1b3cc
        0x0001e39c:    980c        ..      LDR      r0,[sp,#0x30]
        0x0001e39e:    7cc0        .|      LDRB     r0,[r0,#0x13]
        0x0001e3a0:    2801        .(      CMP      r0,#1
        0x0001e3a2:    d110        ..      BNE      0x1e3c6 ; command_write_octal + 186
        0x0001e3a4:    e7ff        ..      B        0x1e3a6 ; command_write_octal + 154
        0x0001e3a6:    2001        .       MOVS     r0,#1
        0x0001e3a8:    f88d0004    ....    STRB     r0,[sp,#4]
        0x0001e3ac:    f88d0005    ....    STRB     r0,[sp,#5]
        0x0001e3b0:    2000        .       MOVS     r0,#0
        0x0001e3b2:    f88d0006    ....    STRB     r0,[sp,#6]
        0x0001e3b6:    f88d0007    ....    STRB     r0,[sp,#7]
        0x0001e3ba:    2110        .!      MOVS     r1,#0x10
        0x0001e3bc:    f88d1008    ....    STRB     r1,[sp,#8]
        0x0001e3c0:    f88d0009    ....    STRB     r0,[sp,#9]
        0x0001e3c4:    e00e        ..      B        0x1e3e4 ; command_write_octal + 216
        0x0001e3c6:    2000        .       MOVS     r0,#0
        0x0001e3c8:    f88d0004    ....    STRB     r0,[sp,#4]
        0x0001e3cc:    f88d0005    ....    STRB     r0,[sp,#5]
        0x0001e3d0:    f88d0006    ....    STRB     r0,[sp,#6]
        0x0001e3d4:    f88d0007    ....    STRB     r0,[sp,#7]
        0x0001e3d8:    2110        .!      MOVS     r1,#0x10
        0x0001e3da:    f88d1008    ....    STRB     r1,[sp,#8]
        0x0001e3de:    f88d0009    ....    STRB     r0,[sp,#9]
        0x0001e3e2:    e7ff        ..      B        0x1e3e4 ; command_write_octal + 216
        0x0001e3e4:    980c        ..      LDR      r0,[sp,#0x30]
        0x0001e3e6:    6840        @h      LDR      r0,[r0,#4]
        0x0001e3e8:    210d        .!      MOVS     r1,#0xd
        0x0001e3ea:    aa01        ..      ADD      r2,sp,#4
        0x0001e3ec:    f7fcffee    ....    BL       am_hal_mspi_control ; 0x1b3cc
        0x0001e3f0:    980c        ..      LDR      r0,[sp,#0x30]
        0x0001e3f2:    6840        @h      LDR      r0,[r0,#4]
        0x0001e3f4:    a906        ..      ADD      r1,sp,#0x18
        0x0001e3f6:    f2442240    D.@"    MOV      r2,#0x4240
        0x0001e3fa:    f2c0020f    ....    MOVT     r2,#0xf
        0x0001e3fe:    f7fcfe8f    ....    BL       am_hal_mspi_blocking_transfer ; 0x1b120
        0x0001e402:    900d        ..      STR      r0,[sp,#0x34]
        0x0001e404:    980d        ..      LDR      r0,[sp,#0x34]
        0x0001e406:    b118        ..      CBZ      r0,0x1e410 ; command_write_octal + 260
        0x0001e408:    e7ff        ..      B        0x1e40a ; command_write_octal + 254
        0x0001e40a:    980d        ..      LDR      r0,[sp,#0x34]
        0x0001e40c:    9011        ..      STR      r0,[sp,#0x44]
        0x0001e40e:    e002        ..      B        0x1e416 ; command_write_octal + 266
        0x0001e410:    980d        ..      LDR      r0,[sp,#0x34]
        0x0001e412:    9011        ..      STR      r0,[sp,#0x44]
        0x0001e414:    e7ff        ..      B        0x1e416 ; command_write_octal + 266
        0x0001e416:    9811        ..      LDR      r0,[sp,#0x44]
        0x0001e418:    b012        ..      ADD      sp,sp,#0x48
        0x0001e41a:    bd80        ..      POP      {r7,pc}
    command_write_serial
        0x0001e41c:    b580        ..      PUSH     {r7,lr}
        0x0001e41e:    b094        ..      SUB      sp,sp,#0x50
        0x0001e420:    f8ddc05c    ..\.    LDR      r12,[sp,#0x5c]
        0x0001e424:    f8ddc058    ..X.    LDR      r12,[sp,#0x58]
        0x0001e428:    9012        ..      STR      r0,[sp,#0x48]
        0x0001e42a:    f88d1047    ..G.    STRB     r1,[sp,#0x47]
        0x0001e42e:    f88d2046    ..F     STRB     r2,[sp,#0x46]
        0x0001e432:    9310        ..      STR      r3,[sp,#0x40]
        0x0001e434:    9812        ..      LDR      r0,[sp,#0x48]
        0x0001e436:    900e        ..      STR      r0,[sp,#0x38]
        0x0001e438:    2000        .       MOVS     r0,#0
        0x0001e43a:    9001        ..      STR      r0,[sp,#4]
        0x0001e43c:    900d        ..      STR      r0,[sp,#0x34]
        0x0001e43e:    900c        ..      STR      r0,[sp,#0x30]
        0x0001e440:    900b        ..      STR      r0,[sp,#0x2c]
        0x0001e442:    900a        ..      STR      r0,[sp,#0x28]
        0x0001e444:    9009        ..      STR      r0,[sp,#0x24]
        0x0001e446:    9008        ..      STR      r0,[sp,#0x20]
        0x0001e448:    9917        ..      LDR      r1,[sp,#0x5c]
        0x0001e44a:    9108        ..      STR      r1,[sp,#0x20]
        0x0001e44c:    2101        .!      MOVS     r1,#1
        0x0001e44e:    f88d1026    ..&.    STRB     r1,[sp,#0x26]
        0x0001e452:    f89d2046    ..F     LDRB     r2,[sp,#0x46]
        0x0001e456:    f0020201    ....    AND      r2,r2,#1
        0x0001e45a:    f88d2027    ..'     STRB     r2,[sp,#0x27]
        0x0001e45e:    9a10        ..      LDR      r2,[sp,#0x40]
        0x0001e460:    920a        ..      STR      r2,[sp,#0x28]
        0x0001e462:    f88d102c    ..,.    STRB     r1,[sp,#0x2c]
        0x0001e466:    f89d1047    ..G.    LDRB     r1,[sp,#0x47]
        0x0001e46a:    f8ad102e    ....    STRH     r1,[sp,#0x2e]
        0x0001e46e:    f88d0030    ..0.    STRB     r0,[sp,#0x30]
        0x0001e472:    9916        ..      LDR      r1,[sp,#0x58]
        0x0001e474:    910d        ..      STR      r1,[sp,#0x34]
        0x0001e476:    f88d0025    ..%.    STRB     r0,[sp,#0x25]
        0x0001e47a:    f88d0031    ..1.    STRB     r0,[sp,#0x31]
        0x0001e47e:    9812        ..      LDR      r0,[sp,#0x48]
        0x0001e480:    f000f9c4    ....    BL       enter_command_mode ; 0x1e80c
        0x0001e484:    9801        ..      LDR      r0,[sp,#4]
        0x0001e486:    f88d0014    ....    STRB     r0,[sp,#0x14]
        0x0001e48a:    f88d0015    ....    STRB     r0,[sp,#0x15]
        0x0001e48e:    f88d0016    ....    STRB     r0,[sp,#0x16]
        0x0001e492:    f88d0019    ....    STRB     r0,[sp,#0x19]
        0x0001e496:    f88d001a    ....    STRB     r0,[sp,#0x1a]
        0x0001e49a:    f88d001d    ....    STRB     r0,[sp,#0x1d]
        0x0001e49e:    2110        .!      MOVS     r1,#0x10
        0x0001e4a0:    9102        ..      STR      r1,[sp,#8]
        0x0001e4a2:    f88d1018    ....    STRB     r1,[sp,#0x18]
        0x0001e4a6:    f88d0017    ....    STRB     r0,[sp,#0x17]
        0x0001e4aa:    980e        ..      LDR      r0,[sp,#0x38]
        0x0001e4ac:    6840        @h      LDR      r0,[r0,#4]
        0x0001e4ae:    210b        .!      MOVS     r1,#0xb
        0x0001e4b0:    aa05        ..      ADD      r2,sp,#0x14
        0x0001e4b2:    f7fcff8b    ....    BL       am_hal_mspi_control ; 0x1b3cc
        0x0001e4b6:    9901        ..      LDR      r1,[sp,#4]
        0x0001e4b8:    9802        ..      LDR      r0,[sp,#8]
        0x0001e4ba:    f88d100d    ....    STRB     r1,[sp,#0xd]
        0x0001e4be:    f88d100e    ....    STRB     r1,[sp,#0xe]
        0x0001e4c2:    f88d100f    ....    STRB     r1,[sp,#0xf]
        0x0001e4c6:    f88d0010    ....    STRB     r0,[sp,#0x10]
        0x0001e4ca:    f89d0047    ..G.    LDRB     r0,[sp,#0x47]
        0x0001e4ce:    2881        .(      CMP      r0,#0x81
        0x0001e4d0:    d005        ..      BEQ      0x1e4de ; command_write_serial + 194
        0x0001e4d2:    e7ff        ..      B        0x1e4d4 ; command_write_serial + 184
        0x0001e4d4:    f89d0047    ..G.    LDRB     r0,[sp,#0x47]
        0x0001e4d8:    28b1        .(      CMP      r0,#0xb1
        0x0001e4da:    d104        ..      BNE      0x1e4e6 ; command_write_serial + 202
        0x0001e4dc:    e7ff        ..      B        0x1e4de ; command_write_serial + 194
        0x0001e4de:    2000        .       MOVS     r0,#0
        0x0001e4e0:    f88d0011    ....    STRB     r0,[sp,#0x11]
        0x0001e4e4:    e003        ..      B        0x1e4ee ; command_write_serial + 210
        0x0001e4e6:    2008        .       MOVS     r0,#8
        0x0001e4e8:    f88d0011    ....    STRB     r0,[sp,#0x11]
        0x0001e4ec:    e7ff        ..      B        0x1e4ee ; command_write_serial + 210
        0x0001e4ee:    980e        ..      LDR      r0,[sp,#0x38]
        0x0001e4f0:    6840        @h      LDR      r0,[r0,#4]
        0x0001e4f2:    210d        .!      MOVS     r1,#0xd
        0x0001e4f4:    aa03        ..      ADD      r2,sp,#0xc
        0x0001e4f6:    f7fcff69    ..i.    BL       am_hal_mspi_control ; 0x1b3cc
        0x0001e4fa:    980e        ..      LDR      r0,[sp,#0x38]
        0x0001e4fc:    6840        @h      LDR      r0,[r0,#4]
        0x0001e4fe:    a908        ..      ADD      r1,sp,#0x20
        0x0001e500:    f2442240    D.@"    MOV      r2,#0x4240
        0x0001e504:    f2c0020f    ....    MOVT     r2,#0xf
        0x0001e508:    f7fcfe0a    ....    BL       am_hal_mspi_blocking_transfer ; 0x1b120
        0x0001e50c:    900f        ..      STR      r0,[sp,#0x3c]
        0x0001e50e:    9812        ..      LDR      r0,[sp,#0x48]
        0x0001e510:    f000f99a    ....    BL       exit_command_mode ; 0x1e848
        0x0001e514:    f244703e    D.>p    MOV      r0,#0x473e
        0x0001e518:    f2c10000    ....    MOVT     r0,#0x1000
        0x0001e51c:    7800        .x      LDRB     r0,[r0,#0]
        0x0001e51e:    07c0        ..      LSLS     r0,r0,#31
        0x0001e520:    b140        @.      CBZ      r0,0x1e534 ; command_write_serial + 280
        0x0001e522:    e7ff        ..      B        0x1e524 ; command_write_serial + 264
        0x0001e524:    980e        ..      LDR      r0,[sp,#0x38]
        0x0001e526:    f64811f4    H...    MOV      r1,#0x89f4
        0x0001e52a:    f2c10100    ....    MOVT     r1,#0x1000
        0x0001e52e:    f7fafd33    ..3.    BL       am_devices_mspi_is25wx064_apply_ddr_timing ; 0x18f98
        0x0001e532:    e7ff        ..      B        0x1e534 ; command_write_serial + 280
        0x0001e534:    980f        ..      LDR      r0,[sp,#0x3c]
        0x0001e536:    b118        ..      CBZ      r0,0x1e540 ; command_write_serial + 292
        0x0001e538:    e7ff        ..      B        0x1e53a ; command_write_serial + 286
        0x0001e53a:    980f        ..      LDR      r0,[sp,#0x3c]
        0x0001e53c:    9013        ..      STR      r0,[sp,#0x4c]
        0x0001e53e:    e002        ..      B        0x1e546 ; command_write_serial + 298
        0x0001e540:    980f        ..      LDR      r0,[sp,#0x3c]
        0x0001e542:    9013        ..      STR      r0,[sp,#0x4c]
        0x0001e544:    e7ff        ..      B        0x1e546 ; command_write_serial + 298
        0x0001e546:    9813        ..      LDR      r0,[sp,#0x4c]
        0x0001e548:    b014        ..      ADD      sp,sp,#0x50
        0x0001e54a:    bd80        ..      POP      {r7,pc}
    count_consecutive_ones
        0x0001e54c:    b083        ..      SUB      sp,sp,#0xc
        0x0001e54e:    9002        ..      STR      r0,[sp,#8]
        0x0001e550:    2000        .       MOVS     r0,#0
        0x0001e552:    9001        ..      STR      r0,[sp,#4]
        0x0001e554:    9802        ..      LDR      r0,[sp,#8]
        0x0001e556:    6800        .h      LDR      r0,[r0,#0]
        0x0001e558:    9000        ..      STR      r0,[sp,#0]
        0x0001e55a:    e7ff        ..      B        0x1e55c ; count_consecutive_ones + 16
        0x0001e55c:    9800        ..      LDR      r0,[sp,#0]
        0x0001e55e:    b140        @.      CBZ      r0,0x1e572 ; count_consecutive_ones + 38
        0x0001e560:    e7ff        ..      B        0x1e562 ; count_consecutive_ones + 22
        0x0001e562:    9800        ..      LDR      r0,[sp,#0]
        0x0001e564:    ea000040    ..@.    AND      r0,r0,r0,LSL #1
        0x0001e568:    9000        ..      STR      r0,[sp,#0]
        0x0001e56a:    9801        ..      LDR      r0,[sp,#4]
        0x0001e56c:    3001        .0      ADDS     r0,#1
        0x0001e56e:    9001        ..      STR      r0,[sp,#4]
        0x0001e570:    e7f4        ..      B        0x1e55c ; count_consecutive_ones + 16
        0x0001e572:    9801        ..      LDR      r0,[sp,#4]
        0x0001e574:    b003        ..      ADD      sp,sp,#0xc
        0x0001e576:    4770        pG      BX       lr
    crypto_boost_trims
        0x0001e578:    e92d41f0    -..A    PUSH     {r4-r8,lr}
        0x0001e57c:    b082        ..      SUB      sp,sp,#8
        0x0001e57e:    f24856c4    H..V    MOV      r6,#0x85c4
        0x0001e582:    f2c10600    ....    MOVT     r6,#0x1000
        0x0001e586:    7832        2x      LDRB     r2,[r6,#0]
        0x0001e588:    4604        .F      MOV      r4,r0
        0x0001e58a:    fab2f082    ....    CLZ      r0,r2
        0x0001e58e:    0940        @.      LSRS     r0,r0,#5
        0x0001e590:    4060        `@      EORS     r0,r0,r4
        0x0001e592:    bf1c        ..      ITT      NE
        0x0001e594:    b002        ..      ADDNE    sp,sp,#8
        0x0001e596:    e8bd81f0    ....    POPNE    {r4-r8,pc}
        0x0001e59a:    f2400888    @...    MOVW     r8,#0x88
        0x0001e59e:    460d        .F      MOV      r5,r1
        0x0001e5a0:    f2c40802    ....    MOVT     r8,#0x4002
        0x0001e5a4:    f7fcfd46    ..F.    BL       am_hal_interrupt_master_disable ; 0x1b034
        0x0001e5a8:    9001        ..      STR      r0,[sp,#4]
        0x0001e5aa:    f24850cc    H..P    MOV      r0,#0x85cc
        0x0001e5ae:    f2c10000    ....    MOVT     r0,#0x1000
        0x0001e5b2:    6801        .h      LDR      r1,[r0,#0]
        0x0001e5b4:    7034        4p      STRB     r4,[r6,#0]
        0x0001e5b6:    2c00        .,      CMP      r4,#0
        0x0001e5b8:    bf08        ..      IT       EQ
        0x0001e5ba:    426d        mB      RSBEQ    r5,r5,#0
        0x0001e5bc:    4429        )D      ADD      r1,r1,r5
        0x0001e5be:    6001        .`      STR      r1,[r0,#0]
        0x0001e5c0:    f24850c8    H..P    MOV      r0,#0x85c8
        0x0001e5c4:    293f        ?)      CMP      r1,#0x3f
        0x0001e5c6:    f04f063f    O.?.    MOV      r6,#0x3f
        0x0001e5ca:    f2c10000    ....    MOVT     r0,#0x1000
        0x0001e5ce:    bf38        8.      IT       CC
        0x0001e5d0:    460e        .F      MOVCC    r6,r1
        0x0001e5d2:    2900        .)      CMP      r1,#0
        0x0001e5d4:    6801        .h      LDR      r1,[r0,#0]
        0x0001e5d6:    f04f073f    O.?.    MOV      r7,#0x3f
        0x0001e5da:    4429        )D      ADD      r1,r1,r5
        0x0001e5dc:    bf48        H.      IT       MI
        0x0001e5de:    2600        .&      MOVMI    r6,#0
        0x0001e5e0:    293f        ?)      CMP      r1,#0x3f
        0x0001e5e2:    bf38        8.      IT       CC
        0x0001e5e4:    460f        .F      MOVCC    r7,r1
        0x0001e5e6:    2900        .)      CMP      r1,#0
        0x0001e5e8:    bf48        H.      IT       MI
        0x0001e5ea:    2700        .'      MOVMI    r7,#0
        0x0001e5ec:    6001        .`      STR      r1,[r0,#0]
        0x0001e5ee:    b194        ..      CBZ      r4,0x1e616 ; crypto_boost_trims + 158
        0x0001e5f0:    f8d802e4    ....    LDR      r0,[r8,#0x2e4]
        0x0001e5f4:    f020707c     .|p    BIC      r0,r0,#0x3f00000
        0x0001e5f8:    ea405006    @..P    ORR      r0,r0,r6,LSL #20
        0x0001e5fc:    f8c802e4    ....    STR      r0,[r8,#0x2e4]
        0x0001e600:    2014        .       MOVS     r0,#0x14
        0x0001e602:    f7fcfbd7    ....    BL       am_hal_delay_us ; 0x1adb4
        0x0001e606:    f8d80000    ....    LDR      r0,[r8,#0]
        0x0001e60a:    f020003f     .?.    BIC      r0,r0,#0x3f
        0x0001e60e:    4338        8C      ORRS     r0,r0,r7
        0x0001e610:    f8c80000    ....    STR      r0,[r8,#0]
        0x0001e614:    e011        ..      B        0x1e63a ; crypto_boost_trims + 194
        0x0001e616:    f8d80000    ....    LDR      r0,[r8,#0]
        0x0001e61a:    f020003f     .?.    BIC      r0,r0,#0x3f
        0x0001e61e:    4338        8C      ORRS     r0,r0,r7
        0x0001e620:    f8c80000    ....    STR      r0,[r8,#0]
        0x0001e624:    2014        .       MOVS     r0,#0x14
        0x0001e626:    f7fcfbc5    ....    BL       am_hal_delay_us ; 0x1adb4
        0x0001e62a:    f8d802e4    ....    LDR      r0,[r8,#0x2e4]
        0x0001e62e:    f020707c     .|p    BIC      r0,r0,#0x3f00000
        0x0001e632:    ea405006    @..P    ORR      r0,r0,r6,LSL #20
        0x0001e636:    f8c802e4    ....    STR      r0,[r8,#0x2e4]
        0x0001e63a:    9801        ..      LDR      r0,[sp,#4]
        0x0001e63c:    f7fcfd02    ....    BL       am_hal_interrupt_master_set ; 0x1b044
        0x0001e640:    2014        .       MOVS     r0,#0x14
        0x0001e642:    b002        ..      ADD      sp,sp,#8
        0x0001e644:    e8bd41f0    ...A    POP      {r4-r8,lr}
        0x0001e648:    f7fcbbb4    ....    B        am_hal_delay_us ; 0x1adb4
    decstr_to_int
        0x0001e64c:    b087        ..      SUB      sp,sp,#0x1c
        0x0001e64e:    9006        ..      STR      r0,[sp,#0x18]
        0x0001e650:    9105        ..      STR      r1,[sp,#0x14]
        0x0001e652:    2000        .       MOVS     r0,#0
        0x0001e654:    f88d0013    ....    STRB     r0,[sp,#0x13]
        0x0001e658:    9003        ..      STR      r0,[sp,#0xc]
        0x0001e65a:    9002        ..      STR      r0,[sp,#8]
        0x0001e65c:    9806        ..      LDR      r0,[sp,#0x18]
        0x0001e65e:    7800        .x      LDRB     r0,[r0,#0]
        0x0001e660:    282d        -(      CMP      r0,#0x2d
        0x0001e662:    d10a        ..      BNE      0x1e67a ; decstr_to_int + 46
        0x0001e664:    e7ff        ..      B        0x1e666 ; decstr_to_int + 26
        0x0001e666:    2001        .       MOVS     r0,#1
        0x0001e668:    f88d0013    ....    STRB     r0,[sp,#0x13]
        0x0001e66c:    9806        ..      LDR      r0,[sp,#0x18]
        0x0001e66e:    3001        .0      ADDS     r0,#1
        0x0001e670:    9006        ..      STR      r0,[sp,#0x18]
        0x0001e672:    9802        ..      LDR      r0,[sp,#8]
        0x0001e674:    3001        .0      ADDS     r0,#1
        0x0001e676:    9002        ..      STR      r0,[sp,#8]
        0x0001e678:    e7ff        ..      B        0x1e67a ; decstr_to_int + 46
        0x0001e67a:    e7ff        ..      B        0x1e67c ; decstr_to_int + 48
        0x0001e67c:    9806        ..      LDR      r0,[sp,#0x18]
        0x0001e67e:    7801        .x      LDRB     r1,[r0,#0]
        0x0001e680:    2000        .       MOVS     r0,#0
        0x0001e682:    2930        0)      CMP      r1,#0x30
        0x0001e684:    9001        ..      STR      r0,[sp,#4]
        0x0001e686:    db08        ..      BLT      0x1e69a ; decstr_to_int + 78
        0x0001e688:    e7ff        ..      B        0x1e68a ; decstr_to_int + 62
        0x0001e68a:    9806        ..      LDR      r0,[sp,#0x18]
        0x0001e68c:    7801        .x      LDRB     r1,[r0,#0]
        0x0001e68e:    2000        .       MOVS     r0,#0
        0x0001e690:    293a        :)      CMP      r1,#0x3a
        0x0001e692:    bfb8        ..      IT       LT
        0x0001e694:    2001        .       MOVLT    r0,#1
        0x0001e696:    9001        ..      STR      r0,[sp,#4]
        0x0001e698:    e7ff        ..      B        0x1e69a ; decstr_to_int + 78
        0x0001e69a:    9801        ..      LDR      r0,[sp,#4]
        0x0001e69c:    07c0        ..      LSLS     r0,r0,#31
        0x0001e69e:    b190        ..      CBZ      r0,0x1e6c6 ; decstr_to_int + 122
        0x0001e6a0:    e7ff        ..      B        0x1e6a2 ; decstr_to_int + 86
        0x0001e6a2:    9802        ..      LDR      r0,[sp,#8]
        0x0001e6a4:    3001        .0      ADDS     r0,#1
        0x0001e6a6:    9002        ..      STR      r0,[sp,#8]
        0x0001e6a8:    9803        ..      LDR      r0,[sp,#0xc]
        0x0001e6aa:    eb000080    ....    ADD      r0,r0,r0,LSL #2
        0x0001e6ae:    0040        @.      LSLS     r0,r0,#1
        0x0001e6b0:    9003        ..      STR      r0,[sp,#0xc]
        0x0001e6b2:    9806        ..      LDR      r0,[sp,#0x18]
        0x0001e6b4:    7800        .x      LDRB     r0,[r0,#0]
        0x0001e6b6:    9903        ..      LDR      r1,[sp,#0xc]
        0x0001e6b8:    4408        .D      ADD      r0,r0,r1
        0x0001e6ba:    3830        08      SUBS     r0,r0,#0x30
        0x0001e6bc:    9003        ..      STR      r0,[sp,#0xc]
        0x0001e6be:    9806        ..      LDR      r0,[sp,#0x18]
        0x0001e6c0:    3001        .0      ADDS     r0,#1
        0x0001e6c2:    9006        ..      STR      r0,[sp,#0x18]
        0x0001e6c4:    e7da        ..      B        0x1e67c ; decstr_to_int + 48
        0x0001e6c6:    9805        ..      LDR      r0,[sp,#0x14]
        0x0001e6c8:    b120         .      CBZ      r0,0x1e6d4 ; decstr_to_int + 136
        0x0001e6ca:    e7ff        ..      B        0x1e6cc ; decstr_to_int + 128
        0x0001e6cc:    9802        ..      LDR      r0,[sp,#8]
        0x0001e6ce:    9905        ..      LDR      r1,[sp,#0x14]
        0x0001e6d0:    6008        .`      STR      r0,[r1,#0]
        0x0001e6d2:    e7ff        ..      B        0x1e6d4 ; decstr_to_int + 136
        0x0001e6d4:    f89d0013    ....    LDRB     r0,[sp,#0x13]
        0x0001e6d8:    07c0        ..      LSLS     r0,r0,#31
        0x0001e6da:    b120         .      CBZ      r0,0x1e6e6 ; decstr_to_int + 154
        0x0001e6dc:    e7ff        ..      B        0x1e6de ; decstr_to_int + 146
        0x0001e6de:    9803        ..      LDR      r0,[sp,#0xc]
        0x0001e6e0:    4240        @B      RSBS     r0,r0,#0
        0x0001e6e2:    9000        ..      STR      r0,[sp,#0]
        0x0001e6e4:    e002        ..      B        0x1e6ec ; decstr_to_int + 160
        0x0001e6e6:    9803        ..      LDR      r0,[sp,#0xc]
        0x0001e6e8:    9000        ..      STR      r0,[sp,#0]
        0x0001e6ea:    e7ff        ..      B        0x1e6ec ; decstr_to_int + 160
        0x0001e6ec:    9800        ..      LDR      r0,[sp,#0]
        0x0001e6ee:    b007        ..      ADD      sp,sp,#0x1c
        0x0001e6f0:    4770        pG      BX       lr
        0x0001e6f2:    0000        ..      MOVS     r0,r0
    divu64_10
        0x0001e6f4:    b08c        ..      SUB      sp,sp,#0x30
        0x0001e6f6:    9109        ..      STR      r1,[sp,#0x24]
        0x0001e6f8:    9008        ..      STR      r0,[sp,#0x20]
        0x0001e6fa:    9809        ..      LDR      r0,[sp,#0x24]
        0x0001e6fc:    2800        .(      CMP      r0,#0
        0x0001e6fe:    d05b        [.      BEQ      0x1e7b8 ; divu64_10 + 196
        0x0001e700:    e7ff        ..      B        0x1e702 ; divu64_10 + 14
        0x0001e702:    9b08        ..      LDR      r3,[sp,#0x20]
        0x0001e704:    9a09        ..      LDR      r2,[sp,#0x24]
        0x0001e706:    ea5f0052    _.R.    LSRS.W   r0,r2,#1
        0x0001e70a:    ea4f0133    O.3.    RRX      r1,r3
        0x0001e70e:    089b        ..      LSRS     r3,r3,#2
        0x0001e710:    ea437382    C..s    ORR      r3,r3,r2,LSL #30
        0x0001e714:    18c9        ..      ADDS     r1,r1,r3
        0x0001e716:    eb400092    @...    ADC      r0,r0,r2,LSR #2
        0x0001e71a:    9106        ..      STR      r1,[sp,#0x18]
        0x0001e71c:    9007        ..      STR      r0,[sp,#0x1c]
        0x0001e71e:    9906        ..      LDR      r1,[sp,#0x18]
        0x0001e720:    9807        ..      LDR      r0,[sp,#0x1c]
        0x0001e722:    090a        ..      LSRS     r2,r1,#4
        0x0001e724:    ea427200    B..r    ORR      r2,r2,r0,LSL #28
        0x0001e728:    1889        ..      ADDS     r1,r1,r2
        0x0001e72a:    eb401010    @...    ADC      r0,r0,r0,LSR #4
        0x0001e72e:    9106        ..      STR      r1,[sp,#0x18]
        0x0001e730:    9007        ..      STR      r0,[sp,#0x1c]
        0x0001e732:    9906        ..      LDR      r1,[sp,#0x18]
        0x0001e734:    9807        ..      LDR      r0,[sp,#0x1c]
        0x0001e736:    0a0a        ..      LSRS     r2,r1,#8
        0x0001e738:    ea426200    B..b    ORR      r2,r2,r0,LSL #24
        0x0001e73c:    1889        ..      ADDS     r1,r1,r2
        0x0001e73e:    eb402010    @..     ADC      r0,r0,r0,LSR #8
        0x0001e742:    9106        ..      STR      r1,[sp,#0x18]
        0x0001e744:    9007        ..      STR      r0,[sp,#0x1c]
        0x0001e746:    9906        ..      LDR      r1,[sp,#0x18]
        0x0001e748:    9807        ..      LDR      r0,[sp,#0x1c]
        0x0001e74a:    0c0a        ..      LSRS     r2,r1,#16
        0x0001e74c:    ea424200    B..B    ORR      r2,r2,r0,LSL #16
        0x0001e750:    1889        ..      ADDS     r1,r1,r2
        0x0001e752:    eb404010    @..@    ADC      r0,r0,r0,LSR #16
        0x0001e756:    9106        ..      STR      r1,[sp,#0x18]
        0x0001e758:    9007        ..      STR      r0,[sp,#0x1c]
        0x0001e75a:    9906        ..      LDR      r1,[sp,#0x18]
        0x0001e75c:    9807        ..      LDR      r0,[sp,#0x1c]
        0x0001e75e:    1809        ..      ADDS     r1,r1,r0
        0x0001e760:    f1400000    @...    ADC      r0,r0,#0
        0x0001e764:    9106        ..      STR      r1,[sp,#0x18]
        0x0001e766:    9007        ..      STR      r0,[sp,#0x1c]
        0x0001e768:    9806        ..      LDR      r0,[sp,#0x18]
        0x0001e76a:    9907        ..      LDR      r1,[sp,#0x1c]
        0x0001e76c:    08c0        ..      LSRS     r0,r0,#3
        0x0001e76e:    ea407041    @.Ap    ORR      r0,r0,r1,LSL #29
        0x0001e772:    08c9        ..      LSRS     r1,r1,#3
        0x0001e774:    9107        ..      STR      r1,[sp,#0x1c]
        0x0001e776:    9006        ..      STR      r0,[sp,#0x18]
        0x0001e778:    9908        ..      LDR      r1,[sp,#0x20]
        0x0001e77a:    9809        ..      LDR      r0,[sp,#0x24]
        0x0001e77c:    9a06        ..      LDR      r2,[sp,#0x18]
        0x0001e77e:    f8ddc01c    ....    LDR      r12,[sp,#0x1c]
        0x0001e782:    230a        .#      MOVS     r3,#0xa
        0x0001e784:    fba23203    ...2    UMULL    r3,r2,r2,r3
        0x0001e788:    eb0c0c8c    ....    ADD      r12,r12,r12,LSL #2
        0x0001e78c:    eb02024c    ..L.    ADD      r2,r2,r12,LSL #1
        0x0001e790:    1ac9        ..      SUBS     r1,r1,r3
        0x0001e792:    4190        .A      SBCS     r0,r0,r2
        0x0001e794:    9104        ..      STR      r1,[sp,#0x10]
        0x0001e796:    9005        ..      STR      r0,[sp,#0x14]
        0x0001e798:    9906        ..      LDR      r1,[sp,#0x18]
        0x0001e79a:    9807        ..      LDR      r0,[sp,#0x1c]
        0x0001e79c:    9b04        ..      LDR      r3,[sp,#0x10]
        0x0001e79e:    9a05        ..      LDR      r2,[sp,#0x14]
        0x0001e7a0:    3306        .3      ADDS     r3,#6
        0x0001e7a2:    f1420200    B...    ADC      r2,r2,#0
        0x0001e7a6:    091b        ..      LSRS     r3,r3,#4
        0x0001e7a8:    ea437302    C..s    ORR      r3,r3,r2,LSL #28
        0x0001e7ac:    18c9        ..      ADDS     r1,r1,r3
        0x0001e7ae:    eb401012    @...    ADC      r0,r0,r2,LSR #4
        0x0001e7b2:    910a        ..      STR      r1,[sp,#0x28]
        0x0001e7b4:    900b        ..      STR      r0,[sp,#0x2c]
        0x0001e7b6:    e025        %.      B        0x1e804 ; divu64_10 + 272
        0x0001e7b8:    9808        ..      LDR      r0,[sp,#0x20]
        0x0001e7ba:    9001        ..      STR      r0,[sp,#4]
        0x0001e7bc:    9901        ..      LDR      r1,[sp,#4]
        0x0001e7be:    0848        H.      LSRS     r0,r1,#1
        0x0001e7c0:    eb000091    ....    ADD      r0,r0,r1,LSR #2
        0x0001e7c4:    9003        ..      STR      r0,[sp,#0xc]
        0x0001e7c6:    9803        ..      LDR      r0,[sp,#0xc]
        0x0001e7c8:    eb001010    ....    ADD      r0,r0,r0,LSR #4
        0x0001e7cc:    9003        ..      STR      r0,[sp,#0xc]
        0x0001e7ce:    9803        ..      LDR      r0,[sp,#0xc]
        0x0001e7d0:    eb002010    ...     ADD      r0,r0,r0,LSR #8
        0x0001e7d4:    9003        ..      STR      r0,[sp,#0xc]
        0x0001e7d6:    9803        ..      LDR      r0,[sp,#0xc]
        0x0001e7d8:    eb004010    ...@    ADD      r0,r0,r0,LSR #16
        0x0001e7dc:    9003        ..      STR      r0,[sp,#0xc]
        0x0001e7de:    9803        ..      LDR      r0,[sp,#0xc]
        0x0001e7e0:    08c0        ..      LSRS     r0,r0,#3
        0x0001e7e2:    9003        ..      STR      r0,[sp,#0xc]
        0x0001e7e4:    9801        ..      LDR      r0,[sp,#4]
        0x0001e7e6:    9903        ..      LDR      r1,[sp,#0xc]
        0x0001e7e8:    eb010181    ....    ADD      r1,r1,r1,LSL #2
        0x0001e7ec:    eba00041    ..A.    SUB      r0,r0,r1,LSL #1
        0x0001e7f0:    9002        ..      STR      r0,[sp,#8]
        0x0001e7f2:    9803        ..      LDR      r0,[sp,#0xc]
        0x0001e7f4:    9902        ..      LDR      r1,[sp,#8]
        0x0001e7f6:    3106        .1      ADDS     r1,#6
        0x0001e7f8:    eb001011    ....    ADD      r0,r0,r1,LSR #4
        0x0001e7fc:    2100        .!      MOVS     r1,#0
        0x0001e7fe:    910b        ..      STR      r1,[sp,#0x2c]
        0x0001e800:    900a        ..      STR      r0,[sp,#0x28]
        0x0001e802:    e7ff        ..      B        0x1e804 ; divu64_10 + 272
        0x0001e804:    980a        ..      LDR      r0,[sp,#0x28]
        0x0001e806:    990b        ..      LDR      r1,[sp,#0x2c]
        0x0001e808:    b00c        ..      ADD      sp,sp,#0x30
        0x0001e80a:    4770        pG      BX       lr
    enter_command_mode
        0x0001e80c:    b580        ..      PUSH     {r7,lr}
        0x0001e80e:    b084        ..      SUB      sp,sp,#0x10
        0x0001e810:    9002        ..      STR      r0,[sp,#8]
        0x0001e812:    9802        ..      LDR      r0,[sp,#8]
        0x0001e814:    9001        ..      STR      r0,[sp,#4]
        0x0001e816:    9901        ..      LDR      r1,[sp,#4]
        0x0001e818:    7c08        .|      LDRB     r0,[r1,#0x10]
        0x0001e81a:    f8911026    ..&.    LDRB     r1,[r1,#0x26]
        0x0001e81e:    4288        .B      CMP      r0,r1
        0x0001e820:    d105        ..      BNE      0x1e82e ; enter_command_mode + 34
        0x0001e822:    e7ff        ..      B        0x1e824 ; enter_command_mode + 24
        0x0001e824:    9801        ..      LDR      r0,[sp,#4]
        0x0001e826:    7cc0        .|      LDRB     r0,[r0,#0x13]
        0x0001e828:    2804        .(      CMP      r0,#4
        0x0001e82a:    d007        ..      BEQ      0x1e83c ; enter_command_mode + 48
        0x0001e82c:    e7ff        ..      B        0x1e82e ; enter_command_mode + 34
        0x0001e82e:    9801        ..      LDR      r0,[sp,#4]
        0x0001e830:    f100011e    ....    ADD      r1,r0,#0x1e
        0x0001e834:    f7fafb6a    ..j.    BL       am_devices_mspi_device_reconfigure ; 0x18f0c
        0x0001e838:    9003        ..      STR      r0,[sp,#0xc]
        0x0001e83a:    e002        ..      B        0x1e842 ; enter_command_mode + 54
        0x0001e83c:    2000        .       MOVS     r0,#0
        0x0001e83e:    9003        ..      STR      r0,[sp,#0xc]
        0x0001e840:    e7ff        ..      B        0x1e842 ; enter_command_mode + 54
        0x0001e842:    9803        ..      LDR      r0,[sp,#0xc]
        0x0001e844:    b004        ..      ADD      sp,sp,#0x10
        0x0001e846:    bd80        ..      POP      {r7,pc}
    exit_command_mode
        0x0001e848:    b580        ..      PUSH     {r7,lr}
        0x0001e84a:    b084        ..      SUB      sp,sp,#0x10
        0x0001e84c:    9002        ..      STR      r0,[sp,#8]
        0x0001e84e:    9802        ..      LDR      r0,[sp,#8]
        0x0001e850:    9001        ..      STR      r0,[sp,#4]
        0x0001e852:    9901        ..      LDR      r1,[sp,#4]
        0x0001e854:    7c08        .|      LDRB     r0,[r1,#0x10]
        0x0001e856:    f8911026    ..&.    LDRB     r1,[r1,#0x26]
        0x0001e85a:    4288        .B      CMP      r0,r1
        0x0001e85c:    d105        ..      BNE      0x1e86a ; exit_command_mode + 34
        0x0001e85e:    e7ff        ..      B        0x1e860 ; exit_command_mode + 24
        0x0001e860:    9801        ..      LDR      r0,[sp,#4]
        0x0001e862:    7cc0        .|      LDRB     r0,[r0,#0x13]
        0x0001e864:    2804        .(      CMP      r0,#4
        0x0001e866:    d007        ..      BEQ      0x1e878 ; exit_command_mode + 48
        0x0001e868:    e7ff        ..      B        0x1e86a ; exit_command_mode + 34
        0x0001e86a:    9801        ..      LDR      r0,[sp,#4]
        0x0001e86c:    f1000108    ....    ADD      r1,r0,#8
        0x0001e870:    f7fafb4c    ..L.    BL       am_devices_mspi_device_reconfigure ; 0x18f0c
        0x0001e874:    9003        ..      STR      r0,[sp,#0xc]
        0x0001e876:    e002        ..      B        0x1e87e ; exit_command_mode + 54
        0x0001e878:    2000        .       MOVS     r0,#0
        0x0001e87a:    9003        ..      STR      r0,[sp,#0xc]
        0x0001e87c:    e7ff        ..      B        0x1e87e ; exit_command_mode + 54
        0x0001e87e:    9803        ..      LDR      r0,[sp,#0xc]
        0x0001e880:    b004        ..      ADD      sp,sp,#0x10
        0x0001e882:    bd80        ..      POP      {r7,pc}
    find_mid_point
        0x0001e884:    b088        ..      SUB      sp,sp,#0x20
        0x0001e886:    9007        ..      STR      r0,[sp,#0x1c]
        0x0001e888:    2000        .       MOVS     r0,#0
        0x0001e88a:    9006        ..      STR      r0,[sp,#0x18]
        0x0001e88c:    9005        ..      STR      r0,[sp,#0x14]
        0x0001e88e:    9004        ..      STR      r0,[sp,#0x10]
        0x0001e890:    f88d000f    ....    STRB     r0,[sp,#0xf]
        0x0001e894:    9907        ..      LDR      r1,[sp,#0x1c]
        0x0001e896:    6809        .h      LDR      r1,[r1,#0]
        0x0001e898:    9102        ..      STR      r1,[sp,#8]
        0x0001e89a:    f88d0007    ....    STRB     r0,[sp,#7]
        0x0001e89e:    f88d0006    ....    STRB     r0,[sp,#6]
        0x0001e8a2:    9000        ..      STR      r0,[sp,#0]
        0x0001e8a4:    e7ff        ..      B        0x1e8a6 ; find_mid_point + 34
        0x0001e8a6:    9800        ..      LDR      r0,[sp,#0]
        0x0001e8a8:    281f        .(      CMP      r0,#0x1f
        0x0001e8aa:    d849        I.      BHI      0x1e940 ; find_mid_point + 188
        0x0001e8ac:    e7ff        ..      B        0x1e8ae ; find_mid_point + 42
        0x0001e8ae:    9802        ..      LDR      r0,[sp,#8]
        0x0001e8b0:    9900        ..      LDR      r1,[sp,#0]
        0x0001e8b2:    40c8        .@      LSRS     r0,r0,r1
        0x0001e8b4:    07c0        ..      LSLS     r0,r0,#31
        0x0001e8b6:    b138        8.      CBZ      r0,0x1e8c8 ; find_mid_point + 68
        0x0001e8b8:    e7ff        ..      B        0x1e8ba ; find_mid_point + 54
        0x0001e8ba:    2001        .       MOVS     r0,#1
        0x0001e8bc:    f88d000f    ....    STRB     r0,[sp,#0xf]
        0x0001e8c0:    9806        ..      LDR      r0,[sp,#0x18]
        0x0001e8c2:    3001        .0      ADDS     r0,#1
        0x0001e8c4:    9006        ..      STR      r0,[sp,#0x18]
        0x0001e8c6:    e00c        ..      B        0x1e8e2 ; find_mid_point + 94
        0x0001e8c8:    f89d000f    ....    LDRB     r0,[sp,#0xf]
        0x0001e8cc:    07c0        ..      LSLS     r0,r0,#31
        0x0001e8ce:    b138        8.      CBZ      r0,0x1e8e0 ; find_mid_point + 92
        0x0001e8d0:    e7ff        ..      B        0x1e8d2 ; find_mid_point + 78
        0x0001e8d2:    2000        .       MOVS     r0,#0
        0x0001e8d4:    f88d000f    ....    STRB     r0,[sp,#0xf]
        0x0001e8d8:    2001        .       MOVS     r0,#1
        0x0001e8da:    f88d0006    ....    STRB     r0,[sp,#6]
        0x0001e8de:    e7ff        ..      B        0x1e8e0 ; find_mid_point + 92
        0x0001e8e0:    e7ff        ..      B        0x1e8e2 ; find_mid_point + 94
        0x0001e8e2:    9800        ..      LDR      r0,[sp,#0]
        0x0001e8e4:    281f        .(      CMP      r0,#0x1f
        0x0001e8e6:    d109        ..      BNE      0x1e8fc ; find_mid_point + 120
        0x0001e8e8:    e7ff        ..      B        0x1e8ea ; find_mid_point + 102
        0x0001e8ea:    f89d000f    ....    LDRB     r0,[sp,#0xf]
        0x0001e8ee:    07c0        ..      LSLS     r0,r0,#31
        0x0001e8f0:    b120         .      CBZ      r0,0x1e8fc ; find_mid_point + 120
        0x0001e8f2:    e7ff        ..      B        0x1e8f4 ; find_mid_point + 112
        0x0001e8f4:    2001        .       MOVS     r0,#1
        0x0001e8f6:    f88d0006    ....    STRB     r0,[sp,#6]
        0x0001e8fa:    e7ff        ..      B        0x1e8fc ; find_mid_point + 120
        0x0001e8fc:    f89d0006    ....    LDRB     r0,[sp,#6]
        0x0001e900:    07c0        ..      LSLS     r0,r0,#31
        0x0001e902:    b1c0        ..      CBZ      r0,0x1e936 ; find_mid_point + 178
        0x0001e904:    e7ff        ..      B        0x1e906 ; find_mid_point + 130
        0x0001e906:    9806        ..      LDR      r0,[sp,#0x18]
        0x0001e908:    9905        ..      LDR      r1,[sp,#0x14]
        0x0001e90a:    4288        .B      CMP      r0,r1
        0x0001e90c:    d90e        ..      BLS      0x1e92c ; find_mid_point + 168
        0x0001e90e:    e7ff        ..      B        0x1e910 ; find_mid_point + 140
        0x0001e910:    9806        ..      LDR      r0,[sp,#0x18]
        0x0001e912:    9005        ..      STR      r0,[sp,#0x14]
        0x0001e914:    9900        ..      LDR      r1,[sp,#0]
        0x0001e916:    9806        ..      LDR      r0,[sp,#0x18]
        0x0001e918:    ea6f0050    o.P.    MVN      r0,r0,LSR #1
        0x0001e91c:    4408        .D      ADD      r0,r0,r1
        0x0001e91e:    9004        ..      STR      r0,[sp,#0x10]
        0x0001e920:    9806        ..      LDR      r0,[sp,#0x18]
        0x0001e922:    f0000001    ....    AND      r0,r0,#1
        0x0001e926:    f88d0007    ....    STRB     r0,[sp,#7]
        0x0001e92a:    e7ff        ..      B        0x1e92c ; find_mid_point + 168
        0x0001e92c:    2000        .       MOVS     r0,#0
        0x0001e92e:    9006        ..      STR      r0,[sp,#0x18]
        0x0001e930:    f88d0006    ....    STRB     r0,[sp,#6]
        0x0001e934:    e7ff        ..      B        0x1e936 ; find_mid_point + 178
        0x0001e936:    e7ff        ..      B        0x1e938 ; find_mid_point + 180
        0x0001e938:    9800        ..      LDR      r0,[sp,#0]
        0x0001e93a:    3001        .0      ADDS     r0,#1
        0x0001e93c:    9000        ..      STR      r0,[sp,#0]
        0x0001e93e:    e7b2        ..      B        0x1e8a6 ; find_mid_point + 34
        0x0001e940:    9804        ..      LDR      r0,[sp,#0x10]
        0x0001e942:    280f        .(      CMP      r0,#0xf
        0x0001e944:    d80c        ..      BHI      0x1e960 ; find_mid_point + 220
        0x0001e946:    e7ff        ..      B        0x1e948 ; find_mid_point + 196
        0x0001e948:    f89d0008    ....    LDRB     r0,[sp,#8]
        0x0001e94c:    0780        ..      LSLS     r0,r0,#30
        0x0001e94e:    2800        .(      CMP      r0,#0
        0x0001e950:    d506        ..      BPL      0x1e960 ; find_mid_point + 220
        0x0001e952:    e7ff        ..      B        0x1e954 ; find_mid_point + 208
        0x0001e954:    9804        ..      LDR      r0,[sp,#0x10]
        0x0001e956:    f89d1007    ....    LDRB     r1,[sp,#7]
        0x0001e95a:    1a40        @.      SUBS     r0,r0,r1
        0x0001e95c:    9004        ..      STR      r0,[sp,#0x10]
        0x0001e95e:    e00f        ..      B        0x1e980 ; find_mid_point + 252
        0x0001e960:    9804        ..      LDR      r0,[sp,#0x10]
        0x0001e962:    2810        .(      CMP      r0,#0x10
        0x0001e964:    d30a        ..      BCC      0x1e97c ; find_mid_point + 248
        0x0001e966:    e7ff        ..      B        0x1e968 ; find_mid_point + 228
        0x0001e968:    f89d000b    ....    LDRB     r0,[sp,#0xb]
        0x0001e96c:    0640        @.      LSLS     r0,r0,#25
        0x0001e96e:    2800        .(      CMP      r0,#0
        0x0001e970:    d504        ..      BPL      0x1e97c ; find_mid_point + 248
        0x0001e972:    e7ff        ..      B        0x1e974 ; find_mid_point + 240
        0x0001e974:    9804        ..      LDR      r0,[sp,#0x10]
        0x0001e976:    3001        .0      ADDS     r0,#1
        0x0001e978:    9004        ..      STR      r0,[sp,#0x10]
        0x0001e97a:    e000        ..      B        0x1e97e ; find_mid_point + 250
        0x0001e97c:    e7ff        ..      B        0x1e97e ; find_mid_point + 250
        0x0001e97e:    e7ff        ..      B        0x1e980 ; find_mid_point + 252
        0x0001e980:    9804        ..      LDR      r0,[sp,#0x10]
        0x0001e982:    b008        ..      ADD      sp,sp,#0x20
        0x0001e984:    4770        pG      BX       lr
        0x0001e986:    0000        ..      MOVS     r0,r0
    flash_check
        0x0001e988:    b580        ..      PUSH     {r7,lr}
        0x0001e98a:    b088        ..      SUB      sp,sp,#0x20
        0x0001e98c:    9006        ..      STR      r0,[sp,#0x18]
        0x0001e98e:    9105        ..      STR      r1,[sp,#0x14]
        0x0001e990:    9805        ..      LDR      r0,[sp,#0x14]
        0x0001e992:    9004        ..      STR      r0,[sp,#0x10]
        0x0001e994:    2000        .       MOVS     r0,#0
        0x0001e996:    9003        ..      STR      r0,[sp,#0xc]
        0x0001e998:    9002        ..      STR      r0,[sp,#8]
        0x0001e99a:    f8ad0006    ....    STRH     r0,[sp,#6]
        0x0001e99e:    9000        ..      STR      r0,[sp,#0]
        0x0001e9a0:    e7ff        ..      B        0x1e9a2 ; flash_check + 26
        0x0001e9a2:    9804        ..      LDR      r0,[sp,#0x10]
        0x0001e9a4:    2800        .(      CMP      r0,#0
        0x0001e9a6:    d054        T.      BEQ      0x1ea52 ; flash_check + 202
        0x0001e9a8:    e7ff        ..      B        0x1e9aa ; flash_check + 34
        0x0001e9aa:    9804        ..      LDR      r0,[sp,#0x10]
        0x0001e9ac:    f5b07f80    ....    CMP      r0,#0x100
        0x0001e9b0:    d908        ..      BLS      0x1e9c4 ; flash_check + 60
        0x0001e9b2:    e7ff        ..      B        0x1e9b4 ; flash_check + 44
        0x0001e9b4:    f44f7080    O..p    MOV      r0,#0x100
        0x0001e9b8:    9003        ..      STR      r0,[sp,#0xc]
        0x0001e9ba:    9804        ..      LDR      r0,[sp,#0x10]
        0x0001e9bc:    f5a07080    ...p    SUB      r0,r0,#0x100
        0x0001e9c0:    9004        ..      STR      r0,[sp,#0x10]
        0x0001e9c2:    e004        ..      B        0x1e9ce ; flash_check + 70
        0x0001e9c4:    9804        ..      LDR      r0,[sp,#0x10]
        0x0001e9c6:    9003        ..      STR      r0,[sp,#0xc]
        0x0001e9c8:    2000        .       MOVS     r0,#0
        0x0001e9ca:    9004        ..      STR      r0,[sp,#0x10]
        0x0001e9cc:    e7ff        ..      B        0x1e9ce ; flash_check + 70
        0x0001e9ce:    f8bd0006    ....    LDRH     r0,[sp,#6]
        0x0001e9d2:    f64c41cd    L..A    MOV      r1,#0xcccd
        0x0001e9d6:    f6cc41cc    ...A    MOVT     r1,#0xcccc
        0x0001e9da:    fba02101    ...!    UMULL    r2,r1,r0,r1
        0x0001e9de:    0889        ..      LSRS     r1,r1,#2
        0x0001e9e0:    eb010181    ....    ADD      r1,r1,r1,LSL #2
        0x0001e9e4:    1a40        @.      SUBS     r0,r0,r1
        0x0001e9e6:    9a03        ..      LDR      r2,[sp,#0xc]
        0x0001e9e8:    f2400140    @.@.    MOVW     r1,#0x40
        0x0001e9ec:    f2c10106    ....    MOVT     r1,#0x1006
        0x0001e9f0:    f001f8c4    ....    BL       prepare_test_pattern ; 0x1fb7c
        0x0001e9f4:    f8bd0006    ....    LDRH     r0,[sp,#6]
        0x0001e9f8:    3001        .0      ADDS     r0,#1
        0x0001e9fa:    f8ad0006    ....    STRH     r0,[sp,#6]
        0x0001e9fe:    9806        ..      LDR      r0,[sp,#0x18]
        0x0001ea00:    9902        ..      LDR      r1,[sp,#8]
        0x0001ea02:    f50102fc    ....    ADD      r2,r1,#0x7e0000
        0x0001ea06:    9b03        ..      LDR      r3,[sp,#0xc]
        0x0001ea08:    f2401140    @.@.    MOVW     r1,#0x140
        0x0001ea0c:    f2c10106    ....    MOVT     r1,#0x1006
        0x0001ea10:    f000fef6    ....    BL       mspi_is25wx064_dma_read ; 0x1f800
        0x0001ea14:    9000        ..      STR      r0,[sp,#0]
        0x0001ea16:    9800        ..      LDR      r0,[sp,#0]
        0x0001ea18:    2801        .(      CMP      r0,#1
        0x0001ea1a:    d104        ..      BNE      0x1ea26 ; flash_check + 158
        0x0001ea1c:    e7ff        ..      B        0x1ea1e ; flash_check + 150
        0x0001ea1e:    2001        .       MOVS     r0,#1
        0x0001ea20:    f88d001f    ....    STRB     r0,[sp,#0x1f]
        0x0001ea24:    e019        ..      B        0x1ea5a ; flash_check + 210
        0x0001ea26:    9a03        ..      LDR      r2,[sp,#0xc]
        0x0001ea28:    f2401040    @.@.    MOVW     r0,#0x140
        0x0001ea2c:    f2c10006    ....    MOVT     r0,#0x1006
        0x0001ea30:    f2400140    @.@.    MOVW     r1,#0x40
        0x0001ea34:    f2c10106    ....    MOVT     r1,#0x1006
        0x0001ea38:    f7f9fc86    ....    BL       memcmp ; 0x18348
        0x0001ea3c:    b120         .      CBZ      r0,0x1ea48 ; flash_check + 192
        0x0001ea3e:    e7ff        ..      B        0x1ea40 ; flash_check + 184
        0x0001ea40:    2001        .       MOVS     r0,#1
        0x0001ea42:    f88d001f    ....    STRB     r0,[sp,#0x1f]
        0x0001ea46:    e008        ..      B        0x1ea5a ; flash_check + 210
        0x0001ea48:    9903        ..      LDR      r1,[sp,#0xc]
        0x0001ea4a:    9802        ..      LDR      r0,[sp,#8]
        0x0001ea4c:    4408        .D      ADD      r0,r0,r1
        0x0001ea4e:    9002        ..      STR      r0,[sp,#8]
        0x0001ea50:    e7a7        ..      B        0x1e9a2 ; flash_check + 26
        0x0001ea52:    2000        .       MOVS     r0,#0
        0x0001ea54:    f88d001f    ....    STRB     r0,[sp,#0x1f]
        0x0001ea58:    e7ff        ..      B        0x1ea5a ; flash_check + 210
        0x0001ea5a:    f89d001f    ....    LDRB     r0,[sp,#0x1f]
        0x0001ea5e:    b008        ..      ADD      sp,sp,#0x20
        0x0001ea60:    bd80        ..      POP      {r7,pc}
        0x0001ea62:    0000        ..      MOVS     r0,r0
    flash_write
        0x0001ea64:    b580        ..      PUSH     {r7,lr}
        0x0001ea66:    b08a        ..      SUB      sp,sp,#0x28
        0x0001ea68:    9008        ..      STR      r0,[sp,#0x20]
        0x0001ea6a:    9107        ..      STR      r1,[sp,#0x1c]
        0x0001ea6c:    9807        ..      LDR      r0,[sp,#0x1c]
        0x0001ea6e:    9006        ..      STR      r0,[sp,#0x18]
        0x0001ea70:    2000        .       MOVS     r0,#0
        0x0001ea72:    9005        ..      STR      r0,[sp,#0x14]
        0x0001ea74:    9004        ..      STR      r0,[sp,#0x10]
        0x0001ea76:    f8ad000e    ....    STRH     r0,[sp,#0xe]
        0x0001ea7a:    9002        ..      STR      r0,[sp,#8]
        0x0001ea7c:    e7ff        ..      B        0x1ea7e ; flash_write + 26
        0x0001ea7e:    9806        ..      LDR      r0,[sp,#0x18]
        0x0001ea80:    2800        .(      CMP      r0,#0
        0x0001ea82:    d041        A.      BEQ      0x1eb08 ; flash_write + 164
        0x0001ea84:    e7ff        ..      B        0x1ea86 ; flash_write + 34
        0x0001ea86:    9806        ..      LDR      r0,[sp,#0x18]
        0x0001ea88:    f5b07f80    ....    CMP      r0,#0x100
        0x0001ea8c:    d908        ..      BLS      0x1eaa0 ; flash_write + 60
        0x0001ea8e:    e7ff        ..      B        0x1ea90 ; flash_write + 44
        0x0001ea90:    f44f7080    O..p    MOV      r0,#0x100
        0x0001ea94:    9005        ..      STR      r0,[sp,#0x14]
        0x0001ea96:    9806        ..      LDR      r0,[sp,#0x18]
        0x0001ea98:    f5a07080    ...p    SUB      r0,r0,#0x100
        0x0001ea9c:    9006        ..      STR      r0,[sp,#0x18]
        0x0001ea9e:    e004        ..      B        0x1eaaa ; flash_write + 70
        0x0001eaa0:    9806        ..      LDR      r0,[sp,#0x18]
        0x0001eaa2:    9005        ..      STR      r0,[sp,#0x14]
        0x0001eaa4:    2000        .       MOVS     r0,#0
        0x0001eaa6:    9006        ..      STR      r0,[sp,#0x18]
        0x0001eaa8:    e7ff        ..      B        0x1eaaa ; flash_write + 70
        0x0001eaaa:    f8bd000e    ....    LDRH     r0,[sp,#0xe]
        0x0001eaae:    f64c41cd    L..A    MOV      r1,#0xcccd
        0x0001eab2:    f6cc41cc    ...A    MOVT     r1,#0xcccc
        0x0001eab6:    fba02101    ...!    UMULL    r2,r1,r0,r1
        0x0001eaba:    0889        ..      LSRS     r1,r1,#2
        0x0001eabc:    eb010181    ....    ADD      r1,r1,r1,LSL #2
        0x0001eac0:    1a40        @.      SUBS     r0,r0,r1
        0x0001eac2:    9a05        ..      LDR      r2,[sp,#0x14]
        0x0001eac4:    f2400140    @.@.    MOVW     r1,#0x40
        0x0001eac8:    f2c10106    ....    MOVT     r1,#0x1006
        0x0001eacc:    9101        ..      STR      r1,[sp,#4]
        0x0001eace:    f001f855    ..U.    BL       prepare_test_pattern ; 0x1fb7c
        0x0001ead2:    9901        ..      LDR      r1,[sp,#4]
        0x0001ead4:    f8bd000e    ....    LDRH     r0,[sp,#0xe]
        0x0001ead8:    3001        .0      ADDS     r0,#1
        0x0001eada:    f8ad000e    ....    STRH     r0,[sp,#0xe]
        0x0001eade:    9808        ..      LDR      r0,[sp,#0x20]
        0x0001eae0:    9a04        ..      LDR      r2,[sp,#0x10]
        0x0001eae2:    f50202fc    ....    ADD      r2,r2,#0x7e0000
        0x0001eae6:    9b05        ..      LDR      r3,[sp,#0x14]
        0x0001eae8:    f000feea    ....    BL       mspi_is25wx064_dma_write ; 0x1f8c0
        0x0001eaec:    9002        ..      STR      r0,[sp,#8]
        0x0001eaee:    9802        ..      LDR      r0,[sp,#8]
        0x0001eaf0:    2801        .(      CMP      r0,#1
        0x0001eaf2:    d104        ..      BNE      0x1eafe ; flash_write + 154
        0x0001eaf4:    e7ff        ..      B        0x1eaf6 ; flash_write + 146
        0x0001eaf6:    2001        .       MOVS     r0,#1
        0x0001eaf8:    f88d0027    ..'.    STRB     r0,[sp,#0x27]
        0x0001eafc:    e008        ..      B        0x1eb10 ; flash_write + 172
        0x0001eafe:    9905        ..      LDR      r1,[sp,#0x14]
        0x0001eb00:    9804        ..      LDR      r0,[sp,#0x10]
        0x0001eb02:    4408        .D      ADD      r0,r0,r1
        0x0001eb04:    9004        ..      STR      r0,[sp,#0x10]
        0x0001eb06:    e7ba        ..      B        0x1ea7e ; flash_write + 26
        0x0001eb08:    2000        .       MOVS     r0,#0
        0x0001eb0a:    f88d0027    ..'.    STRB     r0,[sp,#0x27]
        0x0001eb0e:    e7ff        ..      B        0x1eb10 ; flash_write + 172
        0x0001eb10:    f89d0027    ..'.    LDRB     r0,[sp,#0x27]
        0x0001eb14:    b00a        ..      ADD      sp,sp,#0x28
        0x0001eb16:    bd80        ..      POP      {r7,pc}
    ftoa
        0x0001eb18:    b580        ..      PUSH     {r7,lr}
        0x0001eb1a:    b090        ..      SUB      sp,sp,#0x40
        0x0001eb1c:    ed8d0a0e    ....    VSTR     s0,[sp,#0x38]
        0x0001eb20:    900d        ..      STR      r0,[sp,#0x34]
        0x0001eb22:    910c        ..      STR      r1,[sp,#0x30]
        0x0001eb24:    980d        ..      LDR      r0,[sp,#0x34]
        0x0001eb26:    6800        .h      LDR      r0,[r0,#0]
        0x0001eb28:    9009        ..      STR      r0,[sp,#0x24]
        0x0001eb2a:    9809        ..      LDR      r0,[sp,#0x24]
        0x0001eb2c:    2803        .(      CMP      r0,#3
        0x0001eb2e:    dc04        ..      BGT      0x1eb3a ; ftoa + 34
        0x0001eb30:    e7ff        ..      B        0x1eb32 ; ftoa + 26
        0x0001eb32:    f06f0002    o...    MVN      r0,#2
        0x0001eb36:    900f        ..      STR      r0,[sp,#0x3c]
        0x0001eb38:    e103        ..      B        0x1ed42 ; ftoa + 554
        0x0001eb3a:    ed9d0a0e    ....    VLDR     s0,[sp,#0x38]
        0x0001eb3e:    eeb50a40    ..@.    VCMP.F32 s0,#0.0
        0x0001eb42:    eef1fa10    ....    VMRS     APSR_nzcv,FPSCR
        0x0001eb46:    d109        ..      BNE      0x1eb5c ; ftoa + 68
        0x0001eb48:    e7ff        ..      B        0x1eb4a ; ftoa + 50
        0x0001eb4a:    990d        ..      LDR      r1,[sp,#0x34]
        0x0001eb4c:    f6426030    B.0`    MOV      r0,#0x2e30
        0x0001eb50:    f2c00030    ..0.    MOVT     r0,#0x30
        0x0001eb54:    6008        .`      STR      r0,[r1,#0]
        0x0001eb56:    2003        .       MOVS     r0,#3
        0x0001eb58:    900f        ..      STR      r0,[sp,#0x3c]
        0x0001eb5a:    e0f2        ..      B        0x1ed42 ; ftoa + 554
        0x0001eb5c:    980d        ..      LDR      r0,[sp,#0x34]
        0x0001eb5e:    9005        ..      STR      r0,[sp,#0x14]
        0x0001eb60:    980e        ..      LDR      r0,[sp,#0x38]
        0x0001eb62:    900b        ..      STR      r0,[sp,#0x2c]
        0x0001eb64:    980b        ..      LDR      r0,[sp,#0x2c]
        0x0001eb66:    0dc1        ..      LSRS     r1,r0,#23
        0x0001eb68:    f06f007e    o.~.    MVN      r0,#0x7e
        0x0001eb6c:    fa50f081    P...    UXTAB    r0,r0,r1
        0x0001eb70:    900a        ..      STR      r0,[sp,#0x28]
        0x0001eb72:    980b        ..      LDR      r0,[sp,#0x2c]
        0x0001eb74:    f4400000    @...    ORR      r0,r0,#0x800000
        0x0001eb78:    f020407f     ..@    BIC      r0,r0,#0xff000000
        0x0001eb7c:    9008        ..      STR      r0,[sp,#0x20]
        0x0001eb7e:    2000        .       MOVS     r0,#0
        0x0001eb80:    9006        ..      STR      r0,[sp,#0x18]
        0x0001eb82:    9007        ..      STR      r0,[sp,#0x1c]
        0x0001eb84:    980a        ..      LDR      r0,[sp,#0x28]
        0x0001eb86:    281f        .(      CMP      r0,#0x1f
        0x0001eb88:    db04        ..      BLT      0x1eb94 ; ftoa + 124
        0x0001eb8a:    e7ff        ..      B        0x1eb8c ; ftoa + 116
        0x0001eb8c:    f06f0001    o...    MVN      r0,#1
        0x0001eb90:    900f        ..      STR      r0,[sp,#0x3c]
        0x0001eb92:    e0d6        ..      B        0x1ed42 ; ftoa + 554
        0x0001eb94:    980a        ..      LDR      r0,[sp,#0x28]
        0x0001eb96:    f1100f18    ....    CMN      r0,#0x18
        0x0001eb9a:    dc04        ..      BGT      0x1eba6 ; ftoa + 142
        0x0001eb9c:    e7ff        ..      B        0x1eb9e ; ftoa + 134
        0x0001eb9e:    f04f30ff    O..0    MOV      r0,#0xffffffff
        0x0001eba2:    900f        ..      STR      r0,[sp,#0x3c]
        0x0001eba4:    e0cd        ..      B        0x1ed42 ; ftoa + 554
        0x0001eba6:    980a        ..      LDR      r0,[sp,#0x28]
        0x0001eba8:    2817        .(      CMP      r0,#0x17
        0x0001ebaa:    db06        ..      BLT      0x1ebba ; ftoa + 162
        0x0001ebac:    e7ff        ..      B        0x1ebae ; ftoa + 150
        0x0001ebae:    9808        ..      LDR      r0,[sp,#0x20]
        0x0001ebb0:    990a        ..      LDR      r1,[sp,#0x28]
        0x0001ebb2:    3917        .9      SUBS     r1,r1,#0x17
        0x0001ebb4:    4088        .@      LSLS     r0,r0,r1
        0x0001ebb6:    9007        ..      STR      r0,[sp,#0x1c]
        0x0001ebb8:    e01a        ..      B        0x1ebf0 ; ftoa + 216
        0x0001ebba:    980a        ..      LDR      r0,[sp,#0x28]
        0x0001ebbc:    2800        .(      CMP      r0,#0
        0x0001ebbe:    d40e        ..      BMI      0x1ebde ; ftoa + 198
        0x0001ebc0:    e7ff        ..      B        0x1ebc2 ; ftoa + 170
        0x0001ebc2:    9808        ..      LDR      r0,[sp,#0x20]
        0x0001ebc4:    990a        ..      LDR      r1,[sp,#0x28]
        0x0001ebc6:    f1c10117    ....    RSB      r1,r1,#0x17
        0x0001ebca:    4108        .A      ASRS     r0,r0,r1
        0x0001ebcc:    9007        ..      STR      r0,[sp,#0x1c]
        0x0001ebce:    9808        ..      LDR      r0,[sp,#0x20]
        0x0001ebd0:    990a        ..      LDR      r1,[sp,#0x28]
        0x0001ebd2:    3101        .1      ADDS     r1,#1
        0x0001ebd4:    4088        .@      LSLS     r0,r0,r1
        0x0001ebd6:    f020407f     ..@    BIC      r0,r0,#0xff000000
        0x0001ebda:    9006        ..      STR      r0,[sp,#0x18]
        0x0001ebdc:    e007        ..      B        0x1ebee ; ftoa + 214
        0x0001ebde:    9808        ..      LDR      r0,[sp,#0x20]
        0x0001ebe0:    f020407f     ..@    BIC      r0,r0,#0xff000000
        0x0001ebe4:    990a        ..      LDR      r1,[sp,#0x28]
        0x0001ebe6:    43c9        .C      MVNS     r1,r1
        0x0001ebe8:    40c8        .@      LSRS     r0,r0,r1
        0x0001ebea:    9006        ..      STR      r0,[sp,#0x18]
        0x0001ebec:    e7ff        ..      B        0x1ebee ; ftoa + 214
        0x0001ebee:    e7ff        ..      B        0x1ebf0 ; ftoa + 216
        0x0001ebf0:    e7ff        ..      B        0x1ebf2 ; ftoa + 218
        0x0001ebf2:    e7ff        ..      B        0x1ebf4 ; ftoa + 220
        0x0001ebf4:    980b        ..      LDR      r0,[sp,#0x2c]
        0x0001ebf6:    f1b03fff    ...?    CMP      r0,#0xffffffff
        0x0001ebfa:    dc06        ..      BGT      0x1ec0a ; ftoa + 242
        0x0001ebfc:    e7ff        ..      B        0x1ebfe ; ftoa + 230
        0x0001ebfe:    990d        ..      LDR      r1,[sp,#0x34]
        0x0001ec00:    1c48        H.      ADDS     r0,r1,#1
        0x0001ec02:    900d        ..      STR      r0,[sp,#0x34]
        0x0001ec04:    202d        -       MOVS     r0,#0x2d
        0x0001ec06:    7008        .p      STRB     r0,[r1,#0]
        0x0001ec08:    e7ff        ..      B        0x1ec0a ; ftoa + 242
        0x0001ec0a:    9807        ..      LDR      r0,[sp,#0x1c]
        0x0001ec0c:    b930        0.      CBNZ     r0,0x1ec1c ; ftoa + 260
        0x0001ec0e:    e7ff        ..      B        0x1ec10 ; ftoa + 248
        0x0001ec10:    990d        ..      LDR      r1,[sp,#0x34]
        0x0001ec12:    1c48        H.      ADDS     r0,r1,#1
        0x0001ec14:    900d        ..      STR      r0,[sp,#0x34]
        0x0001ec16:    2030        0       MOVS     r0,#0x30
        0x0001ec18:    7008        .p      STRB     r0,[r1,#0]
        0x0001ec1a:    e01f        ..      B        0x1ec5c ; ftoa + 324
        0x0001ec1c:    9807        ..      LDR      r0,[sp,#0x1c]
        0x0001ec1e:    2801        .(      CMP      r0,#1
        0x0001ec20:    db06        ..      BLT      0x1ec30 ; ftoa + 280
        0x0001ec22:    e7ff        ..      B        0x1ec24 ; ftoa + 268
        0x0001ec24:    9807        ..      LDR      r0,[sp,#0x1c]
        0x0001ec26:    17c1        ..      ASRS     r1,r0,#31
        0x0001ec28:    9a0d        ..      LDR      r2,[sp,#0x34]
        0x0001ec2a:    f001f90d    ....    BL       uint64_to_str ; 0x1fe48
        0x0001ec2e:    e00b        ..      B        0x1ec48 ; ftoa + 304
        0x0001ec30:    990d        ..      LDR      r1,[sp,#0x34]
        0x0001ec32:    1c48        H.      ADDS     r0,r1,#1
        0x0001ec34:    900d        ..      STR      r0,[sp,#0x34]
        0x0001ec36:    202d        -       MOVS     r0,#0x2d
        0x0001ec38:    7008        .p      STRB     r0,[r1,#0]
        0x0001ec3a:    9807        ..      LDR      r0,[sp,#0x1c]
        0x0001ec3c:    4240        @B      RSBS     r0,r0,#0
        0x0001ec3e:    17c1        ..      ASRS     r1,r0,#31
        0x0001ec40:    9a0d        ..      LDR      r2,[sp,#0x34]
        0x0001ec42:    f001f901    ....    BL       uint64_to_str ; 0x1fe48
        0x0001ec46:    e7ff        ..      B        0x1ec48 ; ftoa + 304
        0x0001ec48:    e7ff        ..      B        0x1ec4a ; ftoa + 306
        0x0001ec4a:    980d        ..      LDR      r0,[sp,#0x34]
        0x0001ec4c:    7800        .x      LDRB     r0,[r0,#0]
        0x0001ec4e:    b120         .      CBZ      r0,0x1ec5a ; ftoa + 322
        0x0001ec50:    e7ff        ..      B        0x1ec52 ; ftoa + 314
        0x0001ec52:    980d        ..      LDR      r0,[sp,#0x34]
        0x0001ec54:    3001        .0      ADDS     r0,#1
        0x0001ec56:    900d        ..      STR      r0,[sp,#0x34]
        0x0001ec58:    e7f7        ..      B        0x1ec4a ; ftoa + 306
        0x0001ec5a:    e7ff        ..      B        0x1ec5c ; ftoa + 324
        0x0001ec5c:    990d        ..      LDR      r1,[sp,#0x34]
        0x0001ec5e:    1c48        H.      ADDS     r0,r1,#1
        0x0001ec60:    900d        ..      STR      r0,[sp,#0x34]
        0x0001ec62:    202e        .       MOVS     r0,#0x2e
        0x0001ec64:    7008        .p      STRB     r0,[r1,#0]
        0x0001ec66:    9806        ..      LDR      r0,[sp,#0x18]
        0x0001ec68:    b930        0.      CBNZ     r0,0x1ec78 ; ftoa + 352
        0x0001ec6a:    e7ff        ..      B        0x1ec6c ; ftoa + 340
        0x0001ec6c:    990d        ..      LDR      r1,[sp,#0x34]
        0x0001ec6e:    1c48        H.      ADDS     r0,r1,#1
        0x0001ec70:    900d        ..      STR      r0,[sp,#0x34]
        0x0001ec72:    2030        0       MOVS     r0,#0x30
        0x0001ec74:    7008        .p      STRB     r0,[r1,#0]
        0x0001ec76:    e05c        \.      B        0x1ed32 ; ftoa + 538
        0x0001ec78:    9909        ..      LDR      r1,[sp,#0x24]
        0x0001ec7a:    980d        ..      LDR      r0,[sp,#0x34]
        0x0001ec7c:    9a05        ..      LDR      r2,[sp,#0x14]
        0x0001ec7e:    1a80        ..      SUBS     r0,r0,r2
        0x0001ec80:    43c0        .C      MVNS     r0,r0
        0x0001ec82:    4408        .D      ADD      r0,r0,r1
        0x0001ec84:    9002        ..      STR      r0,[sp,#8]
        0x0001ec86:    9802        ..      LDR      r0,[sp,#8]
        0x0001ec88:    990c        ..      LDR      r1,[sp,#0x30]
        0x0001ec8a:    4288        .B      CMP      r0,r1
        0x0001ec8c:    dd03        ..      BLE      0x1ec96 ; ftoa + 382
        0x0001ec8e:    e7ff        ..      B        0x1ec90 ; ftoa + 376
        0x0001ec90:    980c        ..      LDR      r0,[sp,#0x30]
        0x0001ec92:    9001        ..      STR      r0,[sp,#4]
        0x0001ec94:    e002        ..      B        0x1ec9c ; ftoa + 388
        0x0001ec96:    9802        ..      LDR      r0,[sp,#8]
        0x0001ec98:    9001        ..      STR      r0,[sp,#4]
        0x0001ec9a:    e7ff        ..      B        0x1ec9c ; ftoa + 388
        0x0001ec9c:    9801        ..      LDR      r0,[sp,#4]
        0x0001ec9e:    9002        ..      STR      r0,[sp,#8]
        0x0001eca0:    2000        .       MOVS     r0,#0
        0x0001eca2:    9003        ..      STR      r0,[sp,#0xc]
        0x0001eca4:    e7ff        ..      B        0x1eca6 ; ftoa + 398
        0x0001eca6:    9803        ..      LDR      r0,[sp,#0xc]
        0x0001eca8:    9902        ..      LDR      r1,[sp,#8]
        0x0001ecaa:    4288        .B      CMP      r0,r1
        0x0001ecac:    da15        ..      BGE      0x1ecda ; ftoa + 450
        0x0001ecae:    e7ff        ..      B        0x1ecb0 ; ftoa + 408
        0x0001ecb0:    9806        ..      LDR      r0,[sp,#0x18]
        0x0001ecb2:    eb000080    ....    ADD      r0,r0,r0,LSL #2
        0x0001ecb6:    0040        @.      LSLS     r0,r0,#1
        0x0001ecb8:    9006        ..      STR      r0,[sp,#0x18]
        0x0001ecba:    f89d001b    ....    LDRB     r0,[sp,#0x1b]
        0x0001ecbe:    3030        00      ADDS     r0,r0,#0x30
        0x0001ecc0:    990d        ..      LDR      r1,[sp,#0x34]
        0x0001ecc2:    1c4a        J.      ADDS     r2,r1,#1
        0x0001ecc4:    920d        ..      STR      r2,[sp,#0x34]
        0x0001ecc6:    7008        .p      STRB     r0,[r1,#0]
        0x0001ecc8:    9806        ..      LDR      r0,[sp,#0x18]
        0x0001ecca:    f020407f     ..@    BIC      r0,r0,#0xff000000
        0x0001ecce:    9006        ..      STR      r0,[sp,#0x18]
        0x0001ecd0:    e7ff        ..      B        0x1ecd2 ; ftoa + 442
        0x0001ecd2:    9803        ..      LDR      r0,[sp,#0xc]
        0x0001ecd4:    3001        .0      ADDS     r0,#1
        0x0001ecd6:    9003        ..      STR      r0,[sp,#0xc]
        0x0001ecd8:    e7e5        ..      B        0x1eca6 ; ftoa + 398
        0x0001ecda:    9806        ..      LDR      r0,[sp,#0x18]
        0x0001ecdc:    eb000080    ....    ADD      r0,r0,r0,LSL #2
        0x0001ece0:    f34050c7    @..P    SBFX     r0,r0,#23,#8
        0x0001ece4:    2805        .(      CMP      r0,#5
        0x0001ece6:    db23        #.      BLT      0x1ed30 ; ftoa + 536
        0x0001ece8:    e7ff        ..      B        0x1ecea ; ftoa + 466
        0x0001ecea:    980d        ..      LDR      r0,[sp,#0x34]
        0x0001ecec:    3801        .8      SUBS     r0,#1
        0x0001ecee:    9004        ..      STR      r0,[sp,#0x10]
        0x0001ecf0:    e7ff        ..      B        0x1ecf2 ; ftoa + 474
        0x0001ecf2:    9804        ..      LDR      r0,[sp,#0x10]
        0x0001ecf4:    9905        ..      LDR      r1,[sp,#0x14]
        0x0001ecf6:    4288        .B      CMP      r0,r1
        0x0001ecf8:    d319        ..      BCC      0x1ed2e ; ftoa + 534
        0x0001ecfa:    e7ff        ..      B        0x1ecfc ; ftoa + 484
        0x0001ecfc:    9804        ..      LDR      r0,[sp,#0x10]
        0x0001ecfe:    7800        .x      LDRB     r0,[r0,#0]
        0x0001ed00:    282e        .(      CMP      r0,#0x2e
        0x0001ed02:    d101        ..      BNE      0x1ed08 ; ftoa + 496
        0x0001ed04:    e7ff        ..      B        0x1ed06 ; ftoa + 494
        0x0001ed06:    e00e        ..      B        0x1ed26 ; ftoa + 526
        0x0001ed08:    9804        ..      LDR      r0,[sp,#0x10]
        0x0001ed0a:    7800        .x      LDRB     r0,[r0,#0]
        0x0001ed0c:    2839        9(      CMP      r0,#0x39
        0x0001ed0e:    d104        ..      BNE      0x1ed1a ; ftoa + 514
        0x0001ed10:    e7ff        ..      B        0x1ed12 ; ftoa + 506
        0x0001ed12:    9904        ..      LDR      r1,[sp,#0x10]
        0x0001ed14:    2030        0       MOVS     r0,#0x30
        0x0001ed16:    7008        .p      STRB     r0,[r1,#0]
        0x0001ed18:    e004        ..      B        0x1ed24 ; ftoa + 524
        0x0001ed1a:    9904        ..      LDR      r1,[sp,#0x10]
        0x0001ed1c:    7808        .x      LDRB     r0,[r1,#0]
        0x0001ed1e:    3001        .0      ADDS     r0,#1
        0x0001ed20:    7008        .p      STRB     r0,[r1,#0]
        0x0001ed22:    e004        ..      B        0x1ed2e ; ftoa + 534
        0x0001ed24:    e7ff        ..      B        0x1ed26 ; ftoa + 526
        0x0001ed26:    9804        ..      LDR      r0,[sp,#0x10]
        0x0001ed28:    3801        .8      SUBS     r0,#1
        0x0001ed2a:    9004        ..      STR      r0,[sp,#0x10]
        0x0001ed2c:    e7e1        ..      B        0x1ecf2 ; ftoa + 474
        0x0001ed2e:    e7ff        ..      B        0x1ed30 ; ftoa + 536
        0x0001ed30:    e7ff        ..      B        0x1ed32 ; ftoa + 538
        0x0001ed32:    990d        ..      LDR      r1,[sp,#0x34]
        0x0001ed34:    2000        .       MOVS     r0,#0
        0x0001ed36:    7008        .p      STRB     r0,[r1,#0]
        0x0001ed38:    980d        ..      LDR      r0,[sp,#0x34]
        0x0001ed3a:    9905        ..      LDR      r1,[sp,#0x14]
        0x0001ed3c:    1a40        @.      SUBS     r0,r0,r1
        0x0001ed3e:    900f        ..      STR      r0,[sp,#0x3c]
        0x0001ed40:    e7ff        ..      B        0x1ed42 ; ftoa + 554
        0x0001ed42:    980f        ..      LDR      r0,[sp,#0x3c]
        0x0001ed44:    b010        ..      ADD      sp,sp,#0x40
        0x0001ed46:    bd80        ..      POP      {r7,pc}
    getStackedReg
        0x0001ed48:    0080        ..      LSLS     r0,r0,#2
        0x0001ed4a:    1840        @.      ADDS     r0,r0,r1
        0x0001ed4c:    6800        .h      LDR      r0,[r0,#0]
        0x0001ed4e:    4770        pG      BX       lr
    is25wx064_busy_wait_until
        0x0001ed50:    b580        ..      PUSH     {r7,lr}
        0x0001ed52:    b088        ..      SUB      sp,sp,#0x20
        0x0001ed54:    9006        ..      STR      r0,[sp,#0x18]
        0x0001ed56:    9105        ..      STR      r1,[sp,#0x14]
        0x0001ed58:    2000        .       MOVS     r0,#0
        0x0001ed5a:    9004        ..      STR      r0,[sp,#0x10]
        0x0001ed5c:    a904        ..      ADD      r1,sp,#0x10
        0x0001ed5e:    9103        ..      STR      r1,[sp,#0xc]
        0x0001ed60:    9002        ..      STR      r0,[sp,#8]
        0x0001ed62:    e7ff        ..      B        0x1ed64 ; is25wx064_busy_wait_until + 20
        0x0001ed64:    9802        ..      LDR      r0,[sp,#8]
        0x0001ed66:    9905        ..      LDR      r1,[sp,#0x14]
        0x0001ed68:    4288        .B      CMP      r0,r1
        0x0001ed6a:    d21d        ..      BCS      0x1eda8 ; is25wx064_busy_wait_until + 88
        0x0001ed6c:    e7ff        ..      B        0x1ed6e ; is25wx064_busy_wait_until + 30
        0x0001ed6e:    9806        ..      LDR      r0,[sp,#0x18]
        0x0001ed70:    9903        ..      LDR      r1,[sp,#0xc]
        0x0001ed72:    466a        jF      MOV      r2,sp
        0x0001ed74:    2301        .#      MOVS     r3,#1
        0x0001ed76:    6053        S`      STR      r3,[r2,#4]
        0x0001ed78:    6011        .`      STR      r1,[r2,#0]
        0x0001ed7a:    f2405105    @..Q    MOV      r1,#0x505
        0x0001ed7e:    2300        .#      MOVS     r3,#0
        0x0001ed80:    461a        .F      MOV      r2,r3
        0x0001ed82:    f7fff8cf    ....    BL       command_read_combo ; 0x1df24
        0x0001ed86:    9803        ..      LDR      r0,[sp,#0xc]
        0x0001ed88:    7800        .x      LDRB     r0,[r0,#0]
        0x0001ed8a:    07c0        ..      LSLS     r0,r0,#31
        0x0001ed8c:    b138        8.      CBZ      r0,0x1ed9e ; is25wx064_busy_wait_until + 78
        0x0001ed8e:    e7ff        ..      B        0x1ed90 ; is25wx064_busy_wait_until + 64
        0x0001ed90:    2001        .       MOVS     r0,#1
        0x0001ed92:    f7fefab9    ....    BL       am_util_delay_ms ; 0x1d308
        0x0001ed96:    9802        ..      LDR      r0,[sp,#8]
        0x0001ed98:    3001        .0      ADDS     r0,#1
        0x0001ed9a:    9002        ..      STR      r0,[sp,#8]
        0x0001ed9c:    e003        ..      B        0x1eda6 ; is25wx064_busy_wait_until + 86
        0x0001ed9e:    2003        .       MOVS     r0,#3
        0x0001eda0:    f88d001f    ....    STRB     r0,[sp,#0x1f]
        0x0001eda4:    e004        ..      B        0x1edb0 ; is25wx064_busy_wait_until + 96
        0x0001eda6:    e7dd        ..      B        0x1ed64 ; is25wx064_busy_wait_until + 20
        0x0001eda8:    2002        .       MOVS     r0,#2
        0x0001edaa:    f88d001f    ....    STRB     r0,[sp,#0x1f]
        0x0001edae:    e7ff        ..      B        0x1edb0 ; is25wx064_busy_wait_until + 96
        0x0001edb0:    f89d001f    ....    LDRB     r0,[sp,#0x1f]
        0x0001edb4:    b008        ..      ADD      sp,sp,#0x20
        0x0001edb6:    bd80        ..      POP      {r7,pc}
    is25wx064_power_reset
        0x0001edb8:    b580        ..      PUSH     {r7,lr}
        0x0001edba:    b082        ..      SUB      sp,sp,#8
        0x0001edbc:    f2400098    @...    MOVW     r0,#0x98
        0x0001edc0:    f2c00002    ....    MOVT     r0,#2
        0x0001edc4:    6801        .h      LDR      r1,[r0,#0]
        0x0001edc6:    2066        f       MOVS     r0,#0x66
        0x0001edc8:    f7fcf892    ....    BL       am_hal_gpio_pinconfig ; 0x1aef0
        0x0001edcc:    f2402140    @.@!    MOVW     r1,#0x240
        0x0001edd0:    f2c40101    ....    MOVT     r1,#0x4001
        0x0001edd4:    2040        @       MOVS     r0,#0x40
        0x0001edd6:    9001        ..      STR      r0,[sp,#4]
        0x0001edd8:    6008        .`      STR      r0,[r1,#0]
        0x0001edda:    200a        .       MOVS     r0,#0xa
        0x0001eddc:    f7fefa94    ....    BL       am_util_delay_ms ; 0x1d308
        0x0001ede0:    9801        ..      LDR      r0,[sp,#4]
        0x0001ede2:    f2402130    @.0!    MOVW     r1,#0x230
        0x0001ede6:    f2c40101    ....    MOVT     r1,#0x4001
        0x0001edea:    6008        .`      STR      r0,[r1,#0]
        0x0001edec:    b002        ..      ADD      sp,sp,#8
        0x0001edee:    bd80        ..      POP      {r7,pc}
    is25wx064_pre_config
        0x0001edf0:    b580        ..      PUSH     {r7,lr}
        0x0001edf2:    b08a        ..      SUB      sp,sp,#0x28
        0x0001edf4:    9009        ..      STR      r0,[sp,#0x24]
        0x0001edf6:    9108        ..      STR      r1,[sp,#0x20]
        0x0001edf8:    9809        ..      LDR      r0,[sp,#0x24]
        0x0001edfa:    4669        iF      MOV      r1,sp
        0x0001edfc:    2300        .#      MOVS     r3,#0
        0x0001edfe:    9304        ..      STR      r3,[sp,#0x10]
        0x0001ee00:    604b        K`      STR      r3,[r1,#4]
        0x0001ee02:    600b        .`      STR      r3,[r1,#0]
        0x0001ee04:    2106        .!      MOVS     r1,#6
        0x0001ee06:    9106        ..      STR      r1,[sp,#0x18]
        0x0001ee08:    461a        .F      MOV      r2,r3
        0x0001ee0a:    f7fffb07    ....    BL       command_write_serial ; 0x1e41c
        0x0001ee0e:    9809        ..      LDR      r0,[sp,#0x24]
        0x0001ee10:    f44f717a    O.zq    MOV      r1,#0x3e8
        0x0001ee14:    9105        ..      STR      r1,[sp,#0x14]
        0x0001ee16:    f7ffff9b    ....    BL       is25wx064_busy_wait_until ; 0x1ed50
        0x0001ee1a:    9b04        ..      LDR      r3,[sp,#0x10]
        0x0001ee1c:    9809        ..      LDR      r0,[sp,#0x24]
        0x0001ee1e:    4669        iF      MOV      r1,sp
        0x0001ee20:    604b        K`      STR      r3,[r1,#4]
        0x0001ee22:    600b        .`      STR      r3,[r1,#0]
        0x0001ee24:    21b7        .!      MOVS     r1,#0xb7
        0x0001ee26:    461a        .F      MOV      r2,r3
        0x0001ee28:    f7fffaf8    ....    BL       command_write_serial ; 0x1e41c
        0x0001ee2c:    9905        ..      LDR      r1,[sp,#0x14]
        0x0001ee2e:    9809        ..      LDR      r0,[sp,#0x24]
        0x0001ee30:    f7ffff8e    ....    BL       is25wx064_busy_wait_until ; 0x1ed50
        0x0001ee34:    9b06        ..      LDR      r3,[sp,#0x18]
        0x0001ee36:    9809        ..      LDR      r0,[sp,#0x24]
        0x0001ee38:    46ec        .F      MOV      r12,sp
        0x0001ee3a:    2201        ."      MOVS     r2,#1
        0x0001ee3c:    f8cc2004    ...     STR      r2,[r12,#4]
        0x0001ee40:    f10d011e    ....    ADD      r1,sp,#0x1e
        0x0001ee44:    f8cc1000    ....    STR      r1,[r12,#0]
        0x0001ee48:    21b5        .!      MOVS     r1,#0xb5
        0x0001ee4a:    f7fff95b    ..[.    BL       command_read_serial ; 0x1e104
        0x0001ee4e:    f89d101e    ....    LDRB     r1,[sp,#0x1e]
        0x0001ee52:    f640609f    @..`    MOV      r0,#0xe9f
        0x0001ee56:    f2c00002    ....    MOVT     r0,#2
        0x0001ee5a:    f7fefbfd    ....    BL       am_util_stdio_printf ; 0x1d658
        0x0001ee5e:    f89d001e    ....    LDRB     r0,[sp,#0x1e]
        0x0001ee62:    28fe        .(      CMP      r0,#0xfe
        0x0001ee64:    d015        ..      BEQ      0x1ee92 ; is25wx064_pre_config + 162
        0x0001ee66:    e7ff        ..      B        0x1ee68 ; is25wx064_pre_config + 120
        0x0001ee68:    20fe        .       MOVS     r0,#0xfe
        0x0001ee6a:    f88d001f    ....    STRB     r0,[sp,#0x1f]
        0x0001ee6e:    9809        ..      LDR      r0,[sp,#0x24]
        0x0001ee70:    466b        kF      MOV      r3,sp
        0x0001ee72:    2201        ."      MOVS     r2,#1
        0x0001ee74:    9203        ..      STR      r2,[sp,#0xc]
        0x0001ee76:    605a        Z`      STR      r2,[r3,#4]
        0x0001ee78:    f10d011f    ....    ADD      r1,sp,#0x1f
        0x0001ee7c:    6019        .`      STR      r1,[r3,#0]
        0x0001ee7e:    21b1        .!      MOVS     r1,#0xb1
        0x0001ee80:    2306        .#      MOVS     r3,#6
        0x0001ee82:    f7fffacb    ....    BL       command_write_serial ; 0x1e41c
        0x0001ee86:    9803        ..      LDR      r0,[sp,#0xc]
        0x0001ee88:    f7fefa3e    ..>.    BL       am_util_delay_ms ; 0x1d308
        0x0001ee8c:    f7ffff94    ....    BL       is25wx064_power_reset ; 0x1edb8
        0x0001ee90:    e7ff        ..      B        0x1ee92 ; is25wx064_pre_config + 162
        0x0001ee92:    9808        ..      LDR      r0,[sp,#0x20]
        0x0001ee94:    7a00        .z      LDRB     r0,[r0,#8]
        0x0001ee96:    2808        .(      CMP      r0,#8
        0x0001ee98:    d005        ..      BEQ      0x1eea6 ; is25wx064_pre_config + 182
        0x0001ee9a:    e7ff        ..      B        0x1ee9c ; is25wx064_pre_config + 172
        0x0001ee9c:    9808        ..      LDR      r0,[sp,#0x20]
        0x0001ee9e:    7a00        .z      LDRB     r0,[r0,#8]
        0x0001eea0:    2809        .(      CMP      r0,#9
        0x0001eea2:    d11f        ..      BNE      0x1eee4 ; is25wx064_pre_config + 244
        0x0001eea4:    e7ff        ..      B        0x1eea6 ; is25wx064_pre_config + 182
        0x0001eea6:    20e7        .       MOVS     r0,#0xe7
        0x0001eea8:    f88d001f    ....    STRB     r0,[sp,#0x1f]
        0x0001eeac:    9809        ..      LDR      r0,[sp,#0x24]
        0x0001eeae:    466b        kF      MOV      r3,sp
        0x0001eeb0:    2201        ."      MOVS     r2,#1
        0x0001eeb2:    605a        Z`      STR      r2,[r3,#4]
        0x0001eeb4:    f10d011f    ....    ADD      r1,sp,#0x1f
        0x0001eeb8:    6019        .`      STR      r1,[r3,#0]
        0x0001eeba:    2181        .!      MOVS     r1,#0x81
        0x0001eebc:    2300        .#      MOVS     r3,#0
        0x0001eebe:    9302        ..      STR      r3,[sp,#8]
        0x0001eec0:    f7fffaac    ....    BL       command_write_serial ; 0x1e41c
        0x0001eec4:    9809        ..      LDR      r0,[sp,#0x24]
        0x0001eec6:    f44f717a    O.zq    MOV      r1,#0x3e8
        0x0001eeca:    f7ffff41    ..A.    BL       is25wx064_busy_wait_until ; 0x1ed50
        0x0001eece:    9b02        ..      LDR      r3,[sp,#8]
        0x0001eed0:    9809        ..      LDR      r0,[sp,#0x24]
        0x0001eed2:    4669        iF      MOV      r1,sp
        0x0001eed4:    604b        K`      STR      r3,[r1,#4]
        0x0001eed6:    600b        .`      STR      r3,[r1,#0]
        0x0001eed8:    f2404104    @..A    MOV      r1,#0x404
        0x0001eedc:    461a        .F      MOV      r2,r3
        0x0001eede:    f7fffa15    ....    BL       command_write_octal ; 0x1e30c
        0x0001eee2:    e009        ..      B        0x1eef8 ; is25wx064_pre_config + 264
        0x0001eee4:    9809        ..      LDR      r0,[sp,#0x24]
        0x0001eee6:    4669        iF      MOV      r1,sp
        0x0001eee8:    2300        .#      MOVS     r3,#0
        0x0001eeea:    604b        K`      STR      r3,[r1,#4]
        0x0001eeec:    600b        .`      STR      r3,[r1,#0]
        0x0001eeee:    2104        .!      MOVS     r1,#4
        0x0001eef0:    461a        .F      MOV      r2,r3
        0x0001eef2:    f7fffa93    ....    BL       command_write_serial ; 0x1e41c
        0x0001eef6:    e7ff        ..      B        0x1eef8 ; is25wx064_pre_config + 264
        0x0001eef8:    2000        .       MOVS     r0,#0
        0x0001eefa:    b00a        ..      ADD      sp,sp,#0x28
        0x0001eefc:    bd80        ..      POP      {r7,pc}
        0x0001eefe:    0000        ..      MOVS     r0,r0
    main
        0x0001ef00:    b510        ..      PUSH     {r4,lr}
        0x0001ef02:    b092        ..      SUB      sp,sp,#0x48
        0x0001ef04:    2000        .       MOVS     r0,#0
        0x0001ef06:    9011        ..      STR      r0,[sp,#0x44]
        0x0001ef08:    f64f7009    O..p    MOV      r0,#0xff09
        0x0001ef0c:    f2c00001    ....    MOVT     r0,#1
        0x0001ef10:    f0200001     ...    BIC      r0,r0,#1
        0x0001ef14:    900f        ..      STR      r0,[sp,#0x3c]
        0x0001ef16:    2064        d       MOVS     r0,#0x64
        0x0001ef18:    f7fef9f6    ....    BL       am_util_delay_ms ; 0x1d308
        0x0001ef1c:    2001        .       MOVS     r0,#1
        0x0001ef1e:    f6c10000    ....    MOVT     r0,#0x1800
        0x0001ef22:    900e        ..      STR      r0,[sp,#0x38]
        0x0001ef24:    f7f9fbef    ....    BL       am_bsp_low_power_init ; 0x18706
        0x0001ef28:    f7f9fbaf    ....    BL       am_bsp_itm_printf_enable ; 0x1868a
        0x0001ef2c:    f7fefbcc    ....    BL       am_util_stdio_terminal_clear ; 0x1d6c8
        0x0001ef30:    f24040cc    @..@    MOV      r0,#0x4cc
        0x0001ef34:    f2c00002    ....    MOVT     r0,#2
        0x0001ef38:    f7fefb8e    ....    BL       am_util_stdio_printf ; 0x1d658
        0x0001ef3c:    f2405013    @..P    MOV      r0,#0x513
        0x0001ef40:    f2c00002    ....    MOVT     r0,#2
        0x0001ef44:    f7fefb88    ....    BL       am_util_stdio_printf ; 0x1d658
        0x0001ef48:    f240605c    @.\`    MOV      r0,#0x65c
        0x0001ef4c:    f2c10000    ....    MOVT     r0,#0x1000
        0x0001ef50:    6d83        .m      LDR      r3,[r0,#0x58]
        0x0001ef52:    f240017c    @.|.    MOVW     r1,#0x7c
        0x0001ef56:    f2c00102    ....    MOVT     r1,#2
        0x0001ef5a:    f2447238    D.8r    MOV      r2,#0x4738
        0x0001ef5e:    f2c10200    ....    MOVT     r2,#0x1000
        0x0001ef62:    2001        .       MOVS     r0,#1
        0x0001ef64:    4798        .G      BLX      r3
        0x0001ef66:    bbd8        ..      CBNZ     r0,0x1efe0 ; main + 224
        0x0001ef68:    e7ff        ..      B        0x1ef6a ; main + 106
        0x0001ef6a:    f2447038    D.8p    MOV      r0,#0x4738
        0x0001ef6e:    f2c10000    ....    MOVT     r0,#0x1000
        0x0001ef72:    900b        ..      STR      r0,[sp,#0x2c]
        0x0001ef74:    7800        .x      LDRB     r0,[r0,#0]
        0x0001ef76:    f0000101    ....    AND      r1,r0,#1
        0x0001ef7a:    f2405069    @.iP    MOV      r0,#0x569
        0x0001ef7e:    f2c00002    ....    MOVT     r0,#2
        0x0001ef82:    f7fefb69    ..i.    BL       am_util_stdio_printf ; 0x1d658
        0x0001ef86:    980b        ..      LDR      r0,[sp,#0x2c]
        0x0001ef88:    7840        @x      LDRB     r0,[r0,#1]
        0x0001ef8a:    f0000101    ....    AND      r1,r0,#1
        0x0001ef8e:    f240504f    @.OP    MOV      r0,#0x54f
        0x0001ef92:    f2c00002    ....    MOVT     r0,#2
        0x0001ef96:    f7fefb5f    .._.    BL       am_util_stdio_printf ; 0x1d658
        0x0001ef9a:    980b        ..      LDR      r0,[sp,#0x2c]
        0x0001ef9c:    7880        .x      LDRB     r0,[r0,#2]
        0x0001ef9e:    f0000101    ....    AND      r1,r0,#1
        0x0001efa2:    f2405083    @..P    MOV      r0,#0x583
        0x0001efa6:    f2c00002    ....    MOVT     r0,#2
        0x0001efaa:    f7fefb55    ..U.    BL       am_util_stdio_printf ; 0x1d658
        0x0001efae:    980b        ..      LDR      r0,[sp,#0x2c]
        0x0001efb0:    7941        Ay      LDRB     r1,[r0,#5]
        0x0001efb2:    f2405030    @.0P    MOVW     r0,#0x530
        0x0001efb6:    f2c00002    ....    MOVT     r0,#2
        0x0001efba:    f7fefb4d    ..M.    BL       am_util_stdio_printf ; 0x1d658
        0x0001efbe:    980b        ..      LDR      r0,[sp,#0x2c]
        0x0001efc0:    78c1        .x      LDRB     r1,[r0,#3]
        0x0001efc2:    f24050bc    @..P    MOV      r0,#0x5bc
        0x0001efc6:    f2c00002    ....    MOVT     r0,#2
        0x0001efca:    f7fefb45    ..E.    BL       am_util_stdio_printf ; 0x1d658
        0x0001efce:    980b        ..      LDR      r0,[sp,#0x2c]
        0x0001efd0:    7901        .y      LDRB     r1,[r0,#4]
        0x0001efd2:    f240509d    @..P    MOV      r0,#0x59d
        0x0001efd6:    f2c00002    ....    MOVT     r0,#2
        0x0001efda:    f7fefb3d    ..=.    BL       am_util_stdio_printf ; 0x1d658
        0x0001efde:    e009        ..      B        0x1eff4 ; main + 244
        0x0001efe0:    f24040e9    @..@    MOV      r0,#0x4e9
        0x0001efe4:    f2c00002    ....    MOVT     r0,#2
        0x0001efe8:    f7fefb36    ..6.    BL       am_util_stdio_printf ; 0x1d658
        0x0001efec:    f04f30ff    O..0    MOV      r0,#0xffffffff
        0x0001eff0:    b012        ..      ADD      sp,sp,#0x48
        0x0001eff2:    bd10        ..      POP      {r4,pc}
        0x0001eff4:    f240605c    @.\`    MOV      r0,#0x65c
        0x0001eff8:    f2c10000    ....    MOVT     r0,#0x1000
        0x0001effc:    f8d0c020    .. .    LDR      r12,[r0,#0x20]
        0x0001f000:    f240017c    @.|.    MOVW     r1,#0x7c
        0x0001f004:    f2c00102    ....    MOVT     r1,#2
        0x0001f008:    f6443270    D.p2    MOV      r2,#0x4b70
        0x0001f00c:    f2c10200    ....    MOVT     r2,#0x1000
        0x0001f010:    f6443374    D.t3    MOV      r3,#0x4b74
        0x0001f014:    f2c10300    ....    MOVT     r3,#0x1000
        0x0001f018:    2001        .       MOVS     r0,#1
        0x0001f01a:    47e0        .G      BLX      r12
        0x0001f01c:    9010        ..      STR      r0,[sp,#0x40]
        0x0001f01e:    9810        ..      LDR      r0,[sp,#0x40]
        0x0001f020:    b138        8.      CBZ      r0,0x1f032 ; main + 306
        0x0001f022:    e7ff        ..      B        0x1f024 ; main + 292
        0x0001f024:    f64040e9    @..@    MOV      r0,#0xce9
        0x0001f028:    f2c00002    ....    MOVT     r0,#2
        0x0001f02c:    f7fefb14    ....    BL       am_util_stdio_printf ; 0x1d658
        0x0001f030:    e7ff        ..      B        0x1f032 ; main + 306
        0x0001f032:    f24040a8    @..@    MOVW     r0,#0x4a8
        0x0001f036:    f2c00002    ....    MOVT     r0,#2
        0x0001f03a:    900a        ..      STR      r0,[sp,#0x28]
        0x0001f03c:    f9900001    ....    LDRSB    r0,[r0,#1]
        0x0001f040:    2104        .!      MOVS     r1,#4
        0x0001f042:    f7f9fb01    ....    BL       __NVIC_SetPriority ; 0x18648
        0x0001f046:    980a        ..      LDR      r0,[sp,#0x28]
        0x0001f048:    f9900001    ....    LDRSB    r0,[r0,#1]
        0x0001f04c:    f7f9fae4    ....    BL       __NVIC_EnableIRQ ; 0x18618
        0x0001f050:    f7fbfff4    ....    BL       am_hal_interrupt_master_enable ; 0x1b03c
        0x0001f054:    f240605c    @.\`    MOV      r0,#0x65c
        0x0001f058:    f2c10000    ....    MOVT     r0,#0x1000
        0x0001f05c:    6dc2        .m      LDR      r2,[r0,#0x5c]
        0x0001f05e:    f6443070    D.p0    MOV      r0,#0x4b70
        0x0001f062:    f2c10000    ....    MOVT     r0,#0x1000
        0x0001f066:    6800        .h      LDR      r0,[r0,#0]
        0x0001f068:    f2447138    D.8q    MOV      r1,#0x4738
        0x0001f06c:    f2c10100    ....    MOVT     r1,#0x1000
        0x0001f070:    4790        .G      BLX      r2
        0x0001f072:    2000        .       MOVS     r0,#0
        0x0001f074:    900d        ..      STR      r0,[sp,#0x34]
        0x0001f076:    e7ff        ..      B        0x1f078 ; main + 376
        0x0001f078:    990d        ..      LDR      r1,[sp,#0x34]
        0x0001f07a:    2000        .       MOVS     r0,#0
        0x0001f07c:    ebb03f11    ...?    CMP      r0,r1,LSR #12
        0x0001f080:    d10b        ..      BNE      0x1f09a ; main + 410
        0x0001f082:    e7ff        ..      B        0x1f084 ; main + 388
        0x0001f084:    980d        ..      LDR      r0,[sp,#0x34]
        0x0001f086:    f24751c4    G..Q    MOV      r1,#0x75c4
        0x0001f08a:    f2c10100    ....    MOVT     r1,#0x1000
        0x0001f08e:    5408        .T      STRB     r0,[r1,r0]
        0x0001f090:    e7ff        ..      B        0x1f092 ; main + 402
        0x0001f092:    980d        ..      LDR      r0,[sp,#0x34]
        0x0001f094:    3001        .0      ADDS     r0,#1
        0x0001f096:    900d        ..      STR      r0,[sp,#0x34]
        0x0001f098:    e7ee        ..      B        0x1f078 ; main + 376
        0x0001f09a:    f2407050    @.Pp    MOVW     r0,#0x750
        0x0001f09e:    f2c00002    ....    MOVT     r0,#2
        0x0001f0a2:    2100        .!      MOVS     r1,#0
        0x0001f0a4:    9109        ..      STR      r1,[sp,#0x24]
        0x0001f0a6:    f7fefad7    ....    BL       am_util_stdio_printf ; 0x1d658
        0x0001f0aa:    9909        ..      LDR      r1,[sp,#0x24]
        0x0001f0ac:    f240605c    @.\`    MOV      r0,#0x65c
        0x0001f0b0:    f2c10000    ....    MOVT     r0,#0x1000
        0x0001f0b4:    6c42        Bl      LDR      r2,[r0,#0x44]
        0x0001f0b6:    f6443070    D.p0    MOV      r0,#0x4b70
        0x0001f0ba:    f2c10000    ....    MOVT     r0,#0x1000
        0x0001f0be:    6800        .h      LDR      r0,[r0,#0]
        0x0001f0c0:    4790        .G      BLX      r2
        0x0001f0c2:    9010        ..      STR      r0,[sp,#0x40]
        0x0001f0c4:    9810        ..      LDR      r0,[sp,#0x40]
        0x0001f0c6:    b138        8.      CBZ      r0,0x1f0d8 ; main + 472
        0x0001f0c8:    e7ff        ..      B        0x1f0ca ; main + 458
        0x0001f0ca:    f240702a    @.*p    MOV      r0,#0x72a
        0x0001f0ce:    f2c00002    ....    MOVT     r0,#2
        0x0001f0d2:    f7fefac1    ....    BL       am_util_stdio_printf ; 0x1d658
        0x0001f0d6:    e7ff        ..      B        0x1f0d8 ; main + 472
        0x0001f0d8:    f240605c    @.\`    MOV      r0,#0x65c
        0x0001f0dc:    f2c10000    ....    MOVT     r0,#0x1000
        0x0001f0e0:    6cc1        .l      LDR      r1,[r0,#0x4c]
        0x0001f0e2:    f6443070    D.p0    MOV      r0,#0x4b70
        0x0001f0e6:    f2c10000    ....    MOVT     r0,#0x1000
        0x0001f0ea:    6800        .h      LDR      r0,[r0,#0]
        0x0001f0ec:    4788        .G      BLX      r1
        0x0001f0ee:    9010        ..      STR      r0,[sp,#0x40]
        0x0001f0f0:    9810        ..      LDR      r0,[sp,#0x40]
        0x0001f0f2:    b138        8.      CBZ      r0,0x1f104 ; main + 516
        0x0001f0f4:    e7ff        ..      B        0x1f0f6 ; main + 502
        0x0001f0f6:    f24050db    @..P    MOV      r0,#0x5db
        0x0001f0fa:    f2c00002    ....    MOVT     r0,#2
        0x0001f0fe:    f7fefaab    ....    BL       am_util_stdio_printf ; 0x1d658
        0x0001f102:    e7ff        ..      B        0x1f104 ; main + 516
        0x0001f104:    f24070b7    @..p    MOV      r0,#0x7b7
        0x0001f108:    f2c00002    ....    MOVT     r0,#2
        0x0001f10c:    f44f5180    O..Q    MOV      r1,#0x1000
        0x0001f110:    9108        ..      STR      r1,[sp,#0x20]
        0x0001f112:    2200        ."      MOVS     r2,#0
        0x0001f114:    9207        ..      STR      r2,[sp,#0x1c]
        0x0001f116:    f7fefa9f    ....    BL       am_util_stdio_printf ; 0x1d658
        0x0001f11a:    9a07        ..      LDR      r2,[sp,#0x1c]
        0x0001f11c:    9b08        ..      LDR      r3,[sp,#0x20]
        0x0001f11e:    f240605c    @.\`    MOV      r0,#0x65c
        0x0001f122:    f2c10000    ....    MOVT     r0,#0x1000
        0x0001f126:    f8d0c038    ..8.    LDR      r12,[r0,#0x38]
        0x0001f12a:    f6443070    D.p0    MOV      r0,#0x4b70
        0x0001f12e:    f2c10000    ....    MOVT     r0,#0x1000
        0x0001f132:    6800        .h      LDR      r0,[r0,#0]
        0x0001f134:    46ee        .F      MOV      lr,sp
        0x0001f136:    2101        .!      MOVS     r1,#1
        0x0001f138:    f8ce1000    ....    STR      r1,[lr,#0]
        0x0001f13c:    f24751c4    G..Q    MOV      r1,#0x75c4
        0x0001f140:    f2c10100    ....    MOVT     r1,#0x1000
        0x0001f144:    47e0        .G      BLX      r12
        0x0001f146:    9010        ..      STR      r0,[sp,#0x40]
        0x0001f148:    9810        ..      LDR      r0,[sp,#0x40]
        0x0001f14a:    b138        8.      CBZ      r0,0x1f15c ; main + 604
        0x0001f14c:    e7ff        ..      B        0x1f14e ; main + 590
        0x0001f14e:    f2406091    @..`    MOV      r0,#0x691
        0x0001f152:    f2c00002    ....    MOVT     r0,#2
        0x0001f156:    f7fefa7f    ....    BL       am_util_stdio_printf ; 0x1d658
        0x0001f15a:    e7ff        ..      B        0x1f15c ; main + 604
        0x0001f15c:    f2407063    @.cp    MOV      r0,#0x763
        0x0001f160:    f2c00002    ....    MOVT     r0,#2
        0x0001f164:    f44f5180    O..Q    MOV      r1,#0x1000
        0x0001f168:    9106        ..      STR      r1,[sp,#0x18]
        0x0001f16a:    2200        ."      MOVS     r2,#0
        0x0001f16c:    9205        ..      STR      r2,[sp,#0x14]
        0x0001f16e:    f7fefa73    ..s.    BL       am_util_stdio_printf ; 0x1d658
        0x0001f172:    9a05        ..      LDR      r2,[sp,#0x14]
        0x0001f174:    9b06        ..      LDR      r3,[sp,#0x18]
        0x0001f176:    f240605c    @.\`    MOV      r0,#0x65c
        0x0001f17a:    f2c10000    ....    MOVT     r0,#0x1000
        0x0001f17e:    f8d0c02c    ..,.    LDR      r12,[r0,#0x2c]
        0x0001f182:    f6443070    D.p0    MOV      r0,#0x4b70
        0x0001f186:    f2c10000    ....    MOVT     r0,#0x1000
        0x0001f18a:    6800        .h      LDR      r0,[r0,#0]
        0x0001f18c:    46ee        .F      MOV      lr,sp
        0x0001f18e:    2101        .!      MOVS     r1,#1
        0x0001f190:    f8ce1000    ....    STR      r1,[lr,#0]
        0x0001f194:    f24651c4    F..Q    MOV      r1,#0x65c4
        0x0001f198:    f2c10100    ....    MOVT     r1,#0x1000
        0x0001f19c:    47e0        .G      BLX      r12
        0x0001f19e:    9010        ..      STR      r0,[sp,#0x40]
        0x0001f1a0:    9810        ..      LDR      r0,[sp,#0x40]
        0x0001f1a2:    b138        8.      CBZ      r0,0x1f1b4 ; main + 692
        0x0001f1a4:    e7ff        ..      B        0x1f1a6 ; main + 678
        0x0001f1a6:    f2406069    @.i`    MOV      r0,#0x669
        0x0001f1aa:    f2c00002    ....    MOVT     r0,#2
        0x0001f1ae:    f7fefa53    ..S.    BL       am_util_stdio_printf ; 0x1d658
        0x0001f1b2:    e7ff        ..      B        0x1f1b4 ; main + 692
        0x0001f1b4:    f64000e4    @...    MOV      r0,#0x8e4
        0x0001f1b8:    f2c00002    ....    MOVT     r0,#2
        0x0001f1bc:    f7fefa4c    ..L.    BL       am_util_stdio_printf ; 0x1d658
        0x0001f1c0:    2000        .       MOVS     r0,#0
        0x0001f1c2:    900c        ..      STR      r0,[sp,#0x30]
        0x0001f1c4:    e7ff        ..      B        0x1f1c6 ; main + 710
        0x0001f1c6:    990c        ..      LDR      r1,[sp,#0x30]
        0x0001f1c8:    2000        .       MOVS     r0,#0
        0x0001f1ca:    ebb03f11    ...?    CMP      r0,r1,LSR #12
        0x0001f1ce:    d11a        ..      BNE      0x1f206 ; main + 774
        0x0001f1d0:    e7ff        ..      B        0x1f1d2 ; main + 722
        0x0001f1d2:    9a0c        ..      LDR      r2,[sp,#0x30]
        0x0001f1d4:    f24650c4    F..P    MOV      r0,#0x65c4
        0x0001f1d8:    f2c10000    ....    MOVT     r0,#0x1000
        0x0001f1dc:    5c80        .\      LDRB     r0,[r0,r2]
        0x0001f1de:    f24751c4    G..Q    MOV      r1,#0x75c4
        0x0001f1e2:    f2c10100    ....    MOVT     r1,#0x1000
        0x0001f1e6:    5c89        .\      LDRB     r1,[r1,r2]
        0x0001f1e8:    4288        .B      CMP      r0,r1
        0x0001f1ea:    d007        ..      BEQ      0x1f1fc ; main + 764
        0x0001f1ec:    e7ff        ..      B        0x1f1ee ; main + 750
        0x0001f1ee:    f24060e1    @..`    MOV      r0,#0x6e1
        0x0001f1f2:    f2c00002    ....    MOVT     r0,#2
        0x0001f1f6:    f7fefa2f    ../.    BL       am_util_stdio_printf ; 0x1d658
        0x0001f1fa:    e004        ..      B        0x1f206 ; main + 774
        0x0001f1fc:    e7ff        ..      B        0x1f1fe ; main + 766
        0x0001f1fe:    980c        ..      LDR      r0,[sp,#0x30]
        0x0001f200:    3001        .0      ADDS     r0,#1
        0x0001f202:    900c        ..      STR      r0,[sp,#0x30]
        0x0001f204:    e7df        ..      B        0x1f1c6 ; main + 710
        0x0001f206:    f2407050    @.Pp    MOVW     r0,#0x750
        0x0001f20a:    f2c00002    ....    MOVT     r0,#2
        0x0001f20e:    2100        .!      MOVS     r1,#0
        0x0001f210:    9104        ..      STR      r1,[sp,#0x10]
        0x0001f212:    f7fefa21    ..!.    BL       am_util_stdio_printf ; 0x1d658
        0x0001f216:    9904        ..      LDR      r1,[sp,#0x10]
        0x0001f218:    f240605c    @.\`    MOV      r0,#0x65c
        0x0001f21c:    f2c10000    ....    MOVT     r0,#0x1000
        0x0001f220:    6c42        Bl      LDR      r2,[r0,#0x44]
        0x0001f222:    f6443070    D.p0    MOV      r0,#0x4b70
        0x0001f226:    f2c10000    ....    MOVT     r0,#0x1000
        0x0001f22a:    6800        .h      LDR      r0,[r0,#0]
        0x0001f22c:    4790        .G      BLX      r2
        0x0001f22e:    9010        ..      STR      r0,[sp,#0x40]
        0x0001f230:    9810        ..      LDR      r0,[sp,#0x40]
        0x0001f232:    b138        8.      CBZ      r0,0x1f244 ; main + 836
        0x0001f234:    e7ff        ..      B        0x1f236 ; main + 822
        0x0001f236:    f240702a    @.*p    MOV      r0,#0x72a
        0x0001f23a:    f2c00002    ....    MOVT     r0,#2
        0x0001f23e:    f7fefa0b    ....    BL       am_util_stdio_printf ; 0x1d658
        0x0001f242:    e7ff        ..      B        0x1f244 ; main + 836
        0x0001f244:    f640003e    @.>.    MOV      r0,#0x83e
        0x0001f248:    f2c00002    ....    MOVT     r0,#2
        0x0001f24c:    f7fefa04    ....    BL       am_util_stdio_printf ; 0x1d658
        0x0001f250:    f240605c    @.\`    MOV      r0,#0x65c
        0x0001f254:    f2c10000    ....    MOVT     r0,#0x1000
        0x0001f258:    6d01        .m      LDR      r1,[r0,#0x50]
        0x0001f25a:    f6443070    D.p0    MOV      r0,#0x4b70
        0x0001f25e:    f2c10000    ....    MOVT     r0,#0x1000
        0x0001f262:    6800        .h      LDR      r0,[r0,#0]
        0x0001f264:    4788        .G      BLX      r1
        0x0001f266:    9010        ..      STR      r0,[sp,#0x40]
        0x0001f268:    9810        ..      LDR      r0,[sp,#0x40]
        0x0001f26a:    b138        8.      CBZ      r0,0x1f27c ; main + 892
        0x0001f26c:    e7ff        ..      B        0x1f26e ; main + 878
        0x0001f26e:    f2407007    @..p    MOV      r0,#0x707
        0x0001f272:    f2c00002    ....    MOVT     r0,#2
        0x0001f276:    f7fef9ef    ....    BL       am_util_stdio_printf ; 0x1d658
        0x0001f27a:    e7ff        ..      B        0x1f27c ; main + 892
        0x0001f27c:    f2407081    @..p    MOV      r0,#0x781
        0x0001f280:    f2c00002    ....    MOVT     r0,#2
        0x0001f284:    2148        H!      MOVS     r1,#0x48
        0x0001f286:    9103        ..      STR      r1,[sp,#0xc]
        0x0001f288:    2200        ."      MOVS     r2,#0
        0x0001f28a:    9202        ..      STR      r2,[sp,#8]
        0x0001f28c:    f7fef9e4    ....    BL       am_util_stdio_printf ; 0x1d658
        0x0001f290:    9a02        ..      LDR      r2,[sp,#8]
        0x0001f292:    9b03        ..      LDR      r3,[sp,#0xc]
        0x0001f294:    f240605c    @.\`    MOV      r0,#0x65c
        0x0001f298:    f2c10000    ....    MOVT     r0,#0x1000
        0x0001f29c:    f8d0c038    ..8.    LDR      r12,[r0,#0x38]
        0x0001f2a0:    f6443070    D.p0    MOV      r0,#0x4b70
        0x0001f2a4:    f2c10000    ....    MOVT     r0,#0x1000
        0x0001f2a8:    6800        .h      LDR      r0,[r0,#0]
        0x0001f2aa:    990f        ..      LDR      r1,[sp,#0x3c]
        0x0001f2ac:    466c        lF      MOV      r4,sp
        0x0001f2ae:    f04f0e01    O...    MOV      lr,#1
        0x0001f2b2:    f8c4e000    ....    STR      lr,[r4,#0]
        0x0001f2b6:    47e0        .G      BLX      r12
        0x0001f2b8:    9010        ..      STR      r0,[sp,#0x40]
        0x0001f2ba:    9810        ..      LDR      r0,[sp,#0x40]
        0x0001f2bc:    b138        8.      CBZ      r0,0x1f2ce ; main + 974
        0x0001f2be:    e7ff        ..      B        0x1f2c0 ; main + 960
        0x0001f2c0:    f2406033    @.3`    MOV      r0,#0x633
        0x0001f2c4:    f2c00002    ....    MOVT     r0,#2
        0x0001f2c8:    f7fef9c6    ....    BL       am_util_stdio_printf ; 0x1d658
        0x0001f2cc:    e7ff        ..      B        0x1f2ce ; main + 974
        0x0001f2ce:    f240605c    @.\`    MOV      r0,#0x65c
        0x0001f2d2:    f2c10000    ....    MOVT     r0,#0x1000
        0x0001f2d6:    f8d0c02c    ..,.    LDR      r12,[r0,#0x2c]
        0x0001f2da:    f6443070    D.p0    MOV      r0,#0x4b70
        0x0001f2de:    f2c10000    ....    MOVT     r0,#0x1000
        0x0001f2e2:    6800        .h      LDR      r0,[r0,#0]
        0x0001f2e4:    466a        jF      MOV      r2,sp
        0x0001f2e6:    2101        .!      MOVS     r1,#1
        0x0001f2e8:    6011        .`      STR      r1,[r2,#0]
        0x0001f2ea:    f24651c4    F..Q    MOV      r1,#0x65c4
        0x0001f2ee:    f2c10100    ....    MOVT     r1,#0x1000
        0x0001f2f2:    2200        ."      MOVS     r2,#0
        0x0001f2f4:    2348        H#      MOVS     r3,#0x48
        0x0001f2f6:    47e0        .G      BLX      r12
        0x0001f2f8:    9010        ..      STR      r0,[sp,#0x40]
        0x0001f2fa:    9810        ..      LDR      r0,[sp,#0x40]
        0x0001f2fc:    b138        8.      CBZ      r0,0x1f30e ; main + 1038
        0x0001f2fe:    e7ff        ..      B        0x1f300 ; main + 1024
        0x0001f300:    f2406069    @.i`    MOV      r0,#0x669
        0x0001f304:    f2c00002    ....    MOVT     r0,#2
        0x0001f308:    f7fef9a6    ....    BL       am_util_stdio_printf ; 0x1d658
        0x0001f30c:    e011        ..      B        0x1f332 ; main + 1074
        0x0001f30e:    980f        ..      LDR      r0,[sp,#0x3c]
        0x0001f310:    f24651c4    F..Q    MOV      r1,#0x65c4
        0x0001f314:    f2c10100    ....    MOVT     r1,#0x1000
        0x0001f318:    2248        H"      MOVS     r2,#0x48
        0x0001f31a:    f7f9f815    ....    BL       memcmp ; 0x18348
        0x0001f31e:    b138        8.      CBZ      r0,0x1f330 ; main + 1072
        0x0001f320:    e7ff        ..      B        0x1f322 ; main + 1058
        0x0001f322:    f64000c9    @...    MOV      r0,#0x8c9
        0x0001f326:    f2c00002    ....    MOVT     r0,#2
        0x0001f32a:    f7fef995    ....    BL       am_util_stdio_printf ; 0x1d658
        0x0001f32e:    e7ff        ..      B        0x1f330 ; main + 1072
        0x0001f330:    e7ff        ..      B        0x1f332 ; main + 1074
        0x0001f332:    f640000b    @...    MOV      r0,#0x80b
        0x0001f336:    f2c00002    ....    MOVT     r0,#2
        0x0001f33a:    f7fef98d    ....    BL       am_util_stdio_printf ; 0x1d658
        0x0001f33e:    f240605c    @.\`    MOV      r0,#0x65c
        0x0001f342:    f2c10000    ....    MOVT     r0,#0x1000
        0x0001f346:    6c81        .l      LDR      r1,[r0,#0x48]
        0x0001f348:    f6443070    D.p0    MOV      r0,#0x4b70
        0x0001f34c:    f2c10000    ....    MOVT     r0,#0x1000
        0x0001f350:    6800        .h      LDR      r0,[r0,#0]
        0x0001f352:    4788        .G      BLX      r1
        0x0001f354:    9010        ..      STR      r0,[sp,#0x40]
        0x0001f356:    9810        ..      LDR      r0,[sp,#0x40]
        0x0001f358:    b138        8.      CBZ      r0,0x1f36a ; main + 1130
        0x0001f35a:    e7ff        ..      B        0x1f35c ; main + 1116
        0x0001f35c:    f24060ba    @..`    MOV      r0,#0x6ba
        0x0001f360:    f2c00002    ....    MOVT     r0,#2
        0x0001f364:    f7fef978    ..x.    BL       am_util_stdio_printf ; 0x1d658
        0x0001f368:    e7ff        ..      B        0x1f36a ; main + 1130
        0x0001f36a:    f240605c    @.\`    MOV      r0,#0x65c
        0x0001f36e:    f2c10000    ....    MOVT     r0,#0x1000
        0x0001f372:    6d01        .m      LDR      r1,[r0,#0x50]
        0x0001f374:    f6443070    D.p0    MOV      r0,#0x4b70
        0x0001f378:    f2c10000    ....    MOVT     r0,#0x1000
        0x0001f37c:    6800        .h      LDR      r0,[r0,#0]
        0x0001f37e:    4788        .G      BLX      r1
        0x0001f380:    9010        ..      STR      r0,[sp,#0x40]
        0x0001f382:    9810        ..      LDR      r0,[sp,#0x40]
        0x0001f384:    b138        8.      CBZ      r0,0x1f396 ; main + 1174
        0x0001f386:    e7ff        ..      B        0x1f388 ; main + 1160
        0x0001f388:    f2407007    @..p    MOV      r0,#0x707
        0x0001f38c:    f2c00002    ....    MOVT     r0,#2
        0x0001f390:    f7fef962    ..b.    BL       am_util_stdio_printf ; 0x1d658
        0x0001f394:    e7ff        ..      B        0x1f396 ; main + 1174
        0x0001f396:    f640008a    @...    MOV      r0,#0x88a
        0x0001f39a:    f2c00002    ....    MOVT     r0,#2
        0x0001f39e:    f7fef95b    ..[.    BL       am_util_stdio_printf ; 0x1d658
        0x0001f3a2:    980e        ..      LDR      r0,[sp,#0x38]
        0x0001f3a4:    4780        .G      BLX      r0
        0x0001f3a6:    f64000b1    @...    MOV      r0,#0x8b1
        0x0001f3aa:    f2c00002    ....    MOVT     r0,#2
        0x0001f3ae:    f7fef953    ..S.    BL       am_util_stdio_printf ; 0x1d658
        0x0001f3b2:    f24070d6    @..p    MOV      r0,#0x7d6
        0x0001f3b6:    f2c00002    ....    MOVT     r0,#2
        0x0001f3ba:    f7fef94d    ..M.    BL       am_util_stdio_printf ; 0x1d658
        0x0001f3be:    f240605c    @.\`    MOV      r0,#0x65c
        0x0001f3c2:    f2c10000    ....    MOVT     r0,#0x1000
        0x0001f3c6:    6cc1        .l      LDR      r1,[r0,#0x4c]
        0x0001f3c8:    f6443070    D.p0    MOV      r0,#0x4b70
        0x0001f3cc:    f2c10000    ....    MOVT     r0,#0x1000
        0x0001f3d0:    6800        .h      LDR      r0,[r0,#0]
        0x0001f3d2:    4788        .G      BLX      r1
        0x0001f3d4:    9010        ..      STR      r0,[sp,#0x40]
        0x0001f3d6:    9810        ..      LDR      r0,[sp,#0x40]
        0x0001f3d8:    b138        8.      CBZ      r0,0x1f3ea ; main + 1258
        0x0001f3da:    e7ff        ..      B        0x1f3dc ; main + 1244
        0x0001f3dc:    f24050db    @..P    MOV      r0,#0x5db
        0x0001f3e0:    f2c00002    ....    MOVT     r0,#2
        0x0001f3e4:    f7fef938    ..8.    BL       am_util_stdio_printf ; 0x1d658
        0x0001f3e8:    e7ff        ..      B        0x1f3ea ; main + 1258
        0x0001f3ea:    f7fbfe23    ..#.    BL       am_hal_interrupt_master_disable ; 0x1b034
        0x0001f3ee:    f24040a8    @..@    MOVW     r0,#0x4a8
        0x0001f3f2:    f2c00002    ....    MOVT     r0,#2
        0x0001f3f6:    f9900001    ....    LDRSB    r0,[r0,#1]
        0x0001f3fa:    f7f9f8f1    ....    BL       __NVIC_DisableIRQ ; 0x185e0
        0x0001f3fe:    f240605c    @.\`    MOV      r0,#0x65c
        0x0001f402:    f2c10000    ....    MOVT     r0,#0x1000
        0x0001f406:    6a41        Aj      LDR      r1,[r0,#0x24]
        0x0001f408:    f6443070    D.p0    MOV      r0,#0x4b70
        0x0001f40c:    f2c10000    ....    MOVT     r0,#0x1000
        0x0001f410:    6800        .h      LDR      r0,[r0,#0]
        0x0001f412:    4788        .G      BLX      r1
        0x0001f414:    9010        ..      STR      r0,[sp,#0x40]
        0x0001f416:    9810        ..      LDR      r0,[sp,#0x40]
        0x0001f418:    b138        8.      CBZ      r0,0x1f42a ; main + 1322
        0x0001f41a:    e7ff        ..      B        0x1f41c ; main + 1308
        0x0001f41c:    f2406004    @..`    MOV      r0,#0x604
        0x0001f420:    f2c00002    ....    MOVT     r0,#2
        0x0001f424:    f7fef918    ....    BL       am_util_stdio_printf ; 0x1d658
        0x0001f428:    e7ff        ..      B        0x1f42a ; main + 1322
        0x0001f42a:    f6400065    @.e.    MOV      r0,#0x865
        0x0001f42e:    f2c00002    ....    MOVT     r0,#2
        0x0001f432:    f7fef911    ....    BL       am_util_stdio_printf ; 0x1d658
        0x0001f436:    e7ff        ..      B        0x1f438 ; main + 1336
        0x0001f438:    2001        .       MOVS     r0,#1
        0x0001f43a:    f7fdfe97    ....    BL       am_hal_sysctrl_sleep ; 0x1d16c
        0x0001f43e:    e7fb        ..      B        0x1f438 ; main + 1336
    mspi_cq_pause
        0x0001f440:    b570        p.      PUSH     {r4-r6,lr}
        0x0001f442:    b082        ..      SUB      sp,sp,#8
        0x0001f444:    4604        .F      MOV      r4,r0
        0x0001f446:    6840        @h      LDR      r0,[r0,#4]
        0x0001f448:    2500        .%      MOVS     r5,#0
        0x0001f44a:    f2c40506    ....    MOVT     r5,#0x4006
        0x0001f44e:    eb053000    ...0    ADD      r0,r5,r0,LSL #12
        0x0001f452:    f44f0100    O...    MOV      r1,#0x800000
        0x0001f456:    f8c012b4    ....    STR      r1,[r0,#0x2b4]
        0x0001f45a:    6860        `h      LDR      r0,[r4,#4]
        0x0001f45c:    eb053000    ...0    ADD      r0,r5,r0,LSL #12
        0x0001f460:    f8d012a0    ....    LDR      r1,[r0,#0x2a0]
        0x0001f464:    07c9        ..      LSLS     r1,r1,#31
        0x0001f466:    d018        ..      BEQ      0x1f49a ; mspi_cq_pause + 90
        0x0001f468:    f647165f    G._.    MOV      r6,#0x795f
        0x0001f46c:    f6cf76fe    ...v    MOVT     r6,#0xfffe
        0x0001f470:    f8d012ac    ....    LDR      r1,[r0,#0x2ac]
        0x0001f474:    0709        ..      LSLS     r1,r1,#28
        0x0001f476:    bf44        D.      ITT      MI
        0x0001f478:    f8d012b8    ....    LDRMI    r1,[r0,#0x2b8]
        0x0001f47c:    ea5f6101    _..a    LSLSMI   r1,r1,#24
        0x0001f480:    d40b        ..      BMI      0x1f49a ; mspi_cq_pause + 90
        0x0001f482:    3601        .6      ADDS     r6,#1
        0x0001f484:    d217        ..      BCS      0x1f4b6 ; mspi_cq_pause + 118
        0x0001f486:    2001        .       MOVS     r0,#1
        0x0001f488:    f7fbfc94    ....    BL       am_hal_delay_us ; 0x1adb4
        0x0001f48c:    6860        `h      LDR      r0,[r4,#4]
        0x0001f48e:    eb053000    ...0    ADD      r0,r5,r0,LSL #12
        0x0001f492:    f8d012a0    ....    LDR      r1,[r0,#0x2a0]
        0x0001f496:    07c9        ..      LSLS     r1,r1,#31
        0x0001f498:    d1ea        ..      BNE      0x1f470 ; mspi_cq_pause + 48
        0x0001f49a:    f5007182    ...q    ADD      r1,r0,#0x104
        0x0001f49e:    f24860a0    H..`    MOV      r0,#0x86a0
        0x0001f4a2:    2601        .&      MOVS     r6,#1
        0x0001f4a4:    f2c00001    ....    MOVT     r0,#1
        0x0001f4a8:    2201        ."      MOVS     r2,#1
        0x0001f4aa:    2300        .#      MOVS     r3,#0
        0x0001f4ac:    9600        ..      STR      r6,[sp,#0]
        0x0001f4ae:    f7fbfcc7    ....    BL       am_hal_delay_us_status_check ; 0x1ae40
        0x0001f4b2:    b002        ..      ADD      sp,sp,#8
        0x0001f4b4:    bd70        p.      POP      {r4-r6,pc}
        0x0001f4b6:    2004        .       MOVS     r0,#4
        0x0001f4b8:    e7fb        ..      B        0x1f4b2 ; mspi_cq_pause + 114
        0x0001f4ba:    0000        ..      MOVS     r0,r0
    mspi_device_configure
        0x0001f4bc:    7a82        .z      LDRB     r2,[r0,#0xa]
        0x0001f4be:    2a19        .*      CMP      r2,#0x19
        0x0001f4c0:    bf88        ..      IT       HI
        0x0001f4c2:    4770        pG      BXHI     lr
        0x0001f4c4:    6841        Ah      LDR      r1,[r0,#4]
        0x0001f4c6:    e8dff012    ....    TBH      [pc,r2,LSL #1]
    $d.6
        0x0001f4ca:    003a        :.      DCW    58
        0x0001f4cc:    00540043    C.T.    DCD    5505091
        0x0001f4d0:    0066005d    ].f.    DCD    6684765
        0x0001f4d4:    001a006f    o...    DCD    1704047
        0x0001f4d8:    001a0023    #...    DCD    1703971
        0x0001f4dc:    00860023    #...    DCD    8781859
        0x0001f4e0:    00ac008f    ....    DCD    11272335
        0x0001f4e4:    00cb00bb    ....    DCD    13303995
        0x0001f4e8:    00ec00d4    ....    DCD    15466708
        0x0001f4ec:    010500f5    ....    DCD    17105141
        0x0001f4f0:    0131010e    ..1.    DCD    19988750
        0x0001f4f4:    015b013a    :.[.    DCD    22741306
        0x0001f4f8:    01740164    d.t.    DCD    24379748
        0x0001f4fc:    017d        }.      DCW    381
    $t.7
        0x0001f4fe:    2000        .       MOVS     r0,#0
        0x0001f500:    f2c40006    ....    MOVT     r0,#0x4006
        0x0001f504:    eb003101    ...1    ADD      r1,r0,r1,LSL #12
        0x0001f508:    f8d10084    ....    LDR      r0,[r1,#0x84]
        0x0001f50c:    220d        ."      MOVS     r2,#0xd
        0x0001f50e:    e007        ..      B        0x1f520 ; mspi_device_configure + 100
        0x0001f510:    2000        .       MOVS     r0,#0
        0x0001f512:    f2c40006    ....    MOVT     r0,#0x4006
        0x0001f516:    eb003101    ...1    ADD      r1,r0,r1,LSL #12
        0x0001f51a:    f8d10084    ....    LDR      r0,[r1,#0x84]
        0x0001f51e:    220e        ."      MOVS     r2,#0xe
        0x0001f520:    f3620004    b...    BFI      r0,r2,#0,#5
        0x0001f524:    f8c10084    ....    STR      r0,[r1,#0x84]
        0x0001f528:    f8d10084    ....    LDR      r0,[r1,#0x84]
        0x0001f52c:    f0207000     ..p    BIC      r0,r0,#0x2000000
        0x0001f530:    f8c10084    ....    STR      r0,[r1,#0x84]
        0x0001f534:    f8d10090    ....    LDR      r0,[r1,#0x90]
        0x0001f538:    f4206070     .p`    BIC      r0,r0,#0xf00
        0x0001f53c:    e159        Y.      B        0x1f7f2 ; mspi_device_configure + 822
        0x0001f53e:    2200        ."      MOVS     r2,#0
        0x0001f540:    f2c40206    ....    MOVT     r2,#0x4006
        0x0001f544:    eb023101    ...1    ADD      r1,r2,r1,LSL #12
        0x0001f548:    f8d12084    ...     LDR      r2,[r1,#0x84]
        0x0001f54c:    2301        .#      MOVS     r3,#1
        0x0001f54e:    e007        ..      B        0x1f560 ; mspi_device_configure + 164
        0x0001f550:    2200        ."      MOVS     r2,#0
        0x0001f552:    f2c40206    ....    MOVT     r2,#0x4006
        0x0001f556:    eb023101    ...1    ADD      r1,r2,r1,LSL #12
        0x0001f55a:    f8d12084    ...     LDR      r2,[r1,#0x84]
        0x0001f55e:    2302        .#      MOVS     r3,#2
        0x0001f560:    f3630204    c...    BFI      r2,r3,#0,#5
        0x0001f564:    f8c12084    ...     STR      r2,[r1,#0x84]
        0x0001f568:    f8d12084    ...     LDR      r2,[r1,#0x84]
        0x0001f56c:    f0427200    B..r    ORR      r2,r2,#0x2000000
        0x0001f570:    e0f5        ..      B        0x1f75e ; mspi_device_configure + 674
        0x0001f572:    2200        ."      MOVS     r2,#0
        0x0001f574:    f2c40206    ....    MOVT     r2,#0x4006
        0x0001f578:    eb023101    ...1    ADD      r1,r2,r1,LSL #12
        0x0001f57c:    f8d12084    ...     LDR      r2,[r1,#0x84]
        0x0001f580:    2305        .#      MOVS     r3,#5
        0x0001f582:    e0e4        ..      B        0x1f74e ; mspi_device_configure + 658
        0x0001f584:    2200        ."      MOVS     r2,#0
        0x0001f586:    f2c40206    ....    MOVT     r2,#0x4006
        0x0001f58a:    eb023101    ...1    ADD      r1,r2,r1,LSL #12
        0x0001f58e:    f8d12084    ...     LDR      r2,[r1,#0x84]
        0x0001f592:    2306        .#      MOVS     r3,#6
        0x0001f594:    e0db        ..      B        0x1f74e ; mspi_device_configure + 658
        0x0001f596:    2200        ."      MOVS     r2,#0
        0x0001f598:    f2c40206    ....    MOVT     r2,#0x4006
        0x0001f59c:    eb023101    ...1    ADD      r1,r2,r1,LSL #12
        0x0001f5a0:    f8d12084    ...     LDR      r2,[r1,#0x84]
        0x0001f5a4:    2309        .#      MOVS     r3,#9
        0x0001f5a6:    e007        ..      B        0x1f5b8 ; mspi_device_configure + 252
        0x0001f5a8:    2200        ."      MOVS     r2,#0
        0x0001f5aa:    f2c40206    ....    MOVT     r2,#0x4006
        0x0001f5ae:    eb023101    ...1    ADD      r1,r2,r1,LSL #12
        0x0001f5b2:    f8d12084    ...     LDR      r2,[r1,#0x84]
        0x0001f5b6:    230a        .#      MOVS     r3,#0xa
        0x0001f5b8:    f3630204    c...    BFI      r2,r3,#0,#5
        0x0001f5bc:    f8c12084    ...     STR      r2,[r1,#0x84]
        0x0001f5c0:    f8d12084    ...     LDR      r2,[r1,#0x84]
        0x0001f5c4:    f0227200    "..r    BIC      r2,r2,#0x2000000
        0x0001f5c8:    f8c12084    ...     STR      r2,[r1,#0x84]
        0x0001f5cc:    f8d12090    ...     LDR      r2,[r1,#0x90]
        0x0001f5d0:    f4226270    ".pb    BIC      r2,r2,#0xf00
        0x0001f5d4:    e09e        ..      B        0x1f714 ; mspi_device_configure + 600
        0x0001f5d6:    2000        .       MOVS     r0,#0
        0x0001f5d8:    f2c40006    ....    MOVT     r0,#0x4006
        0x0001f5dc:    eb003101    ...1    ADD      r1,r0,r1,LSL #12
        0x0001f5e0:    f8d10084    ....    LDR      r0,[r1,#0x84]
        0x0001f5e4:    2211        ."      MOVS     r2,#0x11
        0x0001f5e6:    e007        ..      B        0x1f5f8 ; mspi_device_configure + 316
        0x0001f5e8:    2000        .       MOVS     r0,#0
        0x0001f5ea:    f2c40006    ....    MOVT     r0,#0x4006
        0x0001f5ee:    eb003101    ...1    ADD      r1,r0,r1,LSL #12
        0x0001f5f2:    f8d10084    ....    LDR      r0,[r1,#0x84]
        0x0001f5f6:    2212        ."      MOVS     r2,#0x12
        0x0001f5f8:    f3620004    b...    BFI      r0,r2,#0,#5
        0x0001f5fc:    f8c10084    ....    STR      r0,[r1,#0x84]
        0x0001f600:    f8d10084    ....    LDR      r0,[r1,#0x84]
        0x0001f604:    f0207000     ..p    BIC      r0,r0,#0x2000000
        0x0001f608:    f8c10084    ....    STR      r0,[r1,#0x84]
        0x0001f60c:    f8d12090    ...     LDR      r2,[r1,#0x90]
        0x0001f610:    f64f70ff    O..p    MOV      r0,#0xffff
        0x0001f614:    f4226270    ".pb    BIC      r2,r2,#0xf00
        0x0001f618:    f2c00007    ....    MOVT     r0,#7
        0x0001f61c:    f8c12090    ...     STR      r2,[r1,#0x90]
        0x0001f620:    e0eb        ..      B        0x1f7fa ; mspi_device_configure + 830
        0x0001f622:    2200        ."      MOVS     r2,#0
        0x0001f624:    f2c40206    ....    MOVT     r2,#0x4006
        0x0001f628:    eb023101    ...1    ADD      r1,r2,r1,LSL #12
        0x0001f62c:    f8d12084    ...     LDR      r2,[r1,#0x84]
        0x0001f630:    2301        .#      MOVS     r3,#1
        0x0001f632:    f3630204    c...    BFI      r2,r3,#0,#5
        0x0001f636:    f8c12084    ...     STR      r2,[r1,#0x84]
        0x0001f63a:    f8d12084    ...     LDR      r2,[r1,#0x84]
        0x0001f63e:    e027        '.      B        0x1f690 ; mspi_device_configure + 468
        0x0001f640:    2200        ."      MOVS     r2,#0
        0x0001f642:    f2c40206    ....    MOVT     r2,#0x4006
        0x0001f646:    eb023101    ...1    ADD      r1,r2,r1,LSL #12
        0x0001f64a:    f8d12084    ...     LDR      r2,[r1,#0x84]
        0x0001f64e:    2302        .#      MOVS     r3,#2
        0x0001f650:    f3630204    c...    BFI      r2,r3,#0,#5
        0x0001f654:    f8c12084    ...     STR      r2,[r1,#0x84]
        0x0001f658:    f8d12084    ...     LDR      r2,[r1,#0x84]
        0x0001f65c:    2301        .#      MOVS     r3,#1
        0x0001f65e:    e017        ..      B        0x1f690 ; mspi_device_configure + 468
        0x0001f660:    2200        ."      MOVS     r2,#0
        0x0001f662:    f2c40206    ....    MOVT     r2,#0x4006
        0x0001f666:    eb023101    ...1    ADD      r1,r2,r1,LSL #12
        0x0001f66a:    f8d12084    ...     LDR      r2,[r1,#0x84]
        0x0001f66e:    2301        .#      MOVS     r3,#1
        0x0001f670:    e007        ..      B        0x1f682 ; mspi_device_configure + 454
        0x0001f672:    2200        ."      MOVS     r2,#0
        0x0001f674:    f2c40206    ....    MOVT     r2,#0x4006
        0x0001f678:    eb023101    ...1    ADD      r1,r2,r1,LSL #12
        0x0001f67c:    f8d12084    ...     LDR      r2,[r1,#0x84]
        0x0001f680:    2302        .#      MOVS     r3,#2
        0x0001f682:    f3630204    c...    BFI      r2,r3,#0,#5
        0x0001f686:    f8c12084    ...     STR      r2,[r1,#0x84]
        0x0001f68a:    f8d12084    ...     LDR      r2,[r1,#0x84]
        0x0001f68e:    2303        .#      MOVS     r3,#3
        0x0001f690:    f0227200    "..r    BIC      r2,r2,#0x2000000
        0x0001f694:    f8c12084    ...     STR      r2,[r1,#0x84]
        0x0001f698:    f8d12090    ...     LDR      r2,[r1,#0x90]
        0x0001f69c:    f363220b    c.."    BFI      r2,r3,#8,#4
        0x0001f6a0:    e063        c.      B        0x1f76a ; mspi_device_configure + 686
        0x0001f6a2:    2200        ."      MOVS     r2,#0
        0x0001f6a4:    f2c40206    ....    MOVT     r2,#0x4006
        0x0001f6a8:    eb023101    ...1    ADD      r1,r2,r1,LSL #12
        0x0001f6ac:    f8d12084    ...     LDR      r2,[r1,#0x84]
        0x0001f6b0:    2301        .#      MOVS     r3,#1
        0x0001f6b2:    e007        ..      B        0x1f6c4 ; mspi_device_configure + 520
        0x0001f6b4:    2200        ."      MOVS     r2,#0
        0x0001f6b6:    f2c40206    ....    MOVT     r2,#0x4006
        0x0001f6ba:    eb023101    ...1    ADD      r1,r2,r1,LSL #12
        0x0001f6be:    f8d12084    ...     LDR      r2,[r1,#0x84]
        0x0001f6c2:    2302        .#      MOVS     r3,#2
        0x0001f6c4:    f3630204    c...    BFI      r2,r3,#0,#5
        0x0001f6c8:    f8c12084    ...     STR      r2,[r1,#0x84]
        0x0001f6cc:    f8d12084    ...     LDR      r2,[r1,#0x84]
        0x0001f6d0:    2305        .#      MOVS     r3,#5
        0x0001f6d2:    e017        ..      B        0x1f704 ; mspi_device_configure + 584
        0x0001f6d4:    2200        ."      MOVS     r2,#0
        0x0001f6d6:    f2c40206    ....    MOVT     r2,#0x4006
        0x0001f6da:    eb023101    ...1    ADD      r1,r2,r1,LSL #12
        0x0001f6de:    f8d12084    ...     LDR      r2,[r1,#0x84]
        0x0001f6e2:    2301        .#      MOVS     r3,#1
        0x0001f6e4:    e007        ..      B        0x1f6f6 ; mspi_device_configure + 570
        0x0001f6e6:    2200        ."      MOVS     r2,#0
        0x0001f6e8:    f2c40206    ....    MOVT     r2,#0x4006
        0x0001f6ec:    eb023101    ...1    ADD      r1,r2,r1,LSL #12
        0x0001f6f0:    f8d12084    ...     LDR      r2,[r1,#0x84]
        0x0001f6f4:    2302        .#      MOVS     r3,#2
        0x0001f6f6:    f3630204    c...    BFI      r2,r3,#0,#5
        0x0001f6fa:    f8c12084    ...     STR      r2,[r1,#0x84]
        0x0001f6fe:    f8d12084    ...     LDR      r2,[r1,#0x84]
        0x0001f702:    2307        .#      MOVS     r3,#7
        0x0001f704:    f0227200    "..r    BIC      r2,r2,#0x2000000
        0x0001f708:    f8c12084    ...     STR      r2,[r1,#0x84]
        0x0001f70c:    f8d12090    ...     LDR      r2,[r1,#0x90]
        0x0001f710:    f363220b    c.."    BFI      r2,r3,#8,#4
        0x0001f714:    f8c12090    ...     STR      r2,[r1,#0x90]
        0x0001f718:    7a42        Bz      LDRB     r2,[r0,#9]
        0x0001f71a:    2013        .       MOVS     r0,#0x13
        0x0001f71c:    f2c80000    ....    MOVT     r0,#0x8000
        0x0001f720:    300c        .0      ADDS     r0,r0,#0xc
        0x0001f722:    2a00        .*      CMP      r2,#0
        0x0001f724:    bf08        ..      IT       EQ
        0x0001f726:    f240100f    @...    MOVEQ    r0,#0x10f
        0x0001f72a:    e066        f.      B        0x1f7fa ; mspi_device_configure + 830
        0x0001f72c:    2200        ."      MOVS     r2,#0
        0x0001f72e:    f2c40206    ....    MOVT     r2,#0x4006
        0x0001f732:    eb023101    ...1    ADD      r1,r2,r1,LSL #12
        0x0001f736:    f8d12084    ...     LDR      r2,[r1,#0x84]
        0x0001f73a:    2301        .#      MOVS     r3,#1
        0x0001f73c:    e007        ..      B        0x1f74e ; mspi_device_configure + 658
        0x0001f73e:    2200        ."      MOVS     r2,#0
        0x0001f740:    f2c40206    ....    MOVT     r2,#0x4006
        0x0001f744:    eb023101    ...1    ADD      r1,r2,r1,LSL #12
        0x0001f748:    f8d12084    ...     LDR      r2,[r1,#0x84]
        0x0001f74c:    2302        .#      MOVS     r3,#2
        0x0001f74e:    f3630204    c...    BFI      r2,r3,#0,#5
        0x0001f752:    f8c12084    ...     STR      r2,[r1,#0x84]
        0x0001f756:    f8d12084    ...     LDR      r2,[r1,#0x84]
        0x0001f75a:    f0227200    "..r    BIC      r2,r2,#0x2000000
        0x0001f75e:    f8c12084    ...     STR      r2,[r1,#0x84]
        0x0001f762:    f8d12090    ...     LDR      r2,[r1,#0x90]
        0x0001f766:    f4226270    ".pb    BIC      r2,r2,#0xf00
        0x0001f76a:    f8c12090    ...     STR      r2,[r1,#0x90]
        0x0001f76e:    7a42        Bz      LDRB     r2,[r0,#9]
        0x0001f770:    2013        .       MOVS     r0,#0x13
        0x0001f772:    f2c80000    ....    MOVT     r0,#0x8000
        0x0001f776:    2a00        .*      CMP      r2,#0
        0x0001f778:    bf08        ..      IT       EQ
        0x0001f77a:    f2401003    @...    MOVEQ    r0,#0x103
        0x0001f77e:    e03c        <.      B        0x1f7fa ; mspi_device_configure + 830
        0x0001f780:    2000        .       MOVS     r0,#0
        0x0001f782:    f2c40006    ....    MOVT     r0,#0x4006
        0x0001f786:    eb003101    ...1    ADD      r1,r0,r1,LSL #12
        0x0001f78a:    f8d10084    ....    LDR      r0,[r1,#0x84]
        0x0001f78e:    2201        ."      MOVS     r2,#1
        0x0001f790:    e007        ..      B        0x1f7a2 ; mspi_device_configure + 742
        0x0001f792:    2000        .       MOVS     r0,#0
        0x0001f794:    f2c40006    ....    MOVT     r0,#0x4006
        0x0001f798:    eb003101    ...1    ADD      r1,r0,r1,LSL #12
        0x0001f79c:    f8d10084    ....    LDR      r0,[r1,#0x84]
        0x0001f7a0:    2202        ."      MOVS     r2,#2
        0x0001f7a2:    f3620004    b...    BFI      r0,r2,#0,#5
        0x0001f7a6:    f8c10084    ....    STR      r0,[r1,#0x84]
        0x0001f7aa:    f8d10084    ....    LDR      r0,[r1,#0x84]
        0x0001f7ae:    2209        ."      MOVS     r2,#9
        0x0001f7b0:    e017        ..      B        0x1f7e2 ; mspi_device_configure + 806
        0x0001f7b2:    2000        .       MOVS     r0,#0
        0x0001f7b4:    f2c40006    ....    MOVT     r0,#0x4006
        0x0001f7b8:    eb003101    ...1    ADD      r1,r0,r1,LSL #12
        0x0001f7bc:    f8d10084    ....    LDR      r0,[r1,#0x84]
        0x0001f7c0:    2201        ."      MOVS     r2,#1
        0x0001f7c2:    e007        ..      B        0x1f7d4 ; mspi_device_configure + 792
        0x0001f7c4:    2000        .       MOVS     r0,#0
        0x0001f7c6:    f2c40006    ....    MOVT     r0,#0x4006
        0x0001f7ca:    eb003101    ...1    ADD      r1,r0,r1,LSL #12
        0x0001f7ce:    f8d10084    ....    LDR      r0,[r1,#0x84]
        0x0001f7d2:    2202        ."      MOVS     r2,#2
        0x0001f7d4:    f3620004    b...    BFI      r0,r2,#0,#5
        0x0001f7d8:    f8c10084    ....    STR      r0,[r1,#0x84]
        0x0001f7dc:    f8d10084    ....    LDR      r0,[r1,#0x84]
        0x0001f7e0:    220b        ."      MOVS     r2,#0xb
        0x0001f7e2:    f0207000     ..p    BIC      r0,r0,#0x2000000
        0x0001f7e6:    f8c10084    ....    STR      r0,[r1,#0x84]
        0x0001f7ea:    f8d10090    ....    LDR      r0,[r1,#0x90]
        0x0001f7ee:    f362200b    b..     BFI      r0,r2,#8,#4
        0x0001f7f2:    f8c10090    ....    STR      r0,[r1,#0x90]
        0x0001f7f6:    f24030ff    @..0    MOV      r0,#0x3ff
        0x0001f7fa:    6448        Hd      STR      r0,[r1,#0x44]
        0x0001f7fc:    4770        pG      BX       lr
    mspi_dummy_callback
        0x0001f7fe:    4770        pG      BX       lr
    mspi_is25wx064_dma_read
        0x0001f800:    b580        ..      PUSH     {r7,lr}
        0x0001f802:    b090        ..      SUB      sp,sp,#0x40
        0x0001f804:    900e        ..      STR      r0,[sp,#0x38]
        0x0001f806:    910d        ..      STR      r1,[sp,#0x34]
        0x0001f808:    920c        ..      STR      r2,[sp,#0x30]
        0x0001f80a:    930b        ..      STR      r3,[sp,#0x2c]
        0x0001f80c:    980e        ..      LDR      r0,[sp,#0x38]
        0x0001f80e:    9003        ..      STR      r0,[sp,#0xc]
        0x0001f810:    2201        ."      MOVS     r2,#1
        0x0001f812:    f88d2014    ...     STRB     r2,[sp,#0x14]
        0x0001f816:    2000        .       MOVS     r0,#0
        0x0001f818:    f88d0015    ....    STRB     r0,[sp,#0x15]
        0x0001f81c:    990b        ..      LDR      r1,[sp,#0x2c]
        0x0001f81e:    9106        ..      STR      r1,[sp,#0x18]
        0x0001f820:    990c        ..      LDR      r1,[sp,#0x30]
        0x0001f822:    9107        ..      STR      r1,[sp,#0x1c]
        0x0001f824:    990d        ..      LDR      r1,[sp,#0x34]
        0x0001f826:    9108        ..      STR      r1,[sp,#0x20]
        0x0001f828:    9009        ..      STR      r0,[sp,#0x24]
        0x0001f82a:    900a        ..      STR      r0,[sp,#0x28]
        0x0001f82c:    f04f30ff    O..0    MOV      r0,#0xffffffff
        0x0001f830:    9002        ..      STR      r0,[sp,#8]
        0x0001f832:    9803        ..      LDR      r0,[sp,#0xc]
        0x0001f834:    6840        @h      LDR      r0,[r0,#4]
        0x0001f836:    466b        kF      MOV      r3,sp
        0x0001f838:    a902        ..      ADD      r1,sp,#8
        0x0001f83a:    6019        .`      STR      r1,[r3,#0]
        0x0001f83c:    f64f336d    O.m3    MOV      r3,#0xfb6d
        0x0001f840:    f2c00301    ....    MOVT     r3,#1
        0x0001f844:    a905        ..      ADD      r1,sp,#0x14
        0x0001f846:    f7fcff16    ....    BL       am_hal_mspi_nonblocking_transfer ; 0x1c676
        0x0001f84a:    9004        ..      STR      r0,[sp,#0x10]
        0x0001f84c:    9804        ..      LDR      r0,[sp,#0x10]
        0x0001f84e:    b118        ..      CBZ      r0,0x1f858 ; mspi_is25wx064_dma_read + 88
        0x0001f850:    e7ff        ..      B        0x1f852 ; mspi_is25wx064_dma_read + 82
        0x0001f852:    2001        .       MOVS     r0,#1
        0x0001f854:    900f        ..      STR      r0,[sp,#0x3c]
        0x0001f856:    e02f        /.      B        0x1f8b8 ; mspi_is25wx064_dma_read + 184
        0x0001f858:    2000        .       MOVS     r0,#0
        0x0001f85a:    9001        ..      STR      r0,[sp,#4]
        0x0001f85c:    e7ff        ..      B        0x1f85e ; mspi_is25wx064_dma_read + 94
        0x0001f85e:    9801        ..      LDR      r0,[sp,#4]
        0x0001f860:    f244213f    D.?!    MOV      r1,#0x423f
        0x0001f864:    f2c0010f    ....    MOVT     r1,#0xf
        0x0001f868:    4288        .B      CMP      r0,r1
        0x0001f86a:    d81c        ..      BHI      0x1f8a6 ; mspi_is25wx064_dma_read + 166
        0x0001f86c:    e7ff        ..      B        0x1f86e ; mspi_is25wx064_dma_read + 110
        0x0001f86e:    9803        ..      LDR      r0,[sp,#0xc]
        0x0001f870:    6840        @h      LDR      r0,[r0,#4]
        0x0001f872:    a904        ..      ADD      r1,sp,#0x10
        0x0001f874:    2200        ."      MOVS     r2,#0
        0x0001f876:    f7fcfedd    ....    BL       am_hal_mspi_interrupt_status_get ; 0x1c634
        0x0001f87a:    9803        ..      LDR      r0,[sp,#0xc]
        0x0001f87c:    6840        @h      LDR      r0,[r0,#4]
        0x0001f87e:    9904        ..      LDR      r1,[sp,#0x10]
        0x0001f880:    f7fcfd3e    ..>.    BL       am_hal_mspi_interrupt_clear ; 0x1c300
        0x0001f884:    9803        ..      LDR      r0,[sp,#0xc]
        0x0001f886:    6840        @h      LDR      r0,[r0,#4]
        0x0001f888:    9904        ..      LDR      r1,[sp,#0x10]
        0x0001f88a:    f7fcfd7d    ..}.    BL       am_hal_mspi_interrupt_service ; 0x1c388
        0x0001f88e:    9802        ..      LDR      r0,[sp,#8]
        0x0001f890:    b908        ..      CBNZ     r0,0x1f896 ; mspi_is25wx064_dma_read + 150
        0x0001f892:    e7ff        ..      B        0x1f894 ; mspi_is25wx064_dma_read + 148
        0x0001f894:    e007        ..      B        0x1f8a6 ; mspi_is25wx064_dma_read + 166
        0x0001f896:    2001        .       MOVS     r0,#1
        0x0001f898:    f7fdfd42    ..B.    BL       am_util_delay_us ; 0x1d320
        0x0001f89c:    e7ff        ..      B        0x1f89e ; mspi_is25wx064_dma_read + 158
        0x0001f89e:    9801        ..      LDR      r0,[sp,#4]
        0x0001f8a0:    3001        .0      ADDS     r0,#1
        0x0001f8a2:    9001        ..      STR      r0,[sp,#4]
        0x0001f8a4:    e7db        ..      B        0x1f85e ; mspi_is25wx064_dma_read + 94
        0x0001f8a6:    9802        ..      LDR      r0,[sp,#8]
        0x0001f8a8:    b918        ..      CBNZ     r0,0x1f8b2 ; mspi_is25wx064_dma_read + 178
        0x0001f8aa:    e7ff        ..      B        0x1f8ac ; mspi_is25wx064_dma_read + 172
        0x0001f8ac:    2000        .       MOVS     r0,#0
        0x0001f8ae:    900f        ..      STR      r0,[sp,#0x3c]
        0x0001f8b0:    e002        ..      B        0x1f8b8 ; mspi_is25wx064_dma_read + 184
        0x0001f8b2:    2001        .       MOVS     r0,#1
        0x0001f8b4:    900f        ..      STR      r0,[sp,#0x3c]
        0x0001f8b6:    e7ff        ..      B        0x1f8b8 ; mspi_is25wx064_dma_read + 184
        0x0001f8b8:    980f        ..      LDR      r0,[sp,#0x3c]
        0x0001f8ba:    b010        ..      ADD      sp,sp,#0x40
        0x0001f8bc:    bd80        ..      POP      {r7,pc}
        0x0001f8be:    0000        ..      MOVS     r0,r0
    mspi_is25wx064_dma_write
        0x0001f8c0:    b580        ..      PUSH     {r7,lr}
        0x0001f8c2:    b0b6        ..      SUB      sp,sp,#0xd8
        0x0001f8c4:    9034        4.      STR      r0,[sp,#0xd0]
        0x0001f8c6:    9133        3.      STR      r1,[sp,#0xcc]
        0x0001f8c8:    9232        2.      STR      r2,[sp,#0xc8]
        0x0001f8ca:    9331        1.      STR      r3,[sp,#0xc4]
        0x0001f8cc:    2000        .       MOVS     r0,#0
        0x0001f8ce:    f88d00ab    ....    STRB     r0,[sp,#0xab]
        0x0001f8d2:    9831        1.      LDR      r0,[sp,#0xc4]
        0x0001f8d4:    9029        ).      STR      r0,[sp,#0xa4]
        0x0001f8d6:    9832        2.      LDR      r0,[sp,#0xc8]
        0x0001f8d8:    9028        (.      STR      r0,[sp,#0xa0]
        0x0001f8da:    9833        3.      LDR      r0,[sp,#0xcc]
        0x0001f8dc:    9027        '.      STR      r0,[sp,#0x9c]
        0x0001f8de:    9834        4.      LDR      r0,[sp,#0xd0]
        0x0001f8e0:    9025        %.      STR      r0,[sp,#0x94]
        0x0001f8e2:    a805        ..      ADD      r0,sp,#0x14
        0x0001f8e4:    2180        .!      MOVS     r1,#0x80
        0x0001f8e6:    f7f8fda0    ....    BL       __aeabi_memclr4 ; 0x1842a
        0x0001f8ea:    e7ff        ..      B        0x1f8ec ; mspi_is25wx064_dma_write + 44
        0x0001f8ec:    9829        ).      LDR      r0,[sp,#0xa4]
        0x0001f8ee:    2800        .(      CMP      r0,#0
        0x0001f8f0:    f00080a6    ....    BEQ.W    0x1fa40 ; mspi_is25wx064_dma_write + 384
        0x0001f8f4:    e7ff        ..      B        0x1f8f6 ; mspi_is25wx064_dma_write + 54
        0x0001f8f6:    9834        4.      LDR      r0,[sp,#0xd0]
        0x0001f8f8:    466a        jF      MOV      r2,sp
        0x0001f8fa:    2300        .#      MOVS     r3,#0
        0x0001f8fc:    6053        S`      STR      r3,[r2,#4]
        0x0001f8fe:    a905        ..      ADD      r1,sp,#0x14
        0x0001f900:    6011        .`      STR      r1,[r2,#0]
        0x0001f902:    f2406106    @..a    MOV      r1,#0x606
        0x0001f906:    461a        .F      MOV      r2,r3
        0x0001f908:    f7fefc9c    ....    BL       command_write_combo ; 0x1e244
        0x0001f90c:    9026        &.      STR      r0,[sp,#0x98]
        0x0001f90e:    9826        &.      LDR      r0,[sp,#0x98]
        0x0001f910:    b118        ..      CBZ      r0,0x1f91a ; mspi_is25wx064_dma_write + 90
        0x0001f912:    e7ff        ..      B        0x1f914 ; mspi_is25wx064_dma_write + 84
        0x0001f914:    2001        .       MOVS     r0,#1
        0x0001f916:    9035        5.      STR      r0,[sp,#0xd4]
        0x0001f918:    e095        ..      B        0x1fa46 ; mspi_is25wx064_dma_write + 390
        0x0001f91a:    2001        .       MOVS     r0,#1
        0x0001f91c:    f88d00ac    ....    STRB     r0,[sp,#0xac]
        0x0001f920:    f88d00ad    ....    STRB     r0,[sp,#0xad]
        0x0001f924:    9829        ).      LDR      r0,[sp,#0xa4]
        0x0001f926:    f5b07f80    ....    CMP      r0,#0x100
        0x0001f92a:    d908        ..      BLS      0x1f93e ; mspi_is25wx064_dma_write + 126
        0x0001f92c:    e7ff        ..      B        0x1f92e ; mspi_is25wx064_dma_write + 110
        0x0001f92e:    f44f7080    O..p    MOV      r0,#0x100
        0x0001f932:    902c        ,.      STR      r0,[sp,#0xb0]
        0x0001f934:    9829        ).      LDR      r0,[sp,#0xa4]
        0x0001f936:    f5a07080    ...p    SUB      r0,r0,#0x100
        0x0001f93a:    9029        ).      STR      r0,[sp,#0xa4]
        0x0001f93c:    e004        ..      B        0x1f948 ; mspi_is25wx064_dma_write + 136
        0x0001f93e:    9829        ).      LDR      r0,[sp,#0xa4]
        0x0001f940:    902c        ,.      STR      r0,[sp,#0xb0]
        0x0001f942:    2000        .       MOVS     r0,#0
        0x0001f944:    9029        ).      STR      r0,[sp,#0xa4]
        0x0001f946:    e7ff        ..      B        0x1f948 ; mspi_is25wx064_dma_write + 136
        0x0001f948:    9828        (.      LDR      r0,[sp,#0xa0]
        0x0001f94a:    902d        -.      STR      r0,[sp,#0xb4]
        0x0001f94c:    9828        (.      LDR      r0,[sp,#0xa0]
        0x0001f94e:    f5007080    ...p    ADD      r0,r0,#0x100
        0x0001f952:    9028        (.      STR      r0,[sp,#0xa0]
        0x0001f954:    9827        '.      LDR      r0,[sp,#0x9c]
        0x0001f956:    902e        ..      STR      r0,[sp,#0xb8]
        0x0001f958:    9827        '.      LDR      r0,[sp,#0x9c]
        0x0001f95a:    f5007080    ...p    ADD      r0,r0,#0x100
        0x0001f95e:    9027        '.      STR      r0,[sp,#0x9c]
        0x0001f960:    2000        .       MOVS     r0,#0
        0x0001f962:    902f        /.      STR      r0,[sp,#0xbc]
        0x0001f964:    9030        0.      STR      r0,[sp,#0xc0]
        0x0001f966:    f04f30ff    O..0    MOV      r0,#0xffffffff
        0x0001f96a:    9004        ..      STR      r0,[sp,#0x10]
        0x0001f96c:    9825        %.      LDR      r0,[sp,#0x94]
        0x0001f96e:    6840        @h      LDR      r0,[r0,#4]
        0x0001f970:    466a        jF      MOV      r2,sp
        0x0001f972:    a904        ..      ADD      r1,sp,#0x10
        0x0001f974:    6011        .`      STR      r1,[r2,#0]
        0x0001f976:    f64f336d    O.m3    MOV      r3,#0xfb6d
        0x0001f97a:    f2c00301    ....    MOVT     r3,#1
        0x0001f97e:    a92b        +.      ADD      r1,sp,#0xac
        0x0001f980:    2201        ."      MOVS     r2,#1
        0x0001f982:    f7fcfe78    ..x.    BL       am_hal_mspi_nonblocking_transfer ; 0x1c676
        0x0001f986:    9026        &.      STR      r0,[sp,#0x98]
        0x0001f988:    9826        &.      LDR      r0,[sp,#0x98]
        0x0001f98a:    b118        ..      CBZ      r0,0x1f994 ; mspi_is25wx064_dma_write + 212
        0x0001f98c:    e7ff        ..      B        0x1f98e ; mspi_is25wx064_dma_write + 206
        0x0001f98e:    2001        .       MOVS     r0,#1
        0x0001f990:    9035        5.      STR      r0,[sp,#0xd4]
        0x0001f992:    e058        X.      B        0x1fa46 ; mspi_is25wx064_dma_write + 390
        0x0001f994:    2000        .       MOVS     r0,#0
        0x0001f996:    9003        ..      STR      r0,[sp,#0xc]
        0x0001f998:    e7ff        ..      B        0x1f99a ; mspi_is25wx064_dma_write + 218
        0x0001f99a:    9803        ..      LDR      r0,[sp,#0xc]
        0x0001f99c:    f244213f    D.?!    MOV      r1,#0x423f
        0x0001f9a0:    f2c0010f    ....    MOVT     r1,#0xf
        0x0001f9a4:    4288        .B      CMP      r0,r1
        0x0001f9a6:    d81c        ..      BHI      0x1f9e2 ; mspi_is25wx064_dma_write + 290
        0x0001f9a8:    e7ff        ..      B        0x1f9aa ; mspi_is25wx064_dma_write + 234
        0x0001f9aa:    9825        %.      LDR      r0,[sp,#0x94]
        0x0001f9ac:    6840        @h      LDR      r0,[r0,#4]
        0x0001f9ae:    a926        &.      ADD      r1,sp,#0x98
        0x0001f9b0:    2200        ."      MOVS     r2,#0
        0x0001f9b2:    f7fcfe3f    ..?.    BL       am_hal_mspi_interrupt_status_get ; 0x1c634
        0x0001f9b6:    9825        %.      LDR      r0,[sp,#0x94]
        0x0001f9b8:    6840        @h      LDR      r0,[r0,#4]
        0x0001f9ba:    9926        &.      LDR      r1,[sp,#0x98]
        0x0001f9bc:    f7fcfca0    ....    BL       am_hal_mspi_interrupt_clear ; 0x1c300
        0x0001f9c0:    9825        %.      LDR      r0,[sp,#0x94]
        0x0001f9c2:    6840        @h      LDR      r0,[r0,#4]
        0x0001f9c4:    9926        &.      LDR      r1,[sp,#0x98]
        0x0001f9c6:    f7fcfcdf    ....    BL       am_hal_mspi_interrupt_service ; 0x1c388
        0x0001f9ca:    9804        ..      LDR      r0,[sp,#0x10]
        0x0001f9cc:    b908        ..      CBNZ     r0,0x1f9d2 ; mspi_is25wx064_dma_write + 274
        0x0001f9ce:    e7ff        ..      B        0x1f9d0 ; mspi_is25wx064_dma_write + 272
        0x0001f9d0:    e007        ..      B        0x1f9e2 ; mspi_is25wx064_dma_write + 290
        0x0001f9d2:    2001        .       MOVS     r0,#1
        0x0001f9d4:    f7fdfca4    ....    BL       am_util_delay_us ; 0x1d320
        0x0001f9d8:    e7ff        ..      B        0x1f9da ; mspi_is25wx064_dma_write + 282
        0x0001f9da:    9803        ..      LDR      r0,[sp,#0xc]
        0x0001f9dc:    3001        .0      ADDS     r0,#1
        0x0001f9de:    9003        ..      STR      r0,[sp,#0xc]
        0x0001f9e0:    e7db        ..      B        0x1f99a ; mspi_is25wx064_dma_write + 218
        0x0001f9e2:    9804        ..      LDR      r0,[sp,#0x10]
        0x0001f9e4:    b118        ..      CBZ      r0,0x1f9ee ; mspi_is25wx064_dma_write + 302
        0x0001f9e6:    e7ff        ..      B        0x1f9e8 ; mspi_is25wx064_dma_write + 296
        0x0001f9e8:    2001        .       MOVS     r0,#1
        0x0001f9ea:    9035        5.      STR      r0,[sp,#0xd4]
        0x0001f9ec:    e02b        +.      B        0x1fa46 ; mspi_is25wx064_dma_write + 390
        0x0001f9ee:    9834        4.      LDR      r0,[sp,#0xd0]
        0x0001f9f0:    f2496180    I..a    MOV      r1,#0x9680
        0x0001f9f4:    f2c00198    ....    MOVT     r1,#0x98
        0x0001f9f8:    f7fff9aa    ....    BL       is25wx064_busy_wait_until ; 0x1ed50
        0x0001f9fc:    2803        .(      CMP      r0,#3
        0x0001f9fe:    d104        ..      BNE      0x1fa0a ; mspi_is25wx064_dma_write + 330
        0x0001fa00:    e7ff        ..      B        0x1fa02 ; mspi_is25wx064_dma_write + 322
        0x0001fa02:    2001        .       MOVS     r0,#1
        0x0001fa04:    f88d00ab    ....    STRB     r0,[sp,#0xab]
        0x0001fa08:    e7ff        ..      B        0x1fa0a ; mspi_is25wx064_dma_write + 330
        0x0001fa0a:    f89d00ab    ....    LDRB     r0,[sp,#0xab]
        0x0001fa0e:    07c0        ..      LSLS     r0,r0,#31
        0x0001fa10:    b918        ..      CBNZ     r0,0x1fa1a ; mspi_is25wx064_dma_write + 346
        0x0001fa12:    e7ff        ..      B        0x1fa14 ; mspi_is25wx064_dma_write + 340
        0x0001fa14:    2001        .       MOVS     r0,#1
        0x0001fa16:    9035        5.      STR      r0,[sp,#0xd4]
        0x0001fa18:    e015        ..      B        0x1fa46 ; mspi_is25wx064_dma_write + 390
        0x0001fa1a:    9834        4.      LDR      r0,[sp,#0xd0]
        0x0001fa1c:    466a        jF      MOV      r2,sp
        0x0001fa1e:    2300        .#      MOVS     r3,#0
        0x0001fa20:    6053        S`      STR      r3,[r2,#4]
        0x0001fa22:    a905        ..      ADD      r1,sp,#0x14
        0x0001fa24:    6011        .`      STR      r1,[r2,#0]
        0x0001fa26:    f2404104    @..A    MOV      r1,#0x404
        0x0001fa2a:    461a        .F      MOV      r2,r3
        0x0001fa2c:    f7fefc0a    ....    BL       command_write_combo ; 0x1e244
        0x0001fa30:    9026        &.      STR      r0,[sp,#0x98]
        0x0001fa32:    9826        &.      LDR      r0,[sp,#0x98]
        0x0001fa34:    b118        ..      CBZ      r0,0x1fa3e ; mspi_is25wx064_dma_write + 382
        0x0001fa36:    e7ff        ..      B        0x1fa38 ; mspi_is25wx064_dma_write + 376
        0x0001fa38:    2001        .       MOVS     r0,#1
        0x0001fa3a:    9035        5.      STR      r0,[sp,#0xd4]
        0x0001fa3c:    e003        ..      B        0x1fa46 ; mspi_is25wx064_dma_write + 390
        0x0001fa3e:    e755        U.      B        0x1f8ec ; mspi_is25wx064_dma_write + 44
        0x0001fa40:    2000        .       MOVS     r0,#0
        0x0001fa42:    9035        5.      STR      r0,[sp,#0xd4]
        0x0001fa44:    e7ff        ..      B        0x1fa46 ; mspi_is25wx064_dma_write + 390
        0x0001fa46:    9835        5.      LDR      r0,[sp,#0xd4]
        0x0001fa48:    b036        6.      ADD      sp,sp,#0xd8
        0x0001fa4a:    bd80        ..      POP      {r7,pc}
    mspi_seq_loopback
        0x0001fa4c:    f8d01830    ..0.    LDR      r1,[r0,#0x830]
        0x0001fa50:    2200        ."      MOVS     r2,#0
        0x0001fa52:    3101        .1      ADDS     r1,#1
        0x0001fa54:    e9c02107    ...!    STRD     r2,r1,[r0,#0x1c]
        0x0001fa58:    2101        .!      MOVS     r1,#1
        0x0001fa5a:    f8801834    ..4.    STRB     r1,[r0,#0x834]
        0x0001fa5e:    6840        @h      LDR      r0,[r0,#4]
        0x0001fa60:    f24021b4    @..!    MOVW     r1,#0x2b4
        0x0001fa64:    0300        ..      LSLS     r0,r0,#12
        0x0001fa66:    f2c40106    ....    MOVT     r1,#0x4006
        0x0001fa6a:    2240        @"      MOVS     r2,#0x40
        0x0001fa6c:    500a        .P      STR      r2,[r1,r0]
        0x0001fa6e:    4770        pG      BX       lr
    ndigits_in_hex
        0x0001fa70:    b084        ..      SUB      sp,sp,#0x10
        0x0001fa72:    9103        ..      STR      r1,[sp,#0xc]
        0x0001fa74:    9002        ..      STR      r0,[sp,#8]
        0x0001fa76:    9802        ..      LDR      r0,[sp,#8]
        0x0001fa78:    9903        ..      LDR      r1,[sp,#0xc]
        0x0001fa7a:    4308        .C      ORRS     r0,r0,r1
        0x0001fa7c:    fab0f080    ....    CLZ      r0,r0
        0x0001fa80:    0940        @.      LSRS     r0,r0,#5
        0x0001fa82:    9001        ..      STR      r0,[sp,#4]
        0x0001fa84:    e7ff        ..      B        0x1fa86 ; ndigits_in_hex + 22
        0x0001fa86:    9802        ..      LDR      r0,[sp,#8]
        0x0001fa88:    9903        ..      LDR      r1,[sp,#0xc]
        0x0001fa8a:    4308        .C      ORRS     r0,r0,r1
        0x0001fa8c:    b160        `.      CBZ      r0,0x1faa8 ; ndigits_in_hex + 56
        0x0001fa8e:    e7ff        ..      B        0x1fa90 ; ndigits_in_hex + 32
        0x0001fa90:    9802        ..      LDR      r0,[sp,#8]
        0x0001fa92:    9903        ..      LDR      r1,[sp,#0xc]
        0x0001fa94:    0900        ..      LSRS     r0,r0,#4
        0x0001fa96:    ea407001    @..p    ORR      r0,r0,r1,LSL #28
        0x0001fa9a:    0909        ..      LSRS     r1,r1,#4
        0x0001fa9c:    9103        ..      STR      r1,[sp,#0xc]
        0x0001fa9e:    9002        ..      STR      r0,[sp,#8]
        0x0001faa0:    9801        ..      LDR      r0,[sp,#4]
        0x0001faa2:    3001        .0      ADDS     r0,#1
        0x0001faa4:    9001        ..      STR      r0,[sp,#4]
        0x0001faa6:    e7ee        ..      B        0x1fa86 ; ndigits_in_hex + 22
        0x0001faa8:    9801        ..      LDR      r0,[sp,#4]
        0x0001faaa:    b004        ..      ADD      sp,sp,#0x10
        0x0001faac:    4770        pG      BX       lr
        0x0001faae:    0000        ..      MOVS     r0,r0
    ndigits_in_i64
        0x0001fab0:    b580        ..      PUSH     {r7,lr}
        0x0001fab2:    b082        ..      SUB      sp,sp,#8
        0x0001fab4:    9101        ..      STR      r1,[sp,#4]
        0x0001fab6:    9000        ..      STR      r0,[sp,#0]
        0x0001fab8:    9801        ..      LDR      r0,[sp,#4]
        0x0001faba:    f1b03fff    ...?    CMP      r0,#0xffffffff
        0x0001fabe:    dc09        ..      BGT      0x1fad4 ; ndigits_in_i64 + 36
        0x0001fac0:    e7ff        ..      B        0x1fac2 ; ndigits_in_i64 + 18
        0x0001fac2:    9800        ..      LDR      r0,[sp,#0]
        0x0001fac4:    9a01        ..      LDR      r2,[sp,#4]
        0x0001fac6:    4241        AB      RSBS     r1,r0,#0
        0x0001fac8:    f04f0000    O...    MOV      r0,#0
        0x0001facc:    4190        .A      SBCS     r0,r0,r2
        0x0001face:    9100        ..      STR      r1,[sp,#0]
        0x0001fad0:    9001        ..      STR      r0,[sp,#4]
        0x0001fad2:    e7ff        ..      B        0x1fad4 ; ndigits_in_i64 + 36
        0x0001fad4:    9800        ..      LDR      r0,[sp,#0]
        0x0001fad6:    9901        ..      LDR      r1,[sp,#4]
        0x0001fad8:    f000f802    ....    BL       ndigits_in_u64 ; 0x1fae0
        0x0001fadc:    b002        ..      ADD      sp,sp,#8
        0x0001fade:    bd80        ..      POP      {r7,pc}
    ndigits_in_u64
        0x0001fae0:    b580        ..      PUSH     {r7,lr}
        0x0001fae2:    b084        ..      SUB      sp,sp,#0x10
        0x0001fae4:    9103        ..      STR      r1,[sp,#0xc]
        0x0001fae6:    9002        ..      STR      r0,[sp,#8]
        0x0001fae8:    9802        ..      LDR      r0,[sp,#8]
        0x0001faea:    9903        ..      LDR      r1,[sp,#0xc]
        0x0001faec:    4308        .C      ORRS     r0,r0,r1
        0x0001faee:    fab0f080    ....    CLZ      r0,r0
        0x0001faf2:    0940        @.      LSRS     r0,r0,#5
        0x0001faf4:    9001        ..      STR      r0,[sp,#4]
        0x0001faf6:    e7ff        ..      B        0x1faf8 ; ndigits_in_u64 + 24
        0x0001faf8:    9802        ..      LDR      r0,[sp,#8]
        0x0001fafa:    9903        ..      LDR      r1,[sp,#0xc]
        0x0001fafc:    4308        .C      ORRS     r0,r0,r1
        0x0001fafe:    b150        P.      CBZ      r0,0x1fb16 ; ndigits_in_u64 + 54
        0x0001fb00:    e7ff        ..      B        0x1fb02 ; ndigits_in_u64 + 34
        0x0001fb02:    9802        ..      LDR      r0,[sp,#8]
        0x0001fb04:    9903        ..      LDR      r1,[sp,#0xc]
        0x0001fb06:    f7fefdf5    ....    BL       divu64_10 ; 0x1e6f4
        0x0001fb0a:    9103        ..      STR      r1,[sp,#0xc]
        0x0001fb0c:    9002        ..      STR      r0,[sp,#8]
        0x0001fb0e:    9801        ..      LDR      r0,[sp,#4]
        0x0001fb10:    3001        .0      ADDS     r0,#1
        0x0001fb12:    9001        ..      STR      r0,[sp,#4]
        0x0001fb14:    e7f0        ..      B        0x1faf8 ; ndigits_in_u64 + 24
        0x0001fb16:    9801        ..      LDR      r0,[sp,#4]
        0x0001fb18:    b004        ..      ADD      sp,sp,#0x10
        0x0001fb1a:    bd80        ..      POP      {r7,pc}
    padbuffer
        0x0001fb1c:    b085        ..      SUB      sp,sp,#0x14
        0x0001fb1e:    9003        ..      STR      r0,[sp,#0xc]
        0x0001fb20:    f88d100b    ....    STRB     r1,[sp,#0xb]
        0x0001fb24:    9201        ..      STR      r2,[sp,#4]
        0x0001fb26:    2000        .       MOVS     r0,#0
        0x0001fb28:    9000        ..      STR      r0,[sp,#0]
        0x0001fb2a:    9801        ..      LDR      r0,[sp,#4]
        0x0001fb2c:    2800        .(      CMP      r0,#0
        0x0001fb2e:    dc03        ..      BGT      0x1fb38 ; padbuffer + 28
        0x0001fb30:    e7ff        ..      B        0x1fb32 ; padbuffer + 22
        0x0001fb32:    9800        ..      LDR      r0,[sp,#0]
        0x0001fb34:    9004        ..      STR      r0,[sp,#0x10]
        0x0001fb36:    e016        ..      B        0x1fb66 ; padbuffer + 74
        0x0001fb38:    e7ff        ..      B        0x1fb3a ; padbuffer + 30
        0x0001fb3a:    9801        ..      LDR      r0,[sp,#4]
        0x0001fb3c:    1e41        A.      SUBS     r1,r0,#1
        0x0001fb3e:    9101        ..      STR      r1,[sp,#4]
        0x0001fb40:    b170        p.      CBZ      r0,0x1fb60 ; padbuffer + 68
        0x0001fb42:    e7ff        ..      B        0x1fb44 ; padbuffer + 40
        0x0001fb44:    9803        ..      LDR      r0,[sp,#0xc]
        0x0001fb46:    b138        8.      CBZ      r0,0x1fb58 ; padbuffer + 60
        0x0001fb48:    e7ff        ..      B        0x1fb4a ; padbuffer + 46
        0x0001fb4a:    f89d000b    ....    LDRB     r0,[sp,#0xb]
        0x0001fb4e:    9903        ..      LDR      r1,[sp,#0xc]
        0x0001fb50:    1c4a        J.      ADDS     r2,r1,#1
        0x0001fb52:    9203        ..      STR      r2,[sp,#0xc]
        0x0001fb54:    7008        .p      STRB     r0,[r1,#0]
        0x0001fb56:    e7ff        ..      B        0x1fb58 ; padbuffer + 60
        0x0001fb58:    9800        ..      LDR      r0,[sp,#0]
        0x0001fb5a:    3001        .0      ADDS     r0,#1
        0x0001fb5c:    9000        ..      STR      r0,[sp,#0]
        0x0001fb5e:    e7ec        ..      B        0x1fb3a ; padbuffer + 30
        0x0001fb60:    9800        ..      LDR      r0,[sp,#0]
        0x0001fb62:    9004        ..      STR      r0,[sp,#0x10]
        0x0001fb64:    e7ff        ..      B        0x1fb66 ; padbuffer + 74
        0x0001fb66:    9804        ..      LDR      r0,[sp,#0x10]
        0x0001fb68:    b005        ..      ADD      sp,sp,#0x14
        0x0001fb6a:    4770        pG      BX       lr
    pfnMSPI_IS25WX064_Callback
        0x0001fb6c:    b082        ..      SUB      sp,sp,#8
        0x0001fb6e:    9001        ..      STR      r0,[sp,#4]
        0x0001fb70:    9100        ..      STR      r1,[sp,#0]
        0x0001fb72:    9800        ..      LDR      r0,[sp,#0]
        0x0001fb74:    9901        ..      LDR      r1,[sp,#4]
        0x0001fb76:    6008        .`      STR      r0,[r1,#0]
        0x0001fb78:    b002        ..      ADD      sp,sp,#8
        0x0001fb7a:    4770        pG      BX       lr
    prepare_test_pattern
        0x0001fb7c:    b08d        ..      SUB      sp,sp,#0x34
        0x0001fb7e:    900b        ..      STR      r0,[sp,#0x2c]
        0x0001fb80:    910a        ..      STR      r1,[sp,#0x28]
        0x0001fb82:    9209        ..      STR      r2,[sp,#0x24]
        0x0001fb84:    980a        ..      LDR      r0,[sp,#0x28]
        0x0001fb86:    9008        ..      STR      r0,[sp,#0x20]
        0x0001fb88:    980a        ..      LDR      r0,[sp,#0x28]
        0x0001fb8a:    9007        ..      STR      r0,[sp,#0x1c]
        0x0001fb8c:    f89d0024    ..$.    LDRB     r0,[sp,#0x24]
        0x0001fb90:    0780        ..      LSLS     r0,r0,#30
        0x0001fb92:    b120         .      CBZ      r0,0x1fb9e ; prepare_test_pattern + 34
        0x0001fb94:    e7ff        ..      B        0x1fb96 ; prepare_test_pattern + 26
        0x0001fb96:    f04f30ff    O..0    MOV      r0,#0xffffffff
        0x0001fb9a:    900c        ..      STR      r0,[sp,#0x30]
        0x0001fb9c:    e085        ..      B        0x1fcaa ; prepare_test_pattern + 302
        0x0001fb9e:    980b        ..      LDR      r0,[sp,#0x2c]
        0x0001fba0:    9000        ..      STR      r0,[sp,#0]
        0x0001fba2:    2804        .(      CMP      r0,#4
        0x0001fba4:    d86c        l.      BHI      0x1fc80 ; prepare_test_pattern + 260
        0x0001fba6:    9900        ..      LDR      r1,[sp,#0]
        0x0001fba8:    e8dff001    ....    TBB      [pc,r1]
    $d.40
        0x0001fbac:    45301a03    ..0E    DCD    1160780291
        0x0001fbb0:    0057        W.      DCW    87
    $t.41
        0x0001fbb2:    2000        .       MOVS     r0,#0
        0x0001fbb4:    9006        ..      STR      r0,[sp,#0x18]
        0x0001fbb6:    e7ff        ..      B        0x1fbb8 ; prepare_test_pattern + 60
        0x0001fbb8:    9806        ..      LDR      r0,[sp,#0x18]
        0x0001fbba:    9909        ..      LDR      r1,[sp,#0x24]
        0x0001fbbc:    ebb00f91    ....    CMP      r0,r1,LSR #2
        0x0001fbc0:    d20d        ..      BCS      0x1fbde ; prepare_test_pattern + 98
        0x0001fbc2:    e7ff        ..      B        0x1fbc4 ; prepare_test_pattern + 72
        0x0001fbc4:    9908        ..      LDR      r1,[sp,#0x20]
        0x0001fbc6:    9a06        ..      LDR      r2,[sp,#0x18]
        0x0001fbc8:    f64a20aa    J..     MOV      r0,#0xaaaa
        0x0001fbcc:    f2c55055    ..UP    MOVT     r0,#0x5555
        0x0001fbd0:    f8410022    A.".    STR      r0,[r1,r2,LSL #2]
        0x0001fbd4:    e7ff        ..      B        0x1fbd6 ; prepare_test_pattern + 90
        0x0001fbd6:    9806        ..      LDR      r0,[sp,#0x18]
        0x0001fbd8:    3001        .0      ADDS     r0,#1
        0x0001fbda:    9006        ..      STR      r0,[sp,#0x18]
        0x0001fbdc:    e7ec        ..      B        0x1fbb8 ; prepare_test_pattern + 60
        0x0001fbde:    e061        a.      B        0x1fca4 ; prepare_test_pattern + 296
        0x0001fbe0:    2000        .       MOVS     r0,#0
        0x0001fbe2:    9005        ..      STR      r0,[sp,#0x14]
        0x0001fbe4:    e7ff        ..      B        0x1fbe6 ; prepare_test_pattern + 106
        0x0001fbe6:    9805        ..      LDR      r0,[sp,#0x14]
        0x0001fbe8:    9909        ..      LDR      r1,[sp,#0x24]
        0x0001fbea:    ebb00f91    ....    CMP      r0,r1,LSR #2
        0x0001fbee:    d20c        ..      BCS      0x1fc0a ; prepare_test_pattern + 142
        0x0001fbf0:    e7ff        ..      B        0x1fbf2 ; prepare_test_pattern + 118
        0x0001fbf2:    9908        ..      LDR      r1,[sp,#0x20]
        0x0001fbf4:    9a05        ..      LDR      r2,[sp,#0x14]
        0x0001fbf6:    2000        .       MOVS     r0,#0
        0x0001fbf8:    f6cf70ff    ...p    MOVT     r0,#0xffff
        0x0001fbfc:    f8410022    A.".    STR      r0,[r1,r2,LSL #2]
        0x0001fc00:    e7ff        ..      B        0x1fc02 ; prepare_test_pattern + 134
        0x0001fc02:    9805        ..      LDR      r0,[sp,#0x14]
        0x0001fc04:    3001        .0      ADDS     r0,#1
        0x0001fc06:    9005        ..      STR      r0,[sp,#0x14]
        0x0001fc08:    e7ed        ..      B        0x1fbe6 ; prepare_test_pattern + 106
        0x0001fc0a:    e04b        K.      B        0x1fca4 ; prepare_test_pattern + 296
        0x0001fc0c:    2000        .       MOVS     r0,#0
        0x0001fc0e:    9004        ..      STR      r0,[sp,#0x10]
        0x0001fc10:    e7ff        ..      B        0x1fc12 ; prepare_test_pattern + 150
        0x0001fc12:    9804        ..      LDR      r0,[sp,#0x10]
        0x0001fc14:    9909        ..      LDR      r1,[sp,#0x24]
        0x0001fc16:    4288        .B      CMP      r0,r1
        0x0001fc18:    d20c        ..      BCS      0x1fc34 ; prepare_test_pattern + 184
        0x0001fc1a:    e7ff        ..      B        0x1fc1c ; prepare_test_pattern + 160
        0x0001fc1c:    9a04        ..      LDR      r2,[sp,#0x10]
        0x0001fc1e:    f0020107    ....    AND      r1,r2,#7
        0x0001fc22:    2001        .       MOVS     r0,#1
        0x0001fc24:    4088        .@      LSLS     r0,r0,r1
        0x0001fc26:    9907        ..      LDR      r1,[sp,#0x1c]
        0x0001fc28:    5488        .T      STRB     r0,[r1,r2]
        0x0001fc2a:    e7ff        ..      B        0x1fc2c ; prepare_test_pattern + 176
        0x0001fc2c:    9804        ..      LDR      r0,[sp,#0x10]
        0x0001fc2e:    3001        .0      ADDS     r0,#1
        0x0001fc30:    9004        ..      STR      r0,[sp,#0x10]
        0x0001fc32:    e7ee        ..      B        0x1fc12 ; prepare_test_pattern + 150
        0x0001fc34:    e036        6.      B        0x1fca4 ; prepare_test_pattern + 296
        0x0001fc36:    2000        .       MOVS     r0,#0
        0x0001fc38:    9003        ..      STR      r0,[sp,#0xc]
        0x0001fc3a:    e7ff        ..      B        0x1fc3c ; prepare_test_pattern + 192
        0x0001fc3c:    9803        ..      LDR      r0,[sp,#0xc]
        0x0001fc3e:    9909        ..      LDR      r1,[sp,#0x24]
        0x0001fc40:    4288        .B      CMP      r0,r1
        0x0001fc42:    d209        ..      BCS      0x1fc58 ; prepare_test_pattern + 220
        0x0001fc44:    e7ff        ..      B        0x1fc46 ; prepare_test_pattern + 202
        0x0001fc46:    9a03        ..      LDR      r2,[sp,#0xc]
        0x0001fc48:    1c50        P.      ADDS     r0,r2,#1
        0x0001fc4a:    9907        ..      LDR      r1,[sp,#0x1c]
        0x0001fc4c:    5488        .T      STRB     r0,[r1,r2]
        0x0001fc4e:    e7ff        ..      B        0x1fc50 ; prepare_test_pattern + 212
        0x0001fc50:    9803        ..      LDR      r0,[sp,#0xc]
        0x0001fc52:    3001        .0      ADDS     r0,#1
        0x0001fc54:    9003        ..      STR      r0,[sp,#0xc]
        0x0001fc56:    e7f1        ..      B        0x1fc3c ; prepare_test_pattern + 192
        0x0001fc58:    e024        $.      B        0x1fca4 ; prepare_test_pattern + 296
        0x0001fc5a:    2000        .       MOVS     r0,#0
        0x0001fc5c:    9002        ..      STR      r0,[sp,#8]
        0x0001fc5e:    e7ff        ..      B        0x1fc60 ; prepare_test_pattern + 228
        0x0001fc60:    9802        ..      LDR      r0,[sp,#8]
        0x0001fc62:    9909        ..      LDR      r1,[sp,#0x24]
        0x0001fc64:    4288        .B      CMP      r0,r1
        0x0001fc66:    d20a        ..      BCS      0x1fc7e ; prepare_test_pattern + 258
        0x0001fc68:    e7ff        ..      B        0x1fc6a ; prepare_test_pattern + 238
        0x0001fc6a:    9a02        ..      LDR      r2,[sp,#8]
        0x0001fc6c:    f1c200ff    ....    RSB      r0,r2,#0xff
        0x0001fc70:    9907        ..      LDR      r1,[sp,#0x1c]
        0x0001fc72:    5488        .T      STRB     r0,[r1,r2]
        0x0001fc74:    e7ff        ..      B        0x1fc76 ; prepare_test_pattern + 250
        0x0001fc76:    9802        ..      LDR      r0,[sp,#8]
        0x0001fc78:    3001        .0      ADDS     r0,#1
        0x0001fc7a:    9002        ..      STR      r0,[sp,#8]
        0x0001fc7c:    e7f0        ..      B        0x1fc60 ; prepare_test_pattern + 228
        0x0001fc7e:    e011        ..      B        0x1fca4 ; prepare_test_pattern + 296
        0x0001fc80:    2000        .       MOVS     r0,#0
        0x0001fc82:    9001        ..      STR      r0,[sp,#4]
        0x0001fc84:    e7ff        ..      B        0x1fc86 ; prepare_test_pattern + 266
        0x0001fc86:    9801        ..      LDR      r0,[sp,#4]
        0x0001fc88:    9909        ..      LDR      r1,[sp,#0x24]
        0x0001fc8a:    4288        .B      CMP      r0,r1
        0x0001fc8c:    d209        ..      BCS      0x1fca2 ; prepare_test_pattern + 294
        0x0001fc8e:    e7ff        ..      B        0x1fc90 ; prepare_test_pattern + 276
        0x0001fc90:    9a01        ..      LDR      r2,[sp,#4]
        0x0001fc92:    1c50        P.      ADDS     r0,r2,#1
        0x0001fc94:    9907        ..      LDR      r1,[sp,#0x1c]
        0x0001fc96:    5488        .T      STRB     r0,[r1,r2]
        0x0001fc98:    e7ff        ..      B        0x1fc9a ; prepare_test_pattern + 286
        0x0001fc9a:    9801        ..      LDR      r0,[sp,#4]
        0x0001fc9c:    3001        .0      ADDS     r0,#1
        0x0001fc9e:    9001        ..      STR      r0,[sp,#4]
        0x0001fca0:    e7f1        ..      B        0x1fc86 ; prepare_test_pattern + 266
        0x0001fca2:    e7ff        ..      B        0x1fca4 ; prepare_test_pattern + 296
        0x0001fca4:    2000        .       MOVS     r0,#0
        0x0001fca6:    900c        ..      STR      r0,[sp,#0x30]
        0x0001fca8:    e7ff        ..      B        0x1fcaa ; prepare_test_pattern + 302
        0x0001fcaa:    980c        ..      LDR      r0,[sp,#0x30]
        0x0001fcac:    b00d        ..      ADD      sp,sp,#0x34
        0x0001fcae:    4770        pG      BX       lr
    sched_hiprio
        0x0001fcb0:    b570        p.      PUSH     {r4-r6,lr}
        0x0001fcb2:    b082        ..      SUB      sp,sp,#8
        0x0001fcb4:    460d        .F      MOV      r5,r1
        0x0001fcb6:    4604        .F      MOV      r4,r0
        0x0001fcb8:    f7fbf9bc    ....    BL       am_hal_interrupt_master_disable ; 0x1b034
        0x0001fcbc:    9001        ..      STR      r0,[sp,#4]
        0x0001fcbe:    f8d46840    ..@h    LDR      r6,[r4,#0x840]
        0x0001fcc2:    1970        p.      ADDS     r0,r6,r5
        0x0001fcc4:    f8c40840    ..@.    STR      r0,[r4,#0x840]
        0x0001fcc8:    9801        ..      LDR      r0,[sp,#4]
        0x0001fcca:    f7fbf9bb    ....    BL       am_hal_interrupt_master_set ; 0x1b044
        0x0001fcce:    b10e        ..      CBZ      r6,0x1fcd4 ; sched_hiprio + 36
        0x0001fcd0:    2000        .       MOVS     r0,#0
        0x0001fcd2:    e03b        ;.      B        0x1fd4c ; sched_hiprio + 156
        0x0001fcd4:    4620         F      MOV      r0,r4
        0x0001fcd6:    f7fffbb3    ....    BL       mspi_cq_pause ; 0x1f440
        0x0001fcda:    bbb8        ..      CBNZ     r0,0x1fd4c ; sched_hiprio + 156
        0x0001fcdc:    6861        ah      LDR      r1,[r4,#4]
        0x0001fcde:    2200        ."      MOVS     r2,#0
        0x0001fce0:    f2c40206    ....    MOVT     r2,#0x4006
        0x0001fce4:    2000        .       MOVS     r0,#0
        0x0001fce6:    eb023101    ...1    ADD      r1,r2,r1,LSL #12
        0x0001fcea:    2340        @#      MOVS     r3,#0x40
        0x0001fcec:    6260        `b      STR      r0,[r4,#0x24]
        0x0001fcee:    f8c13208    ...2    STR      r3,[r1,#0x208]
        0x0001fcf2:    6861        ah      LDR      r1,[r4,#4]
        0x0001fcf4:    eb023101    ...1    ADD      r1,r2,r1,LSL #12
        0x0001fcf8:    f8d13200    ...2    LDR      r3,[r1,#0x200]
        0x0001fcfc:    f0430340    C.@.    ORR      r3,r3,#0x40
        0x0001fd00:    f8c13200    ...2    STR      r3,[r1,#0x200]
        0x0001fd04:    2101        .!      MOVS     r1,#1
        0x0001fd06:    f884183c    ..<.    STRB     r1,[r4,#0x83c]
        0x0001fd0a:    f8d43850    ..P8    LDR      r3,[r4,#0x850]
        0x0001fd0e:    f8d46848    ..Hh    LDR      r6,[r4,#0x848]
        0x0001fd12:    3301        .3      ADDS     r3,#1
        0x0001fd14:    fbb3f5f6    ....    UDIV     r5,r3,r6
        0x0001fd18:    6861        ah      LDR      r1,[r4,#4]
        0x0001fd1a:    fb053316    ...3    MLS      r3,r5,r6,r3
        0x0001fd1e:    f8d44854    ..TH    LDR      r4,[r4,#0x854]
        0x0001fd22:    eb023101    ...1    ADD      r1,r2,r1,LSL #12
        0x0001fd26:    f8c10100    ....    STR      r0,[r1,#0x100]
        0x0001fd2a:    eb030243    ..C.    ADD      r2,r3,r3,LSL #1
        0x0001fd2e:    f8543032    T.20    LDR      r3,[r4,r2,LSL #3]
        0x0001fd32:    eb0402c2    ....    ADD      r2,r4,r2,LSL #3
        0x0001fd36:    f8c13108    ...1    STR      r3,[r1,#0x108]
        0x0001fd3a:    6853        Sh      LDR      r3,[r2,#4]
        0x0001fd3c:    f8c1310c    ...1    STR      r3,[r1,#0x10c]
        0x0001fd40:    6893        .h      LDR      r3,[r2,#8]
        0x0001fd42:    f8c13110    ...1    STR      r3,[r1,#0x110]
        0x0001fd46:    68d2        .h      LDR      r2,[r2,#0xc]
        0x0001fd48:    f8c12100    ...!    STR      r2,[r1,#0x100]
        0x0001fd4c:    b002        ..      ADD      sp,sp,#8
        0x0001fd4e:    bd70        p.      POP      {r4-r6,pc}
    simple_strlen
        0x0001fd50:    b083        ..      SUB      sp,sp,#0xc
        0x0001fd52:    9001        ..      STR      r0,[sp,#4]
        0x0001fd54:    2000        .       MOVS     r0,#0
        0x0001fd56:    9000        ..      STR      r0,[sp,#0]
        0x0001fd58:    9801        ..      LDR      r0,[sp,#4]
        0x0001fd5a:    b918        ..      CBNZ     r0,0x1fd64 ; simple_strlen + 20
        0x0001fd5c:    e7ff        ..      B        0x1fd5e ; simple_strlen + 14
        0x0001fd5e:    9800        ..      LDR      r0,[sp,#0]
        0x0001fd60:    9002        ..      STR      r0,[sp,#8]
        0x0001fd62:    e00d        ..      B        0x1fd80 ; simple_strlen + 48
        0x0001fd64:    e7ff        ..      B        0x1fd66 ; simple_strlen + 22
        0x0001fd66:    9801        ..      LDR      r0,[sp,#4]
        0x0001fd68:    1c41        A.      ADDS     r1,r0,#1
        0x0001fd6a:    9101        ..      STR      r1,[sp,#4]
        0x0001fd6c:    7800        .x      LDRB     r0,[r0,#0]
        0x0001fd6e:    b120         .      CBZ      r0,0x1fd7a ; simple_strlen + 42
        0x0001fd70:    e7ff        ..      B        0x1fd72 ; simple_strlen + 34
        0x0001fd72:    9800        ..      LDR      r0,[sp,#0]
        0x0001fd74:    3001        .0      ADDS     r0,#1
        0x0001fd76:    9000        ..      STR      r0,[sp,#0]
        0x0001fd78:    e7f5        ..      B        0x1fd66 ; simple_strlen + 22
        0x0001fd7a:    9800        ..      LDR      r0,[sp,#0]
        0x0001fd7c:    9002        ..      STR      r0,[sp,#8]
        0x0001fd7e:    e7ff        ..      B        0x1fd80 ; simple_strlen + 48
        0x0001fd80:    9802        ..      LDR      r0,[sp,#8]
        0x0001fd82:    b003        ..      ADD      sp,sp,#0xc
        0x0001fd84:    4770        pG      BX       lr
        0x0001fd86:    0000        ..      MOVS     r0,r0
    uint64_to_hexstr
        0x0001fd88:    b08c        ..      SUB      sp,sp,#0x30
        0x0001fd8a:    910b        ..      STR      r1,[sp,#0x2c]
        0x0001fd8c:    900a        ..      STR      r0,[sp,#0x28]
        0x0001fd8e:    9209        ..      STR      r2,[sp,#0x24]
        0x0001fd90:    f88d3023    ..#0    STRB     r3,[sp,#0x23]
        0x0001fd94:    2000        .       MOVS     r0,#0
        0x0001fd96:    9006        ..      STR      r0,[sp,#0x18]
        0x0001fd98:    980a        ..      LDR      r0,[sp,#0x28]
        0x0001fd9a:    990b        ..      LDR      r1,[sp,#0x2c]
        0x0001fd9c:    4308        .C      ORRS     r0,r0,r1
        0x0001fd9e:    b940        @.      CBNZ     r0,0x1fdb2 ; uint64_to_hexstr + 42
        0x0001fda0:    e7ff        ..      B        0x1fda2 ; uint64_to_hexstr + 26
        0x0001fda2:    9a06        ..      LDR      r2,[sp,#0x18]
        0x0001fda4:    1c50        P.      ADDS     r0,r2,#1
        0x0001fda6:    9006        ..      STR      r0,[sp,#0x18]
        0x0001fda8:    f10d0103    ....    ADD      r1,sp,#3
        0x0001fdac:    2030        0       MOVS     r0,#0x30
        0x0001fdae:    5488        .T      STRB     r0,[r1,r2]
        0x0001fdb0:    e7ff        ..      B        0x1fdb2 ; uint64_to_hexstr + 42
        0x0001fdb2:    e7ff        ..      B        0x1fdb4 ; uint64_to_hexstr + 44
        0x0001fdb4:    980a        ..      LDR      r0,[sp,#0x28]
        0x0001fdb6:    990b        ..      LDR      r1,[sp,#0x2c]
        0x0001fdb8:    4308        .C      ORRS     r0,r0,r1
        0x0001fdba:    b350        P.      CBZ      r0,0x1fe12 ; uint64_to_hexstr + 138
        0x0001fdbc:    e7ff        ..      B        0x1fdbe ; uint64_to_hexstr + 54
        0x0001fdbe:    f89d0028    ..(.    LDRB     r0,[sp,#0x28]
        0x0001fdc2:    f000000f    ....    AND      r0,r0,#0xf
        0x0001fdc6:    f88d0017    ....    STRB     r0,[sp,#0x17]
        0x0001fdca:    f89d0017    ....    LDRB     r0,[sp,#0x17]
        0x0001fdce:    280a        .(      CMP      r0,#0xa
        0x0001fdd0:    db0d        ..      BLT      0x1fdee ; uint64_to_hexstr + 102
        0x0001fdd2:    e7ff        ..      B        0x1fdd4 ; uint64_to_hexstr + 76
        0x0001fdd4:    f89d0023    ..#.    LDRB     r0,[sp,#0x23]
        0x0001fdd8:    07c0        ..      LSLS     r0,r0,#31
        0x0001fdda:    2107        .!      MOVS     r1,#7
        0x0001fddc:    2800        .(      CMP      r0,#0
        0x0001fdde:    bf18        ..      IT       NE
        0x0001fde0:    2127        '!      MOVNE    r1,#0x27
        0x0001fde2:    f89d0017    ....    LDRB     r0,[sp,#0x17]
        0x0001fde6:    4408        .D      ADD      r0,r0,r1
        0x0001fde8:    f88d0017    ....    STRB     r0,[sp,#0x17]
        0x0001fdec:    e7ff        ..      B        0x1fdee ; uint64_to_hexstr + 102
        0x0001fdee:    f89d0017    ....    LDRB     r0,[sp,#0x17]
        0x0001fdf2:    3030        00      ADDS     r0,r0,#0x30
        0x0001fdf4:    9a06        ..      LDR      r2,[sp,#0x18]
        0x0001fdf6:    1c51        Q.      ADDS     r1,r2,#1
        0x0001fdf8:    9106        ..      STR      r1,[sp,#0x18]
        0x0001fdfa:    f10d0103    ....    ADD      r1,sp,#3
        0x0001fdfe:    5488        .T      STRB     r0,[r1,r2]
        0x0001fe00:    980a        ..      LDR      r0,[sp,#0x28]
        0x0001fe02:    990b        ..      LDR      r1,[sp,#0x2c]
        0x0001fe04:    0900        ..      LSRS     r0,r0,#4
        0x0001fe06:    ea407001    @..p    ORR      r0,r0,r1,LSL #28
        0x0001fe0a:    0909        ..      LSRS     r1,r1,#4
        0x0001fe0c:    910b        ..      STR      r1,[sp,#0x2c]
        0x0001fe0e:    900a        ..      STR      r0,[sp,#0x28]
        0x0001fe10:    e7d0        ..      B        0x1fdb4 ; uint64_to_hexstr + 44
        0x0001fe12:    9806        ..      LDR      r0,[sp,#0x18]
        0x0001fe14:    9007        ..      STR      r0,[sp,#0x1c]
        0x0001fe16:    9809        ..      LDR      r0,[sp,#0x24]
        0x0001fe18:    b198        ..      CBZ      r0,0x1fe42 ; uint64_to_hexstr + 186
        0x0001fe1a:    e7ff        ..      B        0x1fe1c ; uint64_to_hexstr + 148
        0x0001fe1c:    e7ff        ..      B        0x1fe1e ; uint64_to_hexstr + 150
        0x0001fe1e:    9806        ..      LDR      r0,[sp,#0x18]
        0x0001fe20:    1e41        A.      SUBS     r1,r0,#1
        0x0001fe22:    9106        ..      STR      r1,[sp,#0x18]
        0x0001fe24:    b148        H.      CBZ      r0,0x1fe3a ; uint64_to_hexstr + 178
        0x0001fe26:    e7ff        ..      B        0x1fe28 ; uint64_to_hexstr + 160
        0x0001fe28:    9906        ..      LDR      r1,[sp,#0x18]
        0x0001fe2a:    f10d0003    ....    ADD      r0,sp,#3
        0x0001fe2e:    5c40        @\      LDRB     r0,[r0,r1]
        0x0001fe30:    9909        ..      LDR      r1,[sp,#0x24]
        0x0001fe32:    1c4a        J.      ADDS     r2,r1,#1
        0x0001fe34:    9209        ..      STR      r2,[sp,#0x24]
        0x0001fe36:    7008        .p      STRB     r0,[r1,#0]
        0x0001fe38:    e7f1        ..      B        0x1fe1e ; uint64_to_hexstr + 150
        0x0001fe3a:    9909        ..      LDR      r1,[sp,#0x24]
        0x0001fe3c:    2000        .       MOVS     r0,#0
        0x0001fe3e:    7008        .p      STRB     r0,[r1,#0]
        0x0001fe40:    e7ff        ..      B        0x1fe42 ; uint64_to_hexstr + 186
        0x0001fe42:    9807        ..      LDR      r0,[sp,#0x1c]
        0x0001fe44:    b00c        ..      ADD      sp,sp,#0x30
        0x0001fe46:    4770        pG      BX       lr
    uint64_to_str
        0x0001fe48:    b580        ..      PUSH     {r7,lr}
        0x0001fe4a:    b090        ..      SUB      sp,sp,#0x40
        0x0001fe4c:    910f        ..      STR      r1,[sp,#0x3c]
        0x0001fe4e:    900e        ..      STR      r0,[sp,#0x38]
        0x0001fe50:    920d        ..      STR      r2,[sp,#0x34]
        0x0001fe52:    2000        .       MOVS     r0,#0
        0x0001fe54:    9005        ..      STR      r0,[sp,#0x14]
        0x0001fe56:    9004        ..      STR      r0,[sp,#0x10]
        0x0001fe58:    e7ff        ..      B        0x1fe5a ; uint64_to_str + 18
        0x0001fe5a:    980e        ..      LDR      r0,[sp,#0x38]
        0x0001fe5c:    990f        ..      LDR      r1,[sp,#0x3c]
        0x0001fe5e:    f7fefc49    ..I.    BL       divu64_10 ; 0x1e6f4
        0x0001fe62:    9101        ..      STR      r1,[sp,#4]
        0x0001fe64:    9000        ..      STR      r0,[sp,#0]
        0x0001fe66:    980e        ..      LDR      r0,[sp,#0x38]
        0x0001fe68:    9900        ..      LDR      r1,[sp,#0]
        0x0001fe6a:    eb010181    ....    ADD      r1,r1,r1,LSL #2
        0x0001fe6e:    eba00041    ..A.    SUB      r0,r0,r1,LSL #1
        0x0001fe72:    9003        ..      STR      r0,[sp,#0xc]
        0x0001fe74:    9803        ..      LDR      r0,[sp,#0xc]
        0x0001fe76:    3030        00      ADDS     r0,r0,#0x30
        0x0001fe78:    9a05        ..      LDR      r2,[sp,#0x14]
        0x0001fe7a:    1c51        Q.      ADDS     r1,r2,#1
        0x0001fe7c:    9105        ..      STR      r1,[sp,#0x14]
        0x0001fe7e:    f10d011b    ....    ADD      r1,sp,#0x1b
        0x0001fe82:    5488        .T      STRB     r0,[r1,r2]
        0x0001fe84:    9800        ..      LDR      r0,[sp,#0]
        0x0001fe86:    9901        ..      LDR      r1,[sp,#4]
        0x0001fe88:    910f        ..      STR      r1,[sp,#0x3c]
        0x0001fe8a:    900e        ..      STR      r0,[sp,#0x38]
        0x0001fe8c:    e7ff        ..      B        0x1fe8e ; uint64_to_str + 70
        0x0001fe8e:    980e        ..      LDR      r0,[sp,#0x38]
        0x0001fe90:    990f        ..      LDR      r1,[sp,#0x3c]
        0x0001fe92:    4308        .C      ORRS     r0,r0,r1
        0x0001fe94:    2800        .(      CMP      r0,#0
        0x0001fe96:    d1e0        ..      BNE      0x1fe5a ; uint64_to_str + 18
        0x0001fe98:    e7ff        ..      B        0x1fe9a ; uint64_to_str + 82
        0x0001fe9a:    9805        ..      LDR      r0,[sp,#0x14]
        0x0001fe9c:    9004        ..      STR      r0,[sp,#0x10]
        0x0001fe9e:    980d        ..      LDR      r0,[sp,#0x34]
        0x0001fea0:    b198        ..      CBZ      r0,0x1feca ; uint64_to_str + 130
        0x0001fea2:    e7ff        ..      B        0x1fea4 ; uint64_to_str + 92
        0x0001fea4:    e7ff        ..      B        0x1fea6 ; uint64_to_str + 94
        0x0001fea6:    9805        ..      LDR      r0,[sp,#0x14]
        0x0001fea8:    1e41        A.      SUBS     r1,r0,#1
        0x0001feaa:    9105        ..      STR      r1,[sp,#0x14]
        0x0001feac:    b148        H.      CBZ      r0,0x1fec2 ; uint64_to_str + 122
        0x0001feae:    e7ff        ..      B        0x1feb0 ; uint64_to_str + 104
        0x0001feb0:    9905        ..      LDR      r1,[sp,#0x14]
        0x0001feb2:    f10d001b    ....    ADD      r0,sp,#0x1b
        0x0001feb6:    5c40        @\      LDRB     r0,[r0,r1]
        0x0001feb8:    990d        ..      LDR      r1,[sp,#0x34]
        0x0001feba:    1c4a        J.      ADDS     r2,r1,#1
        0x0001febc:    920d        ..      STR      r2,[sp,#0x34]
        0x0001febe:    7008        .p      STRB     r0,[r1,#0]
        0x0001fec0:    e7f1        ..      B        0x1fea6 ; uint64_to_str + 94
        0x0001fec2:    990d        ..      LDR      r1,[sp,#0x34]
        0x0001fec4:    2000        .       MOVS     r0,#0
        0x0001fec6:    7008        .p      STRB     r0,[r1,#0]
        0x0001fec8:    e7ff        ..      B        0x1feca ; uint64_to_str + 130
        0x0001feca:    9804        ..      LDR      r0,[sp,#0x10]
        0x0001fecc:    b010        ..      ADD      sp,sp,#0x40
        0x0001fece:    bd80        ..      POP      {r7,pc}
    update_indices
        0x0001fed0:    b510        ..      PUSH     {r4,lr}
        0x0001fed2:    b082        ..      SUB      sp,sp,#8
        0x0001fed4:    4604        .F      MOV      r4,r0
        0x0001fed6:    f7fbf8ad    ....    BL       am_hal_interrupt_master_disable ; 0x1b034
        0x0001feda:    9001        ..      STR      r0,[sp,#4]
        0x0001fedc:    e9d41008    ....    LDRD     r1,r0,[r4,#0x20]
        0x0001fee0:    e9d00201    ....    LDRD     r0,r2,[r0,#4]
        0x0001fee4:    460b        .F      MOV      r3,r1
        0x0001fee6:    6812        .h      LDR      r2,[r2,#0]
        0x0001fee8:    f3620307    b...    BFI      r3,r2,#0,#8
        0x0001feec:    4299        .B      CMP      r1,r3
        0x0001feee:    bfb8        ..      IT       LT
        0x0001fef0:    f5a37380    ...s    SUBLT    r3,r3,#0x100
        0x0001fef4:    61e3        .a      STR      r3,[r4,#0x1c]
        0x0001fef6:    6800        .h      LDR      r0,[r0,#0]
        0x0001fef8:    60e0        .`      STR      r0,[r4,#0xc]
        0x0001fefa:    9801        ..      LDR      r0,[sp,#4]
        0x0001fefc:    b002        ..      ADD      sp,sp,#8
        0x0001fefe:    e8bd4010    ...@    POP      {r4,lr}
        0x0001ff02:    f7fbb89f    ....    B        am_hal_interrupt_master_set ; 0x1b044
        0x0001ff06:    0000        ..      MOVS     r0,r0
    xip_test_function
        0x0001ff08:    bf00        ..      NOP      
        0x0001ff0a:    bf00        ..      NOP      
        0x0001ff0c:    bf00        ..      NOP      
        0x0001ff0e:    bf00        ..      NOP      
        0x0001ff10:    bf00        ..      NOP      
        0x0001ff12:    bf00        ..      NOP      
        0x0001ff14:    bf00        ..      NOP      
        0x0001ff16:    bf00        ..      NOP      
        0x0001ff18:    bf00        ..      NOP      
        0x0001ff1a:    bf00        ..      NOP      
        0x0001ff1c:    bf00        ..      NOP      
        0x0001ff1e:    bf00        ..      NOP      
        0x0001ff20:    bf00        ..      NOP      
        0x0001ff22:    bf00        ..      NOP      
        0x0001ff24:    bf00        ..      NOP      
        0x0001ff26:    bf00        ..      NOP      
        0x0001ff28:    bf00        ..      NOP      
        0x0001ff2a:    bf00        ..      NOP      
        0x0001ff2c:    bf00        ..      NOP      
        0x0001ff2e:    bf00        ..      NOP      
        0x0001ff30:    bf00        ..      NOP      
        0x0001ff32:    bf00        ..      NOP      
        0x0001ff34:    bf00        ..      NOP      
        0x0001ff36:    bf00        ..      NOP      
        0x0001ff38:    bf00        ..      NOP      
        0x0001ff3a:    bf00        ..      NOP      
        0x0001ff3c:    bf00        ..      NOP      
        0x0001ff3e:    bf00        ..      NOP      
        0x0001ff40:    bf00        ..      NOP      
        0x0001ff42:    bf00        ..      NOP      
        0x0001ff44:    bf00        ..      NOP      
        0x0001ff46:    bf00        ..      NOP      
        0x0001ff48:    4770        pG      BX       lr
        0x0001ff4a:    0000        ..      MOVS     r0,r0
    $t
    x$fpl$d2f
    $v0
    __aeabi_d2f
    _d2f
        0x0001ff4c:    f0214200    !..B    BIC      r2,r1,#0x80000000
        0x0001ff50:    f0014300    ...C    AND      r3,r1,#0x80000000
        0x0001ff54:    f1a25260    ..`R    SUB      r2,r2,#0x38000000
        0x0001ff58:    f5b21f80    ....    CMP      r2,#0x100000
        0x0001ff5c:    bf28        (.      IT       CS
        0x0001ff5e:    f1d26c7f    ...l    RSBSCS   r12,r2,#0xff00000
        0x0001ff62:    d90b        ..      BLS      0x1ff7c ; __aeabi_d2f + 48
        0x0001ff64:    ea5f1c00    _...    LSLS     r12,r0,#4
        0x0001ff68:    ea4302c2    C...    ORR      r2,r3,r2,LSL #3
        0x0001ff6c:    eb427050    B.Pp    ADC      r0,r2,r0,LSR #29
        0x0001ff70:    bf18        ..      IT       NE
        0x0001ff72:    4770        pG      BXNE     lr
        0x0001ff74:    bf28        (.      IT       CS
        0x0001ff76:    f0200001     ...    BICCS    r0,r0,#1
        0x0001ff7a:    4770        pG      BX       lr
        0x0001ff7c:    f5b21f80    ....    CMP      r2,#0x100000
        0x0001ff80:    bfbc        ..      ITT      LT
        0x0001ff82:    4618        .F      MOVLT    r0,r3
        0x0001ff84:    4770        pG      BXLT     lr
        0x0001ff86:    ea4f0c41    O.A.    LSL      r12,r1,#1
        0x0001ff8a:    f51c1f00    ....    CMN      r12,#0x200000
        0x0001ff8e:    d202        ..      BCS      0x1ff96 ; __aeabi_d2f + 74
        0x0001ff90:    4608        .F      MOV      r0,r1
        0x0001ff92:    f000b867    ..g.    B.W      __fpl_fretinf ; 0x20064
        0x0001ff96:    b570        p.      PUSH     {r4-r6,lr}
        0x0001ff98:    f000f809    ....    BL       __fpl_dnaninf ; 0x1ffae
    $d
        0x0001ff9c:    89000000    ....    DCD    2298478592
    $t
        0x0001ffa0:    f7ffbff6    ....    B.W      0x1ff90 ; __aeabi_d2f + 68
        0x0001ffa4:    f04f4000    O..@    MOV      r0,#0x80000000
        0x0001ffa8:    f5a00080    ....    SUB      r0,r0,#0x400000
        0x0001ffac:    4770        pG      BX       lr
    x$fpl$dnaninf
    $v0
    __fpl_dnaninf
        0x0001ffae:    f10e0e02    ....    ADD      lr,lr,#2
        0x0001ffb2:    f02e0e03    ....    BIC      lr,lr,#3
        0x0001ffb6:    f85e6b04    ^..k    LDR      r6,[lr],#4
        0x0001ffba:    4236        6B      TST      r6,r6
        0x0001ffbc:    d405        ..      BMI      0x1ffca ; __fpl_dnaninf + 28
        0x0001ffbe:    2a01        .*      CMP      r2,#1
        0x0001ffc0:    eb430503    C...    ADC      r5,r3,r3
        0x0001ffc4:    f5151f00    ....    CMN      r5,#0x200000
        0x0001ffc8:    d812        ..      BHI      0x1fff0 ; __fpl_dnaninf + 66
        0x0001ffca:    2801        .(      CMP      r0,#1
        0x0001ffcc:    eb410c01    A...    ADC      r12,r1,r1
        0x0001ffd0:    f51c1f00    ....    CMN      r12,#0x200000
        0x0001ffd4:    d80c        ..      BHI      0x1fff0 ; __fpl_dnaninf + 66
        0x0001ffd6:    d10e        ..      BNE      0x1fff6 ; __fpl_dnaninf + 72
        0x0001ffd8:    ea4f7cd1    O..|    LSR      r12,r1,#31
        0x0001ffdc:    eb0c0c4c    ..L.    ADD      r12,r12,r12,LSL #1
        0x0001ffe0:    f10c0c02    ....    ADD      r12,r12,#2
        0x0001ffe4:    f5151f00    ....    CMN      r5,#0x200000
        0x0001ffe8:    bf08        ..      IT       EQ
        0x0001ffea:    eb4c7cd3    L..|    ADCEQ    r12,r12,r3,LSR #31
        0x0001ffee:    e004        ..      B        0x1fffa ; __fpl_dnaninf + 76
        0x0001fff0:    f04f0c08    O...    MOV      r12,#8
        0x0001fff4:    e001        ..      B        0x1fffa ; __fpl_dnaninf + 76
        0x0001fff6:    ea4f7cd3    O..|    LSR      r12,r3,#31
        0x0001fffa:    eb0c054c    ..L.    ADD      r5,r12,r12,LSL #1
        0x0001fffe:    fa26f605    &...    LSR      r6,r6,r5
        0x00020002:    f0060607    ....    AND      r6,r6,#7
        0x00020006:    f1b60c04    ....    SUBS     r12,r6,#4
        0x0002000a:    d206        ..      BCS      0x2001a ; __fpl_dnaninf + 108
        0x0002000c:    eb0e0c86    ....    ADD      r12,lr,r6,LSL #2
        0x00020010:    e8bd4070    ..p@    POP      {r4-r6,lr}
        0x00020014:    f04c0c01    L...    ORR      r12,r12,#1
        0x00020018:    4760        `G      BX       r12
        0x0002001a:    e8dff00c    ....    TBB      [pc,r12]
    $d
        0x0002001e:    0b09        ..      DCW    2825
        0x00020020:    0202        ..      DCW    514
    $t
        0x00020022:    f04f4100    O..A    MOV      r1,#0x80000000
        0x00020026:    f5a12100    ...!    SUB      r1,r1,#0x80000
        0x0002002a:    f04f0000    O...    MOV      r0,#0
        0x0002002e:    bd70        p.      POP      {r4-r6,pc}
        0x00020030:    4619        .F      MOV      r1,r3
        0x00020032:    4610        .F      MOV      r0,r2
        0x00020034:    2801        .(      CMP      r0,#1
        0x00020036:    eb510401    Q...    ADCS     r4,r1,r1
        0x0002003a:    bf18        ..      IT       NE
        0x0002003c:    f5d41400    ....    RSBSNE   r4,r4,#0x200000
        0x00020040:    bf84        ..      ITT      HI
        0x00020042:    2000        .       MOVHI    r0,#0
        0x00020044:    f0014100    ...A    ANDHI    r1,r1,#0x80000000
        0x00020048:    bd70        p.      POP      {r4-r6,pc}
    x$fpl$fpinit
    $v0
    _fp_init
        0x0002004a:    eef10a10    ....    VMRS     r0,FPSCR
        0x0002004e:    f64f71ff    O..q    MOV      r1,#0xffff
        0x00020052:    f2c031c0    ...1    MOVT     r1,#0x3c0
        0x00020056:    ea200001     ...    BIC      r0,r0,r1
        0x0002005a:    f0407040    @.@p    ORR      r0,r0,#0x3000000
        0x0002005e:    eee10a10    ....    VMSR     FPSCR,r0
    __fplib_config_fpu_vfp
    __fplib_config_pureend_doubles
        0x00020062:    4770        pG      BX       lr
    x$fpl$fretinf
    $v0
    __fpl_fretinf
        0x00020064:    21ff        .!      MOVS     r1,#0xff
        0x00020066:    ea4150d0    A..P    ORR      r0,r1,r0,LSR #23
        0x0002006a:    05c0        ..      LSLS     r0,r0,#23
        0x0002006c:    4770        pG      BX       lr
    $d.realdata
    .L__const.am_devices_mspi_is25wx064_apply_ddr_timing.applyCfg
    x$fpl$usenofp
    __I$use$fp
        0x0002006e:    0001        ..      DCW    1
        0x00020070:    1f0e0101    ....    DCD    521011457
    .L__const.am_devices_mspi_is25wx064_init_timing_check.scanCfg
        0x00020074:    04000001    ....    DCD    67108865
        0x00020078:    00001f10    ....    DCD    7952
    MSPI_Flash_Config
        0x0002007c:    00000108    ....    DCD    264
        0x00020080:    10000738    8...    DCD    268437304
        0x00020084:    00001000    ....    DCD    4096
        0x00020088:    00000000    ....    DCD    0
        0x0002008c:    00000000    ....    DCD    0
    am_hal_daxi_defaults
        0x00020090:    0f020100    ....    DCD    251789568
        0x00020094:    00000001    ....    DCD    1
    am_hal_gpio_pincfg_output
        0x00020098:    00000183    ....    DCD    387
    am_hal_pwrctrl_peripheral_control
        0x0002009c:    40021004    ...@    DCD    1073876996
        0x000200a0:    00000001    ....    DCD    1
        0x000200a4:    40021008    ...@    DCD    1073877000
        0x000200a8:    00000001    ....    DCD    1
        0x000200ac:    40021004    ...@    DCD    1073876996
        0x000200b0:    00000002    ....    DCD    2
        0x000200b4:    40021008    ...@    DCD    1073877000
        0x000200b8:    0000001e    ....    DCD    30
        0x000200bc:    40021004    ...@    DCD    1073876996
        0x000200c0:    00000004    ....    DCD    4
        0x000200c4:    40021008    ...@    DCD    1073877000
        0x000200c8:    0000001e    ....    DCD    30
        0x000200cc:    40021004    ...@    DCD    1073876996
        0x000200d0:    00000008    ....    DCD    8
        0x000200d4:    40021008    ...@    DCD    1073877000
        0x000200d8:    0000001e    ....    DCD    30
        0x000200dc:    40021004    ...@    DCD    1073876996
        0x000200e0:    00000010    ....    DCD    16
        0x000200e4:    40021008    ...@    DCD    1073877000
        0x000200e8:    0000001e    ....    DCD    30
        0x000200ec:    40021004    ...@    DCD    1073876996
        0x000200f0:    00000020     ...    DCD    32
        0x000200f4:    40021008    ...@    DCD    1073877000
        0x000200f8:    000001e0    ....    DCD    480
        0x000200fc:    40021004    ...@    DCD    1073876996
        0x00020100:    00000040    @...    DCD    64
        0x00020104:    40021008    ...@    DCD    1073877000
        0x00020108:    000001e0    ....    DCD    480
        0x0002010c:    40021004    ...@    DCD    1073876996
        0x00020110:    00000080    ....    DCD    128
        0x00020114:    40021008    ...@    DCD    1073877000
        0x00020118:    000001e0    ....    DCD    480
        0x0002011c:    40021004    ...@    DCD    1073876996
        0x00020120:    00000100    ....    DCD    256
        0x00020124:    40021008    ...@    DCD    1073877000
        0x00020128:    000001e0    ....    DCD    480
        0x0002012c:    40021004    ...@    DCD    1073876996
        0x00020130:    00000200    ....    DCD    512
        0x00020134:    40021008    ...@    DCD    1073877000
        0x00020138:    00001e00    ....    DCD    7680
        0x0002013c:    40021004    ...@    DCD    1073876996
        0x00020140:    00000400    ....    DCD    1024
        0x00020144:    40021008    ...@    DCD    1073877000
        0x00020148:    00001e00    ....    DCD    7680
        0x0002014c:    40021004    ...@    DCD    1073876996
        0x00020150:    00000800    ....    DCD    2048
        0x00020154:    40021008    ...@    DCD    1073877000
        0x00020158:    00001e00    ....    DCD    7680
        0x0002015c:    40021004    ...@    DCD    1073876996
        0x00020160:    00001000    ....    DCD    4096
        0x00020164:    40021008    ...@    DCD    1073877000
        0x00020168:    00001e00    ....    DCD    7680
        0x0002016c:    40021004    ...@    DCD    1073876996
        0x00020170:    00002000    . ..    DCD    8192
        0x00020174:    40021008    ...@    DCD    1073877000
        0x00020178:    00002000    . ..    DCD    8192
        0x0002017c:    40021004    ...@    DCD    1073876996
        0x00020180:    00004000    .@..    DCD    16384
        0x00020184:    40021008    ...@    DCD    1073877000
        0x00020188:    0001c000    ....    DCD    114688
        0x0002018c:    40021004    ...@    DCD    1073876996
        0x00020190:    00008000    ....    DCD    32768
        0x00020194:    40021008    ...@    DCD    1073877000
        0x00020198:    0001c000    ....    DCD    114688
        0x0002019c:    40021004    ...@    DCD    1073876996
        0x000201a0:    00010000    ....    DCD    65536
        0x000201a4:    40021008    ...@    DCD    1073877000
        0x000201a8:    0001c000    ....    DCD    114688
        0x000201ac:    40021004    ...@    DCD    1073876996
        0x000201b0:    00020000    ....    DCD    131072
        0x000201b4:    40021008    ...@    DCD    1073877000
        0x000201b8:    00020000    ....    DCD    131072
        0x000201bc:    40021004    ...@    DCD    1073876996
        0x000201c0:    00040000    ....    DCD    262144
        0x000201c4:    40021008    ...@    DCD    1073877000
        0x000201c8:    00040000    ....    DCD    262144
        0x000201cc:    40021004    ...@    DCD    1073876996
        0x000201d0:    00080000    ....    DCD    524288
        0x000201d4:    40021008    ...@    DCD    1073877000
        0x000201d8:    00080000    ....    DCD    524288
        0x000201dc:    40021004    ...@    DCD    1073876996
        0x000201e0:    00100000    ....    DCD    1048576
        0x000201e4:    40021008    ...@    DCD    1073877000
        0x000201e8:    00100000    ....    DCD    1048576
        0x000201ec:    40021004    ...@    DCD    1073876996
        0x000201f0:    00200000    .. .    DCD    2097152
        0x000201f4:    40021008    ...@    DCD    1073877000
        0x000201f8:    00200000    .. .    DCD    2097152
        0x000201fc:    40021004    ...@    DCD    1073876996
        0x00020200:    00400000    ..@.    DCD    4194304
        0x00020204:    40021008    ...@    DCD    1073877000
        0x00020208:    00400000    ..@.    DCD    4194304
        0x0002020c:    40021004    ...@    DCD    1073876996
        0x00020210:    00800000    ....    DCD    8388608
        0x00020214:    40021008    ...@    DCD    1073877000
        0x00020218:    00800000    ....    DCD    8388608
        0x0002021c:    40021004    ...@    DCD    1073876996
        0x00020220:    01000000    ....    DCD    16777216
        0x00020224:    40021008    ...@    DCD    1073877000
        0x00020228:    01000000    ....    DCD    16777216
        0x0002022c:    4002100c    ...@    DCD    1073877004
        0x00020230:    00000001    ....    DCD    1
        0x00020234:    40021010    ...@    DCD    1073877008
        0x00020238:    000000ff    ....    DCD    255
        0x0002023c:    4002100c    ...@    DCD    1073877004
        0x00020240:    00000002    ....    DCD    2
        0x00020244:    40021010    ...@    DCD    1073877008
        0x00020248:    000000ff    ....    DCD    255
        0x0002024c:    4002100c    ...@    DCD    1073877004
        0x00020250:    00000004    ....    DCD    4
        0x00020254:    40021010    ...@    DCD    1073877008
        0x00020258:    000000ff    ....    DCD    255
        0x0002025c:    4002100c    ...@    DCD    1073877004
        0x00020260:    00000008    ....    DCD    8
        0x00020264:    40021010    ...@    DCD    1073877008
        0x00020268:    000000ff    ....    DCD    255
        0x0002026c:    4002100c    ...@    DCD    1073877004
        0x00020270:    00000010    ....    DCD    16
        0x00020274:    40021010    ...@    DCD    1073877008
        0x00020278:    000000ff    ....    DCD    255
        0x0002027c:    4002100c    ...@    DCD    1073877004
        0x00020280:    00000020     ...    DCD    32
        0x00020284:    40021010    ...@    DCD    1073877008
        0x00020288:    000000ff    ....    DCD    255
        0x0002028c:    4002100c    ...@    DCD    1073877004
        0x00020290:    00000040    @...    DCD    64
        0x00020294:    40021010    ...@    DCD    1073877008
        0x00020298:    000000ff    ....    DCD    255
        0x0002029c:    4002100c    ...@    DCD    1073877004
        0x000202a0:    00000080    ....    DCD    128
        0x000202a4:    40021010    ...@    DCD    1073877008
        0x000202a8:    000000ff    ....    DCD    255
        0x000202ac:    4002100c    ...@    DCD    1073877004
        0x000202b0:    00000400    ....    DCD    1024
        0x000202b4:    40021010    ...@    DCD    1073877008
        0x000202b8:    00000400    ....    DCD    1024
    gAmHalCmdQReg
        0x000202bc:    40050228    (..@    DCD    1074070056
        0x000202c0:    4005022c    ,..@    DCD    1074070060
        0x000202c4:    40050240    @..@    DCD    1074070080
        0x000202c8:    40050244    D..@    DCD    1074070084
        0x000202cc:    4005023c    <..@    DCD    1074070076
        0x000202d0:    00008000    ....    DCD    32768
        0x000202d4:    40050230    0..@    DCD    1074070064
        0x000202d8:    00000001    ....    DCD    1
        0x000202dc:    00000004    ....    DCD    4
        0x000202e0:    00000002    ....    DCD    2
        0x000202e4:    40051228    (..@    DCD    1074074152
        0x000202e8:    4005122c    ,..@    DCD    1074074156
        0x000202ec:    40051240    @..@    DCD    1074074176
        0x000202f0:    40051244    D..@    DCD    1074074180
        0x000202f4:    4005123c    <..@    DCD    1074074172
        0x000202f8:    00008000    ....    DCD    32768
        0x000202fc:    40051230    0..@    DCD    1074074160
        0x00020300:    00000001    ....    DCD    1
        0x00020304:    00000004    ....    DCD    4
        0x00020308:    00000002    ....    DCD    2
        0x0002030c:    40052228    (".@    DCD    1074078248
        0x00020310:    4005222c    ,".@    DCD    1074078252
        0x00020314:    40052240    @".@    DCD    1074078272
        0x00020318:    40052244    D".@    DCD    1074078276
        0x0002031c:    4005223c    <".@    DCD    1074078268
        0x00020320:    00008000    ....    DCD    32768
        0x00020324:    40052230    0".@    DCD    1074078256
        0x00020328:    00000001    ....    DCD    1
        0x0002032c:    00000004    ....    DCD    4
        0x00020330:    00000002    ....    DCD    2
        0x00020334:    40053228    (2.@    DCD    1074082344
        0x00020338:    4005322c    ,2.@    DCD    1074082348
        0x0002033c:    40053240    @2.@    DCD    1074082368
        0x00020340:    40053244    D2.@    DCD    1074082372
        0x00020344:    4005323c    <2.@    DCD    1074082364
        0x00020348:    00008000    ....    DCD    32768
        0x0002034c:    40053230    02.@    DCD    1074082352
        0x00020350:    00000001    ....    DCD    1
        0x00020354:    00000004    ....    DCD    4
        0x00020358:    00000002    ....    DCD    2
        0x0002035c:    40054228    (B.@    DCD    1074086440
        0x00020360:    4005422c    ,B.@    DCD    1074086444
        0x00020364:    40054240    @B.@    DCD    1074086464
        0x00020368:    40054244    DB.@    DCD    1074086468
        0x0002036c:    4005423c    <B.@    DCD    1074086460
        0x00020370:    00008000    ....    DCD    32768
        0x00020374:    40054230    0B.@    DCD    1074086448
        0x00020378:    00000001    ....    DCD    1
        0x0002037c:    00000004    ....    DCD    4
        0x00020380:    00000002    ....    DCD    2
        0x00020384:    40055228    (R.@    DCD    1074090536
        0x00020388:    4005522c    ,R.@    DCD    1074090540
        0x0002038c:    40055240    @R.@    DCD    1074090560
        0x00020390:    40055244    DR.@    DCD    1074090564
        0x00020394:    4005523c    <R.@    DCD    1074090556
        0x00020398:    00008000    ....    DCD    32768
        0x0002039c:    40055230    0R.@    DCD    1074090544
        0x000203a0:    00000001    ....    DCD    1
        0x000203a4:    00000004    ....    DCD    4
        0x000203a8:    00000002    ....    DCD    2
        0x000203ac:    40056228    (b.@    DCD    1074094632
        0x000203b0:    4005622c    ,b.@    DCD    1074094636
        0x000203b4:    40056240    @b.@    DCD    1074094656
        0x000203b8:    40056244    Db.@    DCD    1074094660
        0x000203bc:    4005623c    <b.@    DCD    1074094652
        0x000203c0:    00008000    ....    DCD    32768
        0x000203c4:    40056230    0b.@    DCD    1074094640
        0x000203c8:    00000001    ....    DCD    1
        0x000203cc:    00000004    ....    DCD    4
        0x000203d0:    00000002    ....    DCD    2
        0x000203d4:    40057228    (r.@    DCD    1074098728
        0x000203d8:    4005722c    ,r.@    DCD    1074098732
        0x000203dc:    40057240    @r.@    DCD    1074098752
        0x000203e0:    40057244    Dr.@    DCD    1074098756
        0x000203e4:    4005723c    <r.@    DCD    1074098748
        0x000203e8:    00008000    ....    DCD    32768
        0x000203ec:    40057230    0r.@    DCD    1074098736
        0x000203f0:    00000001    ....    DCD    1
        0x000203f4:    00000004    ....    DCD    4
        0x000203f8:    00000002    ....    DCD    2
        0x000203fc:    400602a0    ...@    DCD    1074135712
        0x00020400:    400602a8    ...@    DCD    1074135720
        0x00020404:    400602c0    ...@    DCD    1074135744
        0x00020408:    400602c4    ...@    DCD    1074135748
        0x0002040c:    400602b8    ...@    DCD    1074135736
        0x00020410:    00004000    .@..    DCD    16384
        0x00020414:    400602ac    ...@    DCD    1074135724
        0x00020418:    00000001    ....    DCD    1
        0x0002041c:    00000004    ....    DCD    4
        0x00020420:    00000008    ....    DCD    8
        0x00020424:    400612a0    ...@    DCD    1074139808
        0x00020428:    400612a8    ...@    DCD    1074139816
        0x0002042c:    400612c0    ...@    DCD    1074139840
        0x00020430:    400612c4    ...@    DCD    1074139844
        0x00020434:    400612b8    ...@    DCD    1074139832
        0x00020438:    00004000    .@..    DCD    16384
        0x0002043c:    400612ac    ...@    DCD    1074139820
        0x00020440:    00000001    ....    DCD    1
        0x00020444:    00000004    ....    DCD    4
        0x00020448:    00000008    ....    DCD    8
        0x0002044c:    400622a0    .".@    DCD    1074143904
        0x00020450:    400622a8    .".@    DCD    1074143912
        0x00020454:    400622c0    .".@    DCD    1074143936
        0x00020458:    400622c4    .".@    DCD    1074143940
        0x0002045c:    400622b8    .".@    DCD    1074143928
        0x00020460:    00004000    .@..    DCD    16384
        0x00020464:    400622ac    .".@    DCD    1074143916
        0x00020468:    00000001    ....    DCD    1
        0x0002046c:    00000004    ....    DCD    4
        0x00020470:    00000008    ....    DCD    8
    g_DefaultMcuMemCfg
        0x00020474:    07070102    ....    DCD    117899522
        0x00020478:    0001        ..      DCW    1
    g_DefaultSRAMCfg
        0x0002047a:    0003        ..      DCW    3
        0x0002047c:    03000000    ....    DCD    50331648
    g_am_hal_bootrom_helper
        0x00020480:    0800004d    M...    DCD    134217805
        0x00020484:    08000051    Q...    DCD    134217809
        0x00020488:    08000055    U...    DCD    134217813
        0x0002048c:    08000059    Y...    DCD    134217817
        0x00020490:    0800006d    m...    DCD    134217837
        0x00020494:    08000075    u...    DCD    134217845
        0x00020498:    08000079    y...    DCD    134217849
        0x0002049c:    08000081    ....    DCD    134217857
        0x000204a0:    08000099    ....    DCD    134217881
        0x000204a4:    0800009d    ....    DCD    134217885
    mspi_interrupts
        0x000204a8:    1514        ..      DCW    5396
        0x000204aa:    16          .       DCB    22
    mspi_interrupts
        0x000204ab:    14          .       DCB    20
        0x000204ac:    00001615    ....    DCD    5653
    __tagsym$$used.7
    sGlobalAccess
        0x000204b0:    00020f24    $...    DCD    134948
        0x000204b4:    00020f10    ....    DCD    134928
        0x000204b8:    00020ee8    ....    DCD    134888
        0x000204bc:    00020efc    ....    DCD    134908
        0x000204c0:    10060004    ....    DCD    268828676
        0x000204c4:    10060018    ....    DCD    268828696
        0x000204c8:    1006002c    ,...    DCD    268828716
    .L.str
        0x000204cc:    6c6f7041    Apol    DCD    1819242561
        0x000204d0:    20346f6c    lo4     DCD    540307308
        0x000204d4:    6174634f    Octa    DCD    1635017551
        0x000204d8:    534d206c    l MS    DCD    1397563500
        0x000204dc:    45204950    PI E    DCD    1159743824
        0x000204e0:    706d6178    xamp    DCD    1886216568
        0x000204e4:    0a0a656c    le..    DCD    168453484
        0x000204e8:    00          .       DCB    0
    .L.str.8
        0x000204e9:    536361      Sca     DCB    83,99,97
        0x000204ec:    6552206e    n Re    DCD    1699881070
        0x000204f0:    746c7573    sult    DCD    1953265011
        0x000204f4:    6146203a    : Fa    DCD    1631985722
        0x000204f8:    64656c69    iled    DCD    1684368489
        0x000204fc:    6f6e202c    , no    DCD    1869488172
        0x00020500:    6c617620     val    DCD    1818326560
        0x00020504:    73206469    id s    DCD    1931502697
        0x00020508:    69747465    etti    DCD    1769239653
        0x0002050c:    202e676e    ng.     DCD    539912046
        0x00020510:    0a20         .      DCW    2592
        0x00020512:    00          .       DCB    0
    .L.str.1
        0x00020513:    53          S       DCB    83
        0x00020514:    74726174    tart    DCD    1953653108
        0x00020518:    20676e69    ing     DCD    543649385
        0x0002051c:    4950534d    MSPI    DCD    1230000973
        0x00020520:    6d695420     Tim    DCD    1835619360
        0x00020524:    20676e69    ing     DCD    543649385
        0x00020528:    6e616353    Scan    DCD    1851876179
        0x0002052c:    000a203a    : ..    DCD    663610
    .L.str.5
        0x00020530:    20202020            DCD    538976288
        0x00020534:    20202020            DCD    538976288
        0x00020538:    20202020            DCD    538976288
        0x0002053c:    52555420     TUR    DCD    1381323808
        0x00020540:    4f52414e    NARO    DCD    1330790734
        0x00020544:    20444e55    UND     DCD    541347413
        0x00020548:    6425203d    = %d    DCD    1680154685
        0x0002054c:    0a20         .      DCW    2592
        0x0002054e:    00          .       DCB    0
    .L.str.3
        0x0002054f:    20                  DCB    32
        0x00020550:    20202020            DCD    538976288
        0x00020554:    20202020            DCD    538976288
        0x00020558:    20202020            DCD    538976288
        0x0002055c:    454e5852    RXNE    DCD    1162762322
        0x00020560:    203d2047    G =     DCD    540876871
        0x00020564:    0a206425    %d .    DCD    169894949
        0x00020568:    00          .       DCB    0
    .L.str.2
        0x00020569:    536361      Sca     DCB    83,99,97
        0x0002056c:    6552206e    n Re    DCD    1699881070
        0x00020570:    746c7573    sult    DCD    1953265011
        0x00020574:    5854203a    : TX    DCD    1481908282
        0x00020578:    2047454e    NEG     DCD    541541710
        0x0002057c:    6425203d    = %d    DCD    1680154685
        0x00020580:    0a20         .      DCW    2592
        0x00020582:    00          .       DCB    0
    .L.str.4
        0x00020583:    20                  DCB    32
        0x00020584:    20202020            DCD    538976288
        0x00020588:    20202020            DCD    538976288
        0x0002058c:    20202020            DCD    538976288
        0x00020590:    41435852    RXCA    DCD    1094932562
        0x00020594:    203d2050    P =     DCD    540876880
        0x00020598:    0a206425    %d .    DCD    169894949
        0x0002059c:    00          .       DCB    0
    .L.str.7
        0x0002059d:    202020              DCB    32,32,32
        0x000205a0:    20202020            DCD    538976288
        0x000205a4:    20202020            DCD    538976288
        0x000205a8:    58522020      RX    DCD    1481777184
        0x000205ac:    44535144    DQSD    DCD    1146310980
        0x000205b0:    59414c45    ELAY    DCD    1497451589
        0x000205b4:    25203d20     = %    DCD    622869792
        0x000205b8:    000a2064    d ..    DCD    663652
    .L.str.6
        0x000205bc:    20202020            DCD    538976288
        0x000205c0:    20202020            DCD    538976288
        0x000205c4:    20202020            DCD    538976288
        0x000205c8:    44585420     TXD    DCD    1146639392
        0x000205cc:    45445351    QSDE    DCD    1162105681
        0x000205d0:    2059414c    LAY     DCD    542720332
        0x000205d4:    6425203d    = %d    DCD    1680154685
        0x000205d8:    0a20         .      DCW    2592
        0x000205da:    00          .       DCB    0
    .L.str.12
        0x000205db:    46          F       DCB    70
        0x000205dc:    656c6961    aile    DCD    1701603681
        0x000205e0:    6f742064    d to    DCD    1869881444
        0x000205e4:    73696420     dis    DCD    1936286752
        0x000205e8:    656c6261    able    DCD    1701601889
        0x000205ec:    50495820     XIP    DCD    1346983968
        0x000205f0:    646f6d20     mod    DCD    1685024032
        0x000205f4:    6e692065    e in    DCD    1852383333
        0x000205f8:    65687420     the    DCD    1701344288
        0x000205fc:    50534d20     MSP    DCD    1347636512
        0x00020600:    000a2149    I!..    DCD    663881
    .L.str.29
        0x00020604:    6c696146    Fail    DCD    1818845510
        0x00020608:    74206465    ed t    DCD    1948279909
        0x0002060c:    6873206f    o sh    DCD    1752375407
        0x00020610:    6f647475    utdo    DCD    1868854389
        0x00020614:    74206e77    wn t    DCD    1948282487
        0x00020618:    4d206568    he M    DCD    1293968744
        0x0002061c:    20495053    SPI     DCD    541675603
        0x00020620:    20646e61    and     DCD    543452769
        0x00020624:    73616c46    Flas    DCD    1935764550
        0x00020628:    65442068    h De    DCD    1698963560
        0x0002062c:    65636976    vice    DCD    1701013878
        0x00020630:    0a21        !.      DCW    2593
        0x00020632:    00          .       DCB    0
    .L.str.22
        0x00020633:    46          F       DCB    70
        0x00020634:    656c6961    aile    DCD    1701603681
        0x00020638:    6f742064    d to    DCD    1869881444
        0x0002063c:    69727720     wri    DCD    1769109280
        0x00020640:    65206574    te e    DCD    1696621940
        0x00020644:    75636578    xecu    DCD    1969448312
        0x00020648:    6c626174    tabl    DCD    1818386804
        0x0002064c:    75662065    e fu    DCD    1969627237
        0x00020650:    6974636e    ncti    DCD    1769235310
        0x00020654:    74206e6f    on t    DCD    1948282479
        0x00020658:    6c46206f    o Fl    DCD    1816535151
        0x0002065c:    20687361    ash     DCD    543716193
        0x00020660:    69766544    Devi    DCD    1769366852
        0x00020664:    0a216563    ce!.    DCD    169960803
        0x00020668:    00          .       DCB    0
    .L.str.16
        0x00020669:    466169      Fai     DCB    70,97,105
        0x0002066c:    2064656c    led     DCD    543450476
        0x00020670:    72206f74    to r    DCD    1914728308
        0x00020674:    20646165    ead     DCD    543449445
        0x00020678:    66667562    buff    DCD    1717990754
        0x0002067c:    74207265    er t    DCD    1948283493
        0x00020680:    6c46206f    o Fl    DCD    1816535151
        0x00020684:    20687361    ash     DCD    543716193
        0x00020688:    69766544    Devi    DCD    1769366852
        0x0002068c:    0a216563    ce!.    DCD    169960803
        0x00020690:    00          .       DCB    0
    .L.str.14
        0x00020691:    466169      Fai     DCB    70,97,105
        0x00020694:    2064656c    led     DCD    543450476
        0x00020698:    77206f74    to w    DCD    1998614388
        0x0002069c:    65746972    rite    DCD    1702127986
        0x000206a0:    66756220     buf    DCD    1718968864
        0x000206a4:    20726566    fer     DCD    544367974
        0x000206a8:    46206f74    to F    DCD    1176530804
        0x000206ac:    6873616c    lash    DCD    1752392044
        0x000206b0:    76654420     Dev    DCD    1986348064
        0x000206b4:    21656369    ice!    DCD    560292713
        0x000206b8:    000a        ..      DCW    10
    .L.str.25
        0x000206ba:    6146        Fa      DCW    24902
        0x000206bc:    64656c69    iled    DCD    1684368489
        0x000206c0:    206f7420     to     DCD    544175136
        0x000206c4:    20747570    put     DCD    544503152
        0x000206c8:    20656874    the     DCD    543516788
        0x000206cc:    4950534d    MSPI    DCD    1230000973
        0x000206d0:    746e6920     int    DCD    1953392928
        0x000206d4:    4958206f    o XI    DCD    1230512239
        0x000206d8:    6f6d2050    P mo    DCD    1869422672
        0x000206dc:    0a216564    de!.    DCD    169960804
        0x000206e0:    00          .       DCB    0
    .L.str.18
        0x000206e1:    545820      TX      DCB    84,88,32
        0x000206e4:    20646e61    and     DCD    543452769
        0x000206e8:    62205852    RX b    DCD    1646286930
        0x000206ec:    65666675    uffe    DCD    1701209717
        0x000206f0:    66207372    rs f    DCD    1713402738
        0x000206f4:    656c6961    aile    DCD    1701603681
        0x000206f8:    6f742064    d to    DCD    1869881444
        0x000206fc:    6d6f6320     com    DCD    1836016416
        0x00020700:    65726170    pare    DCD    1701994864
        0x00020704:    0a21        !.      DCW    2593
        0x00020706:    00          .       DCB    0
    .L.str.20
        0x00020707:    46          F       DCB    70
        0x00020708:    656c6961    aile    DCD    1701603681
        0x0002070c:    6f742064    d to    DCD    1869881444
        0x00020710:    616e6520     ena    DCD    1634624800
        0x00020714:    20656c62    ble     DCD    543517794
        0x00020718:    4950534d    MSPI    DCD    1230000973
        0x0002071c:    72637320     scr    DCD    1919120160
        0x00020720:    6c626d61    ambl    DCD    1818389857
        0x00020724:    21676e69    ing!    DCD    560426601
        0x00020728:    000a        ..      DCW    10
    .L.str.11
    .L.str.8
        0x0002072a:    6146        Fa      DCW    24902
        0x0002072c:    64656c69    iled    DCD    1684368489
        0x00020730:    206f7420     to     DCD    544175136
        0x00020734:    73617265    eras    DCD    1935766117
        0x00020738:    6c462065    e Fl    DCD    1816535141
        0x0002073c:    20687361    ash     DCD    543716193
        0x00020740:    69766544    Devi    DCD    1769366852
        0x00020744:    73206563    ce s    DCD    1931502947
        0x00020748:    6f746365    ecto    DCD    1869898597
        0x0002074c:    000a2172    r!..    DCD    663922
    .L.str.10
        0x00020750:    73617245    Eras    DCD    1935766085
        0x00020754:    20676e69    ing     DCD    543649385
        0x00020758:    74636553    Sect    DCD    1952671059
        0x0002075c:    2520726f    or %    DCD    622883439
        0x00020760:    0a64        d.      DCW    2660
        0x00020762:    00          .       DCB    0
    .L.str.15
        0x00020763:    52          R       DCB    82
        0x00020764:    20646165    ead     DCD    543449445
        0x00020768:    42206425    %d B    DCD    1109419045
        0x0002076c:    73657479    ytes    DCD    1936028793
        0x00020770:    6f726620     fro    DCD    1869768224
        0x00020774:    6553206d    m Se    DCD    1699946605
        0x00020778:    726f7463    ctor    DCD    1919906915
        0x0002077c:    0a642520     %d.    DCD    174335264
        0x00020780:    00          .       DCB    0
    .L.str.21
        0x00020781:    577269      Wri     DCB    87,114,105
        0x00020784:    676e6974    ting    DCD    1735289204
        0x00020788:    65784520     Exe    DCD    1702380832
        0x0002078c:    61747563    cuta    DCD    1635022179
        0x00020790:    20656c62    ble     DCD    543517794
        0x00020794:    636e7566    func    DCD    1668183398
        0x00020798:    6e6f6974    tion    DCD    1852795252
        0x0002079c:    20666f20     of     DCD    543584032
        0x000207a0:    42206425    %d B    DCD    1109419045
        0x000207a4:    73657479    ytes    DCD    1936028793
        0x000207a8:    206f7420     to     DCD    544175136
        0x000207ac:    74636553    Sect    DCD    1952671059
        0x000207b0:    2520726f    or %    DCD    622883439
        0x000207b4:    0a64        d.      DCW    2660
        0x000207b6:    00          .       DCB    0
    .L.str.13
        0x000207b7:    57          W       DCB    87
        0x000207b8:    69746972    riti    DCD    1769236850
        0x000207bc:    2520676e    ng %    DCD    622880622
        0x000207c0:    79422064    d By    DCD    2034376804
        0x000207c4:    20736574    tes     DCD    544433524
        0x000207c8:    53206f74    to S    DCD    1394634612
        0x000207cc:    6f746365    ecto    DCD    1869898597
        0x000207d0:    64252072    r %d    DCD    1680154738
        0x000207d4:    000a        ..      DCW    10
    .L.str.28
        0x000207d6:    6944        Di      DCW    26948
        0x000207d8:    6c626173    sabl    DCD    1818386803
        0x000207dc:    20676e69    ing     DCD    543649385
        0x000207e0:    20656874    the     DCD    543516788
        0x000207e4:    4950534d    MSPI    DCD    1230000973
        0x000207e8:    646e6120     and    DCD    1684955424
        0x000207ec:    74784520     Ext    DCD    1954039072
        0x000207f0:    616e7265    erna    DCD    1634628197
        0x000207f4:    6c46206c    l Fl    DCD    1816535148
        0x000207f8:    20687361    ash     DCD    543716193
        0x000207fc:    6d6f7266    from    DCD    1836020326
        0x00020800:    50495820     XIP    DCD    1346983968
        0x00020804:    646f6d20     mod    DCD    1685024032
        0x00020808:    0a65        e.      DCW    2661
        0x0002080a:    00          .       DCB    0
    .L.str.24
        0x0002080b:    50          P       DCB    80
        0x0002080c:    69747475    utti    DCD    1769239669
        0x00020810:    7420676e    ng t    DCD    1948280686
        0x00020814:    4d206568    he M    DCD    1293968744
        0x00020818:    20495053    SPI     DCD    541675603
        0x0002081c:    20646e61    and     DCD    543452769
        0x00020820:    65747845    Exte    DCD    1702131781
        0x00020824:    6c616e72    rnal    DCD    1818324594
        0x00020828:    616c4620     Fla    DCD    1634485792
        0x0002082c:    69206873    sh i    DCD    1763731571
        0x00020830:    206f746e    nto     DCD    544175214
        0x00020834:    20504958    XIP     DCD    542132568
        0x00020838:    65646f6d    mode    DCD    1701080941
        0x0002083c:    000a        ..      DCW    10
    .L.str.19
        0x0002083e:    7550        Pu      DCW    30032
        0x00020840:    6e697474    ttin    DCD    1852404852
        0x00020844:    68742067    g th    DCD    1752440935
        0x00020848:    534d2065    e MS    DCD    1397563493
        0x0002084c:    69204950    PI i    DCD    1763723600
        0x00020850:    206f746e    nto     DCD    544175214
        0x00020854:    61726353    Scra    DCD    1634886483
        0x00020858:    696c626d    mbli    DCD    1768710765
        0x0002085c:    6d20676e    ng m    DCD    1830840174
        0x00020860:    0a65646f    ode.    DCD    174417007
        0x00020864:    00          .       DCB    0
    .L.str.30
        0x00020865:    41706f      Apo     DCB    65,112,111
        0x00020868:    346f6c6c    llo4    DCD    879717484
        0x0002086c:    50534d20     MSP    DCD    1347636512
        0x00020870:    634f2049    I Oc    DCD    1666129993
        0x00020874:    206c6174    tal     DCD    543973748
        0x00020878:    6d617845    Exam    DCD    1835104325
        0x0002087c:    20656c70    ple     DCD    543517808
        0x00020880:    706d6f43    Comp    DCD    1886220099
        0x00020884:    6574656c    lete    DCD    1702126956
        0x00020888:    000a        ..      DCW    10
    .L.str.26
        0x0002088a:    754a        Ju      DCW    30026
        0x0002088c:    6e69706d    mpin    DCD    1852403821
        0x00020890:    6f742067    g to    DCD    1869881447
        0x00020894:    6e756620     fun    DCD    1853187616
        0x00020898:    6f697463    ctio    DCD    1869182051
        0x0002089c:    6e69206e    n in    DCD    1852383342
        0x000208a0:    74784520     Ext    DCD    1954039072
        0x000208a4:    616e7265    erna    DCD    1634628197
        0x000208a8:    6c46206c    l Fl    DCD    1816535148
        0x000208ac:    0a687361    ash.    DCD    174617441
        0x000208b0:    00          .       DCB    0
    .L.str.27
        0x000208b1:    526574      Ret     DCB    82,101,116
        0x000208b4:    656e7275    urne    DCD    1701737077
        0x000208b8:    72662064    d fr    DCD    1919295588
        0x000208bc:    58206d6f    om X    DCD    1478520175
        0x000208c0:    63205049    IP c    DCD    1663062089
        0x000208c4:    0a6c6c61    all.    DCD    174877793
        0x000208c8:    00          .       DCB    0
    .L.str.23
        0x000208c9:    466c61      Fla     DCB    70,108,97
        0x000208cc:    77206873    sh w    DCD    1998612595
        0x000208d0:    20687469    ith     DCD    543716457
        0x000208d4:    20506958    XiP     DCD    542140760
        0x000208d8:    61746164    data    DCD    1635017060
        0x000208dc:    72726520     err    DCD    1920099616
        0x000208e0:    000a726f    or..    DCD    684655
    .L.str.17
        0x000208e4:    706d6f43    Comp    DCD    1886220099
        0x000208e8:    6e697261    arin    DCD    1852404321
        0x000208ec:    68742067    g th    DCD    1752440935
        0x000208f0:    58542065    e TX    DCD    1481908325
        0x000208f4:    646e6120     and    DCD    1684955424
        0x000208f8:    20585220     RX     DCD    542659104
        0x000208fc:    66667542    Buff    DCD    1717990722
        0x00020900:    0a737265    ers.    DCD    175338085
        0x00020904:    00          .       DCB    0
    .L.str.1
        0x00020905:    202020              DCB    32,32,32
        0x00020908:    766e4920     Inv    DCD    1986939168
        0x0002090c:    64696c61    alid    DCD    1684630625
        0x00020910:    20505320     SP     DCD    542135072
        0x00020914:    6e656877    when    DCD    1852139639
        0x00020918:    72614820     Har    DCD    1918978080
        0x0002091c:    61462064    d Fa    DCD    1631985764
        0x00020920:    20746c75    ult     DCD    544500853
        0x00020924:    7563636f    occu    DCD    1969447791
        0x00020928:    3a646572    red:    DCD    979658098
        0x0002092c:    25783020     0x%    DCD    628633632
        0x00020930:    20583830    08X     DCD    542652464
        0x00020934:    206f6e28    (no     DCD    544173608
        0x00020938:    63617453    Stac    DCD    1667331155
        0x0002093c:    2064656b    ked     DCD    543450475
        0x00020940:    61746164    data    DCD    1635017060
        0x00020944:    000a0a29    )...    DCD    657961
    .L.str.29
        0x00020948:    6f440a0a    ..Do    DCD    1866729994
        0x0002094c:    7720656e    ne w    DCD    1998611822
        0x00020950:    20687469    ith     DCD    543716457
        0x00020954:    7074756f    outp    DCD    1886680431
        0x00020958:    202e7475    ut.     DCD    539915381
        0x0002095c:    65746e45    Ente    DCD    1702129221
        0x00020960:    676e6972    ring    DCD    1735289202
        0x00020964:    666e6920     inf    DCD    1718511904
        0x00020968:    74696e69    init    DCD    1953066601
        0x0002096c:    6f6c2065    e lo    DCD    1869357157
        0x00020970:    0a2e706f    op..    DCD    170815599
        0x00020974:    000a        ..      DCW    10
    .L.str
        0x00020976:    2a2a        **      DCW    10794
        0x00020978:    72614820     Har    DCD    1918978080
        0x0002097c:    61462064    d Fa    DCD    1631985764
        0x00020980:    20746c75    ult     DCD    544500853
        0x00020984:    7563634f    Occu    DCD    1969447759
        0x00020988:    64657272    rred    DCD    1684370034
        0x0002098c:    000a0a3a    :...    DCD    657978
    .L.str.10
        0x00020990:    20202020            DCD    538976288
        0x00020994:    20525350    PSR     DCD    542266192
        0x00020998:    7830203d    = 0x    DCD    2016419901
        0x0002099c:    58383025    %08X    DCD    1480077349
        0x000209a0:    0a0a        ..      DCW    2570
        0x000209a2:    00          .       DCB    0
    .L.str.2
        0x000209a3:    48          H       DCB    72
        0x000209a4:    20647261    ard     DCD    543453793
        0x000209a8:    6c756146    Faul    DCD    1819631942
        0x000209ac:    74732074    t st    DCD    1953702004
        0x000209b0:    656b6361    acke    DCD    1701536609
        0x000209b4:    61642064    d da    DCD    1633951844
        0x000209b8:    0a3a6174    ta:.    DCD    171598196
        0x000209bc:    00          .       DCB    0
    .L.str.25
        0x000209bd:    0a4d43      .MC     DCB    10,77,67
        0x000209c0:    61462055    U Fa    DCD    1631985749
        0x000209c4:    20746c75    ult     DCD    544500853
        0x000209c8:    61746164    data    DCD    1635017060
        0x000209cc:    0a3a        :.      DCW    2618
        0x000209ce:    00          .       DCB    0
    .L.str.11
        0x000209cf:    4f          O       DCB    79
        0x000209d0:    72656874    ther    DCD    1919248500
        0x000209d4:    72614820     Har    DCD    1918978080
        0x000209d8:    61462064    d Fa    DCD    1631985764
        0x000209dc:    20746c75    ult     DCD    544500853
        0x000209e0:    61746164    data    DCD    1635017060
        0x000209e4:    0a3a        :.      DCW    2618
        0x000209e6:    00          .       DCB    0
    .L.str.18
        0x000209e7:    20                  DCB    32
        0x000209e8:    20202020            DCD    538976288
        0x000209ec:    42202020       B    DCD    1109401632
        0x000209f0:    20525346    FSR     DCD    542266182
        0x000209f4:    36746962    bit6    DCD    913598818
        0x000209f8:    4552203a    : RE    DCD    1163010106
        0x000209fc:    56524553    SERV    DCD    1448232275
        0x00020a00:    000a4445    ED..    DCD    672837
    .L.str.17
        0x00020a04:    20202020            DCD    538976288
        0x00020a08:    20202020            DCD    538976288
        0x00020a0c:    52534642    BFSR    DCD    1381189186
        0x00020a10:    74696220     bit    DCD    1953063456
        0x00020a14:    42203a37    7: B    DCD    1109408311
        0x00020a18:    56524146    FARV    DCD    1448231238
        0x00020a1c:    44494c41    ALID    DCD    1145654337
        0x00020a20:    000a        ..      DCW    10
    .L.str.23
        0x00020a22:    2020                DCW    8224
        0x00020a24:    20202020            DCD    538976288
        0x00020a28:    46422020      BF    DCD    1178738720
        0x00020a2c:    62205253    SR b    DCD    1646285395
        0x00020a30:    3a317469    it1:    DCD    976319593
        0x00020a34:    45525020     PRE    DCD    1163022368
        0x00020a38:    45534943    CISE    DCD    1163086147
        0x00020a3c:    0a525245    ERR.    DCD    173167173
        0x00020a40:    00          .       DCB    0
    .L.str.20
        0x00020a41:    202020              DCB    32,32,32
        0x00020a44:    20202020            DCD    538976288
        0x00020a48:    53464220     BFS    DCD    1397113376
        0x00020a4c:    69622052    R bi    DCD    1768038482
        0x00020a50:    203a3474    t4:     DCD    540685428
        0x00020a54:    454b5453    STKE    DCD    1162564691
        0x00020a58:    000a5252    RR..    DCD    676434
    .L.str.21
        0x00020a5c:    20202020            DCD    538976288
        0x00020a60:    20202020            DCD    538976288
        0x00020a64:    52534642    BFSR    DCD    1381189186
        0x00020a68:    74696220     bit    DCD    1953063456
        0x00020a6c:    55203a33    3: U    DCD    1428175411
        0x00020a70:    4b54534e    NSTK    DCD    1263817550
        0x00020a74:    0a525245    ERR.    DCD    173167173
        0x00020a78:    00          .       DCB    0
    .L.str.19
        0x00020a79:    202020              DCB    32,32,32
        0x00020a7c:    20202020            DCD    538976288
        0x00020a80:    53464220     BFS    DCD    1397113376
        0x00020a84:    69622052    R bi    DCD    1768038482
        0x00020a88:    203a3574    t5:     DCD    540685684
        0x00020a8c:    4550534c    LSPE    DCD    1162892108
        0x00020a90:    000a5252    RR..    DCD    676434
    .L.str.22
        0x00020a94:    20202020            DCD    538976288
        0x00020a98:    20202020            DCD    538976288
        0x00020a9c:    52534642    BFSR    DCD    1381189186
        0x00020aa0:    74696220     bit    DCD    1953063456
        0x00020aa4:    49203a32    2: I    DCD    1226848818
        0x00020aa8:    4552504d    MPRE    DCD    1163022413
        0x00020aac:    45534943    CISE    DCD    1163086147
        0x00020ab0:    000a5252    RR..    DCD    676434
    .L.str.24
        0x00020ab4:    20202020            DCD    538976288
        0x00020ab8:    20202020            DCD    538976288
        0x00020abc:    52534642    BFSR    DCD    1381189186
        0x00020ac0:    74696220     bit    DCD    1953063456
        0x00020ac4:    49203a30    0: I    DCD    1226848816
        0x00020ac8:    45535542    BUSE    DCD    1163089218
        0x00020acc:    000a5252    RR..    DCD    676434
    .L.str.16
        0x00020ad0:    20202020            DCD    538976288
        0x00020ad4:    52534642    BFSR    DCD    1381189186
        0x00020ad8:    75422820     (Bu    DCD    1967269920
        0x00020adc:    61462073    s Fa    DCD    1631985779
        0x00020ae0:    20746c75    ult     DCD    544500853
        0x00020ae4:    74617453    Stat    DCD    1952543827
        0x00020ae8:    52207375    us R    DCD    1377858421
        0x00020aec:    20296765    eg)     DCD    539584357
        0x00020af0:    7830203d    = 0x    DCD    2016419901
        0x00020af4:    58323025    %02X    DCD    1479684133
        0x00020af8:    000a        ..      DCW    10
    .L.str.14
        0x00020afa:    2020                DCW    8224
        0x00020afc:    4d4d2020      MM    DCD    1296900128
        0x00020b00:    28205253    SR (    DCD    673206867
        0x00020b04:    206d654d    Mem     DCD    544040269
        0x00020b08:    746d674d    Mgmt    DCD    1953326925
        0x00020b0c:    75614620     Fau    DCD    1969309216
        0x00020b10:    5320746c    lt S    DCD    1394635884
        0x00020b14:    75746174    tatu    DCD    1970561396
        0x00020b18:    65522073    s Re    DCD    1699881075
        0x00020b1c:    3d202967    g) =    DCD    1025517927
        0x00020b20:    25783020     0x%    DCD    628633632
        0x00020b24:    0a583230    02X.    DCD    173552176
        0x00020b28:    00          .       DCB    0
    .L.str.15
        0x00020b29:    202020              DCB    32,32,32
        0x00020b2c:    53465520     UFS    DCD    1397118240
        0x00020b30:    55282052    R (U    DCD    1428693074
        0x00020b34:    65676173    sage    DCD    1701273971
        0x00020b38:    75614620     Fau    DCD    1969309216
        0x00020b3c:    5320746c    lt S    DCD    1394635884
        0x00020b40:    75746174    tatu    DCD    1970561396
        0x00020b44:    65522073    s Re    DCD    1699881075
        0x00020b48:    3d202967    g) =    DCD    1025517927
        0x00020b4c:    25783020     0x%    DCD    628633632
        0x00020b50:    0a583430    04X.    DCD    173552688
        0x00020b54:    00          .       DCB    0
    .L.str.27
        0x00020b55:    202020              DCB    32,32,32
        0x00020b58:    4f434420     DCO    DCD    1329808416
        0x00020b5c:    46204544    DE F    DCD    1176520004
        0x00020b60:    746c7561    ault    DCD    1953264993
        0x00020b64:    64644120     Add    DCD    1684291872
        0x00020b68:    73736572    ress    DCD    1936942450
        0x00020b6c:    7830203a    : 0x    DCD    2016419898
        0x00020b70:    58383025    %08X    DCD    1480077349
        0x00020b74:    000a        ..      DCW    10
    .L.str.26
        0x00020b76:    2020                DCW    8224
        0x00020b78:    43492020      IC    DCD    1128865824
        0x00020b7c:    2045444f    ODE     DCD    541410383
        0x00020b80:    6c756146    Faul    DCD    1819631942
        0x00020b84:    64412074    t Ad    DCD    1681989748
        0x00020b88:    73657264    dres    DCD    1936028260
        0x00020b8c:    30203a73    s: 0    DCD    807418483
        0x00020b90:    38302578    x%08    DCD    942679416
        0x00020b94:    0a58        X.      DCW    2648
        0x00020b96:    00          .       DCB    0
    .L.str.28
        0x00020b97:    20                  DCB    32
        0x00020b98:    53202020       S    DCD    1394614304
        0x00020b9c:    46205359    YS F    DCD    1176523609
        0x00020ba0:    746c7561    ault    DCD    1953264993
        0x00020ba4:    64644120     Add    DCD    1684291872
        0x00020ba8:    73736572    ress    DCD    1936942450
        0x00020bac:    7830203a    : 0x    DCD    2016419898
        0x00020bb0:    58383025    %08X    DCD    1480077349
        0x00020bb4:    000a        ..      DCW    10
    .L.str.3
        0x00020bb6:    2020                DCW    8224
        0x00020bb8:    30522020      R0    DCD    810688544
        0x00020bbc:    203d2020      =     DCD    540876832
        0x00020bc0:    30257830    0x%0    DCD    807761968
        0x00020bc4:    000a5838    8X..    DCD    677944
    .L.str.4
        0x00020bc8:    20202020            DCD    538976288
        0x00020bcc:    20203152    R1      DCD    538980690
        0x00020bd0:    7830203d    = 0x    DCD    2016419901
        0x00020bd4:    58383025    %08X    DCD    1480077349
        0x00020bd8:    000a        ..      DCW    10
    .L.str.5
        0x00020bda:    2020                DCW    8224
        0x00020bdc:    32522020      R2    DCD    844242976
        0x00020be0:    203d2020      =     DCD    540876832
        0x00020be4:    30257830    0x%0    DCD    807761968
        0x00020be8:    000a5838    8X..    DCD    677944
    .L.str.6
        0x00020bec:    20202020            DCD    538976288
        0x00020bf0:    20203352    R3      DCD    538981202
        0x00020bf4:    7830203d    = 0x    DCD    2016419901
        0x00020bf8:    58383025    %08X    DCD    1480077349
        0x00020bfc:    000a        ..      DCW    10
    .L.str.9
        0x00020bfe:    2020                DCW    8224
        0x00020c00:    43502020      PC    DCD    1129324576
        0x00020c04:    203d2020      =     DCD    540876832
        0x00020c08:    30257830    0x%0    DCD    807761968
        0x00020c0c:    000a5838    8X..    DCD    677944
    .L.str.8
        0x00020c10:    20202020            DCD    538976288
        0x00020c14:    2020524c    LR      DCD    538989132
        0x00020c18:    7830203d    = 0x    DCD    2016419901
        0x00020c1c:    58383025    %08X    DCD    1480077349
        0x00020c20:    000a        ..      DCW    10
    .L.str.13
        0x00020c22:    2020                DCW    8224
        0x00020c24:    46422020      BF    DCD    1178738720
        0x00020c28:    28205241    AR (    DCD    673206849
        0x00020c2c:    20737542    Bus     DCD    544437570
        0x00020c30:    6c756146    Faul    DCD    1819631942
        0x00020c34:    64412074    t Ad    DCD    1681989748
        0x00020c38:    52207264    dr R    DCD    1377858148
        0x00020c3c:    20296765    eg)     DCD    539584357
        0x00020c40:    7830203d    = 0x    DCD    2016419901
        0x00020c44:    58383025    %08X    DCD    1480077349
        0x00020c48:    000a        ..      DCW    10
    .L.str.7
        0x00020c4a:    2020                DCW    8224
        0x00020c4c:    31522020      R1    DCD    827465760
        0x00020c50:    203d2032    2 =     DCD    540876850
        0x00020c54:    30257830    0x%0    DCD    807761968
        0x00020c58:    000a5838    8X..    DCD    677944
    .L.str.12
        0x00020c5c:    20202020            DCD    538976288
        0x00020c60:    6c756146    Faul    DCD    1819631942
        0x00020c64:    64612074    t ad    DCD    1684086900
        0x00020c68:    73657264    dres    DCD    1936028260
        0x00020c6c:    203d2073    s =     DCD    540876915
        0x00020c70:    30257830    0x%0    DCD    807761968
        0x00020c74:    000a5838    8X..    DCD    677944
    .L.str
        0x00020c78:    0a0a0a0a    ....    DCD    168430090
        0x00020c7c:    0a0a0a0a    ....    DCD    168430090
        0x00020c80:    0a0a0a0a    ....    DCD    168430090
        0x00020c84:    0a0a0a0a    ....    DCD    168430090
        0x00020c88:    0a0a        ..      DCW    2570
        0x00020c8a:    00          .       DCB    0
    .L.str.15
        0x00020c8b:    52          R       DCB    82
        0x00020c8c:    53514478    xDQS    DCD    1397834872
        0x00020c90:    616c6544    Dela    DCD    1634493764
        0x00020c94:    73692079    y is    DCD    1936269433
        0x00020c98:    74657320     set    DCD    1952805664
        0x00020c9c:    206f7420     to     DCD    544175136
        0x00020ca0:    0a2e6425    %d..    DCD    170812453
        0x00020ca4:    000a        ..      DCW    10
    .L.str.6
        0x00020ca6:    6572        re      DCW    25970
        0x00020ca8:    46206461    ad F    DCD    1176527969
        0x00020cac:    464f4649    IFOF    DCD    1179600457
        0x00020cb0:    214c4c55    ULL!    DCD    558648405
        0x00020cb4:    000a        ..      DCW    10
    .L.str.9
        0x00020cb6:    6c66        fl      DCW    27750
        0x00020cb8:    20687361    ash     DCD    543716193
        0x00020cbc:    74697277    writ    DCD    1953067639
        0x00020cc0:    6f632065    e co    DCD    1868767333
        0x00020cc4:    656c706d    mple    DCD    1701605485
        0x00020cc8:    202c6574    te,     DCD    539780468
        0x00020ccc:    72617473    star    DCD    1918989427
        0x00020cd0:    534d2074    t MS    DCD    1397563508
        0x00020cd4:    54204950    PI T    DCD    1411402064
        0x00020cd8:    6e696d69    imin    DCD    1852403049
        0x00020cdc:    63532067    g Sc    DCD    1666392167
        0x00020ce0:    0a216e61    an!.    DCD    169963105
        0x00020ce4:    00          .       DCB    0
    .L.str.7
        0x00020ce5:    202020              DCB    32,32,32
        0x00020ce8:    20                  DCB    32
    .L.str.9
        0x00020ce9:    466169      Fai     DCB    70,97,105
        0x00020cec:    2064656c    led     DCD    543450476
        0x00020cf0:    63206f74    to c    DCD    1663070068
        0x00020cf4:    69666e6f    onfi    DCD    1768320623
        0x00020cf8:    65727567    gure    DCD    1701999975
        0x00020cfc:    65687420     the    DCD    1701344288
        0x00020d00:    50534d20     MSP    DCD    1347636512
        0x00020d04:    6e612049    I an    DCD    1851859017
        0x00020d08:    6c462064    d Fl    DCD    1816535140
        0x00020d0c:    20687361    ash     DCD    543716193
        0x00020d10:    69766544    Devi    DCD    1769366852
        0x00020d14:    63206563    ce c    DCD    1663067491
        0x00020d18:    6572726f    orre    DCD    1701999215
        0x00020d1c:    796c7463    ctly    DCD    2037150819
        0x00020d20:    0a21        !.      DCW    2593
        0x00020d22:    00          .       DCB    0
    .L.str.4
        0x00020d23:    45          E       DCB    69
        0x00020d24:    726f7272    rror    DCD    1919906418
        0x00020d28:    46202d20     - F    DCD    1176513824
        0x00020d2c:    656c6961    aile    DCD    1701603681
        0x00020d30:    6f742064    d to    DCD    1869881444
        0x00020d34:    616e6520     ena    DCD    1634624800
        0x00020d38:    20656c62    ble     DCD    543517794
        0x00020d3c:    4950534d    MSPI    DCD    1230000973
        0x00020d40:    0a2e        ..      DCW    2606
        0x00020d42:    00          .       DCB    0
    .L.str.3
        0x00020d43:    45          E       DCB    69
        0x00020d44:    726f7272    rror    DCD    1919906418
        0x00020d48:    46202d20     - F    DCD    1176513824
        0x00020d4c:    656c6961    aile    DCD    1701603681
        0x00020d50:    6f742064    d to    DCD    1869881444
        0x00020d54:    6e6f6320     con    DCD    1852793632
        0x00020d58:    75676966    figu    DCD    1969711462
        0x00020d5c:    4d206572    re M    DCD    1293968754
        0x00020d60:    2e495053    SPI.    DCD    776556627
        0x00020d64:    000a        ..      DCW    10
    .L.str
        0x00020d66:    7245        Er      DCW    29253
        0x00020d68:    20726f72    ror     DCD    544370546
        0x00020d6c:    6146202d    - Fa    DCD    1631985709
        0x00020d70:    64656c69    iled    DCD    1684368489
        0x00020d74:    206f7420     to     DCD    544175136
        0x00020d78:    74696e69    init    DCD    1953066601
        0x00020d7c:    696c6169    iali    DCD    1768710505
        0x00020d80:    4d20657a    ze M    DCD    1293968762
        0x00020d84:    2e495053    SPI.    DCD    776556627
        0x00020d88:    000a        ..      DCW    10
    .L.str.1
        0x00020d8a:    7245        Er      DCW    29253
        0x00020d8c:    20726f72    ror     DCD    544370546
        0x00020d90:    6146202d    - Fa    DCD    1631985709
        0x00020d94:    64656c69    iled    DCD    1684368489
        0x00020d98:    206f7420     to     DCD    544175136
        0x00020d9c:    65776f70    powe    DCD    1702326128
        0x00020da0:    6e6f2072    r on    DCD    1852776562
        0x00020da4:    50534d20     MSP    DCD    1347636512
        0x00020da8:    000a2e49    I...    DCD    667209
    .L.str.14
        0x00020dac:    6d69540a    .Tim    DCD    1835619338
        0x00020db0:    20676e69    ing     DCD    543649385
        0x00020db4:    6e616353    Scan    DCD    1851876179
        0x00020db8:    756f6620     fou    DCD    1970234912
        0x00020dbc:    6120646e    nd a    DCD    1629512814
        0x00020dc0:    6e697720     win    DCD    1852405536
        0x00020dc4:    20776f64    dow     DCD    544698212
        0x00020dc8:    66206425    %d f    DCD    1713398821
        0x00020dcc:    20656e69    ine     DCD    543518313
        0x00020dd0:    70657473    step    DCD    1885697139
        0x00020dd4:    69772073    s wi    DCD    1769414771
        0x00020dd8:    69206564    de i    DCD    1763730788
        0x00020ddc:    6573206e    n se    DCD    1702043758
        0x00020de0:    6e697474    ttin    DCD    1852404852
        0x00020de4:    64252067    g %d    DCD    1680154727
        0x00020de8:    0a2e        ..      DCW    2606
        0x00020dea:    00          .       DCB    0
    .L.str.2
        0x00020deb:    45          E       DCB    69
        0x00020dec:    726f7272    rror    DCD    1919906418
        0x00020df0:    46202d20     - F    DCD    1176513824
        0x00020df4:    656c6961    aile    DCD    1701603681
        0x00020df8:    6f742064    d to    DCD    1869881444
        0x00020dfc:    6e6f6320     con    DCD    1852793632
        0x00020e00:    75676966    figu    DCD    1969711462
        0x00020e04:    4d206572    re M    DCD    1293968754
        0x00020e08:    20495053    SPI     DCD    541675603
        0x00020e0c:    69766564    devi    DCD    1769366884
        0x00020e10:    0a2e6563    ce..    DCD    170812771
        0x00020e14:    00          .       DCB    0
    .L.str.17
        0x00020e15:    457272      Err     DCB    69,114,114
        0x00020e18:    2d20726f    or -    DCD    757101167
        0x00020e1c:    69614620     Fai    DCD    1767982624
        0x00020e20:    2064656c    led     DCD    543450476
        0x00020e24:    64206f74    to d    DCD    1679847284
        0x00020e28:    6c627369    isbl    DCD    1818391401
        0x00020e2c:    736d2065    e ms    DCD    1936531557
        0x00020e30:    0a2e6970    pi..    DCD    170813808
        0x00020e34:    00          .       DCB    0
    .L.str.18
        0x00020e35:    457272      Err     DCB    69,114,114
        0x00020e38:    2d20726f    or -    DCD    757101167
        0x00020e3c:    69614620     Fai    DCD    1767982624
        0x00020e40:    2064656c    led     DCD    543450476
        0x00020e44:    63206f74    to c    DCD    1663070068
        0x00020e48:    69666e6f    onfi    DCD    1768320623
        0x00020e4c:    65727567    gure    DCD    1701999975
        0x00020e50:    70736d20     msp    DCD    1886612768
        0x00020e54:    000a2e69    i...    DCD    667241
    .L.str.13
        0x00020e58:    4e785420     TxN    DCD    1316508704
        0x00020e5c:    25206765    eg %    DCD    622880613
        0x00020e60:    52202c64    d, R    DCD    1377840228
        0x00020e64:    67654e78    xNeg    DCD    1734692472
        0x00020e68:    2c642520     %d,    DCD    744760608
        0x00020e6c:    43785220     RxC    DCD    1131958816
        0x00020e70:    25207061    ap %    DCD    622882913
        0x00020e74:    54202c64    d, T    DCD    1411394660
        0x00020e78:    53514478    xDQS    DCD    1397834872
        0x00020e7c:    616c6544    Dela    DCD    1634493764
        0x00020e80:    64252079    y %d    DCD    1680154745
        0x00020e84:    7554202c    , Tu    DCD    1968447532
        0x00020e88:    72616e72    rnar    DCD    1918987890
        0x00020e8c:    646e756f    ound    DCD    1684960623
        0x00020e90:    20642520     %d     DCD    543434016
        0x00020e94:    30203d3d    == 0    DCD    807419197
        0x00020e98:    38302578    x%08    DCD    942679416
        0x00020e9c:    0a58        X.      DCW    2648
        0x00020e9e:    00          .       DCB    0
    .L.str.16
        0x00020e9f:    53          S       DCB    83
        0x00020ea0:    61697265    eria    DCD    1634300517
        0x00020ea4:    6f6d206c    l mo    DCD    1869422700
        0x00020ea8:    72206564    de r    DCD    1914725732
        0x00020eac:    20646165    ead     DCD    543449445
        0x00020eb0:    5b52434e    NCR[    DCD    1532117838
        0x00020eb4:    3d205d36    6] =    DCD    1025531190
        0x00020eb8:    25783020     0x%    DCD    628633632
        0x00020ebc:    0a783230    02x.    DCD    175649328
        0x00020ec0:    00          .       DCB    0
    .L.str.5
        0x00020ec1:    466c61      Fla     DCB    70,108,97
        0x00020ec4:    49206873    sh I    DCD    1226860659
        0x00020ec8:    203d2044    D =     DCD    540876868
        0x00020ecc:    30257830    0x%0    DCD    807761968
        0x00020ed0:    7836        6x      DCW    30774
    .L.str.12
        0x00020ed2:    000a        ..      DCW    10
    .L.str.10
        0x00020ed4:    696d6974    timi    DCD    1768778100
        0x00020ed8:    7320676e    ng s    DCD    1931503470
        0x00020edc:    6e6e6163    cann    DCD    1852727651
        0x00020ee0:    20676e69    ing     DCD    543649385
        0x00020ee4:    00          .       DCB    0
    .L.str.11
        0x00020ee5:    2e0000      ...     DCB    46,0,0
    __tagsym$$used.1
    ui32DSP0Allowed
        0x00020ee8:    00000000    ....    DCD    0
        0x00020eec:    00000000    ....    DCD    0
        0x00020ef0:    00000000    ....    DCD    0
        0x00020ef4:    00000000    ....    DCD    0
        0x00020ef8:    00000000    ....    DCD    0
    __tagsym$$used.2
    ui32DSP1Allowed
        0x00020efc:    00000000    ....    DCD    0
        0x00020f00:    00000000    ....    DCD    0
        0x00020f04:    00000000    ....    DCD    0
        0x00020f08:    00000000    ....    DCD    0
        0x00020f0c:    00000000    ....    DCD    0
    __tagsym$$used.0
    ui32MCUAllowed
        0x00020f10:    00000000    ....    DCD    0
        0x00020f14:    00000000    ....    DCD    0
        0x00020f18:    00000000    ....    DCD    0
        0x00020f1c:    00000000    ....    DCD    0
        0x00020f20:    00000000    ....    DCD    0
    __tagsym$$used.3
    ui32SharedAccess
        0x00020f24:    00000000    ....    DCD    0
        0x00020f28:    00000000    ....    DCD    0
        0x00020f2c:    00000000    ....    DCD    0
        0x00020f30:    00000000    ....    DCD    0
        0x00020f34:    00000000    ....    DCD    0
    Region$$Table$$Base
        0x00020f38:    00020f68    h...    DCD    135016
        0x00020f3c:    10000000    ....    DCD    268435456
        0x00020f40:    000006d8    ....    DCD    1752
        0x00020f44:    00018270    p...    DCD    98928
        0x00020f48:    000212b8    ....    DCD    135864
        0x00020f4c:    10060000    ....    DCD    268828672
        0x00020f50:    00000240    @...    DCD    576
        0x00020f54:    00018270    p...    DCD    98928
        0x00020f58:    000212b8    ....    DCD    135864
        0x00020f5c:    100006d8    ....    DCD    268437208
        0x00020f60:    00009328    (...    DCD    37672
        0x00020f64:    000182e8    ....    DCD    99048
    Region$$Table$$Limit

** Section #2 'MCU_TCM' (SHT_PROGBITS) [SHF_ALLOC + SHF_WRITE]
    Size   : 848 bytes (alignment 8)
    Address: 0x10000000

    Data section was compressed (Original size: 1752 bytes)

    0x10000000:   1f 03 01 00 fd fd 12 12 08 00 00 01 01 01 01 01    ................
    0x10000010:   01 00 00 00 00 00 1f 03 01 00 fd fd 12 12 09 00    ................
    0x10000020:   00 01 01 01 01 01 01 00 00 00 00 00 08 03 00 00    ................
    0x10000030:   0c 00 12 00 00 00 00 04 00 01 01 01 00 00 00 00    ................
    0x10000040:   00 00 08 03 00 00 0c 00 12 00 00 00 00 04 00 01    ................
    0x10000050:   01 01 00 00 00 00 00 00 10 03 00 00 cc 00 8e 00    ................
    0x10000060:   18 00 00 01 00 01 01 01 00 00 00 00 00 00 10 03    ................
    0x10000070:   00 00 cc 00 8e 00 19 00 00 01 00 01 01 01 00 00    ................
    0x10000080:   00 00 00 00 00 01 02 0f 01 00 00 00 00 00 00 00    ................
    0x10000090:   92 24 01 80 20 01 00 00 6d db 02 40 d1 02 00 00    .$.. ...m..@....
    0x100000a0:   01 00 00 00 10 00 00 00 00 00 01 00 00 00 10 00    ................
    0x100000b0:   00 00 00 00 01 00 00 04 10 00 00 00 00 00 02 00    ................
    0x100000c0:   00 00 01 00 00 00 00 00 00 00 00 00 00 00 00 00    ................
    0x100000d0:   00 00 00 14 00 0a 00 00 00 00 00 00 00 00 00 00    ................
    0x100000e0:   00 00 00 18 00 0a 00 00 00 00 00 00 00 00 00 00    ................
    0x100000f0:   00 00 00 1c 00 0a 00 00 03 01 00 00 03 01 00 00    ................
    0x10000100:   07 05 24 00 07 05 25 00 00 0c 00 00 00 0c 00 00    ..$...%.........
    0x10000110:   00 0c 00 00 00 0c 00 00 00 0c 00 00 00 0c 00 00    ................
    0x10000120:   00 0c 00 00 00 0c 00 00 00 0c 00 00 00 0c 00 00    ................
    0x10000130:   07 05 22 00 00 0c 00 00 00 0c 00 00 00 0c 00 00    ..".............
    0x10000140:   00 0c 00 00 00 0c 00 00 00 0c 00 00 00 0c 00 00    ................
    0x10000150:   00 0c 00 00 00 0c 00 00 00 0c 00 00 07 05 20 00    .............. .
    0x10000160:   00 0c 00 00 00 0c 00 00 00 0c 00 00 00 0c 00 00    ................
    0x10000170:   00 0c 00 00 00 0c 00 00 00 0c 00 00 00 0c 00 00    ................
    0x10000180:   00 0c 00 00 00 0c 00 00 00 0c 00 00 00 0c 00 00    ................
    0x10000190:   00 0c 00 00 00 0c 00 00 00 0c 00 00 00 0c 00 00    ................
    0x100001a0:   00 0c 00 00 80 0c 00 00 00 0c 00 00 00 00 00 00    ................
    0x100001b0:   2c 00 00 10 01 00 00 00 42 00 00 10 08 00 00 00    ,.......B.......
    0x100001c0:   00 00 00 10 09 00 00 00 16 00 00 10 18 00 00 00    ................
    0x100001d0:   58 00 00 10 19 00 00 00 6e 00 00 10 ff ff ff ff    X.......n.......
    0x100001e0:   ff ff ff ff 08 1e 0c 40 18 1e 0c 40 01 00 00 01    .......@...@....
    0x100001f0:   01 1d 01 00 00 02 01 1d 01 00 00 03 01 1d 01 00    ................
    0x10000200:   00 04 01 1d 01 00 00 05 01 1d 01 00 00 06 01 1d    ................
    0x10000210:   01 00 00 07 01 1d 01 00 00 08 01 1d 01 00 00 09    ................
    0x10000220:   01 1d 01 00 00 01 01 1e 01 00 00 02 01 1e 01 00    ................
    0x10000230:   00 03 01 1e 01 00 00 04 01 1e 01 00 00 05 01 1e    ................
    0x10000240:   01 00 00 06 01 1e 01 00 00 07 01 1e 01 00 00 08    ................
    0x10000250:   01 1e 01 00 00 09 01 1e 01 00 00 01 01 1f 01 00    ................
    0x10000260:   00 02 01 1f 01 00 00 03 01 1f 01 00 00 04 01 1f    ................
    0x10000270:   01 00 00 05 01 1f 01 00 00 06 01 1f 01 00 00 07    ................
    0x10000280:   01 1f 01 00 00 08 01 1f 01 00 00 09 01 1f 01 00    ................
    0x10000290:   00 01 01 20 01 00 00 02 01 20 01 00 00 03 01 20    ... ..... ..... 
    0x100002a0:   01 00 00 04 01 20 01 00 00 05 01 20 01 00 00 06    ..... ..... ....
    0x100002b0:   01 20 01 00 00 07 01 20 01 00 00 08 01 20 01 00    . ..... ..... ..
    0x100002c0:   00 09 01 20 01 00 00 01 01 21 01 00 00 02 01 21    ... .....!.....!
    0x100002d0:   01 00 00 03 01 21 01 00 00 04 01 21 01 00 00 05    .....!.....!....
    0x100002e0:   01 21 01 00 00 06 01 21 01 00 00 07 01 21 01 00    .!.....!.....!..
    0x100002f0:   00 08 01 21 01 00 00 09 01 21 01 00 00 01 01 22    ...!.....!....."
    0x10000300:   01 00 00 02 01 22 01 00 00 03 01 22 01 00 00 04    ....."....."....
    0x10000310:   01 22 01 00 00 05 01 22 01 00 00 06 01 22 01 00    ."....."....."..
    0x10000320:   00 07 01 22 01 00 00 08 01 22 01 00 00 09 01 22    ..."....."....."
    0x10000330:   01 00 01 01 01 1d 01 00 01 02 01 1d 01 00 01 03    ................
    0x10000340:   01 1d 01 00 01 04 01 1d 01 00 01 05 01 1d 01 00    ................
    0x10000350:   01 06 01 1d 01 00 01 07 01 1d 01 00 01 08 01 1d    ................
    0x10000360:   01 00 01 09 01 1d 01 00 01 01 01 1e 01 00 01 02    ................
    0x10000370:   01 1e 01 00 01 03 01 1e 01 00 01 04 01 1e 01 00    ................
    0x10000380:   01 05 01 1e 01 00 01 06 01 1e 01 00 01 07 01 1e    ................
    0x10000390:   01 00 01 08 01 1e 01 00 01 09 01 1e 01 00 01 01    ................
    0x100003a0:   01 1f 01 00 01 02 01 1f 01 00 01 03 01 1f 01 00    ................
    0x100003b0:   01 04 01 1f 01 00 01 05 01 1f 01 00 01 06 01 1f    ................
    0x100003c0:   01 00 01 07 01 1f 01 00 01 08 01 1f 01 00 01 09    ................
    0x100003d0:   01 1f 01 00 01 01 01 20 01 00 01 02 01 20 01 00    ....... ..... ..
    0x100003e0:   01 03 01 20 01 00 01 04 01 20 01 00 01 05 01 20    ... ..... ..... 
    0x100003f0:   01 00 01 06 01 20 01 00 01 07 01 20 01 00 01 08    ..... ..... ....
    0x10000400:   01 20 01 00 01 09 01 20 01 00 01 01 01 21 01 00    . ..... .....!..
    0x10000410:   01 02 01 21 01 00 01 03 01 21 01 00 01 04 01 21    ...!.....!.....!
    0x10000420:   01 00 01 05 01 21 01 00 01 06 01 21 01 00 01 07    .....!.....!....
    0x10000430:   01 21 01 00 01 08 01 21 01 00 01 09 01 21 01 00    .!.....!.....!..
    0x10000440:   01 01 01 22 01 00 01 02 01 22 01 00 01 03 01 22    ..."....."....."
    0x10000450:   01 00 01 04 01 22 01 00 01 05 01 22 01 00 01 06    ....."....."....
    0x10000460:   01 22 01 00 01 07 01 22 01 00 01 08 01 22 01 00    ."....."....."..
    0x10000470:   01 09 01 22 01 01 00 01 01 1d 01 01 00 02 01 1d    ..."............
    0x10000480:   01 01 00 03 01 1d 01 01 00 04 01 1d 01 01 00 05    ................
    0x10000490:   01 1d 01 01 00 06 01 1d 01 01 00 01 01 1e 01 01    ................
    0x100004a0:   00 02 01 1e 01 01 00 03 01 1e 01 01 00 04 01 1e    ................
    0x100004b0:   01 01 00 05 01 1e 01 01 00 06 01 1e 01 01 00 01    ................
    0x100004c0:   01 1f 01 01 00 02 01 1f 01 01 00 03 01 1f 01 01    ................
    0x100004d0:   00 04 01 1f 01 01 00 05 01 1f 01 01 00 06 01 1f    ................
    0x100004e0:   01 01 00 01 01 20 01 01 00 02 01 20 01 01 00 03    ..... ..... ....
    0x100004f0:   01 20 01 01 00 04 01 20 01 01 00 05 01 20 01 01    . ..... ..... ..
    0x10000500:   00 06 01 20 01 01 00 01 01 21 01 01 00 02 01 21    ... .....!.....!
    0x10000510:   01 01 00 03 01 21 01 01 00 04 01 21 01 01 00 05    .....!.....!....
    0x10000520:   01 21 01 01 00 06 01 21 01 01 00 01 01 22 01 01    .!.....!....."..
    0x10000530:   00 02 01 22 01 01 00 03 01 22 01 01 00 04 01 22    ..."....."....."
    0x10000540:   01 01 00 05 01 22 01 01 00 06 01 22 01 01 01 01    ....."....."....
    0x10000550:   01 1d 01 01 01 02 01 1d 01 01 01 03 01 1d 01 01    ................
    0x10000560:   01 04 01 1d 01 01 01 05 01 1d 01 01 01 06 01 1d    ................
    0x10000570:   01 01 01 01 01 1e 01 01 01 02 01 1e 01 01 01 03    ................
    0x10000580:   01 1e 01 01 01 04 01 1e 01 01 01 05 01 1e 01 01    ................
    0x10000590:   01 06 01 1e 01 01 01 01 01 1f 01 01 01 02 01 1f    ................
    0x100005a0:   01 01 01 03 01 1f 01 01 01 04 01 1f 01 01 01 05    ................
    0x100005b0:   01 1f 01 01 01 06 01 1f 01 01 01 01 01 20 01 01    ............. ..
    0x100005c0:   01 02 01 20 01 01 01 03 01 20 01 01 01 04 01 20    ... ..... ..... 
    0x100005d0:   01 01 01 05 01 20 01 01 01 06 01 20 01 01 01 07    ..... ..... ....
    0x100005e0:   01 20 01 01 01 08 01 20 01 01 01 09 01 20 01 01    . ..... ..... ..
    0x100005f0:   01 01 01 21 01 01 01 02 01 21 01 01 01 03 01 21    ...!.....!.....!
    0x10000600:   01 01 01 04 01 21 01 01 01 05 01 21 01 01 01 06    .....!.....!....
    0x10000610:   01 21 01 01 01 07 01 21 01 01 01 08 01 21 01 01    .!.....!.....!..
    0x10000620:   01 09 01 21 01 01 01 01 01 22 01 01 01 02 01 22    ...!....."....."
    0x10000630:   01 01 01 03 01 22 01 01 01 04 01 22 01 01 01 05    ....."....."....
    0x10000640:   01 22 01 01 01 06 01 22 01 01 01 07 01 22 01 01    ."....."....."..
    0x10000650:   01 08 01 22 01 01 01 09 01 22 00 00 4d 53 50 49    ..."....."..MSPI
    0x10000660:   20 46 4c 41 53 48 20 49 53 32 35 57 58 30 36 34     FLASH IS25WX064
    0x10000670:   00 00 00 00 00 00 00 00 00 00 00 00 c9 93 01 00    ................
    0x10000680:   c5 90 01 00 e9 92 01 00 39 a0 01 00 29 a2 01 00    ........9...)...
    0x10000690:   00 00 00 00 49 a4 01 00 00 00 00 00 41 9f 01 00    ....I.......A...
    0x100006a0:   89 a3 01 00 6d 92 01 00 f5 91 01 00 31 92 01 00    ....m.......1...
    0x100006b0:   8d 91 01 00 31 99 01 00 99 8f 01 00 01 00 00 01    ....1...........
    0x100006c0:   0e 08 01 00 00 01 0e 10 01 00 01 01 0e 1f 01 00    ................
    0x100006d0:   01 01 0e 1f 00 00 00 00                            ........


** Section #3 'MCU_TCM' (SHT_NOBITS) [SHF_ALLOC + SHF_WRITE]
    Size   : 37672 bytes (alignment 8)
    Address: 0x100006d8


** Section #4 'SHARED_SRAM' (SHT_PROGBITS) [SHF_ALLOC + SHF_WRITE]
    Size   : 12 bytes (alignment 4)
    Address: 0x10060000

    Data section was compressed (Original size: 576 bytes)

    0x10060000:   b0 04 02 00 00 00 00 00 00 00 00 00 00 00 00 00    ................
    0x10060010:   00 00 00 00 00 00 00 00 00 00 00 00 00 00 00 00    ................
    0x10060020:   00 00 00 00 00 00 00 00 00 00 00 00 00 00 00 00    ................
    0x10060030:   00 00 00 00 00 00 00 00 00 00 00 00 00 00 00 00    ................
    0x10060040:   00 00 00 00 00 00 00 00 00 00 00 00 00 00 00 00    ................
    0x10060050:   00 00 00 00 00 00 00 00 00 00 00 00 00 00 00 00    ................
    0x10060060:   00 00 00 00 00 00 00 00 00 00 00 00 00 00 00 00    ................
    0x10060070:   00 00 00 00 00 00 00 00 00 00 00 00 00 00 00 00    ................
    0x10060080:   00 00 00 00 00 00 00 00 00 00 00 00 00 00 00 00    ................
    0x10060090:   00 00 00 00 00 00 00 00 00 00 00 00 00 00 00 00    ................
    0x100600a0:   00 00 00 00 00 00 00 00 00 00 00 00 00 00 00 00    ................
    0x100600b0:   00 00 00 00 00 00 00 00 00 00 00 00 00 00 00 00    ................
    0x100600c0:   00 00 00 00 00 00 00 00 00 00 00 00 00 00 00 00    ................
    0x100600d0:   00 00 00 00 00 00 00 00 00 00 00 00 00 00 00 00    ................
    0x100600e0:   00 00 00 00 00 00 00 00 00 00 00 00 00 00 00 00    ................
    0x100600f0:   00 00 00 00 00 00 00 00 00 00 00 00 00 00 00 00    ................
    0x10060100:   00 00 00 00 00 00 00 00 00 00 00 00 00 00 00 00    ................
    0x10060110:   00 00 00 00 00 00 00 00 00 00 00 00 00 00 00 00    ................
    0x10060120:   00 00 00 00 00 00 00 00 00 00 00 00 00 00 00 00    ................
    0x10060130:   00 00 00 00 00 00 00 00 00 00 00 00 00 00 00 00    ................
    0x10060140:   00 00 00 00 00 00 00 00 00 00 00 00 00 00 00 00    ................
    0x10060150:   00 00 00 00 00 00 00 00 00 00 00 00 00 00 00 00    ................
    0x10060160:   00 00 00 00 00 00 00 00 00 00 00 00 00 00 00 00    ................
    0x10060170:   00 00 00 00 00 00 00 00 00 00 00 00 00 00 00 00    ................
    0x10060180:   00 00 00 00 00 00 00 00 00 00 00 00 00 00 00 00    ................
    0x10060190:   00 00 00 00 00 00 00 00 00 00 00 00 00 00 00 00    ................
    0x100601a0:   00 00 00 00 00 00 00 00 00 00 00 00 00 00 00 00    ................
    0x100601b0:   00 00 00 00 00 00 00 00 00 00 00 00 00 00 00 00    ................
    0x100601c0:   00 00 00 00 00 00 00 00 00 00 00 00 00 00 00 00    ................
    0x100601d0:   00 00 00 00 00 00 00 00 00 00 00 00 00 00 00 00    ................
    0x100601e0:   00 00 00 00 00 00 00 00 00 00 00 00 00 00 00 00    ................
    0x100601f0:   00 00 00 00 00 00 00 00 00 00 00 00 00 00 00 00    ................
    0x10060200:   00 00 00 00 00 00 00 00 00 00 00 00 00 00 00 00    ................
    0x10060210:   00 00 00 00 00 00 00 00 00 00 00 00 00 00 00 00    ................
    0x10060220:   00 00 00 00 00 00 00 00 00 00 00 00 00 00 00 00    ................
    0x10060230:   00 00 00 00 00 00 00 00 00 00 00 00 00 00 00 00    ................


** Section #5 '.debug_abbrev' (SHT_PROGBITS)
    Size   : 1827 bytes


** Section #6 '.debug_frame' (SHT_PROGBITS)
    Size   : 6920 bytes


** Section #7 '.debug_info' (SHT_PROGBITS)
    Size   : 101005 bytes


** Section #8 '.debug_line' (SHT_PROGBITS)
    Size   : 15791 bytes


** Section #9 '.debug_str' (SHT_PROGBITS)
    Size   : 42713 bytes


** Section #10 '.debug_ranges' (SHT_PROGBITS)
    Size   : 608 bytes


** Section #11 '.symtab' (SHT_SYMTAB)
    Size   : 11792 bytes (alignment 4)
    String table #12 '.strtab'
    Last local symbol no. 391

    Symbol table .symtab (736 symbols, 391 local)

      #  Symbol Name                Value      Bind  Sec  Type  Vis  Size
    ========================================================================

      1  $d                         0x00018000   Lc    1   --   De 
      2  $t                         0x00018200   Lc    1   --   De 
      3  $d                         0x00018230   Lc    1   --   De 
      4  $t                         0x00018234   Lc    1   --   De 
      5  $d                         0x00018268   Lc    1   --   De 
      6  $t                         0x00018270   Lc    1   --   De 
      7  $d                         0x0001833a   Lc    1   --   De 
      8  $t                         0x00018348   Lc    1   --   De 
      9  $d                         0x00018544   Lc    1   --   De 
     10  $t                         0x00018548   Lc    1   --   De 
     11  $d                         0x00018550   Lc    1   --   De 
     12  $t                         0x00018554   Lc    1   --   De 
     13  $t.0                       0x00018558   Lc    1   --   De 
     14  $d.4                       0x00018578   Lc    1   --   De 
     15  $t.24                      0x0001857c   Lc    1   --   De 
     16  $d.32                      0x0001873e   Lc    1   --   De 
     17  $t.33                      0x00018752   Lc    1   --   De 
     18  $d.34                      0x000187aa   Lc    1   --   De 
     19  $t.35                      0x000187d2   Lc    1   --   De 
     20  $d.36                      0x0001881c   Lc    1   --   De 
     21  $t.37                      0x00018836   Lc    1   --   De 
     22  $d.14                      0x0001a0ba   Lc    1   --   De 
     23  $t.15                      0x0001a0d4   Lc    1   --   De 
     24  $d.19                      0x0001a514   Lc    1   --   De 
     25  $t.20                      0x0001a52e   Lc    1   --   De 
     26  $d.9                       0x0001aba0   Lc    1   --   De 
     27  $t.10                      0x0001aba4   Lc    1   --   De 
     28  $d.2                       0x0001af3c   Lc    1   --   De 
     29  $t.5                       0x0001af4c   Lc    1   --   De 
     30  $d.6                       0x0001af5a   Lc    1   --   De 
     31  $t.7                       0x0001af60   Lc    1   --   De 
     32  $d.12                      0x0001b40e   Lc    1   --   De 
     33  $t.13                      0x0001b450   Lc    1   --   De 
     34  $d.14                      0x0001b8c2   Lc    1   --   De 
     35  $t.15                      0x0001b8f6   Lc    1   --   De 
     36  $d.22                      0x0001caae   Lc    1   --   De 
     37  $t.23                      0x0001cab4   Lc    1   --   De 
     38  $d.3                       0x0001ceac   Lc    1   --   De 
     39  $t.4                       0x0001ceb4   Lc    1   --   De 
     40  $d.7                       0x0001d12e   Lc    1   --   De 
     41  $t.8                       0x0001d132   Lc    1   --   De 
     42  $d.4                       0x0001d812   Lc    1   --   De 
     43  $t.5                       0x0001d878   Lc    1   --   De 
     44  $d.6                       0x0001f4ca   Lc    1   --   De 
     45  $t.7                       0x0001f4fe   Lc    1   --   De 
     46  $d.40                      0x0001fbac   Lc    1   --   De 
     47  $t.41                      0x0001fbb2   Lc    1   --   De 
     48  $t                         0x0001ff4c   Lc    1   --   De 
     49  $d                         0x0001ff9c   Lc    1   --   De 
     50  $t                         0x0001ffa0   Lc    1   --   De 
     51  $d                         0x0002001e   Lc    1   --   De 
     52  $t                         0x00020022   Lc    1   --   De 
     53  $d.realdata                0x0002006e   Lc    1   --   De 
     54  $d.realdata                0x10000000   Lc    2   --   De 
     55  $d.realdata                0x10060000   Lc    4   --   De 
     56  am_resources.c             0x00000000   Lc  Abs  File  De 
     57  __tagsym$$used.0           0x00020f10   Lc    1   --   De 
     58  __tagsym$$used.1           0x00020ee8   Lc    1   --   De 
     59  __tagsym$$used.2           0x00020efc   Lc    1   --   De 
     60  __tagsym$$used.3           0x00020f24   Lc    1   --   De 
     61  __tagsym$$used.4           0x10060004   Lc    4   --   De 
     62  __tagsym$$used.5           0x10060018   Lc    4   --   De 
     63  __tagsym$$used.6           0x1006002c   Lc    4   --   De 
     64  __tagsym$$used.7           0x000204b0   Lc    1   --   De 
     65  __tagsym$$used.8           0x10060000   Lc    4   --   De 
     66  mspi_octal_example.c       0x00000000   Lc  Abs  File  De 
     67  xip_test_function          0x0001ff09   Lc    1  Code  De   0x42
     68  __NVIC_SetPriority         0x00018649   Lc    1  Code  De   0x42
     69  __NVIC_EnableIRQ           0x00018619   Lc    1  Code  De   0x30
     70  __NVIC_DisableIRQ          0x000185e1   Lc    1  Code  De   0x38
     71  .L.str                     0x000204cc   Lc    1  Data  De   0x1d
     72  .L.str.8                   0x000204e9   Lc    1  Data  De   0x2a
     73  .L.str.1                   0x00020513   Lc    1  Data  De   0x1d
     74  .L.str.5                   0x00020530   Lc    1  Data  De   0x1f
     75  .L.str.3                   0x0002054f   Lc    1  Data  De   0x1a
     76  .L.str.2                   0x00020569   Lc    1  Data  De   0x1a
     77  .L.str.4                   0x00020583   Lc    1  Data  De   0x1a
     78  .L.str.7                   0x0002059d   Lc    1  Data  De   0x1f
     79  .L.str.6                   0x000205bc   Lc    1  Data  De   0x1f
     80  .L.str.12                  0x000205db   Lc    1  Data  De   0x29
     81  .L.str.29                  0x00020604   Lc    1  Data  De   0x2f
     82  .L.str.22                  0x00020633   Lc    1  Data  De   0x36
     83  .L.str.16                  0x00020669   Lc    1  Data  De   0x28
     84  .L.str.14                  0x00020691   Lc    1  Data  De   0x29
     85  .L.str.25                  0x000206ba   Lc    1  Data  De   0x27
     86  .L.str.18                  0x000206e1   Lc    1  Data  De   0x26
     87  .L.str.20                  0x00020707   Lc    1  Data  De   0x23
     88  .L.str.11                  0x0002072a   Lc    1  Data  De   0x26
     89  .L.str.10                  0x00020750   Lc    1  Data  De   0x13
     90  .L.str.15                  0x00020763   Lc    1  Data  De   0x1e
     91  .L.str.21                  0x00020781   Lc    1  Data  De   0x36
     92  .L.str.13                  0x000207b7   Lc    1  Data  De   0x1f
     93  .L.str.28                  0x000207d6   Lc    1  Data  De   0x35
     94  .L.str.24                  0x0002080b   Lc    1  Data  De   0x33
     95  .L.str.19                  0x0002083e   Lc    1  Data  De   0x27
     96  .L.str.30                  0x00020865   Lc    1  Data  De   0x25
     97  .L.str.26                  0x0002088a   Lc    1  Data  De   0x27
     98  .L.str.27                  0x000208b1   Lc    1  Data  De   0x18
     99  .L.str.23                  0x000208c9   Lc    1  Data  De   0x1b
    100  .L.str.17                  0x000208e4   Lc    1  Data  De   0x21
    101  mspi_interrupts            0x000204a8   Lc    1  Data  De   0x3
    102  .L.str.9                   0x00020ce9   Lc    1  Data  De   0x3a
    103  am_util_delay.c            0x00000000   Lc  Abs  File  De 
    104  am_util_faultisr.c         0x00000000   Lc  Abs  File  De 
    105  .L.str.1                   0x00020905   Lc    1  Data  De   0x43
    106  .L.str.29                  0x00020948   Lc    1  Data  De   0x2e
    107  .L.str                     0x00020976   Lc    1  Data  De   0x1a
    108  .L.str.10                  0x00020990   Lc    1  Data  De   0x13
    109  .L.str.2                   0x000209a3   Lc    1  Data  De   0x1a
    110  .L.str.25                  0x000209bd   Lc    1  Data  De   0x12
    111  .L.str.11                  0x000209cf   Lc    1  Data  De   0x18
    112  .L.str.18                  0x000209e7   Lc    1  Data  De   0x1d
    113  .L.str.17                  0x00020a04   Lc    1  Data  De   0x1e
    114  .L.str.23                  0x00020a22   Lc    1  Data  De   0x1f
    115  .L.str.20                  0x00020a41   Lc    1  Data  De   0x1b
    116  .L.str.21                  0x00020a5c   Lc    1  Data  De   0x1d
    117  .L.str.19                  0x00020a79   Lc    1  Data  De   0x1b
    118  .L.str.22                  0x00020a94   Lc    1  Data  De   0x20
    119  .L.str.24                  0x00020ab4   Lc    1  Data  De   0x1c
    120  .L.str.16                  0x00020ad0   Lc    1  Data  De   0x2a
    121  .L.str.14                  0x00020afa   Lc    1  Data  De   0x2f
    122  .L.str.15                  0x00020b29   Lc    1  Data  De   0x2c
    123  .L.str.27                  0x00020b55   Lc    1  Data  De   0x21
    124  .L.str.26                  0x00020b76   Lc    1  Data  De   0x21
    125  .L.str.28                  0x00020b97   Lc    1  Data  De   0x1f
    126  .L.str.3                   0x00020bb6   Lc    1  Data  De   0x12
    127  .L.str.4                   0x00020bc8   Lc    1  Data  De   0x12
    128  .L.str.5                   0x00020bda   Lc    1  Data  De   0x12
    129  .L.str.6                   0x00020bec   Lc    1  Data  De   0x12
    130  .L.str.9                   0x00020bfe   Lc    1  Data  De   0x12
    131  .L.str.8                   0x00020c10   Lc    1  Data  De   0x12
    132  .L.str.13                  0x00020c22   Lc    1  Data  De   0x28
    133  .L.str.7                   0x00020c4a   Lc    1  Data  De   0x12
    134  .L.str.12                  0x00020c5c   Lc    1  Data  De   0x1c
    135  am_util_stdio.c            0x00000000   Lc  Abs  File  De 
    136  decstr_to_int              0x0001e64d   Lc    1  Code  De   0xa6
    137  simple_strlen              0x0001fd51   Lc    1  Code  De   0x36
    138  padbuffer                  0x0001fb1d   Lc    1  Code  De   0x50
    139  ndigits_in_hex             0x0001fa71   Lc    1  Code  De   0x3e
    140  uint64_to_hexstr           0x0001fd89   Lc    1  Code  De   0xc0
    141  ndigits_in_u64             0x0001fae1   Lc    1  Code  De   0x3c
    142  uint64_to_str              0x0001fe49   Lc    1  Code  De   0x88
    143  ndigits_in_i64             0x0001fab1   Lc    1  Code  De   0x30
    144  ftoa                       0x0001eb19   Lc    1  Code  De   0x230
    145  divu64_10                  0x0001e6f5   Lc    1  Code  De   0x118
    146  g_bTxtXlate                0x100085c6   Lc    3  Data  De   0x1
    147  g_prfbuf                   0x100085f0   Lc    3  Data  De   0x400
    148  .L.str                     0x00020c78   Lc    1  Data  De   0x13
    149  am_devices_mspi_atxp032.c  0x00000000   Lc  Abs  File  De 
    150  am_devices_mspi_is25wx064.c
                                    0x00000000   Lc  Abs  File  De 
    151  .L.str.8                   0x0002072a   Lc    1  Data  De   0x26
    152  is25wx064_power_reset      0x0001edb9   Lc    1  Code  De   0x38
    153  is25wx064_pre_config       0x0001edf1   Lc    1  Code  De   0x10e
    154  am_device_deinit_flash     0x00018edd   Lc    1  Code  De   0x2e
    155  command_write_serial       0x0001e41d   Lc    1  Code  De   0x130
    156  command_write_octal        0x0001e30d   Lc    1  Code  De   0x110
    157  command_read_serial        0x0001e105   Lc    1  Code  De   0x13e
    158  command_read_octal         0x0001dfed   Lc    1  Code  De   0x116
    159  pfnMSPI_IS25WX064_Callback 0x0001fb6d   Lc    1  Code  De   0x10
    160  command_write_combo        0x0001e245   Lc    1  Code  De   0xc8
    161  command_read_combo         0x0001df25   Lc    1  Code  De   0xc8
    162  is25wx064_busy_wait_until  0x0001ed51   Lc    1  Code  De   0x68
    163  flash_write                0x0001ea65   Lc    1  Code  De   0xb4
    164  flash_check                0x0001e989   Lc    1  Code  De   0xda
    165  count_consecutive_ones     0x0001e54d   Lc    1  Code  De   0x2c
    166  find_mid_point             0x0001e885   Lc    1  Code  De   0x102
    167  __NVIC_ClearPendingIRQ     0x000185b1   Lc    1  Code  De   0x30
    168  enter_command_mode         0x0001e80d   Lc    1  Code  De   0x3c
    169  exit_command_mode          0x0001e849   Lc    1  Code  De   0x3c
    170  am_devices_mspi_device_reconfigure
                                    0x00018f0d   Lc    1  Code  De   0x8c
    171  prepare_test_pattern       0x0001fb7d   Lc    1  Code  De   0x134
    172  mspi_is25wx064_dma_write   0x0001f8c1   Lc    1  Code  De   0x18c
    173  mspi_is25wx064_dma_read    0x0001f801   Lc    1  Code  De   0xbe
    174  MSPI_IS25WX064_Serial_CE0_MSPIConfig
                                    0x1000002c   Lc    2  Data  De   0x16
    175  MSPI_IS25WX064_Serial_CE1_MSPIConfig
                                    0x10000042   Lc    2  Data  De   0x16
    176  DDROctalCE0MSPIConfig      0x10000000   Lc    2  Data  De   0x16
    177  DDROctalCE1MSPIConfig      0x10000016   Lc    2  Data  De   0x16
    178  OctalCE0_1_8_8_MSPIConfig  0x10000058   Lc    2  Data  De   0x16
    179  OctalCE1_1_8_8_MSPIConfig  0x1000006e   Lc    2  Data  De   0x16
    180  gAmIS25WX064               0x10004924   Lc    3  Data  De   0x38
    181  .L.str.15                  0x00020c8b   Lc    1  Data  De   0x1b
    182  .L.str.6                   0x00020ca6   Lc    1  Data  De   0x10
    183  .L.str.9                   0x00020cb6   Lc    1  Data  De   0x2f
    184  .L.str.7                   0x00020ce5   Lc    1  Data  De   0x3e
    185  .L.str.4                   0x00020d23   Lc    1  Data  De   0x20
    186  .L.str.3                   0x00020d43   Lc    1  Data  De   0x23
    187  .L.str                     0x00020d66   Lc    1  Data  De   0x24
    188  .L.str.1                   0x00020d8a   Lc    1  Data  De   0x22
    189  .L.str.14                  0x00020dac   Lc    1  Data  De   0x3f
    190  .L.str.2                   0x00020deb   Lc    1  Data  De   0x2a
    191  .L.str.17                  0x00020e15   Lc    1  Data  De   0x20
    192  .L.str.18                  0x00020e35   Lc    1  Data  De   0x23
    193  .L.str.13                  0x00020e58   Lc    1  Data  De   0x47
    194  .L.str.16                  0x00020e9f   Lc    1  Data  De   0x22
    195  .L.str.5                   0x00020ec1   Lc    1  Data  De   0x13
    196  .L.str.12                  0x00020ed2   Lc    1  Data  De   0x2
    197  .L.str.10                  0x00020ed4   Lc    1  Data  De   0x11
    198  .L.str.11                  0x00020ee5   Lc    1  Data  De   0x2
    199  gMspiCfg                   0x10004b5c   Lc    3  Data  De   0xc
    200  bTimingConfigSaved         0x1000473e   Lc    3  Data  De   0x1
    201  sTimingConfigStored        0x100089f4   Lc    3  Data  De   0x6
    202  gXipConfig                 0x100000c8   Lc    2  Data  De   0x30
    203  .L__const.am_devices_mspi_is25wx064_init_timing_check.scanCfg
                                    0x00020074   Lc    1  Data  De   0x6
    204  mspi_interrupts            0x000204ab   Lc    1  Data  De   0x3
    205  .L__const.am_devices_mspi_is25wx064_apply_ddr_timing.applyCfg
                                    0x0002006e   Lc    1  Data  De   0x6
    206  __tagsym$$used.0           0x10060040   Lc    4   --   De 
    207  __tagsym$$used.1           0x10060140   Lc    4   --   De 
    208  ../keil6/startup_keil6.s   0x00000000   Lc  Abs  File  De 
    209  STACK                      0x10008a00   Lc    3  Sect  De   0x1000
    210  StackMem                   0x10008a00   Lc    3  Data  De 
    211  HEAP                       0x10008a00   Lc    3  Sect  De 
    212  HeapMem                    0x10008a00   Lc    3  Data  De 
    213  RESET                      0x00018000   Lc    1  Sect  De   0x234
    214  $v0                        0x00018200   Lc    1   --   De 
    215  am_cryptosec_isr           0x0001822f   Lc    1  Code  De 
    216  am_default_isr             0x0001822f   Lc    1  Code  De   0x2
    217  .text                      0x00018330   Lc    1  Sect  De   0x18
    218  $v0                        0x00018330   Lc    1   --   De 
    219  am_hal_fault.c             0x00000000   Lc  Abs  File  De 
    220  am_hal_interrupt.c         0x00000000   Lc  Abs  File  De 
    221  am_hal_mspi.c              0x00000000   Lc  Abs  File  De 
    222  mspi_device_configure      0x0001f4bd   Lc    1  Code  De   0x342
    223  mspi_cq_pause              0x0001f441   Lc    1  Code  De   0x7a
    224  mspi_seq_loopback          0x0001fa4d   Lc    1  Code  De   0x24
    225  sched_hiprio               0x0001fcb1   Lc    1  Code  De   0xa0
    226  mspi_dummy_callback        0x0001f7ff   Lc    1  Code  De   0x2
    227  g_MSPIState                0x10004b78   Lc    3  Data  De   0x1a4c
    228  am_hal_sysctrl.c           0x00000000   Lc  Abs  File  De 
    229  am_hal_utils.c             0x00000000   Lc  Abs  File  De 
    230  am_hal_gpio.c              0x00000000   Lc  Abs  File  De 
    231  g_ui32DSpintbl             0x0001af3c   Lc    1   --   De 
    232  am_bsp.c                   0x00000000   Lc  Abs  File  De 
    233  g_ePrintInterface          0x100085c7   Lc    3  Data  De   0x1
    234  am_hal_bootrom_helper.c    0x00000000   Lc  Abs  File  De 
    235  am_hal_cachectrl.c         0x00000000   Lc  Abs  File  De 
    236  am_hal_cmdq.c              0x00000000   Lc  Abs  File  De 
    237  update_indices             0x0001fed1   Lc    1  Code  De   0x36
    238  gAmHalCmdq                 0x10004740   Lc    3  Data  De   0x1e4
    239  gAmHalCmdQReg              0x000202bc   Lc    1  Data  De   0x1b8
    240  am_hal_itm.c               0x00000000   Lc  Abs  File  De 
    241  am_hal_rtc.c               0x00000000   Lc  Abs  File  De 
    242  am_hal_tpiu.c              0x00000000   Lc  Abs  File  De 
    243  am_hal_uart.c              0x00000000   Lc  Abs  File  De 
    244  am_hal_dcu.c               0x00000000   Lc  Abs  File  De 
    245  am_hal_pin.c               0x00000000   Lc  Abs  File  De 
    246  am_hal_pwrctrl.c           0x00000000   Lc  Abs  File  De 
    247  TrimVersionGet             0x0001857d   Lc    1  Code  De   0x32
    248  g_bBoostForCryptoApplied   0x100085c4   Lc    3  Data  De   0x1
    249  g_i32LatestVddfActTrim     0x100085cc   Lc    3  Data  De   0x4
    250  g_i32LatestLDOActTrim      0x100085c8   Lc    3  Data  De   0x4
    251  g_ui32VDDFAdjustCodes      0x100089f0   Lc    3  Data  De   0x4
    252  g_bOrigTrimsStored         0x100085c5   Lc    3  Data  De   0x1
    253  g_orig_ACTTRIMVDDF         0x100085d0   Lc    3  Data  De   0x4
    254  g_orig_MEMLDOACTIVETRIM    0x100085dc   Lc    3  Data  De   0x4
    255  g_orig_LPTRIMVDDF          0x100085d8   Lc    3  Data  De   0x4
    256  g_orig_MEMLPLDOTRIM        0x100085e0   Lc    3  Data  De   0x4
    257  g_orig_TVRGVREFTRIM        0x100085e4   Lc    3  Data  De   0x4
    258  g_orig_CORELDOACTIVETRIM   0x100085d4   Lc    3  Data  De   0x4
    259  g_pfTempMeasured           0x100085e8   Lc    3  Data  De   0x4
    260  am_bsp_pins.c              0x00000000   Lc  Abs  File  De 
    261  am_hal_mram.c              0x00000000   Lc  Abs  File  De 
    262  am_hal_adc.c               0x00000000   Lc  Abs  File  De 
    263  am_hal_queue.c             0x00000000   Lc  Abs  File  De 
    264  dc.s                       0x00000000   Lc  Abs  File  De 
    265  ../clib/string.c           0x00000000   Lc  Abs  File  De 
    266  .text                      0x00018348   Lc    1  Sect  De 
    267  ../clib/memcpset.s         0x00000000   Lc  Abs  File  De 
    268  .text                      0x000183a0   Lc    1  Sect  De   0x8a
    269  ../clib/memcpset.s         0x00000000   Lc  Abs  File  De 
    270  .text                      0x0001842a   Lc    1  Sect  De   0x4e
    271  ../clib/heapaux.c          0x00000000   Lc  Abs  File  De 
    272  .text                      0x00018478   Lc    1  Sect  De 
    273  ../clib/angel/startup.s    0x00000000   Lc  Abs  File  De 
    274  !!!main                    0x00018234   Lc    1  Sect  De   0x8
    275  ../clib/angel/handlers.s   0x00000000   Lc  Abs  File  De 
    276  !!handler_copy             0x000182cc   Lc    1  Sect  De   0x1a
    277  ../fplib/d2f.s             0x00000000   Lc  Abs  File  De 
    278  x$fpl$d2f                  0x0001ff4c   Lc    1  Sect  De   0x62
    279  $v0                        0x0001ff4c   Lc    1   --   De 
    280  ../clib/angel/kernel.s     0x00000000   Lc  Abs  File  De 
    281  .ARM.Collect$$rtentry$$00000000
                                    0x00018310   Lc    1  Sect  De 
    282  ../clib/memcpset.s         0x00000000   Lc  Abs  File  De 
    283  .text                      0x0001847e   Lc    1  Sect  De   0x64
    284  ../fplib/dnaninf.s         0x00000000   Lc  Abs  File  De 
    285  x$fpl$dnaninf              0x0001ffae   Lc    1  Sect  De   0x9c
    286  $v0                        0x0001ffae   Lc    1   --   De 
    287  ../fplib/fretinf.s         0x00000000   Lc  Abs  File  De 
    288  x$fpl$fretinf              0x00020064   Lc    1  Sect  De   0xa
    289  $v0                        0x00020064   Lc    1   --   De 
    290  ../fplib/usenofp.s         0x00000000   Lc  Abs  File  De 
    291  x$fpl$usenofp              0x0002006e   Lc    1  Sect  De 
    292  ../clib/angel/kernel.s     0x00000000   Lc  Abs  File  De 
    293  .ARM.Collect$$rtentry$$00000002
                                    0x00018310   Lc    1  Sect  De 
    294  .ARM.Collect$$rtentry$$00000009
                                    0x00018316   Lc    1  Sect  De 
    295  .ARM.Collect$$rtentry$$0000000A
                                    0x00018316   Lc    1  Sect  De   0x4
    296  .ARM.Collect$$rtentry$$0000000C
                                    0x0001831a   Lc    1  Sect  De 
    297  .ARM.Collect$$rtentry$$0000000D
                                    0x0001831a   Lc    1  Sect  De   0x8
    298  ../clib/angel/kernel.s     0x00000000   Lc  Abs  File  De 
    299  .ARM.Collect$$rtentry$$00000004
                                    0x00018310   Lc    1  Sect  De   0x6
    300  ../clib/angel/sys.s        0x00000000   Lc  Abs  File  De 
    301  .text                      0x000184e2   Lc    1  Sect  De   0x4a
    302  ../clib/stdlib.c           0x00000000   Lc  Abs  File  De 
    303  .text                      0x0001852c   Lc    1  Sect  De 
    304  ../clib/angel/boardlib.s   0x00000000   Lc  Abs  File  De 
    305  ../clib/angel/boardlib.s   0x00000000   Lc  Abs  File  De 
    306  ../clib/angel/boardlib.s   0x00000000   Lc  Abs  File  De 
    307  ../clib/libinit.s          0x00000000   Lc  Abs  File  De 
    308  .ARM.Collect$$libinit$$00000000
                                    0x00018304   Lc    1  Sect  De   0x2
    309  ../clib/angel/sys.s        0x00000000   Lc  Abs  File  De 
    310  .text                      0x00018540   Lc    1  Sect  De   0x8
    311  .bss                       0x100006d8   Lc    3  Sect  De   0x60
    312  ../clib/angel/kernel.s     0x00000000   Lc  Abs  File  De 
    313  .ARM.Collect$$rtexit$$00000000
                                    0x00018322   Lc    1  Sect  De   0x2
    314  ../clib/libinit.s          0x00000000   Lc  Abs  File  De 
    315  .ARM.Collect$$libinit$$00000001
                                    0x00018306   Lc    1  Sect  De   0x4
    316  .ARM.Collect$$libinit$$00000004
                                    0x0001830a   Lc    1  Sect  De 
    317  .ARM.Collect$$libinit$$0000000A
                                    0x0001830a   Lc    1  Sect  De 
    318  .ARM.Collect$$libinit$$0000000C
                                    0x0001830a   Lc    1  Sect  De 
    319  .ARM.Collect$$libinit$$0000000E
                                    0x0001830a   Lc    1  Sect  De 
    320  .ARM.Collect$$libinit$$00000011
                                    0x0001830a   Lc    1  Sect  De 
    321  .ARM.Collect$$libinit$$00000013
                                    0x0001830a   Lc    1  Sect  De 
    322  .ARM.Collect$$libinit$$00000015
                                    0x0001830a   Lc    1  Sect  De 
    323  .ARM.Collect$$libinit$$00000017
                                    0x0001830a   Lc    1  Sect  De 
    324  .ARM.Collect$$libinit$$00000019
                                    0x0001830a   Lc    1  Sect  De 
    325  .ARM.Collect$$libinit$$0000001B
                                    0x0001830a   Lc    1  Sect  De 
    326  .ARM.Collect$$libinit$$0000001D
                                    0x0001830a   Lc    1  Sect  De 
    327  .ARM.Collect$$libinit$$0000001F
                                    0x0001830a   Lc    1  Sect  De 
    328  .ARM.Collect$$libinit$$00000021
                                    0x0001830a   Lc    1  Sect  De 
    329  .ARM.Collect$$libinit$$00000023
                                    0x0001830a   Lc    1  Sect  De 
    330  .ARM.Collect$$libinit$$00000025
                                    0x0001830a   Lc    1  Sect  De 
    331  .ARM.Collect$$libinit$$0000002C
                                    0x0001830a   Lc    1  Sect  De 
    332  .ARM.Collect$$libinit$$0000002E
                                    0x0001830a   Lc    1  Sect  De 
    333  .ARM.Collect$$libinit$$00000030
                                    0x0001830a   Lc    1  Sect  De 
    334  .ARM.Collect$$libinit$$00000032
                                    0x0001830a   Lc    1  Sect  De 
    335  .ARM.Collect$$libinit$$00000033
                                    0x0001830a   Lc    1  Sect  De   0x2
    336  ../clib/angel/kernel.s     0x00000000   Lc  Abs  File  De 
    337  .ARM.Collect$$rtexit$$00000002
                                    0x00018324   Lc    1  Sect  De 
    338  .ARM.Collect$$rtexit$$00000003
                                    0x00018324   Lc    1  Sect  De   0x4
    339  .ARM.Collect$$rtexit$$00000004
                                    0x00018328   Lc    1  Sect  De   0x6
    340  ../clib/armsys.c           0x00000000   Lc  Abs  File  De 
    341  ../clib/armsys.c           0x00000000   Lc  Abs  File  De 
    342  ../fplib/fpinit.s          0x00000000   Lc  Abs  File  De 
    343  x$fpl$fpinit               0x0002004a   Lc    1  Sect  De   0x1a
    344  $v0                        0x0002004a   Lc    1   --   De 
    345  ../clib/angel/sysapp.c     0x00000000   Lc  Abs  File  De 
    346  .text                      0x00018548   Lc    1  Sect  De 
    347  ../clib/angel/sysapp.c     0x00000000   Lc  Abs  File  De 
    348  ../clib/angel/boardlib.s   0x00000000   Lc  Abs  File  De 
    349  ../clib/armsys.c           0x00000000   Lc  Abs  File  De 
    350  ../clib/armsys.c           0x00000000   Lc  Abs  File  De 
    351  ../clib/libinit.s          0x00000000   Lc  Abs  File  De 
    352  .ARM.Collect$$libshutdown$$00000000
                                    0x0001830c   Lc    1  Sect  De   0x2
    353  ../clib/angel/sysapp.c     0x00000000   Lc  Abs  File  De 
    354  ../clib/angel/sysapp.c     0x00000000   Lc  Abs  File  De 
    355  ../clib/angel/sys.s        0x00000000   Lc  Abs  File  De 
    356  .text                      0x00018554   Lc    1  Sect  De   0x2
    357  ../clib/angel/sys.s        0x00000000   Lc  Abs  File  De 
    358  .text                      0x00018556   Lc    1  Sect  De 
    359  ../clib/heapalloc.c        0x00000000   Lc  Abs  File  De 
    360  ../clib/signal.c           0x00000000   Lc  Abs  File  De 
    361  ../clib/signal.c           0x00000000   Lc  Abs  File  De 
    362  ../clib/libinit.s          0x00000000   Lc  Abs  File  De 
    363  .ARM.Collect$$libshutdown$$00000002
                                    0x0001830e   Lc    1  Sect  De 
    364  .ARM.Collect$$libshutdown$$00000004
                                    0x0001830e   Lc    1  Sect  De 
    365  .ARM.Collect$$libshutdown$$00000007
                                    0x0001830e   Lc    1  Sect  De 
    366  .ARM.Collect$$libshutdown$$0000000A
                                    0x0001830e   Lc    1  Sect  De 
    367  .ARM.Collect$$libshutdown$$0000000C
                                    0x0001830e   Lc    1  Sect  De 
    368  .ARM.Collect$$libshutdown$$0000000F
                                    0x0001830e   Lc    1  Sect  De 
    369  .ARM.Collect$$libshutdown$$00000010
                                    0x0001830e   Lc    1  Sect  De   0x2
    370  ../clib/angel/rt.s         0x00000000   Lc  Abs  File  De 
    371  ../clib/signal.c           0x00000000   Lc  Abs  File  De 
    372  ../clib/signal.c           0x00000000   Lc  Abs  File  De 
    373  ../clib/signal.c           0x00000000   Lc  Abs  File  De 
    374  ../clib/signal.c           0x00000000   Lc  Abs  File  De 
    375  ../clib/angel/sysapp.c     0x00000000   Lc  Abs  File  De 
    376  ../clib/angel/sysapp.c     0x00000000   Lc  Abs  File  De 
    377  ../clib/signal.s           0x00000000   Lc  Abs  File  De 
    378  ../clib/signal.c           0x00000000   Lc  Abs  File  De 
    379  ../clib/signal.c           0x00000000   Lc  Abs  File  De 
    380  ../clib/signal.c           0x00000000   Lc  Abs  File  De 
    381  ../clib/signal.c           0x00000000   Lc  Abs  File  De 
    382  ../clib/signal.c           0x00000000   Lc  Abs  File  De 
    383  ../clib/signal.c           0x00000000   Lc  Abs  File  De 
    384  ../clib/signal.c           0x00000000   Lc  Abs  File  De 
    385  ../clib/signal.c           0x00000000   Lc  Abs  File  De 
    386  ../clib/angel/dczerorl2.s  0x00000000   Lc  Abs  File  De 
    387  !!dczerorl2                0x00018270   Lc    1  Sect  De   0x5a
    388  ../clib/angel/scatter.s    0x00000000   Lc  Abs  File  De 
    389  !!!scatter                 0x0001823c   Lc    1  Sect  De   0x34
    390  ../clib/angel/handlers.s   0x00000000   Lc  Abs  File  De 
    391  !!handler_zi               0x000182e8   Lc    1  Sect  De   0x1c
    392  BuildAttributes$$THM_ISAv4$E$P$D$K$B$S$7EM$VFPi3$EXTD16$VFPS$VFMA$PE$A:L22UL41UL21$X:L11$S22US41US21$IEEE1$IW$~IW$USESV6$~STKCKD$USESV7$~SHL$OSPACE$ROPI$EBA8$UX$STANDARDLIB$REQ8$PRES8$EABIv2
                                    0x00000000   Gb  Abs   --   Hi 
    393  __Vectors                  0x00018000   Gb    1  Data  Hi 
    394  __Patchable                0x00018190   Gb    1  Data  Hi 
    395  Reset_Handler              0x00018201   Wk    1  Code  Hi   0x1c
    396  NMI_Handler                0x0001821f   Wk    1  Code  Hi   0x2
    397  MemManage_Handler          0x00018221   Wk    1  Code  Hi   0x2
    398  BusFault_Handler           0x00018223   Wk    1  Code  Hi   0x2
    399  UsageFault_Handler         0x00018225   Wk    1  Code  Hi   0x2
    400  SVC_Handler                0x00018227   Wk    1  Code  Hi   0x2
    401  DebugMon_Handler           0x00018229   Wk    1  Code  Hi   0x2
    402  PendSV_Handler             0x0001822b   Wk    1  Code  Hi   0x2
    403  SysTick_Handler            0x0001822d   Wk    1  Code  Hi   0x2
    404  am_adc_isr                 0x0001822f   Wk    1  Code  Hi 
    405  am_audadc0_isr             0x0001822f   Wk    1  Code  Hi 
    406  am_brownout_isr            0x0001822f   Wk    1  Code  Hi 
    407  am_cachecpu_isr            0x0001822f   Wk    1  Code  Hi 
    408  am_clkgen_isr              0x0001822f   Wk    1  Code  Hi 
    409  am_ctimer_isr              0x0001822f   Wk    1  Code  Hi 
    410  am_disp_isr                0x0001822f   Wk    1  Code  Hi 
    411  am_dsi_isr                 0x0001822f   Wk    1  Code  Hi 
    412  am_dspi2s0_isr             0x0001822f   Wk    1  Code  Hi 
    413  am_dspi2s1_isr             0x0001822f   Wk    1  Code  Hi 
    414  am_dspi2s2_isr             0x0001822f   Wk    1  Code  Hi 
    415  am_dspi2s3_isr             0x0001822f   Wk    1  Code  Hi 
    416  am_gpio0_001f_isr          0x0001822f   Wk    1  Code  Hi 
    417  am_gpio0_203f_isr          0x0001822f   Wk    1  Code  Hi 
    418  am_gpio0_405f_isr          0x0001822f   Wk    1  Code  Hi 
    419  am_gpio0_607f_isr          0x0001822f   Wk    1  Code  Hi 
    420  am_gpio1_001f_isr          0x0001822f   Wk    1  Code  Hi 
    421  am_gpio1_203f_isr          0x0001822f   Wk    1  Code  Hi 
    422  am_gpio1_405f_isr          0x0001822f   Wk    1  Code  Hi 
    423  am_gpio1_607f_isr          0x0001822f   Wk    1  Code  Hi 
    424  am_gpu_isr                 0x0001822f   Wk    1  Code  Hi 
    425  am_iomaster0_isr           0x0001822f   Wk    1  Code  Hi 
    426  am_iomaster1_isr           0x0001822f   Wk    1  Code  Hi 
    427  am_iomaster2_isr           0x0001822f   Wk    1  Code  Hi 
    428  am_iomaster3_isr           0x0001822f   Wk    1  Code  Hi 
    429  am_iomaster4_isr           0x0001822f   Wk    1  Code  Hi 
    430  am_iomaster5_isr           0x0001822f   Wk    1  Code  Hi 
    431  am_iomaster6_isr           0x0001822f   Wk    1  Code  Hi 
    432  am_iomaster7_isr           0x0001822f   Wk    1  Code  Hi 
    433  am_ioslave_acc_isr         0x0001822f   Wk    1  Code  Hi 
    434  am_ioslave_ios_isr         0x0001822f   Wk    1  Code  Hi 
    435  am_mspi0_isr               0x0001822f   Wk    1  Code  Hi 
    436  am_mspi2_isr               0x0001822f   Wk    1  Code  Hi 
    437  am_pdm0_isr                0x0001822f   Wk    1  Code  Hi 
    438  am_pdm1_isr                0x0001822f   Wk    1  Code  Hi 
    439  am_pdm2_isr                0x0001822f   Wk    1  Code  Hi 
    440  am_pdm3_isr                0x0001822f   Wk    1  Code  Hi 
    441  am_rtc_isr                 0x0001822f   Wk    1  Code  Hi 
    442  am_sdio_isr                0x0001822f   Wk    1  Code  Hi 
    443  am_stimer_cmpr0_isr        0x0001822f   Wk    1  Code  Hi 
    444  am_stimer_cmpr1_isr        0x0001822f   Wk    1  Code  Hi 
    445  am_stimer_cmpr2_isr        0x0001822f   Wk    1  Code  Hi 
    446  am_stimer_cmpr3_isr        0x0001822f   Wk    1  Code  Hi 
    447  am_stimer_cmpr4_isr        0x0001822f   Wk    1  Code  Hi 
    448  am_stimer_cmpr5_isr        0x0001822f   Wk    1  Code  Hi 
    449  am_stimer_cmpr6_isr        0x0001822f   Wk    1  Code  Hi 
    450  am_stimer_cmpr7_isr        0x0001822f   Wk    1  Code  Hi 
    451  am_stimerof_isr            0x0001822f   Wk    1  Code  Hi 
    452  am_timer00_isr             0x0001822f   Wk    1  Code  Hi 
    453  am_timer01_isr             0x0001822f   Wk    1  Code  Hi 
    454  am_timer02_isr             0x0001822f   Wk    1  Code  Hi 
    455  am_timer03_isr             0x0001822f   Wk    1  Code  Hi 
    456  am_timer04_isr             0x0001822f   Wk    1  Code  Hi 
    457  am_timer05_isr             0x0001822f   Wk    1  Code  Hi 
    458  am_timer06_isr             0x0001822f   Wk    1  Code  Hi 
    459  am_timer07_isr             0x0001822f   Wk    1  Code  Hi 
    460  am_timer08_isr             0x0001822f   Wk    1  Code  Hi 
    461  am_timer09_isr             0x0001822f   Wk    1  Code  Hi 
    462  am_timer10_isr             0x0001822f   Wk    1  Code  Hi 
    463  am_timer11_isr             0x0001822f   Wk    1  Code  Hi 
    464  am_timer12_isr             0x0001822f   Wk    1  Code  Hi 
    465  am_timer13_isr             0x0001822f   Wk    1  Code  Hi 
    466  am_timer14_isr             0x0001822f   Wk    1  Code  Hi 
    467  am_timer15_isr             0x0001822f   Wk    1  Code  Hi 
    468  am_uart1_isr               0x0001822f   Wk    1  Code  Hi 
    469  am_uart2_isr               0x0001822f   Wk    1  Code  Hi 
    470  am_uart3_isr               0x0001822f   Wk    1  Code  Hi 
    471  am_uart_isr                0x0001822f   Wk    1  Code  Hi 
    472  am_usb_isr                 0x0001822f   Wk    1  Code  Hi 
    473  am_vcomp_isr               0x0001822f   Wk    1  Code  Hi 
    474  am_watchdog_isr            0x0001822f   Wk    1  Code  Hi 
    475  __main                     0x00018235   Gb    1  Code  Hi   0x8
    476  __scatterload              0x0001823d   Gb    1  Code  Hi 
    477  __scatterload_rt2          0x0001823d   Gb    1  Code  Hi   0x2c
    478  __scatterload_rt2_thumb_only
                                    0x0001823d   Gb    1  Code  Hi 
    479  __scatterload_null         0x0001824b   Gb    1  Code  Hi 
    480  __decompress               0x00018271   Gb    1  Code  Hi   0x5a
    481  __decompress1              0x00018271   Gb    1  Code  Hi 
    482  __scatterload_copy         0x000182cd   Gb    1  Code  Hi   0x1a
    483  __scatterload_zeroinit     0x000182e9   Gb    1  Code  Hi   0x1c
    484  __rt_lib_init              0x00018305   Gb    1  Code  De 
    485  __rt_lib_init_fp_1         0x00018307   Gb    1  Code  Hi 
    486  __rt_lib_init_alloca_1     0x0001830b   Gb    1  Code  Hi 
    487  __rt_lib_init_argv_1       0x0001830b   Gb    1  Code  Hi 
    488  __rt_lib_init_atexit_1     0x0001830b   Gb    1  Code  Hi 
    489  __rt_lib_init_clock_1      0x0001830b   Gb    1  Code  Hi 
    490  __rt_lib_init_cpp_1        0x0001830b   Gb    1  Code  Hi 
    491  __rt_lib_init_exceptions_1 0x0001830b   Gb    1  Code  Hi 
    492  __rt_lib_init_fp_trap_1    0x0001830b   Gb    1  Code  Hi 
    493  __rt_lib_init_getenv_1     0x0001830b   Gb    1  Code  Hi 
    494  __rt_lib_init_heap_1       0x0001830b   Gb    1  Code  Hi 
    495  __rt_lib_init_lc_collate_1 0x0001830b   Gb    1  Code  Hi 
    496  __rt_lib_init_lc_ctype_1   0x0001830b   Gb    1  Code  Hi 
    497  __rt_lib_init_lc_monetary_1
                                    0x0001830b   Gb    1  Code  Hi 
    498  __rt_lib_init_lc_numeric_1 0x0001830b   Gb    1  Code  Hi 
    499  __rt_lib_init_lc_time_1    0x0001830b   Gb    1  Code  Hi 
    500  __rt_lib_init_preinit_1    0x0001830b   Gb    1  Code  Hi 
    501  __rt_lib_init_rand_1       0x0001830b   Gb    1  Code  Hi 
    502  __rt_lib_init_return       0x0001830b   Gb    1  Code  Hi 
    503  __rt_lib_init_signal_1     0x0001830b   Gb    1  Code  Hi 
    504  __rt_lib_init_stdio_1      0x0001830b   Gb    1  Code  Hi 
    505  __rt_lib_init_user_alloc_1 0x0001830b   Gb    1  Code  Hi 
    506  __rt_lib_shutdown          0x0001830d   Gb    1  Code  De 
    507  __rt_lib_shutdown_cpp_1    0x0001830f   Gb    1  Code  Hi 
    508  __rt_lib_shutdown_fp_trap_1
                                    0x0001830f   Gb    1  Code  Hi 
    509  __rt_lib_shutdown_heap_1   0x0001830f   Gb    1  Code  Hi 
    510  __rt_lib_shutdown_return   0x0001830f   Gb    1  Code  Hi 
    511  __rt_lib_shutdown_signal_1 0x0001830f   Gb    1  Code  Hi 
    512  __rt_lib_shutdown_stdio_1  0x0001830f   Gb    1  Code  Hi 
    513  __rt_lib_shutdown_user_alloc_1
                                    0x0001830f   Gb    1  Code  Hi 
    514  __rt_entry                 0x00018311   Gb    1  Code  Hi 
    515  __rt_entry_presh_1         0x00018311   Gb    1  Code  Hi 
    516  __rt_entry_sh              0x00018311   Gb    1  Code  Hi 
    517  __rt_entry_li              0x00018317   Gb    1  Code  Hi 
    518  __rt_entry_postsh_1        0x00018317   Gb    1  Code  Hi 
    519  __rt_entry_main            0x0001831b   Gb    1  Code  Hi 
    520  __rt_entry_postli_1        0x0001831b   Gb    1  Code  Hi 
    521  __rt_exit                  0x00018323   Gb    1  Code  De 
    522  __rt_exit_ls               0x00018325   Gb    1  Code  Hi 
    523  __rt_exit_prels_1          0x00018325   Gb    1  Code  Hi 
    524  __rt_exit_exit             0x00018329   Gb    1  Code  Hi 
    525  __user_initial_stackheap   0x00018331   Gb    1  Code  Hi   0xa
    526  memcmp                     0x00018349   Gb    1  Code  De   0x58
    527  __aeabi_memcpy             0x000183a1   Gb    1  Code  De 
    528  __rt_memcpy                0x000183a1   Gb    1  Code  De   0x8a
    529  _memcpy_lastbytes          0x00018407   Gb    1  Code  De 
    530  __aeabi_memclr4            0x0001842b   Gb    1  Code  De 
    531  __aeabi_memclr8            0x0001842b   Gb    1  Code  De 
    532  __rt_memclr_w              0x0001842b   Gb    1  Code  De 
    533  _memset_w                  0x0001842f   Gb    1  Code  De   0x4a
    534  __use_two_region_memory    0x00018479   Gb    1  Code  Hi   0x2
    535  __rt_heap_escrow$2region   0x0001847b   Gb    1  Code  De   0x2
    536  __rt_heap_expand$2region   0x0001847d   Gb    1  Code  De   0x2
    537  __aeabi_memcpy4            0x0001847f   Gb    1  Code  De 
    538  __aeabi_memcpy8            0x0001847f   Gb    1  Code  De 
    539  __rt_memcpy_w              0x0001847f   Gb    1  Code  De   0x64
    540  _memcpy_lastbytes_aligned  0x000184c7   Gb    1  Code  De 
    541  __user_setup_stackheap     0x000184e3   Gb    1  Code  De   0x4a
    542  exit                       0x0001852d   Gb    1  Code  De   0x12
    543  __user_libspace            0x00018541   Wk    1  Code  De   0x8
    544  __user_perproc_libspace    0x00018541   Wk    1  Code  De 
    545  __user_perthread_libspace  0x00018541   Wk    1  Code  De 
    546  _sys_exit                  0x00018549   Gb    1  Code  De   0x8
    547  __I$use$semihosting        0x00018555   Gb    1  Code  Hi 
    548  __use_no_semihosting_swi   0x00018555   Gb    1  Code  Hi   0x2
    549  __semihosting_library_function
                                    0x00018557   Gb    1  Code  Hi 
    550  HardFault_Handler          0x00018559   Gb    1  Code  Hi   0x1e
    551  am_bsp_itm_printf_enable   0x0001868b   Gb    1  Code  Hi   0x7c
    552  am_bsp_low_power_init      0x00018707   Gb    1  Code  Hi   0x16
    553  am_bsp_mspi_pins_enable    0x0001871d   Gb    1  Code  Hi   0x7c0
    554  am_devices_mspi_is25wx064_apply_ddr_timing
                                    0x00018f99   Gb    1  Code  Hi   0x12c
    555  am_devices_mspi_is25wx064_deinit
                                    0x000190c5   Gb    1  Code  Hi   0xc6
    556  am_devices_mspi_is25wx064_disable_scrambling
                                    0x0001918d   Gb    1  Code  Hi   0x68
    557  am_devices_mspi_is25wx064_disable_xip
                                    0x000191f5   Gb    1  Code  Hi   0x3c
    558  am_devices_mspi_is25wx064_enable_scrambling
                                    0x00019231   Gb    1  Code  Hi   0x3c
    559  am_devices_mspi_is25wx064_enable_xip
                                    0x0001926d   Gb    1  Code  Hi   0x7a
    560  am_devices_mspi_is25wx064_id
                                    0x000192e9   Gb    1  Code  Hi   0xe0
    561  am_devices_mspi_is25wx064_init
                                    0x000193c9   Gb    1  Code  Hi   0x566
    562  am_devices_mspi_is25wx064_init_timing_check
                                    0x00019931   Gb    1  Code  Hi   0x60e
    563  am_devices_mspi_is25wx064_mass_erase
                                    0x00019f41   Gb    1  Code  Hi   0xf8
    564  am_devices_mspi_is25wx064_read
                                    0x0001a039   Gb    1  Code  Hi   0x1ee
    565  am_devices_mspi_is25wx064_read_adv
                                    0x0001a229   Gb    1  Code  Hi   0x6e
    566  am_devices_mspi_is25wx064_reset
                                    0x0001a299   Gb    1  Code  Hi   0xf0
    567  am_devices_mspi_is25wx064_sector_erase
                                    0x0001a389   Gb    1  Code  Hi   0xc0
    568  am_devices_mspi_is25wx064_write
                                    0x0001a449   Gb    1  Code  Hi   0x294
    569  am_hal_cmdq_alloc_block    0x0001a6dd   Gb    1  Code  Hi   0x9a
    570  am_hal_cmdq_disable        0x0001a777   Gb    1  Code  Hi   0x34
    571  am_hal_cmdq_enable         0x0001a7ab   Gb    1  Code  Hi   0x4c
    572  am_hal_cmdq_error_resume   0x0001a7f9   Gb    1  Code  Hi   0x64
    573  am_hal_cmdq_get_status     0x0001a85d   Gb    1  Code  Hi   0x68
    574  am_hal_cmdq_init           0x0001a8c5   Gb    1  Code  Hi   0xbe
    575  am_hal_cmdq_post_block     0x0001a983   Gb    1  Code  Hi   0x66
    576  am_hal_cmdq_post_loop_block
                                    0x0001a9e9   Gb    1  Code  Hi   0x66
    577  am_hal_cmdq_release_block  0x0001aa4f   Gb    1  Code  Hi   0x30
    578  am_hal_cmdq_reset          0x0001aa7f   Gb    1  Code  Hi   0x5a
    579  am_hal_cmdq_term           0x0001aad9   Gb    1  Code  Hi   0x56
    580  am_hal_daxi_config         0x0001ab2f   Gb    1  Code  Hi   0x66
    581  am_hal_daxi_control        0x0001ab95   Gb    1  Code  Hi   0x98
    582  am_hal_dcu_get             0x0001ac2d   Gb    1  Code  Hi   0x9a
    583  am_hal_dcu_update          0x0001acc9   Gb    1  Code  Hi   0xec
    584  am_hal_delay_us            0x0001adb5   Gb    1  Code  Hi   0x36
    585  am_hal_delay_us_status_change
                                    0x0001aded   Gb    1  Code  Hi   0x54
    586  am_hal_delay_us_status_check
                                    0x0001ae41   Gb    1  Code  Hi   0x62
    587  am_hal_fault_capture_enable
                                    0x0001aea3   Gb    1  Code  Hi   0x12
    588  am_hal_fault_status_get    0x0001aeb5   Gb    1  Code  Hi   0x3a
    589  am_hal_gpio_pinconfig      0x0001aef1   Gb    1  Code  Hi   0x4c
    590  am_hal_gpio_state_write    0x0001af4d   Gb    1  Code  Hi   0xe8
    591  am_hal_interrupt_master_disable
                                    0x0001b035   Gb    1  Code  Hi   0x8
    592  am_hal_interrupt_master_enable
                                    0x0001b03d   Gb    1  Code  Hi   0x8
    593  am_hal_interrupt_master_set
                                    0x0001b045   Gb    1  Code  Hi   0x6
    594  am_hal_itm_enable          0x0001b04d   Gb    1  Code  Hi   0x42
    595  am_hal_itm_print           0x0001b091   Gb    1  Code  Hi   0x2e
    596  am_hal_mram_info_read      0x0001b0c1   Gb    1  Code  Hi   0x60
    597  am_hal_mspi_blocking_transfer
                                    0x0001b121   Gb    1  Code  Hi   0x1d6
    598  am_hal_mspi_configure      0x0001b2f7   Gb    1  Code  Hi   0xd4
    599  am_hal_mspi_control        0x0001b3cd   Gb    1  Code  Hi   0xbbc
    600  am_hal_mspi_deinitialize   0x0001bf89   Gb    1  Code  Hi   0x34
    601  am_hal_mspi_device_configure
                                    0x0001bfbd   Gb    1  Code  Hi   0x1bc
    602  am_hal_mspi_disable        0x0001c179   Gb    1  Code  Hi   0x90
    603  am_hal_mspi_enable         0x0001c209   Gb    1  Code  Hi   0xa8
    604  am_hal_mspi_initialize     0x0001c2b1   Gb    1  Code  Hi   0x50
    605  am_hal_mspi_interrupt_clear
                                    0x0001c301   Gb    1  Code  Hi   0x2a
    606  am_hal_mspi_interrupt_disable
                                    0x0001c32b   Gb    1  Code  Hi   0x30
    607  am_hal_mspi_interrupt_enable
                                    0x0001c35b   Gb    1  Code  Hi   0x2e
    608  am_hal_mspi_interrupt_service
                                    0x0001c389   Gb    1  Code  Hi   0x2ac
    609  am_hal_mspi_interrupt_status_get
                                    0x0001c635   Gb    1  Code  Hi   0x42
    610  am_hal_mspi_nonblocking_transfer
                                    0x0001c677   Gb    1  Code  Hi   0x152
    611  am_hal_mspi_power_control  0x0001c7c9   Gb    1  Code  Hi   0x2d2
    612  am_hal_pwrctrl_control     0x0001ca9d   Gb    1  Code  Hi   0x1b4
    613  am_hal_pwrctrl_low_power_init
                                    0x0001cc51   Gb    1  Code  Hi   0x192
    614  am_hal_pwrctrl_mcu_memory_config
                                    0x0001cde5   Gb    1  Code  Hi   0xfa
    615  am_hal_pwrctrl_periph_disable
                                    0x0001cedf   Gb    1  Code  Hi   0x11e
    616  am_hal_pwrctrl_periph_enable
                                    0x0001cffd   Gb    1  Code  Hi   0xb2
    617  am_hal_pwrctrl_sram_config 0x0001d0b1   Gb    1  Code  Hi   0xa8
    618  am_hal_rtc_osc_disable     0x0001d159   Gb    1  Code  Hi   0x14
    619  am_hal_sysctrl_sleep       0x0001d16d   Gb    1  Code  Hi   0x100
    620  am_hal_tpiu_enable         0x0001d26d   Gb    1  Code  Hi   0x6c
    621  am_mspi1_isr               0x0001d2d9   Gb    1  Code  Hi   0x30
    622  am_util_delay_ms           0x0001d309   Gb    1  Code  Hi   0x16
    623  am_util_delay_us           0x0001d321   Gb    1  Code  Hi   0x10
    624  am_util_faultisr_collect_data
                                    0x0001d331   Gb    1  Code  Hi   0x328
    625  am_util_stdio_printf       0x0001d659   Gb    1  Code  Hi   0x5c
    626  am_util_stdio_printf_init  0x0001d6b5   Gb    1  Code  Hi   0x14
    627  am_util_stdio_terminal_clear
                                    0x0001d6c9   Gb    1  Code  Hi   0x10
    628  am_util_stdio_vsprintf     0x0001d6d9   Gb    1  Code  Hi   0x654
    629  am_valid_sp                0x0001dd2d   Gb    1  Code  Hi   0x30
    630  buck_ldo_override_init     0x0001dd5d   Gb    1  Code  Hi   0x58
    631  buck_ldo_update_override   0x0001ddb5   Gb    1  Code  Hi   0x2a
    632  build_dma_cmdlist          0x0001dddf   Gb    1  Code  Hi   0x144
    633  crypto_boost_trims         0x0001e579   Gb    1  Code  Hi   0xd4
    634  getStackedReg              0x0001ed49   Gb    1  Code  Hi   0x8
    635  main                       0x0001ef01   Gb    1  Code  Hi   0x540
    636  __aeabi_d2f                0x0001ff4d   Gb    1  Code  De 
    637  _d2f                       0x0001ff4d   Gb    1  Code  De   0x62
    638  __fpl_dnaninf              0x0001ffaf   Gb    1  Code  De   0x9c
    639  _fp_init                   0x0002004b   Gb    1  Code  De   0x1a
    640  __fplib_config_fpu_vfp     0x00020063   Gb    1  Code  De 
    641  __fplib_config_pureend_doubles
                                    0x00020063   Gb    1  Code  De 
    642  __fpl_fretinf              0x00020065   Gb    1  Code  De   0xa
    643  __I$use$fp                 0x0002006e   Gb    1   --   De 
    644  MSPI_Flash_Config          0x0002007c   Gb    1  Data  Hi   0x14
    645  am_hal_daxi_defaults       0x00020090   Gb    1  Data  Hi   0x5
    646  am_hal_gpio_pincfg_output  0x00020098   Gb    1  Data  Hi   0x4
    647  am_hal_pwrctrl_peripheral_control
                                    0x0002009c   Gb    1  Data  Hi   0x220
    648  g_DefaultMcuMemCfg         0x00020474   Gb    1  Data  Hi   0x6
    649  g_DefaultSRAMCfg           0x0002047a   Gb    1  Data  Hi   0x6
    650  g_am_hal_bootrom_helper    0x00020480   Gb    1  Data  Hi   0x28
    651  sGlobalAccess              0x000204b0   Gb    1  Data  Hi   0x1c
    652  ui32DSP0Allowed            0x00020ee8   Gb    1  Data  Hi   0x14
    653  ui32DSP1Allowed            0x00020efc   Gb    1  Data  Hi   0x14
    654  ui32MCUAllowed             0x00020f10   Gb    1  Data  Hi   0x14
    655  ui32SharedAccess           0x00020f24   Gb    1  Data  Hi   0x14
    656  Region$$Table$$Base        0x00020f38   Gb    1   --   Hi 
    657  Region$$Table$$Limit       0x00020f68   Gb    1   --   Hi 
    658  gDaxiConfig                0x10000084   Gb    2  Data  Hi   0x5
    659  gDcuDisable                0x10000090   Gb    2  Data  Hi   0x8
    660  gDcuEnable                 0x10000098   Gb    2  Data  Hi   0x8
    661  gIS25WX064DqsCfg           0x100000a0   Gb    2  Data  Hi   0x1e
    662  gIS25WX064MspiRxCfg        0x100000be   Gb    2  Data  Hi   0xa
    663  g_AM_BSP_GPIO_MSPI1_MUX_OE 0x100000f8   Gb    2  Data  Hi   0x4
    664  g_AM_BSP_GPIO_MSPI1_MUX_SEL
                                    0x100000fc   Gb    2  Data  Hi   0x4
    665  g_AM_BSP_GPIO_MSPI2_CE0    0x10000100   Gb    2  Data  Hi   0x4
    666  g_AM_BSP_GPIO_MSPI2_CE1    0x10000104   Gb    2  Data  Hi   0x4
    667  g_AM_BSP_GPIO_MSPI2_D0     0x10000108   Gb    2  Data  Hi   0x4
    668  g_AM_BSP_GPIO_MSPI2_D1     0x1000010c   Gb    2  Data  Hi   0x4
    669  g_AM_BSP_GPIO_MSPI2_D2     0x10000110   Gb    2  Data  Hi   0x4
    670  g_AM_BSP_GPIO_MSPI2_D3     0x10000114   Gb    2  Data  Hi   0x4
    671  g_AM_BSP_GPIO_MSPI2_D4     0x10000118   Gb    2  Data  Hi   0x4
    672  g_AM_BSP_GPIO_MSPI2_D5     0x1000011c   Gb    2  Data  Hi   0x4
    673  g_AM_BSP_GPIO_MSPI2_D6     0x10000120   Gb    2  Data  Hi   0x4
    674  g_AM_BSP_GPIO_MSPI2_D7     0x10000124   Gb    2  Data  Hi   0x4
    675  g_AM_BSP_GPIO_MSPI2_DQSDM  0x10000128   Gb    2  Data  Hi   0x4
    676  g_AM_BSP_GPIO_MSPI2_SCK    0x1000012c   Gb    2  Data  Hi   0x4
    677  g_AM_BSP_GPIO_NOR_CE0      0x10000130   Gb    2  Data  Hi   0x4
    678  g_AM_BSP_GPIO_NOR_D0       0x10000134   Gb    2  Data  Hi   0x4
    679  g_AM_BSP_GPIO_NOR_D1       0x10000138   Gb    2  Data  Hi   0x4
    680  g_AM_BSP_GPIO_NOR_D2       0x1000013c   Gb    2  Data  Hi   0x4
    681  g_AM_BSP_GPIO_NOR_D3       0x10000140   Gb    2  Data  Hi   0x4
    682  g_AM_BSP_GPIO_NOR_D4       0x10000144   Gb    2  Data  Hi   0x4
    683  g_AM_BSP_GPIO_NOR_D5       0x10000148   Gb    2  Data  Hi   0x4
    684  g_AM_BSP_GPIO_NOR_D6       0x1000014c   Gb    2  Data  Hi   0x4
    685  g_AM_BSP_GPIO_NOR_D7       0x10000150   Gb    2  Data  Hi   0x4
    686  g_AM_BSP_GPIO_NOR_DQS      0x10000154   Gb    2  Data  Hi   0x4
    687  g_AM_BSP_GPIO_NOR_SCK      0x10000158   Gb    2  Data  Hi   0x4
    688  g_AM_BSP_GPIO_PSRAM_CE0    0x1000015c   Gb    2  Data  Hi   0x4
    689  g_AM_BSP_GPIO_PSRAM_D0     0x10000160   Gb    2  Data  Hi   0x4
    690  g_AM_BSP_GPIO_PSRAM_D1     0x10000164   Gb    2  Data  Hi   0x4
    691  g_AM_BSP_GPIO_PSRAM_D10    0x10000168   Gb    2  Data  Hi   0x4
    692  g_AM_BSP_GPIO_PSRAM_D11    0x1000016c   Gb    2  Data  Hi   0x4
    693  g_AM_BSP_GPIO_PSRAM_D12    0x10000170   Gb    2  Data  Hi   0x4
    694  g_AM_BSP_GPIO_PSRAM_D13    0x10000174   Gb    2  Data  Hi   0x4
    695  g_AM_BSP_GPIO_PSRAM_D14    0x10000178   Gb    2  Data  Hi   0x4
    696  g_AM_BSP_GPIO_PSRAM_D15    0x1000017c   Gb    2  Data  Hi   0x4
    697  g_AM_BSP_GPIO_PSRAM_D2     0x10000180   Gb    2  Data  Hi   0x4
    698  g_AM_BSP_GPIO_PSRAM_D3     0x10000184   Gb    2  Data  Hi   0x4
    699  g_AM_BSP_GPIO_PSRAM_D4     0x10000188   Gb    2  Data  Hi   0x4
    700  g_AM_BSP_GPIO_PSRAM_D5     0x1000018c   Gb    2  Data  Hi   0x4
    701  g_AM_BSP_GPIO_PSRAM_D6     0x10000190   Gb    2  Data  Hi   0x4
    702  g_AM_BSP_GPIO_PSRAM_D7     0x10000194   Gb    2  Data  Hi   0x4
    703  g_AM_BSP_GPIO_PSRAM_D8     0x10000198   Gb    2  Data  Hi   0x4
    704  g_AM_BSP_GPIO_PSRAM_D9     0x1000019c   Gb    2  Data  Hi   0x4
    705  g_AM_BSP_GPIO_PSRAM_DQS0DM0
                                    0x100001a0   Gb    2  Data  Hi   0x4
    706  g_AM_BSP_GPIO_PSRAM_DQS1DM1
                                    0x100001a4   Gb    2  Data  Hi   0x4
    707  g_AM_BSP_GPIO_PSRAM_SCK    0x100001a8   Gb    2  Data  Hi   0x4
    708  g_IS25WX064_DevConfig      0x100001ac   Gb    2  Data  Hi   0x30
    709  g_ui32TrimVer              0x100001dc   Gb    2  Data  Hi   0x4
    710  g_ui32origSimobuckVDDStrim 0x100001e0   Gb    2  Data  Hi   0x4
    711  gpDcuEnable                0x100001e4   Gb    2  Data  Hi   0x4
    712  gpDcuLock                  0x100001e8   Gb    2  Data  Hi   0x4
    713  is25wx064_sConfigArray     0x100001ec   Gb    2  Data  Hi   0x46e
    714  mspi_device_func           0x1000065c   Gb    2  Data  Hi   0x60
    715  sTimingCfgDefault_OCTAL_1_1_8
                                    0x100006bc   Gb    2  Data  Hi   0x6
    716  sTimingCfgDefault_OCTAL_1_8_8
                                    0x100006c2   Gb    2  Data  Hi   0x6
    717  sTimingCfgDefault_OCTAL_DDR
                                    0x100006c8   Gb    2  Data  Hi   0x6
    718  sTimingConfigDefault       0x100006ce   Gb    2  Data  Hi   0x6
    719  __libspace_start           0x100006d8   Gb    3  Data  De   0x60
    720  DMATCBBuffer               0x10000738   Gb    3  Data  Hi   0x4000
    721  __temporary_stack_top$libspace
                                    0x10000738   Gb    3  Data  De 
    722  MSPISdrTimingConfig        0x10004738   Gb    3  Data  Hi   0x6
    723  gFaultStack                0x1000495c   Gb    3  Data  Hi   0x200
    724  gStartOff                  0x10004b68   Gb    3  Data  Hi   0x4
    725  g_AM_BSP_GPIO_ITM_SWO      0x10004b6c   Gb    3  Data  Hi   0x4
    726  g_FlashHdl                 0x10004b70   Gb    3  Data  Hi   0x4
    727  g_MSPIHdl                  0x10004b74   Gb    3  Data  Hi   0x4
    728  g_SectorRXBuffer           0x100065c4   Gb    3  Data  Hi   0x1000
    729  g_SectorTXBuffer           0x100075c4   Gb    3  Data  Hi   0x1000
    730  g_pfnCharPrint             0x100085ec   Gb    3  Data  Hi   0x4
    731  psGlobalAccessPtr          0x10060000   Gb    4  Data  Hi   0x4
    732  ui32MCUClaimed             0x10060004   Gb    4  Data  Hi   0x14
    733  ui32DSP0Claimed            0x10060018   Gb    4  Data  Hi   0x14
    734  ui32DSP1Claimed            0x1006002c   Gb    4  Data  Hi   0x14
    735  ui8TxBuffer                0x10060040   Gb    4  Data  Hi   0x100
    736  ui8RxBuffer                0x10060140   Gb    4  Data  Hi   0x100


** Section #12 '.strtab' (SHT_STRTAB)
    Size   : 11816 bytes

            #  Offset String
        ====================================

            1      1: $d
            2      4: $t
            3      7: $t.0
            4     12: $d.4
            5     17: $t.24
            6     23: $d.32
            7     29: $t.33
            8     35: $d.34
            9     41: $t.35
           10     47: $d.36
           11     53: $t.37
           12     59: $d.14
           13     65: $t.15
           14     71: $d.19
           15     77: $t.20
           16     83: $d.9
           17     88: $t.10
           18     94: $d.2
           19     99: $t.5
           20    104: $d.6
           21    109: $t.7
           22    114: $d.12
           23    120: $t.13
           24    126: $d.22
           25    132: $t.23
           26    138: $d.3
           27    143: $t.4
           28    148: $d.7
           29    153: $t.8
           30    158: $d.40
           31    164: $t.41
           32    170: $d.realdata
           33    182: am_resources.c
           34    197: __tagsym$$used.0
           35    214: __tagsym$$used.1
           36    231: __tagsym$$used.2
           37    248: __tagsym$$used.3
           38    265: __tagsym$$used.4
           39    282: __tagsym$$used.5
           40    299: __tagsym$$used.6
           41    316: __tagsym$$used.7
           42    333: __tagsym$$used.8
           43    350: mspi_octal_example.c
           44    371: xip_test_function
           45    389: __NVIC_SetPriority
           46    408: __NVIC_EnableIRQ
           47    425: __NVIC_DisableIRQ
           48    443: .L.str
           49    450: .L.str.8
           50    459: .L.str.1
           51    468: .L.str.5
           52    477: .L.str.3
           53    486: .L.str.2
           54    495: .L.str.4
           55    504: .L.str.7
           56    513: .L.str.6
           57    522: .L.str.12
           58    532: .L.str.29
           59    542: .L.str.22
           60    552: .L.str.16
           61    562: .L.str.14
           62    572: .L.str.25
           63    582: .L.str.18
           64    592: .L.str.20
           65    602: .L.str.11
           66    612: .L.str.10
           67    622: .L.str.15
           68    632: .L.str.21
           69    642: .L.str.13
           70    652: .L.str.28
           71    662: .L.str.24
           72    672: .L.str.19
           73    682: .L.str.30
           74    692: .L.str.26
           75    702: .L.str.27
           76    712: .L.str.23
           77    722: .L.str.17
           78    732: mspi_interrupts
           79    748: .L.str.9
           80    757: am_util_delay.c
           81    773: am_util_faultisr.c
           82    792: am_util_stdio.c
           83    808: decstr_to_int
           84    822: simple_strlen
           85    836: padbuffer
           86    846: ndigits_in_hex
           87    861: uint64_to_hexstr
           88    878: ndigits_in_u64
           89    893: uint64_to_str
           90    907: ndigits_in_i64
           91    922: ftoa
           92    927: divu64_10
           93    937: g_bTxtXlate
           94    949: g_prfbuf
           95    958: am_devices_mspi_atxp032.c
           96    984: am_devices_mspi_is25wx064.c
           97   1012: is25wx064_power_reset
           98   1034: is25wx064_pre_config
           99   1055: am_device_deinit_flash
          100   1078: command_write_serial
          101   1099: command_write_octal
          102   1119: command_read_serial
          103   1139: command_read_octal
          104   1158: pfnMSPI_IS25WX064_Callback
          105   1185: command_write_combo
          106   1205: command_read_combo
          107   1224: is25wx064_busy_wait_until
          108   1250: flash_write
          109   1262: flash_check
          110   1274: count_consecutive_ones
          111   1297: find_mid_point
          112   1312: __NVIC_ClearPendingIRQ
          113   1335: enter_command_mode
          114   1354: exit_command_mode
          115   1372: am_devices_mspi_device_reconfigure
          116   1407: prepare_test_pattern
          117   1428: mspi_is25wx064_dma_write
          118   1453: mspi_is25wx064_dma_read
          119   1477: MSPI_IS25WX064_Serial_CE0_MSPIConfig
          120   1514: MSPI_IS25WX064_Serial_CE1_MSPIConfig
          121   1551: DDROctalCE0MSPIConfig
          122   1573: DDROctalCE1MSPIConfig
          123   1595: OctalCE0_1_8_8_MSPIConfig
          124   1621: OctalCE1_1_8_8_MSPIConfig
          125   1647: gAmIS25WX064
          126   1660: gMspiCfg
          127   1669: bTimingConfigSaved
          128   1688: sTimingConfigStored
          129   1708: gXipConfig
          130   1719: .L__const.am_devices_mspi_is25wx064_init_timing_check.scanCfg
          131   1781: .L__const.am_devices_mspi_is25wx064_apply_ddr_timing.applyCfg
          132   1843: ../keil6/startup_keil6.s
          133   1868: STACK
          134   1874: StackMem
          135   1883: HEAP
          136   1888: HeapMem
          137   1896: RESET
          138   1902: $v0
          139   1906: am_cryptosec_isr
          140   1923: am_default_isr
          141   1938: .text
          142   1944: am_hal_fault.c
          143   1959: am_hal_interrupt.c
          144   1978: am_hal_mspi.c
          145   1992: mspi_device_configure
          146   2014: mspi_cq_pause
          147   2028: mspi_seq_loopback
          148   2046: sched_hiprio
          149   2059: mspi_dummy_callback
          150   2079: g_MSPIState
          151   2091: am_hal_sysctrl.c
          152   2108: am_hal_utils.c
          153   2123: am_hal_gpio.c
          154   2137: g_ui32DSpintbl
          155   2152: am_bsp.c
          156   2161: g_ePrintInterface
          157   2179: am_hal_bootrom_helper.c
          158   2203: am_hal_cachectrl.c
          159   2222: am_hal_cmdq.c
          160   2236: update_indices
          161   2251: gAmHalCmdq
          162   2262: gAmHalCmdQReg
          163   2276: am_hal_itm.c
          164   2289: am_hal_rtc.c
          165   2302: am_hal_tpiu.c
          166   2316: am_hal_uart.c
          167   2330: am_hal_dcu.c
          168   2343: am_hal_pin.c
          169   2356: am_hal_pwrctrl.c
          170   2373: TrimVersionGet
          171   2388: g_bBoostForCryptoApplied
          172   2413: g_i32LatestVddfActTrim
          173   2436: g_i32LatestLDOActTrim
          174   2458: g_ui32VDDFAdjustCodes
          175   2480: g_bOrigTrimsStored
          176   2499: g_orig_ACTTRIMVDDF
          177   2518: g_orig_MEMLDOACTIVETRIM
          178   2542: g_orig_LPTRIMVDDF
          179   2560: g_orig_MEMLPLDOTRIM
          180   2580: g_orig_TVRGVREFTRIM
          181   2600: g_orig_CORELDOACTIVETRIM
          182   2625: g_pfTempMeasured
          183   2642: am_bsp_pins.c
          184   2656: am_hal_mram.c
          185   2670: am_hal_adc.c
          186   2683: am_hal_queue.c
          187   2698: dc.s
          188   2703: ../clib/string.c
          189   2720: ../clib/memcpset.s
          190   2739: ../clib/heapaux.c
          191   2757: ../clib/angel/startup.s
          192   2781: !!!main
          193   2789: ../clib/angel/handlers.s
          194   2814: !!handler_copy
          195   2829: ../fplib/d2f.s
          196   2844: x$fpl$d2f
          197   2854: ../clib/angel/kernel.s
          198   2877: .ARM.Collect$$rtentry$$00000000
          199   2909: ../fplib/dnaninf.s
          200   2928: x$fpl$dnaninf
          201   2942: ../fplib/fretinf.s
          202   2961: x$fpl$fretinf
          203   2975: ../fplib/usenofp.s
          204   2994: x$fpl$usenofp
          205   3008: .ARM.Collect$$rtentry$$00000002
          206   3040: .ARM.Collect$$rtentry$$00000009
          207   3072: .ARM.Collect$$rtentry$$0000000A
          208   3104: .ARM.Collect$$rtentry$$0000000C
          209   3136: .ARM.Collect$$rtentry$$0000000D
          210   3168: .ARM.Collect$$rtentry$$00000004
          211   3200: ../clib/angel/sys.s
          212   3220: ../clib/stdlib.c
          213   3237: ../clib/angel/boardlib.s
          214   3262: ../clib/libinit.s
          215   3280: .ARM.Collect$$libinit$$00000000
          216   3312: .bss
          217   3317: .ARM.Collect$$rtexit$$00000000
          218   3348: .ARM.Collect$$libinit$$00000001
          219   3380: .ARM.Collect$$libinit$$00000004
          220   3412: .ARM.Collect$$libinit$$0000000A
          221   3444: .ARM.Collect$$libinit$$0000000C
          222   3476: .ARM.Collect$$libinit$$0000000E
          223   3508: .ARM.Collect$$libinit$$00000011
          224   3540: .ARM.Collect$$libinit$$00000013
          225   3572: .ARM.Collect$$libinit$$00000015
          226   3604: .ARM.Collect$$libinit$$00000017
          227   3636: .ARM.Collect$$libinit$$00000019
          228   3668: .ARM.Collect$$libinit$$0000001B
          229   3700: .ARM.Collect$$libinit$$0000001D
          230   3732: .ARM.Collect$$libinit$$0000001F
          231   3764: .ARM.Collect$$libinit$$00000021
          232   3796: .ARM.Collect$$libinit$$00000023
          233   3828: .ARM.Collect$$libinit$$00000025
          234   3860: .ARM.Collect$$libinit$$0000002C
          235   3892: .ARM.Collect$$libinit$$0000002E
          236   3924: .ARM.Collect$$libinit$$00000030
          237   3956: .ARM.Collect$$libinit$$00000032
          238   3988: .ARM.Collect$$libinit$$00000033
          239   4020: .ARM.Collect$$rtexit$$00000002
          240   4051: .ARM.Collect$$rtexit$$00000003
          241   4082: .ARM.Collect$$rtexit$$00000004
          242   4113: ../clib/armsys.c
          243   4130: ../fplib/fpinit.s
          244   4148: x$fpl$fpinit
          245   4161: ../clib/angel/sysapp.c
          246   4184: .ARM.Collect$$libshutdown$$00000000
          247   4220: ../clib/heapalloc.c
          248   4240: ../clib/signal.c
          249   4257: .ARM.Collect$$libshutdown$$00000002
          250   4293: .ARM.Collect$$libshutdown$$00000004
          251   4329: .ARM.Collect$$libshutdown$$00000007
          252   4365: .ARM.Collect$$libshutdown$$0000000A
          253   4401: .ARM.Collect$$libshutdown$$0000000C
          254   4437: .ARM.Collect$$libshutdown$$0000000F
          255   4473: .ARM.Collect$$libshutdown$$00000010
          256   4509: ../clib/angel/rt.s
          257   4528: ../clib/signal.s
          258   4545: ../clib/angel/dczerorl2.s
          259   4571: !!dczerorl2
          260   4583: ../clib/angel/scatter.s
          261   4607: !!!scatter
          262   4618: !!handler_zi
          263   4631: BuildAttributes$$THM_ISAv4$E$P$D$K$B$S$7EM$VFPi3$EXTD16$VFPS$VFMA$PE$A:L22UL41UL21$X:L11$S22US41US21$IEEE1$IW$~IW$USESV6$~STKCKD$USESV7$~SHL$OSPACE$ROPI$EBA8$UX$STANDARDLIB$REQ8$PRES8$EABIv2
          264   4822: __Vectors
          265   4832: __Patchable
          266   4844: Reset_Handler
          267   4858: NMI_Handler
          268   4870: MemManage_Handler
          269   4888: BusFault_Handler
          270   4905: UsageFault_Handler
          271   4924: SVC_Handler
          272   4936: DebugMon_Handler
          273   4953: PendSV_Handler
          274   4968: SysTick_Handler
          275   4984: am_adc_isr
          276   4995: am_audadc0_isr
          277   5010: am_brownout_isr
          278   5026: am_cachecpu_isr
          279   5042: am_clkgen_isr
          280   5056: am_ctimer_isr
          281   5070: am_disp_isr
          282   5082: am_dsi_isr
          283   5093: am_dspi2s0_isr
          284   5108: am_dspi2s1_isr
          285   5123: am_dspi2s2_isr
          286   5138: am_dspi2s3_isr
          287   5153: am_gpio0_001f_isr
          288   5171: am_gpio0_203f_isr
          289   5189: am_gpio0_405f_isr
          290   5207: am_gpio0_607f_isr
          291   5225: am_gpio1_001f_isr
          292   5243: am_gpio1_203f_isr
          293   5261: am_gpio1_405f_isr
          294   5279: am_gpio1_607f_isr
          295   5297: am_gpu_isr
          296   5308: am_iomaster0_isr
          297   5325: am_iomaster1_isr
          298   5342: am_iomaster2_isr
          299   5359: am_iomaster3_isr
          300   5376: am_iomaster4_isr
          301   5393: am_iomaster5_isr
          302   5410: am_iomaster6_isr
          303   5427: am_iomaster7_isr
          304   5444: am_ioslave_acc_isr
          305   5463: am_ioslave_ios_isr
          306   5482: am_mspi0_isr
          307   5495: am_mspi2_isr
          308   5508: am_pdm0_isr
          309   5520: am_pdm1_isr
          310   5532: am_pdm2_isr
          311   5544: am_pdm3_isr
          312   5556: am_rtc_isr
          313   5567: am_sdio_isr
          314   5579: am_stimer_cmpr0_isr
          315   5599: am_stimer_cmpr1_isr
          316   5619: am_stimer_cmpr2_isr
          317   5639: am_stimer_cmpr3_isr
          318   5659: am_stimer_cmpr4_isr
          319   5679: am_stimer_cmpr5_isr
          320   5699: am_stimer_cmpr6_isr
          321   5719: am_stimer_cmpr7_isr
          322   5739: am_stimerof_isr
          323   5755: am_timer00_isr
          324   5770: am_timer01_isr
          325   5785: am_timer02_isr
          326   5800: am_timer03_isr
          327   5815: am_timer04_isr
          328   5830: am_timer05_isr
          329   5845: am_timer06_isr
          330   5860: am_timer07_isr
          331   5875: am_timer08_isr
          332   5890: am_timer09_isr
          333   5905: am_timer10_isr
          334   5920: am_timer11_isr
          335   5935: am_timer12_isr
          336   5950: am_timer13_isr
          337   5965: am_timer14_isr
          338   5980: am_timer15_isr
          339   5995: am_uart1_isr
          340   6008: am_uart2_isr
          341   6021: am_uart3_isr
          342   6034: am_uart_isr
          343   6046: am_usb_isr
          344   6057: am_vcomp_isr
          345   6070: am_watchdog_isr
          346   6086: __main
          347   6093: __scatterload
          348   6107: __scatterload_rt2
          349   6125: __scatterload_rt2_thumb_only
          350   6154: __scatterload_null
          351   6173: __decompress
          352   6186: __decompress1
          353   6200: __scatterload_copy
          354   6219: __scatterload_zeroinit
          355   6242: __rt_lib_init
          356   6256: __rt_lib_init_fp_1
          357   6275: __rt_lib_init_alloca_1
          358   6298: __rt_lib_init_argv_1
          359   6319: __rt_lib_init_atexit_1
          360   6342: __rt_lib_init_clock_1
          361   6364: __rt_lib_init_cpp_1
          362   6384: __rt_lib_init_exceptions_1
          363   6411: __rt_lib_init_fp_trap_1
          364   6435: __rt_lib_init_getenv_1
          365   6458: __rt_lib_init_heap_1
          366   6479: __rt_lib_init_lc_collate_1
          367   6506: __rt_lib_init_lc_ctype_1
          368   6531: __rt_lib_init_lc_monetary_1
          369   6559: __rt_lib_init_lc_numeric_1
          370   6586: __rt_lib_init_lc_time_1
          371   6610: __rt_lib_init_preinit_1
          372   6634: __rt_lib_init_rand_1
          373   6655: __rt_lib_init_return
          374   6676: __rt_lib_init_signal_1
          375   6699: __rt_lib_init_stdio_1
          376   6721: __rt_lib_init_user_alloc_1
          377   6748: __rt_lib_shutdown
          378   6766: __rt_lib_shutdown_cpp_1
          379   6790: __rt_lib_shutdown_fp_trap_1
          380   6818: __rt_lib_shutdown_heap_1
          381   6843: __rt_lib_shutdown_return
          382   6868: __rt_lib_shutdown_signal_1
          383   6895: __rt_lib_shutdown_stdio_1
          384   6921: __rt_lib_shutdown_user_alloc_1
          385   6952: __rt_entry
          386   6963: __rt_entry_presh_1
          387   6982: __rt_entry_sh
          388   6996: __rt_entry_li
          389   7010: __rt_entry_postsh_1
          390   7030: __rt_entry_main
          391   7046: __rt_entry_postli_1
          392   7066: __rt_exit
          393   7076: __rt_exit_ls
          394   7089: __rt_exit_prels_1
          395   7107: __rt_exit_exit
          396   7122: __user_initial_stackheap
          397   7147: memcmp
          398   7154: __aeabi_memcpy
          399   7169: __rt_memcpy
          400   7181: _memcpy_lastbytes
          401   7199: __aeabi_memclr4
          402   7215: __aeabi_memclr8
          403   7231: __rt_memclr_w
          404   7245: _memset_w
          405   7255: __use_two_region_memory
          406   7279: __rt_heap_escrow$2region
          407   7304: __rt_heap_expand$2region
          408   7329: __aeabi_memcpy4
          409   7345: __aeabi_memcpy8
          410   7361: __rt_memcpy_w
          411   7375: _memcpy_lastbytes_aligned
          412   7401: __user_setup_stackheap
          413   7424: exit
          414   7429: __user_libspace
          415   7445: __user_perproc_libspace
          416   7469: __user_perthread_libspace
          417   7495: _sys_exit
          418   7505: __I$use$semihosting
          419   7525: __use_no_semihosting_swi
          420   7550: __semihosting_library_function
          421   7581: HardFault_Handler
          422   7599: am_bsp_itm_printf_enable
          423   7624: am_bsp_low_power_init
          424   7646: am_bsp_mspi_pins_enable
          425   7670: am_devices_mspi_is25wx064_apply_ddr_timing
          426   7713: am_devices_mspi_is25wx064_deinit
          427   7746: am_devices_mspi_is25wx064_disable_scrambling
          428   7791: am_devices_mspi_is25wx064_disable_xip
          429   7829: am_devices_mspi_is25wx064_enable_scrambling
          430   7873: am_devices_mspi_is25wx064_enable_xip
          431   7910: am_devices_mspi_is25wx064_id
          432   7939: am_devices_mspi_is25wx064_init
          433   7970: am_devices_mspi_is25wx064_init_timing_check
          434   8014: am_devices_mspi_is25wx064_mass_erase
          435   8051: am_devices_mspi_is25wx064_read
          436   8082: am_devices_mspi_is25wx064_read_adv
          437   8117: am_devices_mspi_is25wx064_reset
          438   8149: am_devices_mspi_is25wx064_sector_erase
          439   8188: am_devices_mspi_is25wx064_write
          440   8220: am_hal_cmdq_alloc_block
          441   8244: am_hal_cmdq_disable
          442   8264: am_hal_cmdq_enable
          443   8283: am_hal_cmdq_error_resume
          444   8308: am_hal_cmdq_get_status
          445   8331: am_hal_cmdq_init
          446   8348: am_hal_cmdq_post_block
          447   8371: am_hal_cmdq_post_loop_block
          448   8399: am_hal_cmdq_release_block
          449   8425: am_hal_cmdq_reset
          450   8443: am_hal_cmdq_term
          451   8460: am_hal_daxi_config
          452   8479: am_hal_daxi_control
          453   8499: am_hal_dcu_get
          454   8514: am_hal_dcu_update
          455   8532: am_hal_delay_us
          456   8548: am_hal_delay_us_status_change
          457   8578: am_hal_delay_us_status_check
          458   8607: am_hal_fault_capture_enable
          459   8635: am_hal_fault_status_get
          460   8659: am_hal_gpio_pinconfig
          461   8681: am_hal_gpio_state_write
          462   8705: am_hal_interrupt_master_disable
          463   8737: am_hal_interrupt_master_enable
          464   8768: am_hal_interrupt_master_set
          465   8796: am_hal_itm_enable
          466   8814: am_hal_itm_print
          467   8831: am_hal_mram_info_read
          468   8853: am_hal_mspi_blocking_transfer
          469   8883: am_hal_mspi_configure
          470   8905: am_hal_mspi_control
          471   8925: am_hal_mspi_deinitialize
          472   8950: am_hal_mspi_device_configure
          473   8979: am_hal_mspi_disable
          474   8999: am_hal_mspi_enable
          475   9018: am_hal_mspi_initialize
          476   9041: am_hal_mspi_interrupt_clear
          477   9069: am_hal_mspi_interrupt_disable
          478   9099: am_hal_mspi_interrupt_enable
          479   9128: am_hal_mspi_interrupt_service
          480   9158: am_hal_mspi_interrupt_status_get
          481   9191: am_hal_mspi_nonblocking_transfer
          482   9224: am_hal_mspi_power_control
          483   9250: am_hal_pwrctrl_control
          484   9273: am_hal_pwrctrl_low_power_init
          485   9303: am_hal_pwrctrl_mcu_memory_config
          486   9336: am_hal_pwrctrl_periph_disable
          487   9366: am_hal_pwrctrl_periph_enable
          488   9395: am_hal_pwrctrl_sram_config
          489   9422: am_hal_rtc_osc_disable
          490   9445: am_hal_sysctrl_sleep
          491   9466: am_hal_tpiu_enable
          492   9485: am_mspi1_isr
          493   9498: am_util_delay_ms
          494   9515: am_util_delay_us
          495   9532: am_util_faultisr_collect_data
          496   9562: am_util_stdio_printf
          497   9583: am_util_stdio_printf_init
          498   9609: am_util_stdio_terminal_clear
          499   9638: am_util_stdio_vsprintf
          500   9661: am_valid_sp
          501   9673: buck_ldo_override_init
          502   9696: buck_ldo_update_override
          503   9721: build_dma_cmdlist
          504   9739: crypto_boost_trims
          505   9758: getStackedReg
          506   9772: main
          507   9777: __aeabi_d2f
          508   9789: _d2f
          509   9794: __fpl_dnaninf
          510   9808: _fp_init
          511   9817: __fplib_config_fpu_vfp
          512   9840: __fplib_config_pureend_doubles
          513   9871: __fpl_fretinf
          514   9885: __I$use$fp
          515   9896: MSPI_Flash_Config
          516   9914: am_hal_daxi_defaults
          517   9935: am_hal_gpio_pincfg_output
          518   9961: am_hal_pwrctrl_peripheral_control
          519   9995: g_DefaultMcuMemCfg
          520  10014: g_DefaultSRAMCfg
          521  10031: g_am_hal_bootrom_helper
          522  10055: sGlobalAccess
          523  10069: ui32DSP0Allowed
          524  10085: ui32DSP1Allowed
          525  10101: ui32MCUAllowed
          526  10116: ui32SharedAccess
          527  10133: Region$$Table$$Base
          528  10153: Region$$Table$$Limit
          529  10174: gDaxiConfig
          530  10186: gDcuDisable
          531  10198: gDcuEnable
          532  10209: gIS25WX064DqsCfg
          533  10226: gIS25WX064MspiRxCfg
          534  10246: g_AM_BSP_GPIO_MSPI1_MUX_OE
          535  10273: g_AM_BSP_GPIO_MSPI1_MUX_SEL
          536  10301: g_AM_BSP_GPIO_MSPI2_CE0
          537  10325: g_AM_BSP_GPIO_MSPI2_CE1
          538  10349: g_AM_BSP_GPIO_MSPI2_D0
          539  10372: g_AM_BSP_GPIO_MSPI2_D1
          540  10395: g_AM_BSP_GPIO_MSPI2_D2
          541  10418: g_AM_BSP_GPIO_MSPI2_D3
          542  10441: g_AM_BSP_GPIO_MSPI2_D4
          543  10464: g_AM_BSP_GPIO_MSPI2_D5
          544  10487: g_AM_BSP_GPIO_MSPI2_D6
          545  10510: g_AM_BSP_GPIO_MSPI2_D7
          546  10533: g_AM_BSP_GPIO_MSPI2_DQSDM
          547  10559: g_AM_BSP_GPIO_MSPI2_SCK
          548  10583: g_AM_BSP_GPIO_NOR_CE0
          549  10605: g_AM_BSP_GPIO_NOR_D0
          550  10626: g_AM_BSP_GPIO_NOR_D1
          551  10647: g_AM_BSP_GPIO_NOR_D2
          552  10668: g_AM_BSP_GPIO_NOR_D3
          553  10689: g_AM_BSP_GPIO_NOR_D4
          554  10710: g_AM_BSP_GPIO_NOR_D5
          555  10731: g_AM_BSP_GPIO_NOR_D6
          556  10752: g_AM_BSP_GPIO_NOR_D7
          557  10773: g_AM_BSP_GPIO_NOR_DQS
          558  10795: g_AM_BSP_GPIO_NOR_SCK
          559  10817: g_AM_BSP_GPIO_PSRAM_CE0
          560  10841: g_AM_BSP_GPIO_PSRAM_D0
          561  10864: g_AM_BSP_GPIO_PSRAM_D1
          562  10887: g_AM_BSP_GPIO_PSRAM_D10
          563  10911: g_AM_BSP_GPIO_PSRAM_D11
          564  10935: g_AM_BSP_GPIO_PSRAM_D12
          565  10959: g_AM_BSP_GPIO_PSRAM_D13
          566  10983: g_AM_BSP_GPIO_PSRAM_D14
          567  11007: g_AM_BSP_GPIO_PSRAM_D15
          568  11031: g_AM_BSP_GPIO_PSRAM_D2
          569  11054: g_AM_BSP_GPIO_PSRAM_D3
          570  11077: g_AM_BSP_GPIO_PSRAM_D4
          571  11100: g_AM_BSP_GPIO_PSRAM_D5
          572  11123: g_AM_BSP_GPIO_PSRAM_D6
          573  11146: g_AM_BSP_GPIO_PSRAM_D7
          574  11169: g_AM_BSP_GPIO_PSRAM_D8
          575  11192: g_AM_BSP_GPIO_PSRAM_D9
          576  11215: g_AM_BSP_GPIO_PSRAM_DQS0DM0
          577  11243: g_AM_BSP_GPIO_PSRAM_DQS1DM1
          578  11271: g_AM_BSP_GPIO_PSRAM_SCK
          579  11295: g_IS25WX064_DevConfig
          580  11317: g_ui32TrimVer
          581  11331: g_ui32origSimobuckVDDStrim
          582  11358: gpDcuEnable
          583  11370: gpDcuLock
          584  11380: is25wx064_sConfigArray
          585  11403: mspi_device_func
          586  11420: sTimingCfgDefault_OCTAL_1_1_8
          587  11450: sTimingCfgDefault_OCTAL_1_8_8
          588  11480: sTimingCfgDefault_OCTAL_DDR
          589  11508: sTimingConfigDefault
          590  11529: __libspace_start
          591  11546: DMATCBBuffer
          592  11559: __temporary_stack_top$libspace
          593  11590: MSPISdrTimingConfig
          594  11610: gFaultStack
          595  11622: gStartOff
          596  11632: g_AM_BSP_GPIO_ITM_SWO
          597  11654: g_FlashHdl
          598  11665: g_MSPIHdl
          599  11675: g_SectorRXBuffer
          600  11692: g_SectorTXBuffer
          601  11709: g_pfnCharPrint
          602  11724: psGlobalAccessPtr
          603  11742: ui32MCUClaimed
          604  11757: ui32DSP0Claimed
          605  11773: ui32DSP1Claimed
          606  11789: ui8TxBuffer
          607  11801: ui8RxBuffer
          608  11813: 
          609  11814: 
          610  11815: 


** Section #13 '.note' (SHT_NOTE)
    Size   : 32 bytes (alignment 4)


** Section #14 '.comment' (SHT_PROGBITS)
    Size   : 1620 bytes


** Section #15 '.shstrtab' (SHT_STRTAB)
    Size   : 148 bytes

            #  Offset String
        ====================================

            1      1: MCU_MRAM
            2     10: MCU_TCM
            3     18: SHARED_SRAM
            4     30: .debug_abbrev
            5     44: .debug_frame
            6     57: .debug_info
            7     69: .debug_line
            8     81: .debug_str
            9     92: .debug_ranges
           10    106: .symtab
           11    114: .strtab
           12    122: .note
           13    128: .comment
           14    137: .shstrtab
           15    147: 


