
========================================================================

** ELF Header Information

    File Name: bin\mspi_ddr_psram_loader.axf

    Machine class: ELFCLASS32 (32-bit)
    Data encoding: ELFDATA2LSB (Little endian)
    Header version: EV_CURRENT (Current version)
    Operating System ABI: none
    ABI Version: 0
    File Type: ET_EXEC (Executable) (2)
    Machine: EM_ARM (ARM)

    Image Entry point: 0x00018235
    Flags: EF_ARM_HASENTRY + EF_ARM_ABI_FLOAT_HARD (0x05000402)

    ARM ELF revision: 5 (ABI version 2)

    Conforms to Hard float procedure-call standard

    Built with
    Component: ARM Compiler 6.16 Tool: armasm [5dfea300]
    Component: ARM Compiler 6.16 Tool: armlink [5dfeaa00]

    Header size: 52 bytes (0x34)
    Program header entry size: 32 bytes (0x20)
    Section header entry size: 40 bytes (0x28)

    Program header entries: 1
    Section header entries: 16

    Program header offset: 103192 (0x00019318)
    Section header offset: 103224 (0x00019338)

    Section header string table index: 15

========================================================================

** Program header #0 (PT_LOAD) [PF_X + PF_W + PF_R + PF_ARM_ENTRY]
    Size : 56384 bytes (32288 bytes in file)
    Virtual address: 0x00018000 (Alignment 16)


========================================================================

** Section #1 'MCU_MRAM' (SHT_PROGBITS) [SHF_ALLOC + SHF_EXECINSTR]
    Size   : 31852 bytes (alignment 4)
    Address: 0x00018000

    $d
    RESET
    __Vectors
        0x00018000:    10005f90    ._..    DCD    268459920
        0x00018004:    00018201    ....    DCD    98817
        0x00018008:    0001821f    ....    DCD    98847
        0x0001800c:    00018559    Y...    DCD    99673
        0x00018010:    00018221    !...    DCD    98849
        0x00018014:    00018223    #...    DCD    98851
        0x00018018:    00018225    %...    DCD    98853
        0x0001801c:    00000000    ....    DCD    0
        0x00018020:    00000000    ....    DCD    0
        0x00018024:    00000000    ....    DCD    0
        0x00018028:    00000000    ....    DCD    0
        0x0001802c:    00018227    '...    DCD    98855
        0x00018030:    00018229    )...    DCD    98857
        0x00018034:    00000000    ....    DCD    0
        0x00018038:    0001822b    +...    DCD    98859
        0x0001803c:    0001822d    -...    DCD    98861
        0x00018040:    0001822f    /...    DCD    98863
        0x00018044:    0001822f    /...    DCD    98863
        0x00018048:    0001822f    /...    DCD    98863
        0x0001804c:    0001822f    /...    DCD    98863
        0x00018050:    0001822f    /...    DCD    98863
        0x00018054:    0001822f    /...    DCD    98863
        0x00018058:    0001822f    /...    DCD    98863
        0x0001805c:    0001822f    /...    DCD    98863
        0x00018060:    0001822f    /...    DCD    98863
        0x00018064:    0001822f    /...    DCD    98863
        0x00018068:    0001822f    /...    DCD    98863
        0x0001806c:    0001822f    /...    DCD    98863
        0x00018070:    0001822f    /...    DCD    98863
        0x00018074:    0001822f    /...    DCD    98863
        0x00018078:    0001822f    /...    DCD    98863
        0x0001807c:    0001822f    /...    DCD    98863
        0x00018080:    0001822f    /...    DCD    98863
        0x00018084:    0001822f    /...    DCD    98863
        0x00018088:    0001822f    /...    DCD    98863
        0x0001808c:    0001822f    /...    DCD    98863
        0x00018090:    0001cae5    ....    DCD    117477
        0x00018094:    0001822f    /...    DCD    98863
        0x00018098:    0001822f    /...    DCD    98863
        0x0001809c:    0001822f    /...    DCD    98863
        0x000180a0:    0001822f    /...    DCD    98863
        0x000180a4:    0001822f    /...    DCD    98863
        0x000180a8:    0001822f    /...    DCD    98863
        0x000180ac:    0001822f    /...    DCD    98863
        0x000180b0:    0001822f    /...    DCD    98863
        0x000180b4:    0001822f    /...    DCD    98863
        0x000180b8:    0001822f    /...    DCD    98863
        0x000180bc:    0001822f    /...    DCD    98863
        0x000180c0:    0001822f    /...    DCD    98863
        0x000180c4:    0001822f    /...    DCD    98863
        0x000180c8:    0001822f    /...    DCD    98863
        0x000180cc:    0001822f    /...    DCD    98863
        0x000180d0:    0001822f    /...    DCD    98863
        0x000180d4:    0001822f    /...    DCD    98863
        0x000180d8:    0001822f    /...    DCD    98863
        0x000180dc:    0001822f    /...    DCD    98863
        0x000180e0:    0001822f    /...    DCD    98863
        0x000180e4:    0001822f    /...    DCD    98863
        0x000180e8:    0001822f    /...    DCD    98863
        0x000180ec:    0001822f    /...    DCD    98863
        0x000180f0:    0001822f    /...    DCD    98863
        0x000180f4:    0001822f    /...    DCD    98863
        0x000180f8:    0001822f    /...    DCD    98863
        0x000180fc:    0001822f    /...    DCD    98863
        0x00018100:    0001822f    /...    DCD    98863
        0x00018104:    0001822f    /...    DCD    98863
        0x00018108:    0001822f    /...    DCD    98863
        0x0001810c:    0001822f    /...    DCD    98863
        0x00018110:    0001822f    /...    DCD    98863
        0x00018114:    0001822f    /...    DCD    98863
        0x00018118:    0001822f    /...    DCD    98863
        0x0001811c:    0001822f    /...    DCD    98863
        0x00018120:    0001822f    /...    DCD    98863
        0x00018124:    0001822f    /...    DCD    98863
        0x00018128:    0001822f    /...    DCD    98863
        0x0001812c:    0001822f    /...    DCD    98863
        0x00018130:    0001822f    /...    DCD    98863
        0x00018134:    0001822f    /...    DCD    98863
        0x00018138:    0001822f    /...    DCD    98863
        0x0001813c:    0001822f    /...    DCD    98863
        0x00018140:    0001822f    /...    DCD    98863
        0x00018144:    0001822f    /...    DCD    98863
        0x00018148:    0001822f    /...    DCD    98863
        0x0001814c:    0001822f    /...    DCD    98863
        0x00018150:    0001822f    /...    DCD    98863
        0x00018154:    0001822f    /...    DCD    98863
        0x00018158:    0001822f    /...    DCD    98863
        0x0001815c:    0001822f    /...    DCD    98863
        0x00018160:    0001822f    /...    DCD    98863
        0x00018164:    0001822f    /...    DCD    98863
        0x00018168:    0001822f    /...    DCD    98863
        0x0001816c:    0001822f    /...    DCD    98863
        0x00018170:    0001822f    /...    DCD    98863
        0x00018174:    0001822f    /...    DCD    98863
        0x00018178:    0001822f    /...    DCD    98863
        0x0001817c:    0001822f    /...    DCD    98863
        0x00018180:    0001822f    /...    DCD    98863
        0x00018184:    0001822f    /...    DCD    98863
        0x00018188:    0001822f    /...    DCD    98863
        0x0001818c:    0001822f    /...    DCD    98863
    __Patchable
        0x00018190:    00000000    ....    DCD    0
        0x00018194:    00000000    ....    DCD    0
        0x00018198:    00000000    ....    DCD    0
        0x0001819c:    00000000    ....    DCD    0
        0x000181a0:    00000000    ....    DCD    0
        0x000181a4:    00000000    ....    DCD    0
        0x000181a8:    00000000    ....    DCD    0
        0x000181ac:    00000000    ....    DCD    0
        0x000181b0:    00000000    ....    DCD    0
        0x000181b4:    00000000    ....    DCD    0
        0x000181b8:    00000000    ....    DCD    0
        0x000181bc:    00000000    ....    DCD    0
        0x000181c0:    00000000    ....    DCD    0
        0x000181c4:    00000000    ....    DCD    0
        0x000181c8:    00000000    ....    DCD    0
        0x000181cc:    00000000    ....    DCD    0
        0x000181d0:    00000000    ....    DCD    0
        0x000181d4:    00000000    ....    DCD    0
        0x000181d8:    00000000    ....    DCD    0
        0x000181dc:    00000000    ....    DCD    0
        0x000181e0:    00000000    ....    DCD    0
        0x000181e4:    00000000    ....    DCD    0
        0x000181e8:    00000000    ....    DCD    0
        0x000181ec:    00000000    ....    DCD    0
        0x000181f0:    00000000    ....    DCD    0
        0x000181f4:    00000000    ....    DCD    0
        0x000181f8:    00000000    ....    DCD    0
        0x000181fc:    00000000    ....    DCD    0
    $t
    $v0
    Reset_Handler
        0x00018200:    f64e5088    N..P    MOV      r0,#0xed88
        0x00018204:    f2ce0000    ....    MOVT     r0,#0xe000
        0x00018208:    6801        .h      LDR      r1,[r0,#0]
        0x0001820a:    f4410170    A.p.    ORR      r1,r1,#0xf00000
        0x0001820e:    6001        .`      STR      r1,[r0,#0]
        0x00018210:    f3bf8f4f    ..O.    DSB      
        0x00018214:    f3bf8f6f    ..o.    ISB      
        0x00018218:    4805        .H      LDR      r0,[pc,#20] ; [0x18230] = 0x18235
        0x0001821a:    4700        .G      BX       r0
        0x0001821c:    e7fe        ..      B        0x1821c ; Reset_Handler + 28
    NMI_Handler
        0x0001821e:    e7fe        ..      B        NMI_Handler ; 0x1821e
    MemManage_Handler
        0x00018220:    e7fe        ..      B        MemManage_Handler ; 0x18220
    BusFault_Handler
        0x00018222:    e7fe        ..      B        BusFault_Handler ; 0x18222
    UsageFault_Handler
        0x00018224:    e7fe        ..      B        UsageFault_Handler ; 0x18224
    SVC_Handler
        0x00018226:    e7fe        ..      B        SVC_Handler ; 0x18226
    DebugMon_Handler
        0x00018228:    e7fe        ..      B        DebugMon_Handler ; 0x18228
    PendSV_Handler
        0x0001822a:    e7fe        ..      B        PendSV_Handler ; 0x1822a
    SysTick_Handler
        0x0001822c:    e7fe        ..      B        SysTick_Handler ; 0x1822c
    am_cryptosec_isr
    am_default_isr
    am_adc_isr
    am_audadc0_isr
    am_brownout_isr
    am_cachecpu_isr
    am_clkgen_isr
    am_ctimer_isr
    am_disp_isr
    am_dsi_isr
    am_dspi2s0_isr
    am_dspi2s1_isr
    am_dspi2s2_isr
    am_dspi2s3_isr
    am_gpio0_001f_isr
    am_gpio0_203f_isr
    am_gpio0_405f_isr
    am_gpio0_607f_isr
    am_gpio1_001f_isr
    am_gpio1_203f_isr
    am_gpio1_405f_isr
    am_gpio1_607f_isr
    am_gpu_isr
    am_iomaster0_isr
    am_iomaster1_isr
    am_iomaster2_isr
    am_iomaster3_isr
    am_iomaster4_isr
    am_iomaster5_isr
    am_iomaster6_isr
    am_iomaster7_isr
    am_ioslave_acc_isr
    am_ioslave_ios_isr
    am_mspi1_isr
    am_mspi2_isr
    am_pdm0_isr
    am_pdm1_isr
    am_pdm2_isr
    am_pdm3_isr
    am_rtc_isr
    am_sdio_isr
    am_stimer_cmpr0_isr
    am_stimer_cmpr1_isr
    am_stimer_cmpr2_isr
    am_stimer_cmpr3_isr
    am_stimer_cmpr4_isr
    am_stimer_cmpr5_isr
    am_stimer_cmpr6_isr
    am_stimer_cmpr7_isr
    am_stimerof_isr
    am_timer00_isr
    am_timer01_isr
    am_timer02_isr
    am_timer03_isr
    am_timer04_isr
    am_timer05_isr
    am_timer06_isr
    am_timer07_isr
    am_timer08_isr
    am_timer09_isr
    am_timer10_isr
    am_timer11_isr
    am_timer12_isr
    am_timer13_isr
    am_timer14_isr
    am_timer15_isr
    am_uart1_isr
    am_uart2_isr
    am_uart3_isr
    am_uart_isr
    am_usb_isr
    am_vcomp_isr
    am_watchdog_isr
        0x0001822e:    e7fe        ..      B        am_cryptosec_isr ; 0x1822e
    $d
        0x00018230:    00018235    5...    DCD    98869
    $t
    !!!main
    __main
        0x00018234:    f000f802    ....    BL       __scatterload ; 0x1823c
        0x00018238:    f000f86a    ..j.    BL       __rt_entry ; 0x18310
    !!!scatter
    __scatterload
    __scatterload_rt2
    __scatterload_rt2_thumb_only
        0x0001823c:    a00a        ..      ADR      r0,{pc}+0x2c ; 0x18268
        0x0001823e:    e8900c00    ....    LDM      r0,{r10,r11}
        0x00018242:    4482        .D      ADD      r10,r10,r0
        0x00018244:    4483        .D      ADD      r11,r11,r0
        0x00018246:    f1aa0701    ....    SUB      r7,r10,#1
    __scatterload_null
        0x0001824a:    45da        .E      CMP      r10,r11
        0x0001824c:    d101        ..      BNE      0x18252 ; __scatterload_null + 8
        0x0001824e:    f000f85f    .._.    BL       __rt_entry ; 0x18310
        0x00018252:    f2af0e09    ....    ADR      lr,{pc}-7 ; 0x1824b
        0x00018256:    e8ba000f    ....    LDM      r10!,{r0-r3}
        0x0001825a:    f0130f01    ....    TST      r3,#1
        0x0001825e:    bf18        ..      IT       NE
        0x00018260:    1afb        ..      SUBNE    r3,r7,r3
        0x00018262:    f0430301    C...    ORR      r3,r3,#1
        0x00018266:    4718        .G      BX       r3
    $d
        0x00018268:    000079d4    .y..    DCD    31188
        0x0001826c:    00007a04    .z..    DCD    31236
    $t
    !!dczerorl2
    __decompress
    __decompress1
        0x00018270:    440a        .D      ADD      r2,r2,r1
        0x00018272:    f04f0c00    O...    MOV      r12,#0
        0x00018276:    f8103b01    ...;    LDRB     r3,[r0],#1
        0x0001827a:    f0130407    ....    ANDS     r4,r3,#7
        0x0001827e:    bf08        ..      IT       EQ
        0x00018280:    f8104b01    ...K    LDRBEQ   r4,[r0],#1
        0x00018284:    111d        ..      ASRS     r5,r3,#4
        0x00018286:    bf08        ..      IT       EQ
        0x00018288:    f8105b01    ...[    LDRBEQ   r5,[r0],#1
        0x0001828c:    1e64        d.      SUBS     r4,r4,#1
        0x0001828e:    d005        ..      BEQ      0x1829c ; __decompress + 44
        0x00018290:    f8106b01    ...k    LDRB     r6,[r0],#1
        0x00018294:    1e64        d.      SUBS     r4,r4,#1
        0x00018296:    f8016b01    ...k    STRB     r6,[r1],#1
        0x0001829a:    d1f9        ..      BNE      0x18290 ; __decompress + 32
        0x0001829c:    f0130f08    ....    TST      r3,#8
        0x000182a0:    bf1e        ..      ITTT     NE
        0x000182a2:    f8104b01    ...K    LDRBNE   r4,[r0],#1
        0x000182a6:    1cad        ..      ADDNE    r5,r5,#2
        0x000182a8:    1b0c        ..      SUBNE    r4,r1,r4
        0x000182aa:    d109        ..      BNE      0x182c0 ; __decompress + 80
        0x000182ac:    1e6d        m.      SUBS     r5,r5,#1
        0x000182ae:    bf58        X.      IT       PL
        0x000182b0:    f801cb01    ....    STRBPL   r12,[r1],#1
        0x000182b4:    d5fa        ..      BPL      0x182ac ; __decompress + 60
        0x000182b6:    e005        ..      B        0x182c4 ; __decompress + 84
        0x000182b8:    f8146b01    ...k    LDRB     r6,[r4],#1
        0x000182bc:    f8016b01    ...k    STRB     r6,[r1],#1
        0x000182c0:    1e6d        m.      SUBS     r5,r5,#1
        0x000182c2:    d5f9        ..      BPL      0x182b8 ; __decompress + 72
        0x000182c4:    4291        .B      CMP      r1,r2
        0x000182c6:    d3d6        ..      BCC      0x18276 ; __decompress + 6
        0x000182c8:    4770        pG      BX       lr
        0x000182ca:    0000        ..      MOVS     r0,r0
    !!handler_copy
    __scatterload_copy
        0x000182cc:    3a10        .:      SUBS     r2,r2,#0x10
        0x000182ce:    bf24        $.      ITT      CS
        0x000182d0:    c878        x.      LDMCS    r0!,{r3-r6}
        0x000182d2:    c178        x.      STMCS    r1!,{r3-r6}
        0x000182d4:    d8fa        ..      BHI      __scatterload_copy ; 0x182cc
        0x000182d6:    0752        R.      LSLS     r2,r2,#29
        0x000182d8:    bf24        $.      ITT      CS
        0x000182da:    c830        0.      LDMCS    r0!,{r4,r5}
        0x000182dc:    c130        0.      STMCS    r1!,{r4,r5}
        0x000182de:    bf44        D.      ITT      MI
        0x000182e0:    6804        .h      LDRMI    r4,[r0,#0]
        0x000182e2:    600c        .`      STRMI    r4,[r1,#0]
        0x000182e4:    4770        pG      BX       lr
        0x000182e6:    0000        ..      MOVS     r0,r0
    !!handler_zi
    __scatterload_zeroinit
        0x000182e8:    2300        .#      MOVS     r3,#0
        0x000182ea:    2400        .$      MOVS     r4,#0
        0x000182ec:    2500        .%      MOVS     r5,#0
        0x000182ee:    2600        .&      MOVS     r6,#0
        0x000182f0:    3a10        .:      SUBS     r2,r2,#0x10
        0x000182f2:    bf28        (.      IT       CS
        0x000182f4:    c178        x.      STMCS    r1!,{r3-r6}
        0x000182f6:    d8fb        ..      BHI      0x182f0 ; __scatterload_zeroinit + 8
        0x000182f8:    0752        R.      LSLS     r2,r2,#29
        0x000182fa:    bf28        (.      IT       CS
        0x000182fc:    c130        0.      STMCS    r1!,{r4,r5}
        0x000182fe:    bf48        H.      IT       MI
        0x00018300:    600b        .`      STRMI    r3,[r1,#0]
        0x00018302:    4770        pG      BX       lr
    .ARM.Collect$$libinit$$00000000
    __rt_lib_init
        0x00018304:    b51f        ..      PUSH     {r0-r4,lr}
    .ARM.Collect$$libinit$$00000001
    __rt_lib_init_fp_1
        0x00018306:    f006fe22    ..".    BL       _fp_init ; 0x1ef4e
    .ARM.Collect$$libinit$$00000004
    .ARM.Collect$$libinit$$0000000A
    .ARM.Collect$$libinit$$0000000C
    .ARM.Collect$$libinit$$0000000E
    .ARM.Collect$$libinit$$00000011
    .ARM.Collect$$libinit$$00000013
    .ARM.Collect$$libinit$$00000015
    .ARM.Collect$$libinit$$00000017
    .ARM.Collect$$libinit$$00000019
    .ARM.Collect$$libinit$$0000001B
    .ARM.Collect$$libinit$$0000001D
    .ARM.Collect$$libinit$$0000001F
    .ARM.Collect$$libinit$$00000021
    .ARM.Collect$$libinit$$00000023
    .ARM.Collect$$libinit$$00000025
    .ARM.Collect$$libinit$$0000002C
    .ARM.Collect$$libinit$$0000002E
    .ARM.Collect$$libinit$$00000030
    .ARM.Collect$$libinit$$00000032
    .ARM.Collect$$libinit$$00000033
    __rt_lib_init_alloca_1
    __rt_lib_init_argv_1
    __rt_lib_init_atexit_1
    __rt_lib_init_clock_1
    __rt_lib_init_cpp_1
    __rt_lib_init_exceptions_1
    __rt_lib_init_fp_trap_1
    __rt_lib_init_getenv_1
    __rt_lib_init_heap_1
    __rt_lib_init_lc_collate_1
    __rt_lib_init_lc_ctype_1
    __rt_lib_init_lc_monetary_1
    __rt_lib_init_lc_numeric_1
    __rt_lib_init_lc_time_1
    __rt_lib_init_preinit_1
    __rt_lib_init_rand_1
    __rt_lib_init_return
    __rt_lib_init_signal_1
    __rt_lib_init_stdio_1
    __rt_lib_init_user_alloc_1
        0x0001830a:    bd1f        ..      POP      {r0-r4,pc}
    .ARM.Collect$$libshutdown$$00000000
    __rt_lib_shutdown
        0x0001830c:    b510        ..      PUSH     {r4,lr}
    .ARM.Collect$$libshutdown$$00000002
    .ARM.Collect$$libshutdown$$00000004
    .ARM.Collect$$libshutdown$$00000007
    .ARM.Collect$$libshutdown$$0000000A
    .ARM.Collect$$libshutdown$$0000000C
    .ARM.Collect$$libshutdown$$0000000F
    .ARM.Collect$$libshutdown$$00000010
    __rt_lib_shutdown_cpp_1
    __rt_lib_shutdown_fp_trap_1
    __rt_lib_shutdown_heap_1
    __rt_lib_shutdown_return
    __rt_lib_shutdown_signal_1
    __rt_lib_shutdown_stdio_1
    __rt_lib_shutdown_user_alloc_1
        0x0001830e:    bd10        ..      POP      {r4,pc}
    .ARM.Collect$$rtentry$$00000000
    .ARM.Collect$$rtentry$$00000002
    .ARM.Collect$$rtentry$$00000004
    __rt_entry
    __rt_entry_presh_1
    __rt_entry_sh
        0x00018310:    f000f8e7    ....    BL       __user_setup_stackheap ; 0x184e2
        0x00018314:    4611        .F      MOV      r1,r2
    .ARM.Collect$$rtentry$$00000009
    .ARM.Collect$$rtentry$$0000000A
    __rt_entry_li
    __rt_entry_postsh_1
        0x00018316:    f7fffff5    ....    BL       __rt_lib_init ; 0x18304
    .ARM.Collect$$rtentry$$0000000C
    .ARM.Collect$$rtentry$$0000000D
    __rt_entry_main
    __rt_entry_postli_1
        0x0001831a:    f005fd7b    ..{.    BL       main ; 0x1de14
        0x0001831e:    f000f905    ....    BL       exit ; 0x1852c
    .ARM.Collect$$rtexit$$00000000
    __rt_exit
        0x00018322:    b403        ..      PUSH     {r0,r1}
    .ARM.Collect$$rtexit$$00000002
    .ARM.Collect$$rtexit$$00000003
    __rt_exit_ls
    __rt_exit_prels_1
        0x00018324:    f7fffff2    ....    BL       __rt_lib_shutdown ; 0x1830c
    .ARM.Collect$$rtexit$$00000004
    __rt_exit_exit
        0x00018328:    bc03        ..      POP      {r0,r1}
        0x0001832a:    f000f90d    ....    BL       _sys_exit ; 0x18548
        0x0001832e:    0000        ..      MOVS     r0,r0
    .text
    $v0
    __user_initial_stackheap
        0x00018330:    4802        .H      LDR      r0,[pc,#8] ; [0x1833c] = 0x10004f90
        0x00018332:    4903        .I      LDR      r1,[pc,#12] ; [0x18340] = 0x10005f90
        0x00018334:    4a01        .J      LDR      r2,[pc,#4] ; [0x1833c] = 0x10004f90
        0x00018336:    4b03        .K      LDR      r3,[pc,#12] ; [0x18344] = 0x10004f90
        0x00018338:    4770        pG      BX       lr
    $d
        0x0001833a:    0000        ..      DCW    0
        0x0001833c:    10004f90    .O..    DCD    268455824
        0x00018340:    10005f90    ._..    DCD    268459920
        0x00018344:    10004f90    .O..    DCD    268455824
    $t
    .text
    memcmp
        0x00018348:    ea400301    @...    ORR      r3,r0,r1
        0x0001834c:    b510        ..      PUSH     {r4,lr}
        0x0001834e:    079b        ..      LSLS     r3,r3,#30
        0x00018350:    d10f        ..      BNE      0x18372 ; memcmp + 42
        0x00018352:    2a04        .*      CMP      r2,#4
        0x00018354:    d30d        ..      BCC      0x18372 ; memcmp + 42
        0x00018356:    c810        ..      LDM      r0!,{r4}
        0x00018358:    c908        ..      LDM      r1!,{r3}
        0x0001835a:    1f12        ..      SUBS     r2,r2,#4
        0x0001835c:    429c        .B      CMP      r4,r3
        0x0001835e:    d0f8        ..      BEQ      0x18352 ; memcmp + 10
        0x00018360:    ba20         .      REV      r0,r4
        0x00018362:    ba19        ..      REV      r1,r3
        0x00018364:    4288        .B      CMP      r0,r1
        0x00018366:    d901        ..      BLS      0x1836c ; memcmp + 36
        0x00018368:    2001        .       MOVS     r0,#1
        0x0001836a:    bd10        ..      POP      {r4,pc}
        0x0001836c:    f04f30ff    O..0    MOV      r0,#0xffffffff
        0x00018370:    bd10        ..      POP      {r4,pc}
        0x00018372:    b11a        ..      CBZ      r2,0x1837c ; memcmp + 52
        0x00018374:    07d3        ..      LSLS     r3,r2,#31
        0x00018376:    d003        ..      BEQ      0x18380 ; memcmp + 56
        0x00018378:    1c52        R.      ADDS     r2,r2,#1
        0x0001837a:    e007        ..      B        0x1838c ; memcmp + 68
        0x0001837c:    2000        .       MOVS     r0,#0
        0x0001837e:    bd10        ..      POP      {r4,pc}
        0x00018380:    f8103b01    ...;    LDRB     r3,[r0],#1
        0x00018384:    f8114b01    ...K    LDRB     r4,[r1],#1
        0x00018388:    1b1b        ..      SUBS     r3,r3,r4
        0x0001838a:    d107        ..      BNE      0x1839c ; memcmp + 84
        0x0001838c:    f8103b01    ...;    LDRB     r3,[r0],#1
        0x00018390:    f8114b01    ...K    LDRB     r4,[r1],#1
        0x00018394:    1b1b        ..      SUBS     r3,r3,r4
        0x00018396:    d101        ..      BNE      0x1839c ; memcmp + 84
        0x00018398:    1e92        ..      SUBS     r2,r2,#2
        0x0001839a:    d1f1        ..      BNE      0x18380 ; memcmp + 56
        0x0001839c:    4618        .F      MOV      r0,r3
        0x0001839e:    bd10        ..      POP      {r4,pc}
    .text
    __aeabi_memcpy
    __rt_memcpy
        0x000183a0:    2a03        .*      CMP      r2,#3
        0x000183a2:    f2408030    @.0.    BLS.W    _memcpy_lastbytes ; 0x18406
        0x000183a6:    f0100c03    ....    ANDS     r12,r0,#3
        0x000183aa:    f0008015    ....    BEQ.W    0x183d8 ; __aeabi_memcpy + 56
        0x000183ae:    f8113b01    ...;    LDRB     r3,[r1],#1
        0x000183b2:    f1bc0f02    ....    CMP      r12,#2
        0x000183b6:    4462        bD      ADD      r2,r2,r12
        0x000183b8:    bf98        ..      IT       LS
        0x000183ba:    f811cb01    ....    LDRBLS   r12,[r1],#1
        0x000183be:    f8003b01    ...;    STRB     r3,[r0],#1
        0x000183c2:    bf38        8.      IT       CC
        0x000183c4:    f8113b01    ...;    LDRBCC   r3,[r1],#1
        0x000183c8:    f1a20204    ....    SUB      r2,r2,#4
        0x000183cc:    bf98        ..      IT       LS
        0x000183ce:    f800cb01    ....    STRBLS   r12,[r0],#1
        0x000183d2:    bf38        8.      IT       CC
        0x000183d4:    f8003b01    ...;    STRBCC   r3,[r0],#1
        0x000183d8:    f0110303    ....    ANDS     r3,r1,#3
        0x000183dc:    f000804f    ..O.    BEQ.W    __aeabi_memcpy4 ; 0x1847e
        0x000183e0:    3a08        .:      SUBS     r2,r2,#8
        0x000183e2:    f0c08008    ....    BCC.W    0x183f6 ; __aeabi_memcpy + 86
        0x000183e6:    f8513b04    Q..;    LDR      r3,[r1],#4
        0x000183ea:    3a08        .:      SUBS     r2,r2,#8
        0x000183ec:    f851cb04    Q...    LDR      r12,[r1],#4
        0x000183f0:    e8a01008    ....    STM      r0!,{r3,r12}
        0x000183f4:    e7f5        ..      B        0x183e2 ; __aeabi_memcpy + 66
        0x000183f6:    1d12        ..      ADDS     r2,r2,#4
        0x000183f8:    bf5c        \.      ITT      PL
        0x000183fa:    f8513b04    Q..;    LDRPL    r3,[r1],#4
        0x000183fe:    f8403b04    @..;    STRPL    r3,[r0],#4
        0x00018402:    f3af8000    ....    NOP.W    
    _memcpy_lastbytes
        0x00018406:    07d2        ..      LSLS     r2,r2,#31
        0x00018408:    bf24        $.      ITT      CS
        0x0001840a:    f8113b01    ...;    LDRBCS   r3,[r1],#1
        0x0001840e:    f811cb01    ....    LDRBCS   r12,[r1],#1
        0x00018412:    bf48        H.      IT       MI
        0x00018414:    f8112b01    ...+    LDRBMI   r2,[r1],#1
        0x00018418:    bf24        $.      ITT      CS
        0x0001841a:    f8003b01    ...;    STRBCS   r3,[r0],#1
        0x0001841e:    f800cb01    ....    STRBCS   r12,[r0],#1
        0x00018422:    bf48        H.      IT       MI
        0x00018424:    f8002b01    ...+    STRBMI   r2,[r0],#1
        0x00018428:    4770        pG      BX       lr
    .text
    __aeabi_memclr4
    __aeabi_memclr8
    __rt_memclr_w
        0x0001842a:    f04f0200    O...    MOV      r2,#0
    _memset_w
        0x0001842e:    b500        ..      PUSH     {lr}
        0x00018430:    4613        .F      MOV      r3,r2
        0x00018432:    4694        .F      MOV      r12,r2
        0x00018434:    4696        .F      MOV      lr,r2
        0x00018436:    3920         9      SUBS     r1,r1,#0x20
        0x00018438:    bf22        ".      ITTT     CS
        0x0001843a:    e8a0500c    ...P    STMCS    r0!,{r2,r3,r12,lr}
        0x0001843e:    e8a0500c    ...P    STMCS    r0!,{r2,r3,r12,lr}
        0x00018442:    f1b10120    .. .    SUBSCS   r1,r1,#0x20
        0x00018446:    f4bfaff7    ....    BCS.W    0x18438 ; _memset_w + 10
        0x0001844a:    0709        ..      LSLS     r1,r1,#28
        0x0001844c:    bf28        (.      IT       CS
        0x0001844e:    e8a0500c    ...P    STMCS    r0!,{r2,r3,r12,lr}
        0x00018452:    bf48        H.      IT       MI
        0x00018454:    c00c        ..      STMMI    r0!,{r2,r3}
        0x00018456:    f85deb04    ]...    POP      {lr}
        0x0001845a:    0089        ..      LSLS     r1,r1,#2
        0x0001845c:    bf28        (.      IT       CS
        0x0001845e:    f8402b04    @..+    STRCS    r2,[r0],#4
        0x00018462:    bf08        ..      IT       EQ
        0x00018464:    4770        pG      BXEQ     lr
        0x00018466:    bf48        H.      IT       MI
        0x00018468:    f8202b02     ..+    STRHMI   r2,[r0],#2
        0x0001846c:    f0114f80    ...O    TST      r1,#0x40000000
        0x00018470:    bf18        ..      IT       NE
        0x00018472:    f8002b01    ...+    STRBNE   r2,[r0],#1
        0x00018476:    4770        pG      BX       lr
    .text
    __use_two_region_memory
        0x00018478:    4770        pG      BX       lr
    __rt_heap_escrow$2region
        0x0001847a:    4770        pG      BX       lr
    __rt_heap_expand$2region
        0x0001847c:    4770        pG      BX       lr
    .text
    __aeabi_memcpy4
    __aeabi_memcpy8
    __rt_memcpy_w
        0x0001847e:    b510        ..      PUSH     {r4,lr}
        0x00018480:    3a20         :      SUBS     r2,r2,#0x20
        0x00018482:    f0c0800b    ....    BCC.W    0x1849c ; __aeabi_memcpy4 + 30
        0x00018486:    e8b15018    ...P    LDM      r1!,{r3,r4,r12,lr}
        0x0001848a:    e8a05018    ...P    STM      r0!,{r3,r4,r12,lr}
        0x0001848e:    e8b15018    ...P    LDM      r1!,{r3,r4,r12,lr}
        0x00018492:    e8a05018    ...P    STM      r0!,{r3,r4,r12,lr}
        0x00018496:    3a20         :      SUBS     r2,r2,#0x20
        0x00018498:    f4bfaff5    ....    BCS.W    0x18486 ; __aeabi_memcpy4 + 8
        0x0001849c:    ea5f7c02    _..|    LSLS     r12,r2,#28
        0x000184a0:    bf24        $.      ITT      CS
        0x000184a2:    e8b15018    ...P    LDMCS    r1!,{r3,r4,r12,lr}
        0x000184a6:    e8a05018    ...P    STMCS    r0!,{r3,r4,r12,lr}
        0x000184aa:    bf44        D.      ITT      MI
        0x000184ac:    c918        ..      LDMMI    r1!,{r3,r4}
        0x000184ae:    c018        ..      STMMI    r0!,{r3,r4}
        0x000184b0:    e8bd4010    ...@    POP      {r4,lr}
        0x000184b4:    ea5f7c82    _..|    LSLS     r12,r2,#30
        0x000184b8:    bf24        $.      ITT      CS
        0x000184ba:    f8513b04    Q..;    LDRCS    r3,[r1],#4
        0x000184be:    f8403b04    @..;    STRCS    r3,[r0],#4
        0x000184c2:    bf08        ..      IT       EQ
        0x000184c4:    4770        pG      BXEQ     lr
    _memcpy_lastbytes_aligned
        0x000184c6:    07d2        ..      LSLS     r2,r2,#31
        0x000184c8:    bf28        (.      IT       CS
        0x000184ca:    f8313b02    1..;    LDRHCS   r3,[r1],#2
        0x000184ce:    bf48        H.      IT       MI
        0x000184d0:    f8112b01    ...+    LDRBMI   r2,[r1],#1
        0x000184d4:    bf28        (.      IT       CS
        0x000184d6:    f8203b02     ..;    STRHCS   r3,[r0],#2
        0x000184da:    bf48        H.      IT       MI
        0x000184dc:    f8002b01    ...+    STRBMI   r2,[r0],#1
        0x000184e0:    4770        pG      BX       lr
    .text
    __user_setup_stackheap
        0x000184e2:    4675        uF      MOV      r5,lr
        0x000184e4:    f000f82c    ..,.    BL       __user_libspace ; 0x18540
        0x000184e8:    46ae        .F      MOV      lr,r5
        0x000184ea:    0005        ..      MOVS     r5,r0
        0x000184ec:    4669        iF      MOV      r1,sp
        0x000184ee:    4653        SF      MOV      r3,r10
        0x000184f0:    f0200007     ...    BIC      r0,r0,#7
        0x000184f4:    4685        .F      MOV      sp,r0
        0x000184f6:    b018        ..      ADD      sp,sp,#0x60
        0x000184f8:    b520         .      PUSH     {r5,lr}
        0x000184fa:    f7ffff19    ....    BL       __user_initial_stackheap ; 0x18330
        0x000184fe:    e8bd4020    .. @    POP      {r5,lr}
        0x00018502:    f04f0600    O...    MOV      r6,#0
        0x00018506:    f04f0700    O...    MOV      r7,#0
        0x0001850a:    f04f0800    O...    MOV      r8,#0
        0x0001850e:    f04f0b00    O...    MOV      r11,#0
        0x00018512:    46ac        .F      MOV      r12,r5
        0x00018514:    e8ac09c0    ....    STM      r12!,{r6-r8,r11}
        0x00018518:    e8ac09c0    ....    STM      r12!,{r6-r8,r11}
        0x0001851c:    e8ac09c0    ....    STM      r12!,{r6-r8,r11}
        0x00018520:    e8ac09c0    ....    STM      r12!,{r6-r8,r11}
        0x00018524:    f0210107    !...    BIC      r1,r1,#7
        0x00018528:    468d        .F      MOV      sp,r1
        0x0001852a:    4770        pG      BX       lr
    .text
    exit
        0x0001852c:    b510        ..      PUSH     {r4,lr}
        0x0001852e:    4604        .F      MOV      r4,r0
        0x00018530:    f3af8000    ....    NOP.W    
        0x00018534:    4620         F      MOV      r0,r4
        0x00018536:    e8bd4010    ...@    POP      {r4,lr}
        0x0001853a:    f7ffbef2    ....    B.W      __rt_exit ; 0x18322
        0x0001853e:    0000        ..      MOVS     r0,r0
    .text
    __user_libspace
    __user_perproc_libspace
    __user_perthread_libspace
        0x00018540:    4800        .H      LDR      r0,[pc,#0] ; [0x18544] = 0x10000318
        0x00018542:    4770        pG      BX       lr
    $d
        0x00018544:    10000318    ....    DCD    268436248
    $t
    .text
    _sys_exit
        0x00018548:    4901        .I      LDR      r1,[pc,#4] ; [0x18550] = 0x20026
        0x0001854a:    2018        .       MOVS     r0,#0x18
        0x0001854c:    beab        ..      BKPT     #0xab
        0x0001854e:    e7fe        ..      B        0x1854e ; _sys_exit + 6
    $d
        0x00018550:    00020026    &...    DCD    131110
    $t
    .text
    __I$use$semihosting
    __use_no_semihosting_swi
        0x00018554:    4770        pG      BX       lr
    .text
    __semihosting_library_function
        0x00018556:    0000        ..      MOVS     r0,r0
    $t.0
    HardFault_Handler
        0x00018558:    f01e0f04    ....    TST      lr,#4
        0x0001855c:    bf0c        ..      ITE      EQ
        0x0001855e:    f3ef8008    ....    MRSEQ    r0,MSP
        0x00018562:    f3ef8009    ....    MRSNE    r0,PSP
        0x00018566:    4904        .I      LDR      r1,[pc,#16] ; [0x18578] = 0x10002dd0
        0x00018568:    f5017100    ...q    ADD      r1,r1,#0x200
        0x0001856c:    f0210103    !...    BIC      r1,r1,#3
        0x00018570:    468d        .F      MOV      sp,r1
        0x00018572:    f004bae3    ....    B.W      am_util_faultisr_collect_data ; 0x1cb3c
        0x00018576:    bf00        ..      NOP      
    $d.4
        0x00018578:    10002dd0    .-..    DCD    268447184
    $t.27
    TrimVersionGet
        0x0001857c:    b5b0        ..      PUSH     {r4,r5,r7,lr}
        0x0001857e:    f24025cc    @..%    MOVW     r5,#0x2cc
        0x00018582:    f2c10500    ....    MOVT     r5,#0x1000
        0x00018586:    6829        )h      LDR      r1,[r5,#0]
        0x00018588:    4604        .F      MOV      r4,r0
        0x0001858a:    1c4a        J.      ADDS     r2,r1,#1
        0x0001858c:    d10c        ..      BNE      0x185a8 ; TrimVersionGet + 44
        0x0001858e:    2001        .       MOVS     r0,#1
        0x00018590:    f24041c4    @..A    MOV      r1,#0x4c4
        0x00018594:    2201        ."      MOVS     r2,#1
        0x00018596:    462b        +F      MOV      r3,r5
        0x00018598:    f001ff40    ..@.    BL       am_hal_mram_info_read ; 0x1a41c
        0x0001859c:    b910        ..      CBNZ     r0,0x185a4 ; TrimVersionGet + 40
        0x0001859e:    6829        )h      LDR      r1,[r5,#0]
        0x000185a0:    1c48        H.      ADDS     r0,r1,#1
        0x000185a2:    d101        ..      BNE      0x185a8 ; TrimVersionGet + 44
        0x000185a4:    2100        .!      MOVS     r1,#0
        0x000185a6:    6029        )`      STR      r1,[r5,#0]
        0x000185a8:    2c00        .,      CMP      r4,#0
        0x000185aa:    bf0e        ..      ITEE     EQ
        0x000185ac:    2006        .       MOVEQ    r0,#6
        0x000185ae:    6021        !`      STRNE    r1,[r4,#0]
        0x000185b0:    2000        .       MOVNE    r0,#0
        0x000185b2:    bdb0        ..      POP      {r4,r5,r7,pc}
    VDDF_simobuck_boost
        0x000185b4:    e92d41f0    -..A    PUSH     {r4-r8,lr}
        0x000185b8:    b084        ..      SUB      sp,sp,#0x10
        0x000185ba:    460d        .F      MOV      r5,r1
        0x000185bc:    f24021d8    @..!    MOVW     r1,#0x2d8
        0x000185c0:    f2c10100    ....    MOVT     r1,#0x1000
        0x000185c4:    680f        .h      LDR      r7,[r1,#0]
        0x000185c6:    f240386c    @.l8    MOVW     r8,#0x36c
        0x000185ca:    4614        .F      MOV      r4,r2
        0x000185cc:    4606        .F      MOV      r6,r0
        0x000185ce:    1c78        x.      ADDS     r0,r7,#1
        0x000185d0:    f2c40802    ....    MOVT     r8,#0x4002
        0x000185d4:    d104        ..      BNE      0x185e0 ; VDDF_simobuck_boost + 44
        0x000185d6:    f8d80000    ....    LDR      r0,[r8,#0]
        0x000185da:    f3c05705    ...W    UBFX     r7,r0,#20,#6
        0x000185de:    600f        .`      STR      r7,[r1,#0]
        0x000185e0:    a803        ..      ADD      r0,sp,#0xc
        0x000185e2:    f7ffffcb    ....    BL       TrimVersionGet ; 0x1857c
        0x000185e6:    b36e        n.      CBZ      r6,0x18644 ; VDDF_simobuck_boost + 144
        0x000185e8:    f64f40a0    O..@    MOV      r0,#0xfca0
        0x000185ec:    f6cf70ff    ...p    MOVT     r0,#0xffff
        0x000185f0:    f8580000    X...    LDR      r0,[r8,r0]
        0x000185f4:    f00000fe    ....    AND      r0,r0,#0xfe
        0x000185f8:    2822        "(      CMP      r0,#0x22
        0x000185fa:    d342        B.      BCC      0x18682 ; VDDF_simobuck_boost + 206
        0x000185fc:    9803        ..      LDR      r0,[sp,#0xc]
        0x000185fe:    2805        .(      CMP      r0,#5
        0x00018600:    bf88        ..      IT       HI
        0x00018602:    1cec        ..      ADDHI    r4,r5,#3
        0x00018604:    f1c4003f    ..?.    RSB      r0,r4,#0x3f
        0x00018608:    4287        .B      CMP      r7,r0
        0x0001860a:    f8d80000    ....    LDR      r0,[r8,#0]
        0x0001860e:    443c        <D      ADD      r4,r4,r7
        0x00018610:    f3c05005    ...P    UBFX     r0,r0,#20,#6
        0x00018614:    bf88        ..      IT       HI
        0x00018616:    243f        ?$      MOVHI    r4,#0x3f
        0x00018618:    42a0        .B      CMP      r0,r4
        0x0001861a:    d032        2.      BEQ      0x18682 ; VDDF_simobuck_boost + 206
        0x0001861c:    f001feaa    ....    BL       am_hal_interrupt_master_disable ; 0x1a374
        0x00018620:    9001        ..      STR      r0,[sp,#4]
        0x00018622:    f8d8000c    ....    LDR      r0,[r8,#0xc]
        0x00018626:    f0404000    @..@    ORR      r0,r0,#0x80000000
        0x0001862a:    f8c8000c    ....    STR      r0,[r8,#0xc]
        0x0001862e:    f8d80000    ....    LDR      r0,[r8,#0]
        0x00018632:    f3645019    d..P    BFI      r0,r4,#20,#6
        0x00018636:    f8c80000    ....    STR      r0,[r8,#0]
        0x0001863a:    2014        .       MOVS     r0,#0x14
        0x0001863c:    f001fdce    ....    BL       am_hal_delay_us ; 0x1a1dc
        0x00018640:    9801        ..      LDR      r0,[sp,#4]
        0x00018642:    e01c        ..      B        0x1867e ; VDDF_simobuck_boost + 202
        0x00018644:    9803        ..      LDR      r0,[sp,#0xc]
        0x00018646:    2805        .(      CMP      r0,#5
        0x00018648:    f8d80000    ....    LDR      r0,[r8,#0]
        0x0001864c:    bf88        ..      IT       HI
        0x0001864e:    3703        .7      ADDHI    r7,#3
        0x00018650:    f3c05005    ...P    UBFX     r0,r0,#20,#6
        0x00018654:    42b8        .B      CMP      r0,r7
        0x00018656:    d014        ..      BEQ      0x18682 ; VDDF_simobuck_boost + 206
        0x00018658:    f001fe8c    ....    BL       am_hal_interrupt_master_disable ; 0x1a374
        0x0001865c:    9002        ..      STR      r0,[sp,#8]
        0x0001865e:    f8d8000c    ....    LDR      r0,[r8,#0xc]
        0x00018662:    f0404000    @..@    ORR      r0,r0,#0x80000000
        0x00018666:    f8c8000c    ....    STR      r0,[r8,#0xc]
        0x0001866a:    f8d80000    ....    LDR      r0,[r8,#0]
        0x0001866e:    f3675019    g..P    BFI      r0,r7,#20,#6
        0x00018672:    f8c80000    ....    STR      r0,[r8,#0]
        0x00018676:    2014        .       MOVS     r0,#0x14
        0x00018678:    f001fdb0    ....    BL       am_hal_delay_us ; 0x1a1dc
        0x0001867c:    9802        ..      LDR      r0,[sp,#8]
        0x0001867e:    f001fe81    ....    BL       am_hal_interrupt_master_set ; 0x1a384
        0x00018682:    b004        ..      ADD      sp,sp,#0x10
        0x00018684:    e8bd81f0    ....    POP      {r4-r8,pc}
    __NVIC_EnableIRQ
        0x00018688:    b081        ..      SUB      sp,sp,#4
        0x0001868a:    f88d0003    ....    STRB     r0,[sp,#3]
        0x0001868e:    f99d0003    ....    LDRSB    r0,[sp,#3]
        0x00018692:    2800        .(      CMP      r0,#0
        0x00018694:    d40e        ..      BMI      0x186b4 ; __NVIC_EnableIRQ + 44
        0x00018696:    e7ff        ..      B        0x18698 ; __NVIC_EnableIRQ + 16
        0x00018698:    f99d1003    ....    LDRSB    r1,[sp,#3]
        0x0001869c:    f001021f    ....    AND      r2,r1,#0x1f
        0x000186a0:    2001        .       MOVS     r0,#1
        0x000186a2:    4090        .@      LSLS     r0,r0,r2
        0x000186a4:    094a        J.      LSRS     r2,r1,#5
        0x000186a6:    f24e1100    N...    MOVW     r1,#0xe100
        0x000186aa:    f2ce0100    ....    MOVT     r1,#0xe000
        0x000186ae:    f8410022    A.".    STR      r0,[r1,r2,LSL #2]
        0x000186b2:    e7ff        ..      B        0x186b4 ; __NVIC_EnableIRQ + 44
        0x000186b4:    b001        ..      ADD      sp,sp,#4
        0x000186b6:    4770        pG      BX       lr
    __NVIC_SetPriority
        0x000186b8:    b082        ..      SUB      sp,sp,#8
        0x000186ba:    f88d0007    ....    STRB     r0,[sp,#7]
        0x000186be:    9100        ..      STR      r1,[sp,#0]
        0x000186c0:    f99d0007    ....    LDRSB    r0,[sp,#7]
        0x000186c4:    2800        .(      CMP      r0,#0
        0x000186c6:    d40a        ..      BMI      0x186de ; __NVIC_SetPriority + 38
        0x000186c8:    e7ff        ..      B        0x186ca ; __NVIC_SetPriority + 18
        0x000186ca:    9800        ..      LDR      r0,[sp,#0]
        0x000186cc:    0140        @.      LSLS     r0,r0,#5
        0x000186ce:    f99d1007    ....    LDRSB    r1,[sp,#7]
        0x000186d2:    f24e4200    N..B    MOVW     r2,#0xe400
        0x000186d6:    f2ce0200    ....    MOVT     r2,#0xe000
        0x000186da:    5488        .T      STRB     r0,[r1,r2]
        0x000186dc:    e00b        ..      B        0x186f6 ; __NVIC_SetPriority + 62
        0x000186de:    9800        ..      LDR      r0,[sp,#0]
        0x000186e0:    0140        @.      LSLS     r0,r0,#5
        0x000186e2:    f89d1007    ....    LDRB     r1,[sp,#7]
        0x000186e6:    f001010f    ....    AND      r1,r1,#0xf
        0x000186ea:    f64e5214    N..R    MOV      r2,#0xed14
        0x000186ee:    f2ce0200    ....    MOVT     r2,#0xe000
        0x000186f2:    5488        .T      STRB     r0,[r1,r2]
        0x000186f4:    e7ff        ..      B        0x186f6 ; __NVIC_SetPriority + 62
        0x000186f6:    b002        ..      ADD      sp,sp,#8
        0x000186f8:    4770        pG      BX       lr
    am_bsp_itm_printf_enable
        0x000186fa:    b580        ..      PUSH     {r7,lr}
        0x000186fc:    b082        ..      SUB      sp,sp,#8
        0x000186fe:    f2410008    A...    MOV      r0,#0x1008
        0x00018702:    f2c40002    ....    MOVT     r0,#0x4002
        0x00018706:    6800        .h      LDR      r0,[r0,#0]
        0x00018708:    02c0        ..      LSLS     r0,r0,#11
        0x0001870a:    d512        ..      BPL      0x18732 ; am_bsp_itm_printf_enable + 56
        0x0001870c:    f640207c    @.|     MOV      r0,#0xa7c
        0x00018710:    f2c4000c    ....    MOVT     r0,#0x400c
        0x00018714:    6800        .h      LDR      r0,[r0,#0]
        0x00018716:    07c0        ..      LSLS     r0,r0,#31
        0x00018718:    d00b        ..      BEQ      0x18732 ; am_bsp_itm_printf_enable + 56
        0x0001871a:    a801        ..      ADD      r0,sp,#4
        0x0001871c:    f001fc9a    ....    BL       am_hal_dcu_get ; 0x1a054
        0x00018720:    f89d0004    ....    LDRB     r0,[sp,#4]
        0x00018724:    06c0        ..      LSLS     r0,r0,#27
        0x00018726:    d408        ..      BMI      0x1873a ; am_bsp_itm_printf_enable + 64
        0x00018728:    2001        .       MOVS     r0,#1
        0x0001872a:    2110        .!      MOVS     r1,#0x10
        0x0001872c:    f001fce0    ....    BL       am_hal_dcu_update ; 0x1a0f0
        0x00018730:    b118        ..      CBZ      r0,0x1873a ; am_bsp_itm_printf_enable + 64
        0x00018732:    f04f30ff    O..0    MOV      r0,#0xffffffff
        0x00018736:    b002        ..      ADD      sp,sp,#8
        0x00018738:    bd80        ..      POP      {r7,pc}
        0x0001873a:    f644301e    D..0    MOV      r0,#0x4b1e
        0x0001873e:    f2c10000    ....    MOVT     r0,#0x1000
        0x00018742:    2101        .!      MOVS     r1,#1
        0x00018744:    7001        .p      STRB     r1,[r0,#0]
        0x00018746:    f001fe21    ..!.    BL       am_hal_itm_enable ; 0x1a38c
        0x0001874a:    f2442040    D.@     MOV      r0,#0x4240
        0x0001874e:    f2c0000f    ....    MOVT     r0,#0xf
        0x00018752:    f004f8d6    ....    BL       am_hal_tpiu_enable ; 0x1c902
        0x00018756:    f64270d8    B..p    MOV      r0,#0x2fd8
        0x0001875a:    f2c10000    ....    MOVT     r0,#0x1000
        0x0001875e:    6801        .h      LDR      r1,[r0,#0]
        0x00018760:    201c        .       MOVS     r0,#0x1c
        0x00018762:    f001fdd9    ....    BL       am_hal_gpio_pinconfig ; 0x1a318
        0x00018766:    f24a30d1    J..0    MOV      r0,#0xa3d1
        0x0001876a:    f2c00001    ....    MOVT     r0,#1
        0x0001876e:    f004fba7    ....    BL       am_util_stdio_printf_init ; 0x1cec0
        0x00018772:    2000        .       MOVS     r0,#0
        0x00018774:    e7df        ..      B        0x18736 ; am_bsp_itm_printf_enable + 60
    am_bsp_low_power_init
        0x00018776:    b580        ..      PUSH     {r7,lr}
        0x00018778:    f003fd14    ....    BL       am_hal_pwrctrl_low_power_init ; 0x1c1a4
        0x0001877c:    2000        .       MOVS     r0,#0
        0x0001877e:    2100        .!      MOVS     r1,#0
        0x00018780:    f003fb4a    ..J.    BL       am_hal_pwrctrl_control ; 0x1be18
        0x00018784:    e8bd4080    ...@    POP      {r7,lr}
        0x00018788:    f003bf46    ..F.    B.W      am_hal_rtc_osc_disable ; 0x1c618
    am_bsp_mspi_pins_enable
        0x0001878c:    b580        ..      PUSH     {r7,lr}
        0x0001878e:    2802        .(      CMP      r0,#2
        0x00018790:    d03b        ;.      BEQ      0x1880a ; am_bsp_mspi_pins_enable + 126
        0x00018792:    2801        .(      CMP      r0,#1
        0x00018794:    d056        V.      BEQ      0x18844 ; am_bsp_mspi_pins_enable + 184
        0x00018796:    2800        .(      CMP      r0,#0
        0x00018798:    f040808a    @...    BNE.W    0x188b0 ; am_bsp_mspi_pins_enable + 292
        0x0001879c:    ea4f0071    O.q.    ROR      r0,r1,#1
        0x000187a0:    2808        .(      CMP      r0,#8
        0x000187a2:    f2008085    ....    BHI.W    0x188b0 ; am_bsp_mspi_pins_enable + 292
        0x000187a6:    e8dff010    ....    TBH      [pc,r0,LSL #1]
    $d.32
        0x000187aa:    00ab        ..      DCW    171
        0x000187ac:    00090083    ....    DCD    589955
        0x000187b0:    011100c2    ....    DCD    17891522
        0x000187b4:    00830083    ....    DCD    8585347
        0x000187b8:    00090009    ....    DCD    589833
    $t.33
        0x000187bc:    f2401028    @.(.    MOVW     r0,#0x128
        0x000187c0:    f2c10000    ....    MOVT     r0,#0x1000
        0x000187c4:    6801        .h      LDR      r1,[r0,#0]
        0x000187c6:    2039        9       MOVS     r0,#0x39
        0x000187c8:    f001fda6    ....    BL       am_hal_gpio_pinconfig ; 0x1a318
        0x000187cc:    f240102c    @.,.    MOVW     r0,#0x12c
        0x000187d0:    f2c10000    ....    MOVT     r0,#0x1000
        0x000187d4:    6801        .h      LDR      r1,[r0,#0]
        0x000187d6:    2040        @       MOVS     r0,#0x40
        0x000187d8:    f001fd9e    ....    BL       am_hal_gpio_pinconfig ; 0x1a318
        0x000187dc:    f2401030    @.0.    MOVW     r0,#0x130
        0x000187e0:    f2c10000    ....    MOVT     r0,#0x1000
        0x000187e4:    6801        .h      LDR      r1,[r0,#0]
        0x000187e6:    2041        A       MOVS     r0,#0x41
        0x000187e8:    f001fd96    ....    BL       am_hal_gpio_pinconfig ; 0x1a318
        0x000187ec:    f2401034    @.4.    MOVW     r0,#0x134
        0x000187f0:    f2c10000    ....    MOVT     r0,#0x1000
        0x000187f4:    6801        .h      LDR      r1,[r0,#0]
        0x000187f6:    2042        B       MOVS     r0,#0x42
        0x000187f8:    f001fd8e    ....    BL       am_hal_gpio_pinconfig ; 0x1a318
        0x000187fc:    f2401038    @.8.    MOVW     r0,#0x138
        0x00018800:    f2c10000    ....    MOVT     r0,#0x1000
        0x00018804:    6801        .h      LDR      r1,[r0,#0]
        0x00018806:    2043        C       MOVS     r0,#0x43
        0x00018808:    e0d7        ..      B        0x189ba ; am_bsp_mspi_pins_enable + 558
        0x0001880a:    2911        .)      CMP      r1,#0x11
        0x0001880c:    d850        P.      BHI      0x188b0 ; am_bsp_mspi_pins_enable + 292
        0x0001880e:    e8dff011    ....    TBH      [pc,r1,LSL #1]
    $d.34
        0x00018812:    01f1        ..      DCW    497
        0x00018814:    004f01f8    ..O.    DCD    5177848
        0x00018818:    0012004f    O...    DCD    1179727
        0x0001881c:    020f0050    P...    DCD    34537552
        0x00018820:    02680216    ..h.    DCD    40370710
        0x00018824:    004f026f    o.O.    DCD    5177967
        0x00018828:    004f004f    O.O.    DCD    5177423
        0x0001882c:    0012004f    O...    DCD    1179727
        0x00018830:    00120050    P...    DCD    1179728
        0x00018834:    0050        P.      DCW    80
    $t.35
        0x00018836:    f24000cc    @...    MOVW     r0,#0xcc
        0x0001883a:    f2c10000    ....    MOVT     r0,#0x1000
        0x0001883e:    6801        .h      LDR      r1,[r0,#0]
        0x00018840:    2000        .       MOVS     r0,#0
        0x00018842:    e03c        <.      B        0x188be ; am_bsp_mspi_pins_enable + 306
        0x00018844:    ea4f0071    O.q.    ROR      r0,r1,#1
        0x00018848:    2808        .(      CMP      r0,#8
        0x0001884a:    d831        1.      BHI      0x188b0 ; am_bsp_mspi_pins_enable + 292
        0x0001884c:    e8dff010    ....    TBH      [pc,r0,LSL #1]
    $d.36
        0x00018850:    00300115    ..0.    DCD    3146005
        0x00018854:    012c0009    ..,.    DCD    19660809
        0x00018858:    0030017b    {.0.    DCD    3146107
        0x0001885c:    00090030    0...    DCD    589872
        0x00018860:    0009        ..      DCW    9
    $t.37
        0x00018862:    f24000fc    @...    MOVW     r0,#0xfc
        0x00018866:    f2c10000    ....    MOVT     r0,#0x1000
        0x0001886a:    6801        .h      LDR      r1,[r0,#0]
        0x0001886c:    2059        Y       MOVS     r0,#0x59
        0x0001886e:    f001fd53    ..S.    BL       am_hal_gpio_pinconfig ; 0x1a318
        0x00018872:    f2401000    @...    MOVW     r0,#0x100
        0x00018876:    f2c10000    ....    MOVT     r0,#0x1000
        0x0001887a:    6801        .h      LDR      r1,[r0,#0]
        0x0001887c:    2025        %       MOVS     r0,#0x25
        0x0001887e:    f001fd4b    ..K.    BL       am_hal_gpio_pinconfig ; 0x1a318
        0x00018882:    f2401004    @...    MOVW     r0,#0x104
        0x00018886:    f2c10000    ....    MOVT     r0,#0x1000
        0x0001888a:    6801        .h      LDR      r1,[r0,#0]
        0x0001888c:    2026        &       MOVS     r0,#0x26
        0x0001888e:    f001fd43    ..C.    BL       am_hal_gpio_pinconfig ; 0x1a318
        0x00018892:    f2401008    @...    MOVW     r0,#0x108
        0x00018896:    f2c10000    ....    MOVT     r0,#0x1000
        0x0001889a:    6801        .h      LDR      r1,[r0,#0]
        0x0001889c:    2027        '       MOVS     r0,#0x27
        0x0001889e:    f001fd3b    ..;.    BL       am_hal_gpio_pinconfig ; 0x1a318
        0x000188a2:    f240100c    @...    MOVW     r0,#0x10c
        0x000188a6:    f2c10000    ....    MOVT     r0,#0x1000
        0x000188aa:    6801        .h      LDR      r1,[r0,#0]
        0x000188ac:    2028        (       MOVS     r0,#0x28
        0x000188ae:    e141        A.      B        0x18b34 ; am_bsp_mspi_pins_enable + 936
        0x000188b0:    bd80        ..      POP      {r7,pc}
        0x000188b2:    f24000d0    @...    MOVW     r0,#0xd0
        0x000188b6:    f2c10000    ....    MOVT     r0,#0x1000
        0x000188ba:    6801        .h      LDR      r1,[r0,#0]
        0x000188bc:    2056        V       MOVS     r0,#0x56
        0x000188be:    f001fd2b    ..+.    BL       am_hal_gpio_pinconfig ; 0x1a318
        0x000188c2:    f24000d4    @...    MOVW     r0,#0xd4
        0x000188c6:    f2c10000    ....    MOVT     r0,#0x1000
        0x000188ca:    6801        .h      LDR      r1,[r0,#0]
        0x000188cc:    204a        J       MOVS     r0,#0x4a
        0x000188ce:    f001fd23    ..#.    BL       am_hal_gpio_pinconfig ; 0x1a318
        0x000188d2:    f24000d8    @...    MOVW     r0,#0xd8
        0x000188d6:    f2c10000    ....    MOVT     r0,#0x1000
        0x000188da:    6801        .h      LDR      r1,[r0,#0]
        0x000188dc:    204b        K       MOVS     r0,#0x4b
        0x000188de:    f001fd1b    ....    BL       am_hal_gpio_pinconfig ; 0x1a318
        0x000188e2:    f24000dc    @...    MOVW     r0,#0xdc
        0x000188e6:    f2c10000    ....    MOVT     r0,#0x1000
        0x000188ea:    6801        .h      LDR      r1,[r0,#0]
        0x000188ec:    204c        L       MOVS     r0,#0x4c
        0x000188ee:    f001fd13    ....    BL       am_hal_gpio_pinconfig ; 0x1a318
        0x000188f2:    f24000e0    @...    MOVW     r0,#0xe0
        0x000188f6:    f2c10000    ....    MOVT     r0,#0x1000
        0x000188fa:    6801        .h      LDR      r1,[r0,#0]
        0x000188fc:    204d        M       MOVS     r0,#0x4d
        0x000188fe:    e1e4        ..      B        0x18cca ; am_bsp_mspi_pins_enable + 1342
        0x00018900:    f2401028    @.(.    MOVW     r0,#0x128
        0x00018904:    f2c10000    ....    MOVT     r0,#0x1000
        0x00018908:    6801        .h      LDR      r1,[r0,#0]
        0x0001890a:    2039        9       MOVS     r0,#0x39
        0x0001890c:    f001fd04    ....    BL       am_hal_gpio_pinconfig ; 0x1a318
        0x00018910:    f240102c    @.,.    MOVW     r0,#0x12c
        0x00018914:    f2c10000    ....    MOVT     r0,#0x1000
        0x00018918:    6801        .h      LDR      r1,[r0,#0]
        0x0001891a:    2040        @       MOVS     r0,#0x40
        0x0001891c:    f001fcfc    ....    BL       am_hal_gpio_pinconfig ; 0x1a318
        0x00018920:    f2401030    @.0.    MOVW     r0,#0x130
        0x00018924:    f2c10000    ....    MOVT     r0,#0x1000
        0x00018928:    6801        .h      LDR      r1,[r0,#0]
        0x0001892a:    2041        A       MOVS     r0,#0x41
        0x0001892c:    e045        E.      B        0x189ba ; am_bsp_mspi_pins_enable + 558
        0x0001892e:    f2401028    @.(.    MOVW     r0,#0x128
        0x00018932:    f2c10000    ....    MOVT     r0,#0x1000
        0x00018936:    6801        .h      LDR      r1,[r0,#0]
        0x00018938:    2039        9       MOVS     r0,#0x39
        0x0001893a:    f001fced    ....    BL       am_hal_gpio_pinconfig ; 0x1a318
        0x0001893e:    f240102c    @.,.    MOVW     r0,#0x12c
        0x00018942:    f2c10000    ....    MOVT     r0,#0x1000
        0x00018946:    6801        .h      LDR      r1,[r0,#0]
        0x00018948:    2040        @       MOVS     r0,#0x40
        0x0001894a:    f001fce5    ....    BL       am_hal_gpio_pinconfig ; 0x1a318
        0x0001894e:    f2401030    @.0.    MOVW     r0,#0x130
        0x00018952:    f2c10000    ....    MOVT     r0,#0x1000
        0x00018956:    6801        .h      LDR      r1,[r0,#0]
        0x00018958:    2041        A       MOVS     r0,#0x41
        0x0001895a:    f001fcdd    ....    BL       am_hal_gpio_pinconfig ; 0x1a318
        0x0001895e:    f2401034    @.4.    MOVW     r0,#0x134
        0x00018962:    f2c10000    ....    MOVT     r0,#0x1000
        0x00018966:    6801        .h      LDR      r1,[r0,#0]
        0x00018968:    2042        B       MOVS     r0,#0x42
        0x0001896a:    f001fcd5    ....    BL       am_hal_gpio_pinconfig ; 0x1a318
        0x0001896e:    f2401038    @.8.    MOVW     r0,#0x138
        0x00018972:    f2c10000    ....    MOVT     r0,#0x1000
        0x00018976:    6801        .h      LDR      r1,[r0,#0]
        0x00018978:    2043        C       MOVS     r0,#0x43
        0x0001897a:    f001fccd    ....    BL       am_hal_gpio_pinconfig ; 0x1a318
        0x0001897e:    f240103c    @.<.    MOVW     r0,#0x13c
        0x00018982:    f2c10000    ....    MOVT     r0,#0x1000
        0x00018986:    6801        .h      LDR      r1,[r0,#0]
        0x00018988:    2044        D       MOVS     r0,#0x44
        0x0001898a:    f001fcc5    ....    BL       am_hal_gpio_pinconfig ; 0x1a318
        0x0001898e:    f2401040    @.@.    MOVW     r0,#0x140
        0x00018992:    f2c10000    ....    MOVT     r0,#0x1000
        0x00018996:    6801        .h      LDR      r1,[r0,#0]
        0x00018998:    2045        E       MOVS     r0,#0x45
        0x0001899a:    f001fcbd    ....    BL       am_hal_gpio_pinconfig ; 0x1a318
        0x0001899e:    f2401044    @.D.    MOVW     r0,#0x144
        0x000189a2:    f2c10000    ....    MOVT     r0,#0x1000
        0x000189a6:    6801        .h      LDR      r1,[r0,#0]
        0x000189a8:    2046        F       MOVS     r0,#0x46
        0x000189aa:    f001fcb5    ....    BL       am_hal_gpio_pinconfig ; 0x1a318
        0x000189ae:    f2401048    @.H.    MOVW     r0,#0x148
        0x000189b2:    f2c10000    ....    MOVT     r0,#0x1000
        0x000189b6:    6801        .h      LDR      r1,[r0,#0]
        0x000189b8:    2047        G       MOVS     r0,#0x47
        0x000189ba:    f001fcad    ....    BL       am_hal_gpio_pinconfig ; 0x1a318
        0x000189be:    f2401050    @.P.    MOVW     r0,#0x150
        0x000189c2:    f2c10000    ....    MOVT     r0,#0x1000
        0x000189c6:    6801        .h      LDR      r1,[r0,#0]
        0x000189c8:    2048        H       MOVS     r0,#0x48
        0x000189ca:    e186        ..      B        0x18cda ; am_bsp_mspi_pins_enable + 1358
        0x000189cc:    f2401028    @.(.    MOVW     r0,#0x128
        0x000189d0:    f2c10000    ....    MOVT     r0,#0x1000
        0x000189d4:    6801        .h      LDR      r1,[r0,#0]
        0x000189d6:    2039        9       MOVS     r0,#0x39
        0x000189d8:    f001fc9e    ....    BL       am_hal_gpio_pinconfig ; 0x1a318
        0x000189dc:    f240102c    @.,.    MOVW     r0,#0x12c
        0x000189e0:    f2c10000    ....    MOVT     r0,#0x1000
        0x000189e4:    6801        .h      LDR      r1,[r0,#0]
        0x000189e6:    2040        @       MOVS     r0,#0x40
        0x000189e8:    f001fc96    ....    BL       am_hal_gpio_pinconfig ; 0x1a318
        0x000189ec:    f2401030    @.0.    MOVW     r0,#0x130
        0x000189f0:    f2c10000    ....    MOVT     r0,#0x1000
        0x000189f4:    6801        .h      LDR      r1,[r0,#0]
        0x000189f6:    2041        A       MOVS     r0,#0x41
        0x000189f8:    f001fc8e    ....    BL       am_hal_gpio_pinconfig ; 0x1a318
        0x000189fc:    f2401034    @.4.    MOVW     r0,#0x134
        0x00018a00:    f2c10000    ....    MOVT     r0,#0x1000
        0x00018a04:    6801        .h      LDR      r1,[r0,#0]
        0x00018a06:    2042        B       MOVS     r0,#0x42
        0x00018a08:    f001fc86    ....    BL       am_hal_gpio_pinconfig ; 0x1a318
        0x00018a0c:    f2401038    @.8.    MOVW     r0,#0x138
        0x00018a10:    f2c10000    ....    MOVT     r0,#0x1000
        0x00018a14:    6801        .h      LDR      r1,[r0,#0]
        0x00018a16:    2043        C       MOVS     r0,#0x43
        0x00018a18:    f001fc7e    ..~.    BL       am_hal_gpio_pinconfig ; 0x1a318
        0x00018a1c:    f240103c    @.<.    MOVW     r0,#0x13c
        0x00018a20:    f2c10000    ....    MOVT     r0,#0x1000
        0x00018a24:    6801        .h      LDR      r1,[r0,#0]
        0x00018a26:    2044        D       MOVS     r0,#0x44
        0x00018a28:    f001fc76    ..v.    BL       am_hal_gpio_pinconfig ; 0x1a318
        0x00018a2c:    f2401040    @.@.    MOVW     r0,#0x140
        0x00018a30:    f2c10000    ....    MOVT     r0,#0x1000
        0x00018a34:    6801        .h      LDR      r1,[r0,#0]
        0x00018a36:    2045        E       MOVS     r0,#0x45
        0x00018a38:    f001fc6e    ..n.    BL       am_hal_gpio_pinconfig ; 0x1a318
        0x00018a3c:    f2401044    @.D.    MOVW     r0,#0x144
        0x00018a40:    f2c10000    ....    MOVT     r0,#0x1000
        0x00018a44:    6801        .h      LDR      r1,[r0,#0]
        0x00018a46:    2046        F       MOVS     r0,#0x46
        0x00018a48:    f001fc66    ..f.    BL       am_hal_gpio_pinconfig ; 0x1a318
        0x00018a4c:    f2401048    @.H.    MOVW     r0,#0x148
        0x00018a50:    f2c10000    ....    MOVT     r0,#0x1000
        0x00018a54:    6801        .h      LDR      r1,[r0,#0]
        0x00018a56:    2047        G       MOVS     r0,#0x47
        0x00018a58:    f001fc5e    ..^.    BL       am_hal_gpio_pinconfig ; 0x1a318
        0x00018a5c:    f2401050    @.P.    MOVW     r0,#0x150
        0x00018a60:    f2c10000    ....    MOVT     r0,#0x1000
        0x00018a64:    6801        .h      LDR      r1,[r0,#0]
        0x00018a66:    2048        H       MOVS     r0,#0x48
        0x00018a68:    f001fc56    ..V.    BL       am_hal_gpio_pinconfig ; 0x1a318
        0x00018a6c:    f240104c    @.L.    MOVW     r0,#0x14c
        0x00018a70:    f2c10000    ....    MOVT     r0,#0x1000
        0x00018a74:    6801        .h      LDR      r1,[r0,#0]
        0x00018a76:    2049        I       MOVS     r0,#0x49
        0x00018a78:    e12f        /.      B        0x18cda ; am_bsp_mspi_pins_enable + 1358
        0x00018a7a:    f24000fc    @...    MOVW     r0,#0xfc
        0x00018a7e:    f2c10000    ....    MOVT     r0,#0x1000
        0x00018a82:    6801        .h      LDR      r1,[r0,#0]
        0x00018a84:    2059        Y       MOVS     r0,#0x59
        0x00018a86:    f001fc47    ..G.    BL       am_hal_gpio_pinconfig ; 0x1a318
        0x00018a8a:    f2401000    @...    MOVW     r0,#0x100
        0x00018a8e:    f2c10000    ....    MOVT     r0,#0x1000
        0x00018a92:    6801        .h      LDR      r1,[r0,#0]
        0x00018a94:    2025        %       MOVS     r0,#0x25
        0x00018a96:    f001fc3f    ..?.    BL       am_hal_gpio_pinconfig ; 0x1a318
        0x00018a9a:    f2401004    @...    MOVW     r0,#0x104
        0x00018a9e:    f2c10000    ....    MOVT     r0,#0x1000
        0x00018aa2:    6801        .h      LDR      r1,[r0,#0]
        0x00018aa4:    2026        &       MOVS     r0,#0x26
        0x00018aa6:    e045        E.      B        0x18b34 ; am_bsp_mspi_pins_enable + 936
        0x00018aa8:    f24000fc    @...    MOVW     r0,#0xfc
        0x00018aac:    f2c10000    ....    MOVT     r0,#0x1000
        0x00018ab0:    6801        .h      LDR      r1,[r0,#0]
        0x00018ab2:    2059        Y       MOVS     r0,#0x59
        0x00018ab4:    f001fc30    ..0.    BL       am_hal_gpio_pinconfig ; 0x1a318
        0x00018ab8:    f2401000    @...    MOVW     r0,#0x100
        0x00018abc:    f2c10000    ....    MOVT     r0,#0x1000
        0x00018ac0:    6801        .h      LDR      r1,[r0,#0]
        0x00018ac2:    2025        %       MOVS     r0,#0x25
        0x00018ac4:    f001fc28    ..(.    BL       am_hal_gpio_pinconfig ; 0x1a318
        0x00018ac8:    f2401004    @...    MOVW     r0,#0x104
        0x00018acc:    f2c10000    ....    MOVT     r0,#0x1000
        0x00018ad0:    6801        .h      LDR      r1,[r0,#0]
        0x00018ad2:    2026        &       MOVS     r0,#0x26
        0x00018ad4:    f001fc20    .. .    BL       am_hal_gpio_pinconfig ; 0x1a318
        0x00018ad8:    f2401008    @...    MOVW     r0,#0x108
        0x00018adc:    f2c10000    ....    MOVT     r0,#0x1000
        0x00018ae0:    6801        .h      LDR      r1,[r0,#0]
        0x00018ae2:    2027        '       MOVS     r0,#0x27
        0x00018ae4:    f001fc18    ....    BL       am_hal_gpio_pinconfig ; 0x1a318
        0x00018ae8:    f240100c    @...    MOVW     r0,#0x10c
        0x00018aec:    f2c10000    ....    MOVT     r0,#0x1000
        0x00018af0:    6801        .h      LDR      r1,[r0,#0]
        0x00018af2:    2028        (       MOVS     r0,#0x28
        0x00018af4:    f001fc10    ....    BL       am_hal_gpio_pinconfig ; 0x1a318
        0x00018af8:    f2401010    @...    MOVW     r0,#0x110
        0x00018afc:    f2c10000    ....    MOVT     r0,#0x1000
        0x00018b00:    6801        .h      LDR      r1,[r0,#0]
        0x00018b02:    2029        )       MOVS     r0,#0x29
        0x00018b04:    f001fc08    ....    BL       am_hal_gpio_pinconfig ; 0x1a318
        0x00018b08:    f2401014    @...    MOVW     r0,#0x114
        0x00018b0c:    f2c10000    ....    MOVT     r0,#0x1000
        0x00018b10:    6801        .h      LDR      r1,[r0,#0]
        0x00018b12:    202a        *       MOVS     r0,#0x2a
        0x00018b14:    f001fc00    ....    BL       am_hal_gpio_pinconfig ; 0x1a318
        0x00018b18:    f2401018    @...    MOVW     r0,#0x118
        0x00018b1c:    f2c10000    ....    MOVT     r0,#0x1000
        0x00018b20:    6801        .h      LDR      r1,[r0,#0]
        0x00018b22:    202b        +       MOVS     r0,#0x2b
        0x00018b24:    f001fbf8    ....    BL       am_hal_gpio_pinconfig ; 0x1a318
        0x00018b28:    f240101c    @...    MOVW     r0,#0x11c
        0x00018b2c:    f2c10000    ....    MOVT     r0,#0x1000
        0x00018b30:    6801        .h      LDR      r1,[r0,#0]
        0x00018b32:    202c        ,       MOVS     r0,#0x2c
        0x00018b34:    f001fbf0    ....    BL       am_hal_gpio_pinconfig ; 0x1a318
        0x00018b38:    f2401024    @.$.    MOVW     r0,#0x124
        0x00018b3c:    f2c10000    ....    MOVT     r0,#0x1000
        0x00018b40:    6801        .h      LDR      r1,[r0,#0]
        0x00018b42:    202d        -       MOVS     r0,#0x2d
        0x00018b44:    e0c9        ..      B        0x18cda ; am_bsp_mspi_pins_enable + 1358
        0x00018b46:    f24000fc    @...    MOVW     r0,#0xfc
        0x00018b4a:    f2c10000    ....    MOVT     r0,#0x1000
        0x00018b4e:    6801        .h      LDR      r1,[r0,#0]
        0x00018b50:    2059        Y       MOVS     r0,#0x59
        0x00018b52:    f001fbe1    ....    BL       am_hal_gpio_pinconfig ; 0x1a318
        0x00018b56:    f2401000    @...    MOVW     r0,#0x100
        0x00018b5a:    f2c10000    ....    MOVT     r0,#0x1000
        0x00018b5e:    6801        .h      LDR      r1,[r0,#0]
        0x00018b60:    2025        %       MOVS     r0,#0x25
        0x00018b62:    f001fbd9    ....    BL       am_hal_gpio_pinconfig ; 0x1a318
        0x00018b66:    f2401004    @...    MOVW     r0,#0x104
        0x00018b6a:    f2c10000    ....    MOVT     r0,#0x1000
        0x00018b6e:    6801        .h      LDR      r1,[r0,#0]
        0x00018b70:    2026        &       MOVS     r0,#0x26
        0x00018b72:    f001fbd1    ....    BL       am_hal_gpio_pinconfig ; 0x1a318
        0x00018b76:    f2401008    @...    MOVW     r0,#0x108
        0x00018b7a:    f2c10000    ....    MOVT     r0,#0x1000
        0x00018b7e:    6801        .h      LDR      r1,[r0,#0]
        0x00018b80:    2027        '       MOVS     r0,#0x27
        0x00018b82:    f001fbc9    ....    BL       am_hal_gpio_pinconfig ; 0x1a318
        0x00018b86:    f240100c    @...    MOVW     r0,#0x10c
        0x00018b8a:    f2c10000    ....    MOVT     r0,#0x1000
        0x00018b8e:    6801        .h      LDR      r1,[r0,#0]
        0x00018b90:    2028        (       MOVS     r0,#0x28
        0x00018b92:    f001fbc1    ....    BL       am_hal_gpio_pinconfig ; 0x1a318
        0x00018b96:    f2401010    @...    MOVW     r0,#0x110
        0x00018b9a:    f2c10000    ....    MOVT     r0,#0x1000
        0x00018b9e:    6801        .h      LDR      r1,[r0,#0]
        0x00018ba0:    2029        )       MOVS     r0,#0x29
        0x00018ba2:    f001fbb9    ....    BL       am_hal_gpio_pinconfig ; 0x1a318
        0x00018ba6:    f2401014    @...    MOVW     r0,#0x114
        0x00018baa:    f2c10000    ....    MOVT     r0,#0x1000
        0x00018bae:    6801        .h      LDR      r1,[r0,#0]
        0x00018bb0:    202a        *       MOVS     r0,#0x2a
        0x00018bb2:    f001fbb1    ....    BL       am_hal_gpio_pinconfig ; 0x1a318
        0x00018bb6:    f2401018    @...    MOVW     r0,#0x118
        0x00018bba:    f2c10000    ....    MOVT     r0,#0x1000
        0x00018bbe:    6801        .h      LDR      r1,[r0,#0]
        0x00018bc0:    202b        +       MOVS     r0,#0x2b
        0x00018bc2:    f001fba9    ....    BL       am_hal_gpio_pinconfig ; 0x1a318
        0x00018bc6:    f240101c    @...    MOVW     r0,#0x11c
        0x00018bca:    f2c10000    ....    MOVT     r0,#0x1000
        0x00018bce:    6801        .h      LDR      r1,[r0,#0]
        0x00018bd0:    202c        ,       MOVS     r0,#0x2c
        0x00018bd2:    f001fba1    ....    BL       am_hal_gpio_pinconfig ; 0x1a318
        0x00018bd6:    f2401024    @.$.    MOVW     r0,#0x124
        0x00018bda:    f2c10000    ....    MOVT     r0,#0x1000
        0x00018bde:    6801        .h      LDR      r1,[r0,#0]
        0x00018be0:    202d        -       MOVS     r0,#0x2d
        0x00018be2:    f001fb99    ....    BL       am_hal_gpio_pinconfig ; 0x1a318
        0x00018be6:    f2401020    @. .    MOVW     r0,#0x120
        0x00018bea:    f2c10000    ....    MOVT     r0,#0x1000
        0x00018bee:    6801        .h      LDR      r1,[r0,#0]
        0x00018bf0:    202e        .       MOVS     r0,#0x2e
        0x00018bf2:    e072        r.      B        0x18cda ; am_bsp_mspi_pins_enable + 1358
        0x00018bf4:    f24000cc    @...    MOVW     r0,#0xcc
        0x00018bf8:    f2c10000    ....    MOVT     r0,#0x1000
        0x00018bfc:    6801        .h      LDR      r1,[r0,#0]
        0x00018bfe:    2000        .       MOVS     r0,#0
        0x00018c00:    e005        ..      B        0x18c0e ; am_bsp_mspi_pins_enable + 1154
        0x00018c02:    f24000d0    @...    MOVW     r0,#0xd0
        0x00018c06:    f2c10000    ....    MOVT     r0,#0x1000
        0x00018c0a:    6801        .h      LDR      r1,[r0,#0]
        0x00018c0c:    2056        V       MOVS     r0,#0x56
        0x00018c0e:    f001fb83    ....    BL       am_hal_gpio_pinconfig ; 0x1a318
        0x00018c12:    f24000d4    @...    MOVW     r0,#0xd4
        0x00018c16:    f2c10000    ....    MOVT     r0,#0x1000
        0x00018c1a:    6801        .h      LDR      r1,[r0,#0]
        0x00018c1c:    204a        J       MOVS     r0,#0x4a
        0x00018c1e:    f001fb7b    ..{.    BL       am_hal_gpio_pinconfig ; 0x1a318
        0x00018c22:    f24000d8    @...    MOVW     r0,#0xd8
        0x00018c26:    f2c10000    ....    MOVT     r0,#0x1000
        0x00018c2a:    6801        .h      LDR      r1,[r0,#0]
        0x00018c2c:    204b        K       MOVS     r0,#0x4b
        0x00018c2e:    e04c        L.      B        0x18cca ; am_bsp_mspi_pins_enable + 1342
        0x00018c30:    f24000cc    @...    MOVW     r0,#0xcc
        0x00018c34:    f2c10000    ....    MOVT     r0,#0x1000
        0x00018c38:    6801        .h      LDR      r1,[r0,#0]
        0x00018c3a:    2000        .       MOVS     r0,#0
        0x00018c3c:    e005        ..      B        0x18c4a ; am_bsp_mspi_pins_enable + 1214
        0x00018c3e:    f24000d0    @...    MOVW     r0,#0xd0
        0x00018c42:    f2c10000    ....    MOVT     r0,#0x1000
        0x00018c46:    6801        .h      LDR      r1,[r0,#0]
        0x00018c48:    2056        V       MOVS     r0,#0x56
        0x00018c4a:    f001fb65    ..e.    BL       am_hal_gpio_pinconfig ; 0x1a318
        0x00018c4e:    f24000d4    @...    MOVW     r0,#0xd4
        0x00018c52:    f2c10000    ....    MOVT     r0,#0x1000
        0x00018c56:    6801        .h      LDR      r1,[r0,#0]
        0x00018c58:    204a        J       MOVS     r0,#0x4a
        0x00018c5a:    f001fb5d    ..].    BL       am_hal_gpio_pinconfig ; 0x1a318
        0x00018c5e:    f24000d8    @...    MOVW     r0,#0xd8
        0x00018c62:    f2c10000    ....    MOVT     r0,#0x1000
        0x00018c66:    6801        .h      LDR      r1,[r0,#0]
        0x00018c68:    204b        K       MOVS     r0,#0x4b
        0x00018c6a:    f001fb55    ..U.    BL       am_hal_gpio_pinconfig ; 0x1a318
        0x00018c6e:    f24000dc    @...    MOVW     r0,#0xdc
        0x00018c72:    f2c10000    ....    MOVT     r0,#0x1000
        0x00018c76:    6801        .h      LDR      r1,[r0,#0]
        0x00018c78:    204c        L       MOVS     r0,#0x4c
        0x00018c7a:    f001fb4d    ..M.    BL       am_hal_gpio_pinconfig ; 0x1a318
        0x00018c7e:    f24000e0    @...    MOVW     r0,#0xe0
        0x00018c82:    f2c10000    ....    MOVT     r0,#0x1000
        0x00018c86:    6801        .h      LDR      r1,[r0,#0]
        0x00018c88:    204d        M       MOVS     r0,#0x4d
        0x00018c8a:    f001fb45    ..E.    BL       am_hal_gpio_pinconfig ; 0x1a318
        0x00018c8e:    f24000e4    @...    MOVW     r0,#0xe4
        0x00018c92:    f2c10000    ....    MOVT     r0,#0x1000
        0x00018c96:    6801        .h      LDR      r1,[r0,#0]
        0x00018c98:    204e        N       MOVS     r0,#0x4e
        0x00018c9a:    f001fb3d    ..=.    BL       am_hal_gpio_pinconfig ; 0x1a318
        0x00018c9e:    f24000e8    @...    MOVW     r0,#0xe8
        0x00018ca2:    f2c10000    ....    MOVT     r0,#0x1000
        0x00018ca6:    6801        .h      LDR      r1,[r0,#0]
        0x00018ca8:    204f        O       MOVS     r0,#0x4f
        0x00018caa:    f001fb35    ..5.    BL       am_hal_gpio_pinconfig ; 0x1a318
        0x00018cae:    f24000ec    @...    MOVW     r0,#0xec
        0x00018cb2:    f2c10000    ....    MOVT     r0,#0x1000
        0x00018cb6:    6801        .h      LDR      r1,[r0,#0]
        0x00018cb8:    2050        P       MOVS     r0,#0x50
        0x00018cba:    f001fb2d    ..-.    BL       am_hal_gpio_pinconfig ; 0x1a318
        0x00018cbe:    f24000f0    @...    MOVW     r0,#0xf0
        0x00018cc2:    f2c10000    ....    MOVT     r0,#0x1000
        0x00018cc6:    6801        .h      LDR      r1,[r0,#0]
        0x00018cc8:    2051        Q       MOVS     r0,#0x51
        0x00018cca:    f001fb25    ..%.    BL       am_hal_gpio_pinconfig ; 0x1a318
        0x00018cce:    f24000f8    @...    MOVW     r0,#0xf8
        0x00018cd2:    f2c10000    ....    MOVT     r0,#0x1000
        0x00018cd6:    6801        .h      LDR      r1,[r0,#0]
        0x00018cd8:    2052        R       MOVS     r0,#0x52
        0x00018cda:    e8bd4080    ...@    POP      {r7,lr}
        0x00018cde:    f001bb1b    ....    B.W      am_hal_gpio_pinconfig ; 0x1a318
        0x00018ce2:    f24000cc    @...    MOVW     r0,#0xcc
        0x00018ce6:    f2c10000    ....    MOVT     r0,#0x1000
        0x00018cea:    6801        .h      LDR      r1,[r0,#0]
        0x00018cec:    2000        .       MOVS     r0,#0
        0x00018cee:    e005        ..      B        0x18cfc ; am_bsp_mspi_pins_enable + 1392
        0x00018cf0:    f24000d0    @...    MOVW     r0,#0xd0
        0x00018cf4:    f2c10000    ....    MOVT     r0,#0x1000
        0x00018cf8:    6801        .h      LDR      r1,[r0,#0]
        0x00018cfa:    2056        V       MOVS     r0,#0x56
        0x00018cfc:    f001fb0c    ....    BL       am_hal_gpio_pinconfig ; 0x1a318
        0x00018d00:    f24000d4    @...    MOVW     r0,#0xd4
        0x00018d04:    f2c10000    ....    MOVT     r0,#0x1000
        0x00018d08:    6801        .h      LDR      r1,[r0,#0]
        0x00018d0a:    204a        J       MOVS     r0,#0x4a
        0x00018d0c:    f001fb04    ....    BL       am_hal_gpio_pinconfig ; 0x1a318
        0x00018d10:    f24000d8    @...    MOVW     r0,#0xd8
        0x00018d14:    f2c10000    ....    MOVT     r0,#0x1000
        0x00018d18:    6801        .h      LDR      r1,[r0,#0]
        0x00018d1a:    204b        K       MOVS     r0,#0x4b
        0x00018d1c:    f001fafc    ....    BL       am_hal_gpio_pinconfig ; 0x1a318
        0x00018d20:    f24000dc    @...    MOVW     r0,#0xdc
        0x00018d24:    f2c10000    ....    MOVT     r0,#0x1000
        0x00018d28:    6801        .h      LDR      r1,[r0,#0]
        0x00018d2a:    204c        L       MOVS     r0,#0x4c
        0x00018d2c:    f001faf4    ....    BL       am_hal_gpio_pinconfig ; 0x1a318
        0x00018d30:    f24000e0    @...    MOVW     r0,#0xe0
        0x00018d34:    f2c10000    ....    MOVT     r0,#0x1000
        0x00018d38:    6801        .h      LDR      r1,[r0,#0]
        0x00018d3a:    204d        M       MOVS     r0,#0x4d
        0x00018d3c:    f001faec    ....    BL       am_hal_gpio_pinconfig ; 0x1a318
        0x00018d40:    f24000e4    @...    MOVW     r0,#0xe4
        0x00018d44:    f2c10000    ....    MOVT     r0,#0x1000
        0x00018d48:    6801        .h      LDR      r1,[r0,#0]
        0x00018d4a:    204e        N       MOVS     r0,#0x4e
        0x00018d4c:    f001fae4    ....    BL       am_hal_gpio_pinconfig ; 0x1a318
        0x00018d50:    f24000e8    @...    MOVW     r0,#0xe8
        0x00018d54:    f2c10000    ....    MOVT     r0,#0x1000
        0x00018d58:    6801        .h      LDR      r1,[r0,#0]
        0x00018d5a:    204f        O       MOVS     r0,#0x4f
        0x00018d5c:    f001fadc    ....    BL       am_hal_gpio_pinconfig ; 0x1a318
        0x00018d60:    f24000ec    @...    MOVW     r0,#0xec
        0x00018d64:    f2c10000    ....    MOVT     r0,#0x1000
        0x00018d68:    6801        .h      LDR      r1,[r0,#0]
        0x00018d6a:    2050        P       MOVS     r0,#0x50
        0x00018d6c:    f001fad4    ....    BL       am_hal_gpio_pinconfig ; 0x1a318
        0x00018d70:    f24000f0    @...    MOVW     r0,#0xf0
        0x00018d74:    f2c10000    ....    MOVT     r0,#0x1000
        0x00018d78:    6801        .h      LDR      r1,[r0,#0]
        0x00018d7a:    2051        Q       MOVS     r0,#0x51
        0x00018d7c:    f001facc    ....    BL       am_hal_gpio_pinconfig ; 0x1a318
        0x00018d80:    f24000f8    @...    MOVW     r0,#0xf8
        0x00018d84:    f2c10000    ....    MOVT     r0,#0x1000
        0x00018d88:    6801        .h      LDR      r1,[r0,#0]
        0x00018d8a:    2052        R       MOVS     r0,#0x52
        0x00018d8c:    f001fac4    ....    BL       am_hal_gpio_pinconfig ; 0x1a318
        0x00018d90:    f24000f4    @...    MOVW     r0,#0xf4
        0x00018d94:    f2c10000    ....    MOVT     r0,#0x1000
        0x00018d98:    6801        .h      LDR      r1,[r0,#0]
        0x00018d9a:    2053        S       MOVS     r0,#0x53
        0x00018d9c:    e79d        ..      B        0x18cda ; am_bsp_mspi_pins_enable + 1358
        0x00018d9e:    0000        ..      MOVS     r0,r0
    am_device_command_read
        0x00018da0:    b580        ..      PUSH     {r7,lr}
        0x00018da2:    b08a        ..      SUB      sp,sp,#0x28
        0x00018da4:    f8ddc034    ..4.    LDR      r12,[sp,#0x34]
        0x00018da8:    f8ddc030    ..0.    LDR      r12,[sp,#0x30]
        0x00018dac:    9009        ..      STR      r0,[sp,#0x24]
        0x00018dae:    f8ad1022    ..".    STRH     r1,[sp,#0x22]
        0x00018db2:    f88d2021    ..!     STRB     r2,[sp,#0x21]
        0x00018db6:    9307        ..      STR      r3,[sp,#0x1c]
        0x00018db8:    980d        ..      LDR      r0,[sp,#0x34]
        0x00018dba:    9001        ..      STR      r0,[sp,#4]
        0x00018dbc:    2000        .       MOVS     r0,#0
        0x00018dbe:    f88d0008    ....    STRB     r0,[sp,#8]
        0x00018dc2:    f88d000a    ....    STRB     r0,[sp,#0xa]
        0x00018dc6:    f89d1021    ..!.    LDRB     r1,[sp,#0x21]
        0x00018dca:    f0010101    ....    AND      r1,r1,#1
        0x00018dce:    f88d100b    ....    STRB     r1,[sp,#0xb]
        0x00018dd2:    9907        ..      LDR      r1,[sp,#0x1c]
        0x00018dd4:    9103        ..      STR      r1,[sp,#0xc]
        0x00018dd6:    2101        .!      MOVS     r1,#1
        0x00018dd8:    f88d1010    ....    STRB     r1,[sp,#0x10]
        0x00018ddc:    f8bd2022    .."     LDRH     r2,[sp,#0x22]
        0x00018de0:    f8ad2012    ...     STRH     r2,[sp,#0x12]
        0x00018de4:    f88d1014    ....    STRB     r1,[sp,#0x14]
        0x00018de8:    f88d0009    ....    STRB     r0,[sp,#9]
        0x00018dec:    f88d1015    ....    STRB     r1,[sp,#0x15]
        0x00018df0:    f88d0016    ....    STRB     r0,[sp,#0x16]
        0x00018df4:    980c        ..      LDR      r0,[sp,#0x30]
        0x00018df6:    9006        ..      STR      r0,[sp,#0x18]
        0x00018df8:    9809        ..      LDR      r0,[sp,#0x24]
        0x00018dfa:    a901        ..      ADD      r1,sp,#4
        0x00018dfc:    f2442240    D.@"    MOV      r2,#0x4240
        0x00018e00:    f2c0020f    ....    MOVT     r2,#0xf
        0x00018e04:    f001fb54    ..T.    BL       am_hal_mspi_blocking_transfer ; 0x1a4b0
        0x00018e08:    b00a        ..      ADD      sp,sp,#0x28
        0x00018e0a:    bd80        ..      POP      {r7,pc}
    am_device_command_write
        0x00018e0c:    b580        ..      PUSH     {r7,lr}
        0x00018e0e:    b08a        ..      SUB      sp,sp,#0x28
        0x00018e10:    f8ddc034    ..4.    LDR      r12,[sp,#0x34]
        0x00018e14:    f8ddc030    ..0.    LDR      r12,[sp,#0x30]
        0x00018e18:    9009        ..      STR      r0,[sp,#0x24]
        0x00018e1a:    f8ad1022    ..".    STRH     r1,[sp,#0x22]
        0x00018e1e:    f88d2021    ..!     STRB     r2,[sp,#0x21]
        0x00018e22:    9307        ..      STR      r3,[sp,#0x1c]
        0x00018e24:    980d        ..      LDR      r0,[sp,#0x34]
        0x00018e26:    9001        ..      STR      r0,[sp,#4]
        0x00018e28:    2000        .       MOVS     r0,#0
        0x00018e2a:    f88d0008    ....    STRB     r0,[sp,#8]
        0x00018e2e:    2101        .!      MOVS     r1,#1
        0x00018e30:    f88d100a    ....    STRB     r1,[sp,#0xa]
        0x00018e34:    f89d2021    ..!     LDRB     r2,[sp,#0x21]
        0x00018e38:    f0020201    ....    AND      r2,r2,#1
        0x00018e3c:    f88d200b    ...     STRB     r2,[sp,#0xb]
        0x00018e40:    9a07        ..      LDR      r2,[sp,#0x1c]
        0x00018e42:    9203        ..      STR      r2,[sp,#0xc]
        0x00018e44:    f88d1010    ....    STRB     r1,[sp,#0x10]
        0x00018e48:    f8bd1022    ..".    LDRH     r1,[sp,#0x22]
        0x00018e4c:    f8ad1012    ....    STRH     r1,[sp,#0x12]
        0x00018e50:    f88d0014    ....    STRB     r0,[sp,#0x14]
        0x00018e54:    f88d0009    ....    STRB     r0,[sp,#9]
        0x00018e58:    f88d0015    ....    STRB     r0,[sp,#0x15]
        0x00018e5c:    f88d0016    ....    STRB     r0,[sp,#0x16]
        0x00018e60:    980c        ..      LDR      r0,[sp,#0x30]
        0x00018e62:    9006        ..      STR      r0,[sp,#0x18]
        0x00018e64:    9809        ..      LDR      r0,[sp,#0x24]
        0x00018e66:    a901        ..      ADD      r1,sp,#4
        0x00018e68:    f2442240    D.@"    MOV      r2,#0x4240
        0x00018e6c:    f2c0020f    ....    MOVT     r2,#0xf
        0x00018e70:    f001fb1e    ....    BL       am_hal_mspi_blocking_transfer ; 0x1a4b0
        0x00018e74:    b00a        ..      ADD      sp,sp,#0x28
        0x00018e76:    bd80        ..      POP      {r7,pc}
    am_devices_mspi_psram_aps12808l_apply_ddr_timing
        0x00018e78:    b580        ..      PUSH     {r7,lr}
        0x00018e7a:    b086        ..      SUB      sp,sp,#0x18
        0x00018e7c:    9005        ..      STR      r0,[sp,#0x14]
        0x00018e7e:    9104        ..      STR      r1,[sp,#0x10]
        0x00018e80:    9805        ..      LDR      r0,[sp,#0x14]
        0x00018e82:    9003        ..      STR      r0,[sp,#0xc]
        0x00018e84:    f64e7272    N.rr    MOV      r2,#0xef72
        0x00018e88:    f2c00201    ....    MOVT     r2,#1
        0x00018e8c:    6810        .h      LDR      r0,[r2,#0]
        0x00018e8e:    6851        Qh      LDR      r1,[r2,#4]
        0x00018e90:    f8d22007    ...     LDR      r2,[r2,#7]
        0x00018e94:    f8cd2007    ...     STR      r2,[sp,#7]
        0x00018e98:    9101        ..      STR      r1,[sp,#4]
        0x00018e9a:    9000        ..      STR      r0,[sp,#0]
        0x00018e9c:    9804        ..      LDR      r0,[sp,#0x10]
        0x00018e9e:    6880        .h      LDR      r0,[r0,#8]
        0x00018ea0:    f88d0003    ....    STRB     r0,[sp,#3]
        0x00018ea4:    9804        ..      LDR      r0,[sp,#0x10]
        0x00018ea6:    6800        .h      LDR      r0,[r0,#0]
        0x00018ea8:    f88d0008    ....    STRB     r0,[sp,#8]
        0x00018eac:    9804        ..      LDR      r0,[sp,#0x10]
        0x00018eae:    6800        .h      LDR      r0,[r0,#0]
        0x00018eb0:    f88d0009    ....    STRB     r0,[sp,#9]
        0x00018eb4:    9804        ..      LDR      r0,[sp,#0x10]
        0x00018eb6:    6840        @h      LDR      r0,[r0,#4]
        0x00018eb8:    2800        .(      CMP      r0,#0
        0x00018eba:    bf18        ..      IT       NE
        0x00018ebc:    2001        .       MOVNE    r0,#1
        0x00018ebe:    f88d000a    ....    STRB     r0,[sp,#0xa]
        0x00018ec2:    9803        ..      LDR      r0,[sp,#0xc]
        0x00018ec4:    6840        @h      LDR      r0,[r0,#4]
        0x00018ec6:    210b        .!      MOVS     r1,#0xb
        0x00018ec8:    466a        jF      MOV      r2,sp
        0x00018eca:    f001fc57    ..W.    BL       am_hal_mspi_control ; 0x1a77c
        0x00018ece:    b006        ..      ADD      sp,sp,#0x18
        0x00018ed0:    bd80        ..      POP      {r7,pc}
        0x00018ed2:    0000        ..      MOVS     r0,r0
    am_devices_mspi_psram_aps12808l_ddr_deinit
        0x00018ed4:    b580        ..      PUSH     {r7,lr}
        0x00018ed6:    b084        ..      SUB      sp,sp,#0x10
        0x00018ed8:    9002        ..      STR      r0,[sp,#8]
        0x00018eda:    9802        ..      LDR      r0,[sp,#8]
        0x00018edc:    9000        ..      STR      r0,[sp,#0]
        0x00018ede:    9800        ..      LDR      r0,[sp,#0]
        0x00018ee0:    6840        @h      LDR      r0,[r0,#4]
        0x00018ee2:    f04f31ff    O..1    MOV      r1,#0xffffffff
        0x00018ee6:    f002fbd3    ....    BL       am_hal_mspi_interrupt_disable ; 0x1b690
        0x00018eea:    9001        ..      STR      r0,[sp,#4]
        0x00018eec:    9801        ..      LDR      r0,[sp,#4]
        0x00018eee:    b118        ..      CBZ      r0,0x18ef8 ; am_devices_mspi_psram_aps12808l_ddr_deinit + 36
        0x00018ef0:    e7ff        ..      B        0x18ef2 ; am_devices_mspi_psram_aps12808l_ddr_deinit + 30
        0x00018ef2:    2001        .       MOVS     r0,#1
        0x00018ef4:    9003        ..      STR      r0,[sp,#0xc]
        0x00018ef6:    e032        2.      B        0x18f5e ; am_devices_mspi_psram_aps12808l_ddr_deinit + 138
        0x00018ef8:    9800        ..      LDR      r0,[sp,#0]
        0x00018efa:    6840        @h      LDR      r0,[r0,#4]
        0x00018efc:    f04f31ff    O..1    MOV      r1,#0xffffffff
        0x00018f00:    f002fbb1    ....    BL       am_hal_mspi_interrupt_clear ; 0x1b666
        0x00018f04:    9001        ..      STR      r0,[sp,#4]
        0x00018f06:    9801        ..      LDR      r0,[sp,#4]
        0x00018f08:    b118        ..      CBZ      r0,0x18f12 ; am_devices_mspi_psram_aps12808l_ddr_deinit + 62
        0x00018f0a:    e7ff        ..      B        0x18f0c ; am_devices_mspi_psram_aps12808l_ddr_deinit + 56
        0x00018f0c:    2001        .       MOVS     r0,#1
        0x00018f0e:    9003        ..      STR      r0,[sp,#0xc]
        0x00018f10:    e025        %.      B        0x18f5e ; am_devices_mspi_psram_aps12808l_ddr_deinit + 138
        0x00018f12:    9800        ..      LDR      r0,[sp,#0]
        0x00018f14:    6840        @h      LDR      r0,[r0,#4]
        0x00018f16:    f002fa86    ....    BL       am_hal_mspi_disable ; 0x1b426
        0x00018f1a:    9001        ..      STR      r0,[sp,#4]
        0x00018f1c:    9801        ..      LDR      r0,[sp,#4]
        0x00018f1e:    b118        ..      CBZ      r0,0x18f28 ; am_devices_mspi_psram_aps12808l_ddr_deinit + 84
        0x00018f20:    e7ff        ..      B        0x18f22 ; am_devices_mspi_psram_aps12808l_ddr_deinit + 78
        0x00018f22:    2001        .       MOVS     r0,#1
        0x00018f24:    9003        ..      STR      r0,[sp,#0xc]
        0x00018f26:    e01a        ..      B        0x18f5e ; am_devices_mspi_psram_aps12808l_ddr_deinit + 138
        0x00018f28:    9800        ..      LDR      r0,[sp,#0]
        0x00018f2a:    6840        @h      LDR      r0,[r0,#4]
        0x00018f2c:    2102        .!      MOVS     r1,#2
        0x00018f2e:    2200        ."      MOVS     r2,#0
        0x00018f30:    f002fdfb    ....    BL       am_hal_mspi_power_control ; 0x1bb2a
        0x00018f34:    b118        ..      CBZ      r0,0x18f3e ; am_devices_mspi_psram_aps12808l_ddr_deinit + 106
        0x00018f36:    e7ff        ..      B        0x18f38 ; am_devices_mspi_psram_aps12808l_ddr_deinit + 100
        0x00018f38:    2001        .       MOVS     r0,#1
        0x00018f3a:    9003        ..      STR      r0,[sp,#0xc]
        0x00018f3c:    e00f        ..      B        0x18f5e ; am_devices_mspi_psram_aps12808l_ddr_deinit + 138
        0x00018f3e:    9800        ..      LDR      r0,[sp,#0]
        0x00018f40:    6840        @h      LDR      r0,[r0,#4]
        0x00018f42:    f002f974    ..t.    BL       am_hal_mspi_deinitialize ; 0x1b22e
        0x00018f46:    9001        ..      STR      r0,[sp,#4]
        0x00018f48:    9801        ..      LDR      r0,[sp,#4]
        0x00018f4a:    b118        ..      CBZ      r0,0x18f54 ; am_devices_mspi_psram_aps12808l_ddr_deinit + 128
        0x00018f4c:    e7ff        ..      B        0x18f4e ; am_devices_mspi_psram_aps12808l_ddr_deinit + 122
        0x00018f4e:    2001        .       MOVS     r0,#1
        0x00018f50:    9003        ..      STR      r0,[sp,#0xc]
        0x00018f52:    e004        ..      B        0x18f5e ; am_devices_mspi_psram_aps12808l_ddr_deinit + 138
        0x00018f54:    9900        ..      LDR      r1,[sp,#0]
        0x00018f56:    2000        .       MOVS     r0,#0
        0x00018f58:    7248        Hr      STRB     r0,[r1,#9]
        0x00018f5a:    9003        ..      STR      r0,[sp,#0xc]
        0x00018f5c:    e7ff        ..      B        0x18f5e ; am_devices_mspi_psram_aps12808l_ddr_deinit + 138
        0x00018f5e:    9803        ..      LDR      r0,[sp,#0xc]
        0x00018f60:    b004        ..      ADD      sp,sp,#0x10
        0x00018f62:    bd80        ..      POP      {r7,pc}
    am_devices_mspi_psram_aps12808l_ddr_disable_xip
        0x00018f64:    b580        ..      PUSH     {r7,lr}
        0x00018f66:    b084        ..      SUB      sp,sp,#0x10
        0x00018f68:    9002        ..      STR      r0,[sp,#8]
        0x00018f6a:    9802        ..      LDR      r0,[sp,#8]
        0x00018f6c:    9000        ..      STR      r0,[sp,#0]
        0x00018f6e:    9800        ..      LDR      r0,[sp,#0]
        0x00018f70:    6802        .h      LDR      r2,[r0,#0]
        0x00018f72:    6840        @h      LDR      r0,[r0,#4]
        0x00018f74:    f2400164    @.d.    MOVW     r1,#0x64
        0x00018f78:    f2c10100    ....    MOVT     r1,#0x1000
        0x00018f7c:    eb011202    ....    ADD      r2,r1,r2,LSL #4
        0x00018f80:    210e        .!      MOVS     r1,#0xe
        0x00018f82:    f001fbfb    ....    BL       am_hal_mspi_control ; 0x1a77c
        0x00018f86:    9001        ..      STR      r0,[sp,#4]
        0x00018f88:    9801        ..      LDR      r0,[sp,#4]
        0x00018f8a:    b118        ..      CBZ      r0,0x18f94 ; am_devices_mspi_psram_aps12808l_ddr_disable_xip + 48
        0x00018f8c:    e7ff        ..      B        0x18f8e ; am_devices_mspi_psram_aps12808l_ddr_disable_xip + 42
        0x00018f8e:    2001        .       MOVS     r0,#1
        0x00018f90:    9003        ..      STR      r0,[sp,#0xc]
        0x00018f92:    e002        ..      B        0x18f9a ; am_devices_mspi_psram_aps12808l_ddr_disable_xip + 54
        0x00018f94:    2000        .       MOVS     r0,#0
        0x00018f96:    9003        ..      STR      r0,[sp,#0xc]
        0x00018f98:    e7ff        ..      B        0x18f9a ; am_devices_mspi_psram_aps12808l_ddr_disable_xip + 54
        0x00018f9a:    9803        ..      LDR      r0,[sp,#0xc]
        0x00018f9c:    b004        ..      ADD      sp,sp,#0x10
        0x00018f9e:    bd80        ..      POP      {r7,pc}
    am_devices_mspi_psram_aps12808l_ddr_enable_scrambling
        0x00018fa0:    b580        ..      PUSH     {r7,lr}
        0x00018fa2:    b084        ..      SUB      sp,sp,#0x10
        0x00018fa4:    9002        ..      STR      r0,[sp,#8]
        0x00018fa6:    9802        ..      LDR      r0,[sp,#8]
        0x00018fa8:    9000        ..      STR      r0,[sp,#0]
        0x00018faa:    9800        ..      LDR      r0,[sp,#0]
        0x00018fac:    6802        .h      LDR      r2,[r0,#0]
        0x00018fae:    6840        @h      LDR      r0,[r0,#4]
        0x00018fb0:    f2400164    @.d.    MOVW     r1,#0x64
        0x00018fb4:    f2c10100    ....    MOVT     r1,#0x1000
        0x00018fb8:    eb011202    ....    ADD      r2,r1,r2,LSL #4
        0x00018fbc:    2107        .!      MOVS     r1,#7
        0x00018fbe:    f001fbdd    ....    BL       am_hal_mspi_control ; 0x1a77c
        0x00018fc2:    9001        ..      STR      r0,[sp,#4]
        0x00018fc4:    9801        ..      LDR      r0,[sp,#4]
        0x00018fc6:    b118        ..      CBZ      r0,0x18fd0 ; am_devices_mspi_psram_aps12808l_ddr_enable_scrambling + 48
        0x00018fc8:    e7ff        ..      B        0x18fca ; am_devices_mspi_psram_aps12808l_ddr_enable_scrambling + 42
        0x00018fca:    2001        .       MOVS     r0,#1
        0x00018fcc:    9003        ..      STR      r0,[sp,#0xc]
        0x00018fce:    e002        ..      B        0x18fd6 ; am_devices_mspi_psram_aps12808l_ddr_enable_scrambling + 54
        0x00018fd0:    2000        .       MOVS     r0,#0
        0x00018fd2:    9003        ..      STR      r0,[sp,#0xc]
        0x00018fd4:    e7ff        ..      B        0x18fd6 ; am_devices_mspi_psram_aps12808l_ddr_enable_scrambling + 54
        0x00018fd6:    9803        ..      LDR      r0,[sp,#0xc]
        0x00018fd8:    b004        ..      ADD      sp,sp,#0x10
        0x00018fda:    bd80        ..      POP      {r7,pc}
    am_devices_mspi_psram_aps12808l_ddr_enable_xip
        0x00018fdc:    b580        ..      PUSH     {r7,lr}
        0x00018fde:    b084        ..      SUB      sp,sp,#0x10
        0x00018fe0:    9002        ..      STR      r0,[sp,#8]
        0x00018fe2:    9802        ..      LDR      r0,[sp,#8]
        0x00018fe4:    9000        ..      STR      r0,[sp,#0]
        0x00018fe6:    9800        ..      LDR      r0,[sp,#0]
        0x00018fe8:    6802        .h      LDR      r2,[r0,#0]
        0x00018fea:    6840        @h      LDR      r0,[r0,#4]
        0x00018fec:    f2400164    @.d.    MOVW     r1,#0x64
        0x00018ff0:    f2c10100    ....    MOVT     r1,#0x1000
        0x00018ff4:    eb011202    ....    ADD      r2,r1,r2,LSL #4
        0x00018ff8:    210c        .!      MOVS     r1,#0xc
        0x00018ffa:    f001fbbf    ....    BL       am_hal_mspi_control ; 0x1a77c
        0x00018ffe:    9001        ..      STR      r0,[sp,#4]
        0x00019000:    9801        ..      LDR      r0,[sp,#4]
        0x00019002:    b118        ..      CBZ      r0,0x1900c ; am_devices_mspi_psram_aps12808l_ddr_enable_xip + 48
        0x00019004:    e7ff        ..      B        0x19006 ; am_devices_mspi_psram_aps12808l_ddr_enable_xip + 42
        0x00019006:    2001        .       MOVS     r0,#1
        0x00019008:    9003        ..      STR      r0,[sp,#0xc]
        0x0001900a:    e015        ..      B        0x19038 ; am_devices_mspi_psram_aps12808l_ddr_enable_xip + 92
        0x0001900c:    9800        ..      LDR      r0,[sp,#0]
        0x0001900e:    6802        .h      LDR      r2,[r0,#0]
        0x00019010:    6840        @h      LDR      r0,[r0,#4]
        0x00019012:    f2400164    @.d.    MOVW     r1,#0x64
        0x00019016:    f2c10100    ....    MOVT     r1,#0x1000
        0x0001901a:    eb011202    ....    ADD      r2,r1,r2,LSL #4
        0x0001901e:    210f        .!      MOVS     r1,#0xf
        0x00019020:    f001fbac    ....    BL       am_hal_mspi_control ; 0x1a77c
        0x00019024:    9001        ..      STR      r0,[sp,#4]
        0x00019026:    9801        ..      LDR      r0,[sp,#4]
        0x00019028:    b118        ..      CBZ      r0,0x19032 ; am_devices_mspi_psram_aps12808l_ddr_enable_xip + 86
        0x0001902a:    e7ff        ..      B        0x1902c ; am_devices_mspi_psram_aps12808l_ddr_enable_xip + 80
        0x0001902c:    2001        .       MOVS     r0,#1
        0x0001902e:    9003        ..      STR      r0,[sp,#0xc]
        0x00019030:    e002        ..      B        0x19038 ; am_devices_mspi_psram_aps12808l_ddr_enable_xip + 92
        0x00019032:    2000        .       MOVS     r0,#0
        0x00019034:    9003        ..      STR      r0,[sp,#0xc]
        0x00019036:    e7ff        ..      B        0x19038 ; am_devices_mspi_psram_aps12808l_ddr_enable_xip + 92
        0x00019038:    9803        ..      LDR      r0,[sp,#0xc]
        0x0001903a:    b004        ..      ADD      sp,sp,#0x10
        0x0001903c:    bd80        ..      POP      {r7,pc}
        0x0001903e:    0000        ..      MOVS     r0,r0
    am_devices_mspi_psram_aps12808l_ddr_init
        0x00019040:    b580        ..      PUSH     {r7,lr}
        0x00019042:    b09c        ..      SUB      sp,sp,#0x70
        0x00019044:    901a        ..      STR      r0,[sp,#0x68]
        0x00019046:    9119        ..      STR      r1,[sp,#0x64]
        0x00019048:    9218        ..      STR      r2,[sp,#0x60]
        0x0001904a:    9317        ..      STR      r3,[sp,#0x5c]
        0x0001904c:    2000        .       MOVS     r0,#0
        0x0001904e:    900e        ..      STR      r0,[sp,#0x38]
        0x00019050:    981a        ..      LDR      r0,[sp,#0x68]
        0x00019052:    2803        .(      CMP      r0,#3
        0x00019054:    d803        ..      BHI      0x1905e ; am_devices_mspi_psram_aps12808l_ddr_init + 30
        0x00019056:    e7ff        ..      B        0x19058 ; am_devices_mspi_psram_aps12808l_ddr_init + 24
        0x00019058:    9819        ..      LDR      r0,[sp,#0x64]
        0x0001905a:    b918        ..      CBNZ     r0,0x19064 ; am_devices_mspi_psram_aps12808l_ddr_init + 36
        0x0001905c:    e7ff        ..      B        0x1905e ; am_devices_mspi_psram_aps12808l_ddr_init + 30
        0x0001905e:    2001        .       MOVS     r0,#1
        0x00019060:    901b        ..      STR      r0,[sp,#0x6c]
        0x00019062:    e151        Q.      B        0x19308 ; am_devices_mspi_psram_aps12808l_ddr_init + 712
        0x00019064:    f001f931    ..1.    BL       am_hal_fault_capture_enable ; 0x1a2ca
        0x00019068:    2000        .       MOVS     r0,#0
        0x0001906a:    900e        ..      STR      r0,[sp,#0x38]
        0x0001906c:    e7ff        ..      B        0x1906e ; am_devices_mspi_psram_aps12808l_ddr_init + 46
        0x0001906e:    980e        ..      LDR      r0,[sp,#0x38]
        0x00019070:    2801        .(      CMP      r0,#1
        0x00019072:    d813        ..      BHI      0x1909c ; am_devices_mspi_psram_aps12808l_ddr_init + 92
        0x00019074:    e7ff        ..      B        0x19076 ; am_devices_mspi_psram_aps12808l_ddr_init + 54
        0x00019076:    980e        ..      LDR      r0,[sp,#0x38]
        0x00019078:    eb000140    ..@.    ADD      r1,r0,r0,LSL #1
        0x0001907c:    f64250ac    B..P    MOV      r0,#0x2dac
        0x00019080:    f2c10000    ....    MOVT     r0,#0x1000
        0x00019084:    eb000081    ....    ADD      r0,r0,r1,LSL #2
        0x00019088:    7a40        @z      LDRB     r0,[r0,#9]
        0x0001908a:    07c0        ..      LSLS     r0,r0,#31
        0x0001908c:    b908        ..      CBNZ     r0,0x19092 ; am_devices_mspi_psram_aps12808l_ddr_init + 82
        0x0001908e:    e7ff        ..      B        0x19090 ; am_devices_mspi_psram_aps12808l_ddr_init + 80
        0x00019090:    e004        ..      B        0x1909c ; am_devices_mspi_psram_aps12808l_ddr_init + 92
        0x00019092:    e7ff        ..      B        0x19094 ; am_devices_mspi_psram_aps12808l_ddr_init + 84
        0x00019094:    980e        ..      LDR      r0,[sp,#0x38]
        0x00019096:    3001        .0      ADDS     r0,#1
        0x00019098:    900e        ..      STR      r0,[sp,#0x38]
        0x0001909a:    e7e8        ..      B        0x1906e ; am_devices_mspi_psram_aps12808l_ddr_init + 46
        0x0001909c:    980e        ..      LDR      r0,[sp,#0x38]
        0x0001909e:    2802        .(      CMP      r0,#2
        0x000190a0:    d103        ..      BNE      0x190aa ; am_devices_mspi_psram_aps12808l_ddr_init + 106
        0x000190a2:    e7ff        ..      B        0x190a4 ; am_devices_mspi_psram_aps12808l_ddr_init + 100
        0x000190a4:    2001        .       MOVS     r0,#1
        0x000190a6:    901b        ..      STR      r0,[sp,#0x6c]
        0x000190a8:    e12e        ..      B        0x19308 ; am_devices_mspi_psram_aps12808l_ddr_init + 712
        0x000190aa:    9819        ..      LDR      r0,[sp,#0x64]
        0x000190ac:    7800        .x      LDRB     r0,[r0,#0]
        0x000190ae:    4601        .F      MOV      r1,r0
        0x000190b0:    9100        ..      STR      r1,[sp,#0]
        0x000190b2:    2808        .(      CMP      r0,#8
        0x000190b4:    d004        ..      BEQ      0x190c0 ; am_devices_mspi_psram_aps12808l_ddr_init + 128
        0x000190b6:    e7ff        ..      B        0x190b8 ; am_devices_mspi_psram_aps12808l_ddr_init + 120
        0x000190b8:    9800        ..      LDR      r0,[sp,#0]
        0x000190ba:    2809        .(      CMP      r0,#9
        0x000190bc:    d009        ..      BEQ      0x190d2 ; am_devices_mspi_psram_aps12808l_ddr_init + 146
        0x000190be:    e011        ..      B        0x190e4 ; am_devices_mspi_psram_aps12808l_ddr_init + 164
        0x000190c0:    f2400100    @...    MOVW     r1,#0
        0x000190c4:    f2c10100    ....    MOVT     r1,#0x1000
        0x000190c8:    a810        ..      ADD      r0,sp,#0x40
        0x000190ca:    2216        ."      MOVS     r2,#0x16
        0x000190cc:    f7fff968    ..h.    BL       __aeabi_memcpy ; 0x183a0
        0x000190d0:    e00b        ..      B        0x190ea ; am_devices_mspi_psram_aps12808l_ddr_init + 170
        0x000190d2:    f2400116    @...    MOVW     r1,#0x16
        0x000190d6:    f2c10100    ....    MOVT     r1,#0x1000
        0x000190da:    a810        ..      ADD      r0,sp,#0x40
        0x000190dc:    2216        ."      MOVS     r2,#0x16
        0x000190de:    f7fff95f    .._.    BL       __aeabi_memcpy ; 0x183a0
        0x000190e2:    e002        ..      B        0x190ea ; am_devices_mspi_psram_aps12808l_ddr_init + 170
        0x000190e4:    2001        .       MOVS     r0,#1
        0x000190e6:    901b        ..      STR      r0,[sp,#0x6c]
        0x000190e8:    e10e        ..      B        0x19308 ; am_devices_mspi_psram_aps12808l_ddr_init + 712
        0x000190ea:    9819        ..      LDR      r0,[sp,#0x64]
        0x000190ec:    7800        .x      LDRB     r0,[r0,#0]
        0x000190ee:    f88d0048    ..H.    STRB     r0,[sp,#0x48]
        0x000190f2:    9819        ..      LDR      r0,[sp,#0x64]
        0x000190f4:    7840        @x      LDRB     r0,[r0,#1]
        0x000190f6:    f88d004b    ..K.    STRB     r0,[sp,#0x4b]
        0x000190fa:    981a        ..      LDR      r0,[sp,#0x68]
        0x000190fc:    a90f        ..      ADD      r1,sp,#0x3c
        0x000190fe:    f002fa8a    ....    BL       am_hal_mspi_initialize ; 0x1b616
        0x00019102:    b118        ..      CBZ      r0,0x1910c ; am_devices_mspi_psram_aps12808l_ddr_init + 204
        0x00019104:    e7ff        ..      B        0x19106 ; am_devices_mspi_psram_aps12808l_ddr_init + 198
        0x00019106:    2001        .       MOVS     r0,#1
        0x00019108:    901b        ..      STR      r0,[sp,#0x6c]
        0x0001910a:    e0fd        ..      B        0x19308 ; am_devices_mspi_psram_aps12808l_ddr_init + 712
        0x0001910c:    980f        ..      LDR      r0,[sp,#0x3c]
        0x0001910e:    2200        ."      MOVS     r2,#0
        0x00019110:    4611        .F      MOV      r1,r2
        0x00019112:    f002fd0a    ....    BL       am_hal_mspi_power_control ; 0x1bb2a
        0x00019116:    b118        ..      CBZ      r0,0x19120 ; am_devices_mspi_psram_aps12808l_ddr_init + 224
        0x00019118:    e7ff        ..      B        0x1911a ; am_devices_mspi_psram_aps12808l_ddr_init + 218
        0x0001911a:    2001        .       MOVS     r0,#1
        0x0001911c:    901b        ..      STR      r0,[sp,#0x6c]
        0x0001911e:    e0f3        ..      B        0x19308 ; am_devices_mspi_psram_aps12808l_ddr_init + 712
        0x00019120:    f64252c4    B..R    MOV      r2,#0x2dc4
        0x00019124:    f2c10200    ....    MOVT     r2,#0x1000
        0x00019128:    6810        .h      LDR      r0,[r2,#0]
        0x0001912a:    6851        Qh      LDR      r1,[r2,#4]
        0x0001912c:    6892        .h      LDR      r2,[r2,#8]
        0x0001912e:    920d        ..      STR      r2,[sp,#0x34]
        0x00019130:    910c        ..      STR      r1,[sp,#0x30]
        0x00019132:    900b        ..      STR      r0,[sp,#0x2c]
        0x00019134:    9819        ..      LDR      r0,[sp,#0x64]
        0x00019136:    6880        .h      LDR      r0,[r0,#8]
        0x00019138:    900b        ..      STR      r0,[sp,#0x2c]
        0x0001913a:    9819        ..      LDR      r0,[sp,#0x64]
        0x0001913c:    6840        @h      LDR      r0,[r0,#4]
        0x0001913e:    900c        ..      STR      r0,[sp,#0x30]
        0x00019140:    980f        ..      LDR      r0,[sp,#0x3c]
        0x00019142:    a90b        ..      ADD      r1,sp,#0x2c
        0x00019144:    f001fa98    ....    BL       am_hal_mspi_configure ; 0x1a678
        0x00019148:    b118        ..      CBZ      r0,0x19152 ; am_devices_mspi_psram_aps12808l_ddr_init + 274
        0x0001914a:    e7ff        ..      B        0x1914c ; am_devices_mspi_psram_aps12808l_ddr_init + 268
        0x0001914c:    2001        .       MOVS     r0,#1
        0x0001914e:    901b        ..      STR      r0,[sp,#0x6c]
        0x00019150:    e0da        ..      B        0x19308 ; am_devices_mspi_psram_aps12808l_ddr_init + 712
        0x00019152:    980f        ..      LDR      r0,[sp,#0x3c]
        0x00019154:    a910        ..      ADD      r1,sp,#0x40
        0x00019156:    f002f884    ....    BL       am_hal_mspi_device_configure ; 0x1b262
        0x0001915a:    b118        ..      CBZ      r0,0x19164 ; am_devices_mspi_psram_aps12808l_ddr_init + 292
        0x0001915c:    e7ff        ..      B        0x1915e ; am_devices_mspi_psram_aps12808l_ddr_init + 286
        0x0001915e:    2001        .       MOVS     r0,#1
        0x00019160:    901b        ..      STR      r0,[sp,#0x6c]
        0x00019162:    e0d1        ..      B        0x19308 ; am_devices_mspi_psram_aps12808l_ddr_init + 712
        0x00019164:    991a        ..      LDR      r1,[sp,#0x68]
        0x00019166:    f2400064    @.d.    MOVW     r0,#0x64
        0x0001916a:    f2c10000    ....    MOVT     r0,#0x1000
        0x0001916e:    eb001c01    ....    ADD      r12,r0,r1,LSL #4
        0x00019172:    0109        ..      LSLS     r1,r1,#4
        0x00019174:    f8dc2004    ...     LDR      r2,[r12,#4]
        0x00019178:    f8dc3008    ...0    LDR      r3,[r12,#8]
        0x0001917c:    f8dcc00c    ....    LDR      r12,[r12,#0xc]
        0x00019180:    f8cdc028    ..(.    STR      r12,[sp,#0x28]
        0x00019184:    9309        ..      STR      r3,[sp,#0x24]
        0x00019186:    9208        ..      STR      r2,[sp,#0x20]
        0x00019188:    5840        @X      LDR      r0,[r0,r1]
        0x0001918a:    9007        ..      STR      r0,[sp,#0x1c]
        0x0001918c:    9819        ..      LDR      r0,[sp,#0x64]
        0x0001918e:    68c0        .h      LDR      r0,[r0,#0xc]
        0x00019190:    9007        ..      STR      r0,[sp,#0x1c]
        0x00019192:    9819        ..      LDR      r0,[sp,#0x64]
        0x00019194:    6900        .i      LDR      r0,[r0,#0x10]
        0x00019196:    9008        ..      STR      r0,[sp,#0x20]
        0x00019198:    980f        ..      LDR      r0,[sp,#0x3c]
        0x0001919a:    210c        .!      MOVS     r1,#0xc
        0x0001919c:    aa07        ..      ADD      r2,sp,#0x1c
        0x0001919e:    f001faed    ....    BL       am_hal_mspi_control ; 0x1a77c
        0x000191a2:    9016        ..      STR      r0,[sp,#0x58]
        0x000191a4:    9816        ..      LDR      r0,[sp,#0x58]
        0x000191a6:    b118        ..      CBZ      r0,0x191b0 ; am_devices_mspi_psram_aps12808l_ddr_init + 368
        0x000191a8:    e7ff        ..      B        0x191aa ; am_devices_mspi_psram_aps12808l_ddr_init + 362
        0x000191aa:    2001        .       MOVS     r0,#1
        0x000191ac:    901b        ..      STR      r0,[sp,#0x6c]
        0x000191ae:    e0ab        ..      B        0x19308 ; am_devices_mspi_psram_aps12808l_ddr_init + 712
        0x000191b0:    981a        ..      LDR      r0,[sp,#0x68]
        0x000191b2:    eb000240    ..@.    ADD      r2,r0,r0,LSL #1
        0x000191b6:    f24000a8    @...    MOVW     r0,#0xa8
        0x000191ba:    f2c10000    ....    MOVT     r0,#0x1000
        0x000191be:    eb000182    ....    ADD      r1,r0,r2,LSL #2
        0x000191c2:    f8500022    P.".    LDR      r0,[r0,r2,LSL #2]
        0x000191c6:    9004        ..      STR      r0,[sp,#0x10]
        0x000191c8:    6848        Hh      LDR      r0,[r1,#4]
        0x000191ca:    6889        .h      LDR      r1,[r1,#8]
        0x000191cc:    9106        ..      STR      r1,[sp,#0x18]
        0x000191ce:    9005        ..      STR      r0,[sp,#0x14]
        0x000191d0:    980f        ..      LDR      r0,[sp,#0x3c]
        0x000191d2:    210d        .!      MOVS     r1,#0xd
        0x000191d4:    aa04        ..      ADD      r2,sp,#0x10
        0x000191d6:    f001fad1    ....    BL       am_hal_mspi_control ; 0x1a77c
        0x000191da:    9016        ..      STR      r0,[sp,#0x58]
        0x000191dc:    9816        ..      LDR      r0,[sp,#0x58]
        0x000191de:    b118        ..      CBZ      r0,0x191e8 ; am_devices_mspi_psram_aps12808l_ddr_init + 424
        0x000191e0:    e7ff        ..      B        0x191e2 ; am_devices_mspi_psram_aps12808l_ddr_init + 418
        0x000191e2:    2001        .       MOVS     r0,#1
        0x000191e4:    901b        ..      STR      r0,[sp,#0x6c]
        0x000191e6:    e08f        ..      B        0x19308 ; am_devices_mspi_psram_aps12808l_ddr_init + 712
        0x000191e8:    9a1a        ..      LDR      r2,[sp,#0x68]
        0x000191ea:    f2400040    @.@.    MOVW     r0,#0x40
        0x000191ee:    f2c10000    ....    MOVT     r0,#0x1000
        0x000191f2:    210b        .!      MOVS     r1,#0xb
        0x000191f4:    fb020c01    ....    MLA      r12,r2,r1,r0
        0x000191f8:    434a        JC      MULS     r2,r1,r2
        0x000191fa:    f8dc3004    ...0    LDR      r3,[r12,#4]
        0x000191fe:    f8dcc007    ....    LDR      r12,[r12,#7]
        0x00019202:    f8cdc00b    ....    STR      r12,[sp,#0xb]
        0x00019206:    9302        ..      STR      r3,[sp,#8]
        0x00019208:    5880        .X      LDR      r0,[r0,r2]
        0x0001920a:    9001        ..      STR      r0,[sp,#4]
        0x0001920c:    980f        ..      LDR      r0,[sp,#0x3c]
        0x0001920e:    aa01        ..      ADD      r2,sp,#4
        0x00019210:    f001fab4    ....    BL       am_hal_mspi_control ; 0x1a77c
        0x00019214:    9016        ..      STR      r0,[sp,#0x58]
        0x00019216:    9816        ..      LDR      r0,[sp,#0x58]
        0x00019218:    b118        ..      CBZ      r0,0x19222 ; am_devices_mspi_psram_aps12808l_ddr_init + 482
        0x0001921a:    e7ff        ..      B        0x1921c ; am_devices_mspi_psram_aps12808l_ddr_init + 476
        0x0001921c:    2001        .       MOVS     r0,#1
        0x0001921e:    901b        ..      STR      r0,[sp,#0x6c]
        0x00019220:    e072        r.      B        0x19308 ; am_devices_mspi_psram_aps12808l_ddr_init + 712
        0x00019222:    980f        ..      LDR      r0,[sp,#0x3c]
        0x00019224:    210a        .!      MOVS     r1,#0xa
        0x00019226:    2200        ."      MOVS     r2,#0
        0x00019228:    f001faa8    ....    BL       am_hal_mspi_control ; 0x1a77c
        0x0001922c:    9016        ..      STR      r0,[sp,#0x58]
        0x0001922e:    9816        ..      LDR      r0,[sp,#0x58]
        0x00019230:    b118        ..      CBZ      r0,0x1923a ; am_devices_mspi_psram_aps12808l_ddr_init + 506
        0x00019232:    e7ff        ..      B        0x19234 ; am_devices_mspi_psram_aps12808l_ddr_init + 500
        0x00019234:    2001        .       MOVS     r0,#1
        0x00019236:    901b        ..      STR      r0,[sp,#0x6c]
        0x00019238:    e066        f.      B        0x19308 ; am_devices_mspi_psram_aps12808l_ddr_init + 712
        0x0001923a:    980f        ..      LDR      r0,[sp,#0x3c]
        0x0001923c:    f002f93b    ..;.    BL       am_hal_mspi_enable ; 0x1b4b6
        0x00019240:    b118        ..      CBZ      r0,0x1924a ; am_devices_mspi_psram_aps12808l_ddr_init + 522
        0x00019242:    e7ff        ..      B        0x19244 ; am_devices_mspi_psram_aps12808l_ddr_init + 516
        0x00019244:    2001        .       MOVS     r0,#1
        0x00019246:    901b        ..      STR      r0,[sp,#0x6c]
        0x00019248:    e05e        ^.      B        0x19308 ; am_devices_mspi_psram_aps12808l_ddr_init + 712
        0x0001924a:    981a        ..      LDR      r0,[sp,#0x68]
        0x0001924c:    f89d1048    ..H.    LDRB     r1,[sp,#0x48]
        0x00019250:    f7fffa9c    ....    BL       am_bsp_mspi_pins_enable ; 0x1878c
        0x00019254:    2096        .       MOVS     r0,#0x96
        0x00019256:    f003fc69    ..i.    BL       am_util_delay_us ; 0x1cb2c
        0x0001925a:    980f        ..      LDR      r0,[sp,#0x3c]
        0x0001925c:    f000fbb4    ....    BL       am_devices_mspi_psram_aps12808l_reset ; 0x199c8
        0x00019260:    b118        ..      CBZ      r0,0x1926a ; am_devices_mspi_psram_aps12808l_ddr_init + 554
        0x00019262:    e7ff        ..      B        0x19264 ; am_devices_mspi_psram_aps12808l_ddr_init + 548
        0x00019264:    2001        .       MOVS     r0,#1
        0x00019266:    901b        ..      STR      r0,[sp,#0x6c]
        0x00019268:    e04e        N.      B        0x19308 ; am_devices_mspi_psram_aps12808l_ddr_init + 712
        0x0001926a:    2002        .       MOVS     r0,#2
        0x0001926c:    f003fc5e    ..^.    BL       am_util_delay_us ; 0x1cb2c
        0x00019270:    980f        ..      LDR      r0,[sp,#0x3c]
        0x00019272:    f000fa5b    ..[.    BL       am_devices_mspi_psram_aps12808l_id ; 0x1972c
        0x00019276:    b118        ..      CBZ      r0,0x19280 ; am_devices_mspi_psram_aps12808l_ddr_init + 576
        0x00019278:    e7ff        ..      B        0x1927a ; am_devices_mspi_psram_aps12808l_ddr_init + 570
        0x0001927a:    2001        .       MOVS     r0,#1
        0x0001927c:    901b        ..      STR      r0,[sp,#0x6c]
        0x0001927e:    e043        C.      B        0x19308 ; am_devices_mspi_psram_aps12808l_ddr_init + 712
        0x00019280:    980f        ..      LDR      r0,[sp,#0x3c]
        0x00019282:    f44f51d4    O..Q    MOV      r1,#0x1a80
        0x00019286:    f002f9ee    ....    BL       am_hal_mspi_interrupt_clear ; 0x1b666
        0x0001928a:    9016        ..      STR      r0,[sp,#0x58]
        0x0001928c:    9816        ..      LDR      r0,[sp,#0x58]
        0x0001928e:    b118        ..      CBZ      r0,0x19298 ; am_devices_mspi_psram_aps12808l_ddr_init + 600
        0x00019290:    e7ff        ..      B        0x19292 ; am_devices_mspi_psram_aps12808l_ddr_init + 594
        0x00019292:    2001        .       MOVS     r0,#1
        0x00019294:    901b        ..      STR      r0,[sp,#0x6c]
        0x00019296:    e037        7.      B        0x19308 ; am_devices_mspi_psram_aps12808l_ddr_init + 712
        0x00019298:    980f        ..      LDR      r0,[sp,#0x3c]
        0x0001929a:    f44f51d4    O..Q    MOV      r1,#0x1a80
        0x0001929e:    f002fa0f    ....    BL       am_hal_mspi_interrupt_enable ; 0x1b6c0
        0x000192a2:    9016        ..      STR      r0,[sp,#0x58]
        0x000192a4:    9816        ..      LDR      r0,[sp,#0x58]
        0x000192a6:    b118        ..      CBZ      r0,0x192b0 ; am_devices_mspi_psram_aps12808l_ddr_init + 624
        0x000192a8:    e7ff        ..      B        0x192aa ; am_devices_mspi_psram_aps12808l_ddr_init + 618
        0x000192aa:    2001        .       MOVS     r0,#1
        0x000192ac:    901b        ..      STR      r0,[sp,#0x6c]
        0x000192ae:    e02b        +.      B        0x19308 ; am_devices_mspi_psram_aps12808l_ddr_init + 712
        0x000192b0:    980e        ..      LDR      r0,[sp,#0x38]
        0x000192b2:    eb000040    ..@.    ADD      r0,r0,r0,LSL #1
        0x000192b6:    f64251ac    B..Q    MOV      r1,#0x2dac
        0x000192ba:    f2c10100    ....    MOVT     r1,#0x1000
        0x000192be:    eb010280    ....    ADD      r2,r1,r0,LSL #2
        0x000192c2:    2001        .       MOVS     r0,#1
        0x000192c4:    7250        Pr      STRB     r0,[r2,#9]
        0x000192c6:    980e        ..      LDR      r0,[sp,#0x38]
        0x000192c8:    eb000040    ..@.    ADD      r0,r0,r0,LSL #1
        0x000192cc:    eb010080    ....    ADD      r0,r1,r0,LSL #2
        0x000192d0:    9a18        ..      LDR      r2,[sp,#0x60]
        0x000192d2:    6010        .`      STR      r0,[r2,#0]
        0x000192d4:    980f        ..      LDR      r0,[sp,#0x3c]
        0x000192d6:    9a0e        ..      LDR      r2,[sp,#0x38]
        0x000192d8:    eb020242    ..B.    ADD      r2,r2,r2,LSL #1
        0x000192dc:    eb010282    ....    ADD      r2,r1,r2,LSL #2
        0x000192e0:    6050        P`      STR      r0,[r2,#4]
        0x000192e2:    9a17        ..      LDR      r2,[sp,#0x5c]
        0x000192e4:    6010        .`      STR      r0,[r2,#0]
        0x000192e6:    981a        ..      LDR      r0,[sp,#0x68]
        0x000192e8:    9a0e        ..      LDR      r2,[sp,#0x38]
        0x000192ea:    eb020242    ..B.    ADD      r2,r2,r2,LSL #1
        0x000192ee:    f8410022    A.".    STR      r0,[r1,r2,LSL #2]
        0x000192f2:    f89d0048    ..H.    LDRB     r0,[sp,#0x48]
        0x000192f6:    9a0e        ..      LDR      r2,[sp,#0x38]
        0x000192f8:    eb020242    ..B.    ADD      r2,r2,r2,LSL #1
        0x000192fc:    eb010182    ....    ADD      r1,r1,r2,LSL #2
        0x00019300:    7208        .r      STRB     r0,[r1,#8]
        0x00019302:    2000        .       MOVS     r0,#0
        0x00019304:    901b        ..      STR      r0,[sp,#0x6c]
        0x00019306:    e7ff        ..      B        0x19308 ; am_devices_mspi_psram_aps12808l_ddr_init + 712
        0x00019308:    981b        ..      LDR      r0,[sp,#0x6c]
        0x0001930a:    b01c        ..      ADD      sp,sp,#0x70
        0x0001930c:    bd80        ..      POP      {r7,pc}
        0x0001930e:    0000        ..      MOVS     r0,r0
    am_devices_mspi_psram_aps12808l_ddr_init_timing_check
        0x00019310:    b580        ..      PUSH     {r7,lr}
        0x00019312:    b0a4        ..      SUB      sp,sp,#0x90
        0x00019314:    9022        ".      STR      r0,[sp,#0x88]
        0x00019316:    9121        !.      STR      r1,[sp,#0x84]
        0x00019318:    9220         .      STR      r2,[sp,#0x80]
        0x0001931a:    a80d        ..      ADD      r0,sp,#0x34
        0x0001931c:    2140        @!      MOVS     r1,#0x40
        0x0001931e:    f7fff884    ....    BL       __aeabi_memclr4 ; 0x1842a
        0x00019322:    2010        .       MOVS     r0,#0x10
        0x00019324:    900c        ..      STR      r0,[sp,#0x30]
        0x00019326:    f64e727d    N.}r    MOV      r2,#0xef7d
        0x0001932a:    f2c00201    ....    MOVT     r2,#1
        0x0001932e:    6810        .h      LDR      r0,[r2,#0]
        0x00019330:    6851        Qh      LDR      r1,[r2,#4]
        0x00019332:    f8d22007    ...     LDR      r2,[r2,#7]
        0x00019336:    f8cd202b    ..+     STR      r2,[sp,#0x2b]
        0x0001933a:    910a        ..      STR      r1,[sp,#0x28]
        0x0001933c:    9009        ..      STR      r0,[sp,#0x24]
        0x0001933e:    9821        !.      LDR      r0,[sp,#0x84]
        0x00019340:    7800        .x      LDRB     r0,[r0,#0]
        0x00019342:    4601        .F      MOV      r1,r0
        0x00019344:    9100        ..      STR      r1,[sp,#0]
        0x00019346:    2808        .(      CMP      r0,#8
        0x00019348:    d004        ..      BEQ      0x19354 ; am_devices_mspi_psram_aps12808l_ddr_init_timing_check + 68
        0x0001934a:    e7ff        ..      B        0x1934c ; am_devices_mspi_psram_aps12808l_ddr_init_timing_check + 60
        0x0001934c:    9800        ..      LDR      r0,[sp,#0]
        0x0001934e:    2809        .(      CMP      r0,#9
        0x00019350:    d006        ..      BEQ      0x19360 ; am_devices_mspi_psram_aps12808l_ddr_init_timing_check + 80
        0x00019352:    e00b        ..      B        0x1936c ; am_devices_mspi_psram_aps12808l_ddr_init_timing_check + 92
        0x00019354:    f2400000    @...    MOVW     r0,#0
        0x00019358:    f2c10000    ....    MOVT     r0,#0x1000
        0x0001935c:    9008        ..      STR      r0,[sp,#0x20]
        0x0001935e:    e008        ..      B        0x19372 ; am_devices_mspi_psram_aps12808l_ddr_init_timing_check + 98
        0x00019360:    f2400016    @...    MOVW     r0,#0x16
        0x00019364:    f2c10000    ....    MOVT     r0,#0x1000
        0x00019368:    9008        ..      STR      r0,[sp,#0x20]
        0x0001936a:    e002        ..      B        0x19372 ; am_devices_mspi_psram_aps12808l_ddr_init_timing_check + 98
        0x0001936c:    2001        .       MOVS     r0,#1
        0x0001936e:    9023        #.      STR      r0,[sp,#0x8c]
        0x00019370:    e0dd        ..      B        0x1952e ; am_devices_mspi_psram_aps12808l_ddr_init_timing_check + 542
        0x00019372:    9808        ..      LDR      r0,[sp,#0x20]
        0x00019374:    8a40        @.      LDRH     r0,[r0,#0x12]
        0x00019376:    f8ad001e    ....    STRH     r0,[sp,#0x1e]
        0x0001937a:    9808        ..      LDR      r0,[sp,#0x20]
        0x0001937c:    7d00        .}      LDRB     r0,[r0,#0x14]
        0x0001937e:    f88d001d    ....    STRB     r0,[sp,#0x1d]
        0x00019382:    9908        ..      LDR      r1,[sp,#0x20]
        0x00019384:    2000        .       MOVS     r0,#0
        0x00019386:    8248        H.      STRH     r0,[r1,#0x12]
        0x00019388:    9908        ..      LDR      r1,[sp,#0x20]
        0x0001938a:    7508        .u      STRB     r0,[r1,#0x14]
        0x0001938c:    9822        ".      LDR      r0,[sp,#0x88]
        0x0001938e:    9921        !.      LDR      r1,[sp,#0x84]
        0x00019390:    aa1e        ..      ADD      r2,sp,#0x78
        0x00019392:    ab1d        ..      ADD      r3,sp,#0x74
        0x00019394:    f7fffe54    ..T.    BL       am_devices_mspi_psram_aps12808l_ddr_init ; 0x19040
        0x00019398:    901f        ..      STR      r0,[sp,#0x7c]
        0x0001939a:    981f        ..      LDR      r0,[sp,#0x7c]
        0x0001939c:    b118        ..      CBZ      r0,0x193a6 ; am_devices_mspi_psram_aps12808l_ddr_init_timing_check + 150
        0x0001939e:    e7ff        ..      B        0x193a0 ; am_devices_mspi_psram_aps12808l_ddr_init_timing_check + 144
        0x000193a0:    981f        ..      LDR      r0,[sp,#0x7c]
        0x000193a2:    9023        #.      STR      r0,[sp,#0x8c]
        0x000193a4:    e0c3        ..      B        0x1952e ; am_devices_mspi_psram_aps12808l_ddr_init_timing_check + 542
        0x000193a6:    f8bd001e    ....    LDRH     r0,[sp,#0x1e]
        0x000193aa:    9908        ..      LDR      r1,[sp,#0x20]
        0x000193ac:    8248        H.      STRH     r0,[r1,#0x12]
        0x000193ae:    f89d001d    ....    LDRB     r0,[sp,#0x1d]
        0x000193b2:    9908        ..      LDR      r1,[sp,#0x20]
        0x000193b4:    7508        .u      STRB     r0,[r1,#0x14]
        0x000193b6:    981e        ..      LDR      r0,[sp,#0x78]
        0x000193b8:    f7fffe10    ....    BL       am_devices_mspi_psram_aps12808l_ddr_enable_xip ; 0x18fdc
        0x000193bc:    901f        ..      STR      r0,[sp,#0x7c]
        0x000193be:    981f        ..      LDR      r0,[sp,#0x7c]
        0x000193c0:    b118        ..      CBZ      r0,0x193ca ; am_devices_mspi_psram_aps12808l_ddr_init_timing_check + 186
        0x000193c2:    e7ff        ..      B        0x193c4 ; am_devices_mspi_psram_aps12808l_ddr_init_timing_check + 180
        0x000193c4:    981f        ..      LDR      r0,[sp,#0x7c]
        0x000193c6:    9023        #.      STR      r0,[sp,#0x8c]
        0x000193c8:    e0b1        ..      B        0x1952e ; am_devices_mspi_psram_aps12808l_ddr_init_timing_check + 542
        0x000193ca:    2000        .       MOVS     r0,#0
        0x000193cc:    f88d001c    ....    STRB     r0,[sp,#0x1c]
        0x000193d0:    e7ff        ..      B        0x193d2 ; am_devices_mspi_psram_aps12808l_ddr_init_timing_check + 194
        0x000193d2:    f89d001c    ....    LDRB     r0,[sp,#0x1c]
        0x000193d6:    280f        .(      CMP      r0,#0xf
        0x000193d8:    d85c        \.      BHI      0x19494 ; am_devices_mspi_psram_aps12808l_ddr_init_timing_check + 388
        0x000193da:    e7ff        ..      B        0x193dc ; am_devices_mspi_psram_aps12808l_ddr_init_timing_check + 204
        0x000193dc:    f89d001c    ....    LDRB     r0,[sp,#0x1c]
        0x000193e0:    0101        ..      LSLS     r1,r0,#4
        0x000193e2:    f24f10b0    O...    MOV      r0,#0xf1b0
        0x000193e6:    f2c00001    ....    MOVT     r0,#1
        0x000193ea:    5c41        A\      LDRB     r1,[r0,r1]
        0x000193ec:    f88d102d    ..-.    STRB     r1,[sp,#0x2d]
        0x000193f0:    f88d102c    ..,.    STRB     r1,[sp,#0x2c]
        0x000193f4:    f89d101c    ....    LDRB     r1,[sp,#0x1c]
        0x000193f8:    eb001001    ....    ADD      r0,r0,r1,LSL #4
        0x000193fc:    6840        @h      LDR      r0,[r0,#4]
        0x000193fe:    2800        .(      CMP      r0,#0
        0x00019400:    bf18        ..      IT       NE
        0x00019402:    2001        .       MOVNE    r0,#1
        0x00019404:    f88d002e    ....    STRB     r0,[sp,#0x2e]
        0x00019408:    2001        .       MOVS     r0,#1
        0x0001940a:    f88d001b    ....    STRB     r0,[sp,#0x1b]
        0x0001940e:    e7ff        ..      B        0x19410 ; am_devices_mspi_psram_aps12808l_ddr_init_timing_check + 256
        0x00019410:    f89d001b    ....    LDRB     r0,[sp,#0x1b]
        0x00019414:    281e        .(      CMP      r0,#0x1e
        0x00019416:    dc36        6.      BGT      0x19486 ; am_devices_mspi_psram_aps12808l_ddr_init_timing_check + 374
        0x00019418:    e7ff        ..      B        0x1941a ; am_devices_mspi_psram_aps12808l_ddr_init_timing_check + 266
        0x0001941a:    f89d001b    ....    LDRB     r0,[sp,#0x1b]
        0x0001941e:    f88d0027    ..'.    STRB     r0,[sp,#0x27]
        0x00019422:    981d        ..      LDR      r0,[sp,#0x74]
        0x00019424:    210b        .!      MOVS     r1,#0xb
        0x00019426:    aa09        ..      ADD      r2,sp,#0x24
        0x00019428:    f001f9a8    ....    BL       am_hal_mspi_control ; 0x1a77c
        0x0001942c:    901f        ..      STR      r0,[sp,#0x7c]
        0x0001942e:    981f        ..      LDR      r0,[sp,#0x7c]
        0x00019430:    b118        ..      CBZ      r0,0x1943a ; am_devices_mspi_psram_aps12808l_ddr_init_timing_check + 298
        0x00019432:    e7ff        ..      B        0x19434 ; am_devices_mspi_psram_aps12808l_ddr_init_timing_check + 292
        0x00019434:    2001        .       MOVS     r0,#1
        0x00019436:    9023        #.      STR      r0,[sp,#0x8c]
        0x00019438:    e079        y.      B        0x1952e ; am_devices_mspi_psram_aps12808l_ddr_init_timing_check + 542
        0x0001943a:    9922        ".      LDR      r1,[sp,#0x88]
        0x0001943c:    f64f401c    O..@    MOV      r0,#0xfc1c
        0x00019440:    f2c00001    ....    MOVT     r0,#1
        0x00019444:    f8500021    P.!.    LDR      r0,[r0,r1,LSL #2]
        0x00019448:    f89d101b    ....    LDRB     r1,[sp,#0x1b]
        0x0001944c:    4401        .D      ADD      r1,r1,r0
        0x0001944e:    f44f3000    O..0    MOV      r0,#0x20000
        0x00019452:    f005f9c9    ....    BL       psram_check ; 0x1e7e8
        0x00019456:    b970        p.      CBNZ     r0,0x19476 ; am_devices_mspi_psram_aps12808l_ddr_init_timing_check + 358
        0x00019458:    e7ff        ..      B        0x1945a ; am_devices_mspi_psram_aps12808l_ddr_init_timing_check + 330
        0x0001945a:    f89d101b    ....    LDRB     r1,[sp,#0x1b]
        0x0001945e:    2001        .       MOVS     r0,#1
        0x00019460:    fa00f301    ....    LSL      r3,r0,r1
        0x00019464:    f89d201c    ...     LDRB     r2,[sp,#0x1c]
        0x00019468:    a90d        ..      ADD      r1,sp,#0x34
        0x0001946a:    f8510022    Q.".    LDR      r0,[r1,r2,LSL #2]
        0x0001946e:    4318        .C      ORRS     r0,r0,r3
        0x00019470:    f8410022    A.".    STR      r0,[r1,r2,LSL #2]
        0x00019474:    e000        ..      B        0x19478 ; am_devices_mspi_psram_aps12808l_ddr_init_timing_check + 360
        0x00019476:    e7ff        ..      B        0x19478 ; am_devices_mspi_psram_aps12808l_ddr_init_timing_check + 360
        0x00019478:    e7ff        ..      B        0x1947a ; am_devices_mspi_psram_aps12808l_ddr_init_timing_check + 362
        0x0001947a:    f89d001b    ....    LDRB     r0,[sp,#0x1b]
        0x0001947e:    3001        .0      ADDS     r0,#1
        0x00019480:    f88d001b    ....    STRB     r0,[sp,#0x1b]
        0x00019484:    e7c4        ..      B        0x19410 ; am_devices_mspi_psram_aps12808l_ddr_init_timing_check + 256
        0x00019486:    e7ff        ..      B        0x19488 ; am_devices_mspi_psram_aps12808l_ddr_init_timing_check + 376
        0x00019488:    f89d001c    ....    LDRB     r0,[sp,#0x1c]
        0x0001948c:    3001        .0      ADDS     r0,#1
        0x0001948e:    f88d001c    ....    STRB     r0,[sp,#0x1c]
        0x00019492:    e79e        ..      B        0x193d2 ; am_devices_mspi_psram_aps12808l_ddr_init_timing_check + 194
        0x00019494:    2000        .       MOVS     r0,#0
        0x00019496:    9005        ..      STR      r0,[sp,#0x14]
        0x00019498:    9004        ..      STR      r0,[sp,#0x10]
        0x0001949a:    9003        ..      STR      r0,[sp,#0xc]
        0x0001949c:    9002        ..      STR      r0,[sp,#8]
        0x0001949e:    e7ff        ..      B        0x194a0 ; am_devices_mspi_psram_aps12808l_ddr_init_timing_check + 400
        0x000194a0:    9802        ..      LDR      r0,[sp,#8]
        0x000194a2:    280f        .(      CMP      r0,#0xf
        0x000194a4:    d816        ..      BHI      0x194d4 ; am_devices_mspi_psram_aps12808l_ddr_init_timing_check + 452
        0x000194a6:    e7ff        ..      B        0x194a8 ; am_devices_mspi_psram_aps12808l_ddr_init_timing_check + 408
        0x000194a8:    9902        ..      LDR      r1,[sp,#8]
        0x000194aa:    a80d        ..      ADD      r0,sp,#0x34
        0x000194ac:    eb000081    ....    ADD      r0,r0,r1,LSL #2
        0x000194b0:    f004f9ce    ....    BL       count_consecutive_ones ; 0x1d850
        0x000194b4:    9003        ..      STR      r0,[sp,#0xc]
        0x000194b6:    9803        ..      LDR      r0,[sp,#0xc]
        0x000194b8:    9904        ..      LDR      r1,[sp,#0x10]
        0x000194ba:    4288        .B      CMP      r0,r1
        0x000194bc:    d905        ..      BLS      0x194ca ; am_devices_mspi_psram_aps12808l_ddr_init_timing_check + 442
        0x000194be:    e7ff        ..      B        0x194c0 ; am_devices_mspi_psram_aps12808l_ddr_init_timing_check + 432
        0x000194c0:    9803        ..      LDR      r0,[sp,#0xc]
        0x000194c2:    9004        ..      STR      r0,[sp,#0x10]
        0x000194c4:    9802        ..      LDR      r0,[sp,#8]
        0x000194c6:    9005        ..      STR      r0,[sp,#0x14]
        0x000194c8:    e7ff        ..      B        0x194ca ; am_devices_mspi_psram_aps12808l_ddr_init_timing_check + 442
        0x000194ca:    e7ff        ..      B        0x194cc ; am_devices_mspi_psram_aps12808l_ddr_init_timing_check + 444
        0x000194cc:    9802        ..      LDR      r0,[sp,#8]
        0x000194ce:    3001        .0      ADDS     r0,#1
        0x000194d0:    9002        ..      STR      r0,[sp,#8]
        0x000194d2:    e7e5        ..      B        0x194a0 ; am_devices_mspi_psram_aps12808l_ddr_init_timing_check + 400
        0x000194d4:    9804        ..      LDR      r0,[sp,#0x10]
        0x000194d6:    2807        .(      CMP      r0,#7
        0x000194d8:    d803        ..      BHI      0x194e2 ; am_devices_mspi_psram_aps12808l_ddr_init_timing_check + 466
        0x000194da:    e7ff        ..      B        0x194dc ; am_devices_mspi_psram_aps12808l_ddr_init_timing_check + 460
        0x000194dc:    2001        .       MOVS     r0,#1
        0x000194de:    9023        #.      STR      r0,[sp,#0x8c]
        0x000194e0:    e025        %.      B        0x1952e ; am_devices_mspi_psram_aps12808l_ddr_init_timing_check + 542
        0x000194e2:    9905        ..      LDR      r1,[sp,#0x14]
        0x000194e4:    a80d        ..      ADD      r0,sp,#0x34
        0x000194e6:    eb000081    ....    ADD      r0,r0,r1,LSL #2
        0x000194ea:    f004faa7    ....    BL       find_mid_point ; 0x1da3c
        0x000194ee:    9001        ..      STR      r0,[sp,#4]
        0x000194f0:    9901        ..      LDR      r1,[sp,#4]
        0x000194f2:    f64f30b1    O..0    MOV      r0,#0xfbb1
        0x000194f6:    f2c00001    ....    MOVT     r0,#1
        0x000194fa:    f003fcb3    ....    BL       am_util_stdio_printf ; 0x1ce64
        0x000194fe:    981e        ..      LDR      r0,[sp,#0x78]
        0x00019500:    f7fffce8    ....    BL       am_devices_mspi_psram_aps12808l_ddr_deinit ; 0x18ed4
        0x00019504:    9801        ..      LDR      r0,[sp,#4]
        0x00019506:    9920         .      LDR      r1,[sp,#0x80]
        0x00019508:    6088        .`      STR      r0,[r1,#8]
        0x0001950a:    9905        ..      LDR      r1,[sp,#0x14]
        0x0001950c:    f24f10b0    O...    MOV      r0,#0xf1b0
        0x00019510:    f2c00001    ....    MOVT     r0,#1
        0x00019514:    eb001101    ....    ADD      r1,r0,r1,LSL #4
        0x00019518:    6849        Ih      LDR      r1,[r1,#4]
        0x0001951a:    9a20         .      LDR      r2,[sp,#0x80]
        0x0001951c:    6051        Q`      STR      r1,[r2,#4]
        0x0001951e:    9905        ..      LDR      r1,[sp,#0x14]
        0x00019520:    0109        ..      LSLS     r1,r1,#4
        0x00019522:    5840        @X      LDR      r0,[r0,r1]
        0x00019524:    9920         .      LDR      r1,[sp,#0x80]
        0x00019526:    6008        .`      STR      r0,[r1,#0]
        0x00019528:    2000        .       MOVS     r0,#0
        0x0001952a:    9023        #.      STR      r0,[sp,#0x8c]
        0x0001952c:    e7ff        ..      B        0x1952e ; am_devices_mspi_psram_aps12808l_ddr_init_timing_check + 542
        0x0001952e:    9823        #.      LDR      r0,[sp,#0x8c]
        0x00019530:    b024        $.      ADD      sp,sp,#0x90
        0x00019532:    bd80        ..      POP      {r7,pc}
    am_devices_mspi_psram_aps12808l_ddr_read
        0x00019534:    b510        ..      PUSH     {r4,lr}
        0x00019536:    b090        ..      SUB      sp,sp,#0x40
        0x00019538:    4684        .F      MOV      r12,r0
        0x0001953a:    9812        ..      LDR      r0,[sp,#0x48]
        0x0001953c:    f8cdc038    ..8.    STR      r12,[sp,#0x38]
        0x00019540:    910d        ..      STR      r1,[sp,#0x34]
        0x00019542:    920c        ..      STR      r2,[sp,#0x30]
        0x00019544:    930b        ..      STR      r3,[sp,#0x2c]
        0x00019546:    f88d002b    ..+.    STRB     r0,[sp,#0x2b]
        0x0001954a:    980e        ..      LDR      r0,[sp,#0x38]
        0x0001954c:    9008        ..      STR      r0,[sp,#0x20]
        0x0001954e:    f89d002b    ..+.    LDRB     r0,[sp,#0x2b]
        0x00019552:    07c0        ..      LSLS     r0,r0,#31
        0x00019554:    2800        .(      CMP      r0,#0
        0x00019556:    d047        G.      BEQ      0x195e8 ; am_devices_mspi_psram_aps12808l_ddr_read + 180
        0x00019558:    e7ff        ..      B        0x1955a ; am_devices_mspi_psram_aps12808l_ddr_read + 38
        0x0001955a:    2200        ."      MOVS     r2,#0
        0x0001955c:    f88d201f    ...     STRB     r2,[sp,#0x1f]
        0x00019560:    9808        ..      LDR      r0,[sp,#0x20]
        0x00019562:    9b0d        ..      LDR      r3,[sp,#0x34]
        0x00019564:    990c        ..      LDR      r1,[sp,#0x30]
        0x00019566:    f8dde02c    ..,.    LDR      lr,[sp,#0x2c]
        0x0001956a:    46ec        .F      MOV      r12,sp
        0x0001956c:    f10d041f    ....    ADD      r4,sp,#0x1f
        0x00019570:    f8cc4014    ...@    STR      r4,[r12,#0x14]
        0x00019574:    f24e64a5    N..d    MOV      r4,#0xe6a5
        0x00019578:    f2c00401    ....    MOVT     r4,#1
        0x0001957c:    f8cc4010    ...@    STR      r4,[r12,#0x10]
        0x00019580:    f8cc200c    ...     STR      r2,[r12,#0xc]
        0x00019584:    f8cc2008    ...     STR      r2,[r12,#8]
        0x00019588:    f8cce004    ....    STR      lr,[r12,#4]
        0x0001958c:    f8cc1000    ....    STR      r1,[r12,#0]
        0x00019590:    4611        .F      MOV      r1,r2
        0x00019592:    f005f99b    ....    BL       psram_nonblocking_transfer ; 0x1e8cc
        0x00019596:    9009        ..      STR      r0,[sp,#0x24]
        0x00019598:    9809        ..      LDR      r0,[sp,#0x24]
        0x0001959a:    b118        ..      CBZ      r0,0x195a4 ; am_devices_mspi_psram_aps12808l_ddr_read + 112
        0x0001959c:    e7ff        ..      B        0x1959e ; am_devices_mspi_psram_aps12808l_ddr_read + 106
        0x0001959e:    2001        .       MOVS     r0,#1
        0x000195a0:    900f        ..      STR      r0,[sp,#0x3c]
        0x000195a2:    e042        B.      B        0x1962a ; am_devices_mspi_psram_aps12808l_ddr_read + 246
        0x000195a4:    2000        .       MOVS     r0,#0
        0x000195a6:    9006        ..      STR      r0,[sp,#0x18]
        0x000195a8:    e7ff        ..      B        0x195aa ; am_devices_mspi_psram_aps12808l_ddr_read + 118
        0x000195aa:    9806        ..      LDR      r0,[sp,#0x18]
        0x000195ac:    f244213f    D.?!    MOV      r1,#0x423f
        0x000195b0:    f2c0010f    ....    MOVT     r1,#0xf
        0x000195b4:    4288        .B      CMP      r0,r1
        0x000195b6:    d80e        ..      BHI      0x195d6 ; am_devices_mspi_psram_aps12808l_ddr_read + 162
        0x000195b8:    e7ff        ..      B        0x195ba ; am_devices_mspi_psram_aps12808l_ddr_read + 134
        0x000195ba:    f89d001f    ....    LDRB     r0,[sp,#0x1f]
        0x000195be:    07c0        ..      LSLS     r0,r0,#31
        0x000195c0:    b108        ..      CBZ      r0,0x195c6 ; am_devices_mspi_psram_aps12808l_ddr_read + 146
        0x000195c2:    e7ff        ..      B        0x195c4 ; am_devices_mspi_psram_aps12808l_ddr_read + 144
        0x000195c4:    e007        ..      B        0x195d6 ; am_devices_mspi_psram_aps12808l_ddr_read + 162
        0x000195c6:    2001        .       MOVS     r0,#1
        0x000195c8:    f000fe08    ....    BL       am_hal_delay_us ; 0x1a1dc
        0x000195cc:    e7ff        ..      B        0x195ce ; am_devices_mspi_psram_aps12808l_ddr_read + 154
        0x000195ce:    9806        ..      LDR      r0,[sp,#0x18]
        0x000195d0:    3001        .0      ADDS     r0,#1
        0x000195d2:    9006        ..      STR      r0,[sp,#0x18]
        0x000195d4:    e7e9        ..      B        0x195aa ; am_devices_mspi_psram_aps12808l_ddr_read + 118
        0x000195d6:    f89d001f    ....    LDRB     r0,[sp,#0x1f]
        0x000195da:    07c0        ..      LSLS     r0,r0,#31
        0x000195dc:    b918        ..      CBNZ     r0,0x195e6 ; am_devices_mspi_psram_aps12808l_ddr_read + 178
        0x000195de:    e7ff        ..      B        0x195e0 ; am_devices_mspi_psram_aps12808l_ddr_read + 172
        0x000195e0:    2001        .       MOVS     r0,#1
        0x000195e2:    900f        ..      STR      r0,[sp,#0x3c]
        0x000195e4:    e021        !.      B        0x1962a ; am_devices_mspi_psram_aps12808l_ddr_read + 246
        0x000195e6:    e01d        ..      B        0x19624 ; am_devices_mspi_psram_aps12808l_ddr_read + 240
        0x000195e8:    9808        ..      LDR      r0,[sp,#0x20]
        0x000195ea:    9b0d        ..      LDR      r3,[sp,#0x34]
        0x000195ec:    990c        ..      LDR      r1,[sp,#0x30]
        0x000195ee:    f8dde02c    ..,.    LDR      lr,[sp,#0x2c]
        0x000195f2:    46ec        .F      MOV      r12,sp
        0x000195f4:    2200        ."      MOVS     r2,#0
        0x000195f6:    f8cc2014    ...     STR      r2,[r12,#0x14]
        0x000195fa:    f8cc2010    ...     STR      r2,[r12,#0x10]
        0x000195fe:    f8cc200c    ...     STR      r2,[r12,#0xc]
        0x00019602:    f8cc2008    ...     STR      r2,[r12,#8]
        0x00019606:    f8cce004    ....    STR      lr,[r12,#4]
        0x0001960a:    f8cc1000    ....    STR      r1,[r12,#0]
        0x0001960e:    4611        .F      MOV      r1,r2
        0x00019610:    f005f95c    ..\.    BL       psram_nonblocking_transfer ; 0x1e8cc
        0x00019614:    9009        ..      STR      r0,[sp,#0x24]
        0x00019616:    9809        ..      LDR      r0,[sp,#0x24]
        0x00019618:    b118        ..      CBZ      r0,0x19622 ; am_devices_mspi_psram_aps12808l_ddr_read + 238
        0x0001961a:    e7ff        ..      B        0x1961c ; am_devices_mspi_psram_aps12808l_ddr_read + 232
        0x0001961c:    2001        .       MOVS     r0,#1
        0x0001961e:    900f        ..      STR      r0,[sp,#0x3c]
        0x00019620:    e003        ..      B        0x1962a ; am_devices_mspi_psram_aps12808l_ddr_read + 246
        0x00019622:    e7ff        ..      B        0x19624 ; am_devices_mspi_psram_aps12808l_ddr_read + 240
        0x00019624:    2000        .       MOVS     r0,#0
        0x00019626:    900f        ..      STR      r0,[sp,#0x3c]
        0x00019628:    e7ff        ..      B        0x1962a ; am_devices_mspi_psram_aps12808l_ddr_read + 246
        0x0001962a:    980f        ..      LDR      r0,[sp,#0x3c]
        0x0001962c:    b010        ..      ADD      sp,sp,#0x40
        0x0001962e:    bd10        ..      POP      {r4,pc}
    am_devices_mspi_psram_aps12808l_ddr_write
        0x00019630:    b510        ..      PUSH     {r4,lr}
        0x00019632:    b090        ..      SUB      sp,sp,#0x40
        0x00019634:    4684        .F      MOV      r12,r0
        0x00019636:    9812        ..      LDR      r0,[sp,#0x48]
        0x00019638:    f8cdc038    ..8.    STR      r12,[sp,#0x38]
        0x0001963c:    910d        ..      STR      r1,[sp,#0x34]
        0x0001963e:    920c        ..      STR      r2,[sp,#0x30]
        0x00019640:    930b        ..      STR      r3,[sp,#0x2c]
        0x00019642:    f88d002b    ..+.    STRB     r0,[sp,#0x2b]
        0x00019646:    980e        ..      LDR      r0,[sp,#0x38]
        0x00019648:    9008        ..      STR      r0,[sp,#0x20]
        0x0001964a:    f89d002b    ..+.    LDRB     r0,[sp,#0x2b]
        0x0001964e:    07c0        ..      LSLS     r0,r0,#31
        0x00019650:    2800        .(      CMP      r0,#0
        0x00019652:    d047        G.      BEQ      0x196e4 ; am_devices_mspi_psram_aps12808l_ddr_write + 180
        0x00019654:    e7ff        ..      B        0x19656 ; am_devices_mspi_psram_aps12808l_ddr_write + 38
        0x00019656:    2100        .!      MOVS     r1,#0
        0x00019658:    f88d101f    ....    STRB     r1,[sp,#0x1f]
        0x0001965c:    9808        ..      LDR      r0,[sp,#0x20]
        0x0001965e:    9b0d        ..      LDR      r3,[sp,#0x34]
        0x00019660:    9a0c        ..      LDR      r2,[sp,#0x30]
        0x00019662:    f8dde02c    ..,.    LDR      lr,[sp,#0x2c]
        0x00019666:    46ec        .F      MOV      r12,sp
        0x00019668:    f10d041f    ....    ADD      r4,sp,#0x1f
        0x0001966c:    f8cc4014    ...@    STR      r4,[r12,#0x14]
        0x00019670:    f24e64a5    N..d    MOV      r4,#0xe6a5
        0x00019674:    f2c00401    ....    MOVT     r4,#1
        0x00019678:    f8cc4010    ...@    STR      r4,[r12,#0x10]
        0x0001967c:    f8cc100c    ....    STR      r1,[r12,#0xc]
        0x00019680:    f8cc1008    ....    STR      r1,[r12,#8]
        0x00019684:    f8cce004    ....    STR      lr,[r12,#4]
        0x00019688:    f8cc2000    ...     STR      r2,[r12,#0]
        0x0001968c:    2201        ."      MOVS     r2,#1
        0x0001968e:    f005f91d    ....    BL       psram_nonblocking_transfer ; 0x1e8cc
        0x00019692:    9009        ..      STR      r0,[sp,#0x24]
        0x00019694:    9809        ..      LDR      r0,[sp,#0x24]
        0x00019696:    b118        ..      CBZ      r0,0x196a0 ; am_devices_mspi_psram_aps12808l_ddr_write + 112
        0x00019698:    e7ff        ..      B        0x1969a ; am_devices_mspi_psram_aps12808l_ddr_write + 106
        0x0001969a:    2001        .       MOVS     r0,#1
        0x0001969c:    900f        ..      STR      r0,[sp,#0x3c]
        0x0001969e:    e042        B.      B        0x19726 ; am_devices_mspi_psram_aps12808l_ddr_write + 246
        0x000196a0:    2000        .       MOVS     r0,#0
        0x000196a2:    9006        ..      STR      r0,[sp,#0x18]
        0x000196a4:    e7ff        ..      B        0x196a6 ; am_devices_mspi_psram_aps12808l_ddr_write + 118
        0x000196a6:    9806        ..      LDR      r0,[sp,#0x18]
        0x000196a8:    f244213f    D.?!    MOV      r1,#0x423f
        0x000196ac:    f2c0010f    ....    MOVT     r1,#0xf
        0x000196b0:    4288        .B      CMP      r0,r1
        0x000196b2:    d80e        ..      BHI      0x196d2 ; am_devices_mspi_psram_aps12808l_ddr_write + 162
        0x000196b4:    e7ff        ..      B        0x196b6 ; am_devices_mspi_psram_aps12808l_ddr_write + 134
        0x000196b6:    f89d001f    ....    LDRB     r0,[sp,#0x1f]
        0x000196ba:    07c0        ..      LSLS     r0,r0,#31
        0x000196bc:    b108        ..      CBZ      r0,0x196c2 ; am_devices_mspi_psram_aps12808l_ddr_write + 146
        0x000196be:    e7ff        ..      B        0x196c0 ; am_devices_mspi_psram_aps12808l_ddr_write + 144
        0x000196c0:    e007        ..      B        0x196d2 ; am_devices_mspi_psram_aps12808l_ddr_write + 162
        0x000196c2:    2001        .       MOVS     r0,#1
        0x000196c4:    f000fd8a    ....    BL       am_hal_delay_us ; 0x1a1dc
        0x000196c8:    e7ff        ..      B        0x196ca ; am_devices_mspi_psram_aps12808l_ddr_write + 154
        0x000196ca:    9806        ..      LDR      r0,[sp,#0x18]
        0x000196cc:    3001        .0      ADDS     r0,#1
        0x000196ce:    9006        ..      STR      r0,[sp,#0x18]
        0x000196d0:    e7e9        ..      B        0x196a6 ; am_devices_mspi_psram_aps12808l_ddr_write + 118
        0x000196d2:    f89d001f    ....    LDRB     r0,[sp,#0x1f]
        0x000196d6:    07c0        ..      LSLS     r0,r0,#31
        0x000196d8:    b918        ..      CBNZ     r0,0x196e2 ; am_devices_mspi_psram_aps12808l_ddr_write + 178
        0x000196da:    e7ff        ..      B        0x196dc ; am_devices_mspi_psram_aps12808l_ddr_write + 172
        0x000196dc:    2001        .       MOVS     r0,#1
        0x000196de:    900f        ..      STR      r0,[sp,#0x3c]
        0x000196e0:    e021        !.      B        0x19726 ; am_devices_mspi_psram_aps12808l_ddr_write + 246
        0x000196e2:    e01d        ..      B        0x19720 ; am_devices_mspi_psram_aps12808l_ddr_write + 240
        0x000196e4:    9808        ..      LDR      r0,[sp,#0x20]
        0x000196e6:    9b0d        ..      LDR      r3,[sp,#0x34]
        0x000196e8:    9a0c        ..      LDR      r2,[sp,#0x30]
        0x000196ea:    f8dde02c    ..,.    LDR      lr,[sp,#0x2c]
        0x000196ee:    46ec        .F      MOV      r12,sp
        0x000196f0:    2100        .!      MOVS     r1,#0
        0x000196f2:    f8cc1014    ....    STR      r1,[r12,#0x14]
        0x000196f6:    f8cc1010    ....    STR      r1,[r12,#0x10]
        0x000196fa:    f8cc100c    ....    STR      r1,[r12,#0xc]
        0x000196fe:    f8cc1008    ....    STR      r1,[r12,#8]
        0x00019702:    f8cce004    ....    STR      lr,[r12,#4]
        0x00019706:    f8cc2000    ...     STR      r2,[r12,#0]
        0x0001970a:    2201        ."      MOVS     r2,#1
        0x0001970c:    f005f8de    ....    BL       psram_nonblocking_transfer ; 0x1e8cc
        0x00019710:    9009        ..      STR      r0,[sp,#0x24]
        0x00019712:    9809        ..      LDR      r0,[sp,#0x24]
        0x00019714:    b118        ..      CBZ      r0,0x1971e ; am_devices_mspi_psram_aps12808l_ddr_write + 238
        0x00019716:    e7ff        ..      B        0x19718 ; am_devices_mspi_psram_aps12808l_ddr_write + 232
        0x00019718:    2001        .       MOVS     r0,#1
        0x0001971a:    900f        ..      STR      r0,[sp,#0x3c]
        0x0001971c:    e003        ..      B        0x19726 ; am_devices_mspi_psram_aps12808l_ddr_write + 246
        0x0001971e:    e7ff        ..      B        0x19720 ; am_devices_mspi_psram_aps12808l_ddr_write + 240
        0x00019720:    2000        .       MOVS     r0,#0
        0x00019722:    900f        ..      STR      r0,[sp,#0x3c]
        0x00019724:    e7ff        ..      B        0x19726 ; am_devices_mspi_psram_aps12808l_ddr_write + 246
        0x00019726:    980f        ..      LDR      r0,[sp,#0x3c]
        0x00019728:    b010        ..      ADD      sp,sp,#0x40
        0x0001972a:    bd10        ..      POP      {r4,pc}
    am_devices_mspi_psram_aps12808l_id
        0x0001972c:    b580        ..      PUSH     {r7,lr}
        0x0001972e:    b08c        ..      SUB      sp,sp,#0x30
        0x00019730:    900a        ..      STR      r0,[sp,#0x28]
        0x00019732:    2300        .#      MOVS     r3,#0
        0x00019734:    f88d301f    ...0    STRB     r3,[sp,#0x1f]
        0x00019738:    f88d301e    ...0    STRB     r3,[sp,#0x1e]
        0x0001973c:    f88d301d    ...0    STRB     r3,[sp,#0x1d]
        0x00019740:    980a        ..      LDR      r0,[sp,#0x28]
        0x00019742:    466a        jF      MOV      r2,sp
        0x00019744:    2104        .!      MOVS     r1,#4
        0x00019746:    6051        Q`      STR      r1,[r2,#4]
        0x00019748:    a908        ..      ADD      r1,sp,#0x20
        0x0001974a:    6011        .`      STR      r1,[r2,#0]
        0x0001974c:    f2440140    D.@.    MOV      r1,#0x4040
        0x00019750:    2201        ."      MOVS     r2,#1
        0x00019752:    f7fffb25    ..%.    BL       am_device_command_read ; 0x18da0
        0x00019756:    9009        ..      STR      r0,[sp,#0x24]
        0x00019758:    9809        ..      LDR      r0,[sp,#0x24]
        0x0001975a:    b118        ..      CBZ      r0,0x19764 ; am_devices_mspi_psram_aps12808l_id + 56
        0x0001975c:    e7ff        ..      B        0x1975e ; am_devices_mspi_psram_aps12808l_id + 50
        0x0001975e:    2001        .       MOVS     r0,#1
        0x00019760:    900b        ..      STR      r0,[sp,#0x2c]
        0x00019762:    e12d        -.      B        0x199c0 ; am_devices_mspi_psram_aps12808l_id + 660
        0x00019764:    9808        ..      LDR      r0,[sp,#0x20]
        0x00019766:    f88d001d    ....    STRB     r0,[sp,#0x1d]
        0x0001976a:    e7ff        ..      B        0x1976c ; am_devices_mspi_psram_aps12808l_id + 64
        0x0001976c:    f89d001d    ....    LDRB     r0,[sp,#0x1d]
        0x00019770:    f00000e3    ....    AND      r0,r0,#0xe3
        0x00019774:    f88d001d    ....    STRB     r0,[sp,#0x1d]
        0x00019778:    f89d001d    ....    LDRB     r0,[sp,#0x1d]
        0x0001977c:    f00000fc    ....    AND      r0,r0,#0xfc
        0x00019780:    f88d001d    ....    STRB     r0,[sp,#0x1d]
        0x00019784:    f89d001d    ....    LDRB     r0,[sp,#0x1d]
        0x00019788:    f0400001    @...    ORR      r0,r0,#1
        0x0001978c:    f88d001d    ....    STRB     r0,[sp,#0x1d]
        0x00019790:    f89d001d    ....    LDRB     r0,[sp,#0x1d]
        0x00019794:    f0400020    @. .    ORR      r0,r0,#0x20
        0x00019798:    f88d001d    ....    STRB     r0,[sp,#0x1d]
        0x0001979c:    f89d001d    ....    LDRB     r0,[sp,#0x1d]
        0x000197a0:    9008        ..      STR      r0,[sp,#0x20]
        0x000197a2:    980a        ..      LDR      r0,[sp,#0x28]
        0x000197a4:    466a        jF      MOV      r2,sp
        0x000197a6:    2104        .!      MOVS     r1,#4
        0x000197a8:    6051        Q`      STR      r1,[r2,#4]
        0x000197aa:    a908        ..      ADD      r1,sp,#0x20
        0x000197ac:    6011        .`      STR      r1,[r2,#0]
        0x000197ae:    f24c01c0    L...    MOV      r1,#0xc0c0
        0x000197b2:    2201        ."      MOVS     r2,#1
        0x000197b4:    2300        .#      MOVS     r3,#0
        0x000197b6:    f7fffb29    ..).    BL       am_device_command_write ; 0x18e0c
        0x000197ba:    9009        ..      STR      r0,[sp,#0x24]
        0x000197bc:    9809        ..      LDR      r0,[sp,#0x24]
        0x000197be:    b118        ..      CBZ      r0,0x197c8 ; am_devices_mspi_psram_aps12808l_id + 156
        0x000197c0:    e7ff        ..      B        0x197c2 ; am_devices_mspi_psram_aps12808l_id + 150
        0x000197c2:    2001        .       MOVS     r0,#1
        0x000197c4:    900b        ..      STR      r0,[sp,#0x2c]
        0x000197c6:    e0fb        ..      B        0x199c0 ; am_devices_mspi_psram_aps12808l_id + 660
        0x000197c8:    980a        ..      LDR      r0,[sp,#0x28]
        0x000197ca:    466a        jF      MOV      r2,sp
        0x000197cc:    2104        .!      MOVS     r1,#4
        0x000197ce:    6051        Q`      STR      r1,[r2,#4]
        0x000197d0:    a908        ..      ADD      r1,sp,#0x20
        0x000197d2:    6011        .`      STR      r1,[r2,#0]
        0x000197d4:    f2440140    D.@.    MOV      r1,#0x4040
        0x000197d8:    2201        ."      MOVS     r2,#1
        0x000197da:    2300        .#      MOVS     r3,#0
        0x000197dc:    f7fffae0    ....    BL       am_device_command_read ; 0x18da0
        0x000197e0:    9009        ..      STR      r0,[sp,#0x24]
        0x000197e2:    9809        ..      LDR      r0,[sp,#0x24]
        0x000197e4:    b118        ..      CBZ      r0,0x197ee ; am_devices_mspi_psram_aps12808l_id + 194
        0x000197e6:    e7ff        ..      B        0x197e8 ; am_devices_mspi_psram_aps12808l_id + 188
        0x000197e8:    2001        .       MOVS     r0,#1
        0x000197ea:    900b        ..      STR      r0,[sp,#0x2c]
        0x000197ec:    e0e8        ..      B        0x199c0 ; am_devices_mspi_psram_aps12808l_id + 660
        0x000197ee:    9808        ..      LDR      r0,[sp,#0x20]
        0x000197f0:    f88d001d    ....    STRB     r0,[sp,#0x1d]
        0x000197f4:    e7ff        ..      B        0x197f6 ; am_devices_mspi_psram_aps12808l_id + 202
        0x000197f6:    980a        ..      LDR      r0,[sp,#0x28]
        0x000197f8:    466a        jF      MOV      r2,sp
        0x000197fa:    2304        .#      MOVS     r3,#4
        0x000197fc:    6053        S`      STR      r3,[r2,#4]
        0x000197fe:    a908        ..      ADD      r1,sp,#0x20
        0x00019800:    6011        .`      STR      r1,[r2,#0]
        0x00019802:    f2440140    D.@.    MOV      r1,#0x4040
        0x00019806:    2201        ."      MOVS     r2,#1
        0x00019808:    f7fffaca    ....    BL       am_device_command_read ; 0x18da0
        0x0001980c:    9009        ..      STR      r0,[sp,#0x24]
        0x0001980e:    9809        ..      LDR      r0,[sp,#0x24]
        0x00019810:    b118        ..      CBZ      r0,0x1981a ; am_devices_mspi_psram_aps12808l_id + 238
        0x00019812:    e7ff        ..      B        0x19814 ; am_devices_mspi_psram_aps12808l_id + 232
        0x00019814:    2001        .       MOVS     r0,#1
        0x00019816:    900b        ..      STR      r0,[sp,#0x2c]
        0x00019818:    e0d2        ..      B        0x199c0 ; am_devices_mspi_psram_aps12808l_id + 660
        0x0001981a:    9808        ..      LDR      r0,[sp,#0x20]
        0x0001981c:    f88d001d    ....    STRB     r0,[sp,#0x1d]
        0x00019820:    e7ff        ..      B        0x19822 ; am_devices_mspi_psram_aps12808l_id + 246
        0x00019822:    f89d001d    ....    LDRB     r0,[sp,#0x1d]
        0x00019826:    f000001f    ....    AND      r0,r0,#0x1f
        0x0001982a:    9008        ..      STR      r0,[sp,#0x20]
        0x0001982c:    980a        ..      LDR      r0,[sp,#0x28]
        0x0001982e:    466a        jF      MOV      r2,sp
        0x00019830:    2304        .#      MOVS     r3,#4
        0x00019832:    6053        S`      STR      r3,[r2,#4]
        0x00019834:    a908        ..      ADD      r1,sp,#0x20
        0x00019836:    6011        .`      STR      r1,[r2,#0]
        0x00019838:    f24c01c0    L...    MOV      r1,#0xc0c0
        0x0001983c:    2201        ."      MOVS     r2,#1
        0x0001983e:    f7fffae5    ....    BL       am_device_command_write ; 0x18e0c
        0x00019842:    9009        ..      STR      r0,[sp,#0x24]
        0x00019844:    9809        ..      LDR      r0,[sp,#0x24]
        0x00019846:    b118        ..      CBZ      r0,0x19850 ; am_devices_mspi_psram_aps12808l_id + 292
        0x00019848:    e7ff        ..      B        0x1984a ; am_devices_mspi_psram_aps12808l_id + 286
        0x0001984a:    2001        .       MOVS     r0,#1
        0x0001984c:    900b        ..      STR      r0,[sp,#0x2c]
        0x0001984e:    e0b7        ..      B        0x199c0 ; am_devices_mspi_psram_aps12808l_id + 660
        0x00019850:    980a        ..      LDR      r0,[sp,#0x28]
        0x00019852:    466a        jF      MOV      r2,sp
        0x00019854:    2304        .#      MOVS     r3,#4
        0x00019856:    6053        S`      STR      r3,[r2,#4]
        0x00019858:    a908        ..      ADD      r1,sp,#0x20
        0x0001985a:    6011        .`      STR      r1,[r2,#0]
        0x0001985c:    f2440140    D.@.    MOV      r1,#0x4040
        0x00019860:    2201        ."      MOVS     r2,#1
        0x00019862:    f7fffa9d    ....    BL       am_device_command_read ; 0x18da0
        0x00019866:    9009        ..      STR      r0,[sp,#0x24]
        0x00019868:    9809        ..      LDR      r0,[sp,#0x24]
        0x0001986a:    b118        ..      CBZ      r0,0x19874 ; am_devices_mspi_psram_aps12808l_id + 328
        0x0001986c:    e7ff        ..      B        0x1986e ; am_devices_mspi_psram_aps12808l_id + 322
        0x0001986e:    2001        .       MOVS     r0,#1
        0x00019870:    900b        ..      STR      r0,[sp,#0x2c]
        0x00019872:    e0a5        ..      B        0x199c0 ; am_devices_mspi_psram_aps12808l_id + 660
        0x00019874:    9808        ..      LDR      r0,[sp,#0x20]
        0x00019876:    f88d001d    ....    STRB     r0,[sp,#0x1d]
        0x0001987a:    e7ff        ..      B        0x1987c ; am_devices_mspi_psram_aps12808l_id + 336
        0x0001987c:    980a        ..      LDR      r0,[sp,#0x28]
        0x0001987e:    466a        jF      MOV      r2,sp
        0x00019880:    2104        .!      MOVS     r1,#4
        0x00019882:    6051        Q`      STR      r1,[r2,#4]
        0x00019884:    a908        ..      ADD      r1,sp,#0x20
        0x00019886:    6011        .`      STR      r1,[r2,#0]
        0x00019888:    f2440140    D.@.    MOV      r1,#0x4040
        0x0001988c:    2301        .#      MOVS     r3,#1
        0x0001988e:    461a        .F      MOV      r2,r3
        0x00019890:    f7fffa86    ....    BL       am_device_command_read ; 0x18da0
        0x00019894:    9009        ..      STR      r0,[sp,#0x24]
        0x00019896:    9809        ..      LDR      r0,[sp,#0x24]
        0x00019898:    b118        ..      CBZ      r0,0x198a2 ; am_devices_mspi_psram_aps12808l_id + 374
        0x0001989a:    e7ff        ..      B        0x1989c ; am_devices_mspi_psram_aps12808l_id + 368
        0x0001989c:    2001        .       MOVS     r0,#1
        0x0001989e:    900b        ..      STR      r0,[sp,#0x2c]
        0x000198a0:    e08e        ..      B        0x199c0 ; am_devices_mspi_psram_aps12808l_id + 660
        0x000198a2:    9808        ..      LDR      r0,[sp,#0x20]
        0x000198a4:    f88d001f    ....    STRB     r0,[sp,#0x1f]
        0x000198a8:    f89d001f    ....    LDRB     r0,[sp,#0x1f]
        0x000198ac:    f000001f    ....    AND      r0,r0,#0x1f
        0x000198b0:    280d        .(      CMP      r0,#0xd
        0x000198b2:    d101        ..      BNE      0x198b8 ; am_devices_mspi_psram_aps12808l_id + 396
        0x000198b4:    e7ff        ..      B        0x198b6 ; am_devices_mspi_psram_aps12808l_id + 394
        0x000198b6:    e7ff        ..      B        0x198b8 ; am_devices_mspi_psram_aps12808l_id + 396
        0x000198b8:    e7ff        ..      B        0x198ba ; am_devices_mspi_psram_aps12808l_id + 398
        0x000198ba:    980a        ..      LDR      r0,[sp,#0x28]
        0x000198bc:    466a        jF      MOV      r2,sp
        0x000198be:    2104        .!      MOVS     r1,#4
        0x000198c0:    6051        Q`      STR      r1,[r2,#4]
        0x000198c2:    a908        ..      ADD      r1,sp,#0x20
        0x000198c4:    6011        .`      STR      r1,[r2,#0]
        0x000198c6:    f2440140    D.@.    MOV      r1,#0x4040
        0x000198ca:    2201        ."      MOVS     r2,#1
        0x000198cc:    2302        .#      MOVS     r3,#2
        0x000198ce:    f7fffa67    ..g.    BL       am_device_command_read ; 0x18da0
        0x000198d2:    9009        ..      STR      r0,[sp,#0x24]
        0x000198d4:    9809        ..      LDR      r0,[sp,#0x24]
        0x000198d6:    b118        ..      CBZ      r0,0x198e0 ; am_devices_mspi_psram_aps12808l_id + 436
        0x000198d8:    e7ff        ..      B        0x198da ; am_devices_mspi_psram_aps12808l_id + 430
        0x000198da:    2001        .       MOVS     r0,#1
        0x000198dc:    900b        ..      STR      r0,[sp,#0x2c]
        0x000198de:    e06f        o.      B        0x199c0 ; am_devices_mspi_psram_aps12808l_id + 660
        0x000198e0:    9808        ..      LDR      r0,[sp,#0x20]
        0x000198e2:    f88d001e    ....    STRB     r0,[sp,#0x1e]
        0x000198e6:    f89d001e    ....    LDRB     r0,[sp,#0x1e]
        0x000198ea:    f0000007    ....    AND      r0,r0,#7
        0x000198ee:    2801        .(      CMP      r0,#1
        0x000198f0:    d101        ..      BNE      0x198f6 ; am_devices_mspi_psram_aps12808l_id + 458
        0x000198f2:    e7ff        ..      B        0x198f4 ; am_devices_mspi_psram_aps12808l_id + 456
        0x000198f4:    e01a        ..      B        0x1992c ; am_devices_mspi_psram_aps12808l_id + 512
        0x000198f6:    f89d001e    ....    LDRB     r0,[sp,#0x1e]
        0x000198fa:    f0000007    ....    AND      r0,r0,#7
        0x000198fe:    2803        .(      CMP      r0,#3
        0x00019900:    d101        ..      BNE      0x19906 ; am_devices_mspi_psram_aps12808l_id + 474
        0x00019902:    e7ff        ..      B        0x19904 ; am_devices_mspi_psram_aps12808l_id + 472
        0x00019904:    e011        ..      B        0x1992a ; am_devices_mspi_psram_aps12808l_id + 510
        0x00019906:    f89d001e    ....    LDRB     r0,[sp,#0x1e]
        0x0001990a:    f0000007    ....    AND      r0,r0,#7
        0x0001990e:    2805        .(      CMP      r0,#5
        0x00019910:    d101        ..      BNE      0x19916 ; am_devices_mspi_psram_aps12808l_id + 490
        0x00019912:    e7ff        ..      B        0x19914 ; am_devices_mspi_psram_aps12808l_id + 488
        0x00019914:    e008        ..      B        0x19928 ; am_devices_mspi_psram_aps12808l_id + 508
        0x00019916:    f89d001e    ....    LDRB     r0,[sp,#0x1e]
        0x0001991a:    f0000007    ....    AND      r0,r0,#7
        0x0001991e:    2807        .(      CMP      r0,#7
        0x00019920:    d101        ..      BNE      0x19926 ; am_devices_mspi_psram_aps12808l_id + 506
        0x00019922:    e7ff        ..      B        0x19924 ; am_devices_mspi_psram_aps12808l_id + 504
        0x00019924:    e7ff        ..      B        0x19926 ; am_devices_mspi_psram_aps12808l_id + 506
        0x00019926:    e7ff        ..      B        0x19928 ; am_devices_mspi_psram_aps12808l_id + 508
        0x00019928:    e7ff        ..      B        0x1992a ; am_devices_mspi_psram_aps12808l_id + 510
        0x0001992a:    e7ff        ..      B        0x1992c ; am_devices_mspi_psram_aps12808l_id + 512
        0x0001992c:    e7ff        ..      B        0x1992e ; am_devices_mspi_psram_aps12808l_id + 514
        0x0001992e:    2000        .       MOVS     r0,#0
        0x00019930:    9006        ..      STR      r0,[sp,#0x18]
        0x00019932:    9008        ..      STR      r0,[sp,#0x20]
        0x00019934:    980a        ..      LDR      r0,[sp,#0x28]
        0x00019936:    466a        jF      MOV      r2,sp
        0x00019938:    2104        .!      MOVS     r1,#4
        0x0001993a:    9105        ..      STR      r1,[sp,#0x14]
        0x0001993c:    6051        Q`      STR      r1,[r2,#4]
        0x0001993e:    a908        ..      ADD      r1,sp,#0x20
        0x00019940:    9102        ..      STR      r1,[sp,#8]
        0x00019942:    6011        .`      STR      r1,[r2,#0]
        0x00019944:    f2440140    D.@.    MOV      r1,#0x4040
        0x00019948:    9103        ..      STR      r1,[sp,#0xc]
        0x0001994a:    2201        ."      MOVS     r2,#1
        0x0001994c:    9204        ..      STR      r2,[sp,#0x10]
        0x0001994e:    2303        .#      MOVS     r3,#3
        0x00019950:    f7fffa26    ..&.    BL       am_device_command_read ; 0x18da0
        0x00019954:    9b02        ..      LDR      r3,[sp,#8]
        0x00019956:    9903        ..      LDR      r1,[sp,#0xc]
        0x00019958:    9a04        ..      LDR      r2,[sp,#0x10]
        0x0001995a:    f8dde014    ....    LDR      lr,[sp,#0x14]
        0x0001995e:    4684        .F      MOV      r12,r0
        0x00019960:    9806        ..      LDR      r0,[sp,#0x18]
        0x00019962:    f8cdc024    ..$.    STR      r12,[sp,#0x24]
        0x00019966:    f8ddc020    .. .    LDR      r12,[sp,#0x20]
        0x0001996a:    f88dc01d    ....    STRB     r12,[sp,#0x1d]
        0x0001996e:    9008        ..      STR      r0,[sp,#0x20]
        0x00019970:    980a        ..      LDR      r0,[sp,#0x28]
        0x00019972:    46ec        .F      MOV      r12,sp
        0x00019974:    f8cce004    ....    STR      lr,[r12,#4]
        0x00019978:    f8cc3000    ...0    STR      r3,[r12,#0]
        0x0001997c:    2306        .#      MOVS     r3,#6
        0x0001997e:    f7fffa0f    ....    BL       am_device_command_read ; 0x18da0
        0x00019982:    9b02        ..      LDR      r3,[sp,#8]
        0x00019984:    9903        ..      LDR      r1,[sp,#0xc]
        0x00019986:    9a04        ..      LDR      r2,[sp,#0x10]
        0x00019988:    f8dde014    ....    LDR      lr,[sp,#0x14]
        0x0001998c:    4684        .F      MOV      r12,r0
        0x0001998e:    9806        ..      LDR      r0,[sp,#0x18]
        0x00019990:    f8cdc024    ..$.    STR      r12,[sp,#0x24]
        0x00019994:    f8ddc020    .. .    LDR      r12,[sp,#0x20]
        0x00019998:    f88dc01d    ....    STRB     r12,[sp,#0x1d]
        0x0001999c:    9008        ..      STR      r0,[sp,#0x20]
        0x0001999e:    980a        ..      LDR      r0,[sp,#0x28]
        0x000199a0:    46ec        .F      MOV      r12,sp
        0x000199a2:    f8cce004    ....    STR      lr,[r12,#4]
        0x000199a6:    f8cc3000    ...0    STR      r3,[r12,#0]
        0x000199aa:    2308        .#      MOVS     r3,#8
        0x000199ac:    f7fff9f8    ....    BL       am_device_command_read ; 0x18da0
        0x000199b0:    4601        .F      MOV      r1,r0
        0x000199b2:    9806        ..      LDR      r0,[sp,#0x18]
        0x000199b4:    9109        ..      STR      r1,[sp,#0x24]
        0x000199b6:    9908        ..      LDR      r1,[sp,#0x20]
        0x000199b8:    f88d101d    ....    STRB     r1,[sp,#0x1d]
        0x000199bc:    900b        ..      STR      r0,[sp,#0x2c]
        0x000199be:    e7ff        ..      B        0x199c0 ; am_devices_mspi_psram_aps12808l_id + 660
        0x000199c0:    980b        ..      LDR      r0,[sp,#0x2c]
        0x000199c2:    b00c        ..      ADD      sp,sp,#0x30
        0x000199c4:    bd80        ..      POP      {r7,pc}
        0x000199c6:    0000        ..      MOVS     r0,r0
    am_devices_mspi_psram_aps12808l_reset
        0x000199c8:    b580        ..      PUSH     {r7,lr}
        0x000199ca:    b086        ..      SUB      sp,sp,#0x18
        0x000199cc:    9004        ..      STR      r0,[sp,#0x10]
        0x000199ce:    2300        .#      MOVS     r3,#0
        0x000199d0:    9303        ..      STR      r3,[sp,#0xc]
        0x000199d2:    9804        ..      LDR      r0,[sp,#0x10]
        0x000199d4:    466a        jF      MOV      r2,sp
        0x000199d6:    2102        .!      MOVS     r1,#2
        0x000199d8:    6051        Q`      STR      r1,[r2,#4]
        0x000199da:    a903        ..      ADD      r1,sp,#0xc
        0x000199dc:    6011        .`      STR      r1,[r2,#0]
        0x000199de:    f64f71ff    O..q    MOV      r1,#0xffff
        0x000199e2:    2201        ."      MOVS     r2,#1
        0x000199e4:    f7fffa12    ....    BL       am_device_command_write ; 0x18e0c
        0x000199e8:    b118        ..      CBZ      r0,0x199f2 ; am_devices_mspi_psram_aps12808l_reset + 42
        0x000199ea:    e7ff        ..      B        0x199ec ; am_devices_mspi_psram_aps12808l_reset + 36
        0x000199ec:    2001        .       MOVS     r0,#1
        0x000199ee:    9005        ..      STR      r0,[sp,#0x14]
        0x000199f0:    e002        ..      B        0x199f8 ; am_devices_mspi_psram_aps12808l_reset + 48
        0x000199f2:    2000        .       MOVS     r0,#0
        0x000199f4:    9005        ..      STR      r0,[sp,#0x14]
        0x000199f6:    e7ff        ..      B        0x199f8 ; am_devices_mspi_psram_aps12808l_reset + 48
        0x000199f8:    9805        ..      LDR      r0,[sp,#0x14]
        0x000199fa:    b006        ..      ADD      sp,sp,#0x18
        0x000199fc:    bd80        ..      POP      {r7,pc}
    am_hal_cachectrl_config
        0x000199fe:    b5b0        ..      PUSH     {r4,r5,r7,lr}
        0x00019a00:    b082        ..      SUB      sp,sp,#8
        0x00019a02:    4604        .F      MOV      r4,r0
        0x00019a04:    f000fcb6    ....    BL       am_hal_interrupt_master_disable ; 0x1a374
        0x00019a08:    9001        ..      STR      r0,[sp,#4]
        0x00019a0a:    f04f4590    O..E    MOV      r5,#0x48000000
        0x00019a0e:    6828        (h      LDR      r0,[r5,#0]
        0x00019a10:    f4207040     .@p    BIC      r0,r0,#0x300
        0x00019a14:    6028        (`      STR      r0,[r5,#0]
        0x00019a16:    9801        ..      LDR      r0,[sp,#4]
        0x00019a18:    f000fcb4    ....    BL       am_hal_interrupt_master_set ; 0x1a384
        0x00019a1c:    78a1        .x      LDRB     r1,[r4,#2]
        0x00019a1e:    7820         x      LDRB     r0,[r4,#0]
        0x00019a20:    7862        bx      LDRB     r2,[r4,#1]
        0x00019a22:    0049        I.      LSLS     r1,r1,#1
        0x00019a24:    b2c9        ..      UXTB     r1,r1
        0x00019a26:    f0020203    ....    AND      r2,r2,#3
        0x00019a2a:    f3601107    `...    BFI      r1,r0,#4,#4
        0x00019a2e:    ea412002    A..     ORR      r0,r1,r2,LSL #8
        0x00019a32:    f4401080    @...    ORR      r0,r0,#0x100000
        0x00019a36:    f4406180    @..a    ORR      r1,r0,#0x400
        0x00019a3a:    2000        .       MOVS     r0,#0
        0x00019a3c:    6029        )`      STR      r1,[r5,#0]
        0x00019a3e:    b002        ..      ADD      sp,sp,#8
        0x00019a40:    bdb0        ..      POP      {r4,r5,r7,pc}
    am_hal_cachectrl_enable
        0x00019a42:    f04f4090    O..@    MOV      r0,#0x48000000
        0x00019a46:    6801        .h      LDR      r1,[r0,#0]
        0x00019a48:    f0410101    A...    ORR      r1,r1,#1
        0x00019a4c:    6001        .`      STR      r1,[r0,#0]
        0x00019a4e:    2108        .!      MOVS     r1,#8
        0x00019a50:    f6c40100    ....    MOVT     r1,#0x4800
        0x00019a54:    6808        .h      LDR      r0,[r1,#0]
        0x00019a56:    f0400201    @...    ORR      r2,r0,#1
        0x00019a5a:    2000        .       MOVS     r0,#0
        0x00019a5c:    600a        .`      STR      r2,[r1,#0]
        0x00019a5e:    4770        pG      BX       lr
    am_hal_cmdq_alloc_block
        0x00019a60:    b5f0        ..      PUSH     {r4-r7,lr}
        0x00019a62:    b081        ..      SUB      sp,sp,#4
        0x00019a64:    b1f0        ..      CBZ      r0,0x19aa4 ; am_hal_cmdq_alloc_block + 68
        0x00019a66:    4605        .F      MOV      r5,r0
        0x00019a68:    6800        .h      LDR      r0,[r0,#0]
        0x00019a6a:    460f        .F      MOV      r7,r1
        0x00019a6c:    f64c51cd    L..Q    MOV      r1,#0xcdcd
        0x00019a70:    f020407e     .~@    BIC      r0,r0,#0xfe000000
        0x00019a74:    f2c011cd    ....    MOVT     r1,#0x1cd
        0x00019a78:    4288        .B      CMP      r0,r1
        0x00019a7a:    d113        ..      BNE      0x19aa4 ; am_hal_cmdq_alloc_block + 68
        0x00019a7c:    4616        .F      MOV      r6,r2
        0x00019a7e:    f04f0006    O...    MOV      r0,#6
        0x00019a82:    b182        ..      CBZ      r2,0x19aa6 ; am_hal_cmdq_alloc_block + 70
        0x00019a84:    461c        .F      MOV      r4,r3
        0x00019a86:    b173        s.      CBZ      r3,0x19aa6 ; am_hal_cmdq_alloc_block + 70
        0x00019a88:    e9d50104    ....    LDRD     r0,r1,[r5,#0x10]
        0x00019a8c:    4288        .B      CMP      r0,r1
        0x00019a8e:    d10c        ..      BNE      0x19aaa ; am_hal_cmdq_alloc_block + 74
        0x00019a90:    4628        (F      MOV      r0,r5
        0x00019a92:    f005f9a9    ....    BL       update_indices ; 0x1ede8
        0x00019a96:    e9d51007    ....    LDRD     r1,r0,[r5,#0x1c]
        0x00019a9a:    31fe        .1      ADDS     r1,r1,#0xfe
        0x00019a9c:    4281        .B      CMP      r1,r0
        0x00019a9e:    da06        ..      BGE      0x19aae ; am_hal_cmdq_alloc_block + 78
        0x00019aa0:    2005        .       MOVS     r0,#5
        0x00019aa2:    e000        ..      B        0x19aa6 ; am_hal_cmdq_alloc_block + 70
        0x00019aa4:    2002        .       MOVS     r0,#2
        0x00019aa6:    b001        ..      ADD      sp,sp,#4
        0x00019aa8:    bdf0        ..      POP      {r4-r7,pc}
        0x00019aaa:    2007        .       MOVS     r0,#7
        0x00019aac:    e7fb        ..      B        0x19aa6 ; am_hal_cmdq_alloc_block + 70
        0x00019aae:    e9d53103    ...1    LDRD     r3,r1,[r5,#0xc]
        0x00019ab2:    00fa        ..      LSLS     r2,r7,#3
        0x00019ab4:    4299        .B      CMP      r1,r3
        0x00019ab6:    d204        ..      BCS      0x19ac2 ; am_hal_cmdq_alloc_block + 98
        0x00019ab8:    1857        W.      ADDS     r7,r2,r1
        0x00019aba:    3708        .7      ADDS     r7,r7,#8
        0x00019abc:    429f        .B      CMP      r7,r3
        0x00019abe:    d2ef        ..      BCS      0x19aa0 ; am_hal_cmdq_alloc_block + 64
        0x00019ac0:    e013        ..      B        0x19aea ; am_hal_cmdq_alloc_block + 138
        0x00019ac2:    eb020c01    ....    ADD      r12,r2,r1
        0x00019ac6:    f8d5e008    ....    LDR      lr,[r5,#8]
        0x00019aca:    f10c0710    ....    ADD      r7,r12,#0x10
        0x00019ace:    4577        wE      CMP      r7,lr
        0x00019ad0:    d90b        ..      BLS      0x19aea ; am_hal_cmdq_alloc_block + 138
        0x00019ad2:    f8d5c004    ....    LDR      r12,[r5,#4]
        0x00019ad6:    eb02070c    ....    ADD      r7,r2,r12
        0x00019ada:    3708        .7      ADDS     r7,r7,#8
        0x00019adc:    429f        .B      CMP      r7,r3
        0x00019ade:    d2df        ..      BCS      0x19aa0 ; am_hal_cmdq_alloc_block + 64
        0x00019ae0:    6a6b        kj      LDR      r3,[r5,#0x24]
        0x00019ae2:    685b        [h      LDR      r3,[r3,#4]
        0x00019ae4:    e9c13c00    ...<    STRD     r3,r12,[r1,#0]
        0x00019ae8:    4661        aF      MOV      r1,r12
        0x00019aea:    3001        .0      ADDS     r0,#1
        0x00019aec:    6228        (b      STR      r0,[r5,#0x20]
        0x00019aee:    6020         `      STR      r0,[r4,#0]
        0x00019af0:    1888        ..      ADDS     r0,r1,r2
        0x00019af2:    6168        ha      STR      r0,[r5,#0x14]
        0x00019af4:    2000        .       MOVS     r0,#0
        0x00019af6:    6031        1`      STR      r1,[r6,#0]
        0x00019af8:    e7d5        ..      B        0x19aa6 ; am_hal_cmdq_alloc_block + 70
    am_hal_cmdq_disable
        0x00019afa:    b1b0        ..      CBZ      r0,0x19b2a ; am_hal_cmdq_disable + 48
        0x00019afc:    6801        .h      LDR      r1,[r0,#0]
        0x00019afe:    f64c53cd    L..S    MOV      r3,#0xcdcd
        0x00019b02:    f021427e    !.~B    BIC      r2,r1,#0xfe000000
        0x00019b06:    f2c013cd    ....    MOVT     r3,#0x1cd
        0x00019b0a:    429a        .B      CMP      r2,r3
        0x00019b0c:    d10d        ..      BNE      0x19b2a ; am_hal_cmdq_disable + 48
        0x00019b0e:    0189        ..      LSLS     r1,r1,#6
        0x00019b10:    d509        ..      BPL      0x19b26 ; am_hal_cmdq_disable + 44
        0x00019b12:    6a41        Aj      LDR      r1,[r0,#0x24]
        0x00019b14:    6809        .h      LDR      r1,[r1,#0]
        0x00019b16:    680a        .h      LDR      r2,[r1,#0]
        0x00019b18:    f0220201    "...    BIC      r2,r2,#1
        0x00019b1c:    600a        .`      STR      r2,[r1,#0]
        0x00019b1e:    6801        .h      LDR      r1,[r0,#0]
        0x00019b20:    f0217100    !..q    BIC      r1,r1,#0x2000000
        0x00019b24:    6001        .`      STR      r1,[r0,#0]
        0x00019b26:    2000        .       MOVS     r0,#0
        0x00019b28:    4770        pG      BX       lr
        0x00019b2a:    2002        .       MOVS     r0,#2
        0x00019b2c:    4770        pG      BX       lr
    am_hal_cmdq_enable
        0x00019b2e:    b510        ..      PUSH     {r4,lr}
        0x00019b30:    b308        ..      CBZ      r0,0x19b76 ; am_hal_cmdq_enable + 72
        0x00019b32:    4604        .F      MOV      r4,r0
        0x00019b34:    6800        .h      LDR      r0,[r0,#0]
        0x00019b36:    f64c52cd    L..R    MOV      r2,#0xcdcd
        0x00019b3a:    f020417e     .~A    BIC      r1,r0,#0xfe000000
        0x00019b3e:    f2c012cd    ....    MOVT     r2,#0x1cd
        0x00019b42:    4291        .B      CMP      r1,r2
        0x00019b44:    d117        ..      BNE      0x19b76 ; am_hal_cmdq_enable + 72
        0x00019b46:    0180        ..      LSLS     r0,r0,#6
        0x00019b48:    d413        ..      BMI      0x19b72 ; am_hal_cmdq_enable + 68
        0x00019b4a:    68a0        .h      LDR      r0,[r4,#8]
        0x00019b4c:    2100        .!      MOVS     r1,#0
        0x00019b4e:    f2c10106    ....    MOVT     r1,#0x1006
        0x00019b52:    4288        .B      CMP      r0,r1
        0x00019b54:    d303        ..      BCC      0x19b5e ; am_hal_cmdq_enable + 48
        0x00019b56:    2002        .       MOVS     r0,#2
        0x00019b58:    2100        .!      MOVS     r1,#0
        0x00019b5a:    f000f9d5    ....    BL       am_hal_daxi_control ; 0x19f08
        0x00019b5e:    6a60        `j      LDR      r0,[r4,#0x24]
        0x00019b60:    6800        .h      LDR      r0,[r0,#0]
        0x00019b62:    6801        .h      LDR      r1,[r0,#0]
        0x00019b64:    f0410101    A...    ORR      r1,r1,#1
        0x00019b68:    6001        .`      STR      r1,[r0,#0]
        0x00019b6a:    6820         h      LDR      r0,[r4,#0]
        0x00019b6c:    f0407000    @..p    ORR      r0,r0,#0x2000000
        0x00019b70:    6020         `      STR      r0,[r4,#0]
        0x00019b72:    2000        .       MOVS     r0,#0
        0x00019b74:    bd10        ..      POP      {r4,pc}
        0x00019b76:    2002        .       MOVS     r0,#2
        0x00019b78:    bd10        ..      POP      {r4,pc}
        0x00019b7a:    0000        ..      MOVS     r0,r0
    am_hal_cmdq_error_resume
        0x00019b7c:    b510        ..      PUSH     {r4,lr}
        0x00019b7e:    b368        h.      CBZ      r0,0x19bdc ; am_hal_cmdq_error_resume + 96
        0x00019b80:    6801        .h      LDR      r1,[r0,#0]
        0x00019b82:    f64c53cd    L..S    MOV      r3,#0xcdcd
        0x00019b86:    f021427e    !.~B    BIC      r2,r1,#0xfe000000
        0x00019b8a:    f2c013cd    ....    MOVT     r3,#0x1cd
        0x00019b8e:    429a        .B      CMP      r2,r3
        0x00019b90:    d124        $.      BNE      0x19bdc ; am_hal_cmdq_error_resume + 96
        0x00019b92:    0189        ..      LSLS     r1,r1,#6
        0x00019b94:    d520         .      BPL      0x19bd8 ; am_hal_cmdq_error_resume + 92
        0x00019b96:    6a41        Aj      LDR      r1,[r0,#0x24]
        0x00019b98:    e9d12c00    ...,    LDRD     r2,r12,[r1,#0]
        0x00019b9c:    688c        .h      LDR      r4,[r1,#8]
        0x00019b9e:    6811        .h      LDR      r1,[r2,#0]
        0x00019ba0:    f0210101    !...    BIC      r1,r1,#1
        0x00019ba4:    6011        .`      STR      r1,[r2,#0]
        0x00019ba6:    f8dc2000    ...     LDR      r2,[r12,#0]
        0x00019baa:    6811        .h      LDR      r1,[r2,#0]
        0x00019bac:    f0210e01    !...    BIC      lr,r1,#1
        0x00019bb0:    45a6        .E      CMP      lr,r4
        0x00019bb2:    d009        ..      BEQ      0x19bc8 ; am_hal_cmdq_error_resume + 76
        0x00019bb4:    4561        aE      CMP      r1,r12
        0x00019bb6:    bf14        ..      ITE      NE
        0x00019bb8:    3208        .2      ADDNE    r2,r2,#8
        0x00019bba:    6852        Rh      LDREQ    r2,[r2,#4]
        0x00019bbc:    6811        .h      LDR      r1,[r2,#0]
        0x00019bbe:    f0210301    !...    BIC      r3,r1,#1
        0x00019bc2:    42a3        .B      CMP      r3,r4
        0x00019bc4:    d1f6        ..      BNE      0x19bb4 ; am_hal_cmdq_error_resume + 56
        0x00019bc6:    46a6        .F      MOV      lr,r4
        0x00019bc8:    f8c2e000    ....    STR      lr,[r2,#0]
        0x00019bcc:    f8cc2000    ...     STR      r2,[r12,#0]
        0x00019bd0:    6801        .h      LDR      r1,[r0,#0]
        0x00019bd2:    f0217100    !..q    BIC      r1,r1,#0x2000000
        0x00019bd6:    6001        .`      STR      r1,[r0,#0]
        0x00019bd8:    2000        .       MOVS     r0,#0
        0x00019bda:    bd10        ..      POP      {r4,pc}
        0x00019bdc:    2002        .       MOVS     r0,#2
        0x00019bde:    bd10        ..      POP      {r4,pc}
    am_hal_cmdq_get_status
        0x00019be0:    b5b0        ..      PUSH     {r4,r5,r7,lr}
        0x00019be2:    b368        h.      CBZ      r0,0x19c40 ; am_hal_cmdq_get_status + 96
        0x00019be4:    4605        .F      MOV      r5,r0
        0x00019be6:    6800        .h      LDR      r0,[r0,#0]
        0x00019be8:    460c        .F      MOV      r4,r1
        0x00019bea:    f64c51cd    L..Q    MOV      r1,#0xcdcd
        0x00019bee:    f020407e     .~@    BIC      r0,r0,#0xfe000000
        0x00019bf2:    f2c011cd    ....    MOVT     r1,#0x1cd
        0x00019bf6:    4288        .B      CMP      r0,r1
        0x00019bf8:    d122        ".      BNE      0x19c40 ; am_hal_cmdq_get_status + 96
        0x00019bfa:    b31c        ..      CBZ      r4,0x19c44 ; am_hal_cmdq_get_status + 100
        0x00019bfc:    4628        (F      MOV      r0,r5
        0x00019bfe:    f005f8f3    ....    BL       update_indices ; 0x1ede8
        0x00019c02:    e9d50104    ....    LDRD     r0,r1,[r5,#0x10]
        0x00019c06:    e9d52307    ...#    LDRD     r2,r3,[r5,#0x1c]
        0x00019c0a:    4281        .B      CMP      r1,r0
        0x00019c0c:    60a3        .`      STR      r3,[r4,#8]
        0x00019c0e:    bf18        ..      IT       NE
        0x00019c10:    3b01        .;      SUBNE    r3,#1
        0x00019c12:    6a68        hj      LDR      r0,[r5,#0x24]
        0x00019c14:    6063        c`      STR      r3,[r4,#4]
        0x00019c16:    f1000318    ....    ADD      r3,r0,#0x18
        0x00019c1a:    6022        "`      STR      r2,[r4,#0]
        0x00019c1c:    cb0e        ..      LDM      r3,{r1-r3}
        0x00019c1e:    6a40        @j      LDR      r0,[r0,#0x24]
        0x00019c20:    6809        .h      LDR      r1,[r1,#0]
        0x00019c22:    400a        .@      ANDS     r2,r2,r1
        0x00019c24:    bf18        ..      IT       NE
        0x00019c26:    2201        ."      MOVNE    r2,#1
        0x00019c28:    4008        .@      ANDS     r0,r0,r1
        0x00019c2a:    7322        "s      STRB     r2,[r4,#0xc]
        0x00019c2c:    bf18        ..      IT       NE
        0x00019c2e:    2001        .       MOVNE    r0,#1
        0x00019c30:    7360        `s      STRB     r0,[r4,#0xd]
        0x00019c32:    ea130001    ....    ANDS     r0,r3,r1
        0x00019c36:    bf18        ..      IT       NE
        0x00019c38:    2001        .       MOVNE    r0,#1
        0x00019c3a:    73a0        .s      STRB     r0,[r4,#0xe]
        0x00019c3c:    2000        .       MOVS     r0,#0
        0x00019c3e:    bdb0        ..      POP      {r4,r5,r7,pc}
        0x00019c40:    2002        .       MOVS     r0,#2
        0x00019c42:    bdb0        ..      POP      {r4,r5,r7,pc}
        0x00019c44:    2006        .       MOVS     r0,#6
        0x00019c46:    bdb0        ..      POP      {r4,r5,r7,pc}
    am_hal_cmdq_init
        0x00019c48:    e92d41f0    -..A    PUSH     {r4-r8,lr}
        0x00019c4c:    280a        .(      CMP      r0,#0xa
        0x00019c4e:    bf84        ..      ITT      HI
        0x00019c50:    2005        .       MOVHI    r0,#5
        0x00019c52:    e8bd81f0    ....    POPHI    {r4-r8,pc}
        0x00019c56:    b171        q.      CBZ      r1,0x19c76 ; am_hal_cmdq_init + 46
        0x00019c58:    4603        .F      MOV      r3,r0
        0x00019c5a:    2a00        .*      CMP      r2,#0
        0x00019c5c:    f04f0006    O...    MOV      r0,#6
        0x00019c60:    d04f        O.      BEQ      0x19d02 ; am_hal_cmdq_init + 186
        0x00019c62:    f8d1e004    ....    LDR      lr,[r1,#4]
        0x00019c66:    f1be0f00    ....    CMP      lr,#0
        0x00019c6a:    bf08        ..      IT       EQ
        0x00019c6c:    e8bd81f0    ....    POPEQ    {r4-r8,pc}
        0x00019c70:    6808        .h      LDR      r0,[r1,#0]
        0x00019c72:    2802        .(      CMP      r0,#2
        0x00019c74:    d202        ..      BCS      0x19c7c ; am_hal_cmdq_init + 52
        0x00019c76:    2006        .       MOVS     r0,#6
        0x00019c78:    e8bd81f0    ....    POP      {r4-r8,pc}
        0x00019c7c:    f6423cc8    B..<    MOV      r12,#0x2bc8
        0x00019c80:    252c        ,%      MOVS     r5,#0x2c
        0x00019c82:    f2c10c00    ....    MOVT     r12,#0x1000
        0x00019c86:    fb03f405    ....    MUL      r4,r3,r5
        0x00019c8a:    f85c4004    \..@    LDR      r4,[r12,r4]
        0x00019c8e:    01e6        ..      LSLS     r6,r4,#7
        0x00019c90:    bf44        D.      ITT      MI
        0x00019c92:    2007        .       MOVMI    r0,#7
        0x00019c94:    e8bd81f0    ....    POPMI    {r4-r8,pc}
        0x00019c98:    f24f28b0    O..(    MOV      r8,#0xf2b0
        0x00019c9c:    fb13cc05    ....    SMLABB   r12,r3,r5,r12
        0x00019ca0:    00c5        ..      LSLS     r5,r0,#3
        0x00019ca2:    eb0e06c0    ....    ADD      r6,lr,r0,LSL #3
        0x00019ca6:    f64c50cd    L..P    MOV      r0,#0xcdcd
        0x00019caa:    eb030383    ....    ADD      r3,r3,r3,LSL #2
        0x00019cae:    f2c00801    ....    MOVT     r8,#1
        0x00019cb2:    f2c010cd    ....    MOVT     r0,#0x1cd
        0x00019cb6:    eb0807c3    ....    ADD      r7,r8,r3,LSL #3
        0x00019cba:    f3600419    `...    BFI      r4,r0,#0,#26
        0x00019cbe:    e9cce601    ....    STRD     lr,r6,[r12,#4]
        0x00019cc2:    e9cce505    ....    STRD     lr,r5,[r12,#0x14]
        0x00019cc6:    e9d76502    ...e    LDRD     r6,r5,[r7,#8]
        0x00019cca:    f8cc4000    ...@    STR      r4,[r12,#0]
        0x00019cce:    2000        .       MOVS     r0,#0
        0x00019cd0:    693c        <i      LDR      r4,[r7,#0x10]
        0x00019cd2:    f8cc7024    ..$p    STR      r7,[r12,#0x24]
        0x00019cd6:    e9ccee03    ....    STRD     lr,lr,[r12,#0xc]
        0x00019cda:    e9cc0007    ....    STRD     r0,r0,[r12,#0x1c]
        0x00019cde:    6030        0`      STR      r0,[r6,#0]
        0x00019ce0:    6028        (`      STR      r0,[r5,#0]
        0x00019ce2:    697e        ~i      LDR      r6,[r7,#0x14]
        0x00019ce4:    6825        %h      LDR      r5,[r4,#0]
        0x00019ce6:    687f        .h      LDR      r7,[r7,#4]
        0x00019ce8:    432e        .C      ORRS     r6,r6,r5
        0x00019cea:    6026        &`      STR      r6,[r4,#0]
        0x00019cec:    684e        Nh      LDR      r6,[r1,#4]
        0x00019cee:    f8583033    X.30    LDR      r3,[r8,r3,LSL #3]
        0x00019cf2:    603e        >`      STR      r6,[r7,#0]
        0x00019cf4:    7a09        .z      LDRB     r1,[r1,#8]
        0x00019cf6:    2702        .'      MOVS     r7,#2
        0x00019cf8:    ea070141    ..A.    AND      r1,r7,r1,LSL #1
        0x00019cfc:    6019        .`      STR      r1,[r3,#0]
        0x00019cfe:    f8c2c000    ....    STR      r12,[r2,#0]
        0x00019d02:    e8bd81f0    ....    POP      {r4-r8,pc}
    am_hal_cmdq_post_block
        0x00019d06:    b510        ..      PUSH     {r4,lr}
        0x00019d08:    b370        p.      CBZ      r0,0x19d68 ; am_hal_cmdq_post_block + 98
        0x00019d0a:    4604        .F      MOV      r4,r0
        0x00019d0c:    6800        .h      LDR      r0,[r0,#0]
        0x00019d0e:    f64c52cd    L..R    MOV      r2,#0xcdcd
        0x00019d12:    f020407e     .~@    BIC      r0,r0,#0xfe000000
        0x00019d16:    f2c012cd    ....    MOVT     r2,#0x1cd
        0x00019d1a:    4290        .B      CMP      r0,r2
        0x00019d1c:    d124        $.      BNE      0x19d68 ; am_hal_cmdq_post_block + 98
        0x00019d1e:    e9d40304    ....    LDRD     r0,r3,[r4,#0x10]
        0x00019d22:    4298        .B      CMP      r0,r3
        0x00019d24:    bf04        ..      ITT      EQ
        0x00019d26:    2007        .       MOVEQ    r0,#7
        0x00019d28:    bd10        ..      POPEQ    {r4,pc}
        0x00019d2a:    6a62        bj      LDR      r2,[r4,#0x24]
        0x00019d2c:    f8d4c008    ....    LDR      r12,[r4,#8]
        0x00019d30:    6890        .h      LDR      r0,[r2,#8]
        0x00019d32:    f8d4e020    .. .    LDR      lr,[r4,#0x20]
        0x00019d36:    4308        .C      ORRS     r0,r0,r1
        0x00019d38:    2100        .!      MOVS     r1,#0
        0x00019d3a:    f2c10106    ....    MOVT     r1,#0x1006
        0x00019d3e:    e9c30e00    ....    STRD     r0,lr,[r3,#0]
        0x00019d42:    f1030008    ....    ADD      r0,r3,#8
        0x00019d46:    458c        .E      CMP      r12,r1
        0x00019d48:    6120         a      STR      r0,[r4,#0x10]
        0x00019d4a:    6160        `a      STR      r0,[r4,#0x14]
        0x00019d4c:    d306        ..      BCC      0x19d5c ; am_hal_cmdq_post_block + 86
        0x00019d4e:    2002        .       MOVS     r0,#2
        0x00019d50:    2100        .!      MOVS     r1,#0
        0x00019d52:    f000f8d9    ....    BL       am_hal_daxi_control ; 0x19f08
        0x00019d56:    f894e020    .. .    LDRB     lr,[r4,#0x20]
        0x00019d5a:    6a62        bj      LDR      r2,[r4,#0x24]
        0x00019d5c:    68d0        .h      LDR      r0,[r2,#0xc]
        0x00019d5e:    fa5ff18e    _...    UXTB     r1,lr
        0x00019d62:    6001        .`      STR      r1,[r0,#0]
        0x00019d64:    2000        .       MOVS     r0,#0
        0x00019d66:    bd10        ..      POP      {r4,pc}
        0x00019d68:    2002        .       MOVS     r0,#2
        0x00019d6a:    bd10        ..      POP      {r4,pc}
    am_hal_cmdq_post_loop_block
        0x00019d6c:    b570        p.      PUSH     {r4-r6,lr}
        0x00019d6e:    b370        p.      CBZ      r0,0x19dce ; am_hal_cmdq_post_loop_block + 98
        0x00019d70:    4604        .F      MOV      r4,r0
        0x00019d72:    6800        .h      LDR      r0,[r0,#0]
        0x00019d74:    f64c52cd    L..R    MOV      r2,#0xcdcd
        0x00019d78:    f020407e     .~@    BIC      r0,r0,#0xfe000000
        0x00019d7c:    f2c012cd    ....    MOVT     r2,#0x1cd
        0x00019d80:    4290        .B      CMP      r0,r2
        0x00019d82:    d124        $.      BNE      0x19dce ; am_hal_cmdq_post_loop_block + 98
        0x00019d84:    e9d40204    ....    LDRD     r0,r2,[r4,#0x10]
        0x00019d88:    4290        .B      CMP      r0,r2
        0x00019d8a:    bf04        ..      ITT      EQ
        0x00019d8c:    2007        .       MOVEQ    r0,#7
        0x00019d8e:    bd70        p.      POPEQ    {r4-r6,pc}
        0x00019d90:    6a60        `j      LDR      r0,[r4,#0x24]
        0x00019d92:    e9d4ec01    ....    LDRD     lr,r12,[r4,#4]
        0x00019d96:    e9d03501    ...5    LDRD     r3,r5,[r0,#4]
        0x00019d9a:    2600        .&      MOVS     r6,#0
        0x00019d9c:    4319        .C      ORRS     r1,r1,r3
        0x00019d9e:    e9c25600    ...V    STRD     r5,r6,[r2,#0]
        0x00019da2:    e9c21e02    ....    STRD     r1,lr,[r2,#8]
        0x00019da6:    f1020110    ....    ADD      r1,r2,#0x10
        0x00019daa:    2200        ."      MOVS     r2,#0
        0x00019dac:    f2c10206    ....    MOVT     r2,#0x1006
        0x00019db0:    4594        .E      CMP      r12,r2
        0x00019db2:    6121        !a      STR      r1,[r4,#0x10]
        0x00019db4:    6161        aa      STR      r1,[r4,#0x14]
        0x00019db6:    d304        ..      BCC      0x19dc2 ; am_hal_cmdq_post_loop_block + 86
        0x00019db8:    2002        .       MOVS     r0,#2
        0x00019dba:    2100        .!      MOVS     r1,#0
        0x00019dbc:    f000f8a4    ....    BL       am_hal_daxi_control ; 0x19f08
        0x00019dc0:    6a60        `j      LDR      r0,[r4,#0x24]
        0x00019dc2:    f8941020    .. .    LDRB     r1,[r4,#0x20]
        0x00019dc6:    68c0        .h      LDR      r0,[r0,#0xc]
        0x00019dc8:    6001        .`      STR      r1,[r0,#0]
        0x00019dca:    2000        .       MOVS     r0,#0
        0x00019dcc:    bd70        p.      POP      {r4-r6,pc}
        0x00019dce:    2002        .       MOVS     r0,#2
        0x00019dd0:    bd70        p.      POP      {r4-r6,pc}
    am_hal_cmdq_release_block
        0x00019dd2:    b1a0        ..      CBZ      r0,0x19dfe ; am_hal_cmdq_release_block + 44
        0x00019dd4:    6801        .h      LDR      r1,[r0,#0]
        0x00019dd6:    f64c52cd    L..R    MOV      r2,#0xcdcd
        0x00019dda:    f021417e    !.~A    BIC      r1,r1,#0xfe000000
        0x00019dde:    f2c012cd    ....    MOVT     r2,#0x1cd
        0x00019de2:    4291        .B      CMP      r1,r2
        0x00019de4:    d10b        ..      BNE      0x19dfe ; am_hal_cmdq_release_block + 44
        0x00019de6:    e9d01204    ....    LDRD     r1,r2,[r0,#0x10]
        0x00019dea:    4291        .B      CMP      r1,r2
        0x00019dec:    bf04        ..      ITT      EQ
        0x00019dee:    2007        .       MOVEQ    r0,#7
        0x00019df0:    4770        pG      BXEQ     lr
        0x00019df2:    6a02        .j      LDR      r2,[r0,#0x20]
        0x00019df4:    6141        Aa      STR      r1,[r0,#0x14]
        0x00019df6:    1e51        Q.      SUBS     r1,r2,#1
        0x00019df8:    6201        .b      STR      r1,[r0,#0x20]
        0x00019dfa:    2000        .       MOVS     r0,#0
        0x00019dfc:    4770        pG      BX       lr
        0x00019dfe:    2002        .       MOVS     r0,#2
        0x00019e00:    4770        pG      BX       lr
    am_hal_cmdq_reset
        0x00019e02:    b580        ..      PUSH     {r7,lr}
        0x00019e04:    b328        (.      CBZ      r0,0x19e52 ; am_hal_cmdq_reset + 80
        0x00019e06:    6801        .h      LDR      r1,[r0,#0]
        0x00019e08:    f64c53cd    L..S    MOV      r3,#0xcdcd
        0x00019e0c:    f021427e    !.~B    BIC      r2,r1,#0xfe000000
        0x00019e10:    f2c013cd    ....    MOVT     r3,#0x1cd
        0x00019e14:    429a        .B      CMP      r2,r3
        0x00019e16:    d11c        ..      BNE      0x19e52 ; am_hal_cmdq_reset + 80
        0x00019e18:    0189        ..      LSLS     r1,r1,#6
        0x00019e1a:    d41d        ..      BMI      0x19e58 ; am_hal_cmdq_reset + 86
        0x00019e1c:    6a41        Aj      LDR      r1,[r0,#0x24]
        0x00019e1e:    e9d12c00    ...,    LDRD     r2,r12,[r1,#0]
        0x00019e22:    e9d13e02    ...>    LDRD     r3,lr,[r1,#8]
        0x00019e26:    6811        .h      LDR      r1,[r2,#0]
        0x00019e28:    f0210101    !...    BIC      r1,r1,#1
        0x00019e2c:    6011        .`      STR      r1,[r2,#0]
        0x00019e2e:    6841        Ah      LDR      r1,[r0,#4]
        0x00019e30:    e9c01103    ....    STRD     r1,r1,[r0,#0xc]
        0x00019e34:    6141        Aa      STR      r1,[r0,#0x14]
        0x00019e36:    2100        .!      MOVS     r1,#0
        0x00019e38:    e9c01107    ....    STRD     r1,r1,[r0,#0x1c]
        0x00019e3c:    6019        .`      STR      r1,[r3,#0]
        0x00019e3e:    f8ce1000    ....    STR      r1,[lr,#0]
        0x00019e42:    6842        Bh      LDR      r2,[r0,#4]
        0x00019e44:    f8cc2000    ...     STR      r2,[r12,#0]
        0x00019e48:    6802        .h      LDR      r2,[r0,#0]
        0x00019e4a:    f0227200    "..r    BIC      r2,r2,#0x2000000
        0x00019e4e:    6002        .`      STR      r2,[r0,#0]
        0x00019e50:    e000        ..      B        0x19e54 ; am_hal_cmdq_reset + 82
        0x00019e52:    2102        .!      MOVS     r1,#2
        0x00019e54:    4608        .F      MOV      r0,r1
        0x00019e56:    bd80        ..      POP      {r7,pc}
        0x00019e58:    2107        .!      MOVS     r1,#7
        0x00019e5a:    e7fb        ..      B        0x19e54 ; am_hal_cmdq_reset + 82
    am_hal_cmdq_term
        0x00019e5c:    b5b0        ..      PUSH     {r4,r5,r7,lr}
        0x00019e5e:    b330        0.      CBZ      r0,0x19eae ; am_hal_cmdq_term + 82
        0x00019e60:    4604        .F      MOV      r4,r0
        0x00019e62:    6800        .h      LDR      r0,[r0,#0]
        0x00019e64:    460d        .F      MOV      r5,r1
        0x00019e66:    f64c51cd    L..Q    MOV      r1,#0xcdcd
        0x00019e6a:    f020407e     .~@    BIC      r0,r0,#0xfe000000
        0x00019e6e:    f2c011cd    ....    MOVT     r1,#0x1cd
        0x00019e72:    4288        .B      CMP      r0,r1
        0x00019e74:    d11b        ..      BNE      0x19eae ; am_hal_cmdq_term + 82
        0x00019e76:    4620         F      MOV      r0,r4
        0x00019e78:    f004ffb6    ....    BL       update_indices ; 0x1ede8
        0x00019e7c:    b92d        -.      CBNZ     r5,0x19e8a ; am_hal_cmdq_term + 46
        0x00019e7e:    e9d40107    ....    LDRD     r0,r1,[r4,#0x1c]
        0x00019e82:    4288        .B      CMP      r0,r1
        0x00019e84:    bf1c        ..      ITT      NE
        0x00019e86:    2003        .       MOVNE    r0,#3
        0x00019e88:    bdb0        ..      POPNE    {r4,r5,r7,pc}
        0x00019e8a:    6820         h      LDR      r0,[r4,#0]
        0x00019e8c:    6a61        aj      LDR      r1,[r4,#0x24]
        0x00019e8e:    f0207080     ..p    BIC      r0,r0,#0x1000000
        0x00019e92:    6020         `      STR      r0,[r4,#0]
        0x00019e94:    6808        .h      LDR      r0,[r1,#0]
        0x00019e96:    690a        .i      LDR      r2,[r1,#0x10]
        0x00019e98:    6803        .h      LDR      r3,[r0,#0]
        0x00019e9a:    f0230301    #...    BIC      r3,r3,#1
        0x00019e9e:    6003        .`      STR      r3,[r0,#0]
        0x00019ea0:    6948        Hi      LDR      r0,[r1,#0x14]
        0x00019ea2:    6811        .h      LDR      r1,[r2,#0]
        0x00019ea4:    ea210000    !...    BIC      r0,r1,r0
        0x00019ea8:    6010        .`      STR      r0,[r2,#0]
        0x00019eaa:    2000        .       MOVS     r0,#0
        0x00019eac:    bdb0        ..      POP      {r4,r5,r7,pc}
        0x00019eae:    2002        .       MOVS     r0,#2
        0x00019eb0:    bdb0        ..      POP      {r4,r5,r7,pc}
    am_hal_daxi_config
        0x00019eb2:    b5b0        ..      PUSH     {r4,r5,r7,lr}
        0x00019eb4:    b082        ..      SUB      sp,sp,#8
        0x00019eb6:    b128        (.      CBZ      r0,0x19ec4 ; am_hal_daxi_config + 18
        0x00019eb8:    4605        .F      MOV      r5,r0
        0x00019eba:    7880        .x      LDRB     r0,[r0,#2]
        0x00019ebc:    b910        ..      CBNZ     r0,0x19ec4 ; am_hal_daxi_config + 18
        0x00019ebe:    7868        hx      LDRB     r0,[r5,#1]
        0x00019ec0:    2801        .(      CMP      r0,#1
        0x00019ec2:    d903        ..      BLS      0x19ecc ; am_hal_daxi_config + 26
        0x00019ec4:    2406        .$      MOVS     r4,#6
        0x00019ec6:    4620         F      MOV      r0,r4
        0x00019ec8:    b002        ..      ADD      sp,sp,#8
        0x00019eca:    bdb0        ..      POP      {r4,r5,r7,pc}
        0x00019ecc:    f000fa52    ..R.    BL       am_hal_interrupt_master_disable ; 0x1a374
        0x00019ed0:    9001        ..      STR      r0,[sp,#4]
        0x00019ed2:    2002        .       MOVS     r0,#2
        0x00019ed4:    2100        .!      MOVS     r1,#0
        0x00019ed6:    2400        .$      MOVS     r4,#0
        0x00019ed8:    f000f816    ....    BL       am_hal_daxi_control ; 0x19f08
        0x00019edc:    78a9        .x      LDRB     r1,[r5,#2]
        0x00019ede:    786a        jx      LDRB     r2,[r5,#1]
        0x00019ee0:    7828        (x      LDRB     r0,[r5,#0]
        0x00019ee2:    f0010101    ....    AND      r1,r1,#1
        0x00019ee6:    f3622109    b..!    BFI      r1,r2,#8,#2
        0x00019eea:    ea414000    A..@    ORR      r0,r1,r0,LSL #16
        0x00019eee:    2150        P!      MOVS     r1,#0x50
        0x00019ef0:    f6c40100    ....    MOVT     r1,#0x4800
        0x00019ef4:    6008        .`      STR      r0,[r1,#0]
        0x00019ef6:    2000        .       MOVS     r0,#0
        0x00019ef8:    f2c470ff    ...p    MOVT     r0,#0x47ff
        0x00019efc:    6800        .h      LDR      r0,[r0,#0]
        0x00019efe:    9801        ..      LDR      r0,[sp,#4]
        0x00019f00:    f000fa40    ..@.    BL       am_hal_interrupt_master_set ; 0x1a384
        0x00019f04:    e7df        ..      B        0x19ec6 ; am_hal_daxi_config + 20
        0x00019f06:    0000        ..      MOVS     r0,r0
    am_hal_daxi_control
        0x00019f08:    b5b0        ..      PUSH     {r4,r5,r7,lr}
        0x00019f0a:    b082        ..      SUB      sp,sp,#8
        0x00019f0c:    2801        .(      CMP      r0,#1
        0x00019f0e:    d062        b.      BEQ      0x19fd6 ; am_hal_daxi_control + 206
        0x00019f10:    2803        .(      CMP      r0,#3
        0x00019f12:    d06f        o.      BEQ      0x19ff4 ; am_hal_daxi_control + 236
        0x00019f14:    2802        .(      CMP      r0,#2
        0x00019f16:    f040809a    @...    BNE.W    0x1a04e ; am_hal_daxi_control + 326
        0x00019f1a:    2454        T$      MOVS     r4,#0x54
        0x00019f1c:    2500        .%      MOVS     r5,#0
        0x00019f1e:    f6c40400    ....    MOVT     r4,#0x4800
        0x00019f22:    f2c475ff    ...u    MOVT     r5,#0x47ff
        0x00019f26:    f000fa25    ..%.    BL       am_hal_interrupt_master_disable ; 0x1a374
        0x00019f2a:    9001        ..      STR      r0,[sp,#4]
        0x00019f2c:    f3bf8f4f    ..O.    DSB      
        0x00019f30:    6820         h      LDR      r0,[r4,#0]
        0x00019f32:    f6447178    D.xq    MOV      r1,#0x4f78
        0x00019f36:    f0400001    @...    ORR      r0,r0,#1
        0x00019f3a:    6020         `      STR      r0,[r4,#0]
        0x00019f3c:    6828        (h      LDR      r0,[r5,#0]
        0x00019f3e:    6820         h      LDR      r0,[r4,#0]
        0x00019f40:    f2c10100    ....    MOVT     r1,#0x1000
        0x00019f44:    f0400002    @...    ORR      r0,r0,#2
        0x00019f48:    6020         `      STR      r0,[r4,#0]
        0x00019f4a:    6828        (h      LDR      r0,[r5,#0]
        0x00019f4c:    6808        .h      LDR      r0,[r1,#0]
        0x00019f4e:    2800        .(      CMP      r0,#0
        0x00019f50:    d03d        =.      BEQ      0x19fce ; am_hal_daxi_control + 198
        0x00019f52:    f6447288    D..r    MOV      r2,#0x4f88
        0x00019f56:    f2c10200    ....    MOVT     r2,#0x1000
        0x00019f5a:    6812        .h      LDR      r2,[r2,#0]
        0x00019f5c:    f6447384    D..s    MOV      r3,#0x4f84
        0x00019f60:    f2c10300    ....    MOVT     r3,#0x1000
        0x00019f64:    6812        .h      LDR      r2,[r2,#0]
        0x00019f66:    681b        .h      LDR      r3,[r3,#0]
        0x00019f68:    401a        .@      ANDS     r2,r2,r3
        0x00019f6a:    429a        .B      CMP      r2,r3
        0x00019f6c:    d12f        /.      BNE      0x19fce ; am_hal_daxi_control + 198
        0x00019f6e:    f64272d0    B..r    MOV      r2,#0x2fd0
        0x00019f72:    f2c10200    ....    MOVT     r2,#0x1000
        0x00019f76:    6812        .h      LDR      r2,[r2,#0]
        0x00019f78:    b1c2        ..      CBZ      r2,0x19fac ; am_hal_daxi_control + 164
        0x00019f7a:    2200        ."      MOVS     r2,#0
        0x00019f7c:    2300        .#      MOVS     r3,#0
        0x00019f7e:    bf00        ..      NOP      
        0x00019f80:    50c2        .P      STR      r2,[r0,r3]
        0x00019f82:    3310        .3      ADDS     r3,r3,#0x10
        0x00019f84:    2b40        @+      CMP      r3,#0x40
        0x00019f86:    d1fb        ..      BNE      0x19f80 ; am_hal_daxi_control + 120
        0x00019f88:    f3bf8f4f    ..O.    DSB      
        0x00019f8c:    6820         h      LDR      r0,[r4,#0]
        0x00019f8e:    f0400001    @...    ORR      r0,r0,#1
        0x00019f92:    6020         `      STR      r0,[r4,#0]
        0x00019f94:    6828        (h      LDR      r0,[r5,#0]
        0x00019f96:    6820         h      LDR      r0,[r4,#0]
        0x00019f98:    f0400002    @...    ORR      r0,r0,#2
        0x00019f9c:    6020         `      STR      r0,[r4,#0]
        0x00019f9e:    6828        (h      LDR      r0,[r5,#0]
        0x00019fa0:    6808        .h      LDR      r0,[r1,#0]
        0x00019fa2:    2100        .!      MOVS     r1,#0
        0x00019fa4:    5842        BX      LDR      r2,[r0,r1]
        0x00019fa6:    3110        .1      ADDS     r1,r1,#0x10
        0x00019fa8:    2940        @)      CMP      r1,#0x40
        0x00019faa:    d1fb        ..      BNE      0x19fa4 ; am_hal_daxi_control + 156
        0x00019fac:    211e        .!      MOVS     r1,#0x1e
        0x00019fae:    bf00        ..      NOP      
        0x00019fb0:    6802        .h      LDR      r2,[r0,#0]
        0x00019fb2:    6802        .h      LDR      r2,[r0,#0]
        0x00019fb4:    6802        .h      LDR      r2,[r0,#0]
        0x00019fb6:    6802        .h      LDR      r2,[r0,#0]
        0x00019fb8:    6802        .h      LDR      r2,[r0,#0]
        0x00019fba:    6802        .h      LDR      r2,[r0,#0]
        0x00019fbc:    3901        .9      SUBS     r1,#1
        0x00019fbe:    d1f7        ..      BNE      0x19fb0 ; am_hal_daxi_control + 168
        0x00019fc0:    f3bf8f4f    ..O.    DSB      
        0x00019fc4:    6820         h      LDR      r0,[r4,#0]
        0x00019fc6:    f0400002    @...    ORR      r0,r0,#2
        0x00019fca:    6020         `      STR      r0,[r4,#0]
        0x00019fcc:    6828        (h      LDR      r0,[r5,#0]
        0x00019fce:    9801        ..      LDR      r0,[sp,#4]
        0x00019fd0:    f000f9d8    ....    BL       am_hal_interrupt_master_set ; 0x1a384
        0x00019fd4:    e00c        ..      B        0x19ff0 ; am_hal_daxi_control + 232
        0x00019fd6:    2054        T       MOVS     r0,#0x54
        0x00019fd8:    f3bf8f4f    ..O.    DSB      
        0x00019fdc:    f6c40000    ....    MOVT     r0,#0x4800
        0x00019fe0:    6801        .h      LDR      r1,[r0,#0]
        0x00019fe2:    f0410102    A...    ORR      r1,r1,#2
        0x00019fe6:    6001        .`      STR      r1,[r0,#0]
        0x00019fe8:    2000        .       MOVS     r0,#0
        0x00019fea:    f2c470ff    ...p    MOVT     r0,#0x47ff
        0x00019fee:    6800        .h      LDR      r0,[r0,#0]
        0x00019ff0:    2000        .       MOVS     r0,#0
        0x00019ff2:    e02d        -.      B        0x1a050 ; am_hal_daxi_control + 328
        0x00019ff4:    f04f0006    O...    MOV      r0,#6
        0x00019ff8:    b351        Q.      CBZ      r1,0x1a050 ; am_hal_daxi_control + 328
        0x00019ffa:    f011020f    ....    ANDS     r2,r1,#0xf
        0x00019ffe:    d127        '.      BNE      0x1a050 ; am_hal_daxi_control + 328
        0x0001a000:    f24f4368    O.hC    MOV      r3,#0xf468
        0x0001a004:    f1010c40    ..@.    ADD      r12,r1,#0x40
        0x0001a008:    2000        .       MOVS     r0,#0
        0x0001a00a:    f2c00301    ....    MOVT     r3,#1
        0x0001a00e:    bf00        ..      NOP      
        0x0001a010:    581c        .X      LDR      r4,[r3,r0]
        0x0001a012:    428c        .B      CMP      r4,r1
        0x0001a014:    d804        ..      BHI      0x1a020 ; am_hal_daxi_control + 280
        0x0001a016:    181d        ..      ADDS     r5,r3,r0
        0x0001a018:    686a        jh      LDR      r2,[r5,#4]
        0x0001a01a:    4422        "D      ADD      r2,r2,r4
        0x0001a01c:    4594        .E      CMP      r12,r2
        0x0001a01e:    d303        ..      BCC      0x1a028 ; am_hal_daxi_control + 288
        0x0001a020:    3010        .0      ADDS     r0,r0,#0x10
        0x0001a022:    2860        `(      CMP      r0,#0x60
        0x0001a024:    d1f4        ..      BNE      0x1a010 ; am_hal_daxi_control + 264
        0x0001a026:    e012        ..      B        0x1a04e ; am_hal_daxi_control + 326
        0x0001a028:    f6447288    D..r    MOV      r2,#0x4f88
        0x0001a02c:    e9d53502    ...5    LDRD     r3,r5,[r5,#8]
        0x0001a030:    f2c10200    ....    MOVT     r2,#0x1000
        0x0001a034:    6013        .`      STR      r3,[r2,#0]
        0x0001a036:    f6447284    D..r    MOV      r2,#0x4f84
        0x0001a03a:    f2c10200    ....    MOVT     r2,#0x1000
        0x0001a03e:    6015        .`      STR      r5,[r2,#0]
        0x0001a040:    f6447278    D.xr    MOV      r2,#0x4f78
        0x0001a044:    f2c10200    ....    MOVT     r2,#0x1000
        0x0001a048:    2860        `(      CMP      r0,#0x60
        0x0001a04a:    6011        .`      STR      r1,[r2,#0]
        0x0001a04c:    d1d0        ..      BNE      0x19ff0 ; am_hal_daxi_control + 232
        0x0001a04e:    2006        .       MOVS     r0,#6
        0x0001a050:    b002        ..      ADD      sp,sp,#8
        0x0001a052:    bdb0        ..      POP      {r4,r5,r7,pc}
    am_hal_dcu_get
        0x0001a054:    b5b0        ..      PUSH     {r4,r5,r7,lr}
        0x0001a056:    b084        ..      SUB      sp,sp,#0x10
        0x0001a058:    f2410108    A...    MOV      r1,#0x1008
        0x0001a05c:    f2c40102    ....    MOVT     r1,#0x4002
        0x0001a060:    6809        .h      LDR      r1,[r1,#0]
        0x0001a062:    02c9        ..      LSLS     r1,r1,#11
        0x0001a064:    d506        ..      BPL      0x1a074 ; am_hal_dcu_get + 32
        0x0001a066:    f640217c    @.|!    MOV      r1,#0xa7c
        0x0001a06a:    f2c4010c    ....    MOVT     r1,#0x400c
        0x0001a06e:    6809        .h      LDR      r1,[r1,#0]
        0x0001a070:    07c9        ..      LSLS     r1,r1,#31
        0x0001a072:    d101        ..      BNE      0x1a078 ; am_hal_dcu_get + 36
        0x0001a074:    2007        .       MOVS     r0,#7
        0x0001a076:    e038        8.      B        0x1a0ea ; am_hal_dcu_get + 150
        0x0001a078:    f24021e0    @..!    MOVW     r1,#0x2e0
        0x0001a07c:    f2c10100    ....    MOVT     r1,#0x1000
        0x0001a080:    6809        .h      LDR      r1,[r1,#0]
        0x0001a082:    f64273d4    B..s    MOV      r3,#0x2fd4
        0x0001a086:    684a        Jh      LDR      r2,[r1,#4]
        0x0001a088:    f2c10300    ....    MOVT     r3,#0x1000
        0x0001a08c:    9201        ..      STR      r2,[sp,#4]
        0x0001a08e:    6809        .h      LDR      r1,[r1,#0]
        0x0001a090:    9102        ..      STR      r1,[sp,#8]
        0x0001a092:    681b        .h      LDR      r3,[r3,#0]
        0x0001a094:    fa21fc03    !...    LSR      r12,r1,r3
        0x0001a098:    f1c30120    .. .    RSB      r1,r3,#0x20
        0x0001a09c:    fa02f101    ....    LSL      r1,r2,r1
        0x0001a0a0:    ea4c0e01    L...    ORR      lr,r12,r1
        0x0001a0a4:    f1b30120    .. .    SUBS     r1,r3,#0x20
        0x0001a0a8:    bf58        X.      IT       PL
        0x0001a0aa:    fa22fe01    "...    LSRPL    lr,r2,r1
        0x0001a0ae:    fa22f203    "...    LSR      r2,r2,r3
        0x0001a0b2:    f04f0300    O...    MOV      r3,#0
        0x0001a0b6:    f04f0c01    O...    MOV      r12,#1
        0x0001a0ba:    f04f0100    O...    MOV      r1,#0
        0x0001a0be:    bf58        X.      IT       PL
        0x0001a0c0:    2200        ."      MOVPL    r2,#0
        0x0001a0c2:    bf00        ..      NOP      
        0x0001a0c4:    f00e0407    ....    AND      r4,lr,#7
        0x0001a0c8:    fa0cf503    ....    LSL      r5,r12,r3
        0x0001a0cc:    f0940f05    ....    TEQ      r4,#5
        0x0001a0d0:    bf08        ..      IT       EQ
        0x0001a0d2:    4329        )C      ORREQ    r1,r1,r5
        0x0001a0d4:    ea4f05de    O...    LSR      r5,lr,#3
        0x0001a0d8:    3301        .3      ADDS     r3,#1
        0x0001a0da:    ea457e42    E.B~    ORR      lr,r5,r2,LSL #29
        0x0001a0de:    2b14        .+      CMP      r3,#0x14
        0x0001a0e0:    ea4f02d2    O...    LSR      r2,r2,#3
        0x0001a0e4:    d1ee        ..      BNE      0x1a0c4 ; am_hal_dcu_get + 112
        0x0001a0e6:    6001        .`      STR      r1,[r0,#0]
        0x0001a0e8:    2000        .       MOVS     r0,#0
        0x0001a0ea:    b004        ..      ADD      sp,sp,#0x10
        0x0001a0ec:    bdb0        ..      POP      {r4,r5,r7,pc}
        0x0001a0ee:    0000        ..      MOVS     r0,r0
    am_hal_dcu_update
        0x0001a0f0:    e92d41f0    -..A    PUSH     {r4-r8,lr}
        0x0001a0f4:    b086        ..      SUB      sp,sp,#0x18
        0x0001a0f6:    f2410208    A...    MOV      r2,#0x1008
        0x0001a0fa:    f2c40202    ....    MOVT     r2,#0x4002
        0x0001a0fe:    6812        .h      LDR      r2,[r2,#0]
        0x0001a100:    02d2        ..      LSLS     r2,r2,#11
        0x0001a102:    d53b        ;.      BPL      0x1a17c ; am_hal_dcu_update + 140
        0x0001a104:    f6402c7c    @.|,    MOV      r12,#0xa7c
        0x0001a108:    f2c40c0c    ....    MOVT     r12,#0x400c
        0x0001a10c:    f8dc2000    ...     LDR      r2,[r12,#0]
        0x0001a110:    07d2        ..      LSLS     r2,r2,#31
        0x0001a112:    f04f0207    O...    MOV      r2,#7
        0x0001a116:    d032        2.      BEQ      0x1a17e ; am_hal_dcu_update + 142
        0x0001a118:    f64273d4    B..s    MOV      r3,#0x2fd4
        0x0001a11c:    f2c10300    ....    MOVT     r3,#0x1000
        0x0001a120:    f8d38000    ....    LDR      r8,[r3,#0]
        0x0001a124:    2500        .%      MOVS     r5,#0
        0x0001a126:    2300        .#      MOVS     r3,#0
        0x0001a128:    f04f0e00    O...    MOV      lr,#0
        0x0001a12c:    078e        ..      LSLS     r6,r1,#30
        0x0001a12e:    d511        ..      BPL      0x1a154 ; am_hal_dcu_update + 100
        0x0001a130:    eb080605    ....    ADD      r6,r8,r5
        0x0001a134:    f1c60420    .. .    RSB      r4,r6,#0x20
        0x0001a138:    f1b60720    .. .    SUBS     r7,r6,#0x20
        0x0001a13c:    fa22f404    "...    LSR      r4,r2,r4
        0x0001a140:    fa02f606    ....    LSL      r6,r2,r6
        0x0001a144:    bf58        X.      IT       PL
        0x0001a146:    fa02f407    ....    LSLPL    r4,r2,r7
        0x0001a14a:    bf58        X.      IT       PL
        0x0001a14c:    2600        .&      MOVPL    r6,#0
        0x0001a14e:    ea4e0e04    N...    ORR      lr,lr,r4
        0x0001a152:    4333        3C      ORRS     r3,r3,r6
        0x0001a154:    3503        .5      ADDS     r5,#3
        0x0001a156:    2d3c        <-      CMP      r5,#0x3c
        0x0001a158:    ea4f0151    O.Q.    LSR      r1,r1,#1
        0x0001a15c:    d1e6        ..      BNE      0x1a12c ; am_hal_dcu_update + 60
        0x0001a15e:    f24021e4    @..!    MOVW     r1,#0x2e4
        0x0001a162:    f2c10100    ....    MOVT     r1,#0x1000
        0x0001a166:    6809        .h      LDR      r1,[r1,#0]
        0x0001a168:    684a        Jh      LDR      r2,[r1,#4]
        0x0001a16a:    9201        ..      STR      r2,[sp,#4]
        0x0001a16c:    6809        .h      LDR      r1,[r1,#0]
        0x0001a16e:    ea02020e    ....    AND      r2,r2,lr
        0x0001a172:    ea010403    ....    AND      r4,r1,r3
        0x0001a176:    4322        "C      ORRS     r2,r2,r4
        0x0001a178:    9102        ..      STR      r1,[sp,#8]
        0x0001a17a:    d004        ..      BEQ      0x1a186 ; am_hal_dcu_update + 150
        0x0001a17c:    2207        ."      MOVS     r2,#7
        0x0001a17e:    4610        .F      MOV      r0,r2
        0x0001a180:    b006        ..      ADD      sp,sp,#0x18
        0x0001a182:    e8bd81f0    ....    POP      {r4-r8,pc}
        0x0001a186:    f24021e0    @..!    MOVW     r1,#0x2e0
        0x0001a18a:    f2c10100    ....    MOVT     r1,#0x1000
        0x0001a18e:    6809        .h      LDR      r1,[r1,#0]
        0x0001a190:    f24005a0    @...    MOVW     r5,#0xa0
        0x0001a194:    684a        Jh      LDR      r2,[r1,#4]
        0x0001a196:    f2400698    @...    MOVW     r6,#0x98
        0x0001a19a:    9203        ..      STR      r2,[sp,#0xc]
        0x0001a19c:    680c        .h      LDR      r4,[r1,#0]
        0x0001a19e:    f2c10500    ....    MOVT     r5,#0x1000
        0x0001a1a2:    f2c10600    ....    MOVT     r6,#0x1000
        0x0001a1a6:    9404        ..      STR      r4,[sp,#0x10]
        0x0001a1a8:    2800        .(      CMP      r0,#0
        0x0001a1aa:    bf18        ..      IT       NE
        0x0001a1ac:    462e        .F      MOVNE    r6,r5
        0x0001a1ae:    e9d65000    ...P    LDRD     r5,r0,[r6,#0]
        0x0001a1b2:    439c        .C      BICS     r4,r4,r3
        0x0001a1b4:    ea22020e    "...    BIC      r2,r2,lr
        0x0001a1b8:    402b        +@      ANDS     r3,r3,r5
        0x0001a1ba:    ea00000e    ....    AND      r0,r0,lr
        0x0001a1be:    4310        .C      ORRS     r0,r0,r2
        0x0001a1c0:    ea430204    C...    ORR      r2,r3,r4
        0x0001a1c4:    e9cd0203    ....    STRD     r0,r2,[sp,#0xc]
        0x0001a1c8:    9803        ..      LDR      r0,[sp,#0xc]
        0x0001a1ca:    6048        H`      STR      r0,[r1,#4]
        0x0001a1cc:    9804        ..      LDR      r0,[sp,#0x10]
        0x0001a1ce:    6008        .`      STR      r0,[r1,#0]
        0x0001a1d0:    f8dc0000    ....    LDR      r0,[r12,#0]
        0x0001a1d4:    07c0        ..      LSLS     r0,r0,#31
        0x0001a1d6:    d0fb        ..      BEQ      0x1a1d0 ; am_hal_dcu_update + 224
        0x0001a1d8:    2200        ."      MOVS     r2,#0
        0x0001a1da:    e7d0        ..      B        0x1a17e ; am_hal_dcu_update + 142
    am_hal_delay_us
        0x0001a1dc:    f2410100    A...    MOVW     r1,#0x1000
        0x0001a1e0:    f2c40102    ....    MOVT     r1,#0x4002
        0x0001a1e4:    6809        .h      LDR      r1,[r1,#0]
        0x0001a1e6:    2205        ."      MOVS     r2,#5
        0x0001a1e8:    f0010118    ....    AND      r1,r1,#0x18
        0x0001a1ec:    2910        .)      CMP      r1,#0x10
        0x0001a1ee:    bf08        ..      IT       EQ
        0x0001a1f0:    2206        ."      MOVEQ    r2,#6
        0x0001a1f2:    fa00f002    ....    LSL      r0,r0,r2
        0x0001a1f6:    f04f010f    O...    MOV      r1,#0xf
        0x0001a1fa:    bf08        ..      IT       EQ
        0x0001a1fc:    2115        .!      MOVEQ    r1,#0x15
        0x0001a1fe:    4281        .B      CMP      r1,r0
        0x0001a200:    bf28        (.      IT       CS
        0x0001a202:    4770        pG      BXCS     lr
        0x0001a204:    1a40        @.      SUBS     r0,r0,r1
        0x0001a206:    f24f41d4    O..A    MOV      r1,#0xf4d4
        0x0001a20a:    f2c00101    ....    MOVT     r1,#1
        0x0001a20e:    6a49        Ij      LDR      r1,[r1,#0x24]
        0x0001a210:    4708        .G      BX       r1
        0x0001a212:    0000        ..      MOVS     r0,r0
    am_hal_delay_us_status_change
        0x0001a214:    e92d43f0    -..C    PUSH     {r4-r9,lr}
        0x0001a218:    b081        ..      SUB      sp,sp,#4
        0x0001a21a:    460d        .F      MOV      r5,r1
        0x0001a21c:    6809        .h      LDR      r1,[r1,#0]
        0x0001a21e:    4011        .@      ANDS     r1,r1,r2
        0x0001a220:    4299        .B      CMP      r1,r3
        0x0001a222:    d01b        ..      BEQ      0x1a25c ; am_hal_delay_us_status_change + 72
        0x0001a224:    f24f41d4    O..A    MOV      r1,#0xf4d4
        0x0001a228:    f2c00101    ....    MOVT     r1,#1
        0x0001a22c:    6a4f        Oj      LDR      r7,[r1,#0x24]
        0x0001a22e:    f2410900    A...    MOVW     r9,#0x1000
        0x0001a232:    4698        .F      MOV      r8,r3
        0x0001a234:    4616        .F      MOV      r6,r2
        0x0001a236:    1c44        D.      ADDS     r4,r0,#1
        0x0001a238:    f2c40902    ....    MOVT     r9,#0x4002
        0x0001a23c:    3c01        .<      SUBS     r4,#1
        0x0001a23e:    d00f        ..      BEQ      0x1a260 ; am_hal_delay_us_status_change + 76
        0x0001a240:    f8d90000    ....    LDR      r0,[r9,#0]
        0x0001a244:    f0000018    ....    AND      r0,r0,#0x18
        0x0001a248:    2810        .(      CMP      r0,#0x10
        0x0001a24a:    f04f0011    O...    MOV      r0,#0x11
        0x0001a24e:    bf08        ..      IT       EQ
        0x0001a250:    202b        +       MOVEQ    r0,#0x2b
        0x0001a252:    47b8        .G      BLX      r7
        0x0001a254:    6828        (h      LDR      r0,[r5,#0]
        0x0001a256:    4030        0@      ANDS     r0,r0,r6
        0x0001a258:    4540        @E      CMP      r0,r8
        0x0001a25a:    d1ef        ..      BNE      0x1a23c ; am_hal_delay_us_status_change + 40
        0x0001a25c:    2000        .       MOVS     r0,#0
        0x0001a25e:    e000        ..      B        0x1a262 ; am_hal_delay_us_status_change + 78
        0x0001a260:    2004        .       MOVS     r0,#4
        0x0001a262:    b001        ..      ADD      sp,sp,#4
        0x0001a264:    e8bd83f0    ....    POP      {r4-r9,pc}
    am_hal_delay_us_status_check
        0x0001a268:    e92d47f0    -..G    PUSH     {r4-r10,lr}
        0x0001a26c:    4607        .F      MOV      r7,r0
        0x0001a26e:    f24f40d4    O..@    MOV      r0,#0xf4d4
        0x0001a272:    f2c00001    ....    MOVT     r0,#1
        0x0001a276:    f8dd8020    .. .    LDR      r8,[sp,#0x20]
        0x0001a27a:    6a44        Dj      LDR      r4,[r0,#0x24]
        0x0001a27c:    f2410a00    A...    MOVW     r10,#0x1000
        0x0001a280:    4699        .F      MOV      r9,r3
        0x0001a282:    4615        .F      MOV      r5,r2
        0x0001a284:    460e        .F      MOV      r6,r1
        0x0001a286:    f2c40a02    ....    MOVT     r10,#0x4002
        0x0001a28a:    bf00        ..      NOP      
        0x0001a28c:    6830        0h      LDR      r0,[r6,#0]
        0x0001a28e:    f1b80f00    ....    CMP      r8,#0
        0x0001a292:    ea000005    ....    AND      r0,r0,r5
        0x0001a296:    d003        ..      BEQ      0x1a2a0 ; am_hal_delay_us_status_check + 56
        0x0001a298:    4548        HE      CMP      r0,r9
        0x0001a29a:    d103        ..      BNE      0x1a2a4 ; am_hal_delay_us_status_check + 60
        0x0001a29c:    e00f        ..      B        0x1a2be ; am_hal_delay_us_status_check + 86
        0x0001a29e:    bf00        ..      NOP      
        0x0001a2a0:    4548        HE      CMP      r0,r9
        0x0001a2a2:    d10c        ..      BNE      0x1a2be ; am_hal_delay_us_status_check + 86
        0x0001a2a4:    b177        w.      CBZ      r7,0x1a2c4 ; am_hal_delay_us_status_check + 92
        0x0001a2a6:    f8da0000    ....    LDR      r0,[r10,#0]
        0x0001a2aa:    3f01        .?      SUBS     r7,#1
        0x0001a2ac:    f0000018    ....    AND      r0,r0,#0x18
        0x0001a2b0:    2810        .(      CMP      r0,#0x10
        0x0001a2b2:    f04f0011    O...    MOV      r0,#0x11
        0x0001a2b6:    bf08        ..      IT       EQ
        0x0001a2b8:    202b        +       MOVEQ    r0,#0x2b
        0x0001a2ba:    47a0        .G      BLX      r4
        0x0001a2bc:    e7e6        ..      B        0x1a28c ; am_hal_delay_us_status_check + 36
        0x0001a2be:    2000        .       MOVS     r0,#0
        0x0001a2c0:    e8bd87f0    ....    POP      {r4-r10,pc}
        0x0001a2c4:    2004        .       MOVS     r0,#4
        0x0001a2c6:    e8bd87f0    ....    POP      {r4-r10,pc}
    am_hal_fault_capture_enable
        0x0001a2ca:    2190        .!      MOVS     r1,#0x90
        0x0001a2cc:    f6c40100    ....    MOVT     r1,#0x4800
        0x0001a2d0:    6808        .h      LDR      r0,[r1,#0]
        0x0001a2d2:    f0400201    @...    ORR      r2,r0,#1
        0x0001a2d6:    2000        .       MOVS     r0,#0
        0x0001a2d8:    600a        .`      STR      r2,[r1,#0]
        0x0001a2da:    4770        pG      BX       lr
    am_hal_fault_status_get
        0x0001a2dc:    b1c8        ..      CBZ      r0,0x1a312 ; am_hal_fault_status_get + 54
        0x0001a2de:    2180        .!      MOVS     r1,#0x80
        0x0001a2e0:    f6c40100    ....    MOVT     r1,#0x4800
        0x0001a2e4:    68ca        .h      LDR      r2,[r1,#0xc]
        0x0001a2e6:    b2d3        ..      UXTB     r3,r2
        0x0001a2e8:    f0020201    ....    AND      r2,r2,#1
        0x0001a2ec:    7002        .p      STRB     r2,[r0,#0]
        0x0001a2ee:    f3c30240    ..@.    UBFX     r2,r3,#1,#1
        0x0001a2f2:    7202        .r      STRB     r2,[r0,#8]
        0x0001a2f4:    f3c30280    ....    UBFX     r2,r3,#2,#1
        0x0001a2f8:    7402        .t      STRB     r2,[r0,#0x10]
        0x0001a2fa:    684a        Jh      LDR      r2,[r1,#4]
        0x0001a2fc:    60c2        .`      STR      r2,[r0,#0xc]
        0x0001a2fe:    680a        .h      LDR      r2,[r1,#0]
        0x0001a300:    6843        Ch      LDR      r3,[r0,#4]
        0x0001a302:    431a        .C      ORRS     r2,r2,r3
        0x0001a304:    6042        B`      STR      r2,[r0,#4]
        0x0001a306:    6889        .h      LDR      r1,[r1,#8]
        0x0001a308:    6942        Bi      LDR      r2,[r0,#0x14]
        0x0001a30a:    4311        .C      ORRS     r1,r1,r2
        0x0001a30c:    6141        Aa      STR      r1,[r0,#0x14]
        0x0001a30e:    2000        .       MOVS     r0,#0
        0x0001a310:    4770        pG      BX       lr
        0x0001a312:    2006        .       MOVS     r0,#6
        0x0001a314:    4770        pG      BX       lr
        0x0001a316:    0000        ..      MOVS     r0,r0
    am_hal_gpio_pinconfig
        0x0001a318:    b081        ..      SUB      sp,sp,#4
        0x0001a31a:    287f        .(      CMP      r0,#0x7f
        0x0001a31c:    9100        ..      STR      r1,[sp,#0]
        0x0001a31e:    d901        ..      BLS      0x1a324 ; am_hal_gpio_pinconfig + 12
        0x0001a320:    2005        .       MOVS     r0,#5
        0x0001a322:    e01c        ..      B        0x1a35e ; am_hal_gpio_pinconfig + 70
        0x0001a324:    0509        ..      LSLS     r1,r1,#20
        0x0001a326:    d508        ..      BPL      0x1a33a ; am_hal_gpio_pinconfig + 34
        0x0001a328:    0941        A.      LSRS     r1,r0,#5
        0x0001a32a:    a20e        ..      ADR      r2,{pc}+0x3a ; 0x1a364
        0x0001a32c:    f8521021    R.!.    LDR      r1,[r2,r1,LSL #2]
        0x0001a330:    f000021f    ....    AND      r2,r0,#0x1f
        0x0001a334:    40d1        .@      LSRS     r1,r1,r2
        0x0001a336:    07c9        ..      LSLS     r1,r1,#31
        0x0001a338:    d010        ..      BEQ      0x1a35c ; am_hal_gpio_pinconfig + 68
        0x0001a33a:    f2402100    @..!    MOVW     r1,#0x200
        0x0001a33e:    f2c40101    ....    MOVT     r1,#0x4001
        0x0001a342:    2273        s"      MOVS     r2,#0x73
        0x0001a344:    600a        .`      STR      r2,[r1,#0]
        0x0001a346:    9a00        ..      LDR      r2,[sp,#0]
        0x0001a348:    f64f6300    O..c    MOVW     r3,#0xfe00
        0x0001a34c:    eb010080    ....    ADD      r0,r1,r0,LSL #2
        0x0001a350:    f6cf73ff    ...s    MOVT     r3,#0xffff
        0x0001a354:    50c2        .P      STR      r2,[r0,r3]
        0x0001a356:    2000        .       MOVS     r0,#0
        0x0001a358:    6008        .`      STR      r0,[r1,#0]
        0x0001a35a:    e000        ..      B        0x1a35e ; am_hal_gpio_pinconfig + 70
        0x0001a35c:    2007        .       MOVS     r0,#7
        0x0001a35e:    b001        ..      ADD      sp,sp,#4
        0x0001a360:    4770        pG      BX       lr
        0x0001a362:    bf00        ..      NOP      
    $d.2
    g_ui32DSpintbl
        0x0001a364:    8fc007e0    ....    DCD    2411726816
        0x0001a368:    e3fbffff    ....    DCD    3824943103
        0x0001a36c:    01ffffff    ....    DCD    33554431
        0x0001a370:    00000000    ....    DCD    0
    $t.1
    am_hal_interrupt_master_disable
        0x0001a374:    f3ef8010    ....    MRS      r0,PRIMASK
        0x0001a378:    b672        r.      CPSID    i
        0x0001a37a:    4770        pG      BX       lr
    am_hal_interrupt_master_enable
        0x0001a37c:    f3ef8010    ....    MRS      r0,PRIMASK
        0x0001a380:    b662        b.      CPSIE    i
        0x0001a382:    4770        pG      BX       lr
    am_hal_interrupt_master_set
        0x0001a384:    f3808810    ....    MSR      PRIMASK,r0
        0x0001a388:    4770        pG      BX       lr
        0x0001a38a:    0000        ..      MOVS     r0,r0
    am_hal_itm_enable
        0x0001a38c:    f64e50fc    N..P    MOV      r0,#0xedfc
        0x0001a390:    f2ce0000    ....    MOVT     r0,#0xe000
        0x0001a394:    6801        .h      LDR      r1,[r0,#0]
        0x0001a396:    f0417180    A..q    ORR      r1,r1,#0x1000000
        0x0001a39a:    6001        .`      STR      r1,[r0,#0]
        0x0001a39c:    6801        .h      LDR      r1,[r0,#0]
        0x0001a39e:    01c9        ..      LSLS     r1,r1,#7
        0x0001a3a0:    d5fc        ..      BPL      0x1a39c ; am_hal_itm_enable + 16
        0x0001a3a2:    f6406000    @..`    MOVW     r0,#0xe00
        0x0001a3a6:    f64c6155    L.Ua    MOV      r1,#0xce55
        0x0001a3aa:    f2ce0000    ....    MOVT     r0,#0xe000
        0x0001a3ae:    f2cc51ac    ...Q    MOVT     r1,#0xc5ac
        0x0001a3b2:    f8c011b0    ....    STR      r1,[r0,#0x1b0]
        0x0001a3b6:    210f        .!      MOVS     r1,#0xf
        0x0001a3b8:    6401        .d      STR      r1,[r0,#0x40]
        0x0001a3ba:    f04f31ff    O..1    MOV      r1,#0xffffffff
        0x0001a3be:    6001        .`      STR      r1,[r0,#0]
        0x0001a3c0:    f2405111    @..Q    MOV      r1,#0x511
        0x0001a3c4:    f2c00115    ....    MOVT     r1,#0x15
        0x0001a3c8:    f8c01080    ....    STR      r1,[r0,#0x80]
        0x0001a3cc:    4770        pG      BX       lr
        0x0001a3ce:    0000        ..      MOVS     r0,r0
    am_hal_itm_print
        0x0001a3d0:    2100        .!      MOVS     r1,#0
        0x0001a3d2:    bf00        ..      NOP      
        0x0001a3d4:    5c42        B\      LDRB     r2,[r0,r1]
        0x0001a3d6:    3101        .1      ADDS     r1,#1
        0x0001a3d8:    2a00        .*      CMP      r2,#0
        0x0001a3da:    d1fb        ..      BNE      0x1a3d4 ; am_hal_itm_print + 4
        0x0001a3dc:    3901        .9      SUBS     r1,#1
        0x0001a3de:    bf08        ..      IT       EQ
        0x0001a3e0:    4770        pG      BXEQ     lr
        0x0001a3e2:    f04f4260    O.`B    MOV      r2,#0xe0000000
        0x0001a3e6:    bf00        ..      NOP      
        0x0001a3e8:    f890c000    ....    LDRB     r12,[r0,#0]
        0x0001a3ec:    6813        .h      LDR      r3,[r2,#0]
        0x0001a3ee:    2b00        .+      CMP      r3,#0
        0x0001a3f0:    d0fc        ..      BEQ      0x1a3ec ; am_hal_itm_print + 28
        0x0001a3f2:    3001        .0      ADDS     r0,#1
        0x0001a3f4:    3901        .9      SUBS     r1,#1
        0x0001a3f6:    f882c000    ....    STRB     r12,[r2,#0]
        0x0001a3fa:    d1f5        ..      BNE      0x1a3e8 ; am_hal_itm_print + 24
        0x0001a3fc:    4770        pG      BX       lr
    am_hal_load_ui32
        0x0001a3fe:    f24f41d4    O..A    MOV      r1,#0xf4d4
        0x0001a402:    f2c00101    ....    MOVT     r1,#1
        0x0001a406:    6949        Ii      LDR      r1,[r1,#0x14]
        0x0001a408:    4708        .G      BX       r1
    am_hal_mram_ds_init
        0x0001a40a:    b580        ..      PUSH     {r7,lr}
        0x0001a40c:    f24020ec    @..     MOVW     r0,#0x2ec
        0x0001a410:    f2c10000    ....    MOVT     r0,#0x1000
        0x0001a414:    6800        .h      LDR      r0,[r0,#0]
        0x0001a416:    4780        .G      BLX      r0
        0x0001a418:    2000        .       MOVS     r0,#0
        0x0001a41a:    bd80        ..      POP      {r7,pc}
    am_hal_mram_info_read
        0x0001a41c:    e92d41f0    -..A    PUSH     {r4-r8,lr}
        0x0001a420:    b082        ..      SUB      sp,sp,#8
        0x0001a422:    461c        .F      MOV      r4,r3
        0x0001a424:    4615        .F      MOV      r5,r2
        0x0001a426:    2801        .(      CMP      r0,#1
        0x0001a428:    460e        .F      MOV      r6,r1
        0x0001a42a:    d00d        ..      BEQ      0x1a448 ; am_hal_mram_info_read + 44
        0x0001a42c:    bbd8        ..      CBNZ     r0,0x1a4a6 ; am_hal_mram_info_read + 138
        0x0001a42e:    2000        .       MOVS     r0,#0
        0x0001a430:    ebb02f56    ..V/    CMP      r0,r6,LSR #9
        0x0001a434:    f04f0702    O...    MOV      r7,#2
        0x0001a438:    d136        6.      BNE      0x1a4a8 ; am_hal_mram_info_read + 140
        0x0001a43a:    19a8        ..      ADDS     r0,r5,r6
        0x0001a43c:    f5b07f00    ....    CMP      r0,#0x200
        0x0001a440:    d832        2.      BHI      0x1a4a8 ; am_hal_mram_info_read + 140
        0x0001a442:    f04f4784    O..G    MOV      r7,#0x42000000
        0x0001a446:    e00e        ..      B        0x1a466 ; am_hal_mram_info_read + 74
        0x0001a448:    f5a66090    ...`    SUB      r0,r6,#0x480
        0x0001a44c:    09c0        ..      LSRS     r0,r0,#7
        0x0001a44e:    2802        .(      CMP      r0,#2
        0x0001a450:    f04f0702    O...    MOV      r7,#2
        0x0001a454:    d828        (.      BHI      0x1a4a8 ; am_hal_mram_info_read + 140
        0x0001a456:    19a8        ..      ADDS     r0,r5,r6
        0x0001a458:    f5b06fc0    ...o    CMP      r0,#0x600
        0x0001a45c:    d824        $.      BHI      0x1a4a8 ; am_hal_mram_info_read + 140
        0x0001a45e:    f2420700    B...    MOVW     r7,#0x2000
        0x0001a462:    f2c42700    ...'    MOVT     r7,#0x4200
        0x0001a466:    f24028e8    @..(    MOVW     r8,#0x2e8
        0x0001a46a:    f2c10800    ....    MOVT     r8,#0x1000
        0x0001a46e:    f8d81000    ....    LDR      r1,[r8,#0]
        0x0001a472:    2001        .       MOVS     r0,#1
        0x0001a474:    4788        .G      BLX      r1
        0x0001a476:    f7ffff7d    ..}.    BL       am_hal_interrupt_master_disable ; 0x1a374
        0x0001a47a:    9001        ..      STR      r0,[sp,#4]
        0x0001a47c:    b155        U.      CBZ      r5,0x1a494 ; am_hal_mram_info_read + 120
        0x0001a47e:    eb070086    ....    ADD      r0,r7,r6,LSL #2
        0x0001a482:    bf00        ..      NOP      
        0x0001a484:    1d06        ..      ADDS     r6,r0,#4
        0x0001a486:    f7ffffba    ....    BL       am_hal_load_ui32 ; 0x1a3fe
        0x0001a48a:    f8440b04    D...    STR      r0,[r4],#4
        0x0001a48e:    3d01        .=      SUBS     r5,#1
        0x0001a490:    4630        0F      MOV      r0,r6
        0x0001a492:    d1f7        ..      BNE      0x1a484 ; am_hal_mram_info_read + 104
        0x0001a494:    9801        ..      LDR      r0,[sp,#4]
        0x0001a496:    f7ffff75    ..u.    BL       am_hal_interrupt_master_set ; 0x1a384
        0x0001a49a:    f8d81000    ....    LDR      r1,[r8,#0]
        0x0001a49e:    2000        .       MOVS     r0,#0
        0x0001a4a0:    2700        .'      MOVS     r7,#0
        0x0001a4a2:    4788        .G      BLX      r1
        0x0001a4a4:    e000        ..      B        0x1a4a8 ; am_hal_mram_info_read + 140
        0x0001a4a6:    2701        .'      MOVS     r7,#1
        0x0001a4a8:    4638        8F      MOV      r0,r7
        0x0001a4aa:    b002        ..      ADD      sp,sp,#8
        0x0001a4ac:    e8bd81f0    ....    POP      {r4-r8,pc}
    am_hal_mspi_blocking_transfer
        0x0001a4b0:    e92d4ff0    -..O    PUSH     {r4-r11,lr}
        0x0001a4b4:    b087        ..      SUB      sp,sp,#0x1c
        0x0001a4b6:    b1c8        ..      CBZ      r0,0x1a4ec ; am_hal_mspi_blocking_transfer + 60
        0x0001a4b8:    4614        .F      MOV      r4,r2
        0x0001a4ba:    6802        .h      LDR      r2,[r0,#0]
        0x0001a4bc:    f64b63be    K..c    MOV      r3,#0xbebe
        0x0001a4c0:    f022427e    ".~B    BIC      r2,r2,#0xfe000000
        0x0001a4c4:    f2c013be    ....    MOVT     r3,#0x1be
        0x0001a4c8:    429a        .B      CMP      r2,r3
        0x0001a4ca:    d10f        ..      BNE      0x1a4ec ; am_hal_mspi_blocking_transfer + 60
        0x0001a4cc:    7c8a        .|      LDRB     r2,[r1,#0x12]
        0x0001a4ce:    b95a        Z.      CBNZ     r2,0x1a4e8 ; am_hal_mspi_blocking_transfer + 56
        0x0001a4d0:    6a02        .j      LDR      r2,[r0,#0x20]
        0x0001a4d2:    b94a        J.      CBNZ     r2,0x1a4e8 ; am_hal_mspi_blocking_transfer + 56
        0x0001a4d4:    f8d02840    ..@(    LDR      r2,[r0,#0x840]
        0x0001a4d8:    b932        2.      CBNZ     r2,0x1a4e8 ; am_hal_mspi_blocking_transfer + 56
        0x0001a4da:    680b        .h      LDR      r3,[r1,#0]
        0x0001a4dc:    2b7f        .+      CMP      r3,#0x7f
        0x0001a4de:    d803        ..      BHI      0x1a4e8 ; am_hal_mspi_blocking_transfer + 56
        0x0001a4e0:    f890282c    ..,(    LDRB     r2,[r0,#0x82c]
        0x0001a4e4:    2a02        .*      CMP      r2,#2
        0x0001a4e6:    d106        ..      BNE      0x1a4f6 ; am_hal_mspi_blocking_transfer + 70
        0x0001a4e8:    2507        .%      MOVS     r5,#7
        0x0001a4ea:    e000        ..      B        0x1a4ee ; am_hal_mspi_blocking_transfer + 62
        0x0001a4ec:    2502        .%      MOVS     r5,#2
        0x0001a4ee:    4628        (F      MOV      r0,r5
        0x0001a4f0:    b007        ..      ADD      sp,sp,#0x1c
        0x0001a4f2:    e8bd8ff0    ....    POP      {r4-r11,pc}
        0x0001a4f6:    790e        .y      LDRB     r6,[r1,#4]
        0x0001a4f8:    798d        .y      LDRB     r5,[r1,#6]
        0x0001a4fa:    7b0f        .{      LDRB     r7,[r1,#0xc]
        0x0001a4fc:    0276        v.      LSLS     r6,r6,#9
        0x0001a4fe:    6842        Bh      LDR      r2,[r0,#4]
        0x0001a500:    f2400c00    @...    MOVW     r12,#0
        0x0001a504:    ea464303    F..C    ORR      r3,r6,r3,LSL #16
        0x0001a508:    f0050601    ....    AND      r6,r5,#1
        0x0001a50c:    f2c40c06    ....    MOVT     r12,#0x4006
        0x0001a510:    ea4313c6    C...    ORR      r3,r3,r6,LSL #7
        0x0001a514:    b12f        /.      CBZ      r7,0x1a522 ; am_hal_mspi_blocking_transfer + 114
        0x0001a516:    89cf        ..      LDRH     r7,[r1,#0xe]
        0x0001a518:    f0430340    C.@.    ORR      r3,r3,#0x40
        0x0001a51c:    eb0c3602    ...6    ADD      r6,r12,r2,LSL #12
        0x0001a520:    60f7        .`      STR      r7,[r6,#0xc]
        0x0001a522:    79cf        .y      LDRB     r7,[r1,#7]
        0x0001a524:    b13f        ?.      CBZ      r7,0x1a536 ; am_hal_mspi_blocking_transfer + 134
        0x0001a526:    688f        .h      LDR      r7,[r1,#8]
        0x0001a528:    f0430320    C. .    ORR      r3,r3,#0x20
        0x0001a52c:    eb0c3902    ...9    ADD      r9,r12,r2,LSL #12
        0x0001a530:    f8c97008    ...p    STR      r7,[r9,#8]
        0x0001a534:    e001        ..      B        0x1a53a ; am_hal_mspi_blocking_transfer + 138
        0x0001a536:    eb0c3902    ...9    ADD      r9,r12,r2,LSL #12
        0x0001a53a:    7c0e        .|      LDRB     r6,[r1,#0x10]
        0x0001a53c:    794f        Oy      LDRB     r7,[r1,#5]
        0x0001a53e:    2e00        ..      CMP      r6,#0
        0x0001a540:    7b46        F{      LDRB     r6,[r0,#0xd]
        0x0001a542:    7c4d        M|      LDRB     r5,[r1,#0x11]
        0x0001a544:    bf18        ..      IT       NE
        0x0001a546:    f4436380    C..c    ORRNE    r3,r3,#0x400
        0x0001a54a:    ea432306    C..#    ORR      r3,r3,r6,LSL #8
        0x0001a54e:    ea433305    C..3    ORR      r3,r3,r5,LSL #12
        0x0001a552:    2f00        ./      CMP      r7,#0
        0x0001a554:    bf18        ..      IT       NE
        0x0001a556:    f4436300    C..c    ORRNE    r3,r3,#0x800
        0x0001a55a:    2700        .'      MOVS     r7,#0
        0x0001a55c:    f0430301    C...    ORR      r3,r3,#1
        0x0001a560:    f8d96200    ...b    LDR      r6,[r9,#0x200]
        0x0001a564:    f8c97200    ...r    STR      r7,[r9,#0x200]
        0x0001a568:    f04f37ff    O..7    MOV      r7,#0xffffffff
        0x0001a56c:    f8c97208    ...r    STR      r7,[r9,#0x208]
        0x0001a570:    f8c93000    ...0    STR      r3,[r9,#0]
        0x0001a574:    798b        .y      LDRB     r3,[r1,#6]
        0x0001a576:    2b01        .+      CMP      r3,#1
        0x0001a578:    d005        ..      BEQ      0x1a586 ; am_hal_mspi_blocking_transfer + 214
        0x0001a57a:    2b00        .+      CMP      r3,#0
        0x0001a57c:    d16d        m.      BNE      0x1a65a ; am_hal_mspi_blocking_transfer + 426
        0x0001a57e:    2a02        .*      CMP      r2,#2
        0x0001a580:    d905        ..      BLS      0x1a58e ; am_hal_mspi_blocking_transfer + 222
        0x0001a582:    2505        .%      MOVS     r5,#5
        0x0001a584:    e061        a.      B        0x1a64a ; am_hal_mspi_blocking_transfer + 410
        0x0001a586:    2a02        .*      CMP      r2,#2
        0x0001a588:    d940        @.      BLS      0x1a60c ; am_hal_mspi_blocking_transfer + 348
        0x0001a58a:    2505        .%      MOVS     r5,#5
        0x0001a58c:    e05e        ^.      B        0x1a64c ; am_hal_mspi_blocking_transfer + 412
        0x0001a58e:    680a        .h      LDR      r2,[r1,#0]
        0x0001a590:    9605        ..      STR      r6,[sp,#0x14]
        0x0001a592:    6949        Ii      LDR      r1,[r1,#0x14]
        0x0001a594:    f8d08010    ....    LDR      r8,[r0,#0x10]
        0x0001a598:    2600        .&      MOVS     r6,#0
        0x0001a59a:    ebb60f92    ....    CMP      r6,r2,LSR #2
        0x0001a59e:    ea4f0092    O...    LSR      r0,r2,#2
        0x0001a5a2:    9104        ..      STR      r1,[sp,#0x10]
        0x0001a5a4:    9202        ..      STR      r2,[sp,#8]
        0x0001a5a6:    9003        ..      STR      r0,[sp,#0xc]
        0x0001a5a8:    d013        ..      BEQ      0x1a5d2 ; am_hal_mspi_blocking_transfer + 290
        0x0001a5aa:    e9ddab03    ....    LDRD     r10,r11,[sp,#0xc]
        0x0001a5ae:    f109071c    ....    ADD      r7,r9,#0x1c
        0x0001a5b2:    4640        @F      MOV      r0,r8
        0x0001a5b4:    4639        9F      MOV      r1,r7
        0x0001a5b6:    223f        ?"      MOVS     r2,#0x3f
        0x0001a5b8:    2300        .#      MOVS     r3,#0
        0x0001a5ba:    9600        ..      STR      r6,[sp,#0]
        0x0001a5bc:    f7fffe54    ..T.    BL       am_hal_delay_us_status_check ; 0x1a268
        0x0001a5c0:    2800        .(      CMP      r0,#0
        0x0001a5c2:    d140        @.      BNE      0x1a646 ; am_hal_mspi_blocking_transfer + 406
        0x0001a5c4:    f8d90014    ....    LDR      r0,[r9,#0x14]
        0x0001a5c8:    f1ba0a01    ....    SUBS     r10,r10,#1
        0x0001a5cc:    f84b0b04    K...    STR      r0,[r11],#4
        0x0001a5d0:    d1ef        ..      BNE      0x1a5b2 ; am_hal_mspi_blocking_transfer + 258
        0x0001a5d2:    9802        ..      LDR      r0,[sp,#8]
        0x0001a5d4:    2500        .%      MOVS     r5,#0
        0x0001a5d6:    f0100703    ....    ANDS     r7,r0,#3
        0x0001a5da:    d035        5.      BEQ      0x1a648 ; am_hal_mspi_blocking_transfer + 408
        0x0001a5dc:    f109011c    ....    ADD      r1,r9,#0x1c
        0x0001a5e0:    4640        @F      MOV      r0,r8
        0x0001a5e2:    223f        ?"      MOVS     r2,#0x3f
        0x0001a5e4:    2300        .#      MOVS     r3,#0
        0x0001a5e6:    9500        ..      STR      r5,[sp,#0]
        0x0001a5e8:    f7fffe3e    ..>.    BL       am_hal_delay_us_status_check ; 0x1a268
        0x0001a5ec:    9e05        ..      LDR      r6,[sp,#0x14]
        0x0001a5ee:    4605        .F      MOV      r5,r0
        0x0001a5f0:    bb58        X.      CBNZ     r0,0x1a64a ; am_hal_mspi_blocking_transfer + 410
        0x0001a5f2:    f8d90014    ....    LDR      r0,[r9,#0x14]
        0x0001a5f6:    463a        :F      MOV      r2,r7
        0x0001a5f8:    9006        ..      STR      r0,[sp,#0x18]
        0x0001a5fa:    e9dd1003    ....    LDRD     r1,r0,[sp,#0xc]
        0x0001a5fe:    eb000081    ....    ADD      r0,r0,r1,LSL #2
        0x0001a602:    a906        ..      ADD      r1,sp,#0x18
        0x0001a604:    f7fdfecc    ....    BL       __aeabi_memcpy ; 0x183a0
        0x0001a608:    2500        .%      MOVS     r5,#0
        0x0001a60a:    e01e        ..      B        0x1a64a ; am_hal_mspi_blocking_transfer + 410
        0x0001a60c:    f8d18000    ....    LDR      r8,[r1,#0]
        0x0001a610:    f1b80f00    ....    CMP      r8,#0
        0x0001a614:    d021        !.      BEQ      0x1a65a ; am_hal_mspi_blocking_transfer + 426
        0x0001a616:    f8d1b014    ....    LDR      r11,[r1,#0x14]
        0x0001a61a:    6907        .i      LDR      r7,[r0,#0x10]
        0x0001a61c:    9605        ..      STR      r6,[sp,#0x14]
        0x0001a61e:    f1090618    ....    ADD      r6,r9,#0x18
        0x0001a622:    f04f0a00    O...    MOV      r10,#0
        0x0001a626:    f85b000a    [...    LDR      r0,[r11,r10]
        0x0001a62a:    4631        1F      MOV      r1,r6
        0x0001a62c:    f8c90010    ....    STR      r0,[r9,#0x10]
        0x0001a630:    4638        8F      MOV      r0,r7
        0x0001a632:    223f        ?"      MOVS     r2,#0x3f
        0x0001a634:    2310        .#      MOVS     r3,#0x10
        0x0001a636:    2500        .%      MOVS     r5,#0
        0x0001a638:    9500        ..      STR      r5,[sp,#0]
        0x0001a63a:    f7fffe15    ....    BL       am_hal_delay_us_status_check ; 0x1a268
        0x0001a63e:    f10a0a04    ....    ADD      r10,r10,#4
        0x0001a642:    45c2        .E      CMP      r10,r8
        0x0001a644:    d3ef        ..      BCC      0x1a626 ; am_hal_mspi_blocking_transfer + 374
        0x0001a646:    4605        .F      MOV      r5,r0
        0x0001a648:    9e05        ..      LDR      r6,[sp,#0x14]
        0x0001a64a:    b135        5.      CBZ      r5,0x1a65a ; am_hal_mspi_blocking_transfer + 426
        0x0001a64c:    f04f30ff    O..0    MOV      r0,#0xffffffff
        0x0001a650:    f8c90208    ....    STR      r0,[r9,#0x208]
        0x0001a654:    f8c96200    ...b    STR      r6,[r9,#0x200]
        0x0001a658:    e749        I.      B        0x1a4ee ; am_hal_mspi_blocking_transfer + 62
        0x0001a65a:    2701        .'      MOVS     r7,#1
        0x0001a65c:    4620         F      MOV      r0,r4
        0x0001a65e:    4649        IF      MOV      r1,r9
        0x0001a660:    2202        ."      MOVS     r2,#2
        0x0001a662:    2302        .#      MOVS     r3,#2
        0x0001a664:    9700        ..      STR      r7,[sp,#0]
        0x0001a666:    f7fffdff    ....    BL       am_hal_delay_us_status_check ; 0x1a268
        0x0001a66a:    f04f31ff    O..1    MOV      r1,#0xffffffff
        0x0001a66e:    f8c91208    ....    STR      r1,[r9,#0x208]
        0x0001a672:    f8c96200    ...b    STR      r6,[r9,#0x200]
        0x0001a676:    e73b        ;.      B        0x1a4f0 ; am_hal_mspi_blocking_transfer + 64
    am_hal_mspi_configure
        0x0001a678:    e92d41f0    -..A    PUSH     {r4-r8,lr}
        0x0001a67c:    b082        ..      SUB      sp,sp,#8
        0x0001a67e:    4605        .F      MOV      r5,r0
        0x0001a680:    6800        .h      LDR      r0,[r0,#0]
        0x0001a682:    f64b63be    K..c    MOV      r3,#0xbebe
        0x0001a686:    f020427e     .~B    BIC      r2,r0,#0xfe000000
        0x0001a68a:    f2c013be    ....    MOVT     r3,#0x1be
        0x0001a68e:    429a        .B      CMP      r2,r3
        0x0001a690:    d16e        n.      BNE      0x1a770 ; am_hal_mspi_configure + 248
        0x0001a692:    0180        ..      LSLS     r0,r0,#6
        0x0001a694:    d46e        n.      BMI      0x1a774 ; am_hal_mspi_configure + 252
        0x0001a696:    686e        nh      LDR      r6,[r5,#4]
        0x0001a698:    2090        .       MOVS     r0,#0x90
        0x0001a69a:    0337        7.      LSLS     r7,r6,#12
        0x0001a69c:    f2c40006    ....    MOVT     r0,#0x4006
        0x0001a6a0:    460c        .F      MOV      r4,r1
        0x0001a6a2:    59c1        .Y      LDR      r1,[r0,r7]
        0x0001a6a4:    f0210101    !...    BIC      r1,r1,#1
        0x0001a6a8:    51c1        .Q      STR      r1,[r0,r7]
        0x0001a6aa:    f7fffe63    ..c.    BL       am_hal_interrupt_master_disable ; 0x1a374
        0x0001a6ae:    9001        ..      STR      r0,[sp,#4]
        0x0001a6b0:    f64270d0    B..p    MOV      r0,#0x2fd0
        0x0001a6b4:    f2c10000    ....    MOVT     r0,#0x1000
        0x0001a6b8:    6801        .h      LDR      r1,[r0,#0]
        0x0001a6ba:    f04f0801    O...    MOV      r8,#1
        0x0001a6be:    fa08f206    ....    LSL      r2,r8,r6
        0x0001a6c2:    4391        .C      BICS     r1,r1,r2
        0x0001a6c4:    6001        .`      STR      r1,[r0,#0]
        0x0001a6c6:    9801        ..      LDR      r0,[sp,#4]
        0x0001a6c8:    f7fffe5c    ..\.    BL       am_hal_interrupt_master_set ; 0x1a384
        0x0001a6cc:    209c        .       MOVS     r0,#0x9c
        0x0001a6ce:    f2c40006    ....    MOVT     r0,#0x4006
        0x0001a6d2:    2200        ."      MOVS     r2,#0
        0x0001a6d4:    51c2        .Q      STR      r2,[r0,r7]
        0x0001a6d6:    2080        .       MOVS     r0,#0x80
        0x0001a6d8:    f2c40006    ....    MOVT     r0,#0x4006
        0x0001a6dc:    f6427cdc    B..|    MOV      r12,#0x2fdc
        0x0001a6e0:    51c2        .Q      STR      r2,[r0,r7]
        0x0001a6e2:    f2c10c00    ....    MOVT     r12,#0x1000
        0x0001a6e6:    f44f600c    O..`    MOV      r0,#0x8c0
        0x0001a6ea:    6863        ch      LDR      r3,[r4,#4]
        0x0001a6ec:    fb06c000    ....    MLA      r0,r6,r0,r12
        0x0001a6f0:    6827        'h      LDR      r7,[r4,#0]
        0x0001a6f2:    6183        .a      STR      r3,[r0,#0x18]
        0x0001a6f4:    69ab        .i      LDR      r3,[r5,#0x18]
        0x0001a6f6:    6147        Ga      STR      r7,[r0,#0x14]
        0x0001a6f8:    b393        ..      CBZ      r3,0x1a760 ; am_hal_mspi_configure + 232
        0x0001a6fa:    6969        ii      LDR      r1,[r5,#0x14]
        0x0001a6fc:    2700        .'      MOVS     r7,#0
        0x0001a6fe:    ea4f0e81    O...    LSL      lr,r1,#2
        0x0001a702:    eb030181    ....    ADD      r1,r3,r1,LSL #2
        0x0001a706:    f2c10706    ....    MOVT     r7,#0x1006
        0x0001a70a:    42b9        .B      CMP      r1,r7
        0x0001a70c:    bf38        8.      IT       CC
        0x0001a70e:    2201        ."      MOVCC    r2,#1
        0x0001a710:    f88528bc    ...(    STRB     r2,[r5,#0x8bc]
        0x0001a714:    d30f        ..      BCC      0x1a736 ; am_hal_mspi_configure + 190
        0x0001a716:    f003020f    ....    AND      r2,r3,#0xf
        0x0001a71a:    f103010f    ....    ADD      r1,r3,#0xf
        0x0001a71e:    ebae0202    ....    SUB      r2,lr,r2
        0x0001a722:    f06f0303    o...    MVN      r3,#3
        0x0001a726:    ea030292    ....    AND      r2,r3,r2,LSR #2
        0x0001a72a:    f021010f    !...    BIC      r1,r1,#0xf
        0x0001a72e:    ea4f0e82    O...    LSL      lr,r2,#2
        0x0001a732:    e9c52105    ...!    STRD     r2,r1,[r5,#0x14]
        0x0001a736:    f64832a3    H..2    MOV      r2,#0x8ba3
        0x0001a73a:    f1ae0120    .. .    SUB      r1,lr,#0x20
        0x0001a73e:    f6cb222e    ..."    MOVT     r2,#0xba2e
        0x0001a742:    fba12302    ...#    UMULL    r2,r3,r1,r2
        0x0001a746:    099a        ..      LSRS     r2,r3,#6
        0x0001a748:    f44f630c    O..c    MOV      r3,#0x8c0
        0x0001a74c:    fb06c303    ....    MLA      r3,r6,r3,r12
        0x0001a750:    f6450757    E.W.    MOV      r7,#0x5857
        0x0001a754:    42b9        .B      CMP      r1,r7
        0x0001a756:    bf88        ..      IT       HI
        0x0001a758:    f44f7280    O..r    MOVHI    r2,#0x100
        0x0001a75c:    f8c32858    ..X(    STR      r2,[r3,#0x858]
        0x0001a760:    7a21        !z      LDRB     r1,[r4,#8]
        0x0001a762:    f8808008    ....    STRB     r8,[r0,#8]
        0x0001a766:    7241        Ar      STRB     r1,[r0,#9]
        0x0001a768:    2114        .!      MOVS     r1,#0x14
        0x0001a76a:    7281        .r      STRB     r1,[r0,#0xa]
        0x0001a76c:    2000        .       MOVS     r0,#0
        0x0001a76e:    e002        ..      B        0x1a776 ; am_hal_mspi_configure + 254
        0x0001a770:    2002        .       MOVS     r0,#2
        0x0001a772:    e000        ..      B        0x1a776 ; am_hal_mspi_configure + 254
        0x0001a774:    2007        .       MOVS     r0,#7
        0x0001a776:    b002        ..      ADD      sp,sp,#8
        0x0001a778:    e8bd81f0    ....    POP      {r4-r8,pc}
    am_hal_mspi_control
        0x0001a77c:    e92d47f0    -..G    PUSH     {r4-r10,lr}
        0x0001a780:    b082        ..      SUB      sp,sp,#8
        0x0001a782:    b170        p.      CBZ      r0,0x1a7a2 ; am_hal_mspi_control + 38
        0x0001a784:    4604        .F      MOV      r4,r0
        0x0001a786:    6800        .h      LDR      r0,[r0,#0]
        0x0001a788:    4615        .F      MOV      r5,r2
        0x0001a78a:    f64b62be    K..b    MOV      r2,#0xbebe
        0x0001a78e:    f020407e     .~@    BIC      r0,r0,#0xfe000000
        0x0001a792:    f2c012be    ....    MOVT     r2,#0x1be
        0x0001a796:    4290        .B      CMP      r0,r2
        0x0001a798:    d103        ..      BNE      0x1a7a2 ; am_hal_mspi_control + 38
        0x0001a79a:    2921        !)      CMP      r1,#0x21
        0x0001a79c:    d906        ..      BLS      0x1a7ac ; am_hal_mspi_control + 48
        0x0001a79e:    2606        .&      MOVS     r6,#6
        0x0001a7a0:    e000        ..      B        0x1a7a4 ; am_hal_mspi_control + 40
        0x0001a7a2:    2602        .&      MOVS     r6,#2
        0x0001a7a4:    4630        0F      MOV      r0,r6
        0x0001a7a6:    b002        ..      ADD      sp,sp,#8
        0x0001a7a8:    e8bd87f0    ....    POP      {r4-r10,pc}
        0x0001a7ac:    7a20         z      LDRB     r0,[r4,#8]
        0x0001a7ae:    2800        .(      CMP      r0,#0
        0x0001a7b0:    f0008356    ..V.    BEQ.W    0x1ae60 ; am_hal_mspi_control + 1764
        0x0001a7b4:    2920         )      CMP      r1,#0x20
        0x0001a7b6:    d8f2        ..      BHI      0x1a79e ; am_hal_mspi_control + 34
        0x0001a7b8:    6867        gh      LDR      r7,[r4,#4]
        0x0001a7ba:    e8dff011    ....    TBH      [pc,r1,LSL #1]
    $d.13
        0x0001a7be:    0021        !.      DCW    33
        0x0001a7c0:    003e002d    -.>.    DCD    4063277
        0x0001a7c4:    0067004b    K.g.    DCD    6750283
        0x0001a7c8:    007b0071    q.{.    DCD    8061041
        0x0001a7cc:    00910085    ....    DCD    9502853
        0x0001a7d0:    00ab00a1    ....    DCD    11206817
        0x0001a7d4:    013e00b7    ..>.    DCD    20840631
        0x0001a7d8:    0170014f    O.p.    DCD    24117583
        0x0001a7dc:    01a00190    ....    DCD    27263376
        0x0001a7e0:    01c601b3    ....    DCD    29753779
        0x0001a7e4:    01f501ec    ....    DCD    32834028
        0x0001a7e8:    024e0248    H.N.    DCD    38666824
        0x0001a7ec:    0276025e    ^.v.    DCD    41288286
        0x0001a7f0:    02f202d5    ....    DCD    49414869
        0x0001a7f4:    03250302    ..%.    DCD    52757250
        0x0001a7f8:    03710353    S.q.    DCD    57738067
        0x0001a7fc:    039b0391    ....    DCD    60490641
    $t.14
        0x0001a800:    2d00        .-      CMP      r5,#0
        0x0001a802:    d0cc        ..      BEQ      0x1a79e ; am_hal_mspi_control + 34
        0x0001a804:    2100        .!      MOVS     r1,#0
        0x0001a806:    f2c40106    ....    MOVT     r1,#0x4006
        0x0001a80a:    eb013107    ...1    ADD      r1,r1,r7,LSL #12
        0x0001a80e:    6828        (h      LDR      r0,[r5,#0]
        0x0001a810:    6b0a        .k      LDR      r2,[r1,#0x30]
        0x0001a812:    f3600200    `...    BFI      r2,r0,#0,#1
        0x0001a816:    e037        7.      B        0x1a888 ; am_hal_mspi_control + 268
        0x0001a818:    2d00        .-      CMP      r5,#0
        0x0001a81a:    d0c0        ..      BEQ      0x1a79e ; am_hal_mspi_control + 34
        0x0001a81c:    6828        (h      LDR      r0,[r5,#0]
        0x0001a81e:    f24e01e0    N...    MOV      r1,#0xe0e0
        0x0001a822:    f2c001e0    ....    MOVT     r1,#0xe0
        0x0001a826:    4208        .B      TST      r0,r1
        0x0001a828:    d1b9        ..      BNE      0x1a79e ; am_hal_mspi_control + 34
        0x0001a82a:    2100        .!      MOVS     r1,#0
        0x0001a82c:    f2c40106    ....    MOVT     r1,#0x4006
        0x0001a830:    eb013107    ...1    ADD      r1,r1,r7,LSL #12
        0x0001a834:    f8c102b4    ....    STR      r0,[r1,#0x2b4]
        0x0001a838:    e367        g.      B        0x1af0a ; am_hal_mspi_control + 1934
        0x0001a83a:    2d00        .-      CMP      r5,#0
        0x0001a83c:    d0af        ..      BEQ      0x1a79e ; am_hal_mspi_control + 34
        0x0001a83e:    6828        (h      LDR      r0,[r5,#0]
        0x0001a840:    2807        .(      CMP      r0,#7
        0x0001a842:    f63fafac    ?...    BHI.W    0x1a79e ; am_hal_mspi_control + 34
        0x0001a846:    2100        .!      MOVS     r1,#0
        0x0001a848:    f2c40106    ....    MOVT     r1,#0x4006
        0x0001a84c:    eb013107    ...1    ADD      r1,r1,r7,LSL #12
        0x0001a850:    6b0a        .k      LDR      r2,[r1,#0x30]
        0x0001a852:    e017        ..      B        0x1a884 ; am_hal_mspi_control + 264
        0x0001a854:    2d00        .-      CMP      r5,#0
        0x0001a856:    f43fafa2    ?...    BEQ.W    0x1a79e ; am_hal_mspi_control + 34
        0x0001a85a:    6828        (h      LDR      r0,[r5,#0]
        0x0001a85c:    2606        .&      MOVS     r6,#6
        0x0001a85e:    2807        .(      CMP      r0,#7
        0x0001a860:    f63fafa0    ?...    BHI.W    0x1a7a4 ; am_hal_mspi_control + 40
        0x0001a864:    2101        .!      MOVS     r1,#1
        0x0001a866:    4081        .@      LSLS     r1,r1,r0
        0x0001a868:    f0110f87    ....    TST      r1,#0x87
        0x0001a86c:    f43faf9a    ?...    BEQ.W    0x1a7a4 ; am_hal_mspi_control + 40
        0x0001a870:    2100        .!      MOVS     r1,#0
        0x0001a872:    f2c40106    ....    MOVT     r1,#0x4006
        0x0001a876:    eb013107    ...1    ADD      r1,r1,r7,LSL #12
        0x0001a87a:    2380        .#      MOVS     r3,#0x80
        0x0001a87c:    6b0a        .k      LDR      r2,[r1,#0x30]
        0x0001a87e:    eb031000    ....    ADD      r0,r3,r0,LSL #4
        0x0001a882:    0900        ..      LSRS     r0,r0,#4
        0x0001a884:    f3601207    `...    BFI      r2,r0,#4,#4
        0x0001a888:    630a        .c      STR      r2,[r1,#0x30]
        0x0001a88a:    e33e        >.      B        0x1af0a ; am_hal_mspi_control + 1934
        0x0001a88c:    2000        .       MOVS     r0,#0
        0x0001a88e:    f2c40006    ....    MOVT     r0,#0x4006
        0x0001a892:    eb003007    ...0    ADD      r0,r0,r7,LSL #12
        0x0001a896:    f8d01090    ....    LDR      r1,[r0,#0x90]
        0x0001a89a:    f4216100    !..a    BIC      r1,r1,#0x800
        0x0001a89e:    e332        2.      B        0x1af06 ; am_hal_mspi_control + 1930
        0x0001a8a0:    2000        .       MOVS     r0,#0
        0x0001a8a2:    f2c40006    ....    MOVT     r0,#0x4006
        0x0001a8a6:    eb003007    ...0    ADD      r0,r0,r7,LSL #12
        0x0001a8aa:    f8d01090    ....    LDR      r1,[r0,#0x90]
        0x0001a8ae:    f4416100    A..a    ORR      r1,r1,#0x800
        0x0001a8b2:    e328        (.      B        0x1af06 ; am_hal_mspi_control + 1930
        0x0001a8b4:    2000        .       MOVS     r0,#0
        0x0001a8b6:    f2c40006    ....    MOVT     r0,#0x4006
        0x0001a8ba:    eb003007    ...0    ADD      r0,r0,r7,LSL #12
        0x0001a8be:    f8d0109c    ....    LDR      r1,[r0,#0x9c]
        0x0001a8c2:    f0214100    !..A    BIC      r1,r1,#0x80000000
        0x0001a8c6:    e008        ..      B        0x1a8da ; am_hal_mspi_control + 350
        0x0001a8c8:    2000        .       MOVS     r0,#0
        0x0001a8ca:    f2c40006    ....    MOVT     r0,#0x4006
        0x0001a8ce:    eb003007    ...0    ADD      r0,r0,r7,LSL #12
        0x0001a8d2:    f8d0109c    ....    LDR      r1,[r0,#0x9c]
        0x0001a8d6:    f0414100    A..A    ORR      r1,r1,#0x80000000
        0x0001a8da:    f8c0109c    ....    STR      r1,[r0,#0x9c]
        0x0001a8de:    e314        ..      B        0x1af0a ; am_hal_mspi_control + 1934
        0x0001a8e0:    2d00        .-      CMP      r5,#0
        0x0001a8e2:    f43faf5c    ?.\.    BEQ      0x1a79e ; am_hal_mspi_control + 34
        0x0001a8e6:    2100        .!      MOVS     r1,#0
        0x0001a8e8:    f2c40106    ....    MOVT     r1,#0x4006
        0x0001a8ec:    eb013107    ...1    ADD      r1,r1,r7,LSL #12
        0x0001a8f0:    7828        (x      LDRB     r0,[r5,#0]
        0x0001a8f2:    f8d12090    ...     LDR      r2,[r1,#0x90]
        0x0001a8f6:    f3600283    `...    BFI      r2,r0,#2,#2
        0x0001a8fa:    f8c12090    ...     STR      r2,[r1,#0x90]
        0x0001a8fe:    e304        ..      B        0x1af0a ; am_hal_mspi_control + 1934
        0x0001a900:    2000        .       MOVS     r0,#0
        0x0001a902:    f2c40006    ....    MOVT     r0,#0x4006
        0x0001a906:    eb003007    ...0    ADD      r0,r0,r7,LSL #12
        0x0001a90a:    f8d01088    ....    LDR      r1,[r0,#0x88]
        0x0001a90e:    f0210101    !...    BIC      r1,r1,#1
        0x0001a912:    e008        ..      B        0x1a926 ; am_hal_mspi_control + 426
        0x0001a914:    2000        .       MOVS     r0,#0
        0x0001a916:    f2c40006    ....    MOVT     r0,#0x4006
        0x0001a91a:    eb003007    ...0    ADD      r0,r0,r7,LSL #12
        0x0001a91e:    f8d01088    ....    LDR      r1,[r0,#0x88]
        0x0001a922:    f0410101    A...    ORR      r1,r1,#1
        0x0001a926:    f8c01088    ....    STR      r1,[r0,#0x88]
        0x0001a92a:    e2ee        ..      B        0x1af0a ; am_hal_mspi_control + 1934
        0x0001a92c:    2d00        .-      CMP      r5,#0
        0x0001a92e:    f43faf36    ?.6.    BEQ      0x1a79e ; am_hal_mspi_control + 34
        0x0001a932:    78a8        .x      LDRB     r0,[r5,#2]
        0x0001a934:    b118        ..      CBZ      r0,0x1a93e ; am_hal_mspi_control + 450
        0x0001a936:    7828        (x      LDRB     r0,[r5,#0]
        0x0001a938:    2800        .(      CMP      r0,#0
        0x0001a93a:    f47faf30    ..0.    BNE      0x1a79e ; am_hal_mspi_control + 34
        0x0001a93e:    78e8        .x      LDRB     r0,[r5,#3]
        0x0001a940:    2606        .&      MOVS     r6,#6
        0x0001a942:    2800        .(      CMP      r0,#0
        0x0001a944:    f43faf2e    ?...    BEQ      0x1a7a4 ; am_hal_mspi_control + 40
        0x0001a948:    281f        .(      CMP      r0,#0x1f
        0x0001a94a:    f43faf2b    ?.+.    BEQ      0x1a7a4 ; am_hal_mspi_control + 40
        0x0001a94e:    2000        .       MOVS     r0,#0
        0x0001a950:    f2c40006    ....    MOVT     r0,#0x4006
        0x0001a954:    eb003007    ...0    ADD      r0,r0,r7,LSL #12
        0x0001a958:    7829        )x      LDRB     r1,[r5,#0]
        0x0001a95a:    f8d02088    ...     LDR      r2,[r0,#0x88]
        0x0001a95e:    f001013f    ..?.    AND      r1,r1,#0x3f
        0x0001a962:    f0220204    "...    BIC      r2,r2,#4
        0x0001a966:    ea420181    B...    ORR      r1,r2,r1,LSL #2
        0x0001a96a:    f8c01088    ....    STR      r1,[r0,#0x88]
        0x0001a96e:    78a9        .x      LDRB     r1,[r5,#2]
        0x0001a970:    f8d02088    ...     LDR      r2,[r0,#0x88]
        0x0001a974:    f0010103    ....    AND      r1,r1,#3
        0x0001a978:    f0220240    ".@.    BIC      r2,r2,#0x40
        0x0001a97c:    ea421181    B...    ORR      r1,r2,r1,LSL #6
        0x0001a980:    f8c01088    ....    STR      r1,[r0,#0x88]
        0x0001a984:    7869        ix      LDRB     r1,[r5,#1]
        0x0001a986:    f8d02088    ...     LDR      r2,[r0,#0x88]
        0x0001a98a:    f001010f    ....    AND      r1,r1,#0xf
        0x0001a98e:    f0220210    "...    BIC      r2,r2,#0x10
        0x0001a992:    ea421101    B...    ORR      r1,r2,r1,LSL #4
        0x0001a996:    f8c01088    ....    STR      r1,[r0,#0x88]
        0x0001a99a:    78e9        .x      LDRB     r1,[r5,#3]
        0x0001a99c:    f8d02088    ...     LDR      r2,[r0,#0x88]
        0x0001a9a0:    f001011f    ....    AND      r1,r1,#0x1f
        0x0001a9a4:    f42252f8    "..R    BIC      r2,r2,#0x1f00
        0x0001a9a8:    ea422101    B..!    ORR      r1,r2,r1,LSL #8
        0x0001a9ac:    f8c01088    ....    STR      r1,[r0,#0x88]
        0x0001a9b0:    7929        )y      LDRB     r1,[r5,#4]
        0x0001a9b2:    f8d02088    ...     LDR      r2,[r0,#0x88]
        0x0001a9b6:    f0010107    ....    AND      r1,r1,#7
        0x0001a9ba:    f0220220    ". .    BIC      r2,r2,#0x20
        0x0001a9be:    ea421141    B.A.    ORR      r1,r2,r1,LSL #5
        0x0001a9c2:    f8c01088    ....    STR      r1,[r0,#0x88]
        0x0001a9c6:    7969        iy      LDRB     r1,[r5,#5]
        0x0001a9c8:    f8d02088    ...     LDR      r2,[r0,#0x88]
        0x0001a9cc:    f001011f    ....    AND      r1,r1,#0x1f
        0x0001a9d0:    f42212f8    "...    BIC      r2,r2,#0x1f0000
        0x0001a9d4:    ea424101    B..A    ORR      r1,r2,r1,LSL #16
        0x0001a9d8:    f8c01088    ....    STR      r1,[r0,#0x88]
        0x0001a9dc:    79a9        .y      LDRB     r1,[r5,#6]
        0x0001a9de:    f8d02088    ...     LDR      r2,[r0,#0x88]
        0x0001a9e2:    f001011f    ....    AND      r1,r1,#0x1f
        0x0001a9e6:    f0220208    "...    BIC      r2,r2,#8
        0x0001a9ea:    ea4201c1    B...    ORR      r1,r2,r1,LSL #3
        0x0001a9ee:    f8c01088    ....    STR      r1,[r0,#0x88]
        0x0001a9f2:    78a9        .x      LDRB     r1,[r5,#2]
        0x0001a9f4:    2900        .)      CMP      r1,#0
        0x0001a9f6:    f0008288    ....    BEQ.W    0x1af0a ; am_hal_mspi_control + 1934
        0x0001a9fa:    7a29        )z      LDRB     r1,[r5,#8]
        0x0001a9fc:    f8d02084    ...     LDR      r2,[r0,#0x84]
        0x0001aa00:    f001013f    ..?.    AND      r1,r1,#0x3f
        0x0001aa04:    f422527c    ".|R    BIC      r2,r2,#0x3f00
        0x0001aa08:    ea422101    B..!    ORR      r1,r2,r1,LSL #8
        0x0001aa0c:    f8c01084    ....    STR      r1,[r0,#0x84]
        0x0001aa10:    7a69        iz      LDRB     r1,[r5,#9]
        0x0001aa12:    f8d02090    ...     LDR      r2,[r0,#0x90]
        0x0001aa16:    f001013f    ..?.    AND      r1,r1,#0x3f
        0x0001aa1a:    f42222fc    ".."    BIC      r2,r2,#0x7e000
        0x0001aa1e:    ea423141    B.A1    ORR      r1,r2,r1,LSL #13
        0x0001aa22:    f8c01090    ....    STR      r1,[r0,#0x90]
        0x0001aa26:    7aa9        .z      LDRB     r1,[r5,#0xa]
        0x0001aa28:    f8d02084    ...     LDR      r2,[r0,#0x84]
        0x0001aa2c:    f4220200    "...    BIC      r2,r2,#0x800000
        0x0001aa30:    ea4251c1    B..Q    ORR      r1,r2,r1,LSL #23
        0x0001aa34:    f8c01084    ....    STR      r1,[r0,#0x84]
        0x0001aa38:    e267        g.      B        0x1af0a ; am_hal_mspi_control + 1934
        0x0001aa3a:    2f00        ./      CMP      r7,#0
        0x0001aa3c:    f0008268    ..h.    BEQ.W    0x1af10 ; am_hal_mspi_control + 1940
        0x0001aa40:    2f01        ./      CMP      r7,#1
        0x0001aa42:    f000826c    ..l.    BEQ.W    0x1af1e ; am_hal_mspi_control + 1954
        0x0001aa46:    2f02        ./      CMP      r7,#2
        0x0001aa48:    f0408272    @.r.    BNE.W    0x1af30 ; am_hal_mspi_control + 1972
        0x0001aa4c:    68a8        .h      LDR      r0,[r5,#8]
        0x0001aa4e:    f000417c    ..|A    AND      r1,r0,#0xfc000000
        0x0001aa52:    f1b15fe0    ..._    CMP      r1,#0x1c000000
        0x0001aa56:    f0408268    @.h.    BNE.W    0x1af2a ; am_hal_mspi_control + 1966
        0x0001aa5a:    e26a        j.      B        0x1af32 ; am_hal_mspi_control + 1974
        0x0001aa5c:    2d00        .-      CMP      r5,#0
        0x0001aa5e:    f43fae9e    ?...    BEQ      0x1a79e ; am_hal_mspi_control + 34
        0x0001aa62:    79a8        .y      LDRB     r0,[r5,#6]
        0x0001aa64:    7929        )y      LDRB     r1,[r5,#4]
        0x0001aa66:    0540        @.      LSLS     r0,r0,#21
        0x0001aa68:    7a2a        *z      LDRB     r2,[r5,#8]
        0x0001aa6a:    79eb        .y      LDRB     r3,[r5,#7]
        0x0001aa6c:    ea4030c1    @..0    ORR      r0,r0,r1,LSL #15
        0x0001aa70:    f0020201    ....    AND      r2,r2,#1
        0x0001aa74:    682e        .h      LDR      r6,[r5,#0]
        0x0001aa76:    796d        my      LDRB     r5,[r5,#5]
        0x0001aa78:    ea403083    @..0    ORR      r0,r0,r3,LSL #14
        0x0001aa7c:    ea403042    @.B0    ORR      r0,r0,r2,LSL #13
        0x0001aa80:    f36f361f    o..6    BFC      r6,#12,#20
        0x0001aa84:    ea403005    @..0    ORR      r0,r0,r5,LSL #12
        0x0001aa88:    2100        .!      MOVS     r1,#0
        0x0001aa8a:    4430        0D      ADD      r0,r0,r6
        0x0001aa8c:    f2c40106    ....    MOVT     r1,#0x4006
        0x0001aa90:    f4401080    @...    ORR      r0,r0,#0x100000
        0x0001aa94:    eb013107    ...1    ADD      r1,r1,r7,LSL #12
        0x0001aa98:    f8c100a0    ....    STR      r0,[r1,#0xa0]
        0x0001aa9c:    e235        5.      B        0x1af0a ; am_hal_mspi_control + 1934
        0x0001aa9e:    2002        .       MOVS     r0,#2
        0x0001aaa0:    2100        .!      MOVS     r1,#0
        0x0001aaa2:    2600        .&      MOVS     r6,#0
        0x0001aaa4:    f7fffa30    ..0.    BL       am_hal_daxi_control ; 0x19f08
        0x0001aaa8:    2000        .       MOVS     r0,#0
        0x0001aaaa:    f2c40006    ....    MOVT     r0,#0x4006
        0x0001aaae:    eb003007    ...0    ADD      r0,r0,r7,LSL #12
        0x0001aab2:    f8d01090    ....    LDR      r1,[r0,#0x90]
        0x0001aab6:    f0210101    !...    BIC      r1,r1,#1
        0x0001aaba:    f8c01090    ....    STR      r1,[r0,#0x90]
        0x0001aabe:    f7fffc59    ..Y.    BL       am_hal_interrupt_master_disable ; 0x1a374
        0x0001aac2:    9001        ..      STR      r0,[sp,#4]
        0x0001aac4:    f64270d0    B..p    MOV      r0,#0x2fd0
        0x0001aac8:    f2c10000    ....    MOVT     r0,#0x1000
        0x0001aacc:    6801        .h      LDR      r1,[r0,#0]
        0x0001aace:    2201        ."      MOVS     r2,#1
        0x0001aad0:    40ba        .@      LSLS     r2,r2,r7
        0x0001aad2:    4391        .C      BICS     r1,r1,r2
        0x0001aad4:    6001        .`      STR      r1,[r0,#0]
        0x0001aad6:    9801        ..      LDR      r0,[sp,#4]
        0x0001aad8:    f7fffc54    ..T.    BL       am_hal_interrupt_master_set ; 0x1a384
        0x0001aadc:    e662        b.      B        0x1a7a4 ; am_hal_mspi_control + 40
        0x0001aade:    2000        .       MOVS     r0,#0
        0x0001aae0:    f2c40006    ....    MOVT     r0,#0x4006
        0x0001aae4:    eb003007    ...0    ADD      r0,r0,r7,LSL #12
        0x0001aae8:    f8d01090    ....    LDR      r1,[r0,#0x90]
        0x0001aaec:    f0410101    A...    ORR      r1,r1,#1
        0x0001aaf0:    f8c01090    ....    STR      r1,[r0,#0x90]
        0x0001aaf4:    4638        8F      MOV      r0,r7
        0x0001aaf6:    2101        .!      MOVS     r1,#1
        0x0001aaf8:    f004f991    ....    BL       update_mspixip_state ; 0x1ee1e
        0x0001aafc:    e205        ..      B        0x1af0a ; am_hal_mspi_control + 1934
        0x0001aafe:    2100        .!      MOVS     r1,#0
        0x0001ab00:    0338        8.      LSLS     r0,r7,#12
        0x0001ab02:    f2c40106    ....    MOVT     r1,#0x4006
        0x0001ab06:    580a        .X      LDR      r2,[r1,r0]
        0x0001ab08:    eb013307    ...3    ADD      r3,r1,r7,LSL #12
        0x0001ab0c:    f4427280    B..r    ORR      r2,r2,#0x100
        0x0001ab10:    500a        .P      STR      r2,[r1,r0]
        0x0001ab12:    f8d30090    ....    LDR      r0,[r3,#0x90]
        0x0001ab16:    f0400010    @...    ORR      r0,r0,#0x10
        0x0001ab1a:    f8c30090    ....    STR      r0,[r3,#0x90]
        0x0001ab1e:    2001        .       MOVS     r0,#1
        0x0001ab20:    7360        `s      STRB     r0,[r4,#0xd]
        0x0001ab22:    e1f2        ..      B        0x1af0a ; am_hal_mspi_control + 1934
        0x0001ab24:    2100        .!      MOVS     r1,#0
        0x0001ab26:    0338        8.      LSLS     r0,r7,#12
        0x0001ab28:    f2c40106    ....    MOVT     r1,#0x4006
        0x0001ab2c:    580a        .X      LDR      r2,[r1,r0]
        0x0001ab2e:    eb013307    ...3    ADD      r3,r1,r7,LSL #12
        0x0001ab32:    f4227280    "..r    BIC      r2,r2,#0x100
        0x0001ab36:    500a        .P      STR      r2,[r1,r0]
        0x0001ab38:    f8d30090    ....    LDR      r0,[r3,#0x90]
        0x0001ab3c:    2600        .&      MOVS     r6,#0
        0x0001ab3e:    f0200010     ...    BIC      r0,r0,#0x10
        0x0001ab42:    f8c30090    ....    STR      r0,[r3,#0x90]
        0x0001ab46:    7366        fs      STRB     r6,[r4,#0xd]
        0x0001ab48:    e62c        ,.      B        0x1a7a4 ; am_hal_mspi_control + 40
        0x0001ab4a:    2d00        .-      CMP      r5,#0
        0x0001ab4c:    f43fae27    ?.'.    BEQ      0x1a79e ; am_hal_mspi_control + 34
        0x0001ab50:    7828        (x      LDRB     r0,[r5,#0]
        0x0001ab52:    2813        .(      CMP      r0,#0x13
        0x0001ab54:    72e0        .r      STRB     r0,[r4,#0xb]
        0x0001ab56:    f20081d8    ....    BHI.W    0x1af0a ; am_hal_mspi_control + 1934
        0x0001ab5a:    e8dff010    ....    TBH      [pc,r0,LSL #1]
    $d.15
        0x0001ab5e:    0014        ..      DCW    20
        0x0001ab60:    00140014    ....    DCD    1310740
        0x0001ab64:    00140014    ....    DCD    1310740
        0x0001ab68:    00140014    ....    DCD    1310740
        0x0001ab6c:    00140014    ....    DCD    1310740
        0x0001ab70:    02430014    ..C.    DCD    37945364
        0x0001ab74:    024a0243    C.J.    DCD    38404675
        0x0001ab78:    0251024a    J.Q.    DCD    38863434
        0x0001ab7c:    025a0251    Q.Z.    DCD    39453265
        0x0001ab80:    0014025a    Z...    DCD    1311322
        0x0001ab84:    0014        ..      DCW    20
    $t.16
        0x0001ab86:    2100        .!      MOVS     r1,#0
        0x0001ab88:    0338        8.      LSLS     r0,r7,#12
        0x0001ab8a:    f2c40106    ....    MOVT     r1,#0x4006
        0x0001ab8e:    580a        .X      LDR      r2,[r1,r0]
        0x0001ab90:    f4224260    ".`B    BIC      r2,r2,#0xe000
        0x0001ab94:    e244        D.      B        0x1b020 ; am_hal_mspi_control + 2212
        0x0001ab96:    2d00        .-      CMP      r5,#0
        0x0001ab98:    f43fae01    ?...    BEQ      0x1a79e ; am_hal_mspi_control + 34
        0x0001ab9c:    7828        (x      LDRB     r0,[r5,#0]
        0x0001ab9e:    72a0        .r      STRB     r0,[r4,#0xa]
        0x0001aba0:    4620         F      MOV      r0,r4
        0x0001aba2:    f003fbaf    ....    BL       mspi_device_configure ; 0x1e304
        0x0001aba6:    e1b0        ..      B        0x1af0a ; am_hal_mspi_control + 1934
        0x0001aba8:    2100        .!      MOVS     r1,#0
        0x0001abaa:    f2c40106    ....    MOVT     r1,#0x4006
        0x0001abae:    eb013107    ...1    ADD      r1,r1,r7,LSL #12
        0x0001abb2:    7828        (x      LDRB     r0,[r5,#0]
        0x0001abb4:    f8d12084    ...     LDR      r2,[r1,#0x84]
        0x0001abb8:    2605        .&      MOVS     r6,#5
        0x0001abba:    f3604215    `..B    BFI      r2,r0,#16,#6
        0x0001abbe:    f8c12084    ...     STR      r2,[r1,#0x84]
        0x0001abc2:    1e42        B.      SUBS     r2,r0,#1
        0x0001abc4:    2a1f        .*      CMP      r2,#0x1f
        0x0001abc6:    f63faded    ?...    BHI      0x1a7a4 ; am_hal_mspi_control + 40
        0x0001abca:    2301        .#      MOVS     r3,#1
        0x0001abcc:    fa03f702    ....    LSL      r7,r3,r2
        0x0001abd0:    f64803ac    H...    MOV      r3,#0x88ac
        0x0001abd4:    f2c80380    ....    MOVT     r3,#0x8080
        0x0001abd8:    421f        .B      TST      r7,r3
        0x0001abda:    f00081cb    ....    BEQ.W    0x1af74 ; am_hal_mspi_control + 2040
        0x0001abde:    f8d17084    ...p    LDR      r7,[r1,#0x84]
        0x0001abe2:    f0277780    '..w    BIC      r7,r7,#0x1000000
        0x0001abe6:    f8c17084    ...p    STR      r7,[r1,#0x84]
        0x0001abea:    f8d17084    ...p    LDR      r7,[r1,#0x84]
        0x0001abee:    f4270700    '...    BIC      r7,r7,#0x800000
        0x0001abf2:    f8c17084    ...p    STR      r7,[r1,#0x84]
        0x0001abf6:    f8d17084    ...p    LDR      r7,[r1,#0x84]
        0x0001abfa:    f4270780    '...    BIC      r7,r7,#0x400000
        0x0001abfe:    f8c17084    ...p    STR      r7,[r1,#0x84]
        0x0001ac02:    69a7        .i      LDR      r7,[r4,#0x18]
        0x0001ac04:    b30f        ..      CBZ      r7,0x1ac4a ; am_hal_mspi_control + 1230
        0x0001ac06:    2720         '      MOVS     r7,#0x20
        0x0001ac08:    2a1f        .*      CMP      r2,#0x1f
        0x0001ac0a:    f04f0605    O...    MOV      r6,#5
        0x0001ac0e:    f8c17114    ...q    STR      r7,[r1,#0x114]
        0x0001ac12:    f63fadc7    ?...    BHI      0x1a7a4 ; am_hal_mspi_control + 40
        0x0001ac16:    2701        .'      MOVS     r7,#1
        0x0001ac18:    fa07f202    ....    LSL      r2,r7,r2
        0x0001ac1c:    421a        .B      TST      r2,r3
        0x0001ac1e:    f00081be    ....    BEQ.W    0x1af9e ; am_hal_mspi_control + 2082
        0x0001ac22:    2208        ."      MOVS     r2,#8
        0x0001ac24:    f8d13118    ...1    LDR      r3,[r1,#0x118]
        0x0001ac28:    f023031f    #...    BIC      r3,r3,#0x1f
        0x0001ac2c:    441a        .D      ADD      r2,r2,r3
        0x0001ac2e:    f8c12118    ...!    STR      r2,[r1,#0x118]
        0x0001ac32:    6a0a        .j      LDR      r2,[r1,#0x20]
        0x0001ac34:    231e        .#      MOVS     r3,#0x1e
        0x0001ac36:    f363220d    c.."    BFI      r2,r3,#8,#6
        0x0001ac3a:    620a        .b      STR      r2,[r1,#0x20]
        0x0001ac3c:    f8d12118    ...!    LDR      r2,[r1,#0x118]
        0x0001ac40:    2308        .#      MOVS     r3,#8
        0x0001ac42:    f363220c    c.."    BFI      r2,r3,#8,#5
        0x0001ac46:    f8c12118    ...!    STR      r2,[r1,#0x118]
        0x0001ac4a:    7320         s      STRB     r0,[r4,#0xc]
        0x0001ac4c:    e15d        ].      B        0x1af0a ; am_hal_mspi_control + 1934
        0x0001ac4e:    4620         F      MOV      r0,r4
        0x0001ac50:    b002        ..      ADD      sp,sp,#8
        0x0001ac52:    e8bd47f0    ...G    POP      {r4-r10,lr}
        0x0001ac56:    f003bb17    ....    B.W      mspi_cq_pause ; 0x1e288
        0x0001ac5a:    f89408bc    ....    LDRB     r0,[r4,#0x8bc]
        0x0001ac5e:    b918        ..      CBNZ     r0,0x1ac68 ; am_hal_mspi_control + 1260
        0x0001ac60:    2002        .       MOVS     r0,#2
        0x0001ac62:    2100        .!      MOVS     r1,#0
        0x0001ac64:    f7fff950    ..P.    BL       am_hal_daxi_control ; 0x19f08
        0x0001ac68:    2000        .       MOVS     r0,#0
        0x0001ac6a:    f2c40006    ....    MOVT     r0,#0x4006
        0x0001ac6e:    eb003007    ...0    ADD      r0,r0,r7,LSL #12
        0x0001ac72:    2180        .!      MOVS     r1,#0x80
        0x0001ac74:    f8c012b4    ....    STR      r1,[r0,#0x2b4]
        0x0001ac78:    e147        G.      B        0x1af0a ; am_hal_mspi_control + 1934
        0x0001ac7a:    2d00        .-      CMP      r5,#0
        0x0001ac7c:    f43fad8f    ?...    BEQ      0x1a79e ; am_hal_mspi_control + 34
        0x0001ac80:    69a0        .i      LDR      r0,[r4,#0x18]
        0x0001ac82:    2800        .(      CMP      r0,#0
        0x0001ac84:    f00080ec    ....    BEQ.W    0x1ae60 ; am_hal_mspi_control + 1764
        0x0001ac88:    782d        -x      LDRB     r5,[r5,#0]
        0x0001ac8a:    f894082c    ..,.    LDRB     r0,[r4,#0x82c]
        0x0001ac8e:    4285        .B      CMP      r5,r0
        0x0001ac90:    f000813b    ..;.    BEQ.W    0x1af0a ; am_hal_mspi_control + 1934
        0x0001ac94:    2802        .(      CMP      r0,#2
        0x0001ac96:    f000818c    ....    BEQ.W    0x1afb2 ; am_hal_mspi_control + 2102
        0x0001ac9a:    2800        .(      CMP      r0,#0
        0x0001ac9c:    f0408190    @...    BNE.W    0x1afc0 ; am_hal_mspi_control + 2116
        0x0001aca0:    6a20         j      LDR      r0,[r4,#0x20]
        0x0001aca2:    2800        .(      CMP      r0,#0
        0x0001aca4:    f04080dc    @...    BNE.W    0x1ae60 ; am_hal_mspi_control + 1764
        0x0001aca8:    e18a        ..      B        0x1afc0 ; am_hal_mspi_control + 2116
        0x0001acaa:    2d00        .-      CMP      r5,#0
        0x0001acac:    f43fad77    ?.w.    BEQ      0x1a79e ; am_hal_mspi_control + 34
        0x0001acb0:    7928        (y      LDRB     r0,[r5,#4]
        0x0001acb2:    f0100fe0    ....    TST      r0,#0xe0
        0x0001acb6:    f47fad72    ..r.    BNE      0x1a79e ; am_hal_mspi_control + 34
        0x0001acba:    68a8        .h      LDR      r0,[r5,#8]
        0x0001acbc:    f24e01e0    N...    MOV      r1,#0xe0e0
        0x0001acc0:    f2c001e0    ....    MOVT     r1,#0xe0
        0x0001acc4:    4208        .B      TST      r0,r1
        0x0001acc6:    f47fad6a    ..j.    BNE      0x1a79e ; am_hal_mspi_control + 34
        0x0001acca:    f894082c    ..,.    LDRB     r0,[r4,#0x82c]
        0x0001acce:    2801        .(      CMP      r0,#1
        0x0001acd0:    f04080c6    @...    BNE.W    0x1ae60 ; am_hal_mspi_control + 1764
        0x0001acd4:    f8d40838    ..8.    LDR      r0,[r4,#0x838]
        0x0001acd8:    f2400900    @...    MOVW     r9,#0
        0x0001acdc:    f2c40906    ....    MOVT     r9,#0x4006
        0x0001ace0:    b170        p.      CBZ      r0,0x1ad00 ; am_hal_mspi_control + 1412
        0x0001ace2:    f89408bc    ....    LDRB     r0,[r4,#0x8bc]
        0x0001ace6:    2100        .!      MOVS     r1,#0
        0x0001ace8:    f8c41838    ..8.    STR      r1,[r4,#0x838]
        0x0001acec:    b918        ..      CBNZ     r0,0x1acf6 ; am_hal_mspi_control + 1402
        0x0001acee:    2002        .       MOVS     r0,#2
        0x0001acf0:    2100        .!      MOVS     r1,#0
        0x0001acf2:    f7fff909    ....    BL       am_hal_daxi_control ; 0x19f08
        0x0001acf6:    eb093007    ...0    ADD      r0,r9,r7,LSL #12
        0x0001acfa:    2120         !      MOVS     r1,#0x20
        0x0001acfc:    f8c012b4    ....    STR      r1,[r0,#0x2b4]
        0x0001ad00:    7828        (x      LDRB     r0,[r5,#0]
        0x0001ad02:    b120         .      CBZ      r0,0x1ad0e ; am_hal_mspi_control + 1426
        0x0001ad04:    f894082d    ..-.    LDRB     r0,[r4,#0x82d]
        0x0001ad08:    2800        .(      CMP      r0,#0
        0x0001ad0a:    f00081eb    ....    BEQ.W    0x1b0e4 ; am_hal_mspi_control + 2408
        0x0001ad0e:    f04f0800    O...    MOV      r8,#0
        0x0001ad12:    f04f0a00    O...    MOV      r10,#0
        0x0001ad16:    f8d40828    ..(.    LDR      r0,[r4,#0x828]
        0x0001ad1a:    aa01        ..      ADD      r2,sp,#4
        0x0001ad1c:    466b        kF      MOV      r3,sp
        0x0001ad1e:    2103        .!      MOVS     r1,#3
        0x0001ad20:    f7fefe9e    ....    BL       am_hal_cmdq_alloc_block ; 0x19a60
        0x0001ad24:    4606        .F      MOV      r6,r0
        0x0001ad26:    2800        .(      CMP      r0,#0
        0x0001ad28:    f47fad3c    ..<.    BNE      0x1a7a4 ; am_hal_mspi_control + 40
        0x0001ad2c:    9801        ..      LDR      r0,[sp,#4]
        0x0001ad2e:    eb093107    ...1    ADD      r1,r9,r7,LSL #12
        0x0001ad32:    f501722e    ...r    ADD      r2,r1,#0x2b8
        0x0001ad36:    f501712d    ..-q    ADD      r1,r1,#0x2b4
        0x0001ad3a:    6082        .`      STR      r2,[r0,#8]
        0x0001ad3c:    6002        .`      STR      r2,[r0,#0]
        0x0001ad3e:    6101        .a      STR      r1,[r0,#0x10]
        0x0001ad40:    f8d42838    ..8(    LDR      r2,[r4,#0x838]
        0x0001ad44:    f44f4180    O..A    MOV      r1,#0x4000
        0x0001ad48:    2a02        .*      CMP      r2,#2
        0x0001ad4a:    f00081fb    ....    BEQ.W    0x1b144 ; am_hal_mspi_control + 2504
        0x0001ad4e:    686b        kh      LDR      r3,[r5,#4]
        0x0001ad50:    2a01        .*      CMP      r2,#1
        0x0001ad52:    ea43020a    C...    ORR      r2,r3,r10
        0x0001ad56:    f04081f8    @...    BNE.W    0x1b14a ; am_hal_mspi_control + 2510
        0x0001ad5a:    f24403a0    D...    MOV      r3,#0x40a0
        0x0001ad5e:    431a        .C      ORRS     r2,r2,r3
        0x0001ad60:    2302        .#      MOVS     r3,#2
        0x0001ad62:    f8c43838    ..88    STR      r3,[r4,#0x838]
        0x0001ad66:    e1f2        ..      B        0x1b14e ; am_hal_mspi_control + 2514
        0x0001ad68:    2d00        .-      CMP      r5,#0
        0x0001ad6a:    f43fad18    ?...    BEQ      0x1a79e ; am_hal_mspi_control + 34
        0x0001ad6e:    f8d40854    ..T.    LDR      r0,[r4,#0x854]
        0x0001ad72:    2800        .(      CMP      r0,#0
        0x0001ad74:    d174        t.      BNE      0x1ae60 ; am_hal_mspi_control + 1764
        0x0001ad76:    2600        .&      MOVS     r6,#0
        0x0001ad78:    2001        .       MOVS     r0,#1
        0x0001ad7a:    f8c46850    ..Ph    STR      r6,[r4,#0x850]
        0x0001ad7e:    f8c46840    ..@h    STR      r6,[r4,#0x840]
        0x0001ad82:    f8c4084c    ..L.    STR      r0,[r4,#0x84c]
        0x0001ad86:    6868        hh      LDR      r0,[r5,#4]
        0x0001ad88:    f64a21ab    J..!    MOV      r1,#0xaaab
        0x0001ad8c:    f6ca21aa    ...!    MOVT     r1,#0xaaaa
        0x0001ad90:    fba00101    ....    UMULL    r0,r1,r0,r1
        0x0001ad94:    6828        (h      LDR      r0,[r5,#0]
        0x0001ad96:    f8c40854    ..T.    STR      r0,[r4,#0x854]
        0x0001ad9a:    0908        ..      LSRS     r0,r1,#4
        0x0001ad9c:    f8c40848    ..H.    STR      r0,[r4,#0x848]
        0x0001ada0:    e500        ..      B        0x1a7a4 ; am_hal_mspi_control + 40
        0x0001ada2:    2000        .       MOVS     r0,#0
        0x0001ada4:    f2c40006    ....    MOVT     r0,#0x4006
        0x0001ada8:    eb003007    ...0    ADD      r0,r0,r7,LSL #12
        0x0001adac:    f44f1100    O...    MOV      r1,#0x200000
        0x0001adb0:    f8c012b4    ....    STR      r1,[r0,#0x2b4]
        0x0001adb4:    2001        .       MOVS     r0,#1
        0x0001adb6:    2600        .&      MOVS     r6,#0
        0x0001adb8:    f8c40838    ..8.    STR      r0,[r4,#0x838]
        0x0001adbc:    f8c46844    ..Dh    STR      r6,[r4,#0x844]
        0x0001adc0:    e4f0        ..      B        0x1a7a4 ; am_hal_mspi_control + 40
        0x0001adc2:    f89408bc    ....    LDRB     r0,[r4,#0x8bc]
        0x0001adc6:    b918        ..      CBNZ     r0,0x1add0 ; am_hal_mspi_control + 1620
        0x0001adc8:    2002        .       MOVS     r0,#2
        0x0001adca:    2100        .!      MOVS     r1,#0
        0x0001adcc:    f7fff89c    ....    BL       am_hal_daxi_control ; 0x19f08
        0x0001add0:    2000        .       MOVS     r0,#0
        0x0001add2:    f2c40006    ....    MOVT     r0,#0x4006
        0x0001add6:    eb003007    ...0    ADD      r0,r0,r7,LSL #12
        0x0001adda:    2120         !      MOVS     r1,#0x20
        0x0001addc:    f8c012b4    ....    STR      r1,[r0,#0x2b4]
        0x0001ade0:    f8d40844    ..D.    LDR      r0,[r4,#0x844]
        0x0001ade4:    2600        .&      MOVS     r6,#0
        0x0001ade6:    2800        .(      CMP      r0,#0
        0x0001ade8:    f8c46838    ..8h    STR      r6,[r4,#0x838]
        0x0001adec:    f47facda    ....    BNE      0x1a7a4 ; am_hal_mspi_control + 40
        0x0001adf0:    4620         F      MOV      r0,r4
        0x0001adf2:    2100        .!      MOVS     r1,#0
        0x0001adf4:    2500        .%      MOVS     r5,#0
        0x0001adf6:    f003fe32    ..2.    BL       sched_hiprio ; 0x1ea5e
        0x0001adfa:    4606        .F      MOV      r6,r0
        0x0001adfc:    2800        .(      CMP      r0,#0
        0x0001adfe:    f47facd1    ....    BNE      0x1a7a4 ; am_hal_mspi_control + 40
        0x0001ae02:    f8c45844    ..DX    STR      r5,[r4,#0x844]
        0x0001ae06:    e080        ..      B        0x1af0a ; am_hal_mspi_control + 1934
        0x0001ae08:    2d00        .-      CMP      r5,#0
        0x0001ae0a:    f43facc8    ?...    BEQ      0x1a79e ; am_hal_mspi_control + 34
        0x0001ae0e:    f8d40828    ..(.    LDR      r0,[r4,#0x828]
        0x0001ae12:    b328        (.      CBZ      r0,0x1ae60 ; am_hal_mspi_control + 1764
        0x0001ae14:    6a21        !j      LDR      r1,[r4,#0x20]
        0x0001ae16:    f5b17f80    ....    CMP      r1,#0x100
        0x0001ae1a:    f0008086    ....    BEQ.W    0x1af2a ; am_hal_mspi_control + 1966
        0x0001ae1e:    68e9        .h      LDR      r1,[r5,#0xc]
        0x0001ae20:    aa01        ..      ADD      r2,sp,#4
        0x0001ae22:    3103        .1      ADDS     r1,#3
        0x0001ae24:    466b        kF      MOV      r3,sp
        0x0001ae26:    f7fefe1b    ....    BL       am_hal_cmdq_alloc_block ; 0x19a60
        0x0001ae2a:    2800        .(      CMP      r0,#0
        0x0001ae2c:    d17d        }.      BNE      0x1af2a ; am_hal_mspi_control + 1966
        0x0001ae2e:    2000        .       MOVS     r0,#0
        0x0001ae30:    f2c40006    ....    MOVT     r0,#0x4006
        0x0001ae34:    eb003007    ...0    ADD      r0,r0,r7,LSL #12
        0x0001ae38:    9a01        ..      LDR      r2,[sp,#4]
        0x0001ae3a:    f500712e    ...q    ADD      r1,r0,#0x2b8
        0x0001ae3e:    6011        .`      STR      r1,[r2,#0]
        0x0001ae40:    f8d47838    ..8x    LDR      r7,[r4,#0x838]
        0x0001ae44:    2f02        ./      CMP      r7,#2
        0x0001ae46:    f00080ed    ....    BEQ.W    0x1b024 ; am_hal_mspi_control + 2216
        0x0001ae4a:    682b        +h      LDR      r3,[r5,#0]
        0x0001ae4c:    2f01        ./      CMP      r7,#1
        0x0001ae4e:    f04080ec    @...    BNE.W    0x1b02a ; am_hal_mspi_control + 2222
        0x0001ae52:    f24407a0    D...    MOV      r7,#0x40a0
        0x0001ae56:    433b        ;C      ORRS     r3,r3,r7
        0x0001ae58:    2702        .'      MOVS     r7,#2
        0x0001ae5a:    f8c47838    ..8x    STR      r7,[r4,#0x838]
        0x0001ae5e:    e0e6        ..      B        0x1b02e ; am_hal_mspi_control + 2226
        0x0001ae60:    2607        .&      MOVS     r6,#7
        0x0001ae62:    e49f        ..      B        0x1a7a4 ; am_hal_mspi_control + 40
        0x0001ae64:    2d00        .-      CMP      r5,#0
        0x0001ae66:    f43fac9a    ?...    BEQ      0x1a79e ; am_hal_mspi_control + 34
        0x0001ae6a:    7828        (x      LDRB     r0,[r5,#0]
        0x0001ae6c:    2803        .(      CMP      r0,#3
        0x0001ae6e:    f63fac96    ?...    BHI      0x1a79e ; am_hal_mspi_control + 34
        0x0001ae72:    7868        hx      LDRB     r0,[r5,#1]
        0x0001ae74:    2801        .(      CMP      r0,#1
        0x0001ae76:    f63fac92    ?...    BHI      0x1a79e ; am_hal_mspi_control + 34
        0x0001ae7a:    2100        .!      MOVS     r1,#0
        0x0001ae7c:    f2c40106    ....    MOVT     r1,#0x4006
        0x0001ae80:    eb013107    ...1    ADD      r1,r1,r7,LSL #12
        0x0001ae84:    f8d12084    ...     LDR      r2,[r1,#0x84]
        0x0001ae88:    f3601286    `...    BFI      r2,r0,#6,#1
        0x0001ae8c:    f8c12084    ...     STR      r2,[r1,#0x84]
        0x0001ae90:    7828        (x      LDRB     r0,[r5,#0]
        0x0001ae92:    f8d12084    ...     LDR      r2,[r1,#0x84]
        0x0001ae96:    f3601205    `...    BFI      r2,r0,#4,#2
        0x0001ae9a:    f8c12084    ...     STR      r2,[r1,#0x84]
        0x0001ae9e:    e034        4.      B        0x1af0a ; am_hal_mspi_control + 1934
        0x0001aea0:    2d00        .-      CMP      r5,#0
        0x0001aea2:    f43fac7c    ?.|.    BEQ      0x1a79e ; am_hal_mspi_control + 34
        0x0001aea6:    2000        .       MOVS     r0,#0
        0x0001aea8:    f2c40006    ....    MOVT     r0,#0x4006
        0x0001aeac:    eb003007    ...0    ADD      r0,r0,r7,LSL #12
        0x0001aeb0:    7a69        iz      LDRB     r1,[r5,#9]
        0x0001aeb2:    f8d02084    ...     LDR      r2,[r0,#0x84]
        0x0001aeb6:    f022427c    ".|B    BIC      r2,r2,#0xfc000000
        0x0001aeba:    ea426181    B..a    ORR      r1,r2,r1,LSL #26
        0x0001aebe:    f8c01084    ....    STR      r1,[r0,#0x84]
        0x0001aec2:    f8d01090    ....    LDR      r1,[r0,#0x90]
        0x0001aec6:    2205        ."      MOVS     r2,#5
        0x0001aec8:    f362210a    b..!    BFI      r1,r2,#8,#3
        0x0001aecc:    f8c01090    ....    STR      r1,[r0,#0x90]
        0x0001aed0:    7b29        ){      LDRB     r1,[r5,#0xc]
        0x0001aed2:    f8d02090    ...     LDR      r2,[r0,#0x90]
        0x0001aed6:    f4225280    "..R    BIC      r2,r2,#0x1000
        0x0001aeda:    ea423101    B..1    ORR      r1,r2,r1,LSL #12
        0x0001aede:    e012        ..      B        0x1af06 ; am_hal_mspi_control + 1930
        0x0001aee0:    2000        .       MOVS     r0,#0
        0x0001aee2:    f2c40006    ....    MOVT     r0,#0x4006
        0x0001aee6:    eb003007    ...0    ADD      r0,r0,r7,LSL #12
        0x0001aeea:    f8d01090    ....    LDR      r1,[r0,#0x90]
        0x0001aeee:    f0210140    !.@.    BIC      r1,r1,#0x40
        0x0001aef2:    e008        ..      B        0x1af06 ; am_hal_mspi_control + 1930
        0x0001aef4:    2000        .       MOVS     r0,#0
        0x0001aef6:    f2c40006    ....    MOVT     r0,#0x4006
        0x0001aefa:    eb003007    ...0    ADD      r0,r0,r7,LSL #12
        0x0001aefe:    f8d01090    ....    LDR      r1,[r0,#0x90]
        0x0001af02:    f0410140    A.@.    ORR      r1,r1,#0x40
        0x0001af06:    f8c01090    ....    STR      r1,[r0,#0x90]
        0x0001af0a:    2600        .&      MOVS     r6,#0
        0x0001af0c:    f7ffbc4a    ..J.    B.W      0x1a7a4 ; am_hal_mspi_control + 40
        0x0001af10:    68a8        .h      LDR      r0,[r5,#8]
        0x0001af12:    f000417c    ..|A    AND      r1,r0,#0xfc000000
        0x0001af16:    f1b15fa0    ..._    CMP      r1,#0x14000000
        0x0001af1a:    d106        ..      BNE      0x1af2a ; am_hal_mspi_control + 1966
        0x0001af1c:    e009        ..      B        0x1af32 ; am_hal_mspi_control + 1974
        0x0001af1e:    68a8        .h      LDR      r0,[r5,#8]
        0x0001af20:    f000417c    ..|A    AND      r1,r0,#0xfc000000
        0x0001af24:    f1b15fc0    ..._    CMP      r1,#0x18000000
        0x0001af28:    d003        ..      BEQ      0x1af32 ; am_hal_mspi_control + 1974
        0x0001af2a:    2605        .&      MOVS     r6,#5
        0x0001af2c:    f7ffbc3a    ..:.    B.W      0x1a7a4 ; am_hal_mspi_control + 40
        0x0001af30:    68a8        .h      LDR      r0,[r5,#8]
        0x0001af32:    2600        .&      MOVS     r6,#0
        0x0001af34:    2100        .!      MOVS     r1,#0
        0x0001af36:    f2c40606    ....    MOVT     r6,#0x4006
        0x0001af3a:    f2c031ff    ...1    MOVT     r1,#0x3ff
        0x0001af3e:    eb063707    ...7    ADD      r7,r6,r7,LSL #12
        0x0001af42:    4008        .@      ANDS     r0,r0,r1
        0x0001af44:    7b29        ){      LDRB     r1,[r5,#0xc]
        0x0001af46:    7b6a        j{      LDRB     r2,[r5,#0xd]
        0x0001af48:    886b        k.      LDRH     r3,[r5,#2]
        0x0001af4a:    f8d7609c    ...`    LDR      r6,[r7,#0x9c]
        0x0001af4e:    f3611004    a...    BFI      r0,r1,#4,#1
        0x0001af52:    f3630609    c...    BFI      r6,r3,#0,#10
        0x0001af56:    f8c7609c    ...`    STR      r6,[r7,#0x9c]
        0x0001af5a:    f002010f    ....    AND      r1,r2,#0xf
        0x0001af5e:    88ea        ..      LDRH     r2,[r5,#6]
        0x0001af60:    f8d7309c    ...0    LDR      r3,[r7,#0x9c]
        0x0001af64:    4408        .D      ADD      r0,r0,r1
        0x0001af66:    f3624319    b..C    BFI      r3,r2,#16,#10
        0x0001af6a:    f8c7309c    ...0    STR      r3,[r7,#0x9c]
        0x0001af6e:    f8c70080    ....    STR      r0,[r7,#0x80]
        0x0001af72:    e7ca        ..      B        0x1af0a ; am_hal_mspi_control + 1934
        0x0001af74:    b1c2        ..      CBZ      r2,0x1afa8 ; am_hal_mspi_control + 2092
        0x0001af76:    2a01        .*      CMP      r2,#1
        0x0001af78:    f47fac14    ....    BNE      0x1a7a4 ; am_hal_mspi_control + 40
        0x0001af7c:    f8d17084    ...p    LDR      r7,[r1,#0x84]
        0x0001af80:    f0477780    G..w    ORR      r7,r7,#0x1000000
        0x0001af84:    f8c17084    ...p    STR      r7,[r1,#0x84]
        0x0001af88:    f8d17084    ...p    LDR      r7,[r1,#0x84]
        0x0001af8c:    f4270700    '...    BIC      r7,r7,#0x800000
        0x0001af90:    f8c17084    ...p    STR      r7,[r1,#0x84]
        0x0001af94:    f8d17084    ...p    LDR      r7,[r1,#0x84]
        0x0001af98:    f4470780    G...    ORR      r7,r7,#0x400000
        0x0001af9c:    e62f        /.      B        0x1abfe ; am_hal_mspi_control + 1154
        0x0001af9e:    0792        ..      LSLS     r2,r2,#30
        0x0001afa0:    f43fac00    ?...    BEQ      0x1a7a4 ; am_hal_mspi_control + 40
        0x0001afa4:    220c        ."      MOVS     r2,#0xc
        0x0001afa6:    e63d        =.      B        0x1ac24 ; am_hal_mspi_control + 1192
        0x0001afa8:    f8d17084    ...p    LDR      r7,[r1,#0x84]
        0x0001afac:    f0477780    G..w    ORR      r7,r7,#0x1000000
        0x0001afb0:    e619        ..      B        0x1abe6 ; am_hal_mspi_control + 1130
        0x0001afb2:    4620         F      MOV      r0,r4
        0x0001afb4:    f003f968    ..h.    BL       mspi_cq_pause ; 0x1e288
        0x0001afb8:    4606        .F      MOV      r6,r0
        0x0001afba:    2800        .(      CMP      r0,#0
        0x0001afbc:    f47fabf2    ....    BNE      0x1a7a4 ; am_hal_mspi_control + 40
        0x0001afc0:    f8d40828    ..(.    LDR      r0,[r4,#0x828]
        0x0001afc4:    f7feff1d    ....    BL       am_hal_cmdq_reset ; 0x19e02
        0x0001afc8:    2600        .&      MOVS     r6,#0
        0x0001afca:    2001        .       MOVS     r0,#1
        0x0001afcc:    f8c46830    ..0h    STR      r6,[r4,#0x830]
        0x0001afd0:    e9c46607    ...f    STRD     r6,r6,[r4,#0x1c]
        0x0001afd4:    f884582c    ..,X    STRB     r5,[r4,#0x82c]
        0x0001afd8:    f884082d    ..-.    STRB     r0,[r4,#0x82d]
        0x0001afdc:    f8c4685c    ..\h    STR      r6,[r4,#0x85c]
        0x0001afe0:    f7ffbbe0    ....    B        0x1a7a4 ; am_hal_mspi_control + 40
        0x0001afe4:    2100        .!      MOVS     r1,#0
        0x0001afe6:    0338        8.      LSLS     r0,r7,#12
        0x0001afe8:    f2c40106    ....    MOVT     r1,#0x4006
        0x0001afec:    580a        .X      LDR      r2,[r1,r0]
        0x0001afee:    2301        .#      MOVS     r3,#1
        0x0001aff0:    e00c        ..      B        0x1b00c ; am_hal_mspi_control + 2192
        0x0001aff2:    2100        .!      MOVS     r1,#0
        0x0001aff4:    0338        8.      LSLS     r0,r7,#12
        0x0001aff6:    f2c40106    ....    MOVT     r1,#0x4006
        0x0001affa:    580a        .X      LDR      r2,[r1,r0]
        0x0001affc:    2303        .#      MOVS     r3,#3
        0x0001affe:    e005        ..      B        0x1b00c ; am_hal_mspi_control + 2192
        0x0001b000:    2100        .!      MOVS     r1,#0
        0x0001b002:    0338        8.      LSLS     r0,r7,#12
        0x0001b004:    f2c40106    ....    MOVT     r1,#0x4006
        0x0001b008:    580a        .X      LDR      r2,[r1,r0]
        0x0001b00a:    2305        .#      MOVS     r3,#5
        0x0001b00c:    f363324f    c.O2    BFI      r2,r3,#13,#3
        0x0001b010:    e006        ..      B        0x1b020 ; am_hal_mspi_control + 2212
        0x0001b012:    2100        .!      MOVS     r1,#0
        0x0001b014:    0338        8.      LSLS     r0,r7,#12
        0x0001b016:    f2c40106    ....    MOVT     r1,#0x4006
        0x0001b01a:    580a        .X      LDR      r2,[r1,r0]
        0x0001b01c:    f4424260    B.`B    ORR      r2,r2,#0xe000
        0x0001b020:    500a        .P      STR      r2,[r1,r0]
        0x0001b022:    e772        r.      B        0x1af0a ; am_hal_mspi_control + 1934
        0x0001b024:    f44f4380    O..C    MOV      r3,#0x4000
        0x0001b028:    e001        ..      B        0x1b02e ; am_hal_mspi_control + 2226
        0x0001b02a:    f4434381    C..C    ORR      r3,r3,#0x4080
        0x0001b02e:    6053        S`      STR      r3,[r2,#4]
        0x0001b030:    68ef        .h      LDR      r7,[r5,#0xc]
        0x0001b032:    f1020308    ....    ADD      r3,r2,#8
        0x0001b036:    b177        w.      CBZ      r7,0x1b056 ; am_hal_mspi_control + 2266
        0x0001b038:    68aa        .h      LDR      r2,[r5,#8]
        0x0001b03a:    3204        .2      ADDS     r2,#4
        0x0001b03c:    f8526c04    R..l    LDR      r6,[r2,#-4]
        0x0001b040:    3f01        .?      SUBS     r7,#1
        0x0001b042:    601e        .`      STR      r6,[r3,#0]
        0x0001b044:    6816        .h      LDR      r6,[r2,#0]
        0x0001b046:    f1020208    ....    ADD      r2,r2,#8
        0x0001b04a:    605e        ^`      STR      r6,[r3,#4]
        0x0001b04c:    f1030308    ....    ADD      r3,r3,#8
        0x0001b050:    d1f4        ..      BNE      0x1b03c ; am_hal_mspi_control + 2240
        0x0001b052:    f1a30208    ....    SUB      r2,r3,#8
        0x0001b056:    69af        .i      LDR      r7,[r5,#0x18]
        0x0001b058:    b107        ..      CBZ      r7,0x1b05c ; am_hal_mspi_control + 2272
        0x0001b05a:    603b        ;`      STR      r3,[r7,#0]
        0x0001b05c:    f500702d    ..-p    ADD      r0,r0,#0x2b4
        0x0001b060:    6019        .`      STR      r1,[r3,#0]
        0x0001b062:    f8420f10    B...    STR      r0,[r2,#0x10]!
        0x0001b066:    f44f4080    O..@    MOV      r0,#0x4000
        0x0001b06a:    f8420c04    B...    STR      r0,[r2,#-4]
        0x0001b06e:    692e        .i      LDR      r6,[r5,#0x10]
        0x0001b070:    6868        hh      LDR      r0,[r5,#4]
        0x0001b072:    9201        ..      STR      r2,[sp,#4]
        0x0001b074:    6050        P`      STR      r0,[r2,#4]
        0x0001b076:    b946        F.      CBNZ     r6,0x1b08a ; am_hal_mspi_control + 2318
        0x0001b078:    f8d40838    ..8.    LDR      r0,[r4,#0x838]
        0x0001b07c:    b920         .      CBNZ     r0,0x1b088 ; am_hal_mspi_control + 2316
        0x0001b07e:    f894082c    ..,.    LDRB     r0,[r4,#0x82c]
        0x0001b082:    2800        .(      CMP      r0,#0
        0x0001b084:    f000809a    ....    BEQ.W    0x1b1bc ; am_hal_mspi_control + 2624
        0x0001b088:    2600        .&      MOVS     r6,#0
        0x0001b08a:    f89d0000    ....    LDRB     r0,[sp,#0]
        0x0001b08e:    eb040080    ....    ADD      r0,r4,r0,LSL #2
        0x0001b092:    6286        .b      STR      r6,[r0,#0x28]
        0x0001b094:    6969        ii      LDR      r1,[r5,#0x14]
        0x0001b096:    f8c01428    ..(.    STR      r1,[r0,#0x428]
        0x0001b09a:    f7fff96b    ..k.    BL       am_hal_interrupt_master_disable ; 0x1a374
        0x0001b09e:    4680        .F      MOV      r8,r0
        0x0001b0a0:    f8d40828    ..(.    LDR      r0,[r4,#0x828]
        0x0001b0a4:    4631        1F      MOV      r1,r6
        0x0001b0a6:    2e00        ..      CMP      r6,#0
        0x0001b0a8:    bf18        ..      IT       NE
        0x0001b0aa:    2101        .!      MOVNE    r1,#1
        0x0001b0ac:    f7fefe2b    ..+.    BL       am_hal_cmdq_post_block ; 0x19d06
        0x0001b0b0:    4607        .F      MOV      r7,r0
        0x0001b0b2:    b138        8.      CBZ      r0,0x1b0c4 ; am_hal_mspi_control + 2376
        0x0001b0b4:    4640        @F      MOV      r0,r8
        0x0001b0b6:    f7fff965    ..e.    BL       am_hal_interrupt_master_set ; 0x1a384
        0x0001b0ba:    f8d40828    ..(.    LDR      r0,[r4,#0x828]
        0x0001b0be:    f7fefe88    ....    BL       am_hal_cmdq_release_block ; 0x19dd2
        0x0001b0c2:    e093        ..      B        0x1b1ec ; am_hal_mspi_control + 2672
        0x0001b0c4:    f8d49020    .. .    LDR      r9,[r4,#0x20]
        0x0001b0c8:    f8d41830    ..0.    LDR      r1,[r4,#0x830]
        0x0001b0cc:    f1090001    ....    ADD      r0,r9,#1
        0x0001b0d0:    6220         b      STR      r0,[r4,#0x20]
        0x0001b0d2:    1c48        H.      ADDS     r0,r1,#1
        0x0001b0d4:    f8c40830    ..0.    STR      r0,[r4,#0x830]
        0x0001b0d8:    6928        (i      LDR      r0,[r5,#0x10]
        0x0001b0da:    b378        x.      CBZ      r0,0x1b13c ; am_hal_mspi_control + 2496
        0x0001b0dc:    2000        .       MOVS     r0,#0
        0x0001b0de:    f884082d    ..-.    STRB     r0,[r4,#0x82d]
        0x0001b0e2:    e07b        {.      B        0x1b1dc ; am_hal_mspi_control + 2656
        0x0001b0e4:    f8d40828    ..(.    LDR      r0,[r4,#0x828]
        0x0001b0e8:    aa01        ..      ADD      r2,sp,#4
        0x0001b0ea:    466b        kF      MOV      r3,sp
        0x0001b0ec:    2101        .!      MOVS     r1,#1
        0x0001b0ee:    f7fefcb7    ....    BL       am_hal_cmdq_alloc_block ; 0x19a60
        0x0001b0f2:    4606        .F      MOV      r6,r0
        0x0001b0f4:    2800        .(      CMP      r0,#0
        0x0001b0f6:    f47fab55    ..U.    BNE      0x1a7a4 ; am_hal_mspi_control + 40
        0x0001b0fa:    f89d0000    ....    LDRB     r0,[sp,#0]
        0x0001b0fe:    f24e5185    N..Q    MOV      r1,#0xe585
        0x0001b102:    f2c00101    ....    MOVT     r1,#1
        0x0001b106:    eb040080    ....    ADD      r0,r4,r0,LSL #2
        0x0001b10a:    6281        .b      STR      r1,[r0,#0x28]
        0x0001b10c:    f8c04428    ..(D    STR      r4,[r0,#0x428]
        0x0001b110:    eb093007    ...0    ADD      r0,r9,r7,LSL #12
        0x0001b114:    9901        ..      LDR      r1,[sp,#4]
        0x0001b116:    f500702d    ..-p    ADD      r0,r0,#0x2b4
        0x0001b11a:    2200        ."      MOVS     r2,#0
        0x0001b11c:    e9c10200    ....    STRD     r0,r2,[r1,#0]
        0x0001b120:    f7fff928    ..(.    BL       am_hal_interrupt_master_disable ; 0x1a374
        0x0001b124:    f8d41828    ..(.    LDR      r1,[r4,#0x828]
        0x0001b128:    4680        .F      MOV      r8,r0
        0x0001b12a:    4608        .F      MOV      r0,r1
        0x0001b12c:    2101        .!      MOVS     r1,#1
        0x0001b12e:    f7fefdea    ....    BL       am_hal_cmdq_post_block ; 0x19d06
        0x0001b132:    2800        .(      CMP      r0,#0
        0x0001b134:    d067        g.      BEQ      0x1b206 ; am_hal_mspi_control + 2698
        0x0001b136:    4606        .F      MOV      r6,r0
        0x0001b138:    4640        @F      MOV      r0,r8
        0x0001b13a:    e020         .      B        0x1b17e ; am_hal_mspi_control + 2562
        0x0001b13c:    2e00        ..      CMP      r6,#0
        0x0001b13e:    d04a        J.      BEQ      0x1b1d6 ; am_hal_mspi_control + 2650
        0x0001b140:    2000        .       MOVS     r0,#0
        0x0001b142:    e04b        K.      B        0x1b1dc ; am_hal_mspi_control + 2656
        0x0001b144:    f44f4280    O..B    MOV      r2,#0x4000
        0x0001b148:    e001        ..      B        0x1b14e ; am_hal_mspi_control + 2514
        0x0001b14a:    f4424281    B..B    ORR      r2,r2,#0x4080
        0x0001b14e:    6042        B`      STR      r2,[r0,#4]
        0x0001b150:    60c1        .`      STR      r1,[r0,#0xc]
        0x0001b152:    68a9        .h      LDR      r1,[r5,#8]
        0x0001b154:    ea410108    A...    ORR      r1,r1,r8
        0x0001b158:    6141        Aa      STR      r1,[r0,#0x14]
        0x0001b15a:    f7fff90b    ....    BL       am_hal_interrupt_master_disable ; 0x1a374
        0x0001b15e:    782a        *x      LDRB     r2,[r5,#0]
        0x0001b160:    f8d41828    ..(.    LDR      r1,[r4,#0x828]
        0x0001b164:    4607        .F      MOV      r7,r0
        0x0001b166:    4608        .F      MOV      r0,r1
        0x0001b168:    f04f0100    O...    MOV      r1,#0
        0x0001b16c:    b112        ..      CBZ      r2,0x1b174 ; am_hal_mspi_control + 2552
        0x0001b16e:    f7fefdfd    ....    BL       am_hal_cmdq_post_loop_block ; 0x19d6c
        0x0001b172:    e001        ..      B        0x1b178 ; am_hal_mspi_control + 2556
        0x0001b174:    f7fefdc7    ....    BL       am_hal_cmdq_post_block ; 0x19d06
        0x0001b178:    4606        .F      MOV      r6,r0
        0x0001b17a:    b140        @.      CBZ      r0,0x1b18e ; am_hal_mspi_control + 2578
        0x0001b17c:    4638        8F      MOV      r0,r7
        0x0001b17e:    f7fff901    ....    BL       am_hal_interrupt_master_set ; 0x1a384
        0x0001b182:    f8d40828    ..(.    LDR      r0,[r4,#0x828]
        0x0001b186:    f7fefe24    ..$.    BL       am_hal_cmdq_release_block ; 0x19dd2
        0x0001b18a:    f7ffbb0b    ....    B        0x1a7a4 ; am_hal_mspi_control + 40
        0x0001b18e:    6a26        &j      LDR      r6,[r4,#0x20]
        0x0001b190:    1c70        p.      ADDS     r0,r6,#1
        0x0001b192:    6220         b      STR      r0,[r4,#0x20]
        0x0001b194:    7828        (x      LDRB     r0,[r5,#0]
        0x0001b196:    0040        @.      LSLS     r0,r0,#1
        0x0001b198:    f884082c    ..,.    STRB     r0,[r4,#0x82c]
        0x0001b19c:    4638        8F      MOV      r0,r7
        0x0001b19e:    f7fff8f1    ....    BL       am_hal_interrupt_master_set ; 0x1a384
        0x0001b1a2:    2e00        ..      CMP      r6,#0
        0x0001b1a4:    f47faeb1    ....    BNE      0x1af0a ; am_hal_mspi_control + 1934
        0x0001b1a8:    f8d40828    ..(.    LDR      r0,[r4,#0x828]
        0x0001b1ac:    f7fefcbf    ....    BL       am_hal_cmdq_enable ; 0x19b2e
        0x0001b1b0:    4606        .F      MOV      r6,r0
        0x0001b1b2:    2800        .(      CMP      r0,#0
        0x0001b1b4:    bf08        ..      IT       EQ
        0x0001b1b6:    2600        .&      MOVEQ    r6,#0
        0x0001b1b8:    f7ffbaf4    ....    B        0x1a7a4 ; am_hal_mspi_control + 40
        0x0001b1bc:    f8d40858    ..X.    LDR      r0,[r4,#0x858]
        0x0001b1c0:    f8d4185c    ..\.    LDR      r1,[r4,#0x85c]
        0x0001b1c4:    f24e5683    N..V    MOV      r6,#0xe583
        0x0001b1c8:    f2c00601    ....    MOVT     r6,#1
        0x0001b1cc:    ebb10f50    ..P.    CMP      r1,r0,LSR #1
        0x0001b1d0:    bf38        8.      IT       CC
        0x0001b1d2:    2600        .&      MOVCC    r6,#0
        0x0001b1d4:    e759        Y.      B        0x1b08a ; am_hal_mspi_control + 2318
        0x0001b1d6:    f8d4085c    ..\.    LDR      r0,[r4,#0x85c]
        0x0001b1da:    3001        .0      ADDS     r0,#1
        0x0001b1dc:    f8c4085c    ..\.    STR      r0,[r4,#0x85c]
        0x0001b1e0:    4640        @F      MOV      r0,r8
        0x0001b1e2:    f7fff8cf    ....    BL       am_hal_interrupt_master_set ; 0x1a384
        0x0001b1e6:    f1b90f00    ....    CMP      r9,#0
        0x0001b1ea:    d002        ..      BEQ      0x1b1f2 ; am_hal_mspi_control + 2678
        0x0001b1ec:    463e        >F      MOV      r6,r7
        0x0001b1ee:    f7ffbad9    ....    B        0x1a7a4 ; am_hal_mspi_control + 40
        0x0001b1f2:    f8d40828    ..(.    LDR      r0,[r4,#0x828]
        0x0001b1f6:    f7fefc9a    ....    BL       am_hal_cmdq_enable ; 0x19b2e
        0x0001b1fa:    4606        .F      MOV      r6,r0
        0x0001b1fc:    2800        .(      CMP      r0,#0
        0x0001b1fe:    bf08        ..      IT       EQ
        0x0001b200:    463e        >F      MOVEQ    r6,r7
        0x0001b202:    f7ffbacf    ....    B        0x1a7a4 ; am_hal_mspi_control + 40
        0x0001b206:    6a26        &j      LDR      r6,[r4,#0x20]
        0x0001b208:    1c70        p.      ADDS     r0,r6,#1
        0x0001b20a:    6220         b      STR      r0,[r4,#0x20]
        0x0001b20c:    4640        @F      MOV      r0,r8
        0x0001b20e:    f7fff8b9    ....    BL       am_hal_interrupt_master_set ; 0x1a384
        0x0001b212:    b93e        >.      CBNZ     r6,0x1b224 ; am_hal_mspi_control + 2728
        0x0001b214:    f8d40828    ..(.    LDR      r0,[r4,#0x828]
        0x0001b218:    f7fefc89    ....    BL       am_hal_cmdq_enable ; 0x19b2e
        0x0001b21c:    4606        .F      MOV      r6,r0
        0x0001b21e:    2800        .(      CMP      r0,#0
        0x0001b220:    f47faac0    ....    BNE      0x1a7a4 ; am_hal_mspi_control + 40
        0x0001b224:    f04f0a40    O.@.    MOV      r10,#0x40
        0x0001b228:    f44f0880    O...    MOV      r8,#0x400000
        0x0001b22c:    e573        s.      B        0x1ad16 ; am_hal_mspi_control + 1434
    am_hal_mspi_deinitialize
        0x0001b22e:    b510        ..      PUSH     {r4,lr}
        0x0001b230:    b1a8        ..      CBZ      r0,0x1b25e ; am_hal_mspi_deinitialize + 48
        0x0001b232:    4604        .F      MOV      r4,r0
        0x0001b234:    6800        .h      LDR      r0,[r0,#0]
        0x0001b236:    f64b62be    K..b    MOV      r2,#0xbebe
        0x0001b23a:    f020417e     .~A    BIC      r1,r0,#0xfe000000
        0x0001b23e:    f2c012be    ....    MOVT     r2,#0x1be
        0x0001b242:    4291        .B      CMP      r1,r2
        0x0001b244:    d10b        ..      BNE      0x1b25e ; am_hal_mspi_deinitialize + 48
        0x0001b246:    0181        ..      LSLS     r1,r0,#6
        0x0001b248:    d503        ..      BPL      0x1b252 ; am_hal_mspi_deinitialize + 36
        0x0001b24a:    4620         F      MOV      r0,r4
        0x0001b24c:    f000f8eb    ....    BL       am_hal_mspi_disable ; 0x1b426
        0x0001b250:    6820         h      LDR      r0,[r4,#0]
        0x0001b252:    f0207180     ..q    BIC      r1,r0,#0x1000000
        0x0001b256:    2000        .       MOVS     r0,#0
        0x0001b258:    e9c41000    ....    STRD     r1,r0,[r4,#0]
        0x0001b25c:    bd10        ..      POP      {r4,pc}
        0x0001b25e:    2002        .       MOVS     r0,#2
        0x0001b260:    bd10        ..      POP      {r4,pc}
    am_hal_mspi_device_configure
        0x0001b262:    b570        p.      PUSH     {r4-r6,lr}
        0x0001b264:    b320         .      CBZ      r0,0x1b2b0 ; am_hal_mspi_device_configure + 78
        0x0001b266:    4604        .F      MOV      r4,r0
        0x0001b268:    6800        .h      LDR      r0,[r0,#0]
        0x0001b26a:    460d        .F      MOV      r5,r1
        0x0001b26c:    f64b61be    K..a    MOV      r1,#0xbebe
        0x0001b270:    f020407e     .~@    BIC      r0,r0,#0xfe000000
        0x0001b274:    f2c011be    ....    MOVT     r1,#0x1be
        0x0001b278:    4288        .B      CMP      r0,r1
        0x0001b27a:    d119        ..      BNE      0x1b2b0 ; am_hal_mspi_device_configure + 78
        0x0001b27c:    7a20         z      LDRB     r0,[r4,#8]
        0x0001b27e:    b1c8        ..      CBZ      r0,0x1b2b4 ; am_hal_mspi_device_configure + 82
        0x0001b280:    786b        kx      LDRB     r3,[r5,#1]
        0x0001b282:    7829        )x      LDRB     r1,[r5,#0]
        0x0001b284:    78ae        .x      LDRB     r6,[r5,#2]
        0x0001b286:    2230        0"      MOVS     r2,#0x30
        0x0001b288:    7aa8        .z      LDRB     r0,[r5,#0xa]
        0x0001b28a:    ea021203    ....    AND      r2,r2,r3,LSL #4
        0x0001b28e:    f8d4e004    ....    LDR      lr,[r4,#4]
        0x0001b292:    f3661286    f...    BFI      r2,r6,#6,#1
        0x0001b296:    f001013f    ..?.    AND      r1,r1,#0x3f
        0x0001b29a:    2803        .(      CMP      r0,#3
        0x0001b29c:    ea422301    B..#    ORR      r3,r2,r1,LSL #8
        0x0001b2a0:    d00a        ..      BEQ      0x1b2b8 ; am_hal_mspi_device_configure + 86
        0x0001b2a2:    2802        .(      CMP      r0,#2
        0x0001b2a4:    d00b        ..      BEQ      0x1b2be ; am_hal_mspi_device_configure + 92
        0x0001b2a6:    2801        .(      CMP      r0,#1
        0x0001b2a8:    bf08        ..      IT       EQ
        0x0001b2aa:    f5034300    ...C    ADDEQ    r3,r3,#0x8000
        0x0001b2ae:    e008        ..      B        0x1b2c2 ; am_hal_mspi_device_configure + 96
        0x0001b2b0:    2002        .       MOVS     r0,#2
        0x0001b2b2:    bd70        p.      POP      {r4-r6,pc}
        0x0001b2b4:    2007        .       MOVS     r0,#7
        0x0001b2b6:    bd70        p.      POP      {r4-r6,pc}
        0x0001b2b8:    f5034340    ..@C    ADD      r3,r3,#0xc000
        0x0001b2bc:    e001        ..      B        0x1b2c2 ; am_hal_mspi_device_configure + 96
        0x0001b2be:    f5034380    ...C    ADD      r3,r3,#0x4000
        0x0001b2c2:    7ae9        .z      LDRB     r1,[r5,#0xb]
        0x0001b2c4:    2005        .       MOVS     r0,#5
        0x0001b2c6:    1e4e        N.      SUBS     r6,r1,#1
        0x0001b2c8:    2e1f        ..      CMP      r6,#0x1f
        0x0001b2ca:    f20080a8    ....    BHI.W    0x1b41e ; am_hal_mspi_device_configure + 444
        0x0001b2ce:    2201        ."      MOVS     r2,#1
        0x0001b2d0:    f6480cac    H...    MOV      r12,#0x88ac
        0x0001b2d4:    40b2        .@      LSLS     r2,r2,r6
        0x0001b2d6:    f2c80c80    ....    MOVT     r12,#0x8080
        0x0001b2da:    ea120f0c    ....    TST      r2,r12
        0x0001b2de:    f3614315    a..C    BFI      r3,r1,#16,#6
        0x0001b2e2:    d073        s.      BEQ      0x1b3cc ; am_hal_mspi_device_configure + 362
        0x0001b2e4:    7a68        hz      LDRB     r0,[r5,#9]
        0x0001b2e6:    2284        ."      MOVS     r2,#0x84
        0x0001b2e8:    ea436080    C..`    ORR      r0,r3,r0,LSL #26
        0x0001b2ec:    ea4f310e    O..1    LSL      r1,lr,#12
        0x0001b2f0:    f2c40206    ....    MOVT     r2,#0x4006
        0x0001b2f4:    5050        PP      STR      r0,[r2,r1]
        0x0001b2f6:    2288        ."      MOVS     r2,#0x88
        0x0001b2f8:    f2c40206    ....    MOVT     r2,#0x4006
        0x0001b2fc:    7c28        (|      LDRB     r0,[r5,#0x10]
        0x0001b2fe:    5853        SX      LDR      r3,[r2,r1]
        0x0001b300:    f0230301    #...    BIC      r3,r3,#1
        0x0001b304:    4318        .C      ORRS     r0,r0,r3
        0x0001b306:    5050        PP      STR      r0,[r2,r1]
        0x0001b308:    2030        0       MOVS     r0,#0x30
        0x0001b30a:    f2c40006    ....    MOVT     r0,#0x4006
        0x0001b30e:    2300        .#      MOVS     r3,#0
        0x0001b310:    5846        FX      LDR      r6,[r0,r1]
        0x0001b312:    f2c40306    ....    MOVT     r3,#0x4006
        0x0001b316:    eb03320e    ...2    ADD      r2,r3,lr,LSL #12
        0x0001b31a:    f0260301    &...    BIC      r3,r6,#1
        0x0001b31e:    5043        CP      STR      r3,[r0,r1]
        0x0001b320:    2090        .       MOVS     r0,#0x90
        0x0001b322:    f2c40006    ....    MOVT     r0,#0x4006
        0x0001b326:    5840        @X      LDR      r0,[r0,r1]
        0x0001b328:    f6407103    @..q    MOV      r1,#0xf03
        0x0001b32c:    f6cf6100    ...a    MOVT     r1,#0xfe00
        0x0001b330:    4008        .@      ANDS     r0,r0,r1
        0x0001b332:    7b61        a{      LDRB     r1,[r4,#0xd]
        0x0001b334:    7beb        .{      LDRB     r3,[r5,#0xf]
        0x0001b336:    f001010f    ....    AND      r1,r1,#0xf
        0x0001b33a:    ea401001    @...    ORR      r0,r0,r1,LSL #4
        0x0001b33e:    b13b        ;.      CBZ      r3,0x1b350 ; am_hal_mspi_device_configure + 238
        0x0001b340:    7829        )x      LDRB     r1,[r5,#0]
        0x0001b342:    f001013f    ..?.    AND      r1,r1,#0x3f
        0x0001b346:    ea403041    @.A0    ORR      r0,r0,r1,LSL #13
        0x0001b34a:    f040002c    @.,.    ORR      r0,r0,#0x2c
        0x0001b34e:    e000        ..      B        0x1b352 ; am_hal_mspi_device_configure + 240
        0x0001b350:    300c        .0      ADDS     r0,r0,#0xc
        0x0001b352:    7b6e        n{      LDRB     r6,[r5,#0xd]
        0x0001b354:    7ba9        .{      LDRB     r1,[r5,#0xe]
        0x0001b356:    f895e009    ....    LDRB     lr,[r5,#9]
        0x0001b35a:    7b2b        +{      LDRB     r3,[r5,#0xc]
        0x0001b35c:    2e00        ..      CMP      r6,#0
        0x0001b35e:    bf18        ..      IT       NE
        0x0001b360:    f0400040    @.@.    ORRNE    r0,r0,#0x40
        0x0001b364:    2900        .)      CMP      r1,#0
        0x0001b366:    bf18        ..      IT       NE
        0x0001b368:    f0400080    @...    ORRNE    r0,r0,#0x80
        0x0001b36c:    ea403003    @..0    ORR      r0,r0,r3,LSL #12
        0x0001b370:    f00e013f    ..?.    AND      r1,lr,#0x3f
        0x0001b374:    ea4040c1    @..@    ORR      r0,r0,r1,LSL #19
        0x0001b378:    f8c20090    ....    STR      r0,[r2,#0x90]
        0x0001b37c:    88e8        ..      LDRH     r0,[r5,#6]
        0x0001b37e:    88a9        ..      LDRH     r1,[r5,#4]
        0x0001b380:    2600        .&      MOVS     r6,#0
        0x0001b382:    ea404001    @..@    ORR      r0,r0,r1,LSL #16
        0x0001b386:    f8c20094    ....    STR      r0,[r2,#0x94]
        0x0001b38a:    8a68        h.      LDRH     r0,[r5,#0x12]
        0x0001b38c:    7d29        )}      LDRB     r1,[r5,#0x14]
        0x0001b38e:    f36f301f    o..0    BFC      r0,#12,#20
        0x0001b392:    f361300f    a..0    BFI      r0,r1,#12,#4
        0x0001b396:    f8c20098    ....    STR      r0,[r2,#0x98]
        0x0001b39a:    6b10        .k      LDR      r0,[r2,#0x30]
        0x0001b39c:    2107        .!      MOVS     r1,#7
        0x0001b39e:    f3611007    a...    BFI      r0,r1,#4,#4
        0x0001b3a2:    6310        .c      STR      r0,[r2,#0x30]
        0x0001b3a4:    69a0        .i      LDR      r0,[r4,#0x18]
        0x0001b3a6:    7366        fs      STRB     r6,[r4,#0xd]
        0x0001b3a8:    b368        h.      CBZ      r0,0x1b406 ; am_hal_mspi_device_configure + 420
        0x0001b3aa:    2020                MOVS     r0,#0x20
        0x0001b3ac:    f8c20114    ....    STR      r0,[r2,#0x114]
        0x0001b3b0:    7ae8        .z      LDRB     r0,[r5,#0xb]
        0x0001b3b2:    1e41        A.      SUBS     r1,r0,#1
        0x0001b3b4:    291f        .)      CMP      r1,#0x1f
        0x0001b3b6:    f04f0005    O...    MOV      r0,#5
        0x0001b3ba:    d830        0.      BHI      0x1b41e ; am_hal_mspi_device_configure + 444
        0x0001b3bc:    2301        .#      MOVS     r3,#1
        0x0001b3be:    fa03f101    ....    LSL      r1,r3,r1
        0x0001b3c2:    ea110f0c    ....    TST      r1,r12
        0x0001b3c6:    d007        ..      BEQ      0x1b3d8 ; am_hal_mspi_device_configure + 374
        0x0001b3c8:    2008        .       MOVS     r0,#8
        0x0001b3ca:    e009        ..      B        0x1b3e0 ; am_hal_mspi_device_configure + 382
        0x0001b3cc:    b346        F.      CBZ      r6,0x1b420 ; am_hal_mspi_device_configure + 446
        0x0001b3ce:    2e01        ..      CMP      r6,#1
        0x0001b3d0:    d125        %.      BNE      0x1b41e ; am_hal_mspi_device_configure + 444
        0x0001b3d2:    f10373a0    ...s    ADD      r3,r3,#0x1400000
        0x0001b3d6:    e785        ..      B        0x1b2e4 ; am_hal_mspi_device_configure + 130
        0x0001b3d8:    0789        ..      LSLS     r1,r1,#30
        0x0001b3da:    bf08        ..      IT       EQ
        0x0001b3dc:    bd70        p.      POPEQ    {r4-r6,pc}
        0x0001b3de:    200c        .       MOVS     r0,#0xc
        0x0001b3e0:    f8d21118    ....    LDR      r1,[r2,#0x118]
        0x0001b3e4:    f021011f    !...    BIC      r1,r1,#0x1f
        0x0001b3e8:    4408        .D      ADD      r0,r0,r1
        0x0001b3ea:    f8c20118    ....    STR      r0,[r2,#0x118]
        0x0001b3ee:    6a10        .j      LDR      r0,[r2,#0x20]
        0x0001b3f0:    211e        .!      MOVS     r1,#0x1e
        0x0001b3f2:    f361200d    a..     BFI      r0,r1,#8,#6
        0x0001b3f6:    6210        .b      STR      r0,[r2,#0x20]
        0x0001b3f8:    f8d20118    ....    LDR      r0,[r2,#0x118]
        0x0001b3fc:    2108        .!      MOVS     r1,#8
        0x0001b3fe:    f361200c    a..     BFI      r0,r1,#8,#5
        0x0001b402:    f8c20118    ....    STR      r0,[r2,#0x118]
        0x0001b406:    7a28        (z      LDRB     r0,[r5,#8]
        0x0001b408:    72a0        .r      STRB     r0,[r4,#0xa]
        0x0001b40a:    4620         F      MOV      r0,r4
        0x0001b40c:    f002ff7a    ..z.    BL       mspi_device_configure ; 0x1e304
        0x0001b410:    7ae8        .z      LDRB     r0,[r5,#0xb]
        0x0001b412:    7366        fs      STRB     r6,[r4,#0xd]
        0x0001b414:    7320         s      STRB     r0,[r4,#0xc]
        0x0001b416:    f2427010    B..p    MOV      r0,#0x2710
        0x0001b41a:    6120         a      STR      r0,[r4,#0x10]
        0x0001b41c:    2000        .       MOVS     r0,#0
        0x0001b41e:    bd70        p.      POP      {r4-r6,pc}
        0x0001b420:    f1037380    ...s    ADD      r3,r3,#0x1000000
        0x0001b424:    e75e        ^.      B        0x1b2e4 ; am_hal_mspi_device_configure + 130
    am_hal_mspi_disable
        0x0001b426:    b5b0        ..      PUSH     {r4,r5,r7,lr}
        0x0001b428:    b168        h.      CBZ      r0,0x1b446 ; am_hal_mspi_disable + 32
        0x0001b42a:    4604        .F      MOV      r4,r0
        0x0001b42c:    6800        .h      LDR      r0,[r0,#0]
        0x0001b42e:    f64b62be    K..b    MOV      r2,#0xbebe
        0x0001b432:    f020417e     .~A    BIC      r1,r0,#0xfe000000
        0x0001b436:    f2c012be    ....    MOVT     r2,#0x1be
        0x0001b43a:    4291        .B      CMP      r1,r2
        0x0001b43c:    d103        ..      BNE      0x1b446 ; am_hal_mspi_disable + 32
        0x0001b43e:    0180        ..      LSLS     r0,r0,#6
        0x0001b440:    d404        ..      BMI      0x1b44c ; am_hal_mspi_disable + 38
        0x0001b442:    2500        .%      MOVS     r5,#0
        0x0001b444:    e000        ..      B        0x1b448 ; am_hal_mspi_disable + 34
        0x0001b446:    2502        .%      MOVS     r5,#2
        0x0001b448:    4628        (F      MOV      r0,r5
        0x0001b44a:    bdb0        ..      POP      {r4,r5,r7,pc}
        0x0001b44c:    f8d40840    ..@.    LDR      r0,[r4,#0x840]
        0x0001b450:    b908        ..      CBNZ     r0,0x1b456 ; am_hal_mspi_disable + 48
        0x0001b452:    6a20         j      LDR      r0,[r4,#0x20]
        0x0001b454:    b108        ..      CBZ      r0,0x1b45a ; am_hal_mspi_disable + 52
        0x0001b456:    2503        .%      MOVS     r5,#3
        0x0001b458:    e7f6        ..      B        0x1b448 ; am_hal_mspi_disable + 34
        0x0001b45a:    69a0        .i      LDR      r0,[r4,#0x18]
        0x0001b45c:    b1c8        ..      CBZ      r0,0x1b492 ; am_hal_mspi_disable + 108
        0x0001b45e:    f8d40828    ..(.    LDR      r0,[r4,#0x828]
        0x0001b462:    f7fefb4a    ..J.    BL       am_hal_cmdq_disable ; 0x19afa
        0x0001b466:    4605        .F      MOV      r5,r0
        0x0001b468:    2800        .(      CMP      r0,#0
        0x0001b46a:    d1ed        ..      BNE      0x1b448 ; am_hal_mspi_disable + 34
        0x0001b46c:    6860        `h      LDR      r0,[r4,#4]
        0x0001b46e:    f64271dc    B..q    MOV      r1,#0x2fdc
        0x0001b472:    f2c10100    ....    MOVT     r1,#0x1000
        0x0001b476:    f44f620c    O..b    MOV      r2,#0x8c0
        0x0001b47a:    fb001102    ....    MLA      r1,r0,r2,r1
        0x0001b47e:    f8d10828    ..(.    LDR      r0,[r1,#0x828]
        0x0001b482:    b130        0.      CBZ      r0,0x1b492 ; am_hal_mspi_disable + 108
        0x0001b484:    f6010528    ..(.    ADD      r5,r1,#0x828
        0x0001b488:    2101        .!      MOVS     r1,#1
        0x0001b48a:    f7fefce7    ....    BL       am_hal_cmdq_term ; 0x19e5c
        0x0001b48e:    2000        .       MOVS     r0,#0
        0x0001b490:    6028        (`      STR      r0,[r5,#0]
        0x0001b492:    e9d40100    ....    LDRD     r0,r1,[r4,#0]
        0x0001b496:    f0207000     ..p    BIC      r0,r0,#0x2000000
        0x0001b49a:    6020         `      STR      r0,[r4,#0]
        0x0001b49c:    0308        ..      LSLS     r0,r1,#12
        0x0001b49e:    2190        .!      MOVS     r1,#0x90
        0x0001b4a0:    f2c40106    ....    MOVT     r1,#0x4006
        0x0001b4a4:    5808        .X      LDR      r0,[r1,r0]
        0x0001b4a6:    07c0        ..      LSLS     r0,r0,#31
        0x0001b4a8:    d0cb        ..      BEQ      0x1b442 ; am_hal_mspi_disable + 28
        0x0001b4aa:    2002        .       MOVS     r0,#2
        0x0001b4ac:    2100        .!      MOVS     r1,#0
        0x0001b4ae:    2500        .%      MOVS     r5,#0
        0x0001b4b0:    f7fefd2a    ..*.    BL       am_hal_daxi_control ; 0x19f08
        0x0001b4b4:    e7c8        ..      B        0x1b448 ; am_hal_mspi_disable + 34
    am_hal_mspi_enable
        0x0001b4b6:    b5b0        ..      PUSH     {r4,r5,r7,lr}
        0x0001b4b8:    b084        ..      SUB      sp,sp,#0x10
        0x0001b4ba:    2800        .(      CMP      r0,#0
        0x0001b4bc:    d04a        J.      BEQ      0x1b554 ; am_hal_mspi_enable + 158
        0x0001b4be:    4604        .F      MOV      r4,r0
        0x0001b4c0:    6800        .h      LDR      r0,[r0,#0]
        0x0001b4c2:    f64b62be    K..b    MOV      r2,#0xbebe
        0x0001b4c6:    f020417e     .~A    BIC      r1,r0,#0xfe000000
        0x0001b4ca:    f2c012be    ....    MOVT     r2,#0x1be
        0x0001b4ce:    4291        .B      CMP      r1,r2
        0x0001b4d0:    d140        @.      BNE      0x1b554 ; am_hal_mspi_enable + 158
        0x0001b4d2:    7a21        !z      LDRB     r1,[r4,#8]
        0x0001b4d4:    2900        .)      CMP      r1,#0
        0x0001b4d6:    d040        @.      BEQ      0x1b55a ; am_hal_mspi_enable + 164
        0x0001b4d8:    69a1        .i      LDR      r1,[r4,#0x18]
        0x0001b4da:    b3b1        ..      CBZ      r1,0x1b54a ; am_hal_mspi_enable + 148
        0x0001b4dc:    6962        bi      LDR      r2,[r4,#0x14]
        0x0001b4de:    9102        ..      STR      r1,[sp,#8]
        0x0001b4e0:    0851        Q.      LSRS     r1,r2,#1
        0x0001b4e2:    9101        ..      STR      r1,[sp,#4]
        0x0001b4e4:    2101        .!      MOVS     r1,#1
        0x0001b4e6:    6860        `h      LDR      r0,[r4,#4]
        0x0001b4e8:    f88d100c    ....    STRB     r1,[sp,#0xc]
        0x0001b4ec:    f64271dc    B..q    MOV      r1,#0x2fdc
        0x0001b4f0:    f2c10100    ....    MOVT     r1,#0x1000
        0x0001b4f4:    f44f620c    O..b    MOV      r2,#0x8c0
        0x0001b4f8:    fb001102    ....    MLA      r1,r0,r2,r1
        0x0001b4fc:    3008        .0      ADDS     r0,r0,#8
        0x0001b4fe:    2500        .%      MOVS     r5,#0
        0x0001b500:    f6010228    ..(.    ADD      r2,r1,#0x828
        0x0001b504:    b2c0        ..      UXTB     r0,r0
        0x0001b506:    a901        ..      ADD      r1,sp,#4
        0x0001b508:    e9c45507    ...U    STRD     r5,r5,[r4,#0x1c]
        0x0001b50c:    f7fefb9c    ....    BL       am_hal_cmdq_init ; 0x19c48
        0x0001b510:    6860        `h      LDR      r0,[r4,#4]
        0x0001b512:    f24021b4    @..!    MOVW     r1,#0x2b4
        0x0001b516:    2280        ."      MOVS     r2,#0x80
        0x0001b518:    0300        ..      LSLS     r0,r0,#12
        0x0001b51a:    f2c40106    ....    MOVT     r1,#0x4006
        0x0001b51e:    f2c00240    ..@.    MOVT     r2,#0x40
        0x0001b522:    500a        .P      STR      r2,[r1,r0]
        0x0001b524:    f8c45854    ..TX    STR      r5,[r4,#0x854]
        0x0001b528:    f884583c    ..<X    STRB     r5,[r4,#0x83c]
        0x0001b52c:    f44f7080    O..p    MOV      r0,#0x100
        0x0001b530:    f8a4082c    ..,.    STRH     r0,[r4,#0x82c]
        0x0001b534:    6820         h      LDR      r0,[r4,#0]
        0x0001b536:    f8c45838    ..8X    STR      r5,[r4,#0x838]
        0x0001b53a:    f8c45840    ..@X    STR      r5,[r4,#0x840]
        0x0001b53e:    f8c45844    ..DX    STR      r5,[r4,#0x844]
        0x0001b542:    f8c45830    ..0X    STR      r5,[r4,#0x830]
        0x0001b546:    f8c4585c    ..\X    STR      r5,[r4,#0x85c]
        0x0001b54a:    f0407000    @..p    ORR      r0,r0,#0x2000000
        0x0001b54e:    6020         `      STR      r0,[r4,#0]
        0x0001b550:    2000        .       MOVS     r0,#0
        0x0001b552:    e000        ..      B        0x1b556 ; am_hal_mspi_enable + 160
        0x0001b554:    2002        .       MOVS     r0,#2
        0x0001b556:    b004        ..      ADD      sp,sp,#0x10
        0x0001b558:    bdb0        ..      POP      {r4,r5,r7,pc}
        0x0001b55a:    2007        .       MOVS     r0,#7
        0x0001b55c:    e7fb        ..      B        0x1b556 ; am_hal_mspi_enable + 160
    am_hal_mspi_highprio_transfer
        0x0001b55e:    e92d41f0    -..A    PUSH     {r4-r8,lr}
        0x0001b562:    b1b0        ..      CBZ      r0,0x1b592 ; am_hal_mspi_highprio_transfer + 52
        0x0001b564:    6802        .h      LDR      r2,[r0,#0]
        0x0001b566:    f0224c7e    ".~L    BIC      r12,r2,#0xfe000000
        0x0001b56a:    f64b62be    K..b    MOV      r2,#0xbebe
        0x0001b56e:    f2c012be    ....    MOVT     r2,#0x1be
        0x0001b572:    4594        .E      CMP      r12,r2
        0x0001b574:    d10d        ..      BNE      0x1b592 ; am_hal_mspi_highprio_transfer + 52
        0x0001b576:    6982        .i      LDR      r2,[r0,#0x18]
        0x0001b578:    b172        r.      CBZ      r2,0x1b598 ; am_hal_mspi_highprio_transfer + 58
        0x0001b57a:    f8d0e854    ..T.    LDR      lr,[r0,#0x854]
        0x0001b57e:    f1be0f00    ....    CMP      lr,#0
        0x0001b582:    d009        ..      BEQ      0x1b598 ; am_hal_mspi_highprio_transfer + 58
        0x0001b584:    690a        .i      LDR      r2,[r1,#0x10]
        0x0001b586:    b90a        ..      CBNZ     r2,0x1b58c ; am_hal_mspi_highprio_transfer + 46
        0x0001b588:    694a        Ji      LDR      r2,[r1,#0x14]
        0x0001b58a:    b142        B.      CBZ      r2,0x1b59e ; am_hal_mspi_highprio_transfer + 64
        0x0001b58c:    2006        .       MOVS     r0,#6
        0x0001b58e:    e8bd81f0    ....    POP      {r4-r8,pc}
        0x0001b592:    2002        .       MOVS     r0,#2
        0x0001b594:    e8bd81f0    ....    POP      {r4-r8,pc}
        0x0001b598:    2007        .       MOVS     r0,#7
        0x0001b59a:    e8bd81f0    ....    POP      {r4-r8,pc}
        0x0001b59e:    f8d02840    ..@(    LDR      r2,[r0,#0x840]
        0x0001b5a2:    f8d0c848    ..H.    LDR      r12,[r0,#0x848]
        0x0001b5a6:    4562        bE      CMP      r2,r12
        0x0001b5a8:    bf04        ..      ITT      EQ
        0x0001b5aa:    2005        .       MOVEQ    r0,#5
        0x0001b5ac:    e8bd81f0    ....    POPEQ    {r4-r8,pc}
        0x0001b5b0:    f8d0284c    ..L(    LDR      r2,[r0,#0x84c]
        0x0001b5b4:    68ce        .h      LDR      r6,[r1,#0xc]
        0x0001b5b6:    fbb2f5fc    ....    UDIV     r5,r2,r12
        0x0001b5ba:    9c06        ..      LDR      r4,[sp,#0x18]
        0x0001b5bc:    fb05251c    ...%    MLS      r5,r5,r12,r2
        0x0001b5c0:    f8d08838    ..8.    LDR      r8,[r0,#0x838]
        0x0001b5c4:    eb050545    ..E.    ADD      r5,r5,r5,LSL #1
        0x0001b5c8:    eb0e07c5    ....    ADD      r7,lr,r5,LSL #3
        0x0001b5cc:    f84e6035    N.5`    STR      r6,[lr,r5,LSL #3]
        0x0001b5d0:    e9d15601    ...V    LDRD     r5,r6,[r1,#4]
        0x0001b5d4:    f1070c0c    ....    ADD      r12,r7,#0xc
        0x0001b5d8:    e9c76501    ...e    STRD     r6,r5,[r7,#4]
        0x0001b5dc:    780e        .x      LDRB     r6,[r1,#0]
        0x0001b5de:    7849        Ix      LDRB     r1,[r1,#1]
        0x0001b5e0:    2504        .%      MOVS     r5,#4
        0x0001b5e2:    ea050181    ....    AND      r1,r5,r1,LSL #2
        0x0001b5e6:    f3661105    f...    BFI      r1,r6,#4,#2
        0x0001b5ea:    3103        .1      ADDS     r1,#3
        0x0001b5ec:    e88c001a    ....    STM      r12,{r1,r3,r4}
        0x0001b5f0:    1c51        Q.      ADDS     r1,r2,#1
        0x0001b5f2:    f1b80f00    ....    CMP      r8,#0
        0x0001b5f6:    f8c0184c    ..L.    STR      r1,[r0,#0x84c]
        0x0001b5fa:    d007        ..      BEQ      0x1b60c ; am_hal_mspi_highprio_transfer + 174
        0x0001b5fc:    f8d01844    ..D.    LDR      r1,[r0,#0x844]
        0x0001b600:    3101        .1      ADDS     r1,#1
        0x0001b602:    f8c01844    ..D.    STR      r1,[r0,#0x844]
        0x0001b606:    2000        .       MOVS     r0,#0
        0x0001b608:    e8bd81f0    ....    POP      {r4-r8,pc}
        0x0001b60c:    2101        .!      MOVS     r1,#1
        0x0001b60e:    e8bd41f0    ...A    POP      {r4-r8,lr}
        0x0001b612:    f003ba24    ..$.    B.W      sched_hiprio ; 0x1ea5e
    am_hal_mspi_initialize
        0x0001b616:    b580        ..      PUSH     {r7,lr}
        0x0001b618:    2802        .(      CMP      r0,#2
        0x0001b61a:    bf84        ..      ITT      HI
        0x0001b61c:    2005        .       MOVHI    r0,#5
        0x0001b61e:    bd80        ..      POPHI    {r7,pc}
        0x0001b620:    b1f9        ..      CBZ      r1,0x1b662 ; am_hal_mspi_initialize + 76
        0x0001b622:    f6427cdc    B..|    MOV      r12,#0x2fdc
        0x0001b626:    f44f6e0c    O..n    MOV      lr,#0x8c0
        0x0001b62a:    f2c10c00    ....    MOVT     r12,#0x1000
        0x0001b62e:    fb00f20e    ....    MUL      r2,r0,lr
        0x0001b632:    f85c2002    \..     LDR      r2,[r12,r2]
        0x0001b636:    01d3        ..      LSLS     r3,r2,#7
        0x0001b638:    bf44        D.      ITT      MI
        0x0001b63a:    2007        .       MOVMI    r0,#7
        0x0001b63c:    bd80        ..      POPMI    {r7,pc}
        0x0001b63e:    f64b63be    K..c    MOV      r3,#0xbebe
        0x0001b642:    fb00cc0e    ....    MLA      r12,r0,lr,r12
        0x0001b646:    f2c013be    ....    MOVT     r3,#0x1be
        0x0001b64a:    f3630218    c...    BFI      r2,r3,#0,#25
        0x0001b64e:    e9cc2000    ...     STRD     r2,r0,[r12,#0]
        0x0001b652:    2000        .       MOVS     r0,#0
        0x0001b654:    f88c000c    ....    STRB     r0,[r12,#0xc]
        0x0001b658:    f8cc0018    ....    STR      r0,[r12,#0x18]
        0x0001b65c:    f8c1c000    ....    STR      r12,[r1,#0]
        0x0001b660:    bd80        ..      POP      {r7,pc}
        0x0001b662:    2006        .       MOVS     r0,#6
        0x0001b664:    bd80        ..      POP      {r7,pc}
    am_hal_mspi_interrupt_clear
        0x0001b666:    b188        ..      CBZ      r0,0x1b68c ; am_hal_mspi_interrupt_clear + 38
        0x0001b668:    6802        .h      LDR      r2,[r0,#0]
        0x0001b66a:    f64b63be    K..c    MOV      r3,#0xbebe
        0x0001b66e:    f022427e    ".~B    BIC      r2,r2,#0xfe000000
        0x0001b672:    f2c013be    ....    MOVT     r3,#0x1be
        0x0001b676:    429a        .B      CMP      r2,r3
        0x0001b678:    d108        ..      BNE      0x1b68c ; am_hal_mspi_interrupt_clear + 38
        0x0001b67a:    6840        @h      LDR      r0,[r0,#4]
        0x0001b67c:    f2402208    @.."    MOVW     r2,#0x208
        0x0001b680:    0300        ..      LSLS     r0,r0,#12
        0x0001b682:    f2c40206    ....    MOVT     r2,#0x4006
        0x0001b686:    5011        .P      STR      r1,[r2,r0]
        0x0001b688:    2000        .       MOVS     r0,#0
        0x0001b68a:    4770        pG      BX       lr
        0x0001b68c:    2002        .       MOVS     r0,#2
        0x0001b68e:    4770        pG      BX       lr
    am_hal_mspi_interrupt_disable
        0x0001b690:    b1a0        ..      CBZ      r0,0x1b6bc ; am_hal_mspi_interrupt_disable + 44
        0x0001b692:    6802        .h      LDR      r2,[r0,#0]
        0x0001b694:    f64b63be    K..c    MOV      r3,#0xbebe
        0x0001b698:    f022427e    ".~B    BIC      r2,r2,#0xfe000000
        0x0001b69c:    f2c013be    ....    MOVT     r3,#0x1be
        0x0001b6a0:    429a        .B      CMP      r2,r3
        0x0001b6a2:    d10b        ..      BNE      0x1b6bc ; am_hal_mspi_interrupt_disable + 44
        0x0001b6a4:    6840        @h      LDR      r0,[r0,#4]
        0x0001b6a6:    f2402200    @.."    MOVW     r2,#0x200
        0x0001b6aa:    0300        ..      LSLS     r0,r0,#12
        0x0001b6ac:    f2c40206    ....    MOVT     r2,#0x4006
        0x0001b6b0:    5813        .X      LDR      r3,[r2,r0]
        0x0001b6b2:    ea230101    #...    BIC      r1,r3,r1
        0x0001b6b6:    5011        .P      STR      r1,[r2,r0]
        0x0001b6b8:    2000        .       MOVS     r0,#0
        0x0001b6ba:    4770        pG      BX       lr
        0x0001b6bc:    2002        .       MOVS     r0,#2
        0x0001b6be:    4770        pG      BX       lr
    am_hal_mspi_interrupt_enable
        0x0001b6c0:    b198        ..      CBZ      r0,0x1b6ea ; am_hal_mspi_interrupt_enable + 42
        0x0001b6c2:    6802        .h      LDR      r2,[r0,#0]
        0x0001b6c4:    f64b63be    K..c    MOV      r3,#0xbebe
        0x0001b6c8:    f022427e    ".~B    BIC      r2,r2,#0xfe000000
        0x0001b6cc:    f2c013be    ....    MOVT     r3,#0x1be
        0x0001b6d0:    429a        .B      CMP      r2,r3
        0x0001b6d2:    d10a        ..      BNE      0x1b6ea ; am_hal_mspi_interrupt_enable + 42
        0x0001b6d4:    6840        @h      LDR      r0,[r0,#4]
        0x0001b6d6:    f2402200    @.."    MOVW     r2,#0x200
        0x0001b6da:    0300        ..      LSLS     r0,r0,#12
        0x0001b6dc:    f2c40206    ....    MOVT     r2,#0x4006
        0x0001b6e0:    5813        .X      LDR      r3,[r2,r0]
        0x0001b6e2:    4319        .C      ORRS     r1,r1,r3
        0x0001b6e4:    5011        .P      STR      r1,[r2,r0]
        0x0001b6e6:    2000        .       MOVS     r0,#0
        0x0001b6e8:    4770        pG      BX       lr
        0x0001b6ea:    2002        .       MOVS     r0,#2
        0x0001b6ec:    4770        pG      BX       lr
        0x0001b6ee:    0000        ..      MOVS     r0,r0
    am_hal_mspi_interrupt_service
        0x0001b6f0:    e92d4ff0    -..O    PUSH     {r4-r11,lr}
        0x0001b6f4:    b085        ..      SUB      sp,sp,#0x14
        0x0001b6f6:    b3e0        ..      CBZ      r0,0x1b772 ; am_hal_mspi_interrupt_service + 130
        0x0001b6f8:    4604        .F      MOV      r4,r0
        0x0001b6fa:    6800        .h      LDR      r0,[r0,#0]
        0x0001b6fc:    460d        .F      MOV      r5,r1
        0x0001b6fe:    f64b61be    K..a    MOV      r1,#0xbebe
        0x0001b702:    f020407e     .~@    BIC      r0,r0,#0xfe000000
        0x0001b706:    f2c011be    ....    MOVT     r1,#0x1be
        0x0001b70a:    4288        .B      CMP      r0,r1
        0x0001b70c:    d131        1.      BNE      0x1b772 ; am_hal_mspi_interrupt_service + 130
        0x0001b70e:    6866        fh      LDR      r6,[r4,#4]
        0x0001b710:    f894083c    ..<.    LDRB     r0,[r4,#0x83c]
        0x0001b714:    b378        x.      CBZ      r0,0x1b776 ; am_hal_mspi_interrupt_service + 134
        0x0001b716:    6a60        `j      LDR      r0,[r4,#0x24]
        0x0001b718:    4328        (C      ORRS     r0,r0,r5
        0x0001b71a:    f4105fc6    ..._    TST      r0,#0x18c0
        0x0001b71e:    6260        `b      STR      r0,[r4,#0x24]
        0x0001b720:    f0008082    ....    BEQ.W    0x1b828 ; am_hal_mspi_interrupt_service + 312
        0x0001b724:    f2400800    @...    MOVW     r8,#0
        0x0001b728:    f2c40806    ....    MOVT     r8,#0x4006
        0x0001b72c:    eb083606    ...6    ADD      r6,r8,r6,LSL #12
        0x0001b730:    f8d61104    ....    LDR      r1,[r6,#0x104]
        0x0001b734:    07c9        ..      LSLS     r1,r1,#31
        0x0001b736:    d1fb        ..      BNE      0x1b730 ; am_hal_mspi_interrupt_service + 64
        0x0001b738:    f8d61204    ....    LDR      r1,[r6,#0x204]
        0x0001b73c:    4308        .C      ORRS     r0,r0,r1
        0x0001b73e:    6260        `b      STR      r0,[r4,#0x24]
        0x0001b740:    f04f30ff    O..0    MOV      r0,#0xffffffff
        0x0001b744:    f8c60208    ....    STR      r0,[r6,#0x208]
        0x0001b748:    8ca0        ..      LDRH     r0,[r4,#0x24]
        0x0001b74a:    f4105fc4    ..._    TST      r0,#0x1880
        0x0001b74e:    d06d        m.      BEQ      0x1b82c ; am_hal_mspi_interrupt_service + 316
        0x0001b750:    f8d60100    ....    LDR      r0,[r6,#0x100]
        0x0001b754:    f04f0901    O...    MOV      r9,#1
        0x0001b758:    f0200003     ...    BIC      r0,r0,#3
        0x0001b75c:    f8c60100    ....    STR      r0,[r6,#0x100]
        0x0001b760:    6b30        0k      LDR      r0,[r6,#0x30]
        0x0001b762:    f0204080     ..@    BIC      r0,r0,#0x40000000
        0x0001b766:    6330        0c      STR      r0,[r6,#0x30]
        0x0001b768:    6b30        0k      LDR      r0,[r6,#0x30]
        0x0001b76a:    f0404080    @..@    ORR      r0,r0,#0x40000000
        0x0001b76e:    6330        0c      STR      r0,[r6,#0x30]
        0x0001b770:    e05e        ^.      B        0x1b830 ; am_hal_mspi_interrupt_service + 320
        0x0001b772:    2002        .       MOVS     r0,#2
        0x0001b774:    e0b7        ..      B        0x1b8e6 ; am_hal_mspi_interrupt_service + 502
        0x0001b776:    6a20         j      LDR      r0,[r4,#0x20]
        0x0001b778:    2800        .(      CMP      r0,#0
        0x0001b77a:    d055        U.      BEQ      0x1b828 ; am_hal_mspi_interrupt_service + 312
        0x0001b77c:    6a60        `j      LDR      r0,[r4,#0x24]
        0x0001b77e:    f64271dc    B..q    MOV      r1,#0x2fdc
        0x0001b782:    f2c10100    ....    MOVT     r1,#0x1000
        0x0001b786:    f44f620c    O..b    MOV      r2,#0x8c0
        0x0001b78a:    fb061902    ....    MLA      r9,r6,r2,r1
        0x0001b78e:    4328        (C      ORRS     r0,r0,r5
        0x0001b790:    6260        `b      STR      r0,[r4,#0x24]
        0x0001b792:    f8d90828    ..(.    LDR      r0,[r9,#0x828]
        0x0001b796:    b3d0        ..      CBZ      r0,0x1b80e ; am_hal_mspi_interrupt_service + 286
        0x0001b798:    a901        ..      ADD      r1,sp,#4
        0x0001b79a:    f7fefa21    ..!.    BL       am_hal_cmdq_get_status ; 0x19be0
        0x0001b79e:    bbb0        ..      CBNZ     r0,0x1b80e ; am_hal_mspi_interrupt_service + 286
        0x0001b7a0:    2000        .       MOVS     r0,#0
        0x0001b7a2:    f8840834    ..4.    STRB     r0,[r4,#0x834]
        0x0001b7a6:    f8940834    ..4.    LDRB     r0,[r4,#0x834]
        0x0001b7aa:    bb60        `.      CBNZ     r0,0x1b806 ; am_hal_mspi_interrupt_service + 278
        0x0001b7ac:    f1040728    ..(.    ADD      r7,r4,#0x28
        0x0001b7b0:    f5046a85    ...j    ADD      r10,r4,#0x428
        0x0001b7b4:    f04f6b00    O..k    MOV      r11,#0x8000000
        0x0001b7b8:    69e0        .i      LDR      r0,[r4,#0x1c]
        0x0001b7ba:    9901        ..      LDR      r1,[sp,#4]
        0x0001b7bc:    4288        .B      CMP      r0,r1
        0x0001b7be:    d022        ".      BEQ      0x1b806 ; am_hal_mspi_interrupt_service + 278
        0x0001b7c0:    3001        .0      ADDS     r0,#1
        0x0001b7c2:    fa5ff880    _...    UXTB     r8,r0
        0x0001b7c6:    61e0        .a      STR      r0,[r4,#0x1c]
        0x0001b7c8:    f8570028    W.(.    LDR      r0,[r7,r8,LSL #2]
        0x0001b7cc:    6a21        !j      LDR      r1,[r4,#0x20]
        0x0001b7ce:    2800        .(      CMP      r0,#0
        0x0001b7d0:    f1a10001    ....    SUB      r0,r1,#1
        0x0001b7d4:    6220         b      STR      r0,[r4,#0x20]
        0x0001b7d6:    d012        ..      BEQ      0x1b7fe ; am_hal_mspi_interrupt_service + 270
        0x0001b7d8:    2001        .       MOVS     r0,#1
        0x0001b7da:    2100        .!      MOVS     r1,#0
        0x0001b7dc:    f7fefb94    ....    BL       am_hal_daxi_control ; 0x19f08
        0x0001b7e0:    6a61        aj      LDR      r1,[r4,#0x24]
        0x0001b7e2:    f8572028    W.(     LDR      r2,[r7,r8,LSL #2]
        0x0001b7e6:    f85a0028    Z.(.    LDR      r0,[r10,r8,LSL #2]
        0x0001b7ea:    ea0b5181    ...Q    AND      r1,r11,r1,LSL #22
        0x0001b7ee:    4790        .G      BLX      r2
        0x0001b7f0:    f894082c    ..,.    LDRB     r0,[r4,#0x82c]
        0x0001b7f4:    2802        .(      CMP      r0,#2
        0x0001b7f6:    bf1c        ..      ITT      NE
        0x0001b7f8:    2000        .       MOVNE    r0,#0
        0x0001b7fa:    f8470028    G.(.    STRNE    r0,[r7,r8,LSL #2]
        0x0001b7fe:    f8940834    ..4.    LDRB     r0,[r4,#0x834]
        0x0001b802:    2800        .(      CMP      r0,#0
        0x0001b804:    d0d8        ..      BEQ      0x1b7b8 ; am_hal_mspi_interrupt_service + 200
        0x0001b806:    f8940834    ..4.    LDRB     r0,[r4,#0x834]
        0x0001b80a:    2800        .(      CMP      r0,#0
        0x0001b80c:    d06e        n.      BEQ      0x1b8ec ; am_hal_mspi_interrupt_service + 508
        0x0001b80e:    6a20         j      LDR      r0,[r4,#0x20]
        0x0001b810:    b950        P.      CBNZ     r0,0x1b828 ; am_hal_mspi_interrupt_service + 312
        0x0001b812:    2000        .       MOVS     r0,#0
        0x0001b814:    f2c40006    ....    MOVT     r0,#0x4006
        0x0001b818:    eb003006    ...0    ADD      r0,r0,r6,LSL #12
        0x0001b81c:    f8d01100    ....    LDR      r1,[r0,#0x100]
        0x0001b820:    f0210103    !...    BIC      r1,r1,#3
        0x0001b824:    f8c01100    ....    STR      r1,[r0,#0x100]
        0x0001b828:    2000        .       MOVS     r0,#0
        0x0001b82a:    e05c        \.      B        0x1b8e6 ; am_hal_mspi_interrupt_service + 502
        0x0001b82c:    f04f0900    O...    MOV      r9,#0
        0x0001b830:    f8d42850    ..P(    LDR      r2,[r4,#0x850]
        0x0001b834:    f8d41848    ..H.    LDR      r1,[r4,#0x848]
        0x0001b838:    3201        .2      ADDS     r2,#1
        0x0001b83a:    fbb2f7f1    ....    UDIV     r7,r2,r1
        0x0001b83e:    f8d40840    ..@.    LDR      r0,[r4,#0x840]
        0x0001b842:    fb072111    ...!    MLS      r1,r7,r1,r2
        0x0001b846:    f8d43854    ..T8    LDR      r3,[r4,#0x854]
        0x0001b84a:    eb010141    ..A.    ADD      r1,r1,r1,LSL #1
        0x0001b84e:    3801        .8      SUBS     r0,#1
        0x0001b850:    eb0305c1    ....    ADD      r5,r3,r1,LSL #3
        0x0001b854:    f8c42850    ..P(    STR      r2,[r4,#0x850]
        0x0001b858:    f8c40840    ..@.    STR      r0,[r4,#0x840]
        0x0001b85c:    462f        /F      MOV      r7,r5
        0x0001b85e:    f8571f10    W...    LDR      r1,[r7,#0x10]!
        0x0001b862:    b169        i.      CBZ      r1,0x1b880 ; am_hal_mspi_interrupt_service + 400
        0x0001b864:    2001        .       MOVS     r0,#1
        0x0001b866:    2100        .!      MOVS     r1,#0
        0x0001b868:    f04f0a00    O...    MOV      r10,#0
        0x0001b86c:    f7fefb4c    ..L.    BL       am_hal_daxi_control ; 0x19f08
        0x0001b870:    683a        :h      LDR      r2,[r7,#0]
        0x0001b872:    6968        hi      LDR      r0,[r5,#0x14]
        0x0001b874:    4649        IF      MOV      r1,r9
        0x0001b876:    4790        .G      BLX      r2
        0x0001b878:    f8c7a000    ....    STR      r10,[r7,#0]
        0x0001b87c:    f8d40840    ..@.    LDR      r0,[r4,#0x840]
        0x0001b880:    b318        ..      CBZ      r0,0x1b8ca ; am_hal_mspi_interrupt_service + 474
        0x0001b882:    f8d42850    ..P(    LDR      r2,[r4,#0x850]
        0x0001b886:    f8d43848    ..H8    LDR      r3,[r4,#0x848]
        0x0001b88a:    3201        .2      ADDS     r2,#1
        0x0001b88c:    fbb2f7f3    ....    UDIV     r7,r2,r3
        0x0001b890:    6861        ah      LDR      r1,[r4,#4]
        0x0001b892:    fb072213    ..."    MLS      r2,r7,r3,r2
        0x0001b896:    2000        .       MOVS     r0,#0
        0x0001b898:    f8d46854    ..Th    LDR      r6,[r4,#0x854]
        0x0001b89c:    eb083101    ...1    ADD      r1,r8,r1,LSL #12
        0x0001b8a0:    6260        `b      STR      r0,[r4,#0x24]
        0x0001b8a2:    f8c10100    ....    STR      r0,[r1,#0x100]
        0x0001b8a6:    eb020242    ..B.    ADD      r2,r2,r2,LSL #1
        0x0001b8aa:    f8563032    V.20    LDR      r3,[r6,r2,LSL #3]
        0x0001b8ae:    eb0602c2    ....    ADD      r2,r6,r2,LSL #3
        0x0001b8b2:    f8c13108    ...1    STR      r3,[r1,#0x108]
        0x0001b8b6:    6853        Sh      LDR      r3,[r2,#4]
        0x0001b8b8:    f8c1310c    ...1    STR      r3,[r1,#0x10c]
        0x0001b8bc:    6893        .h      LDR      r3,[r2,#8]
        0x0001b8be:    f8c13110    ...1    STR      r3,[r1,#0x110]
        0x0001b8c2:    68d2        .h      LDR      r2,[r2,#0xc]
        0x0001b8c4:    f8c12100    ...!    STR      r2,[r1,#0x100]
        0x0001b8c8:    e00d        ..      B        0x1b8e6 ; am_hal_mspi_interrupt_service + 502
        0x0001b8ca:    2000        .       MOVS     r0,#0
        0x0001b8cc:    f884083c    ..<.    STRB     r0,[r4,#0x83c]
        0x0001b8d0:    f8c60100    ....    STR      r0,[r6,#0x100]
        0x0001b8d4:    f8d61200    ....    LDR      r1,[r6,#0x200]
        0x0001b8d8:    f0210140    !.@.    BIC      r1,r1,#0x40
        0x0001b8dc:    f8c61200    ....    STR      r1,[r6,#0x200]
        0x0001b8e0:    2180        .!      MOVS     r1,#0x80
        0x0001b8e2:    f8c612b4    ....    STR      r1,[r6,#0x2b4]
        0x0001b8e6:    b005        ..      ADD      sp,sp,#0x14
        0x0001b8e8:    e8bd8ff0    ....    POP      {r4-r11,pc}
        0x0001b8ec:    f4155fc4    ..._    TST      r5,#0x1880
        0x0001b8f0:    d103        ..      BNE      0x1b8fa ; am_hal_mspi_interrupt_service + 522
        0x0001b8f2:    f89d0012    ....    LDRB     r0,[sp,#0x12]
        0x0001b8f6:    2800        .(      CMP      r0,#0
        0x0001b8f8:    d04b        K.      BEQ      0x1b992 ; am_hal_mspi_interrupt_service + 674
        0x0001b8fa:    69e0        .i      LDR      r0,[r4,#0x1c]
        0x0001b8fc:    f1040728    ..(.    ADD      r7,r4,#0x28
        0x0001b900:    3001        .0      ADDS     r0,#1
        0x0001b902:    b2c5        ..      UXTB     r5,r0
        0x0001b904:    61e0        .a      STR      r0,[r4,#0x1c]
        0x0001b906:    f8570025    W.%.    LDR      r0,[r7,r5,LSL #2]
        0x0001b90a:    6a21        !j      LDR      r1,[r4,#0x20]
        0x0001b90c:    2800        .(      CMP      r0,#0
        0x0001b90e:    f1a10001    ....    SUB      r0,r1,#1
        0x0001b912:    6220         b      STR      r0,[r4,#0x20]
        0x0001b914:    d013        ..      BEQ      0x1b93e ; am_hal_mspi_interrupt_service + 590
        0x0001b916:    2001        .       MOVS     r0,#1
        0x0001b918:    2100        .!      MOVS     r1,#0
        0x0001b91a:    f04f0800    O...    MOV      r8,#0
        0x0001b91e:    f7fefaf3    ....    BL       am_hal_daxi_control ; 0x19f08
        0x0001b922:    eb040085    ....    ADD      r0,r4,r5,LSL #2
        0x0001b926:    f8572025    W.%     LDR      r2,[r7,r5,LSL #2]
        0x0001b92a:    f8d00428    ..(.    LDR      r0,[r0,#0x428]
        0x0001b92e:    2101        .!      MOVS     r1,#1
        0x0001b930:    4790        .G      BLX      r2
        0x0001b932:    f894082c    ..,.    LDRB     r0,[r4,#0x82c]
        0x0001b936:    2802        .(      CMP      r0,#2
        0x0001b938:    bf18        ..      IT       NE
        0x0001b93a:    f8478025    G.%.    STRNE    r8,[r7,r5,LSL #2]
        0x0001b93e:    f8d40828    ..(.    LDR      r0,[r4,#0x828]
        0x0001b942:    f7fef8da    ....    BL       am_hal_cmdq_disable ; 0x19afa
        0x0001b946:    2800        .(      CMP      r0,#0
        0x0001b948:    d1cd        ..      BNE      0x1b8e6 ; am_hal_mspi_interrupt_service + 502
        0x0001b94a:    2000        .       MOVS     r0,#0
        0x0001b94c:    f2c40006    ....    MOVT     r0,#0x4006
        0x0001b950:    eb003006    ...0    ADD      r0,r0,r6,LSL #12
        0x0001b954:    f8d01100    ....    LDR      r1,[r0,#0x100]
        0x0001b958:    f6090228    ..(.    ADD      r2,r9,#0x828
        0x0001b95c:    f0210103    !...    BIC      r1,r1,#3
        0x0001b960:    f8c01100    ....    STR      r1,[r0,#0x100]
        0x0001b964:    6b01        .k      LDR      r1,[r0,#0x30]
        0x0001b966:    f0214180    !..A    BIC      r1,r1,#0x40000000
        0x0001b96a:    6301        .c      STR      r1,[r0,#0x30]
        0x0001b96c:    6b01        .k      LDR      r1,[r0,#0x30]
        0x0001b96e:    f0414180    A..A    ORR      r1,r1,#0x40000000
        0x0001b972:    6301        .c      STR      r1,[r0,#0x30]
        0x0001b974:    f8d012ac    ....    LDR      r1,[r0,#0x2ac]
        0x0001b978:    f8c012ac    ....    STR      r1,[r0,#0x2ac]
        0x0001b97c:    6810        .h      LDR      r0,[r2,#0]
        0x0001b97e:    f7fef8fd    ....    BL       am_hal_cmdq_error_resume ; 0x19b7c
        0x0001b982:    6a20         j      LDR      r0,[r4,#0x20]
        0x0001b984:    b148        H.      CBZ      r0,0x1b99a ; am_hal_mspi_interrupt_service + 682
        0x0001b986:    f8d40828    ..(.    LDR      r0,[r4,#0x828]
        0x0001b98a:    f7fef8d0    ....    BL       am_hal_cmdq_enable ; 0x19b2e
        0x0001b98e:    2800        .(      CMP      r0,#0
        0x0001b990:    d1a9        ..      BNE      0x1b8e6 ; am_hal_mspi_interrupt_service + 502
        0x0001b992:    6a20         j      LDR      r0,[r4,#0x20]
        0x0001b994:    2800        .(      CMP      r0,#0
        0x0001b996:    f47faf47    ..G.    BNE      0x1b828 ; am_hal_mspi_interrupt_service + 312
        0x0001b99a:    f8d40828    ..(.    LDR      r0,[r4,#0x828]
        0x0001b99e:    f7fef8ac    ....    BL       am_hal_cmdq_disable ; 0x19afa
        0x0001b9a2:    2800        .(      CMP      r0,#0
        0x0001b9a4:    d19f        ..      BNE      0x1b8e6 ; am_hal_mspi_interrupt_service + 502
        0x0001b9a6:    e732        2.      B        0x1b80e ; am_hal_mspi_interrupt_service + 286
    am_hal_mspi_interrupt_status_get
        0x0001b9a8:    b1e8        ..      CBZ      r0,0x1b9e6 ; am_hal_mspi_interrupt_status_get + 62
        0x0001b9aa:    6803        .h      LDR      r3,[r0,#0]
        0x0001b9ac:    f0234c7e    #.~L    BIC      r12,r3,#0xfe000000
        0x0001b9b0:    f64b63be    K..c    MOV      r3,#0xbebe
        0x0001b9b4:    f2c013be    ....    MOVT     r3,#0x1be
        0x0001b9b8:    459c        .E      CMP      r12,r3
        0x0001b9ba:    d114        ..      BNE      0x1b9e6 ; am_hal_mspi_interrupt_status_get + 62
        0x0001b9bc:    6843        Ch      LDR      r3,[r0,#4]
        0x0001b9be:    f2402004    @..     MOVW     r0,#0x204
        0x0001b9c2:    ea4f3c03    O..<    LSL      r12,r3,#12
        0x0001b9c6:    f2c40006    ....    MOVT     r0,#0x4006
        0x0001b9ca:    f850000c    P...    LDR      r0,[r0,r12]
        0x0001b9ce:    b13a        :.      CBZ      r2,0x1b9e0 ; am_hal_mspi_interrupt_status_get + 56
        0x0001b9d0:    2200        ."      MOVS     r2,#0
        0x0001b9d2:    f2c40206    ....    MOVT     r2,#0x4006
        0x0001b9d6:    eb023203    ...2    ADD      r2,r2,r3,LSL #12
        0x0001b9da:    f8d22200    ..."    LDR      r2,[r2,#0x200]
        0x0001b9de:    4010        .@      ANDS     r0,r0,r2
        0x0001b9e0:    6008        .`      STR      r0,[r1,#0]
        0x0001b9e2:    2000        .       MOVS     r0,#0
        0x0001b9e4:    4770        pG      BX       lr
        0x0001b9e6:    2002        .       MOVS     r0,#2
        0x0001b9e8:    4770        pG      BX       lr
    am_hal_mspi_nonblocking_transfer
        0x0001b9ea:    e92d43f0    -..C    PUSH     {r4-r9,lr}
        0x0001b9ee:    b083        ..      SUB      sp,sp,#0xc
        0x0001b9f0:    b190        ..      CBZ      r0,0x1ba18 ; am_hal_mspi_nonblocking_transfer + 46
        0x0001b9f2:    4604        .F      MOV      r4,r0
        0x0001b9f4:    6800        .h      LDR      r0,[r0,#0]
        0x0001b9f6:    460f        .F      MOV      r7,r1
        0x0001b9f8:    f64b61be    K..a    MOV      r1,#0xbebe
        0x0001b9fc:    f020407e     .~@    BIC      r0,r0,#0xfe000000
        0x0001ba00:    f2c011be    ....    MOVT     r1,#0x1be
        0x0001ba04:    4288        .B      CMP      r0,r1
        0x0001ba06:    d107        ..      BNE      0x1ba18 ; am_hal_mspi_nonblocking_transfer + 46
        0x0001ba08:    69a0        .i      LDR      r0,[r4,#0x18]
        0x0001ba0a:    b118        ..      CBZ      r0,0x1ba14 ; am_hal_mspi_nonblocking_transfer + 42
        0x0001ba0c:    f894082c    ..,.    LDRB     r0,[r4,#0x82c]
        0x0001ba10:    2802        .(      CMP      r0,#2
        0x0001ba12:    d106        ..      BNE      0x1ba22 ; am_hal_mspi_nonblocking_transfer + 56
        0x0001ba14:    2607        .&      MOVS     r6,#7
        0x0001ba16:    e000        ..      B        0x1ba1a ; am_hal_mspi_nonblocking_transfer + 48
        0x0001ba18:    2602        .&      MOVS     r6,#2
        0x0001ba1a:    4630        0F      MOV      r0,r6
        0x0001ba1c:    b003        ..      ADD      sp,sp,#0xc
        0x0001ba1e:    e8bd83f0    ....    POP      {r4-r9,pc}
        0x0001ba22:    6a21        !j      LDR      r1,[r4,#0x20]
        0x0001ba24:    b911        ..      CBNZ     r1,0x1ba2c ; am_hal_mspi_nonblocking_transfer + 66
        0x0001ba26:    f8d41840    ..@.    LDR      r1,[r4,#0x840]
        0x0001ba2a:    b109        ..      CBZ      r1,0x1ba30 ; am_hal_mspi_nonblocking_transfer + 70
        0x0001ba2c:    2603        .&      MOVS     r6,#3
        0x0001ba2e:    e7f4        ..      B        0x1ba1a ; am_hal_mspi_nonblocking_transfer + 48
        0x0001ba30:    4698        .F      MOV      r8,r3
        0x0001ba32:    4615        .F      MOV      r5,r2
        0x0001ba34:    2100        .!      MOVS     r1,#0
        0x0001ba36:    4699        .F      MOV      r9,r3
        0x0001ba38:    6261        ab      STR      r1,[r4,#0x24]
        0x0001ba3a:    b99b        ..      CBNZ     r3,0x1ba64 ; am_hal_mspi_nonblocking_transfer + 122
        0x0001ba3c:    f8d42838    ..8(    LDR      r2,[r4,#0x838]
        0x0001ba40:    4310        .C      ORRS     r0,r0,r2
        0x0001ba42:    d10d        ..      BNE      0x1ba60 ; am_hal_mspi_nonblocking_transfer + 118
        0x0001ba44:    f8d40858    ..X.    LDR      r0,[r4,#0x858]
        0x0001ba48:    f8d4285c    ..\(    LDR      r2,[r4,#0x85c]
        0x0001ba4c:    f24e5983    N..Y    MOV      r9,#0xe583
        0x0001ba50:    f2c00901    ....    MOVT     r9,#1
        0x0001ba54:    ebb20f50    ..P.    CMP      r2,r0,LSR #1
        0x0001ba58:    bf38        8.      IT       CC
        0x0001ba5a:    f04f0900    O...    MOVCC    r9,#0
        0x0001ba5e:    e001        ..      B        0x1ba64 ; am_hal_mspi_nonblocking_transfer + 122
        0x0001ba60:    f04f0900    O...    MOV      r9,#0
        0x0001ba64:    2d01        .-      CMP      r5,#1
        0x0001ba66:    bf08        ..      IT       EQ
        0x0001ba68:    210a        .!      MOVEQ    r1,#0xa
        0x0001ba6a:    f8d40828    ..(.    LDR      r0,[r4,#0x828]
        0x0001ba6e:    aa02        ..      ADD      r2,sp,#8
        0x0001ba70:    ab01        ..      ADD      r3,sp,#4
        0x0001ba72:    2d00        .-      CMP      r5,#0
        0x0001ba74:    bf08        ..      IT       EQ
        0x0001ba76:    2103        .!      MOVEQ    r1,#3
        0x0001ba78:    f7fdfff2    ....    BL       am_hal_cmdq_alloc_block ; 0x19a60
        0x0001ba7c:    4606        .F      MOV      r6,r0
        0x0001ba7e:    2800        .(      CMP      r0,#0
        0x0001ba80:    d1cb        ..      BNE      0x1ba1a ; am_hal_mspi_nonblocking_transfer + 48
        0x0001ba82:    9a02        ..      LDR      r2,[sp,#8]
        0x0001ba84:    4620         F      MOV      r0,r4
        0x0001ba86:    4629        )F      MOV      r1,r5
        0x0001ba88:    463b        ;F      MOV      r3,r7
        0x0001ba8a:    f001fe3b    ..;.    BL       build_dma_cmdlist ; 0x1d704
        0x0001ba8e:    b128        (.      CBZ      r0,0x1ba9c ; am_hal_mspi_nonblocking_transfer + 178
        0x0001ba90:    4606        .F      MOV      r6,r0
        0x0001ba92:    f8d40828    ..(.    LDR      r0,[r4,#0x828]
        0x0001ba96:    f7fef99c    ....    BL       am_hal_cmdq_release_block ; 0x19dd2
        0x0001ba9a:    e7be        ..      B        0x1ba1a ; am_hal_mspi_nonblocking_transfer + 48
        0x0001ba9c:    f89d0004    ....    LDRB     r0,[sp,#4]
        0x0001baa0:    990a        ..      LDR      r1,[sp,#0x28]
        0x0001baa2:    eb040080    ....    ADD      r0,r4,r0,LSL #2
        0x0001baa6:    f8c09028    ..(.    STR      r9,[r0,#0x28]
        0x0001baaa:    f8c01428    ..(.    STR      r1,[r0,#0x428]
        0x0001baae:    f7fefc61    ..a.    BL       am_hal_interrupt_master_disable ; 0x1a374
        0x0001bab2:    4606        .F      MOV      r6,r0
        0x0001bab4:    f8d40828    ..(.    LDR      r0,[r4,#0x828]
        0x0001bab8:    4649        IF      MOV      r1,r9
        0x0001baba:    f1b90f00    ....    CMP      r9,#0
        0x0001babe:    bf18        ..      IT       NE
        0x0001bac0:    2101        .!      MOVNE    r1,#1
        0x0001bac2:    f7fef920    .. .    BL       am_hal_cmdq_post_block ; 0x19d06
        0x0001bac6:    4605        .F      MOV      r5,r0
        0x0001bac8:    b138        8.      CBZ      r0,0x1bada ; am_hal_mspi_nonblocking_transfer + 240
        0x0001baca:    4630        0F      MOV      r0,r6
        0x0001bacc:    f7fefc5a    ..Z.    BL       am_hal_interrupt_master_set ; 0x1a384
        0x0001bad0:    f8d40828    ..(.    LDR      r0,[r4,#0x828]
        0x0001bad4:    f7fef97d    ..}.    BL       am_hal_cmdq_release_block ; 0x19dd2
        0x0001bad8:    e01c        ..      B        0x1bb14 ; am_hal_mspi_nonblocking_transfer + 298
        0x0001bada:    6a27        'j      LDR      r7,[r4,#0x20]
        0x0001badc:    f8d41830    ..0.    LDR      r1,[r4,#0x830]
        0x0001bae0:    1c78        x.      ADDS     r0,r7,#1
        0x0001bae2:    6220         b      STR      r0,[r4,#0x20]
        0x0001bae4:    1c48        H.      ADDS     r0,r1,#1
        0x0001bae6:    f1b80f00    ....    CMP      r8,#0
        0x0001baea:    f8c40830    ..0.    STR      r0,[r4,#0x830]
        0x0001baee:    d003        ..      BEQ      0x1baf8 ; am_hal_mspi_nonblocking_transfer + 270
        0x0001baf0:    2000        .       MOVS     r0,#0
        0x0001baf2:    f884082d    ..-.    STRB     r0,[r4,#0x82d]
        0x0001baf6:    e007        ..      B        0x1bb08 ; am_hal_mspi_nonblocking_transfer + 286
        0x0001baf8:    f1b90f00    ....    CMP      r9,#0
        0x0001bafc:    d001        ..      BEQ      0x1bb02 ; am_hal_mspi_nonblocking_transfer + 280
        0x0001bafe:    2000        .       MOVS     r0,#0
        0x0001bb00:    e002        ..      B        0x1bb08 ; am_hal_mspi_nonblocking_transfer + 286
        0x0001bb02:    f8d4085c    ..\.    LDR      r0,[r4,#0x85c]
        0x0001bb06:    3001        .0      ADDS     r0,#1
        0x0001bb08:    f8c4085c    ..\.    STR      r0,[r4,#0x85c]
        0x0001bb0c:    4630        0F      MOV      r0,r6
        0x0001bb0e:    f7fefc39    ..9.    BL       am_hal_interrupt_master_set ; 0x1a384
        0x0001bb12:    b10f        ..      CBZ      r7,0x1bb18 ; am_hal_mspi_nonblocking_transfer + 302
        0x0001bb14:    462e        .F      MOV      r6,r5
        0x0001bb16:    e780        ..      B        0x1ba1a ; am_hal_mspi_nonblocking_transfer + 48
        0x0001bb18:    f8d40828    ..(.    LDR      r0,[r4,#0x828]
        0x0001bb1c:    f7fef807    ....    BL       am_hal_cmdq_enable ; 0x19b2e
        0x0001bb20:    4606        .F      MOV      r6,r0
        0x0001bb22:    2800        .(      CMP      r0,#0
        0x0001bb24:    bf08        ..      IT       EQ
        0x0001bb26:    462e        .F      MOVEQ    r6,r5
        0x0001bb28:    e777        w.      B        0x1ba1a ; am_hal_mspi_nonblocking_transfer + 48
    am_hal_mspi_power_control
        0x0001bb2a:    b570        p.      PUSH     {r4-r6,lr}
        0x0001bb2c:    b082        ..      SUB      sp,sp,#8
        0x0001bb2e:    b1b0        ..      CBZ      r0,0x1bb5e ; am_hal_mspi_power_control + 52
        0x0001bb30:    4604        .F      MOV      r4,r0
        0x0001bb32:    6800        .h      LDR      r0,[r0,#0]
        0x0001bb34:    f64b66be    K..f    MOV      r6,#0xbebe
        0x0001bb38:    4615        .F      MOV      r5,r2
        0x0001bb3a:    f2c016be    ....    MOVT     r6,#0x1be
        0x0001bb3e:    f020427e     .~B    BIC      r2,r0,#0xfe000000
        0x0001bb42:    42b2        .B      CMP      r2,r6
        0x0001bb44:    d10b        ..      BNE      0x1bb5e ; am_hal_mspi_power_control + 52
        0x0001bb46:    1e4a        J.      SUBS     r2,r1,#1
        0x0001bb48:    2a02        .*      CMP      r2,#2
        0x0001bb4a:    d20b        ..      BCS      0x1bb64 ; am_hal_mspi_power_control + 58
        0x0001bb4c:    f8d41840    ..@.    LDR      r1,[r4,#0x840]
        0x0001bb50:    b919        ..      CBNZ     r1,0x1bb5a ; am_hal_mspi_power_control + 48
        0x0001bb52:    6a21        !j      LDR      r1,[r4,#0x20]
        0x0001bb54:    2900        .)      CMP      r1,#0
        0x0001bb56:    f00080c5    ....    BEQ.W    0x1bce4 ; am_hal_mspi_power_control + 442
        0x0001bb5a:    2003        .       MOVS     r0,#3
        0x0001bb5c:    e000        ..      B        0x1bb60 ; am_hal_mspi_power_control + 54
        0x0001bb5e:    2002        .       MOVS     r0,#2
        0x0001bb60:    b002        ..      ADD      sp,sp,#8
        0x0001bb62:    bd70        p.      POP      {r4-r6,pc}
        0x0001bb64:    2900        .)      CMP      r1,#0
        0x0001bb66:    f04080bb    @...    BNE.W    0x1bce0 ; am_hal_mspi_power_control + 438
        0x0001bb6a:    b125        %.      CBZ      r5,0x1bb76 ; am_hal_mspi_power_control + 76
        0x0001bb6c:    f8940860    ..`.    LDRB     r0,[r4,#0x860]
        0x0001bb70:    2800        .(      CMP      r0,#0
        0x0001bb72:    f000814f    ..O.    BEQ.W    0x1be14 ; am_hal_mspi_power_control + 746
        0x0001bb76:    7920         y      LDRB     r0,[r4,#4]
        0x0001bb78:    300e        .0      ADDS     r0,r0,#0xe
        0x0001bb7a:    b2c0        ..      UXTB     r0,r0
        0x0001bb7c:    f000fcaa    ....    BL       am_hal_pwrctrl_periph_enable ; 0x1c4d4
        0x0001bb80:    2d00        .-      CMP      r5,#0
        0x0001bb82:    f0008145    ..E.    BEQ.W    0x1be10 ; am_hal_mspi_power_control + 742
        0x0001bb86:    6862        bh      LDR      r2,[r4,#4]
        0x0001bb88:    2000        .       MOVS     r0,#0
        0x0001bb8a:    f8d41864    ..d.    LDR      r1,[r4,#0x864]
        0x0001bb8e:    f2c40006    ....    MOVT     r0,#0x4006
        0x0001bb92:    eb003202    ...2    ADD      r2,r0,r2,LSL #12
        0x0001bb96:    f8c21080    ....    STR      r1,[r2,#0x80]
        0x0001bb9a:    6861        ah      LDR      r1,[r4,#4]
        0x0001bb9c:    f8d42868    ..h(    LDR      r2,[r4,#0x868]
        0x0001bba0:    eb003101    ...1    ADD      r1,r0,r1,LSL #12
        0x0001bba4:    f8c12084    ...     STR      r2,[r1,#0x84]
        0x0001bba8:    6861        ah      LDR      r1,[r4,#4]
        0x0001bbaa:    f8d4286c    ..l(    LDR      r2,[r4,#0x86c]
        0x0001bbae:    eb003101    ...1    ADD      r1,r0,r1,LSL #12
        0x0001bbb2:    f8c12088    ...     STR      r2,[r1,#0x88]
        0x0001bbb6:    6861        ah      LDR      r1,[r4,#4]
        0x0001bbb8:    f8d42870    ..p(    LDR      r2,[r4,#0x870]
        0x0001bbbc:    eb003101    ...1    ADD      r1,r0,r1,LSL #12
        0x0001bbc0:    f8c12090    ...     STR      r2,[r1,#0x90]
        0x0001bbc4:    6861        ah      LDR      r1,[r4,#4]
        0x0001bbc6:    f8d42874    ..t(    LDR      r2,[r4,#0x874]
        0x0001bbca:    eb003101    ...1    ADD      r1,r0,r1,LSL #12
        0x0001bbce:    f8c12094    ...     STR      r2,[r1,#0x94]
        0x0001bbd2:    6861        ah      LDR      r1,[r4,#4]
        0x0001bbd4:    f8d42878    ..x(    LDR      r2,[r4,#0x878]
        0x0001bbd8:    eb003101    ...1    ADD      r1,r0,r1,LSL #12
        0x0001bbdc:    f8c12098    ...     STR      r2,[r1,#0x98]
        0x0001bbe0:    6861        ah      LDR      r1,[r4,#4]
        0x0001bbe2:    f8d4287c    ..|(    LDR      r2,[r4,#0x87c]
        0x0001bbe6:    eb003101    ...1    ADD      r1,r0,r1,LSL #12
        0x0001bbea:    f8c1209c    ...     STR      r2,[r1,#0x9c]
        0x0001bbee:    6861        ah      LDR      r1,[r4,#4]
        0x0001bbf0:    f8d42880    ...(    LDR      r2,[r4,#0x880]
        0x0001bbf4:    eb003101    ...1    ADD      r1,r0,r1,LSL #12
        0x0001bbf8:    f8c120a0    ...     STR      r2,[r1,#0xa0]
        0x0001bbfc:    6861        ah      LDR      r1,[r4,#4]
        0x0001bbfe:    f8d42884    ...(    LDR      r2,[r4,#0x884]
        0x0001bc02:    eb003101    ...1    ADD      r1,r0,r1,LSL #12
        0x0001bc06:    630a        .c      STR      r2,[r1,#0x30]
        0x0001bc08:    6861        ah      LDR      r1,[r4,#4]
        0x0001bc0a:    f8d42888    ...(    LDR      r2,[r4,#0x888]
        0x0001bc0e:    eb003101    ...1    ADD      r1,r0,r1,LSL #12
        0x0001bc12:    644a        Jd      STR      r2,[r1,#0x44]
        0x0001bc14:    6861        ah      LDR      r1,[r4,#4]
        0x0001bc16:    f8d4288c    ...(    LDR      r2,[r4,#0x88c]
        0x0001bc1a:    eb003101    ...1    ADD      r1,r0,r1,LSL #12
        0x0001bc1e:    648a        .d      STR      r2,[r1,#0x48]
        0x0001bc20:    6861        ah      LDR      r1,[r4,#4]
        0x0001bc22:    f8d42890    ...(    LDR      r2,[r4,#0x890]
        0x0001bc26:    eb003101    ...1    ADD      r1,r0,r1,LSL #12
        0x0001bc2a:    64ca        .d      STR      r2,[r1,#0x4c]
        0x0001bc2c:    6861        ah      LDR      r1,[r4,#4]
        0x0001bc2e:    f8d42898    ...(    LDR      r2,[r4,#0x898]
        0x0001bc32:    eb003101    ...1    ADD      r1,r0,r1,LSL #12
        0x0001bc36:    f8c122a8    ..."    STR      r2,[r1,#0x2a8]
        0x0001bc3a:    6861        ah      LDR      r1,[r4,#4]
        0x0001bc3c:    f8d4289c    ...(    LDR      r2,[r4,#0x89c]
        0x0001bc40:    eb003101    ...1    ADD      r1,r0,r1,LSL #12
        0x0001bc44:    f8c122b8    ..."    STR      r2,[r1,#0x2b8]
        0x0001bc48:    6861        ah      LDR      r1,[r4,#4]
        0x0001bc4a:    f8d428a0    ...(    LDR      r2,[r4,#0x8a0]
        0x0001bc4e:    eb003101    ...1    ADD      r1,r0,r1,LSL #12
        0x0001bc52:    f8c122c0    ..."    STR      r2,[r1,#0x2c0]
        0x0001bc56:    6861        ah      LDR      r1,[r4,#4]
        0x0001bc58:    f8d428a4    ...(    LDR      r2,[r4,#0x8a4]
        0x0001bc5c:    eb003101    ...1    ADD      r1,r0,r1,LSL #12
        0x0001bc60:    f8c122c4    ..."    STR      r2,[r1,#0x2c4]
        0x0001bc64:    6861        ah      LDR      r1,[r4,#4]
        0x0001bc66:    f8d428a8    ...(    LDR      r2,[r4,#0x8a8]
        0x0001bc6a:    eb003101    ...1    ADD      r1,r0,r1,LSL #12
        0x0001bc6e:    f8c12200    ..."    STR      r2,[r1,#0x200]
        0x0001bc72:    6861        ah      LDR      r1,[r4,#4]
        0x0001bc74:    f89428ac    ...(    LDRB     r2,[r4,#0x8ac]
        0x0001bc78:    eb003101    ...1    ADD      r1,r0,r1,LSL #12
        0x0001bc7c:    f8c122b4    ..."    STR      r2,[r1,#0x2b4]
        0x0001bc80:    6861        ah      LDR      r1,[r4,#4]
        0x0001bc82:    f8d428b0    ...(    LDR      r2,[r4,#0x8b0]
        0x0001bc86:    eb003101    ...1    ADD      r1,r0,r1,LSL #12
        0x0001bc8a:    f8c12114    ...!    STR      r2,[r1,#0x114]
        0x0001bc8e:    6861        ah      LDR      r1,[r4,#4]
        0x0001bc90:    f8d428b4    ...(    LDR      r2,[r4,#0x8b4]
        0x0001bc94:    eb003101    ...1    ADD      r1,r0,r1,LSL #12
        0x0001bc98:    f8c12118    ...!    STR      r2,[r1,#0x118]
        0x0001bc9c:    6861        ah      LDR      r1,[r4,#4]
        0x0001bc9e:    f8d428b8    ...(    LDR      r2,[r4,#0x8b8]
        0x0001bca2:    eb003101    ...1    ADD      r1,r0,r1,LSL #12
        0x0001bca6:    620a        .b      STR      r2,[r1,#0x20]
        0x0001bca8:    f8d41894    ....    LDR      r1,[r4,#0x894]
        0x0001bcac:    6862        bh      LDR      r2,[r4,#4]
        0x0001bcae:    f0210101    !...    BIC      r1,r1,#1
        0x0001bcb2:    eb003002    ...0    ADD      r0,r0,r2,LSL #12
        0x0001bcb6:    f8c012a0    ....    STR      r1,[r0,#0x2a0]
        0x0001bcba:    f8d41870    ..p.    LDR      r1,[r4,#0x870]
        0x0001bcbe:    6860        `h      LDR      r0,[r4,#4]
        0x0001bcc0:    f0010101    ....    AND      r1,r1,#1
        0x0001bcc4:    f003f8ab    ....    BL       update_mspixip_state ; 0x1ee1e
        0x0001bcc8:    f8940894    ....    LDRB     r0,[r4,#0x894]
        0x0001bccc:    07c0        ..      LSLS     r0,r0,#31
        0x0001bcce:    d003        ..      BEQ      0x1bcd8 ; am_hal_mspi_power_control + 430
        0x0001bcd0:    f8d40828    ..(.    LDR      r0,[r4,#0x828]
        0x0001bcd4:    f7fdff2b    ..+.    BL       am_hal_cmdq_enable ; 0x19b2e
        0x0001bcd8:    2000        .       MOVS     r0,#0
        0x0001bcda:    f8840860    ..`.    STRB     r0,[r4,#0x860]
        0x0001bcde:    e73f        ?.      B        0x1bb60 ; am_hal_mspi_power_control + 54
        0x0001bce0:    2006        .       MOVS     r0,#6
        0x0001bce2:    e73d        =.      B        0x1bb60 ; am_hal_mspi_power_control + 54
        0x0001bce4:    2d00        .-      CMP      r5,#0
        0x0001bce6:    f2400500    @...    MOVW     r5,#0
        0x0001bcea:    f2c40506    ....    MOVT     r5,#0x4006
        0x0001bcee:    d061        a.      BEQ      0x1bdb4 ; am_hal_mspi_power_control + 650
        0x0001bcf0:    6860        `h      LDR      r0,[r4,#4]
        0x0001bcf2:    eb053000    ...0    ADD      r0,r5,r0,LSL #12
        0x0001bcf6:    f8d01080    ....    LDR      r1,[r0,#0x80]
        0x0001bcfa:    f8c41864    ..d.    STR      r1,[r4,#0x864]
        0x0001bcfe:    f8d01084    ....    LDR      r1,[r0,#0x84]
        0x0001bd02:    f8c41868    ..h.    STR      r1,[r4,#0x868]
        0x0001bd06:    f8d01088    ....    LDR      r1,[r0,#0x88]
        0x0001bd0a:    f8c4186c    ..l.    STR      r1,[r4,#0x86c]
        0x0001bd0e:    f8d01090    ....    LDR      r1,[r0,#0x90]
        0x0001bd12:    f8c41870    ..p.    STR      r1,[r4,#0x870]
        0x0001bd16:    f8d01094    ....    LDR      r1,[r0,#0x94]
        0x0001bd1a:    f8c41874    ..t.    STR      r1,[r4,#0x874]
        0x0001bd1e:    f8d01098    ....    LDR      r1,[r0,#0x98]
        0x0001bd22:    f8c41878    ..x.    STR      r1,[r4,#0x878]
        0x0001bd26:    f8d0109c    ....    LDR      r1,[r0,#0x9c]
        0x0001bd2a:    f8c4187c    ..|.    STR      r1,[r4,#0x87c]
        0x0001bd2e:    f8d010a0    ....    LDR      r1,[r0,#0xa0]
        0x0001bd32:    f8c41880    ....    STR      r1,[r4,#0x880]
        0x0001bd36:    6b01        .k      LDR      r1,[r0,#0x30]
        0x0001bd38:    f8c41884    ....    STR      r1,[r4,#0x884]
        0x0001bd3c:    6c41        Al      LDR      r1,[r0,#0x44]
        0x0001bd3e:    f8c41888    ....    STR      r1,[r4,#0x888]
        0x0001bd42:    6c81        .l      LDR      r1,[r0,#0x48]
        0x0001bd44:    f8c4188c    ....    STR      r1,[r4,#0x88c]
        0x0001bd48:    6cc1        .l      LDR      r1,[r0,#0x4c]
        0x0001bd4a:    f8c41890    ....    STR      r1,[r4,#0x890]
        0x0001bd4e:    f8d012a8    ....    LDR      r1,[r0,#0x2a8]
        0x0001bd52:    f8c41898    ....    STR      r1,[r4,#0x898]
        0x0001bd56:    f8d012b8    ....    LDR      r1,[r0,#0x2b8]
        0x0001bd5a:    f8c4189c    ....    STR      r1,[r4,#0x89c]
        0x0001bd5e:    f8d012c0    ....    LDR      r1,[r0,#0x2c0]
        0x0001bd62:    f8c418a0    ....    STR      r1,[r4,#0x8a0]
        0x0001bd66:    f8d012c4    ....    LDR      r1,[r0,#0x2c4]
        0x0001bd6a:    f8c418a4    ....    STR      r1,[r4,#0x8a4]
        0x0001bd6e:    f8d01200    ....    LDR      r1,[r0,#0x200]
        0x0001bd72:    f8c418a8    ....    STR      r1,[r4,#0x8a8]
        0x0001bd76:    f8d012b0    ....    LDR      r1,[r0,#0x2b0]
        0x0001bd7a:    f8c418ac    ....    STR      r1,[r4,#0x8ac]
        0x0001bd7e:    f8d01114    ....    LDR      r1,[r0,#0x114]
        0x0001bd82:    f8c418b0    ....    STR      r1,[r4,#0x8b0]
        0x0001bd86:    f8d01118    ....    LDR      r1,[r0,#0x118]
        0x0001bd8a:    f8c418b4    ....    STR      r1,[r4,#0x8b4]
        0x0001bd8e:    6a01        .j      LDR      r1,[r0,#0x20]
        0x0001bd90:    f8c418b8    ....    STR      r1,[r4,#0x8b8]
        0x0001bd94:    f8d012a0    ....    LDR      r1,[r0,#0x2a0]
        0x0001bd98:    f8c41894    ....    STR      r1,[r4,#0x894]
        0x0001bd9c:    f8d002a0    ....    LDR      r0,[r0,#0x2a0]
        0x0001bda0:    07c0        ..      LSLS     r0,r0,#31
        0x0001bda2:    d003        ..      BEQ      0x1bdac ; am_hal_mspi_power_control + 642
        0x0001bda4:    f8d40828    ..(.    LDR      r0,[r4,#0x828]
        0x0001bda8:    f7fdfea7    ....    BL       am_hal_cmdq_disable ; 0x19afa
        0x0001bdac:    6820         h      LDR      r0,[r4,#0]
        0x0001bdae:    2101        .!      MOVS     r1,#1
        0x0001bdb0:    f8841860    ..`.    STRB     r1,[r4,#0x860]
        0x0001bdb4:    f020407e     .~@    BIC      r0,r0,#0xfe000000
        0x0001bdb8:    42b0        .B      CMP      r0,r6
        0x0001bdba:    d109        ..      BNE      0x1bdd0 ; am_hal_mspi_power_control + 678
        0x0001bdbc:    6860        `h      LDR      r0,[r4,#4]
        0x0001bdbe:    f64172ff    A..r    MOV      r2,#0x1fff
        0x0001bdc2:    eb053000    ...0    ADD      r0,r5,r0,LSL #12
        0x0001bdc6:    f8d01200    ....    LDR      r1,[r0,#0x200]
        0x0001bdca:    4391        .C      BICS     r1,r1,r2
        0x0001bdcc:    f8c01200    ....    STR      r1,[r0,#0x200]
        0x0001bdd0:    6860        `h      LDR      r0,[r4,#4]
        0x0001bdd2:    eb053100    ...1    ADD      r1,r5,r0,LSL #12
        0x0001bdd6:    f8d11090    ....    LDR      r1,[r1,#0x90]
        0x0001bdda:    07c9        ..      LSLS     r1,r1,#31
        0x0001bddc:    d004        ..      BEQ      0x1bde8 ; am_hal_mspi_power_control + 702
        0x0001bdde:    2002        .       MOVS     r0,#2
        0x0001bde0:    2100        .!      MOVS     r1,#0
        0x0001bde2:    f7fef891    ....    BL       am_hal_daxi_control ; 0x19f08
        0x0001bde6:    6860        `h      LDR      r0,[r4,#4]
        0x0001bde8:    300e        .0      ADDS     r0,r0,#0xe
        0x0001bdea:    b2c0        ..      UXTB     r0,r0
        0x0001bdec:    f000fae7    ....    BL       am_hal_pwrctrl_periph_disable ; 0x1c3be
        0x0001bdf0:    6864        dh      LDR      r4,[r4,#4]
        0x0001bdf2:    f7fefabf    ....    BL       am_hal_interrupt_master_disable ; 0x1a374
        0x0001bdf6:    9001        ..      STR      r0,[sp,#4]
        0x0001bdf8:    f64270d0    B..p    MOV      r0,#0x2fd0
        0x0001bdfc:    f2c10000    ....    MOVT     r0,#0x1000
        0x0001be00:    6801        .h      LDR      r1,[r0,#0]
        0x0001be02:    2201        ."      MOVS     r2,#1
        0x0001be04:    40a2        .@      LSLS     r2,r2,r4
        0x0001be06:    4391        .C      BICS     r1,r1,r2
        0x0001be08:    6001        .`      STR      r1,[r0,#0]
        0x0001be0a:    9801        ..      LDR      r0,[sp,#4]
        0x0001be0c:    f7fefaba    ....    BL       am_hal_interrupt_master_set ; 0x1a384
        0x0001be10:    2000        .       MOVS     r0,#0
        0x0001be12:    e6a5        ..      B        0x1bb60 ; am_hal_mspi_power_control + 54
        0x0001be14:    2007        .       MOVS     r0,#7
        0x0001be16:    e6a3        ..      B        0x1bb60 ; am_hal_mspi_power_control + 54
    am_hal_pwrctrl_control
        0x0001be18:    e92d43f0    -..C    PUSH     {r4-r9,lr}
        0x0001be1c:    b089        ..      SUB      sp,sp,#0x24
        0x0001be1e:    2100        .!      MOVS     r1,#0
        0x0001be20:    2803        .(      CMP      r0,#3
        0x0001be22:    9102        ..      STR      r1,[sp,#8]
        0x0001be24:    9101        ..      STR      r1,[sp,#4]
        0x0001be26:    d873        s.      BHI      0x1bf10 ; am_hal_pwrctrl_control + 248
        0x0001be28:    e8dff000    ....    TBB      [pc,r0]
    $d.23
        0x0001be2c:    90817402    .t..    DCD    2424402946
    $t.24
        0x0001be30:    2544        D%      MOVS     r5,#0x44
        0x0001be32:    f2c40502    ....    MOVT     r5,#0x4002
        0x0001be36:    f8d50334    ..4.    LDR      r0,[r5,#0x334]
        0x0001be3a:    210a        .!      MOVS     r1,#0xa
        0x0001be3c:    f02050f8     ..P    BIC      r0,r0,#0x1f000000
        0x0001be40:    f8c50334    ..4.    STR      r0,[r5,#0x334]
        0x0001be44:    f8d50314    ....    LDR      r0,[r5,#0x314]
        0x0001be48:    2600        .&      MOVS     r6,#0
        0x0001be4a:    f42000f8     ...    BIC      r0,r0,#0x7c0000
        0x0001be4e:    f8c50314    ....    STR      r0,[r5,#0x314]
        0x0001be52:    f8d50300    ....    LDR      r0,[r5,#0x300]
        0x0001be56:    f361601b    a..`    BFI      r0,r1,#24,#4
        0x0001be5a:    f8c50300    ....    STR      r0,[r5,#0x300]
        0x0001be5e:    f8d50300    ....    LDR      r0,[r5,#0x300]
        0x0001be62:    f36120ce    a..     BFI      r0,r1,#11,#4
        0x0001be66:    f8c50300    ....    STR      r0,[r5,#0x300]
        0x0001be6a:    f8d50314    ....    LDR      r0,[r5,#0x314]
        0x0001be6e:    f44050f0    @..P    ORR      r0,r0,#0x1e00
        0x0001be72:    f8c50314    ....    STR      r0,[r5,#0x314]
        0x0001be76:    f8d50310    ....    LDR      r0,[r5,#0x310]
        0x0001be7a:    f44010f0    @...    ORR      r0,r0,#0x1e0000
        0x0001be7e:    f8c50310    ....    STR      r0,[r5,#0x310]
        0x0001be82:    f8d5031c    ....    LDR      r0,[r5,#0x31c]
        0x0001be86:    f0407070    @.pp    ORR      r0,r0,#0x3c00000
        0x0001be8a:    f8c5031c    ....    STR      r0,[r5,#0x31c]
        0x0001be8e:    f8d5031c    ....    LDR      r0,[r5,#0x31c]
        0x0001be92:    f44010f0    @...    ORR      r0,r0,#0x1e0000
        0x0001be96:    f8c5031c    ....    STR      r0,[r5,#0x31c]
        0x0001be9a:    f8d50328    ..(.    LDR      r0,[r5,#0x328]
        0x0001be9e:    f8d5132c    ..,.    LDR      r1,[r5,#0x32c]
        0x0001bea2:    0e80        ..      LSRS     r0,r0,#26
        0x0001bea4:    f360619f    `..a    BFI      r1,r0,#26,#6
        0x0001bea8:    f8c5132c    ..,.    STR      r1,[r5,#0x32c]
        0x0001beac:    f8d5033c    ..<.    LDR      r0,[r5,#0x33c]
        0x0001beb0:    f24021dc    @..!    MOVW     r1,#0x2dc
        0x0001beb4:    f0404000    @..@    ORR      r0,r0,#0x80000000
        0x0001beb8:    f8c5033c    ..<.    STR      r0,[r5,#0x33c]
        0x0001bebc:    f8d5033c    ..<.    LDR      r0,[r5,#0x33c]
        0x0001bec0:    f2c10100    ....    MOVT     r1,#0x1000
        0x0001bec4:    f0404080    @..@    ORR      r0,r0,#0x40000000
        0x0001bec8:    f8c5033c    ..<.    STR      r0,[r5,#0x33c]
        0x0001becc:    f8d5032c    ..,.    LDR      r0,[r5,#0x32c]
        0x0001bed0:    f3c05005    ...P    UBFX     r0,r0,#20,#6
        0x0001bed4:    6008        .`      STR      r0,[r1,#0]
        0x0001bed6:    f8d5032c    ..,.    LDR      r0,[r5,#0x32c]
        0x0001beda:    2101        .!      MOVS     r1,#1
        0x0001bedc:    f020707c     .|p    BIC      r0,r0,#0x3f00000
        0x0001bee0:    f8c5032c    ..,.    STR      r0,[r5,#0x32c]
        0x0001bee4:    2007        .       MOVS     r0,#7
        0x0001bee6:    f8c502f8    ....    STR      r0,[r5,#0x2f8]
        0x0001beea:    f8d502fc    ....    LDR      r0,[r5,#0x2fc]
        0x0001beee:    f0207070     .pp    BIC      r0,r0,#0x3c00000
        0x0001bef2:    f8c502fc    ....    STR      r0,[r5,#0x2fc]
        0x0001bef6:    f8d502fc    ....    LDR      r0,[r5,#0x2fc]
        0x0001befa:    f361108a    a...    BFI      r0,r1,#6,#5
        0x0001befe:    f8c502fc    ....    STR      r0,[r5,#0x2fc]
        0x0001bf02:    a803        ..      ADD      r0,sp,#0xc
        0x0001bf04:    9603        ..      STR      r6,[sp,#0xc]
        0x0001bf06:    f7fcfb39    ..9.    BL       TrimVersionGet ; 0x1857c
        0x0001bf0a:    b348        H.      CBZ      r0,0x1bf60 ; am_hal_pwrctrl_control + 328
        0x0001bf0c:    4604        .F      MOV      r4,r0
        0x0001bf0e:    e023        #.      B        0x1bf58 ; am_hal_pwrctrl_control + 320
        0x0001bf10:    2406        .$      MOVS     r4,#6
        0x0001bf12:    e021        !.      B        0x1bf58 ; am_hal_pwrctrl_control + 320
        0x0001bf14:    f2410008    A...    MOV      r0,#0x1008
        0x0001bf18:    f2c40002    ....    MOVT     r0,#0x4002
        0x0001bf1c:    6800        .h      LDR      r0,[r0,#0]
        0x0001bf1e:    02c0        ..      LSLS     r0,r0,#11
        0x0001bf20:    d512        ..      BPL      0x1bf48 ; am_hal_pwrctrl_control + 304
        0x0001bf22:    2014        .       MOVS     r0,#0x14
        0x0001bf24:    f000fa4b    ..K.    BL       am_hal_pwrctrl_periph_disable ; 0x1c3be
        0x0001bf28:    4604        .F      MOV      r4,r0
        0x0001bf2a:    b9a8        ..      CBNZ     r0,0x1bf58 ; am_hal_pwrctrl_control + 320
        0x0001bf2c:    e00c        ..      B        0x1bf48 ; am_hal_pwrctrl_control + 304
        0x0001bf2e:    2044        D       MOVS     r0,#0x44
        0x0001bf30:    f2c40002    ....    MOVT     r0,#0x4002
        0x0001bf34:    f8d010e0    ....    LDR      r1,[r0,#0xe0]
        0x0001bf38:    2220         "      MOVS     r2,#0x20
        0x0001bf3a:    f3620187    b...    BFI      r1,r2,#2,#6
        0x0001bf3e:    f8c010e0    ....    STR      r1,[r0,#0xe0]
        0x0001bf42:    2101        .!      MOVS     r1,#1
        0x0001bf44:    f8c010dc    ....    STR      r1,[r0,#0xdc]
        0x0001bf48:    2400        .$      MOVS     r4,#0
        0x0001bf4a:    e005        ..      B        0x1bf58 ; am_hal_pwrctrl_control + 320
        0x0001bf4c:    2044        D       MOVS     r0,#0x44
        0x0001bf4e:    f2c40002    ....    MOVT     r0,#0x4002
        0x0001bf52:    2400        .$      MOVS     r4,#0
        0x0001bf54:    f8c04fc0    ...O    STR      r4,[r0,#0xfc0]
        0x0001bf58:    4620         F      MOV      r0,r4
        0x0001bf5a:    b009        ..      ADD      sp,sp,#0x24
        0x0001bf5c:    e8bd83f0    ....    POP      {r4-r9,pc}
        0x0001bf60:    9803        ..      LDR      r0,[sp,#0xc]
        0x0001bf62:    2805        .(      CMP      r0,#5
        0x0001bf64:    bf88        ..      IT       HI
        0x0001bf66:    2616        .&      MOVHI    r6,#0x16
        0x0001bf68:    2806        .(      CMP      r0,#6
        0x0001bf6a:    d331        1.      BCC      0x1bfd0 ; am_hal_pwrctrl_control + 440
        0x0001bf6c:    f24020d4    @..     MOVW     r0,#0x2d4
        0x0001bf70:    f2c10000    ....    MOVT     r0,#0x1000
        0x0001bf74:    6801        .h      LDR      r1,[r0,#0]
        0x0001bf76:    3101        .1      ADDS     r1,#1
        0x0001bf78:    d12a        *.      BNE      0x1bfd0 ; am_hal_pwrctrl_control + 440
        0x0001bf7a:    f644311d    D..1    MOV      r1,#0x4b1d
        0x0001bf7e:    f2c10100    ....    MOVT     r1,#0x1000
        0x0001bf82:    780a        .x      LDRB     r2,[r1,#0]
        0x0001bf84:    b90a        ..      CBNZ     r2,0x1bf8a ; am_hal_pwrctrl_control + 370
        0x0001bf86:    2201        ."      MOVS     r2,#1
        0x0001bf88:    700a        .p      STRB     r2,[r1,#0]
        0x0001bf8a:    6829        )h      LDR      r1,[r5,#0]
        0x0001bf8c:    f3c111c6    ....    UBFX     r1,r1,#7,#7
        0x0001bf90:    6001        .`      STR      r1,[r0,#0]
        0x0001bf92:    f8d51334    ..4.    LDR      r1,[r5,#0x334]
        0x0001bf96:    f0414100    A..A    ORR      r1,r1,#0x80000000
        0x0001bf9a:    f8c51334    ..4.    STR      r1,[r5,#0x334]
        0x0001bf9e:    6800        .h      LDR      r0,[r0,#0]
        0x0001bfa0:    f086017f    ....    EOR      r1,r6,#0x7f
        0x0001bfa4:    1984        ..      ADDS     r4,r0,r6
        0x0001bfa6:    4288        .B      CMP      r0,r1
        0x0001bfa8:    6828        (h      LDR      r0,[r5,#0]
        0x0001bfaa:    bf88        ..      IT       HI
        0x0001bfac:    247f        .$      MOVHI    r4,#0x7f
        0x0001bfae:    f3c010c6    ....    UBFX     r0,r0,#7,#7
        0x0001bfb2:    42a0        .B      CMP      r0,r4
        0x0001bfb4:    d00c        ..      BEQ      0x1bfd0 ; am_hal_pwrctrl_control + 440
        0x0001bfb6:    f7fef9dd    ....    BL       am_hal_interrupt_master_disable ; 0x1a374
        0x0001bfba:    9004        ..      STR      r0,[sp,#0x10]
        0x0001bfbc:    6828        (h      LDR      r0,[r5,#0]
        0x0001bfbe:    f36410cd    d...    BFI      r0,r4,#7,#7
        0x0001bfc2:    6028        (`      STR      r0,[r5,#0]
        0x0001bfc4:    2014        .       MOVS     r0,#0x14
        0x0001bfc6:    f7fef909    ....    BL       am_hal_delay_us ; 0x1a1dc
        0x0001bfca:    9804        ..      LDR      r0,[sp,#0x10]
        0x0001bfcc:    f7fef9da    ....    BL       am_hal_interrupt_master_set ; 0x1a384
        0x0001bfd0:    2001        .       MOVS     r0,#1
        0x0001bfd2:    2100        .!      MOVS     r1,#0
        0x0001bfd4:    2200        ."      MOVS     r2,#0
        0x0001bfd6:    2400        .$      MOVS     r4,#0
        0x0001bfd8:    f7fcfaec    ....    BL       VDDF_simobuck_boost ; 0x185b4
        0x0001bfdc:    f2410008    A...    MOV      r0,#0x1008
        0x0001bfe0:    f2c40002    ....    MOVT     r0,#0x4002
        0x0001bfe4:    f8d010f8    ....    LDR      r1,[r0,#0xf8]
        0x0001bfe8:    f0410101    A...    ORR      r1,r1,#1
        0x0001bfec:    f8c010f8    ....    STR      r1,[r0,#0xf8]
        0x0001bff0:    f8d50334    ..4.    LDR      r0,[r5,#0x334]
        0x0001bff4:    f0404000    @..@    ORR      r0,r0,#0x80000000
        0x0001bff8:    f8c50334    ..4.    STR      r0,[r5,#0x334]
        0x0001bffc:    f2413088    A..0    MOV      r0,#0x1388
        0x0001c000:    f7fef8ec    ....    BL       am_hal_delay_us ; 0x1a1dc
        0x0001c004:    a802        ..      ADD      r0,sp,#8
        0x0001c006:    2100        .!      MOVS     r1,#0
        0x0001c008:    f001fab0    ....    BL       buck_interval_check ; 0x1d56c
        0x0001c00c:    2800        .(      CMP      r0,#0
        0x0001c00e:    d1a3        ..      BNE      0x1bf58 ; am_hal_pwrctrl_control + 320
        0x0001c010:    a801        ..      ADD      r0,sp,#4
        0x0001c012:    2101        .!      MOVS     r1,#1
        0x0001c014:    f001faaa    ....    BL       buck_interval_check ; 0x1d56c
        0x0001c018:    2800        .(      CMP      r0,#0
        0x0001c01a:    d195        ..      BNE      0x1bf48 ; am_hal_pwrctrl_control + 304
        0x0001c01c:    f001fb41    ..A.    BL       buck_ldo_override_init ; 0x1d6a2
        0x0001c020:    f64010c4    @...    MOV      r0,#0x9c4
        0x0001c024:    f7fef8da    ....    BL       am_hal_delay_us ; 0x1a1dc
        0x0001c028:    ac04        ..      ADD      r4,sp,#0x10
        0x0001c02a:    f8dd8008    ....    LDR      r8,[sp,#8]
        0x0001c02e:    4620         F      MOV      r0,r4
        0x0001c030:    f000fb52    ..R.    BL       am_hal_timer_default_config_set ; 0x1c6d8
        0x0001c034:    f44f7007    O..p    MOV      r0,#0x21c
        0x0001c038:    f8ad0010    ....    STRH     r0,[sp,#0x10]
        0x0001c03c:    200d        .       MOVS     r0,#0xd
        0x0001c03e:    4621        !F      MOV      r1,r4
        0x0001c040:    f002fd7a    ..z.    BL       timer_config_b1 ; 0x1eb38
        0x0001c044:    200d        .       MOVS     r0,#0xd
        0x0001c046:    f000fb75    ..u.    BL       am_hal_timer_enable ; 0x1c734
        0x0001c04a:    200d        .       MOVS     r0,#0xd
        0x0001c04c:    f000fc0d    ....    BL       am_hal_timer_read ; 0x1c86a
        0x0001c050:    4604        .F      MOV      r4,r0
        0x0001c052:    4640        @F      MOV      r0,r8
        0x0001c054:    f7fef8c2    ....    BL       am_hal_delay_us ; 0x1a1dc
        0x0001c058:    200d        .       MOVS     r0,#0xd
        0x0001c05a:    f000fc06    ....    BL       am_hal_timer_read ; 0x1c86a
        0x0001c05e:    4606        .F      MOV      r6,r0
        0x0001c060:    f24039ff    @..9    MOV      r9,#0x3ff
        0x0001c064:    4627        'F      MOV      r7,r4
        0x0001c066:    bf00        ..      NOP      
        0x0001c068:    6bea        .k      LDR      r2,[r5,#0x3c]
        0x0001c06a:    42b4        .B      CMP      r4,r6
        0x0001c06c:    4611        .F      MOV      r1,r2
        0x0001c06e:    f36f219f    o..!    BFC      r1,#10,#22
        0x0001c072:    d106        ..      BNE      0x1c082 ; am_hal_pwrctrl_control + 618
        0x0001c074:    4287        .B      CMP      r7,r0
        0x0001c076:    d11a        ..      BNE      0x1c0ae ; am_hal_pwrctrl_control + 662
        0x0001c078:    2902        .)      CMP      r1,#2
        0x0001c07a:    d318        ..      BCC      0x1c0ae ; am_hal_pwrctrl_control + 662
        0x0001c07c:    f04f30ff    O..0    MOV      r0,#0xffffffff
        0x0001c080:    e004        ..      B        0x1c08c ; am_hal_pwrctrl_control + 628
        0x0001c082:    4549        IE      CMP      r1,r9
        0x0001c084:    d01b        ..      BEQ      0x1c0be ; am_hal_pwrctrl_control + 678
        0x0001c086:    4287        .B      CMP      r7,r0
        0x0001c088:    d011        ..      BEQ      0x1c0ae ; am_hal_pwrctrl_control + 662
        0x0001c08a:    2001        .       MOVS     r0,#1
        0x0001c08c:    6bea        .k      LDR      r2,[r5,#0x3c]
        0x0001c08e:    4408        .D      ADD      r0,r0,r1
        0x0001c090:    ea220109    "...    BIC      r1,r2,r9
        0x0001c094:    4308        .C      ORRS     r0,r0,r1
        0x0001c096:    63e8        .c      STR      r0,[r5,#0x3c]
        0x0001c098:    200d        .       MOVS     r0,#0xd
        0x0001c09a:    f000fbe6    ....    BL       am_hal_timer_read ; 0x1c86a
        0x0001c09e:    4607        .F      MOV      r7,r0
        0x0001c0a0:    4640        @F      MOV      r0,r8
        0x0001c0a2:    f7fef89b    ....    BL       am_hal_delay_us ; 0x1a1dc
        0x0001c0a6:    200d        .       MOVS     r0,#0xd
        0x0001c0a8:    f000fbdf    ....    BL       am_hal_timer_read ; 0x1c86a
        0x0001c0ac:    e7dc        ..      B        0x1c068 ; am_hal_pwrctrl_control + 592
        0x0001c0ae:    290e        .)      CMP      r1,#0xe
        0x0001c0b0:    bf26        &.      ITTE     CS
        0x0001c0b2:    f502707d    ..}p    ADDCS    r0,r2,#0x3f4
        0x0001c0b6:    f36f209f    o..     BFCCS    r0,#10,#22
        0x0001c0ba:    2001        .       MOVCC    r0,#1
        0x0001c0bc:    e001        ..      B        0x1c0c2 ; am_hal_pwrctrl_control + 682
        0x0001c0be:    f24030f3    @..0    MOV      r0,#0x3f3
        0x0001c0c2:    6be9        .k      LDR      r1,[r5,#0x3c]
        0x0001c0c4:    f24032ff    @..2    MOV      r2,#0x3ff
        0x0001c0c8:    4391        .C      BICS     r1,r1,r2
        0x0001c0ca:    4408        .D      ADD      r0,r0,r1
        0x0001c0cc:    63e8        .c      STR      r0,[r5,#0x3c]
        0x0001c0ce:    200d        .       MOVS     r0,#0xd
        0x0001c0d0:    f000fad8    ....    BL       am_hal_timer_clear_stop ; 0x1c684
        0x0001c0d4:    200d        .       MOVS     r0,#0xd
        0x0001c0d6:    f000fb0f    ....    BL       am_hal_timer_disable ; 0x1c6f8
        0x0001c0da:    200d        .       MOVS     r0,#0xd
        0x0001c0dc:    f000fbd8    ....    BL       am_hal_timer_reset_config ; 0x1c890
        0x0001c0e0:    ac04        ..      ADD      r4,sp,#0x10
        0x0001c0e2:    f8dd8004    ....    LDR      r8,[sp,#4]
        0x0001c0e6:    4620         F      MOV      r0,r4
        0x0001c0e8:    f000faf6    ....    BL       am_hal_timer_default_config_set ; 0x1c6d8
        0x0001c0ec:    f240201d    @..     MOV      r0,#0x21d
        0x0001c0f0:    f8ad0010    ....    STRH     r0,[sp,#0x10]
        0x0001c0f4:    200d        .       MOVS     r0,#0xd
        0x0001c0f6:    4621        !F      MOV      r1,r4
        0x0001c0f8:    f002fd1e    ....    BL       timer_config_b1 ; 0x1eb38
        0x0001c0fc:    200d        .       MOVS     r0,#0xd
        0x0001c0fe:    f000fb19    ....    BL       am_hal_timer_enable ; 0x1c734
        0x0001c102:    200d        .       MOVS     r0,#0xd
        0x0001c104:    f000fbb1    ....    BL       am_hal_timer_read ; 0x1c86a
        0x0001c108:    4604        .F      MOV      r4,r0
        0x0001c10a:    4640        @F      MOV      r0,r8
        0x0001c10c:    f7fef866    ..f.    BL       am_hal_delay_us ; 0x1a1dc
        0x0001c110:    200d        .       MOVS     r0,#0xd
        0x0001c112:    f000fbaa    ....    BL       am_hal_timer_read ; 0x1c86a
        0x0001c116:    f24029d0    @..)    MOVW     r9,#0x2d0
        0x0001c11a:    4606        .F      MOV      r6,r0
        0x0001c11c:    f2c10900    ....    MOVT     r9,#0x1000
        0x0001c120:    4627        'F      MOV      r7,r4
        0x0001c122:    bf00        ..      NOP      
        0x0001c124:    6c6a        jl      LDR      r2,[r5,#0x44]
        0x0001c126:    f8d91000    ....    LDR      r1,[r9,#0]
        0x0001c12a:    3101        .1      ADDS     r1,#1
        0x0001c12c:    f002013f    ..?.    AND      r1,r2,#0x3f
        0x0001c130:    bf08        ..      IT       EQ
        0x0001c132:    f8c91000    ....    STREQ    r1,[r9,#0]
        0x0001c136:    42b4        .B      CMP      r4,r6
        0x0001c138:    d106        ..      BNE      0x1c148 ; am_hal_pwrctrl_control + 816
        0x0001c13a:    4287        .B      CMP      r7,r0
        0x0001c13c:    d11a        ..      BNE      0x1c174 ; am_hal_pwrctrl_control + 860
        0x0001c13e:    2902        .)      CMP      r1,#2
        0x0001c140:    d318        ..      BCC      0x1c174 ; am_hal_pwrctrl_control + 860
        0x0001c142:    f04f30ff    O..0    MOV      r0,#0xffffffff
        0x0001c146:    e004        ..      B        0x1c152 ; am_hal_pwrctrl_control + 826
        0x0001c148:    293f        ?)      CMP      r1,#0x3f
        0x0001c14a:    d01b        ..      BEQ      0x1c184 ; am_hal_pwrctrl_control + 876
        0x0001c14c:    4287        .B      CMP      r7,r0
        0x0001c14e:    d011        ..      BEQ      0x1c174 ; am_hal_pwrctrl_control + 860
        0x0001c150:    2001        .       MOVS     r0,#1
        0x0001c152:    6c6a        jl      LDR      r2,[r5,#0x44]
        0x0001c154:    4408        .D      ADD      r0,r0,r1
        0x0001c156:    f022013f    ".?.    BIC      r1,r2,#0x3f
        0x0001c15a:    4308        .C      ORRS     r0,r0,r1
        0x0001c15c:    6468        hd      STR      r0,[r5,#0x44]
        0x0001c15e:    200d        .       MOVS     r0,#0xd
        0x0001c160:    f000fb83    ....    BL       am_hal_timer_read ; 0x1c86a
        0x0001c164:    4607        .F      MOV      r7,r0
        0x0001c166:    4640        @F      MOV      r0,r8
        0x0001c168:    f7fef838    ..8.    BL       am_hal_delay_us ; 0x1a1dc
        0x0001c16c:    200d        .       MOVS     r0,#0xd
        0x0001c16e:    f000fb7c    ..|.    BL       am_hal_timer_read ; 0x1c86a
        0x0001c172:    e7d7        ..      B        0x1c124 ; am_hal_pwrctrl_control + 780
        0x0001c174:    2905        .)      CMP      r1,#5
        0x0001c176:    bf26        &.      ITTE     CS
        0x0001c178:    f102003d    ..=.    ADDCS    r0,r2,#0x3d
        0x0001c17c:    f000003f    ..?.    ANDCS    r0,r0,#0x3f
        0x0001c180:    2001        .       MOVCC    r0,#1
        0x0001c182:    e000        ..      B        0x1c186 ; am_hal_pwrctrl_control + 878
        0x0001c184:    203c        <       MOVS     r0,#0x3c
        0x0001c186:    6c69        il      LDR      r1,[r5,#0x44]
        0x0001c188:    f021013f    !.?.    BIC      r1,r1,#0x3f
        0x0001c18c:    4408        .D      ADD      r0,r0,r1
        0x0001c18e:    6468        hd      STR      r0,[r5,#0x44]
        0x0001c190:    200d        .       MOVS     r0,#0xd
        0x0001c192:    f000fa77    ..w.    BL       am_hal_timer_clear_stop ; 0x1c684
        0x0001c196:    200d        .       MOVS     r0,#0xd
        0x0001c198:    f000faae    ....    BL       am_hal_timer_disable ; 0x1c6f8
        0x0001c19c:    200d        .       MOVS     r0,#0xd
        0x0001c19e:    f000fb77    ..w.    BL       am_hal_timer_reset_config ; 0x1c890
        0x0001c1a2:    e6d1        ..      B        0x1bf48 ; am_hal_pwrctrl_control + 304
    am_hal_pwrctrl_low_power_init
        0x0001c1a4:    b5b0        ..      PUSH     {r4,r5,r7,lr}
        0x0001c1a6:    f6452503    E..%    MOV      r5,#0x5a03
        0x0001c1aa:    2428        ($      MOVS     r4,#0x28
        0x0001c1ac:    f6cc5573    ..sU    MOVT     r5,#0xcd73
        0x0001c1b0:    f2c40402    ....    MOVT     r4,#0x4002
        0x0001c1b4:    f7fef929    ..).    BL       am_hal_mram_ds_init ; 0x1a40a
        0x0001c1b8:    f24f40c8    O..@    MOV      r0,#0xf4c8
        0x0001c1bc:    f2c00001    ....    MOVT     r0,#1
        0x0001c1c0:    f000f880    ....    BL       am_hal_pwrctrl_mcu_memory_config ; 0x1c2c4
        0x0001c1c4:    f24f40ce    O..@    MOV      r0,#0xf4ce
        0x0001c1c8:    f2c00001    ....    MOVT     r0,#1
        0x0001c1cc:    f000f9d0    ....    BL       am_hal_pwrctrl_sram_config ; 0x1c570
        0x0001c1d0:    f6447024    D.$p    MOV      r0,#0x4f24
        0x0001c1d4:    f2c10000    ....    MOVT     r0,#0x1000
        0x0001c1d8:    6801        .h      LDR      r1,[r0,#0]
        0x0001c1da:    42a9        .B      CMP      r1,r5
        0x0001c1dc:    d03a        :.      BEQ      0x1c254 ; am_hal_pwrctrl_low_power_init + 176
        0x0001c1de:    f8d41314    ....    LDR      r1,[r4,#0x314]
        0x0001c1e2:    6041        A`      STR      r1,[r0,#4]
        0x0001c1e4:    f8d41318    ....    LDR      r1,[r4,#0x318]
        0x0001c1e8:    6081        .`      STR      r1,[r0,#8]
        0x0001c1ea:    f8d4131c    ....    LDR      r1,[r4,#0x31c]
        0x0001c1ee:    60c1        .`      STR      r1,[r0,#0xc]
        0x0001c1f0:    f8d41324    ..$.    LDR      r1,[r4,#0x324]
        0x0001c1f4:    6101        .a      STR      r1,[r0,#0x10]
        0x0001c1f6:    f8d4132c    ..,.    LDR      r1,[r4,#0x32c]
        0x0001c1fa:    6141        Aa      STR      r1,[r0,#0x14]
        0x0001c1fc:    f8d41330    ..0.    LDR      r1,[r4,#0x330]
        0x0001c200:    6181        .a      STR      r1,[r0,#0x18]
        0x0001c202:    f8d41338    ..8.    LDR      r1,[r4,#0x338]
        0x0001c206:    61c1        .a      STR      r1,[r0,#0x1c]
        0x0001c208:    f8d41344    ..D.    LDR      r1,[r4,#0x344]
        0x0001c20c:    6201        .b      STR      r1,[r0,#0x20]
        0x0001c20e:    f8d41348    ..H.    LDR      r1,[r4,#0x348]
        0x0001c212:    6241        Ab      STR      r1,[r0,#0x24]
        0x0001c214:    f8d41350    ..P.    LDR      r1,[r4,#0x350]
        0x0001c218:    6281        .b      STR      r1,[r0,#0x28]
        0x0001c21a:    6da1        .m      LDR      r1,[r4,#0x58]
        0x0001c21c:    62c1        .b      STR      r1,[r0,#0x2c]
        0x0001c21e:    6e21        !n      LDR      r1,[r4,#0x60]
        0x0001c220:    6301        .c      STR      r1,[r0,#0x30]
        0x0001c222:    69e1        .i      LDR      r1,[r4,#0x1c]
        0x0001c224:    6341        Ac      STR      r1,[r0,#0x34]
        0x0001c226:    f8d41354    ..T.    LDR      r1,[r4,#0x354]
        0x0001c22a:    6381        .c      STR      r1,[r0,#0x38]
        0x0001c22c:    f8d41358    ..X.    LDR      r1,[r4,#0x358]
        0x0001c230:    63c1        .c      STR      r1,[r0,#0x3c]
        0x0001c232:    6ba1        .k      LDR      r1,[r4,#0x38]
        0x0001c234:    6401        .d      STR      r1,[r0,#0x40]
        0x0001c236:    6821        !h      LDR      r1,[r4,#0]
        0x0001c238:    6441        Ad      STR      r1,[r0,#0x44]
        0x0001c23a:    f8d410fc    ....    LDR      r1,[r4,#0xfc]
        0x0001c23e:    6481        .d      STR      r1,[r0,#0x48]
        0x0001c240:    f8d410e0    ....    LDR      r1,[r4,#0xe0]
        0x0001c244:    64c1        .d      STR      r1,[r0,#0x4c]
        0x0001c246:    f240412c    @.,A    MOV      r1,#0x42c
        0x0001c24a:    f2c40102    ....    MOVT     r1,#0x4002
        0x0001c24e:    6809        .h      LDR      r1,[r1,#0]
        0x0001c250:    6005        .`      STR      r5,[r0,#0]
        0x0001c252:    6501        .e      STR      r1,[r0,#0x50]
        0x0001c254:    f2440544    D.D.    MOV      r5,#0x4044
        0x0001c258:    f2c40500    ....    MOVT     r5,#0x4000
        0x0001c25c:    6828        (h      LDR      r0,[r5,#0]
        0x0001c25e:    213e        >!      MOVS     r1,#0x3e
        0x0001c260:    f3614099    a..@    BFI      r0,r1,#18,#8
        0x0001c264:    6028        (`      STR      r0,[r5,#0]
        0x0001c266:    f2411040    A.@.    MOVW     r0,#0x1140
        0x0001c26a:    f2c40002    ....    MOVT     r0,#0x4002
        0x0001c26e:    2100        .!      MOVS     r1,#0
        0x0001c270:    6001        .`      STR      r1,[r0,#0]
        0x0001c272:    6041        A`      STR      r1,[r0,#4]
        0x0001c274:    6081        .`      STR      r1,[r0,#8]
        0x0001c276:    60c1        .`      STR      r1,[r0,#0xc]
        0x0001c278:    6101        .a      STR      r1,[r0,#0x10]
        0x0001c27a:    6141        Aa      STR      r1,[r0,#0x14]
        0x0001c27c:    6181        .a      STR      r1,[r0,#0x18]
        0x0001c27e:    61c1        .a      STR      r1,[r0,#0x1c]
        0x0001c280:    6201        .b      STR      r1,[r0,#0x20]
        0x0001c282:    6241        Ab      STR      r1,[r0,#0x24]
        0x0001c284:    6281        .b      STR      r1,[r0,#0x28]
        0x0001c286:    62c1        .b      STR      r1,[r0,#0x2c]
        0x0001c288:    6301        .c      STR      r1,[r0,#0x30]
        0x0001c28a:    6341        Ac      STR      r1,[r0,#0x34]
        0x0001c28c:    6381        .c      STR      r1,[r0,#0x38]
        0x0001c28e:    63c1        .c      STR      r1,[r0,#0x3c]
        0x0001c290:    6401        .d      STR      r1,[r0,#0x40]
        0x0001c292:    6441        Ad      STR      r1,[r0,#0x44]
        0x0001c294:    6481        .d      STR      r1,[r0,#0x48]
        0x0001c296:    f64e708b    N..p    MOV      r0,#0xef8b
        0x0001c29a:    f2c00001    ....    MOVT     r0,#1
        0x0001c29e:    f7fdfe08    ....    BL       am_hal_daxi_config ; 0x19eb2
        0x0001c2a2:    2064        d       MOVS     r0,#0x64
        0x0001c2a4:    f7fdff9a    ....    BL       am_hal_delay_us ; 0x1a1dc
        0x0001c2a8:    6828        (h      LDR      r0,[r5,#0]
        0x0001c2aa:    f0400040    @.@.    ORR      r0,r0,#0x40
        0x0001c2ae:    6028        (`      STR      r0,[r5,#0]
        0x0001c2b0:    f8d40354    ..T.    LDR      r0,[r4,#0x354]
        0x0001c2b4:    f04060b0    @..`    ORR      r0,r0,#0x5800000
        0x0001c2b8:    f44001fd    @...    ORR      r1,r0,#0x7e8000
        0x0001c2bc:    2000        .       MOVS     r0,#0
        0x0001c2be:    f8c41354    ..T.    STR      r1,[r4,#0x354]
        0x0001c2c2:    bdb0        ..      POP      {r4,r5,r7,pc}
    am_hal_pwrctrl_mcu_memory_config
        0x0001c2c4:    b570        p.      PUSH     {r4-r6,lr}
        0x0001c2c6:    b082        ..      SUB      sp,sp,#8
        0x0001c2c8:    4606        .F      MOV      r6,r0
        0x0001c2ca:    7800        .x      LDRB     r0,[r0,#0]
        0x0001c2cc:    f2410514    A...    MOV      r5,#0x1014
        0x0001c2d0:    2802        .(      CMP      r0,#2
        0x0001c2d2:    f2c40502    ....    MOVT     r5,#0x4002
        0x0001c2d6:    d006        ..      BEQ      0x1c2e6 ; am_hal_pwrctrl_mcu_memory_config + 34
        0x0001c2d8:    2801        .(      CMP      r0,#1
        0x0001c2da:    d00c        ..      BEQ      0x1c2f6 ; am_hal_pwrctrl_mcu_memory_config + 50
        0x0001c2dc:    b998        ..      CBNZ     r0,0x1c306 ; am_hal_pwrctrl_mcu_memory_config + 66
        0x0001c2de:    6828        (h      LDR      r0,[r5,#0]
        0x0001c2e0:    f0200010     ...    BIC      r0,r0,#0x10
        0x0001c2e4:    e00a        ..      B        0x1c2fc ; am_hal_pwrctrl_mcu_memory_config + 56
        0x0001c2e6:    6828        (h      LDR      r0,[r5,#0]
        0x0001c2e8:    f0400010    @...    ORR      r0,r0,#0x10
        0x0001c2ec:    6028        (`      STR      r0,[r5,#0]
        0x0001c2ee:    6828        (h      LDR      r0,[r5,#0]
        0x0001c2f0:    f0400020    @. .    ORR      r0,r0,#0x20
        0x0001c2f4:    e006        ..      B        0x1c304 ; am_hal_pwrctrl_mcu_memory_config + 64
        0x0001c2f6:    6828        (h      LDR      r0,[r5,#0]
        0x0001c2f8:    f0400010    @...    ORR      r0,r0,#0x10
        0x0001c2fc:    6028        (`      STR      r0,[r5,#0]
        0x0001c2fe:    6828        (h      LDR      r0,[r5,#0]
        0x0001c300:    f0200020     . .    BIC      r0,r0,#0x20
        0x0001c304:    6028        (`      STR      r0,[r5,#0]
        0x0001c306:    78b0        .x      LDRB     r0,[r6,#2]
        0x0001c308:    6829        )h      LDR      r1,[r5,#0]
        0x0001c30a:    2401        .$      MOVS     r4,#1
        0x0001c30c:    f3600102    `...    BFI      r1,r0,#0,#3
        0x0001c310:    6029        )`      STR      r1,[r5,#0]
        0x0001c312:    7930        0y      LDRB     r0,[r6,#4]
        0x0001c314:    6829        )h      LDR      r1,[r5,#0]
        0x0001c316:    f000001f    ....    AND      r0,r0,#0x1f
        0x0001c31a:    f0210108    !...    BIC      r1,r1,#8
        0x0001c31e:    ea4100c0    A...    ORR      r0,r1,r0,LSL #3
        0x0001c322:    6028        (`      STR      r0,[r5,#0]
        0x0001c324:    4629        )F      MOV      r1,r5
        0x0001c326:    f8513b04    Q..;    LDR      r3,[r1],#4
        0x0001c32a:    2005        .       MOVS     r0,#5
        0x0001c32c:    223f        ?"      MOVS     r2,#0x3f
        0x0001c32e:    9400        ..      STR      r4,[sp,#0]
        0x0001c330:    f7fdff9a    ....    BL       am_hal_delay_us_status_check ; 0x1a268
        0x0001c334:    2800        .(      CMP      r0,#0
        0x0001c336:    d132        2.      BNE      0x1c39e ; am_hal_pwrctrl_mcu_memory_config + 218
        0x0001c338:    6868        hh      LDR      r0,[r5,#4]
        0x0001c33a:    6829        )h      LDR      r1,[r5,#0]
        0x0001c33c:    4048        H@      EORS     r0,r0,r1
        0x0001c33e:    06c0        ..      LSLS     r0,r0,#27
        0x0001c340:    d42c        ,.      BMI      0x1c39c ; am_hal_pwrctrl_mcu_memory_config + 216
        0x0001c342:    6868        hh      LDR      r0,[r5,#4]
        0x0001c344:    6829        )h      LDR      r1,[r5,#0]
        0x0001c346:    4048        H@      EORS     r0,r0,r1
        0x0001c348:    0680        ..      LSLS     r0,r0,#26
        0x0001c34a:    d427        '.      BMI      0x1c39c ; am_hal_pwrctrl_mcu_memory_config + 216
        0x0001c34c:    6868        hh      LDR      r0,[r5,#4]
        0x0001c34e:    6829        )h      LDR      r1,[r5,#0]
        0x0001c350:    4048        H@      EORS     r0,r0,r1
        0x0001c352:    0740        @.      LSLS     r0,r0,#29
        0x0001c354:    d122        ".      BNE      0x1c39c ; am_hal_pwrctrl_mcu_memory_config + 216
        0x0001c356:    6868        hh      LDR      r0,[r5,#4]
        0x0001c358:    6829        )h      LDR      r1,[r5,#0]
        0x0001c35a:    4048        H@      EORS     r0,r0,r1
        0x0001c35c:    0700        ..      LSLS     r0,r0,#28
        0x0001c35e:    d41d        ..      BMI      0x1c39c ; am_hal_pwrctrl_mcu_memory_config + 216
        0x0001c360:    7870        px      LDRB     r0,[r6,#1]
        0x0001c362:    68a9        .h      LDR      r1,[r5,#8]
        0x0001c364:    2800        .(      CMP      r0,#0
        0x0001c366:    f0210110    !...    BIC      r1,r1,#0x10
        0x0001c36a:    bf08        ..      IT       EQ
        0x0001c36c:    3110        .1      ADDEQ    r1,r1,#0x10
        0x0001c36e:    60a9        .`      STR      r1,[r5,#8]
        0x0001c370:    7970        py      LDRB     r0,[r6,#5]
        0x0001c372:    68a9        .h      LDR      r1,[r5,#8]
        0x0001c374:    2800        .(      CMP      r0,#0
        0x0001c376:    f0210108    !...    BIC      r1,r1,#8
        0x0001c37a:    bf08        ..      IT       EQ
        0x0001c37c:    3108        .1      ADDEQ    r1,r1,#8
        0x0001c37e:    60a9        .`      STR      r1,[r5,#8]
        0x0001c380:    78f1        .x      LDRB     r1,[r6,#3]
        0x0001c382:    2000        .       MOVS     r0,#0
        0x0001c384:    2907        .)      CMP      r1,#7
        0x0001c386:    d80a        ..      BHI      0x1c39e ; am_hal_pwrctrl_mcu_memory_config + 218
        0x0001c388:    e8dff001    ....    TBB      [pc,r1]
    $d.5
        0x0001c38c:    0e090b04    ....    DCD    235473668
        0x0001c390:    13090909    ....    DCD    319359241
    $t.6
        0x0001c394:    68a8        .h      LDR      r0,[r5,#8]
        0x0001c396:    f0400007    @...    ORR      r0,r0,#7
        0x0001c39a:    e00d        ..      B        0x1c3b8 ; am_hal_pwrctrl_mcu_memory_config + 244
        0x0001c39c:    2001        .       MOVS     r0,#1
        0x0001c39e:    b002        ..      ADD      sp,sp,#8
        0x0001c3a0:    bd70        p.      POP      {r4-r6,pc}
        0x0001c3a2:    68a8        .h      LDR      r0,[r5,#8]
        0x0001c3a4:    2106        .!      MOVS     r1,#6
        0x0001c3a6:    e001        ..      B        0x1c3ac ; am_hal_pwrctrl_mcu_memory_config + 232
        0x0001c3a8:    68a8        .h      LDR      r0,[r5,#8]
        0x0001c3aa:    2104        .!      MOVS     r1,#4
        0x0001c3ac:    f3610002    a...    BFI      r0,r1,#0,#3
        0x0001c3b0:    e002        ..      B        0x1c3b8 ; am_hal_pwrctrl_mcu_memory_config + 244
        0x0001c3b2:    68a8        .h      LDR      r0,[r5,#8]
        0x0001c3b4:    f0200007     ...    BIC      r0,r0,#7
        0x0001c3b8:    60a8        .`      STR      r0,[r5,#8]
        0x0001c3ba:    2000        .       MOVS     r0,#0
        0x0001c3bc:    e7ef        ..      B        0x1c39e ; am_hal_pwrctrl_mcu_memory_config + 218
    am_hal_pwrctrl_periph_disable
        0x0001c3be:    e92d41f0    -..A    PUSH     {r4-r8,lr}
        0x0001c3c2:    b082        ..      SUB      sp,sp,#8
        0x0001c3c4:    2821        !(      CMP      r0,#0x21
        0x0001c3c6:    d901        ..      BLS      0x1c3cc ; am_hal_pwrctrl_periph_disable + 14
        0x0001c3c8:    2506        .%      MOVS     r5,#6
        0x0001c3ca:    e07f        ..      B        0x1c4cc ; am_hal_pwrctrl_periph_disable + 270
        0x0001c3cc:    f64e7190    N..q    MOV      r1,#0xef90
        0x0001c3d0:    f2c00101    ....    MOVT     r1,#1
        0x0001c3d4:    eb011200    ....    ADD      r2,r1,r0,LSL #4
        0x0001c3d8:    e9d26402    ...d    LDRD     r6,r4,[r2,#8]
        0x0001c3dc:    2814        .(      CMP      r0,#0x14
        0x0001c3de:    d136        6.      BNE      0x1c44e ; am_hal_pwrctrl_periph_disable + 144
        0x0001c3e0:    f64077e0    @..w    MOVW     r7,#0xfe0
        0x0001c3e4:    f2c4070c    ....    MOVT     r7,#0x400c
        0x0001c3e8:    6838        8h      LDR      r0,[r7,#0]
        0x0001c3ea:    28c0        .(      CMP      r0,#0xc0
        0x0001c3ec:    d11f        ..      BNE      0x1c42e ; am_hal_pwrctrl_periph_disable + 112
        0x0001c3ee:    f640287c    @.|(    MOV      r8,#0xa7c
        0x0001c3f2:    f2c4080c    ....    MOVT     r8,#0x400c
        0x0001c3f6:    2064        d       MOVS     r0,#0x64
        0x0001c3f8:    4641        AF      MOV      r1,r8
        0x0001c3fa:    2201        ."      MOVS     r2,#1
        0x0001c3fc:    2301        .#      MOVS     r3,#1
        0x0001c3fe:    f7fdff09    ....    BL       am_hal_delay_us_status_change ; 0x1a214
        0x0001c402:    4605        .F      MOV      r5,r0
        0x0001c404:    2800        .(      CMP      r0,#0
        0x0001c406:    d161        a.      BNE      0x1c4cc ; am_hal_pwrctrl_periph_disable + 270
        0x0001c408:    f5076173    ..sa    ADD      r1,r7,#0xf30
        0x0001c40c:    2064        d       MOVS     r0,#0x64
        0x0001c40e:    2201        ."      MOVS     r2,#1
        0x0001c410:    2301        .#      MOVS     r3,#1
        0x0001c412:    f7fdfeff    ....    BL       am_hal_delay_us_status_change ; 0x1a214
        0x0001c416:    4605        .F      MOV      r5,r0
        0x0001c418:    2800        .(      CMP      r0,#0
        0x0001c41a:    d157        W.      BNE      0x1c4cc ; am_hal_pwrctrl_periph_disable + 270
        0x0001c41c:    f8d80004    ....    LDR      r0,[r8,#4]
        0x0001c420:    f0400001    @...    ORR      r0,r0,#1
        0x0001c424:    f8c80004    ....    STR      r0,[r8,#4]
        0x0001c428:    200f        .       MOVS     r0,#0xf
        0x0001c42a:    f7fdfed7    ....    BL       am_hal_delay_us ; 0x1a1dc
        0x0001c42e:    f2410004    A...    MOV      r0,#0x1004
        0x0001c432:    f2c40002    ....    MOVT     r0,#0x4002
        0x0001c436:    f44f1180    O...    MOV      r1,#0x100000
        0x0001c43a:    2200        ."      MOVS     r2,#0
        0x0001c43c:    2310        .#      MOVS     r3,#0x10
        0x0001c43e:    f000faad    ....    BL       am_hal_util_write_and_wait ; 0x1c99c
        0x0001c442:    6830        0h      LDR      r0,[r6,#0]
        0x0001c444:    ea100504    ....    ANDS     r5,r0,r4
        0x0001c448:    bf18        ..      IT       NE
        0x0001c44a:    2501        .%      MOVNE    r5,#1
        0x0001c44c:    e03e        >.      B        0x1c4cc ; am_hal_pwrctrl_periph_disable + 270
        0x0001c44e:    0100        ..      LSLS     r0,r0,#4
        0x0001c450:    6855        Uh      LDR      r5,[r2,#4]
        0x0001c452:    580f        .X      LDR      r7,[r1,r0]
        0x0001c454:    f7fdff8e    ....    BL       am_hal_interrupt_master_disable ; 0x1a374
        0x0001c458:    9001        ..      STR      r0,[sp,#4]
        0x0001c45a:    6838        8h      LDR      r0,[r7,#0]
        0x0001c45c:    43a8        .C      BICS     r0,r0,r5
        0x0001c45e:    6038        8`      STR      r0,[r7,#0]
        0x0001c460:    9801        ..      LDR      r0,[sp,#4]
        0x0001c462:    f7fdff8f    ....    BL       am_hal_interrupt_master_set ; 0x1a384
        0x0001c466:    2500        .%      MOVS     r5,#0
        0x0001c468:    2005        .       MOVS     r0,#5
        0x0001c46a:    4631        1F      MOV      r1,r6
        0x0001c46c:    4622        "F      MOV      r2,r4
        0x0001c46e:    4623        #F      MOV      r3,r4
        0x0001c470:    9500        ..      STR      r5,[sp,#0]
        0x0001c472:    f7fdfef9    ....    BL       am_hal_delay_us_status_check ; 0x1a268
        0x0001c476:    b348        H.      CBZ      r0,0x1c4cc ; am_hal_pwrctrl_periph_disable + 270
        0x0001c478:    f5b47ff0    ....    CMP      r4,#0x1e0
        0x0001c47c:    f04f0500    O...    MOV      r5,#0
        0x0001c480:    db0b        ..      BLT      0x1c49a ; am_hal_pwrctrl_periph_disable + 220
        0x0001c482:    d012        ..      BEQ      0x1c4aa ; am_hal_pwrctrl_periph_disable + 236
        0x0001c484:    f5b43fe0    ...?    CMP      r4,#0x1c000
        0x0001c488:    d015        ..      BEQ      0x1c4b6 ; am_hal_pwrctrl_periph_disable + 248
        0x0001c48a:    f5b45ff0    ..._    CMP      r4,#0x1e00
        0x0001c48e:    d11d        ..      BNE      0x1c4cc ; am_hal_pwrctrl_periph_disable + 270
        0x0001c490:    6838        8h      LDR      r0,[r7,#0]
        0x0001c492:    f4105ff0    ..._    TST      r0,#0x1e00
        0x0001c496:    d117        ..      BNE      0x1c4c8 ; am_hal_pwrctrl_periph_disable + 266
        0x0001c498:    e017        ..      B        0x1c4ca ; am_hal_pwrctrl_periph_disable + 268
        0x0001c49a:    2c1e        .,      CMP      r4,#0x1e
        0x0001c49c:    d010        ..      BEQ      0x1c4c0 ; am_hal_pwrctrl_periph_disable + 258
        0x0001c49e:    2cff        .,      CMP      r4,#0xff
        0x0001c4a0:    d114        ..      BNE      0x1c4cc ; am_hal_pwrctrl_periph_disable + 270
        0x0001c4a2:    6838        8h      LDR      r0,[r7,#0]
        0x0001c4a4:    0600        ..      LSLS     r0,r0,#24
        0x0001c4a6:    d10f        ..      BNE      0x1c4c8 ; am_hal_pwrctrl_periph_disable + 266
        0x0001c4a8:    e00f        ..      B        0x1c4ca ; am_hal_pwrctrl_periph_disable + 268
        0x0001c4aa:    6838        8h      LDR      r0,[r7,#0]
        0x0001c4ac:    f4107ff0    ....    TST      r0,#0x1e0
        0x0001c4b0:    bf18        ..      IT       NE
        0x0001c4b2:    6838        8h      LDRNE    r0,[r7,#0]
        0x0001c4b4:    e009        ..      B        0x1c4ca ; am_hal_pwrctrl_periph_disable + 268
        0x0001c4b6:    6838        8h      LDR      r0,[r7,#0]
        0x0001c4b8:    f4103fe0    ...?    TST      r0,#0x1c000
        0x0001c4bc:    d104        ..      BNE      0x1c4c8 ; am_hal_pwrctrl_periph_disable + 266
        0x0001c4be:    e004        ..      B        0x1c4ca ; am_hal_pwrctrl_periph_disable + 268
        0x0001c4c0:    6838        8h      LDR      r0,[r7,#0]
        0x0001c4c2:    f0100f1e    ....    TST      r0,#0x1e
        0x0001c4c6:    d000        ..      BEQ      0x1c4ca ; am_hal_pwrctrl_periph_disable + 268
        0x0001c4c8:    6838        8h      LDR      r0,[r7,#0]
        0x0001c4ca:    2500        .%      MOVS     r5,#0
        0x0001c4cc:    4628        (F      MOV      r0,r5
        0x0001c4ce:    b002        ..      ADD      sp,sp,#8
        0x0001c4d0:    e8bd81f0    ....    POP      {r4-r8,pc}
    am_hal_pwrctrl_periph_enable
        0x0001c4d4:    e92d41f0    -..A    PUSH     {r4-r8,lr}
        0x0001c4d8:    b082        ..      SUB      sp,sp,#8
        0x0001c4da:    2821        !(      CMP      r0,#0x21
        0x0001c4dc:    d901        ..      BLS      0x1c4e2 ; am_hal_pwrctrl_periph_enable + 14
        0x0001c4de:    2006        .       MOVS     r0,#6
        0x0001c4e0:    e043        C.      B        0x1c56a ; am_hal_pwrctrl_periph_enable + 150
        0x0001c4e2:    4604        .F      MOV      r4,r0
        0x0001c4e4:    f64e7090    N..p    MOV      r0,#0xef90
        0x0001c4e8:    f2c00001    ....    MOVT     r0,#1
        0x0001c4ec:    eb001104    ....    ADD      r1,r0,r4,LSL #4
        0x0001c4f0:    e9d18602    ....    LDRD     r8,r6,[r1,#8]
        0x0001c4f4:    2c14        .,      CMP      r4,#0x14
        0x0001c4f6:    d10b        ..      BNE      0x1c510 ; am_hal_pwrctrl_periph_enable + 60
        0x0001c4f8:    f2410004    A...    MOV      r0,#0x1004
        0x0001c4fc:    f2c40002    ....    MOVT     r0,#0x4002
        0x0001c500:    f44f1180    O...    MOV      r1,#0x100000
        0x0001c504:    f44f1280    O...    MOV      r2,#0x100000
        0x0001c508:    2310        .#      MOVS     r3,#0x10
        0x0001c50a:    f000fa47    ..G.    BL       am_hal_util_write_and_wait ; 0x1c99c
        0x0001c50e:    e016        ..      B        0x1c53e ; am_hal_pwrctrl_periph_enable + 106
        0x0001c510:    eb001104    ....    ADD      r1,r0,r4,LSL #4
        0x0001c514:    0122        ".      LSLS     r2,r4,#4
        0x0001c516:    684f        Oh      LDR      r7,[r1,#4]
        0x0001c518:    5885        .X      LDR      r5,[r0,r2]
        0x0001c51a:    f7fdff2b    ..+.    BL       am_hal_interrupt_master_disable ; 0x1a374
        0x0001c51e:    9001        ..      STR      r0,[sp,#4]
        0x0001c520:    6828        (h      LDR      r0,[r5,#0]
        0x0001c522:    4338        8C      ORRS     r0,r0,r7
        0x0001c524:    6028        (`      STR      r0,[r5,#0]
        0x0001c526:    9801        ..      LDR      r0,[sp,#4]
        0x0001c528:    f7fdff2c    ..,.    BL       am_hal_interrupt_master_set ; 0x1a384
        0x0001c52c:    2701        .'      MOVS     r7,#1
        0x0001c52e:    2005        .       MOVS     r0,#5
        0x0001c530:    4641        AF      MOV      r1,r8
        0x0001c532:    4632        2F      MOV      r2,r6
        0x0001c534:    4633        3F      MOV      r3,r6
        0x0001c536:    9700        ..      STR      r7,[sp,#0]
        0x0001c538:    f7fdfe96    ....    BL       am_hal_delay_us_status_check ; 0x1a268
        0x0001c53c:    b9a8        ..      CBNZ     r0,0x1c56a ; am_hal_pwrctrl_periph_enable + 150
        0x0001c53e:    f8d80000    ....    LDR      r0,[r8,#0]
        0x0001c542:    4030        0@      ANDS     r0,r0,r6
        0x0001c544:    fab0f080    ....    CLZ      r0,r0
        0x0001c548:    ea4f1050    O.P.    LSR      r0,r0,#5
        0x0001c54c:    d00d        ..      BEQ      0x1c56a ; am_hal_pwrctrl_periph_enable + 150
        0x0001c54e:    2c14        .,      CMP      r4,#0x14
        0x0001c550:    d10b        ..      BNE      0x1c56a ; am_hal_pwrctrl_periph_enable + 150
        0x0001c552:    f6417110    A..q    MOV      r1,#0x1f10
        0x0001c556:    f2c4010c    ....    MOVT     r1,#0x400c
        0x0001c55a:    2064        d       MOVS     r0,#0x64
        0x0001c55c:    2201        ."      MOVS     r2,#1
        0x0001c55e:    2301        .#      MOVS     r3,#1
        0x0001c560:    b002        ..      ADD      sp,sp,#8
        0x0001c562:    e8bd41f0    ...A    POP      {r4-r8,lr}
        0x0001c566:    f7fdbe55    ..U.    B        am_hal_delay_us_status_change ; 0x1a214
        0x0001c56a:    b002        ..      ADD      sp,sp,#8
        0x0001c56c:    e8bd81f0    ....    POP      {r4-r8,pc}
    am_hal_pwrctrl_sram_config
        0x0001c570:    b570        p.      PUSH     {r4-r6,lr}
        0x0001c572:    b082        ..      SUB      sp,sp,#8
        0x0001c574:    f2410624    A.$.    MOV      r6,#0x1024
        0x0001c578:    f2c40602    ....    MOVT     r6,#0x4002
        0x0001c57c:    4604        .F      MOV      r4,r0
        0x0001c57e:    7800        .x      LDRB     r0,[r0,#0]
        0x0001c580:    6831        1h      LDR      r1,[r6,#0]
        0x0001c582:    2501        .%      MOVS     r5,#1
        0x0001c584:    f3600101    `...    BFI      r1,r0,#0,#2
        0x0001c588:    6031        1`      STR      r1,[r6,#0]
        0x0001c58a:    4631        1F      MOV      r1,r6
        0x0001c58c:    f8513b04    Q..;    LDR      r3,[r1],#4
        0x0001c590:    2005        .       MOVS     r0,#5
        0x0001c592:    2203        ."      MOVS     r2,#3
        0x0001c594:    9500        ..      STR      r5,[sp,#0]
        0x0001c596:    f7fdfe67    ..g.    BL       am_hal_delay_us_status_check ; 0x1a268
        0x0001c59a:    2800        .(      CMP      r0,#0
        0x0001c59c:    d13a        :.      BNE      0x1c614 ; am_hal_pwrctrl_sram_config + 164
        0x0001c59e:    6870        ph      LDR      r0,[r6,#4]
        0x0001c5a0:    6831        1h      LDR      r1,[r6,#0]
        0x0001c5a2:    4048        H@      EORS     r0,r0,r1
        0x0001c5a4:    0780        ..      LSLS     r0,r0,#30
        0x0001c5a6:    d001        ..      BEQ      0x1c5ac ; am_hal_pwrctrl_sram_config + 60
        0x0001c5a8:    2001        .       MOVS     r0,#1
        0x0001c5aa:    e033        3.      B        0x1c614 ; am_hal_pwrctrl_sram_config + 164
        0x0001c5ac:    7860        `x      LDRB     r0,[r4,#1]
        0x0001c5ae:    68b1        .h      LDR      r1,[r6,#8]
        0x0001c5b0:    f3600183    `...    BFI      r1,r0,#2,#2
        0x0001c5b4:    60b1        .`      STR      r1,[r6,#8]
        0x0001c5b6:    78a0        .x      LDRB     r0,[r4,#2]
        0x0001c5b8:    68b1        .h      LDR      r1,[r6,#8]
        0x0001c5ba:    f0000003    ....    AND      r0,r0,#3
        0x0001c5be:    f02101c0    !...    BIC      r1,r1,#0xc0
        0x0001c5c2:    ea411080    A...    ORR      r0,r1,r0,LSL #6
        0x0001c5c6:    60b0        .`      STR      r0,[r6,#8]
        0x0001c5c8:    78e0        .x      LDRB     r0,[r4,#3]
        0x0001c5ca:    68b1        .h      LDR      r1,[r6,#8]
        0x0001c5cc:    f0000003    ....    AND      r0,r0,#3
        0x0001c5d0:    f4217140    !.@q    BIC      r1,r1,#0x300
        0x0001c5d4:    ea412000    A..     ORR      r0,r1,r0,LSL #8
        0x0001c5d8:    60b0        .`      STR      r0,[r6,#8]
        0x0001c5da:    7920         y      LDRB     r0,[r4,#4]
        0x0001c5dc:    68b1        .h      LDR      r1,[r6,#8]
        0x0001c5de:    f3601105    `...    BFI      r1,r0,#4,#2
        0x0001c5e2:    60b1        .`      STR      r1,[r6,#8]
        0x0001c5e4:    7960        `y      LDRB     r0,[r4,#5]
        0x0001c5e6:    2803        .(      CMP      r0,#3
        0x0001c5e8:    d813        ..      BHI      0x1c612 ; am_hal_pwrctrl_sram_config + 162
        0x0001c5ea:    e8dff000    ....    TBB      [pc,r0]
    $d.9
        0x0001c5ee:    0602        ..      DCW    1538
        0x0001c5f0:    0e09        ..      DCW    3593
    $t.10
        0x0001c5f2:    68b0        .h      LDR      r0,[r6,#8]
        0x0001c5f4:    f0400003    @...    ORR      r0,r0,#3
        0x0001c5f8:    e00a        ..      B        0x1c610 ; am_hal_pwrctrl_sram_config + 160
        0x0001c5fa:    68b0        .h      LDR      r0,[r6,#8]
        0x0001c5fc:    2102        .!      MOVS     r1,#2
        0x0001c5fe:    e001        ..      B        0x1c604 ; am_hal_pwrctrl_sram_config + 148
        0x0001c600:    68b0        .h      LDR      r0,[r6,#8]
        0x0001c602:    2101        .!      MOVS     r1,#1
        0x0001c604:    f3610001    a...    BFI      r0,r1,#0,#2
        0x0001c608:    e002        ..      B        0x1c610 ; am_hal_pwrctrl_sram_config + 160
        0x0001c60a:    68b0        .h      LDR      r0,[r6,#8]
        0x0001c60c:    f0200003     ...    BIC      r0,r0,#3
        0x0001c610:    60b0        .`      STR      r0,[r6,#8]
        0x0001c612:    2000        .       MOVS     r0,#0
        0x0001c614:    b002        ..      ADD      sp,sp,#8
        0x0001c616:    bd70        p.      POP      {r4-r6,pc}
    am_hal_rtc_osc_disable
        0x0001c618:    f6440100    D...    MOVW     r1,#0x4800
        0x0001c61c:    f2c40100    ....    MOVT     r1,#0x4000
        0x0001c620:    6808        .h      LDR      r0,[r1,#0]
        0x0001c622:    f0400210    @...    ORR      r2,r0,#0x10
        0x0001c626:    2000        .       MOVS     r0,#0
        0x0001c628:    600a        .`      STR      r2,[r1,#0]
        0x0001c62a:    4770        pG      BX       lr
    am_hal_timer_clear
        0x0001c62c:    b510        ..      PUSH     {r4,lr}
        0x0001c62e:    b082        ..      SUB      sp,sp,#8
        0x0001c630:    4604        .F      MOV      r4,r0
        0x0001c632:    f7fdfe9f    ....    BL       am_hal_interrupt_master_disable ; 0x1a374
        0x0001c636:    f2481104    H...    MOV      r1,#0x8104
        0x0001c63a:    9001        ..      STR      r0,[sp,#4]
        0x0001c63c:    f2c40100    ....    MOVT     r1,#0x4000
        0x0001c640:    2001        .       MOVS     r0,#1
        0x0001c642:    680a        .h      LDR      r2,[r1,#0]
        0x0001c644:    40a0        .@      LSLS     r0,r0,r4
        0x0001c646:    4382        .C      BICS     r2,r2,r0
        0x0001c648:    600a        .`      STR      r2,[r1,#0]
        0x0001c64a:    eb011244    ..D.    ADD      r2,r1,r4,LSL #5
        0x0001c64e:    f8d230fc    ...0    LDR      r3,[r2,#0xfc]
        0x0001c652:    f0230301    #...    BIC      r3,r3,#1
        0x0001c656:    f8c230fc    ...0    STR      r3,[r2,#0xfc]
        0x0001c65a:    f8d230fc    ...0    LDR      r3,[r2,#0xfc]
        0x0001c65e:    f0430302    C...    ORR      r3,r3,#2
        0x0001c662:    f8c230fc    ...0    STR      r3,[r2,#0xfc]
        0x0001c666:    f8d230fc    ...0    LDR      r3,[r2,#0xfc]
        0x0001c66a:    f0430301    C...    ORR      r3,r3,#1
        0x0001c66e:    f8c230fc    ...0    STR      r3,[r2,#0xfc]
        0x0001c672:    680a        .h      LDR      r2,[r1,#0]
        0x0001c674:    4310        .C      ORRS     r0,r0,r2
        0x0001c676:    6008        .`      STR      r0,[r1,#0]
        0x0001c678:    9801        ..      LDR      r0,[sp,#4]
        0x0001c67a:    f7fdfe83    ....    BL       am_hal_interrupt_master_set ; 0x1a384
        0x0001c67e:    2000        .       MOVS     r0,#0
        0x0001c680:    b002        ..      ADD      sp,sp,#8
        0x0001c682:    bd10        ..      POP      {r4,pc}
    am_hal_timer_clear_stop
        0x0001c684:    b510        ..      PUSH     {r4,lr}
        0x0001c686:    b082        ..      SUB      sp,sp,#8
        0x0001c688:    4604        .F      MOV      r4,r0
        0x0001c68a:    f7fdfe73    ..s.    BL       am_hal_interrupt_master_disable ; 0x1a374
        0x0001c68e:    f2481104    H...    MOV      r1,#0x8104
        0x0001c692:    9001        ..      STR      r0,[sp,#4]
        0x0001c694:    f2c40100    ....    MOVT     r1,#0x4000
        0x0001c698:    2001        .       MOVS     r0,#1
        0x0001c69a:    680a        .h      LDR      r2,[r1,#0]
        0x0001c69c:    40a0        .@      LSLS     r0,r0,r4
        0x0001c69e:    ea220000    "...    BIC      r0,r2,r0
        0x0001c6a2:    6008        .`      STR      r0,[r1,#0]
        0x0001c6a4:    eb011044    ..D.    ADD      r0,r1,r4,LSL #5
        0x0001c6a8:    f8d010fc    ....    LDR      r1,[r0,#0xfc]
        0x0001c6ac:    f0210101    !...    BIC      r1,r1,#1
        0x0001c6b0:    f8c010fc    ....    STR      r1,[r0,#0xfc]
        0x0001c6b4:    f8d010fc    ....    LDR      r1,[r0,#0xfc]
        0x0001c6b8:    f0410102    A...    ORR      r1,r1,#2
        0x0001c6bc:    f8c010fc    ....    STR      r1,[r0,#0xfc]
        0x0001c6c0:    f8d010fc    ....    LDR      r1,[r0,#0xfc]
        0x0001c6c4:    f0410101    A...    ORR      r1,r1,#1
        0x0001c6c8:    f8c010fc    ....    STR      r1,[r0,#0xfc]
        0x0001c6cc:    9801        ..      LDR      r0,[sp,#4]
        0x0001c6ce:    f7fdfe59    ..Y.    BL       am_hal_interrupt_master_set ; 0x1a384
        0x0001c6d2:    2000        .       MOVS     r0,#0
        0x0001c6d4:    b002        ..      ADD      sp,sp,#8
        0x0001c6d6:    bd10        ..      POP      {r4,pc}
    am_hal_timer_default_config_set
        0x0001c6d8:    4601        .F      MOV      r1,r0
        0x0001c6da:    f2401001    @...    MOV      r0,#0x101
        0x0001c6de:    8008        ..      STRH     r0,[r1,#0]
        0x0001c6e0:    f04f7080    O..p    MOV      r0,#0x1000000
        0x0001c6e4:    f04f32ff    O..2    MOV      r2,#0xffffffff
        0x0001c6e8:    f8c10002    ....    STR      r0,[r1,#2]
        0x0001c6ec:    2000        .       MOVS     r0,#0
        0x0001c6ee:    e9c10202    ....    STRD     r0,r2,[r1,#8]
        0x0001c6f2:    2000        .       MOVS     r0,#0
        0x0001c6f4:    610a        .a      STR      r2,[r1,#0x10]
        0x0001c6f6:    4770        pG      BX       lr
    am_hal_timer_disable
        0x0001c6f8:    b510        ..      PUSH     {r4,lr}
        0x0001c6fa:    b082        ..      SUB      sp,sp,#8
        0x0001c6fc:    4604        .F      MOV      r4,r0
        0x0001c6fe:    f7fdfe39    ..9.    BL       am_hal_interrupt_master_disable ; 0x1a374
        0x0001c702:    f2481104    H...    MOV      r1,#0x8104
        0x0001c706:    9001        ..      STR      r0,[sp,#4]
        0x0001c708:    f2c40100    ....    MOVT     r1,#0x4000
        0x0001c70c:    2001        .       MOVS     r0,#1
        0x0001c70e:    680a        .h      LDR      r2,[r1,#0]
        0x0001c710:    40a0        .@      LSLS     r0,r0,r4
        0x0001c712:    ea220000    "...    BIC      r0,r2,r0
        0x0001c716:    6008        .`      STR      r0,[r1,#0]
        0x0001c718:    eb011044    ..D.    ADD      r0,r1,r4,LSL #5
        0x0001c71c:    f8d010fc    ....    LDR      r1,[r0,#0xfc]
        0x0001c720:    f0210101    !...    BIC      r1,r1,#1
        0x0001c724:    f8c010fc    ....    STR      r1,[r0,#0xfc]
        0x0001c728:    9801        ..      LDR      r0,[sp,#4]
        0x0001c72a:    f7fdfe2b    ..+.    BL       am_hal_interrupt_master_set ; 0x1a384
        0x0001c72e:    2000        .       MOVS     r0,#0
        0x0001c730:    b002        ..      ADD      sp,sp,#8
        0x0001c732:    bd10        ..      POP      {r4,pc}
    am_hal_timer_enable
        0x0001c734:    b510        ..      PUSH     {r4,lr}
        0x0001c736:    b082        ..      SUB      sp,sp,#8
        0x0001c738:    4604        .F      MOV      r4,r0
        0x0001c73a:    f7fdfe1b    ....    BL       am_hal_interrupt_master_disable ; 0x1a374
        0x0001c73e:    f2480110    H...    MOV      r1,#0x8010
        0x0001c742:    9001        ..      STR      r0,[sp,#4]
        0x0001c744:    f2c40100    ....    MOVT     r1,#0x4000
        0x0001c748:    2001        .       MOVS     r0,#1
        0x0001c74a:    f8d120f4    ...     LDR      r2,[r1,#0xf4]
        0x0001c74e:    40a0        .@      LSLS     r0,r0,r4
        0x0001c750:    4382        .C      BICS     r2,r2,r0
        0x0001c752:    f8c120f4    ...     STR      r2,[r1,#0xf4]
        0x0001c756:    680a        .h      LDR      r2,[r1,#0]
        0x0001c758:    4302        .C      ORRS     r2,r2,r0
        0x0001c75a:    600a        .`      STR      r2,[r1,#0]
        0x0001c75c:    eb011244    ..D.    ADD      r2,r1,r4,LSL #5
        0x0001c760:    f8d231f0    ...1    LDR      r3,[r2,#0x1f0]
        0x0001c764:    f0430301    C...    ORR      r3,r3,#1
        0x0001c768:    f8c231f0    ...1    STR      r3,[r2,#0x1f0]
        0x0001c76c:    f8d120f4    ...     LDR      r2,[r1,#0xf4]
        0x0001c770:    4310        .C      ORRS     r0,r0,r2
        0x0001c772:    f8c100f4    ....    STR      r0,[r1,#0xf4]
        0x0001c776:    9801        ..      LDR      r0,[sp,#4]
        0x0001c778:    f7fdfe04    ....    BL       am_hal_interrupt_master_set ; 0x1a384
        0x0001c77c:    2000        .       MOVS     r0,#0
        0x0001c77e:    b002        ..      ADD      sp,sp,#8
        0x0001c780:    bd10        ..      POP      {r4,pc}
        0x0001c782:    0000        ..      MOVS     r0,r0
    am_hal_timer_enable_sync
        0x0001c784:    b5b0        ..      PUSH     {r4,r5,r7,lr}
        0x0001c786:    b082        ..      SUB      sp,sp,#8
        0x0001c788:    f2480510    H...    MOV      r5,#0x8010
        0x0001c78c:    4604        .F      MOV      r4,r0
        0x0001c78e:    f2c40500    ....    MOVT     r5,#0x4000
        0x0001c792:    f7fdfdef    ....    BL       am_hal_interrupt_master_disable ; 0x1a374
        0x0001c796:    9001        ..      STR      r0,[sp,#4]
        0x0001c798:    6828        (h      LDR      r0,[r5,#0]
        0x0001c79a:    f04f0c01    O...    MOV      r12,#1
        0x0001c79e:    ea200104     ...    BIC      r1,r0,r4
        0x0001c7a2:    4628        (F      MOV      r0,r5
        0x0001c7a4:    f8401910    @...    STR      r1,[r0],#-0x10
        0x0001c7a8:    2100        .!      MOVS     r1,#0
        0x0001c7aa:    bf00        ..      NOP      
        0x0001c7ac:    fa0cf301    ....    LSL      r3,r12,r1
        0x0001c7b0:    4223        #B      TST      r3,r4
        0x0001c7b2:    d00f        ..      BEQ      0x1c7d4 ; am_hal_timer_enable_sync + 80
        0x0001c7b4:    f8d520f4    ...     LDR      r2,[r5,#0xf4]
        0x0001c7b8:    439a        .C      BICS     r2,r2,r3
        0x0001c7ba:    f8c520f4    ...     STR      r2,[r5,#0xf4]
        0x0001c7be:    f8d02200    ..."    LDR      r2,[r0,#0x200]
        0x0001c7c2:    f0420201    B...    ORR      r2,r2,#1
        0x0001c7c6:    f8c02200    ..."    STR      r2,[r0,#0x200]
        0x0001c7ca:    f8d520f4    ...     LDR      r2,[r5,#0xf4]
        0x0001c7ce:    431a        .C      ORRS     r2,r2,r3
        0x0001c7d0:    f8c520f4    ...     STR      r2,[r5,#0xf4]
        0x0001c7d4:    3101        .1      ADDS     r1,#1
        0x0001c7d6:    2910        .)      CMP      r1,#0x10
        0x0001c7d8:    f1000020    .. .    ADD      r0,r0,#0x20
        0x0001c7dc:    d1e6        ..      BNE      0x1c7ac ; am_hal_timer_enable_sync + 40
        0x0001c7de:    6828        (h      LDR      r0,[r5,#0]
        0x0001c7e0:    4320         C      ORRS     r0,r0,r4
        0x0001c7e2:    6028        (`      STR      r0,[r5,#0]
        0x0001c7e4:    9801        ..      LDR      r0,[sp,#4]
        0x0001c7e6:    f7fdfdcd    ....    BL       am_hal_interrupt_master_set ; 0x1a384
        0x0001c7ea:    2000        .       MOVS     r0,#0
        0x0001c7ec:    b002        ..      ADD      sp,sp,#8
        0x0001c7ee:    bdb0        ..      POP      {r4,r5,r7,pc}
    am_hal_timer_interrupt_clear
        0x0001c7f0:    f2480268    H.h.    MOV      r2,#0x8068
        0x0001c7f4:    4601        .F      MOV      r1,r0
        0x0001c7f6:    f2c40200    ....    MOVT     r2,#0x4000
        0x0001c7fa:    2000        .       MOVS     r0,#0
        0x0001c7fc:    6011        .`      STR      r1,[r2,#0]
        0x0001c7fe:    4770        pG      BX       lr
    am_hal_timer_interrupt_enable
        0x0001c800:    210c        .!      MOVS     r1,#0xc
        0x0001c802:    f2c40102    ....    MOVT     r1,#0x4002
        0x0001c806:    6809        .h      LDR      r1,[r1,#0]
        0x0001c808:    f00101fe    ....    AND      r1,r1,#0xfe
        0x0001c80c:    2922        ")      CMP      r1,#0x22
        0x0001c80e:    d316        ..      BCC      0x1c83e ; am_hal_timer_interrupt_enable + 62
        0x0001c810:    f6423c88    B..<    MOV      r12,#0x2b88
        0x0001c814:    2100        .!      MOVS     r1,#0
        0x0001c816:    f2c10c00    ....    MOVT     r12,#0x1000
        0x0001c81a:    4603        .F      MOV      r3,r0
        0x0001c81c:    07da        ..      LSLS     r2,r3,#31
        0x0001c81e:    d003        ..      BEQ      0x1c828 ; am_hal_timer_interrupt_enable + 40
        0x0001c820:    eb0c0281    ....    ADD      r2,r12,r1,LSL #2
        0x0001c824:    7852        Rx      LDRB     r2,[r2,#1]
        0x0001c826:    b19a        ..      CBZ      r2,0x1c850 ; am_hal_timer_interrupt_enable + 80
        0x0001c828:    079a        ..      LSLS     r2,r3,#30
        0x0001c82a:    d503        ..      BPL      0x1c834 ; am_hal_timer_interrupt_enable + 52
        0x0001c82c:    eb0c0281    ....    ADD      r2,r12,r1,LSL #2
        0x0001c830:    78d2        .x      LDRB     r2,[r2,#3]
        0x0001c832:    b16a        j.      CBZ      r2,0x1c850 ; am_hal_timer_interrupt_enable + 80
        0x0001c834:    3101        .1      ADDS     r1,#1
        0x0001c836:    2910        .)      CMP      r1,#0x10
        0x0001c838:    ea4f0393    O...    LSR      r3,r3,#2
        0x0001c83c:    d1ee        ..      BNE      0x1c81c ; am_hal_timer_interrupt_enable + 28
        0x0001c83e:    f2480160    H.`.    MOV      r1,#0x8060
        0x0001c842:    f2c40100    ....    MOVT     r1,#0x4000
        0x0001c846:    680a        .h      LDR      r2,[r1,#0]
        0x0001c848:    4310        .C      ORRS     r0,r0,r2
        0x0001c84a:    6008        .`      STR      r0,[r1,#0]
        0x0001c84c:    2000        .       MOVS     r0,#0
        0x0001c84e:    4770        pG      BX       lr
        0x0001c850:    2006        .       MOVS     r0,#6
        0x0001c852:    4770        pG      BX       lr
    am_hal_timer_interrupt_status_get
        0x0001c854:    f2480360    H.`.    MOV      r3,#0x8060
        0x0001c858:    f2c40300    ....    MOVT     r3,#0x4000
        0x0001c85c:    685a        Zh      LDR      r2,[r3,#4]
        0x0001c85e:    b108        ..      CBZ      r0,0x1c864 ; am_hal_timer_interrupt_status_get + 16
        0x0001c860:    6818        .h      LDR      r0,[r3,#0]
        0x0001c862:    4002        .@      ANDS     r2,r2,r0
        0x0001c864:    2000        .       MOVS     r0,#0
        0x0001c866:    600a        .`      STR      r2,[r1,#0]
        0x0001c868:    4770        pG      BX       lr
    am_hal_timer_read
        0x0001c86a:    b580        ..      PUSH     {r7,lr}
        0x0001c86c:    b084        ..      SUB      sp,sp,#0x10
        0x0001c86e:    f2482104    H..!    MOV      r1,#0x8204
        0x0001c872:    f2c40100    ....    MOVT     r1,#0x4000
        0x0001c876:    eb011040    ..@.    ADD      r0,r1,r0,LSL #5
        0x0001c87a:    a901        ..      ADD      r1,sp,#4
        0x0001c87c:    f000f87c    ..|.    BL       am_hal_triple_read ; 0x1c978
        0x0001c880:    e9dd1201    ....    LDRD     r1,r2,[sp,#4]
        0x0001c884:    9803        ..      LDR      r0,[sp,#0xc]
        0x0001c886:    4291        .B      CMP      r1,r2
        0x0001c888:    bf08        ..      IT       EQ
        0x0001c88a:    4608        .F      MOVEQ    r0,r1
        0x0001c88c:    b004        ..      ADD      sp,sp,#0x10
        0x0001c88e:    bd80        ..      POP      {r7,pc}
    am_hal_timer_reset_config
        0x0001c890:    b5f0        ..      PUSH     {r4-r7,lr}
        0x0001c892:    b081        ..      SUB      sp,sp,#4
        0x0001c894:    f2480660    H.`.    MOV      r6,#0x8060
        0x0001c898:    f2c40600    ....    MOVT     r6,#0x4000
        0x0001c89c:    4604        .F      MOV      r4,r0
        0x0001c89e:    0040        @.      LSLS     r0,r0,#1
        0x0001c8a0:    2103        .!      MOVS     r1,#3
        0x0001c8a2:    6832        2h      LDR      r2,[r6,#0]
        0x0001c8a4:    fa01f700    ....    LSL      r7,r1,r0
        0x0001c8a8:    ea220007    "...    BIC      r0,r2,r7
        0x0001c8ac:    6030        0`      STR      r0,[r6,#0]
        0x0001c8ae:    2001        .       MOVS     r0,#1
        0x0001c8b0:    fa00f504    ....    LSL      r5,r0,r4
        0x0001c8b4:    4628        (F      MOV      r0,r5
        0x0001c8b6:    f7ffff65    ..e.    BL       am_hal_timer_enable_sync ; 0x1c784
        0x0001c8ba:    4620         F      MOV      r0,r4
        0x0001c8bc:    f7ffff1c    ....    BL       am_hal_timer_disable ; 0x1c6f8
        0x0001c8c0:    f8d600a4    ....    LDR      r0,[r6,#0xa4]
        0x0001c8c4:    2100        .!      MOVS     r1,#0
        0x0001c8c6:    43a8        .C      BICS     r0,r0,r5
        0x0001c8c8:    f8c600a4    ....    STR      r0,[r6,#0xa4]
        0x0001c8cc:    eb061044    ..D.    ADD      r0,r6,r4,LSL #5
        0x0001c8d0:    f8c011a0    ....    STR      r1,[r0,#0x1a0]
        0x0001c8d4:    f8c011a4    ....    STR      r1,[r0,#0x1a4]
        0x0001c8d8:    f8c011a8    ....    STR      r1,[r0,#0x1a8]
        0x0001c8dc:    f8c011ac    ....    STR      r1,[r0,#0x1ac]
        0x0001c8e0:    f8c011b0    ....    STR      r1,[r0,#0x1b0]
        0x0001c8e4:    f8d600a4    ....    LDR      r0,[r6,#0xa4]
        0x0001c8e8:    f6423288    B..2    MOV      r2,#0x2b88
        0x0001c8ec:    4328        (C      ORRS     r0,r0,r5
        0x0001c8ee:    f2c10200    ....    MOVT     r2,#0x1000
        0x0001c8f2:    f8c600a4    ....    STR      r0,[r6,#0xa4]
        0x0001c8f6:    60b7        .`      STR      r7,[r6,#8]
        0x0001c8f8:    2000        .       MOVS     r0,#0
        0x0001c8fa:    f8421024    B.$.    STR      r1,[r2,r4,LSL #2]
        0x0001c8fe:    b001        ..      ADD      sp,sp,#4
        0x0001c900:    bdf0        ..      POP      {r4-r7,pc}
    am_hal_tpiu_enable
        0x0001c902:    b580        ..      PUSH     {r7,lr}
        0x0001c904:    f24a3280    J..2    MOV      r2,#0xa380
        0x0001c908:    2104        .!      MOVS     r1,#4
        0x0001c90a:    f5a04361    ..aC    SUB      r3,r0,#0xe100
        0x0001c90e:    f2c0021d    ....    MOVT     r2,#0x1d
        0x0001c912:    f2ce0104    ....    MOVT     r1,#0xe004
        0x0001c916:    f04f0e00    O...    MOV      lr,#0
        0x0001c91a:    4293        .B      CMP      r3,r2
        0x0001c91c:    f2436200    C..b    MOVW     r2,#0x3600
        0x0001c920:    f8c1e300    ....    STR      lr,[r1,#0x300]
        0x0001c924:    bf84        ..      ITT      HI
        0x0001c926:    f2442040    D.@     MOVHI    r0,#0x4240
        0x0001c92a:    f2c0000f    ....    MOVTHI   r0,#0xf
        0x0001c92e:    f2c0126e    ..n.    MOVT     r2,#0x16e
        0x0001c932:    fbb2f0f0    ....    UDIV     r0,r2,r0
        0x0001c936:    f04f0c01    O...    MOV      r12,#1
        0x0001c93a:    3801        .8      SUBS     r0,#1
        0x0001c93c:    b280        ..      UXTH     r0,r0
        0x0001c93e:    f8c1c000    ....    STR      r12,[r1,#0]
        0x0001c942:    60c8        .`      STR      r0,[r1,#0xc]
        0x0001c944:    2002        .       MOVS     r0,#2
        0x0001c946:    f8c100ec    ....    STR      r0,[r1,#0xec]
        0x0001c94a:    f6407000    @..p    MOVW     r0,#0xf00
        0x0001c94e:    f2ce0004    ....    MOVT     r0,#0xe004
        0x0001c952:    f2402150    @.P!    MOVW     r1,#0x250
        0x0001c956:    f8c0e000    ....    STR      lr,[r0,#0]
        0x0001c95a:    f2c40102    ....    MOVT     r1,#0x4002
        0x0001c95e:    6808        .h      LDR      r0,[r1,#0]
        0x0001c960:    f36c0043    l.C.    BFI      r0,r12,#1,#3
        0x0001c964:    6008        .`      STR      r0,[r1,#0]
        0x0001c966:    6808        .h      LDR      r0,[r1,#0]
        0x0001c968:    f0400201    @...    ORR      r2,r0,#1
        0x0001c96c:    2064        d       MOVS     r0,#0x64
        0x0001c96e:    600a        .`      STR      r2,[r1,#0]
        0x0001c970:    e8bd4080    ...@    POP      {r7,lr}
        0x0001c974:    f7fdbc32    ..2.    B        am_hal_delay_us ; 0x1a1dc
    am_hal_triple_read
        0x0001c978:    b510        ..      PUSH     {r4,lr}
        0x0001c97a:    468c        .F      MOV      r12,r1
        0x0001c97c:    4686        .F      MOV      lr,r0
        0x0001c97e:    b412        ..      PUSH     {r1,r4}
        0x0001c980:    f3ef8410    ....    MRS      r4,PRIMASK
        0x0001c984:    b672        r.      CPSID    i
        0x0001c986:    bf00        ..      NOP      
        0x0001c988:    6801        .h      LDR      r1,[r0,#0]
        0x0001c98a:    6802        .h      LDR      r2,[r0,#0]
        0x0001c98c:    6803        .h      LDR      r3,[r0,#0]
        0x0001c98e:    f3848810    ....    MSR      PRIMASK,r4
        0x0001c992:    bc11        ..      POP      {r0,r4}
        0x0001c994:    6001        .`      STR      r1,[r0,#0]
        0x0001c996:    6042        B`      STR      r2,[r0,#4]
        0x0001c998:    6083        .`      STR      r3,[r0,#8]
        0x0001c99a:    bd10        ..      POP      {r4,pc}
    am_hal_util_write_and_wait
        0x0001c99c:    e92d4ff0    -..O    PUSH     {r4-r11,lr}
        0x0001c9a0:    b087        ..      SUB      sp,sp,#0x1c
        0x0001c9a2:    461f        .F      MOV      r7,r3
        0x0001c9a4:    4614        .F      MOV      r4,r2
        0x0001c9a6:    460e        .F      MOV      r6,r1
        0x0001c9a8:    4680        .F      MOV      r8,r0
        0x0001c9aa:    f7fdfce3    ....    BL       am_hal_interrupt_master_disable ; 0x1a374
        0x0001c9ae:    ad02        ..      ADD      r5,sp,#8
        0x0001c9b0:    9001        ..      STR      r0,[sp,#4]
        0x0001c9b2:    4628        (F      MOV      r0,r5
        0x0001c9b4:    f7fffe90    ....    BL       am_hal_timer_default_config_set ; 0x1c6d8
        0x0001c9b8:    f6485080    H..P    MOV      r0,#0x8d80
        0x0001c9bc:    f2c0005b    ..[.    MOVT     r0,#0x5b
        0x0001c9c0:    f64d6183    M..a    MOV      r1,#0xde83
        0x0001c9c4:    4378        xC      MULS     r0,r7,r0
        0x0001c9c6:    f2c4311b    ...1    MOVT     r1,#0x431b
        0x0001c9ca:    fba00101    ....    UMULL    r0,r1,r0,r1
        0x0001c9ce:    2001        .       MOVS     r0,#1
        0x0001c9d0:    f88d0009    ....    STRB     r0,[sp,#9]
        0x0001c9d4:    f04f30ff    O..0    MOV      r0,#0xffffffff
        0x0001c9d8:    9005        ..      STR      r0,[sp,#0x14]
        0x0001c9da:    2000        .       MOVS     r0,#0
        0x0001c9dc:    9004        ..      STR      r0,[sp,#0x10]
        0x0001c9de:    0c88        ..      LSRS     r0,r1,#18
        0x0001c9e0:    9006        ..      STR      r0,[sp,#0x18]
        0x0001c9e2:    200d        .       MOVS     r0,#0xd
        0x0001c9e4:    4629        )F      MOV      r1,r5
        0x0001c9e6:    f001f9ad    ....    BL       internal_timer_config ; 0x1dd44
        0x0001c9ea:    4607        .F      MOV      r7,r0
        0x0001c9ec:    2800        .(      CMP      r0,#0
        0x0001c9ee:    d171        q.      BNE      0x1cad4 ; am_hal_util_write_and_wait + 312
        0x0001c9f0:    200d        .       MOVS     r0,#0xd
        0x0001c9f2:    f7fffe1b    ....    BL       am_hal_timer_clear ; 0x1c62c
        0x0001c9f6:    200d        .       MOVS     r0,#0xd
        0x0001c9f8:    f7fffe7e    ..~.    BL       am_hal_timer_disable ; 0x1c6f8
        0x0001c9fc:    f04f6000    O..`    MOV      r0,#0x8000000
        0x0001ca00:    f7fffef6    ....    BL       am_hal_timer_interrupt_clear ; 0x1c7f0
        0x0001ca04:    4607        .F      MOV      r7,r0
        0x0001ca06:    2800        .(      CMP      r0,#0
        0x0001ca08:    d164        d.      BNE      0x1cad4 ; am_hal_util_write_and_wait + 312
        0x0001ca0a:    f04f6000    O..`    MOV      r0,#0x8000000
        0x0001ca0e:    f7fffef7    ....    BL       am_hal_timer_interrupt_enable ; 0x1c800
        0x0001ca12:    4607        .F      MOV      r7,r0
        0x0001ca14:    2800        .(      CMP      r0,#0
        0x0001ca16:    d15d        ].      BNE      0x1cad4 ; am_hal_util_write_and_wait + 312
        0x0001ca18:    f24e2a00    N..*    MOVW     r10,#0xe200
        0x0001ca1c:    f2ce0a00    ....    MOVT     r10,#0xe000
        0x0001ca20:    2000        .       MOVS     r0,#0
        0x0001ca22:    f88a0250    ..P.    STRB     r0,[r10,#0x250]
        0x0001ca26:    f44f3080    O..0    MOV      r0,#0x10000
        0x0001ca2a:    f64e570c    N..W    MOV      r7,#0xed0c
        0x0001ca2e:    f84a0cf8    J...    STR      r0,[r10,#-0xf8]
        0x0001ca32:    f2ce0700    ....    MOVT     r7,#0xe000
        0x0001ca36:    6838        8h      LDR      r0,[r7,#0]
        0x0001ca38:    f3c02502    ...%    UBFX     r5,r0,#8,#3
        0x0001ca3c:    2d07        .-      CMP      r5,#7
        0x0001ca3e:    d101        ..      BNE      0x1ca44 ; am_hal_util_write_and_wait + 168
        0x0001ca40:    2701        .'      MOVS     r7,#1
        0x0001ca42:    e047        G.      B        0x1cad4 ; am_hal_util_write_and_wait + 312
        0x0001ca44:    2002        .       MOVS     r0,#2
        0x0001ca46:    2100        .!      MOVS     r1,#0
        0x0001ca48:    f04f0b02    O...    MOV      r11,#2
        0x0001ca4c:    f7fdfa5c    ..\.    BL       am_hal_daxi_control ; 0x19f08
        0x0001ca50:    2d05        .-      CMP      r5,#5
        0x0001ca52:    f3ef8911    ....    MRS      r9,BASEPRI
        0x0001ca56:    bf34        4.      ITE      CC
        0x0001ca58:    2020                MOVCC    r0,#0x20
        0x0001ca5a:    fa0bf005    ....    LSLCS    r0,r11,r5
        0x0001ca5e:    f3808811    ....    MSR      BASEPRI,r0
        0x0001ca62:    1c70        p.      ADDS     r0,r6,#1
        0x0001ca64:    d003        ..      BEQ      0x1ca6e ; am_hal_util_write_and_wait + 210
        0x0001ca66:    f8d80000    ....    LDR      r0,[r8,#0]
        0x0001ca6a:    43b0        .C      BICS     r0,r0,r6
        0x0001ca6c:    4304        .C      ORRS     r4,r4,r0
        0x0001ca6e:    200d        .       MOVS     r0,#0xd
        0x0001ca70:    f7fffddc    ....    BL       am_hal_timer_clear ; 0x1c62c
        0x0001ca74:    6878        xh      LDR      r0,[r7,#4]
        0x0001ca76:    4641        AF      MOV      r1,r8
        0x0001ca78:    f0200004     ...    BIC      r0,r0,#4
        0x0001ca7c:    6078        x`      STR      r0,[r7,#4]
        0x0001ca7e:    f2403010    @..0    MOVW     r0,#0x310
        0x0001ca82:    f2c10000    ....    MOVT     r0,#0x1000
        0x0001ca86:    6802        .h      LDR      r2,[r0,#0]
        0x0001ca88:    4620         F      MOV      r0,r4
        0x0001ca8a:    4790        .G      BLX      r2
        0x0001ca8c:    200d        .       MOVS     r0,#0xd
        0x0001ca8e:    f7fffe33    ..3.    BL       am_hal_timer_disable ; 0x1c6f8
        0x0001ca92:    f04f6040    O.@`    MOV      r0,#0xc000000
        0x0001ca96:    f7fffeab    ....    BL       am_hal_timer_interrupt_clear ; 0x1c7f0
        0x0001ca9a:    a902        ..      ADD      r1,sp,#8
        0x0001ca9c:    2001        .       MOVS     r0,#1
        0x0001ca9e:    f7fffed9    ....    BL       am_hal_timer_interrupt_status_get ; 0x1c854
        0x0001caa2:    f44f3080    O..0    MOV      r0,#0x10000
        0x0001caa6:    f8ca0088    ....    STR      r0,[r10,#0x88]
        0x0001caaa:    9802        ..      LDR      r0,[sp,#8]
        0x0001caac:    f06f6440    o.@d    MVN      r4,#0xc000000
        0x0001cab0:    4220         B      TST      r0,r4
        0x0001cab2:    d10c        ..      BNE      0x1cace ; am_hal_util_write_and_wait + 306
        0x0001cab4:    f44f4580    O..E    MOV      r5,#0x4000
        0x0001cab8:    a902        ..      ADD      r1,sp,#8
        0x0001caba:    2001        .       MOVS     r0,#1
        0x0001cabc:    f8ca5080    ...P    STR      r5,[r10,#0x80]
        0x0001cac0:    f7fffec8    ....    BL       am_hal_timer_interrupt_status_get ; 0x1c854
        0x0001cac4:    9802        ..      LDR      r0,[sp,#8]
        0x0001cac6:    4220         B      TST      r0,r4
        0x0001cac8:    bf18        ..      IT       NE
        0x0001caca:    f8ca5000    ...P    STRNE    r5,[r10,#0]
        0x0001cace:    f3898811    ....    MSR      BASEPRI,r9
        0x0001cad2:    2700        .'      MOVS     r7,#0
        0x0001cad4:    9801        ..      LDR      r0,[sp,#4]
        0x0001cad6:    f7fdfc55    ..U.    BL       am_hal_interrupt_master_set ; 0x1a384
        0x0001cada:    4638        8F      MOV      r0,r7
        0x0001cadc:    b007        ..      ADD      sp,sp,#0x1c
        0x0001cade:    e8bd8ff0    ....    POP      {r4-r11,pc}
        0x0001cae2:    0000        ..      MOVS     r0,r0
    am_mspi0_isr
        0x0001cae4:    b580        ..      PUSH     {r7,lr}
        0x0001cae6:    b082        ..      SUB      sp,sp,#8
        0x0001cae8:    f6447080    D..p    MOVW     r0,#0x4f80
        0x0001caec:    f2c10000    ....    MOVT     r0,#0x1000
        0x0001caf0:    9000        ..      STR      r0,[sp,#0]
        0x0001caf2:    6800        .h      LDR      r0,[r0,#0]
        0x0001caf4:    a901        ..      ADD      r1,sp,#4
        0x0001caf6:    2200        ."      MOVS     r2,#0
        0x0001caf8:    f7feff56    ..V.    BL       am_hal_mspi_interrupt_status_get ; 0x1b9a8
        0x0001cafc:    9800        ..      LDR      r0,[sp,#0]
        0x0001cafe:    6800        .h      LDR      r0,[r0,#0]
        0x0001cb00:    9901        ..      LDR      r1,[sp,#4]
        0x0001cb02:    f7fefdb0    ....    BL       am_hal_mspi_interrupt_clear ; 0x1b666
        0x0001cb06:    9800        ..      LDR      r0,[sp,#0]
        0x0001cb08:    6800        .h      LDR      r0,[r0,#0]
        0x0001cb0a:    9901        ..      LDR      r1,[sp,#4]
        0x0001cb0c:    f7fefdf0    ....    BL       am_hal_mspi_interrupt_service ; 0x1b6f0
        0x0001cb10:    b002        ..      ADD      sp,sp,#8
        0x0001cb12:    bd80        ..      POP      {r7,pc}
    am_util_delay_ms
        0x0001cb14:    b580        ..      PUSH     {r7,lr}
        0x0001cb16:    b082        ..      SUB      sp,sp,#8
        0x0001cb18:    9001        ..      STR      r0,[sp,#4]
        0x0001cb1a:    9801        ..      LDR      r0,[sp,#4]
        0x0001cb1c:    f44f717a    O.zq    MOV      r1,#0x3e8
        0x0001cb20:    4348        HC      MULS     r0,r1,r0
        0x0001cb22:    f7fdfb5b    ..[.    BL       am_hal_delay_us ; 0x1a1dc
        0x0001cb26:    b002        ..      ADD      sp,sp,#8
        0x0001cb28:    bd80        ..      POP      {r7,pc}
        0x0001cb2a:    0000        ..      MOVS     r0,r0
    am_util_delay_us
        0x0001cb2c:    b580        ..      PUSH     {r7,lr}
        0x0001cb2e:    b082        ..      SUB      sp,sp,#8
        0x0001cb30:    9001        ..      STR      r0,[sp,#4]
        0x0001cb32:    9801        ..      LDR      r0,[sp,#4]
        0x0001cb34:    f7fdfb52    ..R.    BL       am_hal_delay_us ; 0x1a1dc
        0x0001cb38:    b002        ..      ADD      sp,sp,#8
        0x0001cb3a:    bd80        ..      POP      {r7,pc}
    am_util_faultisr_collect_data
        0x0001cb3c:    b580        ..      PUSH     {r7,lr}
        0x0001cb3e:    b096        ..      SUB      sp,sp,#0x58
        0x0001cb40:    9015        ..      STR      r0,[sp,#0x54]
        0x0001cb42:    2000        .       MOVS     r0,#0
        0x0001cb44:    9008        ..      STR      r0,[sp,#0x20]
        0x0001cb46:    9007        ..      STR      r0,[sp,#0x1c]
        0x0001cb48:    9006        ..      STR      r0,[sp,#0x18]
        0x0001cb4a:    9005        ..      STR      r0,[sp,#0x14]
        0x0001cb4c:    9004        ..      STR      r0,[sp,#0x10]
        0x0001cb4e:    9003        ..      STR      r0,[sp,#0xc]
        0x0001cb50:    9002        ..      STR      r0,[sp,#8]
        0x0001cb52:    9802        ..      LDR      r0,[sp,#8]
        0x0001cb54:    9013        ..      STR      r0,[sp,#0x4c]
        0x0001cb56:    f64e5028    N.(P    MOV      r0,#0xed28
        0x0001cb5a:    f2ce0000    ....    MOVT     r0,#0xe000
        0x0001cb5e:    6800        .h      LDR      r0,[r0,#0]
        0x0001cb60:    9013        ..      STR      r0,[sp,#0x4c]
        0x0001cb62:    9813        ..      LDR      r0,[sp,#0x4c]
        0x0001cb64:    f88d0050    ..P.    STRB     r0,[sp,#0x50]
        0x0001cb68:    9813        ..      LDR      r0,[sp,#0x4c]
        0x0001cb6a:    0a00        ..      LSRS     r0,r0,#8
        0x0001cb6c:    f88d0051    ..Q.    STRB     r0,[sp,#0x51]
        0x0001cb70:    9813        ..      LDR      r0,[sp,#0x4c]
        0x0001cb72:    0c00        ..      LSRS     r0,r0,#16
        0x0001cb74:    f8ad0052    ..R.    STRH     r0,[sp,#0x52]
        0x0001cb78:    f64e5038    N.8P    MOV      r0,#0xed38
        0x0001cb7c:    f2ce0000    ....    MOVT     r0,#0xe000
        0x0001cb80:    6800        .h      LDR      r0,[r0,#0]
        0x0001cb82:    9012        ..      STR      r0,[sp,#0x48]
        0x0001cb84:    9815        ..      LDR      r0,[sp,#0x54]
        0x0001cb86:    f000fcd7    ....    BL       am_valid_sp ; 0x1d538
        0x0001cb8a:    b3d8        ..      CBZ      r0,0x1cc04 ; am_util_faultisr_collect_data + 200
        0x0001cb8c:    e7ff        ..      B        0x1cb8e ; am_util_faultisr_collect_data + 82
        0x0001cb8e:    f89d0051    ..Q.    LDRB     r0,[sp,#0x51]
        0x0001cb92:    0780        ..      LSLS     r0,r0,#30
        0x0001cb94:    2800        .(      CMP      r0,#0
        0x0001cb96:    d506        ..      BPL      0x1cba6 ; am_util_faultisr_collect_data + 106
        0x0001cb98:    e7ff        ..      B        0x1cb9a ; am_util_faultisr_collect_data + 94
        0x0001cb9a:    9915        ..      LDR      r1,[sp,#0x54]
        0x0001cb9c:    2006        .       MOVS     r0,#6
        0x0001cb9e:    f001f8cd    ....    BL       getStackedReg ; 0x1dd3c
        0x0001cba2:    9001        ..      STR      r0,[sp,#4]
        0x0001cba4:    e003        ..      B        0x1cbae ; am_util_faultisr_collect_data + 114
        0x0001cba6:    f04f30ff    O..0    MOV      r0,#0xffffffff
        0x0001cbaa:    9001        ..      STR      r0,[sp,#4]
        0x0001cbac:    e7ff        ..      B        0x1cbae ; am_util_faultisr_collect_data + 114
        0x0001cbae:    9801        ..      LDR      r0,[sp,#4]
        0x0001cbb0:    9011        ..      STR      r0,[sp,#0x44]
        0x0001cbb2:    9915        ..      LDR      r1,[sp,#0x54]
        0x0001cbb4:    2000        .       MOVS     r0,#0
        0x0001cbb6:    f001f8c1    ....    BL       getStackedReg ; 0x1dd3c
        0x0001cbba:    9009        ..      STR      r0,[sp,#0x24]
        0x0001cbbc:    9915        ..      LDR      r1,[sp,#0x54]
        0x0001cbbe:    2001        .       MOVS     r0,#1
        0x0001cbc0:    f001f8bc    ....    BL       getStackedReg ; 0x1dd3c
        0x0001cbc4:    900a        ..      STR      r0,[sp,#0x28]
        0x0001cbc6:    9915        ..      LDR      r1,[sp,#0x54]
        0x0001cbc8:    2002        .       MOVS     r0,#2
        0x0001cbca:    f001f8b7    ....    BL       getStackedReg ; 0x1dd3c
        0x0001cbce:    900b        ..      STR      r0,[sp,#0x2c]
        0x0001cbd0:    9915        ..      LDR      r1,[sp,#0x54]
        0x0001cbd2:    2003        .       MOVS     r0,#3
        0x0001cbd4:    f001f8b2    ....    BL       getStackedReg ; 0x1dd3c
        0x0001cbd8:    900c        ..      STR      r0,[sp,#0x30]
        0x0001cbda:    9915        ..      LDR      r1,[sp,#0x54]
        0x0001cbdc:    2004        .       MOVS     r0,#4
        0x0001cbde:    f001f8ad    ....    BL       getStackedReg ; 0x1dd3c
        0x0001cbe2:    900d        ..      STR      r0,[sp,#0x34]
        0x0001cbe4:    9915        ..      LDR      r1,[sp,#0x54]
        0x0001cbe6:    2005        .       MOVS     r0,#5
        0x0001cbe8:    f001f8a8    ....    BL       getStackedReg ; 0x1dd3c
        0x0001cbec:    900e        ..      STR      r0,[sp,#0x38]
        0x0001cbee:    9915        ..      LDR      r1,[sp,#0x54]
        0x0001cbf0:    2006        .       MOVS     r0,#6
        0x0001cbf2:    f001f8a3    ....    BL       getStackedReg ; 0x1dd3c
        0x0001cbf6:    900f        ..      STR      r0,[sp,#0x3c]
        0x0001cbf8:    9915        ..      LDR      r1,[sp,#0x54]
        0x0001cbfa:    2007        .       MOVS     r0,#7
        0x0001cbfc:    f001f89e    ....    BL       getStackedReg ; 0x1dd3c
        0x0001cc00:    9010        ..      STR      r0,[sp,#0x40]
        0x0001cc02:    e7ff        ..      B        0x1cc04 ; am_util_faultisr_collect_data + 200
        0x0001cc04:    a803        ..      ADD      r0,sp,#0xc
        0x0001cc06:    f7fdfb69    ..i.    BL       am_hal_fault_status_get ; 0x1a2dc
        0x0001cc0a:    f64f009c    O...    MOV      r0,#0xf89c
        0x0001cc0e:    f2c00001    ....    MOVT     r0,#1
        0x0001cc12:    f000f927    ..'.    BL       am_util_stdio_printf ; 0x1ce64
        0x0001cc16:    9815        ..      LDR      r0,[sp,#0x54]
        0x0001cc18:    f000fc8e    ....    BL       am_valid_sp ; 0x1d538
        0x0001cc1c:    b938        8.      CBNZ     r0,0x1cc2e ; am_util_faultisr_collect_data + 242
        0x0001cc1e:    e7ff        ..      B        0x1cc20 ; am_util_faultisr_collect_data + 228
        0x0001cc20:    f64f002b    O.+.    MOV      r0,#0xf82b
        0x0001cc24:    f2c00001    ....    MOVT     r0,#1
        0x0001cc28:    f000f91c    ....    BL       am_util_stdio_printf ; 0x1ce64
        0x0001cc2c:    e03e        >.      B        0x1ccac ; am_util_faultisr_collect_data + 368
        0x0001cc2e:    f64f00c9    O...    MOV      r0,#0xf8c9
        0x0001cc32:    f2c00001    ....    MOVT     r0,#1
        0x0001cc36:    f000f915    ....    BL       am_util_stdio_printf ; 0x1ce64
        0x0001cc3a:    9909        ..      LDR      r1,[sp,#0x24]
        0x0001cc3c:    f64f20dc    O..     MOV      r0,#0xfadc
        0x0001cc40:    f2c00001    ....    MOVT     r0,#1
        0x0001cc44:    f000f90e    ....    BL       am_util_stdio_printf ; 0x1ce64
        0x0001cc48:    990a        ..      LDR      r1,[sp,#0x28]
        0x0001cc4a:    f64f20ee    O..     MOV      r0,#0xfaee
        0x0001cc4e:    f2c00001    ....    MOVT     r0,#1
        0x0001cc52:    f000f907    ....    BL       am_util_stdio_printf ; 0x1ce64
        0x0001cc56:    990b        ..      LDR      r1,[sp,#0x2c]
        0x0001cc58:    f64f3000    O..0    MOVW     r0,#0xfb00
        0x0001cc5c:    f2c00001    ....    MOVT     r0,#1
        0x0001cc60:    f000f900    ....    BL       am_util_stdio_printf ; 0x1ce64
        0x0001cc64:    990c        ..      LDR      r1,[sp,#0x30]
        0x0001cc66:    f64f3012    O..0    MOV      r0,#0xfb12
        0x0001cc6a:    f2c00001    ....    MOVT     r0,#1
        0x0001cc6e:    f000f8f9    ....    BL       am_util_stdio_printf ; 0x1ce64
        0x0001cc72:    990d        ..      LDR      r1,[sp,#0x34]
        0x0001cc74:    f64f3070    O.p0    MOV      r0,#0xfb70
        0x0001cc78:    f2c00001    ....    MOVT     r0,#1
        0x0001cc7c:    f000f8f2    ....    BL       am_util_stdio_printf ; 0x1ce64
        0x0001cc80:    990e        ..      LDR      r1,[sp,#0x38]
        0x0001cc82:    f64f3036    O.60    MOV      r0,#0xfb36
        0x0001cc86:    f2c00001    ....    MOVT     r0,#1
        0x0001cc8a:    f000f8eb    ....    BL       am_util_stdio_printf ; 0x1ce64
        0x0001cc8e:    990f        ..      LDR      r1,[sp,#0x3c]
        0x0001cc90:    f64f3024    O.$0    MOV      r0,#0xfb24
        0x0001cc94:    f2c00001    ....    MOVT     r0,#1
        0x0001cc98:    f000f8e4    ....    BL       am_util_stdio_printf ; 0x1ce64
        0x0001cc9c:    9910        ..      LDR      r1,[sp,#0x40]
        0x0001cc9e:    f64f00b6    O...    MOV      r0,#0xf8b6
        0x0001cca2:    f2c00001    ....    MOVT     r0,#1
        0x0001cca6:    f000f8dd    ....    BL       am_util_stdio_printf ; 0x1ce64
        0x0001ccaa:    e7ff        ..      B        0x1ccac ; am_util_faultisr_collect_data + 368
        0x0001ccac:    f64f00f5    O...    MOV      r0,#0xf8f5
        0x0001ccb0:    f2c00001    ....    MOVT     r0,#1
        0x0001ccb4:    f000f8d6    ....    BL       am_util_stdio_printf ; 0x1ce64
        0x0001ccb8:    9911        ..      LDR      r1,[sp,#0x44]
        0x0001ccba:    f64f3082    O..0    MOV      r0,#0xfb82
        0x0001ccbe:    f2c00001    ....    MOVT     r0,#1
        0x0001ccc2:    f000f8cf    ....    BL       am_util_stdio_printf ; 0x1ce64
        0x0001ccc6:    9912        ..      LDR      r1,[sp,#0x48]
        0x0001ccc8:    f64f3048    O.H0    MOV      r0,#0xfb48
        0x0001cccc:    f2c00001    ....    MOVT     r0,#1
        0x0001ccd0:    f000f8c8    ....    BL       am_util_stdio_printf ; 0x1ce64
        0x0001ccd4:    f89d1050    ..P.    LDRB     r1,[sp,#0x50]
        0x0001ccd8:    f64f2020    O.      MOV      r0,#0xfa20
        0x0001ccdc:    f2c00001    ....    MOVT     r0,#1
        0x0001cce0:    f000f8c0    ....    BL       am_util_stdio_printf ; 0x1ce64
        0x0001cce4:    f8bd1052    ..R.    LDRH     r1,[sp,#0x52]
        0x0001cce8:    f64f204f    O.O     MOV      r0,#0xfa4f
        0x0001ccec:    f2c00001    ....    MOVT     r0,#1
        0x0001ccf0:    f000f8b8    ....    BL       am_util_stdio_printf ; 0x1ce64
        0x0001ccf4:    f89d1051    ..Q.    LDRB     r1,[sp,#0x51]
        0x0001ccf8:    f64f10f6    O...    MOV      r0,#0xf9f6
        0x0001ccfc:    f2c00001    ....    MOVT     r0,#1
        0x0001cd00:    f000f8b0    ....    BL       am_util_stdio_printf ; 0x1ce64
        0x0001cd04:    2080        .       MOVS     r0,#0x80
        0x0001cd06:    9002        ..      STR      r0,[sp,#8]
        0x0001cd08:    e7ff        ..      B        0x1cd0a ; am_util_faultisr_collect_data + 462
        0x0001cd0a:    9802        ..      LDR      r0,[sp,#8]
        0x0001cd0c:    2800        .(      CMP      r0,#0
        0x0001cd0e:    d062        b.      BEQ      0x1cdd6 ; am_util_faultisr_collect_data + 666
        0x0001cd10:    e7ff        ..      B        0x1cd12 ; am_util_faultisr_collect_data + 470
        0x0001cd12:    f89d0051    ..Q.    LDRB     r0,[sp,#0x51]
        0x0001cd16:    9902        ..      LDR      r1,[sp,#8]
        0x0001cd18:    4008        .@      ANDS     r0,r0,r1
        0x0001cd1a:    4601        .F      MOV      r1,r0
        0x0001cd1c:    9100        ..      STR      r1,[sp,#0]
        0x0001cd1e:    2801        .(      CMP      r0,#1
        0x0001cd20:    d04d        M.      BEQ      0x1cdbe ; am_util_faultisr_collect_data + 642
        0x0001cd22:    e7ff        ..      B        0x1cd24 ; am_util_faultisr_collect_data + 488
        0x0001cd24:    9800        ..      LDR      r0,[sp,#0]
        0x0001cd26:    2802        .(      CMP      r0,#2
        0x0001cd28:    d042        B.      BEQ      0x1cdb0 ; am_util_faultisr_collect_data + 628
        0x0001cd2a:    e7ff        ..      B        0x1cd2c ; am_util_faultisr_collect_data + 496
        0x0001cd2c:    9800        ..      LDR      r0,[sp,#0]
        0x0001cd2e:    2804        .(      CMP      r0,#4
        0x0001cd30:    d037        7.      BEQ      0x1cda2 ; am_util_faultisr_collect_data + 614
        0x0001cd32:    e7ff        ..      B        0x1cd34 ; am_util_faultisr_collect_data + 504
        0x0001cd34:    9800        ..      LDR      r0,[sp,#0]
        0x0001cd36:    2808        .(      CMP      r0,#8
        0x0001cd38:    d02c        ,.      BEQ      0x1cd94 ; am_util_faultisr_collect_data + 600
        0x0001cd3a:    e7ff        ..      B        0x1cd3c ; am_util_faultisr_collect_data + 512
        0x0001cd3c:    9800        ..      LDR      r0,[sp,#0]
        0x0001cd3e:    2810        .(      CMP      r0,#0x10
        0x0001cd40:    d021        !.      BEQ      0x1cd86 ; am_util_faultisr_collect_data + 586
        0x0001cd42:    e7ff        ..      B        0x1cd44 ; am_util_faultisr_collect_data + 520
        0x0001cd44:    9800        ..      LDR      r0,[sp,#0]
        0x0001cd46:    2820         (      CMP      r0,#0x20
        0x0001cd48:    d016        ..      BEQ      0x1cd78 ; am_util_faultisr_collect_data + 572
        0x0001cd4a:    e7ff        ..      B        0x1cd4c ; am_util_faultisr_collect_data + 528
        0x0001cd4c:    9800        ..      LDR      r0,[sp,#0]
        0x0001cd4e:    2840        @(      CMP      r0,#0x40
        0x0001cd50:    d00b        ..      BEQ      0x1cd6a ; am_util_faultisr_collect_data + 558
        0x0001cd52:    e7ff        ..      B        0x1cd54 ; am_util_faultisr_collect_data + 536
        0x0001cd54:    9800        ..      LDR      r0,[sp,#0]
        0x0001cd56:    2880        .(      CMP      r0,#0x80
        0x0001cd58:    d138        8.      BNE      0x1cdcc ; am_util_faultisr_collect_data + 656
        0x0001cd5a:    e7ff        ..      B        0x1cd5c ; am_util_faultisr_collect_data + 544
        0x0001cd5c:    f64f102a    O.*.    MOV      r0,#0xf92a
        0x0001cd60:    f2c00001    ....    MOVT     r0,#1
        0x0001cd64:    f000f87e    ..~.    BL       am_util_stdio_printf ; 0x1ce64
        0x0001cd68:    e031        1.      B        0x1cdce ; am_util_faultisr_collect_data + 658
        0x0001cd6a:    f64f100d    O...    MOV      r0,#0xf90d
        0x0001cd6e:    f2c00001    ....    MOVT     r0,#1
        0x0001cd72:    f000f877    ..w.    BL       am_util_stdio_printf ; 0x1ce64
        0x0001cd76:    e02a        *.      B        0x1cdce ; am_util_faultisr_collect_data + 658
        0x0001cd78:    f64f109f    O...    MOV      r0,#0xf99f
        0x0001cd7c:    f2c00001    ....    MOVT     r0,#1
        0x0001cd80:    f000f870    ..p.    BL       am_util_stdio_printf ; 0x1ce64
        0x0001cd84:    e023        #.      B        0x1cdce ; am_util_faultisr_collect_data + 658
        0x0001cd86:    f64f1067    O.g.    MOV      r0,#0xf967
        0x0001cd8a:    f2c00001    ....    MOVT     r0,#1
        0x0001cd8e:    f000f869    ..i.    BL       am_util_stdio_printf ; 0x1ce64
        0x0001cd92:    e01c        ..      B        0x1cdce ; am_util_faultisr_collect_data + 658
        0x0001cd94:    f64f1082    O...    MOV      r0,#0xf982
        0x0001cd98:    f2c00001    ....    MOVT     r0,#1
        0x0001cd9c:    f000f862    ..b.    BL       am_util_stdio_printf ; 0x1ce64
        0x0001cda0:    e015        ..      B        0x1cdce ; am_util_faultisr_collect_data + 658
        0x0001cda2:    f64f10ba    O...    MOV      r0,#0xf9ba
        0x0001cda6:    f2c00001    ....    MOVT     r0,#1
        0x0001cdaa:    f000f85b    ..[.    BL       am_util_stdio_printf ; 0x1ce64
        0x0001cdae:    e00e        ..      B        0x1cdce ; am_util_faultisr_collect_data + 658
        0x0001cdb0:    f64f1048    O.H.    MOV      r0,#0xf948
        0x0001cdb4:    f2c00001    ....    MOVT     r0,#1
        0x0001cdb8:    f000f854    ..T.    BL       am_util_stdio_printf ; 0x1ce64
        0x0001cdbc:    e007        ..      B        0x1cdce ; am_util_faultisr_collect_data + 658
        0x0001cdbe:    f64f10da    O...    MOV      r0,#0xf9da
        0x0001cdc2:    f2c00001    ....    MOVT     r0,#1
        0x0001cdc6:    f000f84d    ..M.    BL       am_util_stdio_printf ; 0x1ce64
        0x0001cdca:    e000        ..      B        0x1cdce ; am_util_faultisr_collect_data + 658
        0x0001cdcc:    e7ff        ..      B        0x1cdce ; am_util_faultisr_collect_data + 658
        0x0001cdce:    9802        ..      LDR      r0,[sp,#8]
        0x0001cdd0:    0840        @.      LSRS     r0,r0,#1
        0x0001cdd2:    9002        ..      STR      r0,[sp,#8]
        0x0001cdd4:    e799        ..      B        0x1cd0a ; am_util_faultisr_collect_data + 462
        0x0001cdd6:    f89d000c    ....    LDRB     r0,[sp,#0xc]
        0x0001cdda:    07c0        ..      LSLS     r0,r0,#31
        0x0001cddc:    b950        P.      CBNZ     r0,0x1cdf4 ; am_util_faultisr_collect_data + 696
        0x0001cdde:    e7ff        ..      B        0x1cde0 ; am_util_faultisr_collect_data + 676
        0x0001cde0:    f89d0014    ....    LDRB     r0,[sp,#0x14]
        0x0001cde4:    07c0        ..      LSLS     r0,r0,#31
        0x0001cde6:    b928        (.      CBNZ     r0,0x1cdf4 ; am_util_faultisr_collect_data + 696
        0x0001cde8:    e7ff        ..      B        0x1cdea ; am_util_faultisr_collect_data + 686
        0x0001cdea:    f89d001c    ....    LDRB     r0,[sp,#0x1c]
        0x0001cdee:    07c0        ..      LSLS     r0,r0,#31
        0x0001cdf0:    b138        8.      CBZ      r0,0x1ce02 ; am_util_faultisr_collect_data + 710
        0x0001cdf2:    e7ff        ..      B        0x1cdf4 ; am_util_faultisr_collect_data + 696
        0x0001cdf4:    f64f00e3    O...    MOV      r0,#0xf8e3
        0x0001cdf8:    f2c00001    ....    MOVT     r0,#1
        0x0001cdfc:    f000f832    ..2.    BL       am_util_stdio_printf ; 0x1ce64
        0x0001ce00:    e7ff        ..      B        0x1ce02 ; am_util_faultisr_collect_data + 710
        0x0001ce02:    f89d000c    ....    LDRB     r0,[sp,#0xc]
        0x0001ce06:    07c0        ..      LSLS     r0,r0,#31
        0x0001ce08:    b140        @.      CBZ      r0,0x1ce1c ; am_util_faultisr_collect_data + 736
        0x0001ce0a:    e7ff        ..      B        0x1ce0c ; am_util_faultisr_collect_data + 720
        0x0001ce0c:    9904        ..      LDR      r1,[sp,#0x10]
        0x0001ce0e:    f64f209c    O..     MOV      r0,#0xfa9c
        0x0001ce12:    f2c00001    ....    MOVT     r0,#1
        0x0001ce16:    f000f825    ..%.    BL       am_util_stdio_printf ; 0x1ce64
        0x0001ce1a:    e7ff        ..      B        0x1ce1c ; am_util_faultisr_collect_data + 736
        0x0001ce1c:    f89d0014    ....    LDRB     r0,[sp,#0x14]
        0x0001ce20:    07c0        ..      LSLS     r0,r0,#31
        0x0001ce22:    b140        @.      CBZ      r0,0x1ce36 ; am_util_faultisr_collect_data + 762
        0x0001ce24:    e7ff        ..      B        0x1ce26 ; am_util_faultisr_collect_data + 746
        0x0001ce26:    9906        ..      LDR      r1,[sp,#0x18]
        0x0001ce28:    f64f207b    O.{     MOV      r0,#0xfa7b
        0x0001ce2c:    f2c00001    ....    MOVT     r0,#1
        0x0001ce30:    f000f818    ....    BL       am_util_stdio_printf ; 0x1ce64
        0x0001ce34:    e7ff        ..      B        0x1ce36 ; am_util_faultisr_collect_data + 762
        0x0001ce36:    f89d001c    ....    LDRB     r0,[sp,#0x1c]
        0x0001ce3a:    07c0        ..      LSLS     r0,r0,#31
        0x0001ce3c:    b140        @.      CBZ      r0,0x1ce50 ; am_util_faultisr_collect_data + 788
        0x0001ce3e:    e7ff        ..      B        0x1ce40 ; am_util_faultisr_collect_data + 772
        0x0001ce40:    9908        ..      LDR      r1,[sp,#0x20]
        0x0001ce42:    f64f20bd    O..     MOV      r0,#0xfabd
        0x0001ce46:    f2c00001    ....    MOVT     r0,#1
        0x0001ce4a:    f000f80b    ....    BL       am_util_stdio_printf ; 0x1ce64
        0x0001ce4e:    e7ff        ..      B        0x1ce50 ; am_util_faultisr_collect_data + 788
        0x0001ce50:    f64f006e    O.n.    MOV      r0,#0xf86e
        0x0001ce54:    f2c00001    ....    MOVT     r0,#1
        0x0001ce58:    f000f804    ....    BL       am_util_stdio_printf ; 0x1ce64
        0x0001ce5c:    2000        .       MOVS     r0,#0
        0x0001ce5e:    9002        ..      STR      r0,[sp,#8]
        0x0001ce60:    e7ff        ..      B        0x1ce62 ; am_util_faultisr_collect_data + 806
        0x0001ce62:    e7fe        ..      B        0x1ce62 ; am_util_faultisr_collect_data + 806
    am_util_stdio_printf
        0x0001ce64:    b083        ..      SUB      sp,sp,#0xc
        0x0001ce66:    b580        ..      PUSH     {r7,lr}
        0x0001ce68:    b085        ..      SUB      sp,sp,#0x14
        0x0001ce6a:    9309        ..      STR      r3,[sp,#0x24]
        0x0001ce6c:    9208        ..      STR      r2,[sp,#0x20]
        0x0001ce6e:    9107        ..      STR      r1,[sp,#0x1c]
        0x0001ce70:    9003        ..      STR      r0,[sp,#0xc]
        0x0001ce72:    f6443020    D. 0    MOV      r0,#0x4b20
        0x0001ce76:    f2c10000    ....    MOVT     r0,#0x1000
        0x0001ce7a:    6800        .h      LDR      r0,[r0,#0]
        0x0001ce7c:    b918        ..      CBNZ     r0,0x1ce86 ; am_util_stdio_printf + 34
        0x0001ce7e:    e7ff        ..      B        0x1ce80 ; am_util_stdio_printf + 28
        0x0001ce80:    2000        .       MOVS     r0,#0
        0x0001ce82:    9004        ..      STR      r0,[sp,#0x10]
        0x0001ce84:    e016        ..      B        0x1ceb4 ; am_util_stdio_printf + 80
        0x0001ce86:    a807        ..      ADD      r0,sp,#0x1c
        0x0001ce88:    9001        ..      STR      r0,[sp,#4]
        0x0001ce8a:    9903        ..      LDR      r1,[sp,#0xc]
        0x0001ce8c:    9a01        ..      LDR      r2,[sp,#4]
        0x0001ce8e:    f6443024    D.$0    MOV      r0,#0x4b24
        0x0001ce92:    f2c10000    ....    MOVT     r0,#0x1000
        0x0001ce96:    9000        ..      STR      r0,[sp,#0]
        0x0001ce98:    f000f824    ..$.    BL       am_util_stdio_vsprintf ; 0x1cee4
        0x0001ce9c:    4601        .F      MOV      r1,r0
        0x0001ce9e:    9800        ..      LDR      r0,[sp,#0]
        0x0001cea0:    9102        ..      STR      r1,[sp,#8]
        0x0001cea2:    f6443120    D. 1    MOV      r1,#0x4b20
        0x0001cea6:    f2c10100    ....    MOVT     r1,#0x1000
        0x0001ceaa:    6809        .h      LDR      r1,[r1,#0]
        0x0001ceac:    4788        .G      BLX      r1
        0x0001ceae:    9802        ..      LDR      r0,[sp,#8]
        0x0001ceb0:    9004        ..      STR      r0,[sp,#0x10]
        0x0001ceb2:    e7ff        ..      B        0x1ceb4 ; am_util_stdio_printf + 80
        0x0001ceb4:    9804        ..      LDR      r0,[sp,#0x10]
        0x0001ceb6:    b005        ..      ADD      sp,sp,#0x14
        0x0001ceb8:    e8bd4080    ...@    POP      {r7,lr}
        0x0001cebc:    b003        ..      ADD      sp,sp,#0xc
        0x0001cebe:    4770        pG      BX       lr
    am_util_stdio_printf_init
        0x0001cec0:    b081        ..      SUB      sp,sp,#4
        0x0001cec2:    9000        ..      STR      r0,[sp,#0]
        0x0001cec4:    9800        ..      LDR      r0,[sp,#0]
        0x0001cec6:    f6443120    D. 1    MOV      r1,#0x4b20
        0x0001ceca:    f2c10100    ....    MOVT     r1,#0x1000
        0x0001cece:    6008        .`      STR      r0,[r1,#0]
        0x0001ced0:    b001        ..      ADD      sp,sp,#4
        0x0001ced2:    4770        pG      BX       lr
    am_util_stdio_terminal_clear
        0x0001ced4:    b580        ..      PUSH     {r7,lr}
        0x0001ced6:    f64f309e    O..0    MOV      r0,#0xfb9e
        0x0001ceda:    f2c00001    ....    MOVT     r0,#1
        0x0001cede:    f7ffffc1    ....    BL       am_util_stdio_printf ; 0x1ce64
        0x0001cee2:    bd80        ..      POP      {r7,pc}
    am_util_stdio_vsprintf
        0x0001cee4:    b580        ..      PUSH     {r7,lr}
        0x0001cee6:    b09e        ..      SUB      sp,sp,#0x78
        0x0001cee8:    921d        ..      STR      r2,[sp,#0x74]
        0x0001ceea:    901c        ..      STR      r0,[sp,#0x70]
        0x0001ceec:    911b        ..      STR      r1,[sp,#0x6c]
        0x0001ceee:    2000        .       MOVS     r0,#0
        0x0001cef0:    9014        ..      STR      r0,[sp,#0x50]
        0x0001cef2:    900e        ..      STR      r0,[sp,#0x38]
        0x0001cef4:    e7ff        ..      B        0x1cef6 ; am_util_stdio_vsprintf + 18
        0x0001cef6:    981b        ..      LDR      r0,[sp,#0x6c]
        0x0001cef8:    7800        .x      LDRB     r0,[r0,#0]
        0x0001cefa:    2800        .(      CMP      r0,#0
        0x0001cefc:    f0008312    ....    BEQ.W    0x1d524 ; am_util_stdio_vsprintf + 1600
        0x0001cf00:    e7ff        ..      B        0x1cf02 ; am_util_stdio_vsprintf + 30
        0x0001cf02:    2006        .       MOVS     r0,#6
        0x0001cf04:    9011        ..      STR      r0,[sp,#0x44]
        0x0001cf06:    981b        ..      LDR      r0,[sp,#0x6c]
        0x0001cf08:    7800        .x      LDRB     r0,[r0,#0]
        0x0001cf0a:    2825        %(      CMP      r0,#0x25
        0x0001cf0c:    d027        '.      BEQ      0x1cf5e ; am_util_stdio_vsprintf + 122
        0x0001cf0e:    e7ff        ..      B        0x1cf10 ; am_util_stdio_vsprintf + 44
        0x0001cf10:    981c        ..      LDR      r0,[sp,#0x70]
        0x0001cf12:    b1e8        ..      CBZ      r0,0x1cf50 ; am_util_stdio_vsprintf + 108
        0x0001cf14:    e7ff        ..      B        0x1cf16 ; am_util_stdio_vsprintf + 50
        0x0001cf16:    981b        ..      LDR      r0,[sp,#0x6c]
        0x0001cf18:    7800        .x      LDRB     r0,[r0,#0]
        0x0001cf1a:    280a        .(      CMP      r0,#0xa
        0x0001cf1c:    d111        ..      BNE      0x1cf42 ; am_util_stdio_vsprintf + 94
        0x0001cf1e:    e7ff        ..      B        0x1cf20 ; am_util_stdio_vsprintf + 60
        0x0001cf20:    f644301c    D..0    MOV      r0,#0x4b1c
        0x0001cf24:    f2c10000    ....    MOVT     r0,#0x1000
        0x0001cf28:    7800        .x      LDRB     r0,[r0,#0]
        0x0001cf2a:    07c0        ..      LSLS     r0,r0,#31
        0x0001cf2c:    b148        H.      CBZ      r0,0x1cf42 ; am_util_stdio_vsprintf + 94
        0x0001cf2e:    e7ff        ..      B        0x1cf30 ; am_util_stdio_vsprintf + 76
        0x0001cf30:    991c        ..      LDR      r1,[sp,#0x70]
        0x0001cf32:    1c48        H.      ADDS     r0,r1,#1
        0x0001cf34:    901c        ..      STR      r0,[sp,#0x70]
        0x0001cf36:    200d        .       MOVS     r0,#0xd
        0x0001cf38:    7008        .p      STRB     r0,[r1,#0]
        0x0001cf3a:    9814        ..      LDR      r0,[sp,#0x50]
        0x0001cf3c:    3001        .0      ADDS     r0,#1
        0x0001cf3e:    9014        ..      STR      r0,[sp,#0x50]
        0x0001cf40:    e7ff        ..      B        0x1cf42 ; am_util_stdio_vsprintf + 94
        0x0001cf42:    981b        ..      LDR      r0,[sp,#0x6c]
        0x0001cf44:    7800        .x      LDRB     r0,[r0,#0]
        0x0001cf46:    991c        ..      LDR      r1,[sp,#0x70]
        0x0001cf48:    1c4a        J.      ADDS     r2,r1,#1
        0x0001cf4a:    921c        ..      STR      r2,[sp,#0x70]
        0x0001cf4c:    7008        .p      STRB     r0,[r1,#0]
        0x0001cf4e:    e7ff        ..      B        0x1cf50 ; am_util_stdio_vsprintf + 108
        0x0001cf50:    981b        ..      LDR      r0,[sp,#0x6c]
        0x0001cf52:    3001        .0      ADDS     r0,#1
        0x0001cf54:    901b        ..      STR      r0,[sp,#0x6c]
        0x0001cf56:    9814        ..      LDR      r0,[sp,#0x50]
        0x0001cf58:    3001        .0      ADDS     r0,#1
        0x0001cf5a:    9014        ..      STR      r0,[sp,#0x50]
        0x0001cf5c:    e7cb        ..      B        0x1cef6 ; am_util_stdio_vsprintf + 18
        0x0001cf5e:    981b        ..      LDR      r0,[sp,#0x6c]
        0x0001cf60:    3001        .0      ADDS     r0,#1
        0x0001cf62:    901b        ..      STR      r0,[sp,#0x6c]
        0x0001cf64:    2000        .       MOVS     r0,#0
        0x0001cf66:    f88d0040    ..@.    STRB     r0,[sp,#0x40]
        0x0001cf6a:    f88d0041    ..A.    STRB     r0,[sp,#0x41]
        0x0001cf6e:    2020                MOVS     r0,#0x20
        0x0001cf70:    f88d0042    ..B.    STRB     r0,[sp,#0x42]
        0x0001cf74:    981b        ..      LDR      r0,[sp,#0x6c]
        0x0001cf76:    7800        .x      LDRB     r0,[r0,#0]
        0x0001cf78:    2830        0(      CMP      r0,#0x30
        0x0001cf7a:    d107        ..      BNE      0x1cf8c ; am_util_stdio_vsprintf + 168
        0x0001cf7c:    e7ff        ..      B        0x1cf7e ; am_util_stdio_vsprintf + 154
        0x0001cf7e:    2030        0       MOVS     r0,#0x30
        0x0001cf80:    f88d0042    ..B.    STRB     r0,[sp,#0x42]
        0x0001cf84:    981b        ..      LDR      r0,[sp,#0x6c]
        0x0001cf86:    3001        .0      ADDS     r0,#1
        0x0001cf88:    901b        ..      STR      r0,[sp,#0x6c]
        0x0001cf8a:    e7ff        ..      B        0x1cf8c ; am_util_stdio_vsprintf + 168
        0x0001cf8c:    981b        ..      LDR      r0,[sp,#0x6c]
        0x0001cf8e:    a915        ..      ADD      r1,sp,#0x54
        0x0001cf90:    f000fc74    ..t.    BL       decstr_to_int ; 0x1d87c
        0x0001cf94:    9013        ..      STR      r0,[sp,#0x4c]
        0x0001cf96:    9915        ..      LDR      r1,[sp,#0x54]
        0x0001cf98:    981b        ..      LDR      r0,[sp,#0x6c]
        0x0001cf9a:    4408        .D      ADD      r0,r0,r1
        0x0001cf9c:    901b        ..      STR      r0,[sp,#0x6c]
        0x0001cf9e:    981b        ..      LDR      r0,[sp,#0x6c]
        0x0001cfa0:    7800        .x      LDRB     r0,[r0,#0]
        0x0001cfa2:    2873        s(      CMP      r0,#0x73
        0x0001cfa4:    d009        ..      BEQ      0x1cfba ; am_util_stdio_vsprintf + 214
        0x0001cfa6:    e7ff        ..      B        0x1cfa8 ; am_util_stdio_vsprintf + 196
        0x0001cfa8:    9813        ..      LDR      r0,[sp,#0x4c]
        0x0001cfaa:    f1b03fff    ...?    CMP      r0,#0xffffffff
        0x0001cfae:    dc04        ..      BGT      0x1cfba ; am_util_stdio_vsprintf + 214
        0x0001cfb0:    e7ff        ..      B        0x1cfb2 ; am_util_stdio_vsprintf + 206
        0x0001cfb2:    9813        ..      LDR      r0,[sp,#0x4c]
        0x0001cfb4:    4240        @B      RSBS     r0,r0,#0
        0x0001cfb6:    9013        ..      STR      r0,[sp,#0x4c]
        0x0001cfb8:    e7ff        ..      B        0x1cfba ; am_util_stdio_vsprintf + 214
        0x0001cfba:    981b        ..      LDR      r0,[sp,#0x6c]
        0x0001cfbc:    7800        .x      LDRB     r0,[r0,#0]
        0x0001cfbe:    282e        .(      CMP      r0,#0x2e
        0x0001cfc0:    d10d        ..      BNE      0x1cfde ; am_util_stdio_vsprintf + 250
        0x0001cfc2:    e7ff        ..      B        0x1cfc4 ; am_util_stdio_vsprintf + 224
        0x0001cfc4:    981b        ..      LDR      r0,[sp,#0x6c]
        0x0001cfc6:    3001        .0      ADDS     r0,#1
        0x0001cfc8:    901b        ..      STR      r0,[sp,#0x6c]
        0x0001cfca:    981b        ..      LDR      r0,[sp,#0x6c]
        0x0001cfcc:    a915        ..      ADD      r1,sp,#0x54
        0x0001cfce:    f000fc55    ..U.    BL       decstr_to_int ; 0x1d87c
        0x0001cfd2:    9011        ..      STR      r0,[sp,#0x44]
        0x0001cfd4:    9915        ..      LDR      r1,[sp,#0x54]
        0x0001cfd6:    981b        ..      LDR      r0,[sp,#0x6c]
        0x0001cfd8:    4408        .D      ADD      r0,r0,r1
        0x0001cfda:    901b        ..      STR      r0,[sp,#0x6c]
        0x0001cfdc:    e7ff        ..      B        0x1cfde ; am_util_stdio_vsprintf + 250
        0x0001cfde:    981b        ..      LDR      r0,[sp,#0x6c]
        0x0001cfe0:    7800        .x      LDRB     r0,[r0,#0]
        0x0001cfe2:    286c        l(      CMP      r0,#0x6c
        0x0001cfe4:    d110        ..      BNE      0x1d008 ; am_util_stdio_vsprintf + 292
        0x0001cfe6:    e7ff        ..      B        0x1cfe8 ; am_util_stdio_vsprintf + 260
        0x0001cfe8:    981b        ..      LDR      r0,[sp,#0x6c]
        0x0001cfea:    3001        .0      ADDS     r0,#1
        0x0001cfec:    901b        ..      STR      r0,[sp,#0x6c]
        0x0001cfee:    981b        ..      LDR      r0,[sp,#0x6c]
        0x0001cff0:    7800        .x      LDRB     r0,[r0,#0]
        0x0001cff2:    286c        l(      CMP      r0,#0x6c
        0x0001cff4:    d107        ..      BNE      0x1d006 ; am_util_stdio_vsprintf + 290
        0x0001cff6:    e7ff        ..      B        0x1cff8 ; am_util_stdio_vsprintf + 276
        0x0001cff8:    981b        ..      LDR      r0,[sp,#0x6c]
        0x0001cffa:    3001        .0      ADDS     r0,#1
        0x0001cffc:    901b        ..      STR      r0,[sp,#0x6c]
        0x0001cffe:    2001        .       MOVS     r0,#1
        0x0001d000:    f88d0040    ..@.    STRB     r0,[sp,#0x40]
        0x0001d004:    e7ff        ..      B        0x1d006 ; am_util_stdio_vsprintf + 290
        0x0001d006:    e7ff        ..      B        0x1d008 ; am_util_stdio_vsprintf + 292
        0x0001d008:    981b        ..      LDR      r0,[sp,#0x6c]
        0x0001d00a:    7800        .x      LDRB     r0,[r0,#0]
        0x0001d00c:    3846        F8      SUBS     r0,r0,#0x46
        0x0001d00e:    4601        .F      MOV      r1,r0
        0x0001d010:    910b        ..      STR      r1,[sp,#0x2c]
        0x0001d012:    2832        2(      CMP      r0,#0x32
        0x0001d014:    f2008273    ..s.    BHI.W    0x1d4fe ; am_util_stdio_vsprintf + 1562
        0x0001d018:    990b        ..      LDR      r1,[sp,#0x2c]
        0x0001d01a:    e8dff011    ....    TBH      [pc,r1,LSL #1]
    $d.4
        0x0001d01e:    0224        $.      DCW    548
        0x0001d020:    02700270    p.p.    DCD    40895088
        0x0001d024:    02700270    p.p.    DCD    40895088
        0x0001d028:    02700270    p.p.    DCD    40895088
        0x0001d02c:    02700270    p.p.    DCD    40895088
        0x0001d030:    02700270    p.p.    DCD    40895088
        0x0001d034:    02700270    p.p.    DCD    40895088
        0x0001d038:    02700270    p.p.    DCD    40895088
        0x0001d03c:    02700270    p.p.    DCD    40895088
        0x0001d040:    00bf0270    p...    DCD    12518000
        0x0001d044:    02700270    p.p.    DCD    40895088
        0x0001d048:    02700270    p.p.    DCD    40895088
        0x0001d04c:    02700270    p.p.    DCD    40895088
        0x0001d050:    02700270    p.p.    DCD    40895088
        0x0001d054:    02700270    p.p.    DCD    40895088
        0x0001d058:    016f0033    3.o.    DCD    24051763
        0x0001d05c:    02240270    p.$.    DCD    35914352
        0x0001d060:    02700270    p.p.    DCD    40895088
        0x0001d064:    0270016f    o.p.    DCD    40894831
        0x0001d068:    02700270    p.p.    DCD    40895088
        0x0001d06c:    02700270    p.p.    DCD    40895088
        0x0001d070:    02700270    p.p.    DCD    40895088
        0x0001d074:    02700270    p.p.    DCD    40895088
        0x0001d078:    02700047    G.p.    DCD    40894535
        0x0001d07c:    02700119    ..p.    DCD    40894745
        0x0001d080:    00bb0270    p...    DCD    12255856
    $t.5
        0x0001d084:    981d        ..      LDR      r0,[sp,#0x74]
        0x0001d086:    1d01        ..      ADDS     r1,r0,#4
        0x0001d088:    911d        ..      STR      r1,[sp,#0x74]
        0x0001d08a:    6800        .h      LDR      r0,[r0,#0]
        0x0001d08c:    f88d0043    ..C.    STRB     r0,[sp,#0x43]
        0x0001d090:    981c        ..      LDR      r0,[sp,#0x70]
        0x0001d092:    b138        8.      CBZ      r0,0x1d0a4 ; am_util_stdio_vsprintf + 448
        0x0001d094:    e7ff        ..      B        0x1d096 ; am_util_stdio_vsprintf + 434
        0x0001d096:    f89d0043    ..C.    LDRB     r0,[sp,#0x43]
        0x0001d09a:    991c        ..      LDR      r1,[sp,#0x70]
        0x0001d09c:    1c4a        J.      ADDS     r2,r1,#1
        0x0001d09e:    921c        ..      STR      r2,[sp,#0x70]
        0x0001d0a0:    7008        .p      STRB     r0,[r1,#0]
        0x0001d0a2:    e7ff        ..      B        0x1d0a4 ; am_util_stdio_vsprintf + 448
        0x0001d0a4:    9814        ..      LDR      r0,[sp,#0x50]
        0x0001d0a6:    3001        .0      ADDS     r0,#1
        0x0001d0a8:    9014        ..      STR      r0,[sp,#0x50]
        0x0001d0aa:    e236        6.      B        0x1d51a ; am_util_stdio_vsprintf + 1590
        0x0001d0ac:    981d        ..      LDR      r0,[sp,#0x74]
        0x0001d0ae:    1d01        ..      ADDS     r1,r0,#4
        0x0001d0b0:    911d        ..      STR      r1,[sp,#0x74]
        0x0001d0b2:    6800        .h      LDR      r0,[r0,#0]
        0x0001d0b4:    901a        ..      STR      r0,[sp,#0x68]
        0x0001d0b6:    981a        ..      LDR      r0,[sp,#0x68]
        0x0001d0b8:    f001fd22    ..".    BL       simple_strlen ; 0x1eb00
        0x0001d0bc:    900e        ..      STR      r0,[sp,#0x38]
        0x0001d0be:    9813        ..      LDR      r0,[sp,#0x4c]
        0x0001d0c0:    2801        .(      CMP      r0,#1
        0x0001d0c2:    db25        %.      BLT      0x1d110 ; am_util_stdio_vsprintf + 556
        0x0001d0c4:    e7ff        ..      B        0x1d0c6 ; am_util_stdio_vsprintf + 482
        0x0001d0c6:    980e        ..      LDR      r0,[sp,#0x38]
        0x0001d0c8:    9913        ..      LDR      r1,[sp,#0x4c]
        0x0001d0ca:    4288        .B      CMP      r0,r1
        0x0001d0cc:    d21f        ..      BCS      0x1d10e ; am_util_stdio_vsprintf + 554
        0x0001d0ce:    e7ff        ..      B        0x1d0d0 ; am_util_stdio_vsprintf + 492
        0x0001d0d0:    990e        ..      LDR      r1,[sp,#0x38]
        0x0001d0d2:    9813        ..      LDR      r0,[sp,#0x4c]
        0x0001d0d4:    1a40        @.      SUBS     r0,r0,r1
        0x0001d0d6:    9013        ..      STR      r0,[sp,#0x4c]
        0x0001d0d8:    981c        ..      LDR      r0,[sp,#0x70]
        0x0001d0da:    f89d1042    ..B.    LDRB     r1,[sp,#0x42]
        0x0001d0de:    9a13        ..      LDR      r2,[sp,#0x4c]
        0x0001d0e0:    f001fab8    ....    BL       padbuffer ; 0x1e654
        0x0001d0e4:    9013        ..      STR      r0,[sp,#0x4c]
        0x0001d0e6:    981c        ..      LDR      r0,[sp,#0x70]
        0x0001d0e8:    b118        ..      CBZ      r0,0x1d0f2 ; am_util_stdio_vsprintf + 526
        0x0001d0ea:    e7ff        ..      B        0x1d0ec ; am_util_stdio_vsprintf + 520
        0x0001d0ec:    9813        ..      LDR      r0,[sp,#0x4c]
        0x0001d0ee:    900a        ..      STR      r0,[sp,#0x28]
        0x0001d0f0:    e002        ..      B        0x1d0f8 ; am_util_stdio_vsprintf + 532
        0x0001d0f2:    2000        .       MOVS     r0,#0
        0x0001d0f4:    900a        ..      STR      r0,[sp,#0x28]
        0x0001d0f6:    e7ff        ..      B        0x1d0f8 ; am_util_stdio_vsprintf + 532
        0x0001d0f8:    990a        ..      LDR      r1,[sp,#0x28]
        0x0001d0fa:    981c        ..      LDR      r0,[sp,#0x70]
        0x0001d0fc:    4408        .D      ADD      r0,r0,r1
        0x0001d0fe:    901c        ..      STR      r0,[sp,#0x70]
        0x0001d100:    9913        ..      LDR      r1,[sp,#0x4c]
        0x0001d102:    9814        ..      LDR      r0,[sp,#0x50]
        0x0001d104:    4408        .D      ADD      r0,r0,r1
        0x0001d106:    9014        ..      STR      r0,[sp,#0x50]
        0x0001d108:    2000        .       MOVS     r0,#0
        0x0001d10a:    9013        ..      STR      r0,[sp,#0x4c]
        0x0001d10c:    e7ff        ..      B        0x1d10e ; am_util_stdio_vsprintf + 554
        0x0001d10e:    e7ff        ..      B        0x1d110 ; am_util_stdio_vsprintf + 556
        0x0001d110:    e7ff        ..      B        0x1d112 ; am_util_stdio_vsprintf + 558
        0x0001d112:    981a        ..      LDR      r0,[sp,#0x68]
        0x0001d114:    7800        .x      LDRB     r0,[r0,#0]
        0x0001d116:    b188        ..      CBZ      r0,0x1d13c ; am_util_stdio_vsprintf + 600
        0x0001d118:    e7ff        ..      B        0x1d11a ; am_util_stdio_vsprintf + 566
        0x0001d11a:    981c        ..      LDR      r0,[sp,#0x70]
        0x0001d11c:    b138        8.      CBZ      r0,0x1d12e ; am_util_stdio_vsprintf + 586
        0x0001d11e:    e7ff        ..      B        0x1d120 ; am_util_stdio_vsprintf + 572
        0x0001d120:    981a        ..      LDR      r0,[sp,#0x68]
        0x0001d122:    7800        .x      LDRB     r0,[r0,#0]
        0x0001d124:    991c        ..      LDR      r1,[sp,#0x70]
        0x0001d126:    1c4a        J.      ADDS     r2,r1,#1
        0x0001d128:    921c        ..      STR      r2,[sp,#0x70]
        0x0001d12a:    7008        .p      STRB     r0,[r1,#0]
        0x0001d12c:    e7ff        ..      B        0x1d12e ; am_util_stdio_vsprintf + 586
        0x0001d12e:    981a        ..      LDR      r0,[sp,#0x68]
        0x0001d130:    3001        .0      ADDS     r0,#1
        0x0001d132:    901a        ..      STR      r0,[sp,#0x68]
        0x0001d134:    9814        ..      LDR      r0,[sp,#0x50]
        0x0001d136:    3001        .0      ADDS     r0,#1
        0x0001d138:    9014        ..      STR      r0,[sp,#0x50]
        0x0001d13a:    e7ea        ..      B        0x1d112 ; am_util_stdio_vsprintf + 558
        0x0001d13c:    9813        ..      LDR      r0,[sp,#0x4c]
        0x0001d13e:    b340        @.      CBZ      r0,0x1d192 ; am_util_stdio_vsprintf + 686
        0x0001d140:    e7ff        ..      B        0x1d142 ; am_util_stdio_vsprintf + 606
        0x0001d142:    9813        ..      LDR      r0,[sp,#0x4c]
        0x0001d144:    4240        @B      RSBS     r0,r0,#0
        0x0001d146:    9013        ..      STR      r0,[sp,#0x4c]
        0x0001d148:    980e        ..      LDR      r0,[sp,#0x38]
        0x0001d14a:    9913        ..      LDR      r1,[sp,#0x4c]
        0x0001d14c:    4288        .B      CMP      r0,r1
        0x0001d14e:    d21f        ..      BCS      0x1d190 ; am_util_stdio_vsprintf + 684
        0x0001d150:    e7ff        ..      B        0x1d152 ; am_util_stdio_vsprintf + 622
        0x0001d152:    990e        ..      LDR      r1,[sp,#0x38]
        0x0001d154:    9813        ..      LDR      r0,[sp,#0x4c]
        0x0001d156:    1a40        @.      SUBS     r0,r0,r1
        0x0001d158:    9013        ..      STR      r0,[sp,#0x4c]
        0x0001d15a:    981c        ..      LDR      r0,[sp,#0x70]
        0x0001d15c:    f89d1042    ..B.    LDRB     r1,[sp,#0x42]
        0x0001d160:    9a13        ..      LDR      r2,[sp,#0x4c]
        0x0001d162:    f001fa77    ..w.    BL       padbuffer ; 0x1e654
        0x0001d166:    9013        ..      STR      r0,[sp,#0x4c]
        0x0001d168:    981c        ..      LDR      r0,[sp,#0x70]
        0x0001d16a:    b118        ..      CBZ      r0,0x1d174 ; am_util_stdio_vsprintf + 656
        0x0001d16c:    e7ff        ..      B        0x1d16e ; am_util_stdio_vsprintf + 650
        0x0001d16e:    9813        ..      LDR      r0,[sp,#0x4c]
        0x0001d170:    9009        ..      STR      r0,[sp,#0x24]
        0x0001d172:    e002        ..      B        0x1d17a ; am_util_stdio_vsprintf + 662
        0x0001d174:    2000        .       MOVS     r0,#0
        0x0001d176:    9009        ..      STR      r0,[sp,#0x24]
        0x0001d178:    e7ff        ..      B        0x1d17a ; am_util_stdio_vsprintf + 662
        0x0001d17a:    9909        ..      LDR      r1,[sp,#0x24]
        0x0001d17c:    981c        ..      LDR      r0,[sp,#0x70]
        0x0001d17e:    4408        .D      ADD      r0,r0,r1
        0x0001d180:    901c        ..      STR      r0,[sp,#0x70]
        0x0001d182:    9913        ..      LDR      r1,[sp,#0x4c]
        0x0001d184:    9814        ..      LDR      r0,[sp,#0x50]
        0x0001d186:    4408        .D      ADD      r0,r0,r1
        0x0001d188:    9014        ..      STR      r0,[sp,#0x50]
        0x0001d18a:    2000        .       MOVS     r0,#0
        0x0001d18c:    9013        ..      STR      r0,[sp,#0x4c]
        0x0001d18e:    e7ff        ..      B        0x1d190 ; am_util_stdio_vsprintf + 684
        0x0001d190:    e7ff        ..      B        0x1d192 ; am_util_stdio_vsprintf + 686
        0x0001d192:    e1c2        ..      B        0x1d51a ; am_util_stdio_vsprintf + 1590
        0x0001d194:    2001        .       MOVS     r0,#1
        0x0001d196:    f88d0041    ..A.    STRB     r0,[sp,#0x41]
        0x0001d19a:    e7ff        ..      B        0x1d19c ; am_util_stdio_vsprintf + 696
        0x0001d19c:    f89d0040    ..@.    LDRB     r0,[sp,#0x40]
        0x0001d1a0:    07c0        ..      LSLS     r0,r0,#31
        0x0001d1a2:    b160        `.      CBZ      r0,0x1d1be ; am_util_stdio_vsprintf + 730
        0x0001d1a4:    e7ff        ..      B        0x1d1a6 ; am_util_stdio_vsprintf + 706
        0x0001d1a6:    981d        ..      LDR      r0,[sp,#0x74]
        0x0001d1a8:    3007        .0      ADDS     r0,#7
        0x0001d1aa:    f0200007     ...    BIC      r0,r0,#7
        0x0001d1ae:    f1000108    ....    ADD      r1,r0,#8
        0x0001d1b2:    911d        ..      STR      r1,[sp,#0x74]
        0x0001d1b4:    6801        .h      LDR      r1,[r0,#0]
        0x0001d1b6:    6840        @h      LDR      r0,[r0,#4]
        0x0001d1b8:    9107        ..      STR      r1,[sp,#0x1c]
        0x0001d1ba:    9008        ..      STR      r0,[sp,#0x20]
        0x0001d1bc:    e007        ..      B        0x1d1ce ; am_util_stdio_vsprintf + 746
        0x0001d1be:    981d        ..      LDR      r0,[sp,#0x74]
        0x0001d1c0:    1d01        ..      ADDS     r1,r0,#4
        0x0001d1c2:    911d        ..      STR      r1,[sp,#0x74]
        0x0001d1c4:    6801        .h      LDR      r1,[r0,#0]
        0x0001d1c6:    2000        .       MOVS     r0,#0
        0x0001d1c8:    9107        ..      STR      r1,[sp,#0x1c]
        0x0001d1ca:    9008        ..      STR      r0,[sp,#0x20]
        0x0001d1cc:    e7ff        ..      B        0x1d1ce ; am_util_stdio_vsprintf + 746
        0x0001d1ce:    9907        ..      LDR      r1,[sp,#0x1c]
        0x0001d1d0:    9808        ..      LDR      r0,[sp,#0x20]
        0x0001d1d2:    9118        ..      STR      r1,[sp,#0x60]
        0x0001d1d4:    9019        ..      STR      r0,[sp,#0x64]
        0x0001d1d6:    9813        ..      LDR      r0,[sp,#0x4c]
        0x0001d1d8:    b318        ..      CBZ      r0,0x1d222 ; am_util_stdio_vsprintf + 830
        0x0001d1da:    e7ff        ..      B        0x1d1dc ; am_util_stdio_vsprintf + 760
        0x0001d1dc:    9818        ..      LDR      r0,[sp,#0x60]
        0x0001d1de:    9919        ..      LDR      r1,[sp,#0x64]
        0x0001d1e0:    f001f9e2    ....    BL       ndigits_in_hex ; 0x1e5a8
        0x0001d1e4:    4601        .F      MOV      r1,r0
        0x0001d1e6:    9813        ..      LDR      r0,[sp,#0x4c]
        0x0001d1e8:    1a40        @.      SUBS     r0,r0,r1
        0x0001d1ea:    9013        ..      STR      r0,[sp,#0x4c]
        0x0001d1ec:    981c        ..      LDR      r0,[sp,#0x70]
        0x0001d1ee:    f89d1042    ..B.    LDRB     r1,[sp,#0x42]
        0x0001d1f2:    9a13        ..      LDR      r2,[sp,#0x4c]
        0x0001d1f4:    f001fa2e    ....    BL       padbuffer ; 0x1e654
        0x0001d1f8:    9013        ..      STR      r0,[sp,#0x4c]
        0x0001d1fa:    981c        ..      LDR      r0,[sp,#0x70]
        0x0001d1fc:    b118        ..      CBZ      r0,0x1d206 ; am_util_stdio_vsprintf + 802
        0x0001d1fe:    e7ff        ..      B        0x1d200 ; am_util_stdio_vsprintf + 796
        0x0001d200:    9813        ..      LDR      r0,[sp,#0x4c]
        0x0001d202:    9006        ..      STR      r0,[sp,#0x18]
        0x0001d204:    e002        ..      B        0x1d20c ; am_util_stdio_vsprintf + 808
        0x0001d206:    2000        .       MOVS     r0,#0
        0x0001d208:    9006        ..      STR      r0,[sp,#0x18]
        0x0001d20a:    e7ff        ..      B        0x1d20c ; am_util_stdio_vsprintf + 808
        0x0001d20c:    9906        ..      LDR      r1,[sp,#0x18]
        0x0001d20e:    981c        ..      LDR      r0,[sp,#0x70]
        0x0001d210:    4408        .D      ADD      r0,r0,r1
        0x0001d212:    901c        ..      STR      r0,[sp,#0x70]
        0x0001d214:    9913        ..      LDR      r1,[sp,#0x4c]
        0x0001d216:    9814        ..      LDR      r0,[sp,#0x50]
        0x0001d218:    4408        .D      ADD      r0,r0,r1
        0x0001d21a:    9014        ..      STR      r0,[sp,#0x50]
        0x0001d21c:    2000        .       MOVS     r0,#0
        0x0001d21e:    9013        ..      STR      r0,[sp,#0x4c]
        0x0001d220:    e7ff        ..      B        0x1d222 ; am_util_stdio_vsprintf + 830
        0x0001d222:    9818        ..      LDR      r0,[sp,#0x60]
        0x0001d224:    9919        ..      LDR      r1,[sp,#0x64]
        0x0001d226:    9a1c        ..      LDR      r2,[sp,#0x70]
        0x0001d228:    f89d3041    ..A0    LDRB     r3,[sp,#0x41]
        0x0001d22c:    f0030301    ....    AND      r3,r3,#1
        0x0001d230:    f001fd36    ..6.    BL       uint64_to_hexstr ; 0x1eca0
        0x0001d234:    9012        ..      STR      r0,[sp,#0x48]
        0x0001d236:    981c        ..      LDR      r0,[sp,#0x70]
        0x0001d238:    b128        (.      CBZ      r0,0x1d246 ; am_util_stdio_vsprintf + 866
        0x0001d23a:    e7ff        ..      B        0x1d23c ; am_util_stdio_vsprintf + 856
        0x0001d23c:    9912        ..      LDR      r1,[sp,#0x48]
        0x0001d23e:    981c        ..      LDR      r0,[sp,#0x70]
        0x0001d240:    4408        .D      ADD      r0,r0,r1
        0x0001d242:    901c        ..      STR      r0,[sp,#0x70]
        0x0001d244:    e7ff        ..      B        0x1d246 ; am_util_stdio_vsprintf + 866
        0x0001d246:    9912        ..      LDR      r1,[sp,#0x48]
        0x0001d248:    9814        ..      LDR      r0,[sp,#0x50]
        0x0001d24a:    4408        .D      ADD      r0,r0,r1
        0x0001d24c:    9014        ..      STR      r0,[sp,#0x50]
        0x0001d24e:    e164        d.      B        0x1d51a ; am_util_stdio_vsprintf + 1590
        0x0001d250:    f89d0040    ..@.    LDRB     r0,[sp,#0x40]
        0x0001d254:    07c0        ..      LSLS     r0,r0,#31
        0x0001d256:    b160        `.      CBZ      r0,0x1d272 ; am_util_stdio_vsprintf + 910
        0x0001d258:    e7ff        ..      B        0x1d25a ; am_util_stdio_vsprintf + 886
        0x0001d25a:    981d        ..      LDR      r0,[sp,#0x74]
        0x0001d25c:    3007        .0      ADDS     r0,#7
        0x0001d25e:    f0200007     ...    BIC      r0,r0,#7
        0x0001d262:    f1000108    ....    ADD      r1,r0,#8
        0x0001d266:    911d        ..      STR      r1,[sp,#0x74]
        0x0001d268:    6801        .h      LDR      r1,[r0,#0]
        0x0001d26a:    6840        @h      LDR      r0,[r0,#4]
        0x0001d26c:    9104        ..      STR      r1,[sp,#0x10]
        0x0001d26e:    9005        ..      STR      r0,[sp,#0x14]
        0x0001d270:    e007        ..      B        0x1d282 ; am_util_stdio_vsprintf + 926
        0x0001d272:    981d        ..      LDR      r0,[sp,#0x74]
        0x0001d274:    1d01        ..      ADDS     r1,r0,#4
        0x0001d276:    911d        ..      STR      r1,[sp,#0x74]
        0x0001d278:    6801        .h      LDR      r1,[r0,#0]
        0x0001d27a:    2000        .       MOVS     r0,#0
        0x0001d27c:    9104        ..      STR      r1,[sp,#0x10]
        0x0001d27e:    9005        ..      STR      r0,[sp,#0x14]
        0x0001d280:    e7ff        ..      B        0x1d282 ; am_util_stdio_vsprintf + 926
        0x0001d282:    9904        ..      LDR      r1,[sp,#0x10]
        0x0001d284:    9805        ..      LDR      r0,[sp,#0x14]
        0x0001d286:    9118        ..      STR      r1,[sp,#0x60]
        0x0001d288:    9019        ..      STR      r0,[sp,#0x64]
        0x0001d28a:    9813        ..      LDR      r0,[sp,#0x4c]
        0x0001d28c:    b318        ..      CBZ      r0,0x1d2d6 ; am_util_stdio_vsprintf + 1010
        0x0001d28e:    e7ff        ..      B        0x1d290 ; am_util_stdio_vsprintf + 940
        0x0001d290:    9818        ..      LDR      r0,[sp,#0x60]
        0x0001d292:    9919        ..      LDR      r1,[sp,#0x64]
        0x0001d294:    f001f9c0    ....    BL       ndigits_in_u64 ; 0x1e618
        0x0001d298:    4601        .F      MOV      r1,r0
        0x0001d29a:    9813        ..      LDR      r0,[sp,#0x4c]
        0x0001d29c:    1a40        @.      SUBS     r0,r0,r1
        0x0001d29e:    9013        ..      STR      r0,[sp,#0x4c]
        0x0001d2a0:    981c        ..      LDR      r0,[sp,#0x70]
        0x0001d2a2:    f89d1042    ..B.    LDRB     r1,[sp,#0x42]
        0x0001d2a6:    9a13        ..      LDR      r2,[sp,#0x4c]
        0x0001d2a8:    f001f9d4    ....    BL       padbuffer ; 0x1e654
        0x0001d2ac:    9013        ..      STR      r0,[sp,#0x4c]
        0x0001d2ae:    981c        ..      LDR      r0,[sp,#0x70]
        0x0001d2b0:    b118        ..      CBZ      r0,0x1d2ba ; am_util_stdio_vsprintf + 982
        0x0001d2b2:    e7ff        ..      B        0x1d2b4 ; am_util_stdio_vsprintf + 976
        0x0001d2b4:    9813        ..      LDR      r0,[sp,#0x4c]
        0x0001d2b6:    9003        ..      STR      r0,[sp,#0xc]
        0x0001d2b8:    e002        ..      B        0x1d2c0 ; am_util_stdio_vsprintf + 988
        0x0001d2ba:    2000        .       MOVS     r0,#0
        0x0001d2bc:    9003        ..      STR      r0,[sp,#0xc]
        0x0001d2be:    e7ff        ..      B        0x1d2c0 ; am_util_stdio_vsprintf + 988
        0x0001d2c0:    9903        ..      LDR      r1,[sp,#0xc]
        0x0001d2c2:    981c        ..      LDR      r0,[sp,#0x70]
        0x0001d2c4:    4408        .D      ADD      r0,r0,r1
        0x0001d2c6:    901c        ..      STR      r0,[sp,#0x70]
        0x0001d2c8:    9913        ..      LDR      r1,[sp,#0x4c]
        0x0001d2ca:    9814        ..      LDR      r0,[sp,#0x50]
        0x0001d2cc:    4408        .D      ADD      r0,r0,r1
        0x0001d2ce:    9014        ..      STR      r0,[sp,#0x50]
        0x0001d2d0:    2000        .       MOVS     r0,#0
        0x0001d2d2:    9013        ..      STR      r0,[sp,#0x4c]
        0x0001d2d4:    e7ff        ..      B        0x1d2d6 ; am_util_stdio_vsprintf + 1010
        0x0001d2d6:    9818        ..      LDR      r0,[sp,#0x60]
        0x0001d2d8:    9919        ..      LDR      r1,[sp,#0x64]
        0x0001d2da:    9a1c        ..      LDR      r2,[sp,#0x70]
        0x0001d2dc:    f001fd40    ..@.    BL       uint64_to_str ; 0x1ed60
        0x0001d2e0:    9012        ..      STR      r0,[sp,#0x48]
        0x0001d2e2:    981c        ..      LDR      r0,[sp,#0x70]
        0x0001d2e4:    b128        (.      CBZ      r0,0x1d2f2 ; am_util_stdio_vsprintf + 1038
        0x0001d2e6:    e7ff        ..      B        0x1d2e8 ; am_util_stdio_vsprintf + 1028
        0x0001d2e8:    9912        ..      LDR      r1,[sp,#0x48]
        0x0001d2ea:    981c        ..      LDR      r0,[sp,#0x70]
        0x0001d2ec:    4408        .D      ADD      r0,r0,r1
        0x0001d2ee:    901c        ..      STR      r0,[sp,#0x70]
        0x0001d2f0:    e7ff        ..      B        0x1d2f2 ; am_util_stdio_vsprintf + 1038
        0x0001d2f2:    9912        ..      LDR      r1,[sp,#0x48]
        0x0001d2f4:    9814        ..      LDR      r0,[sp,#0x50]
        0x0001d2f6:    4408        .D      ADD      r0,r0,r1
        0x0001d2f8:    9014        ..      STR      r0,[sp,#0x50]
        0x0001d2fa:    e10e        ..      B        0x1d51a ; am_util_stdio_vsprintf + 1590
        0x0001d2fc:    f89d0040    ..@.    LDRB     r0,[sp,#0x40]
        0x0001d300:    07c0        ..      LSLS     r0,r0,#31
        0x0001d302:    b160        `.      CBZ      r0,0x1d31e ; am_util_stdio_vsprintf + 1082
        0x0001d304:    e7ff        ..      B        0x1d306 ; am_util_stdio_vsprintf + 1058
        0x0001d306:    981d        ..      LDR      r0,[sp,#0x74]
        0x0001d308:    3007        .0      ADDS     r0,#7
        0x0001d30a:    f0200007     ...    BIC      r0,r0,#7
        0x0001d30e:    f1000108    ....    ADD      r1,r0,#8
        0x0001d312:    911d        ..      STR      r1,[sp,#0x74]
        0x0001d314:    6801        .h      LDR      r1,[r0,#0]
        0x0001d316:    6840        @h      LDR      r0,[r0,#4]
        0x0001d318:    9101        ..      STR      r1,[sp,#4]
        0x0001d31a:    9002        ..      STR      r0,[sp,#8]
        0x0001d31c:    e007        ..      B        0x1d32e ; am_util_stdio_vsprintf + 1098
        0x0001d31e:    981d        ..      LDR      r0,[sp,#0x74]
        0x0001d320:    1d01        ..      ADDS     r1,r0,#4
        0x0001d322:    911d        ..      STR      r1,[sp,#0x74]
        0x0001d324:    6801        .h      LDR      r1,[r0,#0]
        0x0001d326:    17c8        ..      ASRS     r0,r1,#31
        0x0001d328:    9101        ..      STR      r1,[sp,#4]
        0x0001d32a:    9002        ..      STR      r0,[sp,#8]
        0x0001d32c:    e7ff        ..      B        0x1d32e ; am_util_stdio_vsprintf + 1098
        0x0001d32e:    9901        ..      LDR      r1,[sp,#4]
        0x0001d330:    9802        ..      LDR      r0,[sp,#8]
        0x0001d332:    9116        ..      STR      r1,[sp,#0x58]
        0x0001d334:    9017        ..      STR      r0,[sp,#0x5c]
        0x0001d336:    9817        ..      LDR      r0,[sp,#0x5c]
        0x0001d338:    f1b03fff    ...?    CMP      r0,#0xffffffff
        0x0001d33c:    dc0c        ..      BGT      0x1d358 ; am_util_stdio_vsprintf + 1140
        0x0001d33e:    e7ff        ..      B        0x1d340 ; am_util_stdio_vsprintf + 1116
        0x0001d340:    9816        ..      LDR      r0,[sp,#0x58]
        0x0001d342:    9a17        ..      LDR      r2,[sp,#0x5c]
        0x0001d344:    4241        AB      RSBS     r1,r0,#0
        0x0001d346:    f04f0000    O...    MOV      r0,#0
        0x0001d34a:    4190        .A      SBCS     r0,r0,r2
        0x0001d34c:    9118        ..      STR      r1,[sp,#0x60]
        0x0001d34e:    9019        ..      STR      r0,[sp,#0x64]
        0x0001d350:    2001        .       MOVS     r0,#1
        0x0001d352:    f88d003f    ..?.    STRB     r0,[sp,#0x3f]
        0x0001d356:    e007        ..      B        0x1d368 ; am_util_stdio_vsprintf + 1156
        0x0001d358:    9816        ..      LDR      r0,[sp,#0x58]
        0x0001d35a:    9917        ..      LDR      r1,[sp,#0x5c]
        0x0001d35c:    9119        ..      STR      r1,[sp,#0x64]
        0x0001d35e:    9018        ..      STR      r0,[sp,#0x60]
        0x0001d360:    2000        .       MOVS     r0,#0
        0x0001d362:    f88d003f    ..?.    STRB     r0,[sp,#0x3f]
        0x0001d366:    e7ff        ..      B        0x1d368 ; am_util_stdio_vsprintf + 1156
        0x0001d368:    9813        ..      LDR      r0,[sp,#0x4c]
        0x0001d36a:    2800        .(      CMP      r0,#0
        0x0001d36c:    d055        U.      BEQ      0x1d41a ; am_util_stdio_vsprintf + 1334
        0x0001d36e:    e7ff        ..      B        0x1d370 ; am_util_stdio_vsprintf + 1164
        0x0001d370:    9818        ..      LDR      r0,[sp,#0x60]
        0x0001d372:    9919        ..      LDR      r1,[sp,#0x64]
        0x0001d374:    f001f938    ..8.    BL       ndigits_in_i64 ; 0x1e5e8
        0x0001d378:    4601        .F      MOV      r1,r0
        0x0001d37a:    9813        ..      LDR      r0,[sp,#0x4c]
        0x0001d37c:    1a40        @.      SUBS     r0,r0,r1
        0x0001d37e:    9013        ..      STR      r0,[sp,#0x4c]
        0x0001d380:    f89d003f    ..?.    LDRB     r0,[sp,#0x3f]
        0x0001d384:    07c0        ..      LSLS     r0,r0,#31
        0x0001d386:    b1b0        ..      CBZ      r0,0x1d3b6 ; am_util_stdio_vsprintf + 1234
        0x0001d388:    e7ff        ..      B        0x1d38a ; am_util_stdio_vsprintf + 1190
        0x0001d38a:    9813        ..      LDR      r0,[sp,#0x4c]
        0x0001d38c:    3801        .8      SUBS     r0,#1
        0x0001d38e:    9013        ..      STR      r0,[sp,#0x4c]
        0x0001d390:    f89d0042    ..B.    LDRB     r0,[sp,#0x42]
        0x0001d394:    2830        0(      CMP      r0,#0x30
        0x0001d396:    d10d        ..      BNE      0x1d3b4 ; am_util_stdio_vsprintf + 1232
        0x0001d398:    e7ff        ..      B        0x1d39a ; am_util_stdio_vsprintf + 1206
        0x0001d39a:    981c        ..      LDR      r0,[sp,#0x70]
        0x0001d39c:    b130        0.      CBZ      r0,0x1d3ac ; am_util_stdio_vsprintf + 1224
        0x0001d39e:    e7ff        ..      B        0x1d3a0 ; am_util_stdio_vsprintf + 1212
        0x0001d3a0:    991c        ..      LDR      r1,[sp,#0x70]
        0x0001d3a2:    1c48        H.      ADDS     r0,r1,#1
        0x0001d3a4:    901c        ..      STR      r0,[sp,#0x70]
        0x0001d3a6:    202d        -       MOVS     r0,#0x2d
        0x0001d3a8:    7008        .p      STRB     r0,[r1,#0]
        0x0001d3aa:    e7ff        ..      B        0x1d3ac ; am_util_stdio_vsprintf + 1224
        0x0001d3ac:    9814        ..      LDR      r0,[sp,#0x50]
        0x0001d3ae:    3001        .0      ADDS     r0,#1
        0x0001d3b0:    9014        ..      STR      r0,[sp,#0x50]
        0x0001d3b2:    e7ff        ..      B        0x1d3b4 ; am_util_stdio_vsprintf + 1232
        0x0001d3b4:    e7ff        ..      B        0x1d3b6 ; am_util_stdio_vsprintf + 1234
        0x0001d3b6:    981c        ..      LDR      r0,[sp,#0x70]
        0x0001d3b8:    f89d1042    ..B.    LDRB     r1,[sp,#0x42]
        0x0001d3bc:    9a13        ..      LDR      r2,[sp,#0x4c]
        0x0001d3be:    f001f949    ..I.    BL       padbuffer ; 0x1e654
        0x0001d3c2:    9013        ..      STR      r0,[sp,#0x4c]
        0x0001d3c4:    981c        ..      LDR      r0,[sp,#0x70]
        0x0001d3c6:    b118        ..      CBZ      r0,0x1d3d0 ; am_util_stdio_vsprintf + 1260
        0x0001d3c8:    e7ff        ..      B        0x1d3ca ; am_util_stdio_vsprintf + 1254
        0x0001d3ca:    9813        ..      LDR      r0,[sp,#0x4c]
        0x0001d3cc:    9000        ..      STR      r0,[sp,#0]
        0x0001d3ce:    e002        ..      B        0x1d3d6 ; am_util_stdio_vsprintf + 1266
        0x0001d3d0:    2000        .       MOVS     r0,#0
        0x0001d3d2:    9000        ..      STR      r0,[sp,#0]
        0x0001d3d4:    e7ff        ..      B        0x1d3d6 ; am_util_stdio_vsprintf + 1266
        0x0001d3d6:    9900        ..      LDR      r1,[sp,#0]
        0x0001d3d8:    981c        ..      LDR      r0,[sp,#0x70]
        0x0001d3da:    4408        .D      ADD      r0,r0,r1
        0x0001d3dc:    901c        ..      STR      r0,[sp,#0x70]
        0x0001d3de:    9913        ..      LDR      r1,[sp,#0x4c]
        0x0001d3e0:    9814        ..      LDR      r0,[sp,#0x50]
        0x0001d3e2:    4408        .D      ADD      r0,r0,r1
        0x0001d3e4:    9014        ..      STR      r0,[sp,#0x50]
        0x0001d3e6:    2000        .       MOVS     r0,#0
        0x0001d3e8:    9013        ..      STR      r0,[sp,#0x4c]
        0x0001d3ea:    f89d003f    ..?.    LDRB     r0,[sp,#0x3f]
        0x0001d3ee:    07c0        ..      LSLS     r0,r0,#31
        0x0001d3f0:    b190        ..      CBZ      r0,0x1d418 ; am_util_stdio_vsprintf + 1332
        0x0001d3f2:    e7ff        ..      B        0x1d3f4 ; am_util_stdio_vsprintf + 1296
        0x0001d3f4:    f89d0042    ..B.    LDRB     r0,[sp,#0x42]
        0x0001d3f8:    2820         (      CMP      r0,#0x20
        0x0001d3fa:    d10d        ..      BNE      0x1d418 ; am_util_stdio_vsprintf + 1332
        0x0001d3fc:    e7ff        ..      B        0x1d3fe ; am_util_stdio_vsprintf + 1306
        0x0001d3fe:    981c        ..      LDR      r0,[sp,#0x70]
        0x0001d400:    b130        0.      CBZ      r0,0x1d410 ; am_util_stdio_vsprintf + 1324
        0x0001d402:    e7ff        ..      B        0x1d404 ; am_util_stdio_vsprintf + 1312
        0x0001d404:    991c        ..      LDR      r1,[sp,#0x70]
        0x0001d406:    1c48        H.      ADDS     r0,r1,#1
        0x0001d408:    901c        ..      STR      r0,[sp,#0x70]
        0x0001d40a:    202d        -       MOVS     r0,#0x2d
        0x0001d40c:    7008        .p      STRB     r0,[r1,#0]
        0x0001d40e:    e7ff        ..      B        0x1d410 ; am_util_stdio_vsprintf + 1324
        0x0001d410:    9814        ..      LDR      r0,[sp,#0x50]
        0x0001d412:    3001        .0      ADDS     r0,#1
        0x0001d414:    9014        ..      STR      r0,[sp,#0x50]
        0x0001d416:    e7ff        ..      B        0x1d418 ; am_util_stdio_vsprintf + 1332
        0x0001d418:    e012        ..      B        0x1d440 ; am_util_stdio_vsprintf + 1372
        0x0001d41a:    f89d003f    ..?.    LDRB     r0,[sp,#0x3f]
        0x0001d41e:    07c0        ..      LSLS     r0,r0,#31
        0x0001d420:    b168        h.      CBZ      r0,0x1d43e ; am_util_stdio_vsprintf + 1370
        0x0001d422:    e7ff        ..      B        0x1d424 ; am_util_stdio_vsprintf + 1344
        0x0001d424:    981c        ..      LDR      r0,[sp,#0x70]
        0x0001d426:    b130        0.      CBZ      r0,0x1d436 ; am_util_stdio_vsprintf + 1362
        0x0001d428:    e7ff        ..      B        0x1d42a ; am_util_stdio_vsprintf + 1350
        0x0001d42a:    991c        ..      LDR      r1,[sp,#0x70]
        0x0001d42c:    1c48        H.      ADDS     r0,r1,#1
        0x0001d42e:    901c        ..      STR      r0,[sp,#0x70]
        0x0001d430:    202d        -       MOVS     r0,#0x2d
        0x0001d432:    7008        .p      STRB     r0,[r1,#0]
        0x0001d434:    e7ff        ..      B        0x1d436 ; am_util_stdio_vsprintf + 1362
        0x0001d436:    9814        ..      LDR      r0,[sp,#0x50]
        0x0001d438:    3001        .0      ADDS     r0,#1
        0x0001d43a:    9014        ..      STR      r0,[sp,#0x50]
        0x0001d43c:    e7ff        ..      B        0x1d43e ; am_util_stdio_vsprintf + 1370
        0x0001d43e:    e7ff        ..      B        0x1d440 ; am_util_stdio_vsprintf + 1372
        0x0001d440:    9818        ..      LDR      r0,[sp,#0x60]
        0x0001d442:    9919        ..      LDR      r1,[sp,#0x64]
        0x0001d444:    9a1c        ..      LDR      r2,[sp,#0x70]
        0x0001d446:    f001fc8b    ....    BL       uint64_to_str ; 0x1ed60
        0x0001d44a:    9012        ..      STR      r0,[sp,#0x48]
        0x0001d44c:    981c        ..      LDR      r0,[sp,#0x70]
        0x0001d44e:    b128        (.      CBZ      r0,0x1d45c ; am_util_stdio_vsprintf + 1400
        0x0001d450:    e7ff        ..      B        0x1d452 ; am_util_stdio_vsprintf + 1390
        0x0001d452:    9912        ..      LDR      r1,[sp,#0x48]
        0x0001d454:    981c        ..      LDR      r0,[sp,#0x70]
        0x0001d456:    4408        .D      ADD      r0,r0,r1
        0x0001d458:    901c        ..      STR      r0,[sp,#0x70]
        0x0001d45a:    e7ff        ..      B        0x1d45c ; am_util_stdio_vsprintf + 1400
        0x0001d45c:    9912        ..      LDR      r1,[sp,#0x48]
        0x0001d45e:    9814        ..      LDR      r0,[sp,#0x50]
        0x0001d460:    4408        .D      ADD      r0,r0,r1
        0x0001d462:    9014        ..      STR      r0,[sp,#0x50]
        0x0001d464:    e059        Y.      B        0x1d51a ; am_util_stdio_vsprintf + 1590
        0x0001d466:    981c        ..      LDR      r0,[sp,#0x70]
        0x0001d468:    2800        .(      CMP      r0,#0
        0x0001d46a:    d047        G.      BEQ      0x1d4fc ; am_util_stdio_vsprintf + 1560
        0x0001d46c:    e7ff        ..      B        0x1d46e ; am_util_stdio_vsprintf + 1418
        0x0001d46e:    981d        ..      LDR      r0,[sp,#0x74]
        0x0001d470:    3007        .0      ADDS     r0,#7
        0x0001d472:    f0200007     ...    BIC      r0,r0,#7
        0x0001d476:    f1000108    ....    ADD      r1,r0,#8
        0x0001d47a:    911d        ..      STR      r1,[sp,#0x74]
        0x0001d47c:    ed900b00    ....    VLDR     d0,[r0,#0]
        0x0001d480:    ec510b10    Q...    VMOV     r0,r1,d0
        0x0001d484:    f001fce4    ....    BL       __aeabi_d2f ; 0x1ee50
        0x0001d488:    900d        ..      STR      r0,[sp,#0x34]
        0x0001d48a:    991c        ..      LDR      r1,[sp,#0x70]
        0x0001d48c:    2014        .       MOVS     r0,#0x14
        0x0001d48e:    6008        .`      STR      r0,[r1,#0]
        0x0001d490:    ed9d0a0d    ....    VLDR     s0,[sp,#0x34]
        0x0001d494:    981c        ..      LDR      r0,[sp,#0x70]
        0x0001d496:    9911        ..      LDR      r1,[sp,#0x44]
        0x0001d498:    f000fb38    ..8.    BL       ftoa ; 0x1db0c
        0x0001d49c:    9012        ..      STR      r0,[sp,#0x48]
        0x0001d49e:    9812        ..      LDR      r0,[sp,#0x48]
        0x0001d4a0:    f1b03fff    ...?    CMP      r0,#0xffffffff
        0x0001d4a4:    dc21        !.      BGT      0x1d4ea ; am_util_stdio_vsprintf + 1542
        0x0001d4a6:    e7ff        ..      B        0x1d4a8 ; am_util_stdio_vsprintf + 1476
        0x0001d4a8:    9812        ..      LDR      r0,[sp,#0x48]
        0x0001d4aa:    3001        .0      ADDS     r0,#1
        0x0001d4ac:    b930        0.      CBNZ     r0,0x1d4bc ; am_util_stdio_vsprintf + 1496
        0x0001d4ae:    e7ff        ..      B        0x1d4b0 ; am_util_stdio_vsprintf + 1484
        0x0001d4b0:    f6426030    B.0`    MOV      r0,#0x2e30
        0x0001d4b4:    f2c00030    ..0.    MOVT     r0,#0x30
        0x0001d4b8:    900c        ..      STR      r0,[sp,#0x30]
        0x0001d4ba:    e010        ..      B        0x1d4de ; am_util_stdio_vsprintf + 1530
        0x0001d4bc:    9812        ..      LDR      r0,[sp,#0x48]
        0x0001d4be:    3002        .0      ADDS     r0,#2
        0x0001d4c0:    b930        0.      CBNZ     r0,0x1d4d0 ; am_util_stdio_vsprintf + 1516
        0x0001d4c2:    e7ff        ..      B        0x1d4c4 ; am_util_stdio_vsprintf + 1504
        0x0001d4c4:    f6426023    B.#`    MOV      r0,#0x2e23
        0x0001d4c8:    f2c00023    ..#.    MOVT     r0,#0x23
        0x0001d4cc:    900c        ..      STR      r0,[sp,#0x30]
        0x0001d4ce:    e005        ..      B        0x1d4dc ; am_util_stdio_vsprintf + 1528
        0x0001d4d0:    f642603f    B.?`    MOV      r0,#0x2e3f
        0x0001d4d4:    f2c0003f    ..?.    MOVT     r0,#0x3f
        0x0001d4d8:    900c        ..      STR      r0,[sp,#0x30]
        0x0001d4da:    e7ff        ..      B        0x1d4dc ; am_util_stdio_vsprintf + 1528
        0x0001d4dc:    e7ff        ..      B        0x1d4de ; am_util_stdio_vsprintf + 1530
        0x0001d4de:    980c        ..      LDR      r0,[sp,#0x30]
        0x0001d4e0:    991c        ..      LDR      r1,[sp,#0x70]
        0x0001d4e2:    6008        .`      STR      r0,[r1,#0]
        0x0001d4e4:    2003        .       MOVS     r0,#3
        0x0001d4e6:    9012        ..      STR      r0,[sp,#0x48]
        0x0001d4e8:    e7ff        ..      B        0x1d4ea ; am_util_stdio_vsprintf + 1542
        0x0001d4ea:    9912        ..      LDR      r1,[sp,#0x48]
        0x0001d4ec:    9814        ..      LDR      r0,[sp,#0x50]
        0x0001d4ee:    4408        .D      ADD      r0,r0,r1
        0x0001d4f0:    9014        ..      STR      r0,[sp,#0x50]
        0x0001d4f2:    9912        ..      LDR      r1,[sp,#0x48]
        0x0001d4f4:    981c        ..      LDR      r0,[sp,#0x70]
        0x0001d4f6:    4408        .D      ADD      r0,r0,r1
        0x0001d4f8:    901c        ..      STR      r0,[sp,#0x70]
        0x0001d4fa:    e7ff        ..      B        0x1d4fc ; am_util_stdio_vsprintf + 1560
        0x0001d4fc:    e00d        ..      B        0x1d51a ; am_util_stdio_vsprintf + 1590
        0x0001d4fe:    981c        ..      LDR      r0,[sp,#0x70]
        0x0001d500:    b138        8.      CBZ      r0,0x1d512 ; am_util_stdio_vsprintf + 1582
        0x0001d502:    e7ff        ..      B        0x1d504 ; am_util_stdio_vsprintf + 1568
        0x0001d504:    981b        ..      LDR      r0,[sp,#0x6c]
        0x0001d506:    7800        .x      LDRB     r0,[r0,#0]
        0x0001d508:    991c        ..      LDR      r1,[sp,#0x70]
        0x0001d50a:    1c4a        J.      ADDS     r2,r1,#1
        0x0001d50c:    921c        ..      STR      r2,[sp,#0x70]
        0x0001d50e:    7008        .p      STRB     r0,[r1,#0]
        0x0001d510:    e7ff        ..      B        0x1d512 ; am_util_stdio_vsprintf + 1582
        0x0001d512:    9814        ..      LDR      r0,[sp,#0x50]
        0x0001d514:    3001        .0      ADDS     r0,#1
        0x0001d516:    9014        ..      STR      r0,[sp,#0x50]
        0x0001d518:    e7ff        ..      B        0x1d51a ; am_util_stdio_vsprintf + 1590
        0x0001d51a:    981b        ..      LDR      r0,[sp,#0x6c]
        0x0001d51c:    3001        .0      ADDS     r0,#1
        0x0001d51e:    901b        ..      STR      r0,[sp,#0x6c]
        0x0001d520:    f7ffbce9    ....    B.W      0x1cef6 ; am_util_stdio_vsprintf + 18
        0x0001d524:    981c        ..      LDR      r0,[sp,#0x70]
        0x0001d526:    b120         .      CBZ      r0,0x1d532 ; am_util_stdio_vsprintf + 1614
        0x0001d528:    e7ff        ..      B        0x1d52a ; am_util_stdio_vsprintf + 1606
        0x0001d52a:    991c        ..      LDR      r1,[sp,#0x70]
        0x0001d52c:    2000        .       MOVS     r0,#0
        0x0001d52e:    7008        .p      STRB     r0,[r1,#0]
        0x0001d530:    e7ff        ..      B        0x1d532 ; am_util_stdio_vsprintf + 1614
        0x0001d532:    9814        ..      LDR      r0,[sp,#0x50]
        0x0001d534:    b01e        ..      ADD      sp,sp,#0x78
        0x0001d536:    bd80        ..      POP      {r7,pc}
    am_valid_sp
        0x0001d538:    b082        ..      SUB      sp,sp,#8
        0x0001d53a:    9001        ..      STR      r0,[sp,#4]
        0x0001d53c:    9901        ..      LDR      r1,[sp,#4]
        0x0001d53e:    2000        .       MOVS     r0,#0
        0x0001d540:    f1b15f80    ..._    CMP      r1,#0x10000000
        0x0001d544:    9000        ..      STR      r0,[sp,#0]
        0x0001d546:    d30b        ..      BCC      0x1d560 ; am_valid_sp + 40
        0x0001d548:    e7ff        ..      B        0x1d54a ; am_valid_sp + 18
        0x0001d54a:    9901        ..      LDR      r1,[sp,#4]
        0x0001d54c:    f2480200    H...    MOVW     r2,#0x8000
        0x0001d550:    f2c1021d    ....    MOVT     r2,#0x101d
        0x0001d554:    2000        .       MOVS     r0,#0
        0x0001d556:    4291        .B      CMP      r1,r2
        0x0001d558:    bf38        8.      IT       CC
        0x0001d55a:    2001        .       MOVCC    r0,#1
        0x0001d55c:    9000        ..      STR      r0,[sp,#0]
        0x0001d55e:    e7ff        ..      B        0x1d560 ; am_valid_sp + 40
        0x0001d560:    9800        ..      LDR      r0,[sp,#0]
        0x0001d562:    f0000001    ....    AND      r0,r0,#1
        0x0001d566:    b002        ..      ADD      sp,sp,#8
        0x0001d568:    4770        pG      BX       lr
        0x0001d56a:    0000        ..      MOVS     r0,r0
    buck_interval_check
        0x0001d56c:    b5f0        ..      PUSH     {r4-r7,lr}
        0x0001d56e:    b08b        ..      SUB      sp,sp,#0x2c
        0x0001d570:    2260        `"      MOVS     r2,#0x60
        0x0001d572:    f2c40202    ....    MOVT     r2,#0x4002
        0x0001d576:    4604        .F      MOV      r4,r0
        0x0001d578:    f8d20fa0    ....    LDR      r0,[r2,#0xfa0]
        0x0001d57c:    b194        ..      CBZ      r4,0x1d5a4 ; buck_interval_check + 56
        0x0001d57e:    2900        .)      CMP      r1,#0
        0x0001d580:    f2411100    A...    MOVW     r1,#0x1100
        0x0001d584:    f2c40102    ....    MOVT     r1,#0x4002
        0x0001d588:    6809        .h      LDR      r1,[r1,#0]
        0x0001d58a:    f04f071d    O...    MOV      r7,#0x1d
        0x0001d58e:    bf08        ..      IT       EQ
        0x0001d590:    271c        .'      MOVEQ    r7,#0x1c
        0x0001d592:    07c9        ..      LSLS     r1,r1,#31
        0x0001d594:    d004        ..      BEQ      0x1d5a0 ; buck_interval_check + 52
        0x0001d596:    6811        .h      LDR      r1,[r2,#0]
        0x0001d598:    f24012ef    @...    MOV      r2,#0x1ef
        0x0001d59c:    4211        .B      TST      r1,r2
        0x0001d59e:    d004        ..      BEQ      0x1d5aa ; buck_interval_check + 62
        0x0001d5a0:    2007        .       MOVS     r0,#7
        0x0001d5a2:    e000        ..      B        0x1d5a6 ; buck_interval_check + 58
        0x0001d5a4:    2006        .       MOVS     r0,#6
        0x0001d5a6:    b00b        ..      ADD      sp,sp,#0x2c
        0x0001d5a8:    bdf0        ..      POP      {r4-r7,pc}
        0x0001d5aa:    f0000618    ....    AND      r6,r0,#0x18
        0x0001d5ae:    200d        .       MOVS     r0,#0xd
        0x0001d5b0:    f7fff868    ..h.    BL       am_hal_timer_clear_stop ; 0x1c684
        0x0001d5b4:    200d        .       MOVS     r0,#0xd
        0x0001d5b6:    f7fff89f    ....    BL       am_hal_timer_disable ; 0x1c6f8
        0x0001d5ba:    200d        .       MOVS     r0,#0xd
        0x0001d5bc:    f7fff968    ..h.    BL       am_hal_timer_reset_config ; 0x1c890
        0x0001d5c0:    ad06        ..      ADD      r5,sp,#0x18
        0x0001d5c2:    4628        (F      MOV      r0,r5
        0x0001d5c4:    f7fff888    ....    BL       am_hal_timer_default_config_set ; 0x1c6d8
        0x0001d5c8:    2002        .       MOVS     r0,#2
        0x0001d5ca:    f88d0019    ....    STRB     r0,[sp,#0x19]
        0x0001d5ce:    200d        .       MOVS     r0,#0xd
        0x0001d5d0:    4629        )F      MOV      r1,r5
        0x0001d5d2:    f88d7018    ...p    STRB     r7,[sp,#0x18]
        0x0001d5d6:    f001faaf    ....    BL       timer_config_b1 ; 0x1eb38
        0x0001d5da:    2008        .       MOVS     r0,#8
        0x0001d5dc:    f7fff852    ..R.    BL       am_hal_timer_clear_stop ; 0x1c684
        0x0001d5e0:    2008        .       MOVS     r0,#8
        0x0001d5e2:    f7fff889    ....    BL       am_hal_timer_disable ; 0x1c6f8
        0x0001d5e6:    2008        .       MOVS     r0,#8
        0x0001d5e8:    f7fff952    ..R.    BL       am_hal_timer_reset_config ; 0x1c890
        0x0001d5ec:    ad01        ..      ADD      r5,sp,#4
        0x0001d5ee:    4628        (F      MOV      r0,r5
        0x0001d5f0:    f7fff872    ..r.    BL       am_hal_timer_default_config_set ; 0x1c6d8
        0x0001d5f4:    f2402001    @..     MOV      r0,#0x201
        0x0001d5f8:    f8ad0004    ....    STRH     r0,[sp,#4]
        0x0001d5fc:    2008        .       MOVS     r0,#8
        0x0001d5fe:    4629        )F      MOV      r1,r5
        0x0001d600:    f001fa9a    ....    BL       timer_config_b1 ; 0x1eb38
        0x0001d604:    f7fcfeb6    ....    BL       am_hal_interrupt_master_disable ; 0x1a374
        0x0001d608:    9000        ..      STR      r0,[sp,#0]
        0x0001d60a:    2008        .       MOVS     r0,#8
        0x0001d60c:    f7fff892    ....    BL       am_hal_timer_enable ; 0x1c734
        0x0001d610:    200d        .       MOVS     r0,#0xd
        0x0001d612:    f7fff88f    ....    BL       am_hal_timer_enable ; 0x1c734
        0x0001d616:    9800        ..      LDR      r0,[sp,#0]
        0x0001d618:    f7fcfeb4    ....    BL       am_hal_interrupt_master_set ; 0x1a384
        0x0001d61c:    f2427510    B..u    MOV      r5,#0x2710
        0x0001d620:    2e10        ..      CMP      r6,#0x10
        0x0001d622:    bf08        ..      IT       EQ
        0x0001d624:    f6446520    D. e    MOVEQ    r5,#0x4e20
        0x0001d628:    f7fcfea4    ....    BL       am_hal_interrupt_master_disable ; 0x1a374
        0x0001d62c:    9000        ..      STR      r0,[sp,#0]
        0x0001d62e:    200d        .       MOVS     r0,#0xd
        0x0001d630:    f7fff91b    ....    BL       am_hal_timer_read ; 0x1c86a
        0x0001d634:    280a        .(      CMP      r0,#0xa
        0x0001d636:    d206        ..      BCS      0x1d646 ; buck_interval_check + 218
        0x0001d638:    9800        ..      LDR      r0,[sp,#0]
        0x0001d63a:    f7fcfea3    ....    BL       am_hal_interrupt_master_set ; 0x1a384
        0x0001d63e:    3d01        .=      SUBS     r5,#1
        0x0001d640:    d1f2        ..      BNE      0x1d628 ; buck_interval_check + 188
        0x0001d642:    2500        .%      MOVS     r5,#0
        0x0001d644:    e007        ..      B        0x1d656 ; buck_interval_check + 234
        0x0001d646:    2008        .       MOVS     r0,#8
        0x0001d648:    f7fff90f    ....    BL       am_hal_timer_read ; 0x1c86a
        0x0001d64c:    9900        ..      LDR      r1,[sp,#0]
        0x0001d64e:    4605        .F      MOV      r5,r0
        0x0001d650:    4608        .F      MOV      r0,r1
        0x0001d652:    f7fcfe97    ....    BL       am_hal_interrupt_master_set ; 0x1a384
        0x0001d656:    200d        .       MOVS     r0,#0xd
        0x0001d658:    f7fff814    ....    BL       am_hal_timer_clear_stop ; 0x1c684
        0x0001d65c:    200d        .       MOVS     r0,#0xd
        0x0001d65e:    f7fff84b    ..K.    BL       am_hal_timer_disable ; 0x1c6f8
        0x0001d662:    200d        .       MOVS     r0,#0xd
        0x0001d664:    f7fff914    ....    BL       am_hal_timer_reset_config ; 0x1c890
        0x0001d668:    2008        .       MOVS     r0,#8
        0x0001d66a:    f7fff80b    ....    BL       am_hal_timer_clear_stop ; 0x1c684
        0x0001d66e:    2008        .       MOVS     r0,#8
        0x0001d670:    f7fff842    ..B.    BL       am_hal_timer_disable ; 0x1c6f8
        0x0001d674:    2008        .       MOVS     r0,#8
        0x0001d676:    f7fff90b    ....    BL       am_hal_timer_reset_config ; 0x1c890
        0x0001d67a:    b185        ..      CBZ      r5,0x1d69e ; buck_interval_check + 306
        0x0001d67c:    f64a20ab    J..     MOV      r0,#0xaaab
        0x0001d680:    f6ca20aa    ...     MOVT     r0,#0xaaaa
        0x0001d684:    fba50100    ....    UMULL    r0,r1,r5,r0
        0x0001d688:    0888        ..      LSRS     r0,r1,#2
        0x0001d68a:    f5b57f96    ....    CMP      r5,#0x12c
        0x0001d68e:    bf38        8.      IT       CC
        0x0001d690:    2032        2       MOVCC    r0,#0x32
        0x0001d692:    2896        .(      CMP      r0,#0x96
        0x0001d694:    bf28        (.      IT       CS
        0x0001d696:    2096        .       MOVCS    r0,#0x96
        0x0001d698:    6020         `      STR      r0,[r4,#0]
        0x0001d69a:    2000        .       MOVS     r0,#0
        0x0001d69c:    e783        ..      B        0x1d5a6 ; buck_interval_check + 58
        0x0001d69e:    2001        .       MOVS     r0,#1
        0x0001d6a0:    e781        ..      B        0x1d5a6 ; buck_interval_check + 58
    buck_ldo_override_init
        0x0001d6a2:    2060        `       MOVS     r0,#0x60
        0x0001d6a4:    f2c40002    ....    MOVT     r0,#0x4002
        0x0001d6a8:    6801        .h      LDR      r1,[r0,#0]
        0x0001d6aa:    2204        ."      MOVS     r2,#4
        0x0001d6ac:    f4413100    A..1    ORR      r1,r1,#0x20000
        0x0001d6b0:    6001        .`      STR      r1,[r0,#0]
        0x0001d6b2:    6801        .h      LDR      r1,[r0,#0]
        0x0001d6b4:    f4412180    A..!    ORR      r1,r1,#0x40000
        0x0001d6b8:    6001        .`      STR      r1,[r0,#0]
        0x0001d6ba:    6801        .h      LDR      r1,[r0,#0]
        0x0001d6bc:    f4412100    A..!    ORR      r1,r1,#0x80000
        0x0001d6c0:    6001        .`      STR      r1,[r0,#0]
        0x0001d6c2:    6801        .h      LDR      r1,[r0,#0]
        0x0001d6c4:    f4413180    A..1    ORR      r1,r1,#0x10000
        0x0001d6c8:    6001        .`      STR      r1,[r0,#0]
        0x0001d6ca:    6a01        .j      LDR      r1,[r0,#0x20]
        0x0001d6cc:    f362218d    b..!    BFI      r1,r2,#10,#4
        0x0001d6d0:    6201        .b      STR      r1,[r0,#0x20]
        0x0001d6d2:    6801        .h      LDR      r1,[r0,#0]
        0x0001d6d4:    f0210110    !...    BIC      r1,r1,#0x10
        0x0001d6d8:    6001        .`      STR      r1,[r0,#0]
        0x0001d6da:    6801        .h      LDR      r1,[r0,#0]
        0x0001d6dc:    f041010e    A...    ORR      r1,r1,#0xe
        0x0001d6e0:    6001        .`      STR      r1,[r0,#0]
        0x0001d6e2:    6801        .h      LDR      r1,[r0,#0]
        0x0001d6e4:    f0410101    A...    ORR      r1,r1,#1
        0x0001d6e8:    6001        .`      STR      r1,[r0,#0]
        0x0001d6ea:    6801        .h      LDR      r1,[r0,#0]
        0x0001d6ec:    f4217100    !..q    BIC      r1,r1,#0x200
        0x0001d6f0:    6001        .`      STR      r1,[r0,#0]
        0x0001d6f2:    6801        .h      LDR      r1,[r0,#0]
        0x0001d6f4:    f44171e0    A..q    ORR      r1,r1,#0x1c0
        0x0001d6f8:    6001        .`      STR      r1,[r0,#0]
        0x0001d6fa:    6801        .h      LDR      r1,[r0,#0]
        0x0001d6fc:    f0410120    A. .    ORR      r1,r1,#0x20
        0x0001d700:    6001        .`      STR      r1,[r0,#0]
        0x0001d702:    4770        pG      BX       lr
    build_dma_cmdlist
        0x0001d704:    b5f0        ..      PUSH     {r4-r7,lr}
        0x0001d706:    f8d0e004    ....    LDR      lr,[r0,#4]
        0x0001d70a:    2901        .)      CMP      r1,#1
        0x0001d70c:    f04f0c00    O...    MOV      r12,#0
        0x0001d710:    d03f        ?.      BEQ      0x1d792 ; build_dma_cmdlist + 142
        0x0001d712:    2900        .)      CMP      r1,#0
        0x0001d714:    f0408099    @...    BNE.W    0x1d84a ; build_dma_cmdlist + 326
        0x0001d718:    6819        .h      LDR      r1,[r3,#0]
        0x0001d71a:    2500        .%      MOVS     r5,#0
        0x0001d71c:    ebb54f11    ...O    CMP      r5,r1,LSR #16
        0x0001d720:    d13b        ;.      BNE      0x1d79a ; build_dma_cmdlist + 150
        0x0001d722:    7c9d        .|      LDRB     r5,[r3,#0x12]
        0x0001d724:    2d00        .-      CMP      r5,#0
        0x0001d726:    d143        C.      BNE      0x1d7b0 ; build_dma_cmdlist + 172
        0x0001d728:    2500        .%      MOVS     r5,#0
        0x0001d72a:    f2c40506    ....    MOVT     r5,#0x4006
        0x0001d72e:    eb05350e    ...5    ADD      r5,r5,lr,LSL #12
        0x0001d732:    689c        .h      LDR      r4,[r3,#8]
        0x0001d734:    f1050c08    ....    ADD      r12,r5,#8
        0x0001d738:    e9c2c400    ....    STRD     r12,r4,[r2,#0]
        0x0001d73c:    89dc        ..      LDRH     r4,[r3,#0xe]
        0x0001d73e:    f1050c0c    ....    ADD      r12,r5,#0xc
        0x0001d742:    e9c2c402    ....    STRD     r12,r4,[r2,#8]
        0x0001d746:    795c        \y      LDRB     r4,[r3,#5]
        0x0001d748:    ea4f4c01    O..L    LSL      r12,r1,#16
        0x0001d74c:    f893e004    ....    LDRB     lr,[r3,#4]
        0x0001d750:    7999        .y      LDRB     r1,[r3,#6]
        0x0001d752:    7b1e        .{      LDRB     r6,[r3,#0xc]
        0x0001d754:    ea4c24c4    L..$    ORR      r4,r12,r4,LSL #11
        0x0001d758:    6115        .a      STR      r5,[r2,#0x10]
        0x0001d75a:    79dd        .y      LDRB     r5,[r3,#7]
        0x0001d75c:    f0010101    ....    AND      r1,r1,#1
        0x0001d760:    ea44244e    D.N$    ORR      r4,r4,lr,LSL #9
        0x0001d764:    f0060603    ....    AND      r6,r6,#3
        0x0001d768:    ea4411c1    D...    ORR      r1,r4,r1,LSL #7
        0x0001d76c:    f0050507    ....    AND      r5,r5,#7
        0x0001d770:    7c1f        .|      LDRB     r7,[r3,#0x10]
        0x0001d772:    ea411186    A...    ORR      r1,r1,r6,LSL #6
        0x0001d776:    7b40        @{      LDRB     r0,[r0,#0xd]
        0x0001d778:    ea411145    A.E.    ORR      r1,r1,r5,LSL #5
        0x0001d77c:    7c5b        [|      LDRB     r3,[r3,#0x11]
        0x0001d77e:    ea412187    A..!    ORR      r1,r1,r7,LSL #10
        0x0001d782:    ea412000    A..     ORR      r0,r1,r0,LSL #8
        0x0001d786:    ea403003    @..0    ORR      r0,r0,r3,LSL #12
        0x0001d78a:    f0400001    @...    ORR      r0,r0,#1
        0x0001d78e:    6150        Pa      STR      r0,[r2,#0x14]
        0x0001d790:    e059        Y.      B        0x1d846 ; build_dma_cmdlist + 322
        0x0001d792:    6859        Yh      LDR      r1,[r3,#4]
        0x0001d794:    ebbc6f11    ...o    CMP      r12,r1,LSR #24
        0x0001d798:    d002        ..      BEQ      0x1d7a0 ; build_dma_cmdlist + 156
        0x0001d79a:    f04f0c05    O...    MOV      r12,#5
        0x0001d79e:    e054        T.      B        0x1d84a ; build_dma_cmdlist + 326
        0x0001d7a0:    f8d05838    ..8X    LDR      r5,[r0,#0x838]
        0x0001d7a4:    f8d3c010    ....    LDR      r12,[r3,#0x10]
        0x0001d7a8:    b13d        =.      CBZ      r5,0x1d7ba ; build_dma_cmdlist + 182
        0x0001d7aa:    f1bc0f00    ....    CMP      r12,#0
        0x0001d7ae:    d002        ..      BEQ      0x1d7b6 ; build_dma_cmdlist + 178
        0x0001d7b0:    f04f0c07    O...    MOV      r12,#7
        0x0001d7b4:    e049        I.      B        0x1d84a ; build_dma_cmdlist + 326
        0x0001d7b6:    f04f0c00    O...    MOV      r12,#0
        0x0001d7ba:    2400        .$      MOVS     r4,#0
        0x0001d7bc:    f2c40406    ....    MOVT     r4,#0x4006
        0x0001d7c0:    eb04340e    ...4    ADD      r4,r4,lr,LSL #12
        0x0001d7c4:    f5047684    ...v    ADD      r6,r4,#0x108
        0x0001d7c8:    6116        .a      STR      r6,[r2,#0x10]
        0x0001d7ca:    68de        .h      LDR      r6,[r3,#0xc]
        0x0001d7cc:    f5047780    ...w    ADD      r7,r4,#0x100
        0x0001d7d0:    6156        Va      STR      r6,[r2,#0x14]
        0x0001d7d2:    f5047686    ...v    ADD      r6,r4,#0x10c
        0x0001d7d6:    6196        .a      STR      r6,[r2,#0x18]
        0x0001d7d8:    689e        .h      LDR      r6,[r3,#8]
        0x0001d7da:    6417        .d      STR      r7,[r2,#0x40]
        0x0001d7dc:    61d6        .a      STR      r6,[r2,#0x1c]
        0x0001d7de:    f5047688    ...v    ADD      r6,r4,#0x110
        0x0001d7e2:    e9c26108    ...a    STRD     r6,r1,[r2,#0x20]
        0x0001d7e6:    785e        ^x      LDRB     r6,[r3,#1]
        0x0001d7e8:    6297        .b      STR      r7,[r2,#0x28]
        0x0001d7ea:    7819        .x      LDRB     r1,[r3,#0]
        0x0001d7ec:    2704        .'      MOVS     r7,#4
        0x0001d7ee:    ea070686    ....    AND      r6,r7,r6,LSL #2
        0x0001d7f2:    f3611605    a...    BFI      r6,r1,#4,#2
        0x0001d7f6:    1cf1        ..      ADDS     r1,r6,#3
        0x0001d7f8:    f04f0e00    O...    MOV      lr,#0
        0x0001d7fc:    62d1        .b      STR      r1,[r2,#0x2c]
        0x0001d7fe:    f504712d    ..-q    ADD      r1,r4,#0x2b4
        0x0001d802:    f504772e    ...w    ADD      r7,r4,#0x2b8
        0x0001d806:    2d02        .-      CMP      r5,#2
        0x0001d808:    f44f4480    O..D    MOV      r4,#0x4000
        0x0001d80c:    f8c2e044    ..D.    STR      lr,[r2,#0x44]
        0x0001d810:    e9c21e0c    ....    STRD     r1,lr,[r2,#0x30]
        0x0001d814:    e9c21e0e    ....    STRD     r1,lr,[r2,#0x38]
        0x0001d818:    6097        .`      STR      r7,[r2,#8]
        0x0001d81a:    6017        .`      STR      r7,[r2,#0]
        0x0001d81c:    d009        ..      BEQ      0x1d832 ; build_dma_cmdlist + 302
        0x0001d81e:    2d01        .-      CMP      r5,#1
        0x0001d820:    d10a        ..      BNE      0x1d838 ; build_dma_cmdlist + 308
        0x0001d822:    f24407a0    D...    MOV      r7,#0x40a0
        0x0001d826:    ea4c0507    L...    ORR      r5,r12,r7
        0x0001d82a:    2702        .'      MOVS     r7,#2
        0x0001d82c:    f8c07838    ..8x    STR      r7,[r0,#0x838]
        0x0001d830:    e004        ..      B        0x1d83c ; build_dma_cmdlist + 312
        0x0001d832:    f44f4580    O..E    MOV      r5,#0x4000
        0x0001d836:    e001        ..      B        0x1d83c ; build_dma_cmdlist + 312
        0x0001d838:    f44c4581    L..E    ORR      r5,r12,#0x4080
        0x0001d83c:    6958        Xi      LDR      r0,[r3,#0x14]
        0x0001d83e:    6055        U`      STR      r5,[r2,#4]
        0x0001d840:    60d4        .`      STR      r4,[r2,#0xc]
        0x0001d842:    e9c21012    ....    STRD     r1,r0,[r2,#0x48]
        0x0001d846:    f04f0c00    O...    MOV      r12,#0
        0x0001d84a:    4660        `F      MOV      r0,r12
        0x0001d84c:    bdf0        ..      POP      {r4-r7,pc}
        0x0001d84e:    0000        ..      MOVS     r0,r0
    count_consecutive_ones
        0x0001d850:    b083        ..      SUB      sp,sp,#0xc
        0x0001d852:    9002        ..      STR      r0,[sp,#8]
        0x0001d854:    2000        .       MOVS     r0,#0
        0x0001d856:    9001        ..      STR      r0,[sp,#4]
        0x0001d858:    9802        ..      LDR      r0,[sp,#8]
        0x0001d85a:    6800        .h      LDR      r0,[r0,#0]
        0x0001d85c:    9000        ..      STR      r0,[sp,#0]
        0x0001d85e:    e7ff        ..      B        0x1d860 ; count_consecutive_ones + 16
        0x0001d860:    9800        ..      LDR      r0,[sp,#0]
        0x0001d862:    b140        @.      CBZ      r0,0x1d876 ; count_consecutive_ones + 38
        0x0001d864:    e7ff        ..      B        0x1d866 ; count_consecutive_ones + 22
        0x0001d866:    9800        ..      LDR      r0,[sp,#0]
        0x0001d868:    ea000040    ..@.    AND      r0,r0,r0,LSL #1
        0x0001d86c:    9000        ..      STR      r0,[sp,#0]
        0x0001d86e:    9801        ..      LDR      r0,[sp,#4]
        0x0001d870:    3001        .0      ADDS     r0,#1
        0x0001d872:    9001        ..      STR      r0,[sp,#4]
        0x0001d874:    e7f4        ..      B        0x1d860 ; count_consecutive_ones + 16
        0x0001d876:    9801        ..      LDR      r0,[sp,#4]
        0x0001d878:    b003        ..      ADD      sp,sp,#0xc
        0x0001d87a:    4770        pG      BX       lr
    decstr_to_int
        0x0001d87c:    b087        ..      SUB      sp,sp,#0x1c
        0x0001d87e:    9006        ..      STR      r0,[sp,#0x18]
        0x0001d880:    9105        ..      STR      r1,[sp,#0x14]
        0x0001d882:    2000        .       MOVS     r0,#0
        0x0001d884:    f88d0013    ....    STRB     r0,[sp,#0x13]
        0x0001d888:    9003        ..      STR      r0,[sp,#0xc]
        0x0001d88a:    9002        ..      STR      r0,[sp,#8]
        0x0001d88c:    9806        ..      LDR      r0,[sp,#0x18]
        0x0001d88e:    7800        .x      LDRB     r0,[r0,#0]
        0x0001d890:    282d        -(      CMP      r0,#0x2d
        0x0001d892:    d10a        ..      BNE      0x1d8aa ; decstr_to_int + 46
        0x0001d894:    e7ff        ..      B        0x1d896 ; decstr_to_int + 26
        0x0001d896:    2001        .       MOVS     r0,#1
        0x0001d898:    f88d0013    ....    STRB     r0,[sp,#0x13]
        0x0001d89c:    9806        ..      LDR      r0,[sp,#0x18]
        0x0001d89e:    3001        .0      ADDS     r0,#1
        0x0001d8a0:    9006        ..      STR      r0,[sp,#0x18]
        0x0001d8a2:    9802        ..      LDR      r0,[sp,#8]
        0x0001d8a4:    3001        .0      ADDS     r0,#1
        0x0001d8a6:    9002        ..      STR      r0,[sp,#8]
        0x0001d8a8:    e7ff        ..      B        0x1d8aa ; decstr_to_int + 46
        0x0001d8aa:    e7ff        ..      B        0x1d8ac ; decstr_to_int + 48
        0x0001d8ac:    9806        ..      LDR      r0,[sp,#0x18]
        0x0001d8ae:    7801        .x      LDRB     r1,[r0,#0]
        0x0001d8b0:    2000        .       MOVS     r0,#0
        0x0001d8b2:    2930        0)      CMP      r1,#0x30
        0x0001d8b4:    9001        ..      STR      r0,[sp,#4]
        0x0001d8b6:    db08        ..      BLT      0x1d8ca ; decstr_to_int + 78
        0x0001d8b8:    e7ff        ..      B        0x1d8ba ; decstr_to_int + 62
        0x0001d8ba:    9806        ..      LDR      r0,[sp,#0x18]
        0x0001d8bc:    7801        .x      LDRB     r1,[r0,#0]
        0x0001d8be:    2000        .       MOVS     r0,#0
        0x0001d8c0:    293a        :)      CMP      r1,#0x3a
        0x0001d8c2:    bfb8        ..      IT       LT
        0x0001d8c4:    2001        .       MOVLT    r0,#1
        0x0001d8c6:    9001        ..      STR      r0,[sp,#4]
        0x0001d8c8:    e7ff        ..      B        0x1d8ca ; decstr_to_int + 78
        0x0001d8ca:    9801        ..      LDR      r0,[sp,#4]
        0x0001d8cc:    07c0        ..      LSLS     r0,r0,#31
        0x0001d8ce:    b190        ..      CBZ      r0,0x1d8f6 ; decstr_to_int + 122
        0x0001d8d0:    e7ff        ..      B        0x1d8d2 ; decstr_to_int + 86
        0x0001d8d2:    9802        ..      LDR      r0,[sp,#8]
        0x0001d8d4:    3001        .0      ADDS     r0,#1
        0x0001d8d6:    9002        ..      STR      r0,[sp,#8]
        0x0001d8d8:    9803        ..      LDR      r0,[sp,#0xc]
        0x0001d8da:    eb000080    ....    ADD      r0,r0,r0,LSL #2
        0x0001d8de:    0040        @.      LSLS     r0,r0,#1
        0x0001d8e0:    9003        ..      STR      r0,[sp,#0xc]
        0x0001d8e2:    9806        ..      LDR      r0,[sp,#0x18]
        0x0001d8e4:    7800        .x      LDRB     r0,[r0,#0]
        0x0001d8e6:    9903        ..      LDR      r1,[sp,#0xc]
        0x0001d8e8:    4408        .D      ADD      r0,r0,r1
        0x0001d8ea:    3830        08      SUBS     r0,r0,#0x30
        0x0001d8ec:    9003        ..      STR      r0,[sp,#0xc]
        0x0001d8ee:    9806        ..      LDR      r0,[sp,#0x18]
        0x0001d8f0:    3001        .0      ADDS     r0,#1
        0x0001d8f2:    9006        ..      STR      r0,[sp,#0x18]
        0x0001d8f4:    e7da        ..      B        0x1d8ac ; decstr_to_int + 48
        0x0001d8f6:    9805        ..      LDR      r0,[sp,#0x14]
        0x0001d8f8:    b120         .      CBZ      r0,0x1d904 ; decstr_to_int + 136
        0x0001d8fa:    e7ff        ..      B        0x1d8fc ; decstr_to_int + 128
        0x0001d8fc:    9802        ..      LDR      r0,[sp,#8]
        0x0001d8fe:    9905        ..      LDR      r1,[sp,#0x14]
        0x0001d900:    6008        .`      STR      r0,[r1,#0]
        0x0001d902:    e7ff        ..      B        0x1d904 ; decstr_to_int + 136
        0x0001d904:    f89d0013    ....    LDRB     r0,[sp,#0x13]
        0x0001d908:    07c0        ..      LSLS     r0,r0,#31
        0x0001d90a:    b120         .      CBZ      r0,0x1d916 ; decstr_to_int + 154
        0x0001d90c:    e7ff        ..      B        0x1d90e ; decstr_to_int + 146
        0x0001d90e:    9803        ..      LDR      r0,[sp,#0xc]
        0x0001d910:    4240        @B      RSBS     r0,r0,#0
        0x0001d912:    9000        ..      STR      r0,[sp,#0]
        0x0001d914:    e002        ..      B        0x1d91c ; decstr_to_int + 160
        0x0001d916:    9803        ..      LDR      r0,[sp,#0xc]
        0x0001d918:    9000        ..      STR      r0,[sp,#0]
        0x0001d91a:    e7ff        ..      B        0x1d91c ; decstr_to_int + 160
        0x0001d91c:    9800        ..      LDR      r0,[sp,#0]
        0x0001d91e:    b007        ..      ADD      sp,sp,#0x1c
        0x0001d920:    4770        pG      BX       lr
        0x0001d922:    0000        ..      MOVS     r0,r0
    divu64_10
        0x0001d924:    b08c        ..      SUB      sp,sp,#0x30
        0x0001d926:    9109        ..      STR      r1,[sp,#0x24]
        0x0001d928:    9008        ..      STR      r0,[sp,#0x20]
        0x0001d92a:    9809        ..      LDR      r0,[sp,#0x24]
        0x0001d92c:    2800        .(      CMP      r0,#0
        0x0001d92e:    d05b        [.      BEQ      0x1d9e8 ; divu64_10 + 196
        0x0001d930:    e7ff        ..      B        0x1d932 ; divu64_10 + 14
        0x0001d932:    9b08        ..      LDR      r3,[sp,#0x20]
        0x0001d934:    9a09        ..      LDR      r2,[sp,#0x24]
        0x0001d936:    ea5f0052    _.R.    LSRS.W   r0,r2,#1
        0x0001d93a:    ea4f0133    O.3.    RRX      r1,r3
        0x0001d93e:    089b        ..      LSRS     r3,r3,#2
        0x0001d940:    ea437382    C..s    ORR      r3,r3,r2,LSL #30
        0x0001d944:    18c9        ..      ADDS     r1,r1,r3
        0x0001d946:    eb400092    @...    ADC      r0,r0,r2,LSR #2
        0x0001d94a:    9106        ..      STR      r1,[sp,#0x18]
        0x0001d94c:    9007        ..      STR      r0,[sp,#0x1c]
        0x0001d94e:    9906        ..      LDR      r1,[sp,#0x18]
        0x0001d950:    9807        ..      LDR      r0,[sp,#0x1c]
        0x0001d952:    090a        ..      LSRS     r2,r1,#4
        0x0001d954:    ea427200    B..r    ORR      r2,r2,r0,LSL #28
        0x0001d958:    1889        ..      ADDS     r1,r1,r2
        0x0001d95a:    eb401010    @...    ADC      r0,r0,r0,LSR #4
        0x0001d95e:    9106        ..      STR      r1,[sp,#0x18]
        0x0001d960:    9007        ..      STR      r0,[sp,#0x1c]
        0x0001d962:    9906        ..      LDR      r1,[sp,#0x18]
        0x0001d964:    9807        ..      LDR      r0,[sp,#0x1c]
        0x0001d966:    0a0a        ..      LSRS     r2,r1,#8
        0x0001d968:    ea426200    B..b    ORR      r2,r2,r0,LSL #24
        0x0001d96c:    1889        ..      ADDS     r1,r1,r2
        0x0001d96e:    eb402010    @..     ADC      r0,r0,r0,LSR #8
        0x0001d972:    9106        ..      STR      r1,[sp,#0x18]
        0x0001d974:    9007        ..      STR      r0,[sp,#0x1c]
        0x0001d976:    9906        ..      LDR      r1,[sp,#0x18]
        0x0001d978:    9807        ..      LDR      r0,[sp,#0x1c]
        0x0001d97a:    0c0a        ..      LSRS     r2,r1,#16
        0x0001d97c:    ea424200    B..B    ORR      r2,r2,r0,LSL #16
        0x0001d980:    1889        ..      ADDS     r1,r1,r2
        0x0001d982:    eb404010    @..@    ADC      r0,r0,r0,LSR #16
        0x0001d986:    9106        ..      STR      r1,[sp,#0x18]
        0x0001d988:    9007        ..      STR      r0,[sp,#0x1c]
        0x0001d98a:    9906        ..      LDR      r1,[sp,#0x18]
        0x0001d98c:    9807        ..      LDR      r0,[sp,#0x1c]
        0x0001d98e:    1809        ..      ADDS     r1,r1,r0
        0x0001d990:    f1400000    @...    ADC      r0,r0,#0
        0x0001d994:    9106        ..      STR      r1,[sp,#0x18]
        0x0001d996:    9007        ..      STR      r0,[sp,#0x1c]
        0x0001d998:    9806        ..      LDR      r0,[sp,#0x18]
        0x0001d99a:    9907        ..      LDR      r1,[sp,#0x1c]
        0x0001d99c:    08c0        ..      LSRS     r0,r0,#3
        0x0001d99e:    ea407041    @.Ap    ORR      r0,r0,r1,LSL #29
        0x0001d9a2:    08c9        ..      LSRS     r1,r1,#3
        0x0001d9a4:    9107        ..      STR      r1,[sp,#0x1c]
        0x0001d9a6:    9006        ..      STR      r0,[sp,#0x18]
        0x0001d9a8:    9908        ..      LDR      r1,[sp,#0x20]
        0x0001d9aa:    9809        ..      LDR      r0,[sp,#0x24]
        0x0001d9ac:    9a06        ..      LDR      r2,[sp,#0x18]
        0x0001d9ae:    f8ddc01c    ....    LDR      r12,[sp,#0x1c]
        0x0001d9b2:    230a        .#      MOVS     r3,#0xa
        0x0001d9b4:    fba23203    ...2    UMULL    r3,r2,r2,r3
        0x0001d9b8:    eb0c0c8c    ....    ADD      r12,r12,r12,LSL #2
        0x0001d9bc:    eb02024c    ..L.    ADD      r2,r2,r12,LSL #1
        0x0001d9c0:    1ac9        ..      SUBS     r1,r1,r3
        0x0001d9c2:    4190        .A      SBCS     r0,r0,r2
        0x0001d9c4:    9104        ..      STR      r1,[sp,#0x10]
        0x0001d9c6:    9005        ..      STR      r0,[sp,#0x14]
        0x0001d9c8:    9906        ..      LDR      r1,[sp,#0x18]
        0x0001d9ca:    9807        ..      LDR      r0,[sp,#0x1c]
        0x0001d9cc:    9b04        ..      LDR      r3,[sp,#0x10]
        0x0001d9ce:    9a05        ..      LDR      r2,[sp,#0x14]
        0x0001d9d0:    3306        .3      ADDS     r3,#6
        0x0001d9d2:    f1420200    B...    ADC      r2,r2,#0
        0x0001d9d6:    091b        ..      LSRS     r3,r3,#4
        0x0001d9d8:    ea437302    C..s    ORR      r3,r3,r2,LSL #28
        0x0001d9dc:    18c9        ..      ADDS     r1,r1,r3
        0x0001d9de:    eb401012    @...    ADC      r0,r0,r2,LSR #4
        0x0001d9e2:    910a        ..      STR      r1,[sp,#0x28]
        0x0001d9e4:    900b        ..      STR      r0,[sp,#0x2c]
        0x0001d9e6:    e025        %.      B        0x1da34 ; divu64_10 + 272
        0x0001d9e8:    9808        ..      LDR      r0,[sp,#0x20]
        0x0001d9ea:    9001        ..      STR      r0,[sp,#4]
        0x0001d9ec:    9901        ..      LDR      r1,[sp,#4]
        0x0001d9ee:    0848        H.      LSRS     r0,r1,#1
        0x0001d9f0:    eb000091    ....    ADD      r0,r0,r1,LSR #2
        0x0001d9f4:    9003        ..      STR      r0,[sp,#0xc]
        0x0001d9f6:    9803        ..      LDR      r0,[sp,#0xc]
        0x0001d9f8:    eb001010    ....    ADD      r0,r0,r0,LSR #4
        0x0001d9fc:    9003        ..      STR      r0,[sp,#0xc]
        0x0001d9fe:    9803        ..      LDR      r0,[sp,#0xc]
        0x0001da00:    eb002010    ...     ADD      r0,r0,r0,LSR #8
        0x0001da04:    9003        ..      STR      r0,[sp,#0xc]
        0x0001da06:    9803        ..      LDR      r0,[sp,#0xc]
        0x0001da08:    eb004010    ...@    ADD      r0,r0,r0,LSR #16
        0x0001da0c:    9003        ..      STR      r0,[sp,#0xc]
        0x0001da0e:    9803        ..      LDR      r0,[sp,#0xc]
        0x0001da10:    08c0        ..      LSRS     r0,r0,#3
        0x0001da12:    9003        ..      STR      r0,[sp,#0xc]
        0x0001da14:    9801        ..      LDR      r0,[sp,#4]
        0x0001da16:    9903        ..      LDR      r1,[sp,#0xc]
        0x0001da18:    eb010181    ....    ADD      r1,r1,r1,LSL #2
        0x0001da1c:    eba00041    ..A.    SUB      r0,r0,r1,LSL #1
        0x0001da20:    9002        ..      STR      r0,[sp,#8]
        0x0001da22:    9803        ..      LDR      r0,[sp,#0xc]
        0x0001da24:    9902        ..      LDR      r1,[sp,#8]
        0x0001da26:    3106        .1      ADDS     r1,#6
        0x0001da28:    eb001011    ....    ADD      r0,r0,r1,LSR #4
        0x0001da2c:    2100        .!      MOVS     r1,#0
        0x0001da2e:    910b        ..      STR      r1,[sp,#0x2c]
        0x0001da30:    900a        ..      STR      r0,[sp,#0x28]
        0x0001da32:    e7ff        ..      B        0x1da34 ; divu64_10 + 272
        0x0001da34:    980a        ..      LDR      r0,[sp,#0x28]
        0x0001da36:    990b        ..      LDR      r1,[sp,#0x2c]
        0x0001da38:    b00c        ..      ADD      sp,sp,#0x30
        0x0001da3a:    4770        pG      BX       lr
    find_mid_point
        0x0001da3c:    b088        ..      SUB      sp,sp,#0x20
        0x0001da3e:    9007        ..      STR      r0,[sp,#0x1c]
        0x0001da40:    2000        .       MOVS     r0,#0
        0x0001da42:    9006        ..      STR      r0,[sp,#0x18]
        0x0001da44:    9005        ..      STR      r0,[sp,#0x14]
        0x0001da46:    9004        ..      STR      r0,[sp,#0x10]
        0x0001da48:    f88d000f    ....    STRB     r0,[sp,#0xf]
        0x0001da4c:    9907        ..      LDR      r1,[sp,#0x1c]
        0x0001da4e:    6809        .h      LDR      r1,[r1,#0]
        0x0001da50:    9102        ..      STR      r1,[sp,#8]
        0x0001da52:    f88d0007    ....    STRB     r0,[sp,#7]
        0x0001da56:    9000        ..      STR      r0,[sp,#0]
        0x0001da58:    e7ff        ..      B        0x1da5a ; find_mid_point + 30
        0x0001da5a:    9800        ..      LDR      r0,[sp,#0]
        0x0001da5c:    281f        .(      CMP      r0,#0x1f
        0x0001da5e:    d831        1.      BHI      0x1dac4 ; find_mid_point + 136
        0x0001da60:    e7ff        ..      B        0x1da62 ; find_mid_point + 38
        0x0001da62:    9802        ..      LDR      r0,[sp,#8]
        0x0001da64:    9900        ..      LDR      r1,[sp,#0]
        0x0001da66:    40c8        .@      LSRS     r0,r0,r1
        0x0001da68:    07c0        ..      LSLS     r0,r0,#31
        0x0001da6a:    b138        8.      CBZ      r0,0x1da7c ; find_mid_point + 64
        0x0001da6c:    e7ff        ..      B        0x1da6e ; find_mid_point + 50
        0x0001da6e:    2001        .       MOVS     r0,#1
        0x0001da70:    f88d000f    ....    STRB     r0,[sp,#0xf]
        0x0001da74:    9806        ..      LDR      r0,[sp,#0x18]
        0x0001da76:    3001        .0      ADDS     r0,#1
        0x0001da78:    9006        ..      STR      r0,[sp,#0x18]
        0x0001da7a:    e01e        ..      B        0x1daba ; find_mid_point + 126
        0x0001da7c:    f89d000f    ....    LDRB     r0,[sp,#0xf]
        0x0001da80:    07c0        ..      LSLS     r0,r0,#31
        0x0001da82:    b1c8        ..      CBZ      r0,0x1dab8 ; find_mid_point + 124
        0x0001da84:    e7ff        ..      B        0x1da86 ; find_mid_point + 74
        0x0001da86:    2000        .       MOVS     r0,#0
        0x0001da88:    f88d000f    ....    STRB     r0,[sp,#0xf]
        0x0001da8c:    9806        ..      LDR      r0,[sp,#0x18]
        0x0001da8e:    9905        ..      LDR      r1,[sp,#0x14]
        0x0001da90:    4288        .B      CMP      r0,r1
        0x0001da92:    d90e        ..      BLS      0x1dab2 ; find_mid_point + 118
        0x0001da94:    e7ff        ..      B        0x1da96 ; find_mid_point + 90
        0x0001da96:    9806        ..      LDR      r0,[sp,#0x18]
        0x0001da98:    9005        ..      STR      r0,[sp,#0x14]
        0x0001da9a:    9900        ..      LDR      r1,[sp,#0]
        0x0001da9c:    9806        ..      LDR      r0,[sp,#0x18]
        0x0001da9e:    ea6f0050    o.P.    MVN      r0,r0,LSR #1
        0x0001daa2:    4408        .D      ADD      r0,r0,r1
        0x0001daa4:    9004        ..      STR      r0,[sp,#0x10]
        0x0001daa6:    9806        ..      LDR      r0,[sp,#0x18]
        0x0001daa8:    f0000001    ....    AND      r0,r0,#1
        0x0001daac:    f88d0007    ....    STRB     r0,[sp,#7]
        0x0001dab0:    e7ff        ..      B        0x1dab2 ; find_mid_point + 118
        0x0001dab2:    2000        .       MOVS     r0,#0
        0x0001dab4:    9006        ..      STR      r0,[sp,#0x18]
        0x0001dab6:    e7ff        ..      B        0x1dab8 ; find_mid_point + 124
        0x0001dab8:    e7ff        ..      B        0x1daba ; find_mid_point + 126
        0x0001daba:    e7ff        ..      B        0x1dabc ; find_mid_point + 128
        0x0001dabc:    9800        ..      LDR      r0,[sp,#0]
        0x0001dabe:    3001        .0      ADDS     r0,#1
        0x0001dac0:    9000        ..      STR      r0,[sp,#0]
        0x0001dac2:    e7ca        ..      B        0x1da5a ; find_mid_point + 30
        0x0001dac4:    9804        ..      LDR      r0,[sp,#0x10]
        0x0001dac6:    280f        .(      CMP      r0,#0xf
        0x0001dac8:    d80c        ..      BHI      0x1dae4 ; find_mid_point + 168
        0x0001daca:    e7ff        ..      B        0x1dacc ; find_mid_point + 144
        0x0001dacc:    f89d0008    ....    LDRB     r0,[sp,#8]
        0x0001dad0:    0780        ..      LSLS     r0,r0,#30
        0x0001dad2:    2800        .(      CMP      r0,#0
        0x0001dad4:    d506        ..      BPL      0x1dae4 ; find_mid_point + 168
        0x0001dad6:    e7ff        ..      B        0x1dad8 ; find_mid_point + 156
        0x0001dad8:    9804        ..      LDR      r0,[sp,#0x10]
        0x0001dada:    f89d1007    ....    LDRB     r1,[sp,#7]
        0x0001dade:    1a40        @.      SUBS     r0,r0,r1
        0x0001dae0:    9004        ..      STR      r0,[sp,#0x10]
        0x0001dae2:    e00f        ..      B        0x1db04 ; find_mid_point + 200
        0x0001dae4:    9804        ..      LDR      r0,[sp,#0x10]
        0x0001dae6:    2810        .(      CMP      r0,#0x10
        0x0001dae8:    d30a        ..      BCC      0x1db00 ; find_mid_point + 196
        0x0001daea:    e7ff        ..      B        0x1daec ; find_mid_point + 176
        0x0001daec:    f89d000b    ....    LDRB     r0,[sp,#0xb]
        0x0001daf0:    0640        @.      LSLS     r0,r0,#25
        0x0001daf2:    2800        .(      CMP      r0,#0
        0x0001daf4:    d504        ..      BPL      0x1db00 ; find_mid_point + 196
        0x0001daf6:    e7ff        ..      B        0x1daf8 ; find_mid_point + 188
        0x0001daf8:    9804        ..      LDR      r0,[sp,#0x10]
        0x0001dafa:    3001        .0      ADDS     r0,#1
        0x0001dafc:    9004        ..      STR      r0,[sp,#0x10]
        0x0001dafe:    e000        ..      B        0x1db02 ; find_mid_point + 198
        0x0001db00:    e7ff        ..      B        0x1db02 ; find_mid_point + 198
        0x0001db02:    e7ff        ..      B        0x1db04 ; find_mid_point + 200
        0x0001db04:    9804        ..      LDR      r0,[sp,#0x10]
        0x0001db06:    b008        ..      ADD      sp,sp,#0x20
        0x0001db08:    4770        pG      BX       lr
        0x0001db0a:    0000        ..      MOVS     r0,r0
    ftoa
        0x0001db0c:    b580        ..      PUSH     {r7,lr}
        0x0001db0e:    b090        ..      SUB      sp,sp,#0x40
        0x0001db10:    ed8d0a0e    ....    VSTR     s0,[sp,#0x38]
        0x0001db14:    900d        ..      STR      r0,[sp,#0x34]
        0x0001db16:    910c        ..      STR      r1,[sp,#0x30]
        0x0001db18:    980d        ..      LDR      r0,[sp,#0x34]
        0x0001db1a:    6800        .h      LDR      r0,[r0,#0]
        0x0001db1c:    9009        ..      STR      r0,[sp,#0x24]
        0x0001db1e:    9809        ..      LDR      r0,[sp,#0x24]
        0x0001db20:    2803        .(      CMP      r0,#3
        0x0001db22:    dc04        ..      BGT      0x1db2e ; ftoa + 34
        0x0001db24:    e7ff        ..      B        0x1db26 ; ftoa + 26
        0x0001db26:    f06f0002    o...    MVN      r0,#2
        0x0001db2a:    900f        ..      STR      r0,[sp,#0x3c]
        0x0001db2c:    e103        ..      B        0x1dd36 ; ftoa + 554
        0x0001db2e:    ed9d0a0e    ....    VLDR     s0,[sp,#0x38]
        0x0001db32:    eeb50a40    ..@.    VCMP.F32 s0,#0.0
        0x0001db36:    eef1fa10    ....    VMRS     APSR_nzcv,FPSCR
        0x0001db3a:    d109        ..      BNE      0x1db50 ; ftoa + 68
        0x0001db3c:    e7ff        ..      B        0x1db3e ; ftoa + 50
        0x0001db3e:    990d        ..      LDR      r1,[sp,#0x34]
        0x0001db40:    f6426030    B.0`    MOV      r0,#0x2e30
        0x0001db44:    f2c00030    ..0.    MOVT     r0,#0x30
        0x0001db48:    6008        .`      STR      r0,[r1,#0]
        0x0001db4a:    2003        .       MOVS     r0,#3
        0x0001db4c:    900f        ..      STR      r0,[sp,#0x3c]
        0x0001db4e:    e0f2        ..      B        0x1dd36 ; ftoa + 554
        0x0001db50:    980d        ..      LDR      r0,[sp,#0x34]
        0x0001db52:    9005        ..      STR      r0,[sp,#0x14]
        0x0001db54:    980e        ..      LDR      r0,[sp,#0x38]
        0x0001db56:    900b        ..      STR      r0,[sp,#0x2c]
        0x0001db58:    980b        ..      LDR      r0,[sp,#0x2c]
        0x0001db5a:    0dc1        ..      LSRS     r1,r0,#23
        0x0001db5c:    f06f007e    o.~.    MVN      r0,#0x7e
        0x0001db60:    fa50f081    P...    UXTAB    r0,r0,r1
        0x0001db64:    900a        ..      STR      r0,[sp,#0x28]
        0x0001db66:    980b        ..      LDR      r0,[sp,#0x2c]
        0x0001db68:    f4400000    @...    ORR      r0,r0,#0x800000
        0x0001db6c:    f020407f     ..@    BIC      r0,r0,#0xff000000
        0x0001db70:    9008        ..      STR      r0,[sp,#0x20]
        0x0001db72:    2000        .       MOVS     r0,#0
        0x0001db74:    9006        ..      STR      r0,[sp,#0x18]
        0x0001db76:    9007        ..      STR      r0,[sp,#0x1c]
        0x0001db78:    980a        ..      LDR      r0,[sp,#0x28]
        0x0001db7a:    281f        .(      CMP      r0,#0x1f
        0x0001db7c:    db04        ..      BLT      0x1db88 ; ftoa + 124
        0x0001db7e:    e7ff        ..      B        0x1db80 ; ftoa + 116
        0x0001db80:    f06f0001    o...    MVN      r0,#1
        0x0001db84:    900f        ..      STR      r0,[sp,#0x3c]
        0x0001db86:    e0d6        ..      B        0x1dd36 ; ftoa + 554
        0x0001db88:    980a        ..      LDR      r0,[sp,#0x28]
        0x0001db8a:    f1100f18    ....    CMN      r0,#0x18
        0x0001db8e:    dc04        ..      BGT      0x1db9a ; ftoa + 142
        0x0001db90:    e7ff        ..      B        0x1db92 ; ftoa + 134
        0x0001db92:    f04f30ff    O..0    MOV      r0,#0xffffffff
        0x0001db96:    900f        ..      STR      r0,[sp,#0x3c]
        0x0001db98:    e0cd        ..      B        0x1dd36 ; ftoa + 554
        0x0001db9a:    980a        ..      LDR      r0,[sp,#0x28]
        0x0001db9c:    2817        .(      CMP      r0,#0x17
        0x0001db9e:    db06        ..      BLT      0x1dbae ; ftoa + 162
        0x0001dba0:    e7ff        ..      B        0x1dba2 ; ftoa + 150
        0x0001dba2:    9808        ..      LDR      r0,[sp,#0x20]
        0x0001dba4:    990a        ..      LDR      r1,[sp,#0x28]
        0x0001dba6:    3917        .9      SUBS     r1,r1,#0x17
        0x0001dba8:    4088        .@      LSLS     r0,r0,r1
        0x0001dbaa:    9007        ..      STR      r0,[sp,#0x1c]
        0x0001dbac:    e01a        ..      B        0x1dbe4 ; ftoa + 216
        0x0001dbae:    980a        ..      LDR      r0,[sp,#0x28]
        0x0001dbb0:    2800        .(      CMP      r0,#0
        0x0001dbb2:    d40e        ..      BMI      0x1dbd2 ; ftoa + 198
        0x0001dbb4:    e7ff        ..      B        0x1dbb6 ; ftoa + 170
        0x0001dbb6:    9808        ..      LDR      r0,[sp,#0x20]
        0x0001dbb8:    990a        ..      LDR      r1,[sp,#0x28]
        0x0001dbba:    f1c10117    ....    RSB      r1,r1,#0x17
        0x0001dbbe:    4108        .A      ASRS     r0,r0,r1
        0x0001dbc0:    9007        ..      STR      r0,[sp,#0x1c]
        0x0001dbc2:    9808        ..      LDR      r0,[sp,#0x20]
        0x0001dbc4:    990a        ..      LDR      r1,[sp,#0x28]
        0x0001dbc6:    3101        .1      ADDS     r1,#1
        0x0001dbc8:    4088        .@      LSLS     r0,r0,r1
        0x0001dbca:    f020407f     ..@    BIC      r0,r0,#0xff000000
        0x0001dbce:    9006        ..      STR      r0,[sp,#0x18]
        0x0001dbd0:    e007        ..      B        0x1dbe2 ; ftoa + 214
        0x0001dbd2:    9808        ..      LDR      r0,[sp,#0x20]
        0x0001dbd4:    f020407f     ..@    BIC      r0,r0,#0xff000000
        0x0001dbd8:    990a        ..      LDR      r1,[sp,#0x28]
        0x0001dbda:    43c9        .C      MVNS     r1,r1
        0x0001dbdc:    40c8        .@      LSRS     r0,r0,r1
        0x0001dbde:    9006        ..      STR      r0,[sp,#0x18]
        0x0001dbe0:    e7ff        ..      B        0x1dbe2 ; ftoa + 214
        0x0001dbe2:    e7ff        ..      B        0x1dbe4 ; ftoa + 216
        0x0001dbe4:    e7ff        ..      B        0x1dbe6 ; ftoa + 218
        0x0001dbe6:    e7ff        ..      B        0x1dbe8 ; ftoa + 220
        0x0001dbe8:    980b        ..      LDR      r0,[sp,#0x2c]
        0x0001dbea:    f1b03fff    ...?    CMP      r0,#0xffffffff
        0x0001dbee:    dc06        ..      BGT      0x1dbfe ; ftoa + 242
        0x0001dbf0:    e7ff        ..      B        0x1dbf2 ; ftoa + 230
        0x0001dbf2:    990d        ..      LDR      r1,[sp,#0x34]
        0x0001dbf4:    1c48        H.      ADDS     r0,r1,#1
        0x0001dbf6:    900d        ..      STR      r0,[sp,#0x34]
        0x0001dbf8:    202d        -       MOVS     r0,#0x2d
        0x0001dbfa:    7008        .p      STRB     r0,[r1,#0]
        0x0001dbfc:    e7ff        ..      B        0x1dbfe ; ftoa + 242
        0x0001dbfe:    9807        ..      LDR      r0,[sp,#0x1c]
        0x0001dc00:    b930        0.      CBNZ     r0,0x1dc10 ; ftoa + 260
        0x0001dc02:    e7ff        ..      B        0x1dc04 ; ftoa + 248
        0x0001dc04:    990d        ..      LDR      r1,[sp,#0x34]
        0x0001dc06:    1c48        H.      ADDS     r0,r1,#1
        0x0001dc08:    900d        ..      STR      r0,[sp,#0x34]
        0x0001dc0a:    2030        0       MOVS     r0,#0x30
        0x0001dc0c:    7008        .p      STRB     r0,[r1,#0]
        0x0001dc0e:    e01f        ..      B        0x1dc50 ; ftoa + 324
        0x0001dc10:    9807        ..      LDR      r0,[sp,#0x1c]
        0x0001dc12:    2801        .(      CMP      r0,#1
        0x0001dc14:    db06        ..      BLT      0x1dc24 ; ftoa + 280
        0x0001dc16:    e7ff        ..      B        0x1dc18 ; ftoa + 268
        0x0001dc18:    9807        ..      LDR      r0,[sp,#0x1c]
        0x0001dc1a:    17c1        ..      ASRS     r1,r0,#31
        0x0001dc1c:    9a0d        ..      LDR      r2,[sp,#0x34]
        0x0001dc1e:    f001f89f    ....    BL       uint64_to_str ; 0x1ed60
        0x0001dc22:    e00b        ..      B        0x1dc3c ; ftoa + 304
        0x0001dc24:    990d        ..      LDR      r1,[sp,#0x34]
        0x0001dc26:    1c48        H.      ADDS     r0,r1,#1
        0x0001dc28:    900d        ..      STR      r0,[sp,#0x34]
        0x0001dc2a:    202d        -       MOVS     r0,#0x2d
        0x0001dc2c:    7008        .p      STRB     r0,[r1,#0]
        0x0001dc2e:    9807        ..      LDR      r0,[sp,#0x1c]
        0x0001dc30:    4240        @B      RSBS     r0,r0,#0
        0x0001dc32:    17c1        ..      ASRS     r1,r0,#31
        0x0001dc34:    9a0d        ..      LDR      r2,[sp,#0x34]
        0x0001dc36:    f001f893    ....    BL       uint64_to_str ; 0x1ed60
        0x0001dc3a:    e7ff        ..      B        0x1dc3c ; ftoa + 304
        0x0001dc3c:    e7ff        ..      B        0x1dc3e ; ftoa + 306
        0x0001dc3e:    980d        ..      LDR      r0,[sp,#0x34]
        0x0001dc40:    7800        .x      LDRB     r0,[r0,#0]
        0x0001dc42:    b120         .      CBZ      r0,0x1dc4e ; ftoa + 322
        0x0001dc44:    e7ff        ..      B        0x1dc46 ; ftoa + 314
        0x0001dc46:    980d        ..      LDR      r0,[sp,#0x34]
        0x0001dc48:    3001        .0      ADDS     r0,#1
        0x0001dc4a:    900d        ..      STR      r0,[sp,#0x34]
        0x0001dc4c:    e7f7        ..      B        0x1dc3e ; ftoa + 306
        0x0001dc4e:    e7ff        ..      B        0x1dc50 ; ftoa + 324
        0x0001dc50:    990d        ..      LDR      r1,[sp,#0x34]
        0x0001dc52:    1c48        H.      ADDS     r0,r1,#1
        0x0001dc54:    900d        ..      STR      r0,[sp,#0x34]
        0x0001dc56:    202e        .       MOVS     r0,#0x2e
        0x0001dc58:    7008        .p      STRB     r0,[r1,#0]
        0x0001dc5a:    9806        ..      LDR      r0,[sp,#0x18]
        0x0001dc5c:    b930        0.      CBNZ     r0,0x1dc6c ; ftoa + 352
        0x0001dc5e:    e7ff        ..      B        0x1dc60 ; ftoa + 340
        0x0001dc60:    990d        ..      LDR      r1,[sp,#0x34]
        0x0001dc62:    1c48        H.      ADDS     r0,r1,#1
        0x0001dc64:    900d        ..      STR      r0,[sp,#0x34]
        0x0001dc66:    2030        0       MOVS     r0,#0x30
        0x0001dc68:    7008        .p      STRB     r0,[r1,#0]
        0x0001dc6a:    e05c        \.      B        0x1dd26 ; ftoa + 538
        0x0001dc6c:    9909        ..      LDR      r1,[sp,#0x24]
        0x0001dc6e:    980d        ..      LDR      r0,[sp,#0x34]
        0x0001dc70:    9a05        ..      LDR      r2,[sp,#0x14]
        0x0001dc72:    1a80        ..      SUBS     r0,r0,r2
        0x0001dc74:    43c0        .C      MVNS     r0,r0
        0x0001dc76:    4408        .D      ADD      r0,r0,r1
        0x0001dc78:    9002        ..      STR      r0,[sp,#8]
        0x0001dc7a:    9802        ..      LDR      r0,[sp,#8]
        0x0001dc7c:    990c        ..      LDR      r1,[sp,#0x30]
        0x0001dc7e:    4288        .B      CMP      r0,r1
        0x0001dc80:    dd03        ..      BLE      0x1dc8a ; ftoa + 382
        0x0001dc82:    e7ff        ..      B        0x1dc84 ; ftoa + 376
        0x0001dc84:    980c        ..      LDR      r0,[sp,#0x30]
        0x0001dc86:    9001        ..      STR      r0,[sp,#4]
        0x0001dc88:    e002        ..      B        0x1dc90 ; ftoa + 388
        0x0001dc8a:    9802        ..      LDR      r0,[sp,#8]
        0x0001dc8c:    9001        ..      STR      r0,[sp,#4]
        0x0001dc8e:    e7ff        ..      B        0x1dc90 ; ftoa + 388
        0x0001dc90:    9801        ..      LDR      r0,[sp,#4]
        0x0001dc92:    9002        ..      STR      r0,[sp,#8]
        0x0001dc94:    2000        .       MOVS     r0,#0
        0x0001dc96:    9003        ..      STR      r0,[sp,#0xc]
        0x0001dc98:    e7ff        ..      B        0x1dc9a ; ftoa + 398
        0x0001dc9a:    9803        ..      LDR      r0,[sp,#0xc]
        0x0001dc9c:    9902        ..      LDR      r1,[sp,#8]
        0x0001dc9e:    4288        .B      CMP      r0,r1
        0x0001dca0:    da15        ..      BGE      0x1dcce ; ftoa + 450
        0x0001dca2:    e7ff        ..      B        0x1dca4 ; ftoa + 408
        0x0001dca4:    9806        ..      LDR      r0,[sp,#0x18]
        0x0001dca6:    eb000080    ....    ADD      r0,r0,r0,LSL #2
        0x0001dcaa:    0040        @.      LSLS     r0,r0,#1
        0x0001dcac:    9006        ..      STR      r0,[sp,#0x18]
        0x0001dcae:    f89d001b    ....    LDRB     r0,[sp,#0x1b]
        0x0001dcb2:    3030        00      ADDS     r0,r0,#0x30
        0x0001dcb4:    990d        ..      LDR      r1,[sp,#0x34]
        0x0001dcb6:    1c4a        J.      ADDS     r2,r1,#1
        0x0001dcb8:    920d        ..      STR      r2,[sp,#0x34]
        0x0001dcba:    7008        .p      STRB     r0,[r1,#0]
        0x0001dcbc:    9806        ..      LDR      r0,[sp,#0x18]
        0x0001dcbe:    f020407f     ..@    BIC      r0,r0,#0xff000000
        0x0001dcc2:    9006        ..      STR      r0,[sp,#0x18]
        0x0001dcc4:    e7ff        ..      B        0x1dcc6 ; ftoa + 442
        0x0001dcc6:    9803        ..      LDR      r0,[sp,#0xc]
        0x0001dcc8:    3001        .0      ADDS     r0,#1
        0x0001dcca:    9003        ..      STR      r0,[sp,#0xc]
        0x0001dccc:    e7e5        ..      B        0x1dc9a ; ftoa + 398
        0x0001dcce:    9806        ..      LDR      r0,[sp,#0x18]
        0x0001dcd0:    eb000080    ....    ADD      r0,r0,r0,LSL #2
        0x0001dcd4:    f34050c7    @..P    SBFX     r0,r0,#23,#8
        0x0001dcd8:    2805        .(      CMP      r0,#5
        0x0001dcda:    db23        #.      BLT      0x1dd24 ; ftoa + 536
        0x0001dcdc:    e7ff        ..      B        0x1dcde ; ftoa + 466
        0x0001dcde:    980d        ..      LDR      r0,[sp,#0x34]
        0x0001dce0:    3801        .8      SUBS     r0,#1
        0x0001dce2:    9004        ..      STR      r0,[sp,#0x10]
        0x0001dce4:    e7ff        ..      B        0x1dce6 ; ftoa + 474
        0x0001dce6:    9804        ..      LDR      r0,[sp,#0x10]
        0x0001dce8:    9905        ..      LDR      r1,[sp,#0x14]
        0x0001dcea:    4288        .B      CMP      r0,r1
        0x0001dcec:    d319        ..      BCC      0x1dd22 ; ftoa + 534
        0x0001dcee:    e7ff        ..      B        0x1dcf0 ; ftoa + 484
        0x0001dcf0:    9804        ..      LDR      r0,[sp,#0x10]
        0x0001dcf2:    7800        .x      LDRB     r0,[r0,#0]
        0x0001dcf4:    282e        .(      CMP      r0,#0x2e
        0x0001dcf6:    d101        ..      BNE      0x1dcfc ; ftoa + 496
        0x0001dcf8:    e7ff        ..      B        0x1dcfa ; ftoa + 494
        0x0001dcfa:    e00e        ..      B        0x1dd1a ; ftoa + 526
        0x0001dcfc:    9804        ..      LDR      r0,[sp,#0x10]
        0x0001dcfe:    7800        .x      LDRB     r0,[r0,#0]
        0x0001dd00:    2839        9(      CMP      r0,#0x39
        0x0001dd02:    d104        ..      BNE      0x1dd0e ; ftoa + 514
        0x0001dd04:    e7ff        ..      B        0x1dd06 ; ftoa + 506
        0x0001dd06:    9904        ..      LDR      r1,[sp,#0x10]
        0x0001dd08:    2030        0       MOVS     r0,#0x30
        0x0001dd0a:    7008        .p      STRB     r0,[r1,#0]
        0x0001dd0c:    e004        ..      B        0x1dd18 ; ftoa + 524
        0x0001dd0e:    9904        ..      LDR      r1,[sp,#0x10]
        0x0001dd10:    7808        .x      LDRB     r0,[r1,#0]
        0x0001dd12:    3001        .0      ADDS     r0,#1
        0x0001dd14:    7008        .p      STRB     r0,[r1,#0]
        0x0001dd16:    e004        ..      B        0x1dd22 ; ftoa + 534
        0x0001dd18:    e7ff        ..      B        0x1dd1a ; ftoa + 526
        0x0001dd1a:    9804        ..      LDR      r0,[sp,#0x10]
        0x0001dd1c:    3801        .8      SUBS     r0,#1
        0x0001dd1e:    9004        ..      STR      r0,[sp,#0x10]
        0x0001dd20:    e7e1        ..      B        0x1dce6 ; ftoa + 474
        0x0001dd22:    e7ff        ..      B        0x1dd24 ; ftoa + 536
        0x0001dd24:    e7ff        ..      B        0x1dd26 ; ftoa + 538
        0x0001dd26:    990d        ..      LDR      r1,[sp,#0x34]
        0x0001dd28:    2000        .       MOVS     r0,#0
        0x0001dd2a:    7008        .p      STRB     r0,[r1,#0]
        0x0001dd2c:    980d        ..      LDR      r0,[sp,#0x34]
        0x0001dd2e:    9905        ..      LDR      r1,[sp,#0x14]
        0x0001dd30:    1a40        @.      SUBS     r0,r0,r1
        0x0001dd32:    900f        ..      STR      r0,[sp,#0x3c]
        0x0001dd34:    e7ff        ..      B        0x1dd36 ; ftoa + 554
        0x0001dd36:    980f        ..      LDR      r0,[sp,#0x3c]
        0x0001dd38:    b010        ..      ADD      sp,sp,#0x40
        0x0001dd3a:    bd80        ..      POP      {r7,pc}
    getStackedReg
        0x0001dd3c:    0080        ..      LSLS     r0,r0,#2
        0x0001dd3e:    1840        @.      ADDS     r0,r0,r1
        0x0001dd40:    6800        .h      LDR      r0,[r0,#0]
        0x0001dd42:    4770        pG      BX       lr
    internal_timer_config
        0x0001dd44:    b580        ..      PUSH     {r7,lr}
        0x0001dd46:    220c        ."      MOVS     r2,#0xc
        0x0001dd48:    f2c40202    ....    MOVT     r2,#0x4002
        0x0001dd4c:    6813        .h      LDR      r3,[r2,#0]
        0x0001dd4e:    b2db        ..      UXTB     r3,r3
        0x0001dd50:    2b21        !+      CMP      r3,#0x21
        0x0001dd52:    d141        A.      BNE      0x1ddd8 ; internal_timer_config + 148
        0x0001dd54:    780a        .x      LDRB     r2,[r1,#0]
        0x0001dd56:    f891e001    ....    LDRB     lr,[r1,#1]
        0x0001dd5a:    78cb        .x      LDRB     r3,[r1,#3]
        0x0001dd5c:    f891c002    ....    LDRB     r12,[r1,#2]
        0x0001dd60:    0212        ..      LSLS     r2,r2,#8
        0x0001dd62:    f36e1207    n...    BFI      r2,lr,#4,#4
        0x0001dd66:    f003031f    ....    AND      r3,r3,#0x1f
        0x0001dd6a:    ea4202c3    B...    ORR      r2,r2,r3,LSL #3
        0x0001dd6e:    f00c033f    ..?.    AND      r3,r12,#0x3f
        0x0001dd72:    ea420c83    B...    ORR      r12,r2,r3,LSL #2
        0x0001dd76:    790b        .y      LDRB     r3,[r1,#4]
        0x0001dd78:    688a        .h      LDR      r2,[r1,#8]
        0x0001dd7a:    f0030303    ....    AND      r3,r3,#3
        0x0001dd7e:    ea4c6202    L..b    ORR      r2,r12,r2,LSL #24
        0x0001dd82:    ea424c03    B..L    ORR      r12,r2,r3,LSL #16
        0x0001dd86:    f2482200    H.."    MOVW     r2,#0x8200
        0x0001dd8a:    0140        @.      LSLS     r0,r0,#5
        0x0001dd8c:    f2c40200    ....    MOVT     r2,#0x4000
        0x0001dd90:    f891e005    ....    LDRB     lr,[r1,#5]
        0x0001dd94:    5813        .X      LDR      r3,[r2,r0]
        0x0001dd96:    ea4f2e0e    O...    LSL      lr,lr,#8
        0x0001dd9a:    f0230301    #...    BIC      r3,r3,#1
        0x0001dd9e:    5013        .P      STR      r3,[r2,r0]
        0x0001dda0:    f2482310    H..#    MOV      r3,#0x8210
        0x0001dda4:    f2c40300    ....    MOVT     r3,#0x4000
        0x0001dda8:    f842c000    B...    STR      r12,[r2,r0]
        0x0001ddac:    f843e000    C...    STR      lr,[r3,r0]
        0x0001ddb0:    f8d1c00c    ....    LDR      r12,[r1,#0xc]
        0x0001ddb4:    f2482308    H..#    MOV      r3,#0x8208
        0x0001ddb8:    f2c40300    ....    MOVT     r3,#0x4000
        0x0001ddbc:    f843c000    C...    STR      r12,[r3,r0]
        0x0001ddc0:    6909        .i      LDR      r1,[r1,#0x10]
        0x0001ddc2:    f248230c    H..#    MOV      r3,#0x820c
        0x0001ddc6:    f2c40300    ....    MOVT     r3,#0x4000
        0x0001ddca:    5019        .P      STR      r1,[r3,r0]
        0x0001ddcc:    5811        .X      LDR      r1,[r2,r0]
        0x0001ddce:    f0410102    A...    ORR      r1,r1,#2
        0x0001ddd2:    5011        .P      STR      r1,[r2,r0]
        0x0001ddd4:    2000        .       MOVS     r0,#0
        0x0001ddd6:    bd80        ..      POP      {r7,pc}
        0x0001ddd8:    6812        .h      LDR      r2,[r2,#0]
        0x0001ddda:    f00202fe    ....    AND      r2,r2,#0xfe
        0x0001ddde:    2a22        "*      CMP      r2,#0x22
        0x0001dde0:    bf3c        <.      ITT      CC
        0x0001dde2:    2001        .       MOVCC    r0,#1
        0x0001dde4:    bd80        ..      POPCC    {r7,pc}
        0x0001dde6:    280f        .(      CMP      r0,#0xf
        0x0001dde8:    d80f        ..      BHI      0x1de0a ; internal_timer_config + 198
        0x0001ddea:    2201        ."      MOVS     r2,#1
        0x0001ddec:    4082        .@      LSLS     r2,r2,r0
        0x0001ddee:    f64d430a    M..C    MOV      r3,#0xdc0a
        0x0001ddf2:    421a        .B      TST      r2,r3
        0x0001ddf4:    bf1c        ..      ITT      NE
        0x0001ddf6:    2006        .       MOVNE    r0,#6
        0x0001ddf8:    bd80        ..      POPNE    {r7,pc}
        0x0001ddfa:    f24233a0    B..3    MOV      r3,#0x23a0
        0x0001ddfe:    421a        .B      TST      r2,r3
        0x0001de00:    d003        ..      BEQ      0x1de0a ; internal_timer_config + 198
        0x0001de02:    790a        .y      LDRB     r2,[r1,#4]
        0x0001de04:    b10a        ..      CBZ      r2,0x1de0a ; internal_timer_config + 198
        0x0001de06:    2007        .       MOVS     r0,#7
        0x0001de08:    bd80        ..      POP      {r7,pc}
        0x0001de0a:    e8bd4080    ...@    POP      {r7,lr}
        0x0001de0e:    f000be93    ....    B.W      timer_config_b1 ; 0x1eb38
        0x0001de12:    0000        ..      MOVS     r0,r0
    main
        0x0001de14:    b580        ..      PUSH     {r7,lr}
        0x0001de16:    b096        ..      SUB      sp,sp,#0x58
        0x0001de18:    2000        .       MOVS     r0,#0
        0x0001de1a:    9015        ..      STR      r0,[sp,#0x54]
        0x0001de1c:    f2400e2c    @.,.    MOVW     lr,#0x2c
        0x0001de20:    f2c10e00    ....    MOVT     lr,#0x1000
        0x0001de24:    f8de1000    ....    LDR      r1,[lr,#0]
        0x0001de28:    f8de2004    ...     LDR      r2,[lr,#4]
        0x0001de2c:    f8de3008    ...0    LDR      r3,[lr,#8]
        0x0001de30:    f8dec00c    ....    LDR      r12,[lr,#0xc]
        0x0001de34:    f8dee010    ....    LDR      lr,[lr,#0x10]
        0x0001de38:    f8cde048    ..H.    STR      lr,[sp,#0x48]
        0x0001de3c:    f8cdc044    ..D.    STR      r12,[sp,#0x44]
        0x0001de40:    9310        ..      STR      r3,[sp,#0x40]
        0x0001de42:    920f        ..      STR      r2,[sp,#0x3c]
        0x0001de44:    910e        ..      STR      r1,[sp,#0x38]
        0x0001de46:    f88d0037    ..7.    STRB     r0,[sp,#0x37]
        0x0001de4a:    f88d0036    ..6.    STRB     r0,[sp,#0x36]
        0x0001de4e:    900c        ..      STR      r0,[sp,#0x30]
        0x0001de50:    900b        ..      STR      r0,[sp,#0x2c]
        0x0001de52:    900a        ..      STR      r0,[sp,#0x28]
        0x0001de54:    f64e7088    N..p    MOV      r0,#0xef88
        0x0001de58:    f2c00001    ....    MOVT     r0,#1
        0x0001de5c:    f7fbfdcf    ....    BL       am_hal_cachectrl_config ; 0x199fe
        0x0001de60:    f7fbfdef    ....    BL       am_hal_cachectrl_enable ; 0x19a42
        0x0001de64:    f7fafc87    ....    BL       am_bsp_low_power_init ; 0x18776
        0x0001de68:    f7fafc47    ..G.    BL       am_bsp_itm_printf_enable ; 0x186fa
        0x0001de6c:    f7fff832    ..2.    BL       am_util_stdio_terminal_clear ; 0x1ced4
        0x0001de70:    f24f501c    O..P    MOV      r0,#0xf51c
        0x0001de74:    f2c00001    ....    MOVT     r0,#1
        0x0001de78:    f7fefff4    ....    BL       am_util_stdio_printf ; 0x1ce64
        0x0001de7c:    f2481090    H...    MOV      r0,#0x8190
        0x0001de80:    f2c00001    ....    MOVT     r0,#1
        0x0001de84:    6800        .h      LDR      r0,[r0,#0]
        0x0001de86:    b388        ..      CBZ      r0,0x1deec ; main + 216
        0x0001de88:    e7ff        ..      B        0x1de8a ; main + 118
        0x0001de8a:    f24f7028    O.(p    MOV      r0,#0xf728
        0x0001de8e:    f2c00001    ....    MOVT     r0,#1
        0x0001de92:    f7feffe7    ....    BL       am_util_stdio_printf ; 0x1ce64
        0x0001de96:    f2481090    H...    MOV      r0,#0x8190
        0x0001de9a:    f2c00001    ....    MOVT     r0,#1
        0x0001de9e:    6801        .h      LDR      r1,[r0,#0]
        0x0001dea0:    9109        ..      STR      r1,[sp,#0x24]
        0x0001dea2:    6841        Ah      LDR      r1,[r0,#4]
        0x0001dea4:    9108        ..      STR      r1,[sp,#0x20]
        0x0001dea6:    6881        .h      LDR      r1,[r0,#8]
        0x0001dea8:    9107        ..      STR      r1,[sp,#0x1c]
        0x0001deaa:    9908        ..      LDR      r1,[sp,#0x20]
        0x0001deac:    f101416c    ..lA    ADD      r1,r1,#0xec000000
        0x0001deb0:    9113        ..      STR      r1,[sp,#0x4c]
        0x0001deb2:    7b00        .{      LDRB     r0,[r0,#0xc]
        0x0001deb4:    07c0        ..      LSLS     r0,r0,#31
        0x0001deb6:    b158        X.      CBZ      r0,0x1ded0 ; main + 188
        0x0001deb8:    e7ff        ..      B        0x1deba ; main + 166
        0x0001deba:    9813        ..      LDR      r0,[sp,#0x4c]
        0x0001debc:    9011        ..      STR      r0,[sp,#0x44]
        0x0001debe:    9813        ..      LDR      r0,[sp,#0x4c]
        0x0001dec0:    9907        ..      LDR      r1,[sp,#0x1c]
        0x0001dec2:    4408        .D      ADD      r0,r0,r1
        0x0001dec4:    3801        .8      SUBS     r0,#1
        0x0001dec6:    9012        ..      STR      r0,[sp,#0x48]
        0x0001dec8:    2001        .       MOVS     r0,#1
        0x0001deca:    f88d0037    ..7.    STRB     r0,[sp,#0x37]
        0x0001dece:    e7ff        ..      B        0x1ded0 ; main + 188
        0x0001ded0:    f2481090    H...    MOV      r0,#0x8190
        0x0001ded4:    f2c00001    ....    MOVT     r0,#1
        0x0001ded8:    7b00        .{      LDRB     r0,[r0,#0xc]
        0x0001deda:    0780        ..      LSLS     r0,r0,#30
        0x0001dedc:    2800        .(      CMP      r0,#0
        0x0001dede:    d504        ..      BPL      0x1deea ; main + 214
        0x0001dee0:    e7ff        ..      B        0x1dee2 ; main + 206
        0x0001dee2:    2001        .       MOVS     r0,#1
        0x0001dee4:    f88d0036    ..6.    STRB     r0,[sp,#0x36]
        0x0001dee8:    e7ff        ..      B        0x1deea ; main + 214
        0x0001deea:    e00b        ..      B        0x1df04 ; main + 240
        0x0001deec:    f44f3000    O..0    MOV      r0,#0x20000
        0x0001def0:    9009        ..      STR      r0,[sp,#0x24]
        0x0001def2:    f04f50a0    O..P    MOV      r0,#0x14000000
        0x0001def6:    9008        ..      STR      r0,[sp,#0x20]
        0x0001def8:    2000        .       MOVS     r0,#0
        0x0001defa:    9013        ..      STR      r0,[sp,#0x4c]
        0x0001defc:    f44f10f0    O...    MOV      r0,#0x1e0000
        0x0001df00:    9007        ..      STR      r0,[sp,#0x1c]
        0x0001df02:    e7ff        ..      B        0x1df04 ; main + 240
        0x0001df04:    9909        ..      LDR      r1,[sp,#0x24]
        0x0001df06:    f24f70f4    O..p    MOV      r0,#0xf7f4
        0x0001df0a:    f2c00001    ....    MOVT     r0,#1
        0x0001df0e:    f7feffa9    ....    BL       am_util_stdio_printf ; 0x1ce64
        0x0001df12:    9908        ..      LDR      r1,[sp,#0x20]
        0x0001df14:    f24f70b5    O..p    MOV      r0,#0xf7b5
        0x0001df18:    f2c00001    ....    MOVT     r0,#1
        0x0001df1c:    f7feffa2    ....    BL       am_util_stdio_printf ; 0x1ce64
        0x0001df20:    9907        ..      LDR      r1,[sp,#0x1c]
        0x0001df22:    f24f70e3    O..p    MOV      r0,#0xf7e3
        0x0001df26:    f2c00001    ....    MOVT     r0,#1
        0x0001df2a:    f7feff9b    ....    BL       am_util_stdio_printf ; 0x1ce64
        0x0001df2e:    f89d0037    ..7.    LDRB     r0,[sp,#0x37]
        0x0001df32:    07c2        ..      LSLS     r2,r0,#31
        0x0001df34:    f64f001a    O...    MOV      r0,#0xf81a
        0x0001df38:    f2c00001    ....    MOVT     r0,#1
        0x0001df3c:    f64f0122    O.".    MOV      r1,#0xf822
        0x0001df40:    f2c00101    ....    MOVT     r1,#1
        0x0001df44:    2a00        .*      CMP      r2,#0
        0x0001df46:    bf18        ..      IT       NE
        0x0001df48:    4601        .F      MOVNE    r1,r0
        0x0001df4a:    f24f70a3    O..p    MOV      r0,#0xf7a3
        0x0001df4e:    f2c00001    ....    MOVT     r0,#1
        0x0001df52:    f7feff87    ....    BL       am_util_stdio_printf ; 0x1ce64
        0x0001df56:    f6423278    B.x2    MOV      r2,#0x2b78
        0x0001df5a:    f2c10200    ....    MOVT     r2,#0x1000
        0x0001df5e:    2000        .       MOVS     r0,#0
        0x0001df60:    a90e        ..      ADD      r1,sp,#0x38
        0x0001df62:    f7fbf9d5    ....    BL       am_devices_mspi_psram_aps12808l_ddr_init_timing_check ; 0x19310
        0x0001df66:    b908        ..      CBNZ     r0,0x1df6c ; main + 344
        0x0001df68:    e7ff        ..      B        0x1df6a ; main + 342
        0x0001df6a:    e000        ..      B        0x1df6e ; main + 346
        0x0001df6c:    e7ff        ..      B        0x1df6e ; main + 346
        0x0001df6e:    f644727c    D.|r    MOV      r2,#0x4f7c
        0x0001df72:    f2c10200    ....    MOVT     r2,#0x1000
        0x0001df76:    f6447380    D..s    MOVW     r3,#0x4f80
        0x0001df7a:    f2c10300    ....    MOVT     r3,#0x1000
        0x0001df7e:    2000        .       MOVS     r0,#0
        0x0001df80:    a90e        ..      ADD      r1,sp,#0x38
        0x0001df82:    f7fbf85d    ..].    BL       am_devices_mspi_psram_aps12808l_ddr_init ; 0x19040
        0x0001df86:    9014        ..      STR      r0,[sp,#0x50]
        0x0001df88:    9814        ..      LDR      r0,[sp,#0x50]
        0x0001df8a:    b150        P.      CBZ      r0,0x1dfa2 ; main + 398
        0x0001df8c:    e7ff        ..      B        0x1df8e ; main + 378
        0x0001df8e:    f24f60ad    O..`    MOV      r0,#0xf6ad
        0x0001df92:    f2c00001    ....    MOVT     r0,#1
        0x0001df96:    f7feff65    ..e.    BL       am_util_stdio_printf ; 0x1ce64
        0x0001df9a:    f04f30ff    O..0    MOV      r0,#0xffffffff
        0x0001df9e:    9015        ..      STR      r0,[sp,#0x54]
        0x0001dfa0:    e16f        o.      B        0x1e282 ; main + 1134
        0x0001dfa2:    f24f40fc    O..@    MOV      r0,#0xf4fc
        0x0001dfa6:    f2c00001    ....    MOVT     r0,#1
        0x0001dfaa:    9002        ..      STR      r0,[sp,#8]
        0x0001dfac:    f9900000    ....    LDRSB    r0,[r0,#0]
        0x0001dfb0:    2104        .!      MOVS     r1,#4
        0x0001dfb2:    f7fafb81    ....    BL       __NVIC_SetPriority ; 0x186b8
        0x0001dfb6:    9802        ..      LDR      r0,[sp,#8]
        0x0001dfb8:    f9900000    ....    LDRSB    r0,[r0,#0]
        0x0001dfbc:    f7fafb64    ..d.    BL       __NVIC_EnableIRQ ; 0x18688
        0x0001dfc0:    f7fcf9dc    ....    BL       am_hal_interrupt_master_enable ; 0x1a37c
        0x0001dfc4:    f644707c    D.|p    MOV      r0,#0x4f7c
        0x0001dfc8:    f2c10000    ....    MOVT     r0,#0x1000
        0x0001dfcc:    9003        ..      STR      r0,[sp,#0xc]
        0x0001dfce:    6800        .h      LDR      r0,[r0,#0]
        0x0001dfd0:    f6423178    B.x1    MOV      r1,#0x2b78
        0x0001dfd4:    f2c10100    ....    MOVT     r1,#0x1000
        0x0001dfd8:    f7faff4e    ..N.    BL       am_devices_mspi_psram_aps12808l_apply_ddr_timing ; 0x18e78
        0x0001dfdc:    9803        ..      LDR      r0,[sp,#0xc]
        0x0001dfde:    6800        .h      LDR      r0,[r0,#0]
        0x0001dfe0:    f7faffc0    ....    BL       am_devices_mspi_psram_aps12808l_ddr_disable_xip ; 0x18f64
        0x0001dfe4:    9014        ..      STR      r0,[sp,#0x50]
        0x0001dfe6:    9814        ..      LDR      r0,[sp,#0x50]
        0x0001dfe8:    b150        P.      CBZ      r0,0x1e000 ; main + 492
        0x0001dfea:    e7ff        ..      B        0x1dfec ; main + 472
        0x0001dfec:    f24f5044    O.DP    MOV      r0,#0xf544
        0x0001dff0:    f2c00001    ....    MOVT     r0,#1
        0x0001dff4:    f7feff36    ..6.    BL       am_util_stdio_printf ; 0x1ce64
        0x0001dff8:    f04f30ff    O..0    MOV      r0,#0xffffffff
        0x0001dffc:    9015        ..      STR      r0,[sp,#0x54]
        0x0001dffe:    e140        @.      B        0x1e282 ; main + 1134
        0x0001e000:    f89d0037    ..7.    LDRB     r0,[sp,#0x37]
        0x0001e004:    07c0        ..      LSLS     r0,r0,#31
        0x0001e006:    b1c8        ..      CBZ      r0,0x1e03c ; main + 552
        0x0001e008:    e7ff        ..      B        0x1e00a ; main + 502
        0x0001e00a:    f24f707c    O.|p    MOV      r0,#0xf77c
        0x0001e00e:    f2c00001    ....    MOVT     r0,#1
        0x0001e012:    f7feff27    ..'.    BL       am_util_stdio_printf ; 0x1ce64
        0x0001e016:    f644707c    D.|p    MOV      r0,#0x4f7c
        0x0001e01a:    f2c10000    ....    MOVT     r0,#0x1000
        0x0001e01e:    6800        .h      LDR      r0,[r0,#0]
        0x0001e020:    f7faffbe    ....    BL       am_devices_mspi_psram_aps12808l_ddr_enable_scrambling ; 0x18fa0
        0x0001e024:    9014        ..      STR      r0,[sp,#0x50]
        0x0001e026:    9814        ..      LDR      r0,[sp,#0x50]
        0x0001e028:    b138        8.      CBZ      r0,0x1e03a ; main + 550
        0x0001e02a:    e7ff        ..      B        0x1e02c ; main + 536
        0x0001e02c:    f24f6039    O.9`    MOV      r0,#0xf639
        0x0001e030:    f2c00001    ....    MOVT     r0,#1
        0x0001e034:    f7feff16    ....    BL       am_util_stdio_printf ; 0x1ce64
        0x0001e038:    e7ff        ..      B        0x1e03a ; main + 550
        0x0001e03a:    e7ff        ..      B        0x1e03c ; main + 552
        0x0001e03c:    f24f5098    O..P    MOV      r0,#0xf598
        0x0001e040:    f2c00001    ....    MOVT     r0,#1
        0x0001e044:    f7feff0e    ....    BL       am_util_stdio_printf ; 0x1ce64
        0x0001e048:    f644707c    D.|p    MOV      r0,#0x4f7c
        0x0001e04c:    f2c10000    ....    MOVT     r0,#0x1000
        0x0001e050:    6800        .h      LDR      r0,[r0,#0]
        0x0001e052:    9909        ..      LDR      r1,[sp,#0x24]
        0x0001e054:    9a13        ..      LDR      r2,[sp,#0x4c]
        0x0001e056:    9b07        ..      LDR      r3,[sp,#0x1c]
        0x0001e058:    46ee        .F      MOV      lr,sp
        0x0001e05a:    f04f0c01    O...    MOV      r12,#1
        0x0001e05e:    f8cec000    ....    STR      r12,[lr,#0]
        0x0001e062:    f7fbfae5    ....    BL       am_devices_mspi_psram_aps12808l_ddr_write ; 0x19630
        0x0001e066:    9014        ..      STR      r0,[sp,#0x50]
        0x0001e068:    9814        ..      LDR      r0,[sp,#0x50]
        0x0001e06a:    b150        P.      CBZ      r0,0x1e082 ; main + 622
        0x0001e06c:    e7ff        ..      B        0x1e06e ; main + 602
        0x0001e06e:    f24f50e9    O..P    MOV      r0,#0xf5e9
        0x0001e072:    f2c00001    ....    MOVT     r0,#1
        0x0001e076:    f7fefef5    ....    BL       am_util_stdio_printf ; 0x1ce64
        0x0001e07a:    f04f30ff    O..0    MOV      r0,#0xffffffff
        0x0001e07e:    9015        ..      STR      r0,[sp,#0x54]
        0x0001e080:    e0ff        ..      B        0x1e282 ; main + 1134
        0x0001e082:    f24f506d    O.mP    MOV      r0,#0xf56d
        0x0001e086:    f2c00001    ....    MOVT     r0,#1
        0x0001e08a:    f7fefeeb    ....    BL       am_util_stdio_printf ; 0x1ce64
        0x0001e08e:    9813        ..      LDR      r0,[sp,#0x4c]
        0x0001e090:    9006        ..      STR      r0,[sp,#0x18]
        0x0001e092:    e7ff        ..      B        0x1e094 ; main + 640
        0x0001e094:    9806        ..      LDR      r0,[sp,#0x18]
        0x0001e096:    9913        ..      LDR      r1,[sp,#0x4c]
        0x0001e098:    9a07        ..      LDR      r2,[sp,#0x1c]
        0x0001e09a:    4411        .D      ADD      r1,r1,r2
        0x0001e09c:    4288        .B      CMP      r0,r1
        0x0001e09e:    f08080b9    ....    BCS.W    0x1e214 ; main + 1024
        0x0001e0a2:    e7ff        ..      B        0x1e0a4 ; main + 656
        0x0001e0a4:    f644707c    D.|p    MOV      r0,#0x4f7c
        0x0001e0a8:    f2c10000    ....    MOVT     r0,#0x1000
        0x0001e0ac:    6800        .h      LDR      r0,[r0,#0]
        0x0001e0ae:    9a06        ..      LDR      r2,[sp,#0x18]
        0x0001e0b0:    466b        kF      MOV      r3,sp
        0x0001e0b2:    2101        .!      MOVS     r1,#1
        0x0001e0b4:    6019        .`      STR      r1,[r3,#0]
        0x0001e0b6:    f644211c    D..!    MOV      r1,#0x4a1c
        0x0001e0ba:    f2c10100    ....    MOVT     r1,#0x1000
        0x0001e0be:    f44f7380    O..s    MOV      r3,#0x100
        0x0001e0c2:    f7fbfa37    ..7.    BL       am_devices_mspi_psram_aps12808l_ddr_read ; 0x19534
        0x0001e0c6:    9014        ..      STR      r0,[sp,#0x50]
        0x0001e0c8:    9814        ..      LDR      r0,[sp,#0x50]
        0x0001e0ca:    b150        P.      CBZ      r0,0x1e0e2 ; main + 718
        0x0001e0cc:    e7ff        ..      B        0x1e0ce ; main + 698
        0x0001e0ce:    f24f50c1    O..P    MOV      r0,#0xf5c1
        0x0001e0d2:    f2c00001    ....    MOVT     r0,#1
        0x0001e0d6:    f7fefec5    ....    BL       am_util_stdio_printf ; 0x1ce64
        0x0001e0da:    f04f30ff    O..0    MOV      r0,#0xffffffff
        0x0001e0de:    9015        ..      STR      r0,[sp,#0x54]
        0x0001e0e0:    e0cf        ..      B        0x1e282 ; main + 1134
        0x0001e0e2:    2000        .       MOVS     r0,#0
        0x0001e0e4:    9005        ..      STR      r0,[sp,#0x14]
        0x0001e0e6:    e7ff        ..      B        0x1e0e8 ; main + 724
        0x0001e0e8:    9905        ..      LDR      r1,[sp,#0x14]
        0x0001e0ea:    2000        .       MOVS     r0,#0
        0x0001e0ec:    293f        ?)      CMP      r1,#0x3f
        0x0001e0ee:    9001        ..      STR      r0,[sp,#4]
        0x0001e0f0:    d80b        ..      BHI      0x1e10a ; main + 758
        0x0001e0f2:    e7ff        ..      B        0x1e0f4 ; main + 736
        0x0001e0f4:    9806        ..      LDR      r0,[sp,#0x18]
        0x0001e0f6:    9905        ..      LDR      r1,[sp,#0x14]
        0x0001e0f8:    eb000181    ....    ADD      r1,r0,r1,LSL #2
        0x0001e0fc:    9a07        ..      LDR      r2,[sp,#0x1c]
        0x0001e0fe:    2000        .       MOVS     r0,#0
        0x0001e100:    4291        .B      CMP      r1,r2
        0x0001e102:    bf38        8.      IT       CC
        0x0001e104:    2001        .       MOVCC    r0,#1
        0x0001e106:    9001        ..      STR      r0,[sp,#4]
        0x0001e108:    e7ff        ..      B        0x1e10a ; main + 758
        0x0001e10a:    9801        ..      LDR      r0,[sp,#4]
        0x0001e10c:    07c0        ..      LSLS     r0,r0,#31
        0x0001e10e:    2800        .(      CMP      r0,#0
        0x0001e110:    d07a        z.      BEQ      0x1e208 ; main + 1012
        0x0001e112:    e7ff        ..      B        0x1e114 ; main + 768
        0x0001e114:    9806        ..      LDR      r0,[sp,#0x18]
        0x0001e116:    9905        ..      LDR      r1,[sp,#0x14]
        0x0001e118:    eb000081    ....    ADD      r0,r0,r1,LSL #2
        0x0001e11c:    3004        .0      ADDS     r0,#4
        0x0001e11e:    9907        ..      LDR      r1,[sp,#0x1c]
        0x0001e120:    4288        .B      CMP      r0,r1
        0x0001e122:    d93e        >.      BLS      0x1e1a2 ; main + 910
        0x0001e124:    e7ff        ..      B        0x1e126 ; main + 786
        0x0001e126:    9807        ..      LDR      r0,[sp,#0x1c]
        0x0001e128:    9906        ..      LDR      r1,[sp,#0x18]
        0x0001e12a:    9a05        ..      LDR      r2,[sp,#0x14]
        0x0001e12c:    eb010182    ....    ADD      r1,r1,r2,LSL #2
        0x0001e130:    1a40        @.      SUBS     r0,r0,r1
        0x0001e132:    900a        ..      STR      r0,[sp,#0x28]
        0x0001e134:    9905        ..      LDR      r1,[sp,#0x14]
        0x0001e136:    f644201c    D..     MOV      r0,#0x4a1c
        0x0001e13a:    f2c10000    ....    MOVT     r0,#0x1000
        0x0001e13e:    f8500021    P.!.    LDR      r0,[r0,r1,LSL #2]
        0x0001e142:    990a        ..      LDR      r1,[sp,#0x28]
        0x0001e144:    f1c10104    ....    RSB      r1,r1,#4
        0x0001e148:    00ca        ..      LSLS     r2,r1,#3
        0x0001e14a:    f04f31ff    O..1    MOV      r1,#0xffffffff
        0x0001e14e:    fa21f202    !...    LSR      r2,r1,r2
        0x0001e152:    4010        .@      ANDS     r0,r0,r2
        0x0001e154:    900c        ..      STR      r0,[sp,#0x30]
        0x0001e156:    9809        ..      LDR      r0,[sp,#0x24]
        0x0001e158:    9a06        ..      LDR      r2,[sp,#0x18]
        0x0001e15a:    4410        .D      ADD      r0,r0,r2
        0x0001e15c:    9a05        ..      LDR      r2,[sp,#0x14]
        0x0001e15e:    eb000082    ....    ADD      r0,r0,r2,LSL #2
        0x0001e162:    9a13        ..      LDR      r2,[sp,#0x4c]
        0x0001e164:    1a80        ..      SUBS     r0,r0,r2
        0x0001e166:    6800        .h      LDR      r0,[r0,#0]
        0x0001e168:    9a0a        ..      LDR      r2,[sp,#0x28]
        0x0001e16a:    f1c20204    ....    RSB      r2,r2,#4
        0x0001e16e:    00d2        ..      LSLS     r2,r2,#3
        0x0001e170:    40d1        .@      LSRS     r1,r1,r2
        0x0001e172:    4008        .@      ANDS     r0,r0,r1
        0x0001e174:    900b        ..      STR      r0,[sp,#0x2c]
        0x0001e176:    980c        ..      LDR      r0,[sp,#0x30]
        0x0001e178:    990b        ..      LDR      r1,[sp,#0x2c]
        0x0001e17a:    4288        .B      CMP      r0,r1
        0x0001e17c:    d010        ..      BEQ      0x1e1a0 ; main + 908
        0x0001e17e:    e7ff        ..      B        0x1e180 ; main + 876
        0x0001e180:    9806        ..      LDR      r0,[sp,#0x18]
        0x0001e182:    9905        ..      LDR      r1,[sp,#0x14]
        0x0001e184:    eb000181    ....    ADD      r1,r0,r1,LSL #2
        0x0001e188:    9a0b        ..      LDR      r2,[sp,#0x2c]
        0x0001e18a:    9b0c        ..      LDR      r3,[sp,#0x30]
        0x0001e18c:    f24f605c    O.\`    MOV      r0,#0xf65c
        0x0001e190:    f2c00001    ....    MOVT     r0,#1
        0x0001e194:    f7fefe66    ..f.    BL       am_util_stdio_printf ; 0x1ce64
        0x0001e198:    f04f30ff    O..0    MOV      r0,#0xffffffff
        0x0001e19c:    9015        ..      STR      r0,[sp,#0x54]
        0x0001e19e:    e070        p.      B        0x1e282 ; main + 1134
        0x0001e1a0:    e02d        -.      B        0x1e1fe ; main + 1002
        0x0001e1a2:    9a05        ..      LDR      r2,[sp,#0x14]
        0x0001e1a4:    f644201c    D..     MOV      r0,#0x4a1c
        0x0001e1a8:    f2c10000    ....    MOVT     r0,#0x1000
        0x0001e1ac:    f8500022    P.".    LDR      r0,[r0,r2,LSL #2]
        0x0001e1b0:    9909        ..      LDR      r1,[sp,#0x24]
        0x0001e1b2:    9b06        ..      LDR      r3,[sp,#0x18]
        0x0001e1b4:    4419        .D      ADD      r1,r1,r3
        0x0001e1b6:    eb010182    ....    ADD      r1,r1,r2,LSL #2
        0x0001e1ba:    9a13        ..      LDR      r2,[sp,#0x4c]
        0x0001e1bc:    1a89        ..      SUBS     r1,r1,r2
        0x0001e1be:    6809        .h      LDR      r1,[r1,#0]
        0x0001e1c0:    4288        .B      CMP      r0,r1
        0x0001e1c2:    d01b        ..      BEQ      0x1e1fc ; main + 1000
        0x0001e1c4:    e7ff        ..      B        0x1e1c6 ; main + 946
        0x0001e1c6:    9a06        ..      LDR      r2,[sp,#0x18]
        0x0001e1c8:    9b05        ..      LDR      r3,[sp,#0x14]
        0x0001e1ca:    eb020183    ....    ADD      r1,r2,r3,LSL #2
        0x0001e1ce:    9809        ..      LDR      r0,[sp,#0x24]
        0x0001e1d0:    4410        .D      ADD      r0,r0,r2
        0x0001e1d2:    eb000083    ....    ADD      r0,r0,r3,LSL #2
        0x0001e1d6:    9a13        ..      LDR      r2,[sp,#0x4c]
        0x0001e1d8:    1a80        ..      SUBS     r0,r0,r2
        0x0001e1da:    6802        .h      LDR      r2,[r0,#0]
        0x0001e1dc:    f644201c    D..     MOV      r0,#0x4a1c
        0x0001e1e0:    f2c10000    ....    MOVT     r0,#0x1000
        0x0001e1e4:    f8503023    P.#0    LDR      r3,[r0,r3,LSL #2]
        0x0001e1e8:    f24f605c    O.\`    MOV      r0,#0xf65c
        0x0001e1ec:    f2c00001    ....    MOVT     r0,#1
        0x0001e1f0:    f7fefe38    ..8.    BL       am_util_stdio_printf ; 0x1ce64
        0x0001e1f4:    f04f30ff    O..0    MOV      r0,#0xffffffff
        0x0001e1f8:    9015        ..      STR      r0,[sp,#0x54]
        0x0001e1fa:    e042        B.      B        0x1e282 ; main + 1134
        0x0001e1fc:    e7ff        ..      B        0x1e1fe ; main + 1002
        0x0001e1fe:    e7ff        ..      B        0x1e200 ; main + 1004
        0x0001e200:    9805        ..      LDR      r0,[sp,#0x14]
        0x0001e202:    3001        .0      ADDS     r0,#1
        0x0001e204:    9005        ..      STR      r0,[sp,#0x14]
        0x0001e206:    e76f        o.      B        0x1e0e8 ; main + 724
        0x0001e208:    e7ff        ..      B        0x1e20a ; main + 1014
        0x0001e20a:    9806        ..      LDR      r0,[sp,#0x18]
        0x0001e20c:    f5007080    ...p    ADD      r0,r0,#0x100
        0x0001e210:    9006        ..      STR      r0,[sp,#0x18]
        0x0001e212:    e73f        ?.      B        0x1e094 ; main + 640
        0x0001e214:    f89d0036    ..6.    LDRB     r0,[sp,#0x36]
        0x0001e218:    07c0        ..      LSLS     r0,r0,#31
        0x0001e21a:    b350        P.      CBZ      r0,0x1e272 ; main + 1118
        0x0001e21c:    e7ff        ..      B        0x1e21e ; main + 1034
        0x0001e21e:    f24f7049    O.Ip    MOV      r0,#0xf749
        0x0001e222:    f2c00001    ....    MOVT     r0,#1
        0x0001e226:    f7fefe1d    ....    BL       am_util_stdio_printf ; 0x1ce64
        0x0001e22a:    f644707c    D.|p    MOV      r0,#0x4f7c
        0x0001e22e:    f2c10000    ....    MOVT     r0,#0x1000
        0x0001e232:    6800        .h      LDR      r0,[r0,#0]
        0x0001e234:    f7fafed2    ....    BL       am_devices_mspi_psram_aps12808l_ddr_enable_xip ; 0x18fdc
        0x0001e238:    9014        ..      STR      r0,[sp,#0x50]
        0x0001e23a:    9814        ..      LDR      r0,[sp,#0x50]
        0x0001e23c:    b150        P.      CBZ      r0,0x1e254 ; main + 1088
        0x0001e23e:    e7ff        ..      B        0x1e240 ; main + 1068
        0x0001e240:    f24f6012    O..`    MOV      r0,#0xf612
        0x0001e244:    f2c00001    ....    MOVT     r0,#1
        0x0001e248:    f7fefe0c    ....    BL       am_util_stdio_printf ; 0x1ce64
        0x0001e24c:    f04f30ff    O..0    MOV      r0,#0xffffffff
        0x0001e250:    9015        ..      STR      r0,[sp,#0x54]
        0x0001e252:    e016        ..      B        0x1e282 ; main + 1134
        0x0001e254:    9808        ..      LDR      r0,[sp,#0x20]
        0x0001e256:    9004        ..      STR      r0,[sp,#0x10]
        0x0001e258:    f24f60e7    O..`    MOV      r0,#0xf6e7
        0x0001e25c:    f2c00001    ....    MOVT     r0,#1
        0x0001e260:    f7fefe00    ....    BL       am_util_stdio_printf ; 0x1ce64
        0x0001e264:    2064        d       MOVS     r0,#0x64
        0x0001e266:    f7fefc55    ..U.    BL       am_util_delay_ms ; 0x1cb14
        0x0001e26a:    9804        ..      LDR      r0,[sp,#0x10]
        0x0001e26c:    f000fbee    ....    BL       run_new_image ; 0x1ea4c
        0x0001e270:    e007        ..      B        0x1e282 ; main + 1134
        0x0001e272:    f24f7011    O..p    MOV      r0,#0xf711
        0x0001e276:    f2c00001    ....    MOVT     r0,#1
        0x0001e27a:    f7fefdf3    ....    BL       am_util_stdio_printf ; 0x1ce64
        0x0001e27e:    e7ff        ..      B        0x1e280 ; main + 1132
        0x0001e280:    e7fe        ..      B        0x1e280 ; main + 1132
        0x0001e282:    9815        ..      LDR      r0,[sp,#0x54]
        0x0001e284:    b016        ..      ADD      sp,sp,#0x58
        0x0001e286:    bd80        ..      POP      {r7,pc}
    mspi_cq_pause
        0x0001e288:    b570        p.      PUSH     {r4-r6,lr}
        0x0001e28a:    b082        ..      SUB      sp,sp,#8
        0x0001e28c:    4604        .F      MOV      r4,r0
        0x0001e28e:    6840        @h      LDR      r0,[r0,#4]
        0x0001e290:    2500        .%      MOVS     r5,#0
        0x0001e292:    f2c40506    ....    MOVT     r5,#0x4006
        0x0001e296:    eb053000    ...0    ADD      r0,r5,r0,LSL #12
        0x0001e29a:    f44f0100    O...    MOV      r1,#0x800000
        0x0001e29e:    f8c012b4    ....    STR      r1,[r0,#0x2b4]
        0x0001e2a2:    6860        `h      LDR      r0,[r4,#4]
        0x0001e2a4:    eb053000    ...0    ADD      r0,r5,r0,LSL #12
        0x0001e2a8:    f8d012a0    ....    LDR      r1,[r0,#0x2a0]
        0x0001e2ac:    07c9        ..      LSLS     r1,r1,#31
        0x0001e2ae:    d018        ..      BEQ      0x1e2e2 ; mspi_cq_pause + 90
        0x0001e2b0:    f647165f    G._.    MOV      r6,#0x795f
        0x0001e2b4:    f6cf76fe    ...v    MOVT     r6,#0xfffe
        0x0001e2b8:    f8d012ac    ....    LDR      r1,[r0,#0x2ac]
        0x0001e2bc:    0709        ..      LSLS     r1,r1,#28
        0x0001e2be:    bf44        D.      ITT      MI
        0x0001e2c0:    f8d012b8    ....    LDRMI    r1,[r0,#0x2b8]
        0x0001e2c4:    ea5f6101    _..a    LSLSMI   r1,r1,#24
        0x0001e2c8:    d40b        ..      BMI      0x1e2e2 ; mspi_cq_pause + 90
        0x0001e2ca:    3601        .6      ADDS     r6,#1
        0x0001e2cc:    d217        ..      BCS      0x1e2fe ; mspi_cq_pause + 118
        0x0001e2ce:    2001        .       MOVS     r0,#1
        0x0001e2d0:    f7fbff84    ....    BL       am_hal_delay_us ; 0x1a1dc
        0x0001e2d4:    6860        `h      LDR      r0,[r4,#4]
        0x0001e2d6:    eb053000    ...0    ADD      r0,r5,r0,LSL #12
        0x0001e2da:    f8d012a0    ....    LDR      r1,[r0,#0x2a0]
        0x0001e2de:    07c9        ..      LSLS     r1,r1,#31
        0x0001e2e0:    d1ea        ..      BNE      0x1e2b8 ; mspi_cq_pause + 48
        0x0001e2e2:    f5007182    ...q    ADD      r1,r0,#0x104
        0x0001e2e6:    f24860a0    H..`    MOV      r0,#0x86a0
        0x0001e2ea:    2601        .&      MOVS     r6,#1
        0x0001e2ec:    f2c00001    ....    MOVT     r0,#1
        0x0001e2f0:    2201        ."      MOVS     r2,#1
        0x0001e2f2:    2300        .#      MOVS     r3,#0
        0x0001e2f4:    9600        ..      STR      r6,[sp,#0]
        0x0001e2f6:    f7fbffb7    ....    BL       am_hal_delay_us_status_check ; 0x1a268
        0x0001e2fa:    b002        ..      ADD      sp,sp,#8
        0x0001e2fc:    bd70        p.      POP      {r4-r6,pc}
        0x0001e2fe:    2004        .       MOVS     r0,#4
        0x0001e300:    e7fb        ..      B        0x1e2fa ; mspi_cq_pause + 114
        0x0001e302:    0000        ..      MOVS     r0,r0
    mspi_device_configure
        0x0001e304:    7a82        .z      LDRB     r2,[r0,#0xa]
        0x0001e306:    2a13        .*      CMP      r2,#0x13
        0x0001e308:    bf88        ..      IT       HI
        0x0001e30a:    4770        pG      BXHI     lr
        0x0001e30c:    6841        Ah      LDR      r1,[r0,#4]
        0x0001e30e:    e8dff012    ....    TBH      [pc,r2,LSL #1]
    $d.7
        0x0001e312:    0038        8.      DCW    56
        0x0001e314:    00520041    A.R.    DCD    5374017
        0x0001e318:    0064005b    [.d.    DCD    6553691
        0x0001e31c:    0014006d    m...    DCD    1310829
        0x0001e320:    0014001d    ....    DCD    1310749
        0x0001e324:    0084001d    ....    DCD    8650781
        0x0001e328:    00a30093    ....    DCD    10682515
        0x0001e32c:    00c400ac    ....    DCD    12845228
        0x0001e330:    00e500cd    ....    DCD    15007949
        0x0001e334:    010e00ee    ....    DCD    17694958
        0x0001e338:    0117        ..      DCW    279
    $t.8
        0x0001e33a:    2000        .       MOVS     r0,#0
        0x0001e33c:    f2c40006    ....    MOVT     r0,#0x4006
        0x0001e340:    eb003101    ...1    ADD      r1,r0,r1,LSL #12
        0x0001e344:    f8d10084    ....    LDR      r0,[r1,#0x84]
        0x0001e348:    220d        ."      MOVS     r2,#0xd
        0x0001e34a:    e007        ..      B        0x1e35c ; mspi_device_configure + 88
        0x0001e34c:    2000        .       MOVS     r0,#0
        0x0001e34e:    f2c40006    ....    MOVT     r0,#0x4006
        0x0001e352:    eb003101    ...1    ADD      r1,r0,r1,LSL #12
        0x0001e356:    f8d10084    ....    LDR      r0,[r1,#0x84]
        0x0001e35a:    220e        ."      MOVS     r2,#0xe
        0x0001e35c:    f3620003    b...    BFI      r0,r2,#0,#4
        0x0001e360:    f8c10084    ....    STR      r0,[r1,#0x84]
        0x0001e364:    f8d10084    ....    LDR      r0,[r1,#0x84]
        0x0001e368:    f0200080     ...    BIC      r0,r0,#0x80
        0x0001e36c:    f8c10084    ....    STR      r0,[r1,#0x84]
        0x0001e370:    f8d10090    ....    LDR      r0,[r1,#0x90]
        0x0001e374:    f42060e0     ..`    BIC      r0,r0,#0x700
        0x0001e378:    f8c10090    ....    STR      r0,[r1,#0x90]
        0x0001e37c:    f24030ff    @..0    MOV      r0,#0x3ff
        0x0001e380:    e0fd        ..      B        0x1e57e ; mspi_device_configure + 634
        0x0001e382:    2200        ."      MOVS     r2,#0
        0x0001e384:    f2c40206    ....    MOVT     r2,#0x4006
        0x0001e388:    eb023101    ...1    ADD      r1,r2,r1,LSL #12
        0x0001e38c:    f8d12084    ...     LDR      r2,[r1,#0x84]
        0x0001e390:    2301        .#      MOVS     r3,#1
        0x0001e392:    e007        ..      B        0x1e3a4 ; mspi_device_configure + 160
        0x0001e394:    2200        ."      MOVS     r2,#0
        0x0001e396:    f2c40206    ....    MOVT     r2,#0x4006
        0x0001e39a:    eb023101    ...1    ADD      r1,r2,r1,LSL #12
        0x0001e39e:    f8d12084    ...     LDR      r2,[r1,#0x84]
        0x0001e3a2:    2302        .#      MOVS     r3,#2
        0x0001e3a4:    f3630203    c...    BFI      r2,r3,#0,#4
        0x0001e3a8:    f8c12084    ...     STR      r2,[r1,#0x84]
        0x0001e3ac:    f8d12084    ...     LDR      r2,[r1,#0x84]
        0x0001e3b0:    f0420280    B...    ORR      r2,r2,#0x80
        0x0001e3b4:    e0d4        ..      B        0x1e560 ; mspi_device_configure + 604
        0x0001e3b6:    2200        ."      MOVS     r2,#0
        0x0001e3b8:    f2c40206    ....    MOVT     r2,#0x4006
        0x0001e3bc:    eb023101    ...1    ADD      r1,r2,r1,LSL #12
        0x0001e3c0:    f8d12084    ...     LDR      r2,[r1,#0x84]
        0x0001e3c4:    2305        .#      MOVS     r3,#5
        0x0001e3c6:    e0c3        ..      B        0x1e550 ; mspi_device_configure + 588
        0x0001e3c8:    2200        ."      MOVS     r2,#0
        0x0001e3ca:    f2c40206    ....    MOVT     r2,#0x4006
        0x0001e3ce:    eb023101    ...1    ADD      r1,r2,r1,LSL #12
        0x0001e3d2:    f8d12084    ...     LDR      r2,[r1,#0x84]
        0x0001e3d6:    2306        .#      MOVS     r3,#6
        0x0001e3d8:    e0ba        ..      B        0x1e550 ; mspi_device_configure + 588
        0x0001e3da:    2200        ."      MOVS     r2,#0
        0x0001e3dc:    f2c40206    ....    MOVT     r2,#0x4006
        0x0001e3e0:    eb023101    ...1    ADD      r1,r2,r1,LSL #12
        0x0001e3e4:    f8d12084    ...     LDR      r2,[r1,#0x84]
        0x0001e3e8:    2309        .#      MOVS     r3,#9
        0x0001e3ea:    e007        ..      B        0x1e3fc ; mspi_device_configure + 248
        0x0001e3ec:    2200        ."      MOVS     r2,#0
        0x0001e3ee:    f2c40206    ....    MOVT     r2,#0x4006
        0x0001e3f2:    eb023101    ...1    ADD      r1,r2,r1,LSL #12
        0x0001e3f6:    f8d12084    ...     LDR      r2,[r1,#0x84]
        0x0001e3fa:    230a        .#      MOVS     r3,#0xa
        0x0001e3fc:    f3630203    c...    BFI      r2,r3,#0,#4
        0x0001e400:    f8c12084    ...     STR      r2,[r1,#0x84]
        0x0001e404:    f8d12084    ...     LDR      r2,[r1,#0x84]
        0x0001e408:    f0220280    "...    BIC      r2,r2,#0x80
        0x0001e40c:    f8c12084    ...     STR      r2,[r1,#0x84]
        0x0001e410:    f8d12090    ...     LDR      r2,[r1,#0x90]
        0x0001e414:    f42262e0    "..b    BIC      r2,r2,#0x700
        0x0001e418:    e07f        ..      B        0x1e51a ; mspi_device_configure + 534
        0x0001e41a:    2200        ."      MOVS     r2,#0
        0x0001e41c:    f2c40206    ....    MOVT     r2,#0x4006
        0x0001e420:    eb023101    ...1    ADD      r1,r2,r1,LSL #12
        0x0001e424:    f8d12084    ...     LDR      r2,[r1,#0x84]
        0x0001e428:    2301        .#      MOVS     r3,#1
        0x0001e42a:    f3630203    c...    BFI      r2,r3,#0,#4
        0x0001e42e:    f8c12084    ...     STR      r2,[r1,#0x84]
        0x0001e432:    f8d12084    ...     LDR      r2,[r1,#0x84]
        0x0001e436:    e027        '.      B        0x1e488 ; mspi_device_configure + 388
        0x0001e438:    2200        ."      MOVS     r2,#0
        0x0001e43a:    f2c40206    ....    MOVT     r2,#0x4006
        0x0001e43e:    eb023101    ...1    ADD      r1,r2,r1,LSL #12
        0x0001e442:    f8d12084    ...     LDR      r2,[r1,#0x84]
        0x0001e446:    2302        .#      MOVS     r3,#2
        0x0001e448:    f3630203    c...    BFI      r2,r3,#0,#4
        0x0001e44c:    f8c12084    ...     STR      r2,[r1,#0x84]
        0x0001e450:    f8d12084    ...     LDR      r2,[r1,#0x84]
        0x0001e454:    2301        .#      MOVS     r3,#1
        0x0001e456:    e017        ..      B        0x1e488 ; mspi_device_configure + 388
        0x0001e458:    2200        ."      MOVS     r2,#0
        0x0001e45a:    f2c40206    ....    MOVT     r2,#0x4006
        0x0001e45e:    eb023101    ...1    ADD      r1,r2,r1,LSL #12
        0x0001e462:    f8d12084    ...     LDR      r2,[r1,#0x84]
        0x0001e466:    2301        .#      MOVS     r3,#1
        0x0001e468:    e007        ..      B        0x1e47a ; mspi_device_configure + 374
        0x0001e46a:    2200        ."      MOVS     r2,#0
        0x0001e46c:    f2c40206    ....    MOVT     r2,#0x4006
        0x0001e470:    eb023101    ...1    ADD      r1,r2,r1,LSL #12
        0x0001e474:    f8d12084    ...     LDR      r2,[r1,#0x84]
        0x0001e478:    2302        .#      MOVS     r3,#2
        0x0001e47a:    f3630203    c...    BFI      r2,r3,#0,#4
        0x0001e47e:    f8c12084    ...     STR      r2,[r1,#0x84]
        0x0001e482:    f8d12084    ...     LDR      r2,[r1,#0x84]
        0x0001e486:    2303        .#      MOVS     r3,#3
        0x0001e488:    f0220280    "...    BIC      r2,r2,#0x80
        0x0001e48c:    f8c12084    ...     STR      r2,[r1,#0x84]
        0x0001e490:    f8d12090    ...     LDR      r2,[r1,#0x90]
        0x0001e494:    f363220a    c.."    BFI      r2,r3,#8,#3
        0x0001e498:    e068        h.      B        0x1e56c ; mspi_device_configure + 616
        0x0001e49a:    2200        ."      MOVS     r2,#0
        0x0001e49c:    f2c40206    ....    MOVT     r2,#0x4006
        0x0001e4a0:    eb023101    ...1    ADD      r1,r2,r1,LSL #12
        0x0001e4a4:    f8d12084    ...     LDR      r2,[r1,#0x84]
        0x0001e4a8:    2301        .#      MOVS     r3,#1
        0x0001e4aa:    e007        ..      B        0x1e4bc ; mspi_device_configure + 440
        0x0001e4ac:    2200        ."      MOVS     r2,#0
        0x0001e4ae:    f2c40206    ....    MOVT     r2,#0x4006
        0x0001e4b2:    eb023101    ...1    ADD      r1,r2,r1,LSL #12
        0x0001e4b6:    f8d12084    ...     LDR      r2,[r1,#0x84]
        0x0001e4ba:    2302        .#      MOVS     r3,#2
        0x0001e4bc:    f3630203    c...    BFI      r2,r3,#0,#4
        0x0001e4c0:    f8c12084    ...     STR      r2,[r1,#0x84]
        0x0001e4c4:    f8d12084    ...     LDR      r2,[r1,#0x84]
        0x0001e4c8:    2305        .#      MOVS     r3,#5
        0x0001e4ca:    f0220280    "...    BIC      r2,r2,#0x80
        0x0001e4ce:    f8c12084    ...     STR      r2,[r1,#0x84]
        0x0001e4d2:    f8d12090    ...     LDR      r2,[r1,#0x90]
        0x0001e4d6:    f363220a    c.."    BFI      r2,r3,#8,#3
        0x0001e4da:    e01e        ..      B        0x1e51a ; mspi_device_configure + 534
        0x0001e4dc:    2200        ."      MOVS     r2,#0
        0x0001e4de:    f2c40206    ....    MOVT     r2,#0x4006
        0x0001e4e2:    eb023101    ...1    ADD      r1,r2,r1,LSL #12
        0x0001e4e6:    f8d12084    ...     LDR      r2,[r1,#0x84]
        0x0001e4ea:    2301        .#      MOVS     r3,#1
        0x0001e4ec:    e007        ..      B        0x1e4fe ; mspi_device_configure + 506
        0x0001e4ee:    2200        ."      MOVS     r2,#0
        0x0001e4f0:    f2c40206    ....    MOVT     r2,#0x4006
        0x0001e4f4:    eb023101    ...1    ADD      r1,r2,r1,LSL #12
        0x0001e4f8:    f8d12084    ...     LDR      r2,[r1,#0x84]
        0x0001e4fc:    2302        .#      MOVS     r3,#2
        0x0001e4fe:    f3630203    c...    BFI      r2,r3,#0,#4
        0x0001e502:    f8c12084    ...     STR      r2,[r1,#0x84]
        0x0001e506:    f8d12084    ...     LDR      r2,[r1,#0x84]
        0x0001e50a:    f0220280    "...    BIC      r2,r2,#0x80
        0x0001e50e:    f8c12084    ...     STR      r2,[r1,#0x84]
        0x0001e512:    f8d12090    ...     LDR      r2,[r1,#0x90]
        0x0001e516:    f44262e0    B..b    ORR      r2,r2,#0x700
        0x0001e51a:    f8c12090    ...     STR      r2,[r1,#0x90]
        0x0001e51e:    7a42        Bz      LDRB     r2,[r0,#9]
        0x0001e520:    f241001f    A...    MOV      r0,#0x101f
        0x0001e524:    2a00        .*      CMP      r2,#0
        0x0001e526:    bf08        ..      IT       EQ
        0x0001e528:    f240100f    @...    MOVEQ    r0,#0x10f
        0x0001e52c:    e027        '.      B        0x1e57e ; mspi_device_configure + 634
        0x0001e52e:    2200        ."      MOVS     r2,#0
        0x0001e530:    f2c40206    ....    MOVT     r2,#0x4006
        0x0001e534:    eb023101    ...1    ADD      r1,r2,r1,LSL #12
        0x0001e538:    f8d12084    ...     LDR      r2,[r1,#0x84]
        0x0001e53c:    2301        .#      MOVS     r3,#1
        0x0001e53e:    e007        ..      B        0x1e550 ; mspi_device_configure + 588
        0x0001e540:    2200        ."      MOVS     r2,#0
        0x0001e542:    f2c40206    ....    MOVT     r2,#0x4006
        0x0001e546:    eb023101    ...1    ADD      r1,r2,r1,LSL #12
        0x0001e54a:    f8d12084    ...     LDR      r2,[r1,#0x84]
        0x0001e54e:    2302        .#      MOVS     r3,#2
        0x0001e550:    f3630203    c...    BFI      r2,r3,#0,#4
        0x0001e554:    f8c12084    ...     STR      r2,[r1,#0x84]
        0x0001e558:    f8d12084    ...     LDR      r2,[r1,#0x84]
        0x0001e55c:    f0220280    "...    BIC      r2,r2,#0x80
        0x0001e560:    f8c12084    ...     STR      r2,[r1,#0x84]
        0x0001e564:    f8d12090    ...     LDR      r2,[r1,#0x90]
        0x0001e568:    f42262e0    "..b    BIC      r2,r2,#0x700
        0x0001e56c:    f8c12090    ...     STR      r2,[r1,#0x90]
        0x0001e570:    7a42        Bz      LDRB     r2,[r0,#9]
        0x0001e572:    f2410013    A...    MOV      r0,#0x1013
        0x0001e576:    2a00        .*      CMP      r2,#0
        0x0001e578:    bf08        ..      IT       EQ
        0x0001e57a:    f2401003    @...    MOVEQ    r0,#0x103
        0x0001e57e:    6448        Hd      STR      r0,[r1,#0x44]
        0x0001e580:    4770        pG      BX       lr
    mspi_dummy_callback
        0x0001e582:    4770        pG      BX       lr
    mspi_seq_loopback
        0x0001e584:    f8d01830    ..0.    LDR      r1,[r0,#0x830]
        0x0001e588:    2200        ."      MOVS     r2,#0
        0x0001e58a:    3101        .1      ADDS     r1,#1
        0x0001e58c:    e9c02107    ...!    STRD     r2,r1,[r0,#0x1c]
        0x0001e590:    2101        .!      MOVS     r1,#1
        0x0001e592:    f8801834    ..4.    STRB     r1,[r0,#0x834]
        0x0001e596:    6840        @h      LDR      r0,[r0,#4]
        0x0001e598:    f24021b4    @..!    MOVW     r1,#0x2b4
        0x0001e59c:    0300        ..      LSLS     r0,r0,#12
        0x0001e59e:    f2c40106    ....    MOVT     r1,#0x4006
        0x0001e5a2:    2240        @"      MOVS     r2,#0x40
        0x0001e5a4:    500a        .P      STR      r2,[r1,r0]
        0x0001e5a6:    4770        pG      BX       lr
    ndigits_in_hex
        0x0001e5a8:    b084        ..      SUB      sp,sp,#0x10
        0x0001e5aa:    9103        ..      STR      r1,[sp,#0xc]
        0x0001e5ac:    9002        ..      STR      r0,[sp,#8]
        0x0001e5ae:    9802        ..      LDR      r0,[sp,#8]
        0x0001e5b0:    9903        ..      LDR      r1,[sp,#0xc]
        0x0001e5b2:    4308        .C      ORRS     r0,r0,r1
        0x0001e5b4:    fab0f080    ....    CLZ      r0,r0
        0x0001e5b8:    0940        @.      LSRS     r0,r0,#5
        0x0001e5ba:    9001        ..      STR      r0,[sp,#4]
        0x0001e5bc:    e7ff        ..      B        0x1e5be ; ndigits_in_hex + 22
        0x0001e5be:    9802        ..      LDR      r0,[sp,#8]
        0x0001e5c0:    9903        ..      LDR      r1,[sp,#0xc]
        0x0001e5c2:    4308        .C      ORRS     r0,r0,r1
        0x0001e5c4:    b160        `.      CBZ      r0,0x1e5e0 ; ndigits_in_hex + 56
        0x0001e5c6:    e7ff        ..      B        0x1e5c8 ; ndigits_in_hex + 32
        0x0001e5c8:    9802        ..      LDR      r0,[sp,#8]
        0x0001e5ca:    9903        ..      LDR      r1,[sp,#0xc]
        0x0001e5cc:    0900        ..      LSRS     r0,r0,#4
        0x0001e5ce:    ea407001    @..p    ORR      r0,r0,r1,LSL #28
        0x0001e5d2:    0909        ..      LSRS     r1,r1,#4
        0x0001e5d4:    9103        ..      STR      r1,[sp,#0xc]
        0x0001e5d6:    9002        ..      STR      r0,[sp,#8]
        0x0001e5d8:    9801        ..      LDR      r0,[sp,#4]
        0x0001e5da:    3001        .0      ADDS     r0,#1
        0x0001e5dc:    9001        ..      STR      r0,[sp,#4]
        0x0001e5de:    e7ee        ..      B        0x1e5be ; ndigits_in_hex + 22
        0x0001e5e0:    9801        ..      LDR      r0,[sp,#4]
        0x0001e5e2:    b004        ..      ADD      sp,sp,#0x10
        0x0001e5e4:    4770        pG      BX       lr
        0x0001e5e6:    0000        ..      MOVS     r0,r0
    ndigits_in_i64
        0x0001e5e8:    b580        ..      PUSH     {r7,lr}
        0x0001e5ea:    b082        ..      SUB      sp,sp,#8
        0x0001e5ec:    9101        ..      STR      r1,[sp,#4]
        0x0001e5ee:    9000        ..      STR      r0,[sp,#0]
        0x0001e5f0:    9801        ..      LDR      r0,[sp,#4]
        0x0001e5f2:    f1b03fff    ...?    CMP      r0,#0xffffffff
        0x0001e5f6:    dc09        ..      BGT      0x1e60c ; ndigits_in_i64 + 36
        0x0001e5f8:    e7ff        ..      B        0x1e5fa ; ndigits_in_i64 + 18
        0x0001e5fa:    9800        ..      LDR      r0,[sp,#0]
        0x0001e5fc:    9a01        ..      LDR      r2,[sp,#4]
        0x0001e5fe:    4241        AB      RSBS     r1,r0,#0
        0x0001e600:    f04f0000    O...    MOV      r0,#0
        0x0001e604:    4190        .A      SBCS     r0,r0,r2
        0x0001e606:    9100        ..      STR      r1,[sp,#0]
        0x0001e608:    9001        ..      STR      r0,[sp,#4]
        0x0001e60a:    e7ff        ..      B        0x1e60c ; ndigits_in_i64 + 36
        0x0001e60c:    9800        ..      LDR      r0,[sp,#0]
        0x0001e60e:    9901        ..      LDR      r1,[sp,#4]
        0x0001e610:    f000f802    ....    BL       ndigits_in_u64 ; 0x1e618
        0x0001e614:    b002        ..      ADD      sp,sp,#8
        0x0001e616:    bd80        ..      POP      {r7,pc}
    ndigits_in_u64
        0x0001e618:    b580        ..      PUSH     {r7,lr}
        0x0001e61a:    b084        ..      SUB      sp,sp,#0x10
        0x0001e61c:    9103        ..      STR      r1,[sp,#0xc]
        0x0001e61e:    9002        ..      STR      r0,[sp,#8]
        0x0001e620:    9802        ..      LDR      r0,[sp,#8]
        0x0001e622:    9903        ..      LDR      r1,[sp,#0xc]
        0x0001e624:    4308        .C      ORRS     r0,r0,r1
        0x0001e626:    fab0f080    ....    CLZ      r0,r0
        0x0001e62a:    0940        @.      LSRS     r0,r0,#5
        0x0001e62c:    9001        ..      STR      r0,[sp,#4]
        0x0001e62e:    e7ff        ..      B        0x1e630 ; ndigits_in_u64 + 24
        0x0001e630:    9802        ..      LDR      r0,[sp,#8]
        0x0001e632:    9903        ..      LDR      r1,[sp,#0xc]
        0x0001e634:    4308        .C      ORRS     r0,r0,r1
        0x0001e636:    b150        P.      CBZ      r0,0x1e64e ; ndigits_in_u64 + 54
        0x0001e638:    e7ff        ..      B        0x1e63a ; ndigits_in_u64 + 34
        0x0001e63a:    9802        ..      LDR      r0,[sp,#8]
        0x0001e63c:    9903        ..      LDR      r1,[sp,#0xc]
        0x0001e63e:    f7fff971    ..q.    BL       divu64_10 ; 0x1d924
        0x0001e642:    9103        ..      STR      r1,[sp,#0xc]
        0x0001e644:    9002        ..      STR      r0,[sp,#8]
        0x0001e646:    9801        ..      LDR      r0,[sp,#4]
        0x0001e648:    3001        .0      ADDS     r0,#1
        0x0001e64a:    9001        ..      STR      r0,[sp,#4]
        0x0001e64c:    e7f0        ..      B        0x1e630 ; ndigits_in_u64 + 24
        0x0001e64e:    9801        ..      LDR      r0,[sp,#4]
        0x0001e650:    b004        ..      ADD      sp,sp,#0x10
        0x0001e652:    bd80        ..      POP      {r7,pc}
    padbuffer
        0x0001e654:    b085        ..      SUB      sp,sp,#0x14
        0x0001e656:    9003        ..      STR      r0,[sp,#0xc]
        0x0001e658:    f88d100b    ....    STRB     r1,[sp,#0xb]
        0x0001e65c:    9201        ..      STR      r2,[sp,#4]
        0x0001e65e:    2000        .       MOVS     r0,#0
        0x0001e660:    9000        ..      STR      r0,[sp,#0]
        0x0001e662:    9801        ..      LDR      r0,[sp,#4]
        0x0001e664:    2800        .(      CMP      r0,#0
        0x0001e666:    dc03        ..      BGT      0x1e670 ; padbuffer + 28
        0x0001e668:    e7ff        ..      B        0x1e66a ; padbuffer + 22
        0x0001e66a:    9800        ..      LDR      r0,[sp,#0]
        0x0001e66c:    9004        ..      STR      r0,[sp,#0x10]
        0x0001e66e:    e016        ..      B        0x1e69e ; padbuffer + 74
        0x0001e670:    e7ff        ..      B        0x1e672 ; padbuffer + 30
        0x0001e672:    9801        ..      LDR      r0,[sp,#4]
        0x0001e674:    1e41        A.      SUBS     r1,r0,#1
        0x0001e676:    9101        ..      STR      r1,[sp,#4]
        0x0001e678:    b170        p.      CBZ      r0,0x1e698 ; padbuffer + 68
        0x0001e67a:    e7ff        ..      B        0x1e67c ; padbuffer + 40
        0x0001e67c:    9803        ..      LDR      r0,[sp,#0xc]
        0x0001e67e:    b138        8.      CBZ      r0,0x1e690 ; padbuffer + 60
        0x0001e680:    e7ff        ..      B        0x1e682 ; padbuffer + 46
        0x0001e682:    f89d000b    ....    LDRB     r0,[sp,#0xb]
        0x0001e686:    9903        ..      LDR      r1,[sp,#0xc]
        0x0001e688:    1c4a        J.      ADDS     r2,r1,#1
        0x0001e68a:    9203        ..      STR      r2,[sp,#0xc]
        0x0001e68c:    7008        .p      STRB     r0,[r1,#0]
        0x0001e68e:    e7ff        ..      B        0x1e690 ; padbuffer + 60
        0x0001e690:    9800        ..      LDR      r0,[sp,#0]
        0x0001e692:    3001        .0      ADDS     r0,#1
        0x0001e694:    9000        ..      STR      r0,[sp,#0]
        0x0001e696:    e7ec        ..      B        0x1e672 ; padbuffer + 30
        0x0001e698:    9800        ..      LDR      r0,[sp,#0]
        0x0001e69a:    9004        ..      STR      r0,[sp,#0x10]
        0x0001e69c:    e7ff        ..      B        0x1e69e ; padbuffer + 74
        0x0001e69e:    9804        ..      LDR      r0,[sp,#0x10]
        0x0001e6a0:    b005        ..      ADD      sp,sp,#0x14
        0x0001e6a2:    4770        pG      BX       lr
    pfnMSPI_PSRAM_DDR_Callback
        0x0001e6a4:    b082        ..      SUB      sp,sp,#8
        0x0001e6a6:    9001        ..      STR      r0,[sp,#4]
        0x0001e6a8:    9100        ..      STR      r1,[sp,#0]
        0x0001e6aa:    9901        ..      LDR      r1,[sp,#4]
        0x0001e6ac:    2001        .       MOVS     r0,#1
        0x0001e6ae:    7008        .p      STRB     r0,[r1,#0]
        0x0001e6b0:    b002        ..      ADD      sp,sp,#8
        0x0001e6b2:    4770        pG      BX       lr
    prepare_test_pattern
        0x0001e6b4:    b08d        ..      SUB      sp,sp,#0x34
        0x0001e6b6:    900b        ..      STR      r0,[sp,#0x2c]
        0x0001e6b8:    910a        ..      STR      r1,[sp,#0x28]
        0x0001e6ba:    9209        ..      STR      r2,[sp,#0x24]
        0x0001e6bc:    980a        ..      LDR      r0,[sp,#0x28]
        0x0001e6be:    9008        ..      STR      r0,[sp,#0x20]
        0x0001e6c0:    980a        ..      LDR      r0,[sp,#0x28]
        0x0001e6c2:    9007        ..      STR      r0,[sp,#0x1c]
        0x0001e6c4:    f89d0024    ..$.    LDRB     r0,[sp,#0x24]
        0x0001e6c8:    0780        ..      LSLS     r0,r0,#30
        0x0001e6ca:    b120         .      CBZ      r0,0x1e6d6 ; prepare_test_pattern + 34
        0x0001e6cc:    e7ff        ..      B        0x1e6ce ; prepare_test_pattern + 26
        0x0001e6ce:    f04f30ff    O..0    MOV      r0,#0xffffffff
        0x0001e6d2:    900c        ..      STR      r0,[sp,#0x30]
        0x0001e6d4:    e085        ..      B        0x1e7e2 ; prepare_test_pattern + 302
        0x0001e6d6:    980b        ..      LDR      r0,[sp,#0x2c]
        0x0001e6d8:    9000        ..      STR      r0,[sp,#0]
        0x0001e6da:    2804        .(      CMP      r0,#4
        0x0001e6dc:    d86c        l.      BHI      0x1e7b8 ; prepare_test_pattern + 260
        0x0001e6de:    9900        ..      LDR      r1,[sp,#0]
        0x0001e6e0:    e8dff001    ....    TBB      [pc,r1]
    $d.22
        0x0001e6e4:    45301a03    ..0E    DCD    1160780291
        0x0001e6e8:    0057        W.      DCW    87
    $t.23
        0x0001e6ea:    2000        .       MOVS     r0,#0
        0x0001e6ec:    9006        ..      STR      r0,[sp,#0x18]
        0x0001e6ee:    e7ff        ..      B        0x1e6f0 ; prepare_test_pattern + 60
        0x0001e6f0:    9806        ..      LDR      r0,[sp,#0x18]
        0x0001e6f2:    9909        ..      LDR      r1,[sp,#0x24]
        0x0001e6f4:    ebb00f91    ....    CMP      r0,r1,LSR #2
        0x0001e6f8:    d20d        ..      BCS      0x1e716 ; prepare_test_pattern + 98
        0x0001e6fa:    e7ff        ..      B        0x1e6fc ; prepare_test_pattern + 72
        0x0001e6fc:    9908        ..      LDR      r1,[sp,#0x20]
        0x0001e6fe:    9a06        ..      LDR      r2,[sp,#0x18]
        0x0001e700:    f64a20aa    J..     MOV      r0,#0xaaaa
        0x0001e704:    f2c55055    ..UP    MOVT     r0,#0x5555
        0x0001e708:    f8410022    A.".    STR      r0,[r1,r2,LSL #2]
        0x0001e70c:    e7ff        ..      B        0x1e70e ; prepare_test_pattern + 90
        0x0001e70e:    9806        ..      LDR      r0,[sp,#0x18]
        0x0001e710:    3001        .0      ADDS     r0,#1
        0x0001e712:    9006        ..      STR      r0,[sp,#0x18]
        0x0001e714:    e7ec        ..      B        0x1e6f0 ; prepare_test_pattern + 60
        0x0001e716:    e061        a.      B        0x1e7dc ; prepare_test_pattern + 296
        0x0001e718:    2000        .       MOVS     r0,#0
        0x0001e71a:    9005        ..      STR      r0,[sp,#0x14]
        0x0001e71c:    e7ff        ..      B        0x1e71e ; prepare_test_pattern + 106
        0x0001e71e:    9805        ..      LDR      r0,[sp,#0x14]
        0x0001e720:    9909        ..      LDR      r1,[sp,#0x24]
        0x0001e722:    ebb00f91    ....    CMP      r0,r1,LSR #2
        0x0001e726:    d20c        ..      BCS      0x1e742 ; prepare_test_pattern + 142
        0x0001e728:    e7ff        ..      B        0x1e72a ; prepare_test_pattern + 118
        0x0001e72a:    9908        ..      LDR      r1,[sp,#0x20]
        0x0001e72c:    9a05        ..      LDR      r2,[sp,#0x14]
        0x0001e72e:    2000        .       MOVS     r0,#0
        0x0001e730:    f6cf70ff    ...p    MOVT     r0,#0xffff
        0x0001e734:    f8410022    A.".    STR      r0,[r1,r2,LSL #2]
        0x0001e738:    e7ff        ..      B        0x1e73a ; prepare_test_pattern + 134
        0x0001e73a:    9805        ..      LDR      r0,[sp,#0x14]
        0x0001e73c:    3001        .0      ADDS     r0,#1
        0x0001e73e:    9005        ..      STR      r0,[sp,#0x14]
        0x0001e740:    e7ed        ..      B        0x1e71e ; prepare_test_pattern + 106
        0x0001e742:    e04b        K.      B        0x1e7dc ; prepare_test_pattern + 296
        0x0001e744:    2000        .       MOVS     r0,#0
        0x0001e746:    9004        ..      STR      r0,[sp,#0x10]
        0x0001e748:    e7ff        ..      B        0x1e74a ; prepare_test_pattern + 150
        0x0001e74a:    9804        ..      LDR      r0,[sp,#0x10]
        0x0001e74c:    9909        ..      LDR      r1,[sp,#0x24]
        0x0001e74e:    4288        .B      CMP      r0,r1
        0x0001e750:    d20c        ..      BCS      0x1e76c ; prepare_test_pattern + 184
        0x0001e752:    e7ff        ..      B        0x1e754 ; prepare_test_pattern + 160
        0x0001e754:    9a04        ..      LDR      r2,[sp,#0x10]
        0x0001e756:    f0020107    ....    AND      r1,r2,#7
        0x0001e75a:    2001        .       MOVS     r0,#1
        0x0001e75c:    4088        .@      LSLS     r0,r0,r1
        0x0001e75e:    9907        ..      LDR      r1,[sp,#0x1c]
        0x0001e760:    5488        .T      STRB     r0,[r1,r2]
        0x0001e762:    e7ff        ..      B        0x1e764 ; prepare_test_pattern + 176
        0x0001e764:    9804        ..      LDR      r0,[sp,#0x10]
        0x0001e766:    3001        .0      ADDS     r0,#1
        0x0001e768:    9004        ..      STR      r0,[sp,#0x10]
        0x0001e76a:    e7ee        ..      B        0x1e74a ; prepare_test_pattern + 150
        0x0001e76c:    e036        6.      B        0x1e7dc ; prepare_test_pattern + 296
        0x0001e76e:    2000        .       MOVS     r0,#0
        0x0001e770:    9003        ..      STR      r0,[sp,#0xc]
        0x0001e772:    e7ff        ..      B        0x1e774 ; prepare_test_pattern + 192
        0x0001e774:    9803        ..      LDR      r0,[sp,#0xc]
        0x0001e776:    9909        ..      LDR      r1,[sp,#0x24]
        0x0001e778:    4288        .B      CMP      r0,r1
        0x0001e77a:    d209        ..      BCS      0x1e790 ; prepare_test_pattern + 220
        0x0001e77c:    e7ff        ..      B        0x1e77e ; prepare_test_pattern + 202
        0x0001e77e:    9a03        ..      LDR      r2,[sp,#0xc]
        0x0001e780:    1c50        P.      ADDS     r0,r2,#1
        0x0001e782:    9907        ..      LDR      r1,[sp,#0x1c]
        0x0001e784:    5488        .T      STRB     r0,[r1,r2]
        0x0001e786:    e7ff        ..      B        0x1e788 ; prepare_test_pattern + 212
        0x0001e788:    9803        ..      LDR      r0,[sp,#0xc]
        0x0001e78a:    3001        .0      ADDS     r0,#1
        0x0001e78c:    9003        ..      STR      r0,[sp,#0xc]
        0x0001e78e:    e7f1        ..      B        0x1e774 ; prepare_test_pattern + 192
        0x0001e790:    e024        $.      B        0x1e7dc ; prepare_test_pattern + 296
        0x0001e792:    2000        .       MOVS     r0,#0
        0x0001e794:    9002        ..      STR      r0,[sp,#8]
        0x0001e796:    e7ff        ..      B        0x1e798 ; prepare_test_pattern + 228
        0x0001e798:    9802        ..      LDR      r0,[sp,#8]
        0x0001e79a:    9909        ..      LDR      r1,[sp,#0x24]
        0x0001e79c:    4288        .B      CMP      r0,r1
        0x0001e79e:    d20a        ..      BCS      0x1e7b6 ; prepare_test_pattern + 258
        0x0001e7a0:    e7ff        ..      B        0x1e7a2 ; prepare_test_pattern + 238
        0x0001e7a2:    9a02        ..      LDR      r2,[sp,#8]
        0x0001e7a4:    f1c200ff    ....    RSB      r0,r2,#0xff
        0x0001e7a8:    9907        ..      LDR      r1,[sp,#0x1c]
        0x0001e7aa:    5488        .T      STRB     r0,[r1,r2]
        0x0001e7ac:    e7ff        ..      B        0x1e7ae ; prepare_test_pattern + 250
        0x0001e7ae:    9802        ..      LDR      r0,[sp,#8]
        0x0001e7b0:    3001        .0      ADDS     r0,#1
        0x0001e7b2:    9002        ..      STR      r0,[sp,#8]
        0x0001e7b4:    e7f0        ..      B        0x1e798 ; prepare_test_pattern + 228
        0x0001e7b6:    e011        ..      B        0x1e7dc ; prepare_test_pattern + 296
        0x0001e7b8:    2000        .       MOVS     r0,#0
        0x0001e7ba:    9001        ..      STR      r0,[sp,#4]
        0x0001e7bc:    e7ff        ..      B        0x1e7be ; prepare_test_pattern + 266
        0x0001e7be:    9801        ..      LDR      r0,[sp,#4]
        0x0001e7c0:    9909        ..      LDR      r1,[sp,#0x24]
        0x0001e7c2:    4288        .B      CMP      r0,r1
        0x0001e7c4:    d209        ..      BCS      0x1e7da ; prepare_test_pattern + 294
        0x0001e7c6:    e7ff        ..      B        0x1e7c8 ; prepare_test_pattern + 276
        0x0001e7c8:    9a01        ..      LDR      r2,[sp,#4]
        0x0001e7ca:    1c50        P.      ADDS     r0,r2,#1
        0x0001e7cc:    9907        ..      LDR      r1,[sp,#0x1c]
        0x0001e7ce:    5488        .T      STRB     r0,[r1,r2]
        0x0001e7d0:    e7ff        ..      B        0x1e7d2 ; prepare_test_pattern + 286
        0x0001e7d2:    9801        ..      LDR      r0,[sp,#4]
        0x0001e7d4:    3001        .0      ADDS     r0,#1
        0x0001e7d6:    9001        ..      STR      r0,[sp,#4]
        0x0001e7d8:    e7f1        ..      B        0x1e7be ; prepare_test_pattern + 266
        0x0001e7da:    e7ff        ..      B        0x1e7dc ; prepare_test_pattern + 296
        0x0001e7dc:    2000        .       MOVS     r0,#0
        0x0001e7de:    900c        ..      STR      r0,[sp,#0x30]
        0x0001e7e0:    e7ff        ..      B        0x1e7e2 ; prepare_test_pattern + 302
        0x0001e7e2:    980c        ..      LDR      r0,[sp,#0x30]
        0x0001e7e4:    b00d        ..      ADD      sp,sp,#0x34
        0x0001e7e6:    4770        pG      BX       lr
    psram_check
        0x0001e7e8:    b580        ..      PUSH     {r7,lr}
        0x0001e7ea:    f5ad7d0c    ...}    SUB      sp,sp,#0x230
        0x0001e7ee:    908a        ..      STR      r0,[sp,#0x228]
        0x0001e7f0:    9189        ..      STR      r1,[sp,#0x224]
        0x0001e7f2:    988a        ..      LDR      r0,[sp,#0x228]
        0x0001e7f4:    9088        ..      STR      r0,[sp,#0x220]
        0x0001e7f6:    2000        .       MOVS     r0,#0
        0x0001e7f8:    9087        ..      STR      r0,[sp,#0x21c]
        0x0001e7fa:    9086        ..      STR      r0,[sp,#0x218]
        0x0001e7fc:    f88d0217    ....    STRB     r0,[sp,#0x217]
        0x0001e800:    e7ff        ..      B        0x1e802 ; psram_check + 26
        0x0001e802:    9888        ..      LDR      r0,[sp,#0x220]
        0x0001e804:    2800        .(      CMP      r0,#0
        0x0001e806:    d057        W.      BEQ      0x1e8b8 ; psram_check + 208
        0x0001e808:    e7ff        ..      B        0x1e80a ; psram_check + 34
        0x0001e80a:    9888        ..      LDR      r0,[sp,#0x220]
        0x0001e80c:    f5b07f80    ....    CMP      r0,#0x100
        0x0001e810:    d908        ..      BLS      0x1e824 ; psram_check + 60
        0x0001e812:    e7ff        ..      B        0x1e814 ; psram_check + 44
        0x0001e814:    f44f7080    O..p    MOV      r0,#0x100
        0x0001e818:    9087        ..      STR      r0,[sp,#0x21c]
        0x0001e81a:    9888        ..      LDR      r0,[sp,#0x220]
        0x0001e81c:    f5a07080    ...p    SUB      r0,r0,#0x100
        0x0001e820:    9088        ..      STR      r0,[sp,#0x220]
        0x0001e822:    e004        ..      B        0x1e82e ; psram_check + 70
        0x0001e824:    9888        ..      LDR      r0,[sp,#0x220]
        0x0001e826:    9087        ..      STR      r0,[sp,#0x21c]
        0x0001e828:    2000        .       MOVS     r0,#0
        0x0001e82a:    9088        ..      STR      r0,[sp,#0x220]
        0x0001e82c:    e7ff        ..      B        0x1e82e ; psram_check + 70
        0x0001e82e:    f89d0217    ....    LDRB     r0,[sp,#0x217]
        0x0001e832:    f64c41cd    L..A    MOV      r1,#0xcccd
        0x0001e836:    f6cc41cc    ...A    MOVT     r1,#0xcccc
        0x0001e83a:    fba02101    ...!    UMULL    r2,r1,r0,r1
        0x0001e83e:    0889        ..      LSRS     r1,r1,#2
        0x0001e840:    eb010181    ....    ADD      r1,r1,r1,LSL #2
        0x0001e844:    1a40        @.      SUBS     r0,r0,r1
        0x0001e846:    9a87        ..      LDR      r2,[sp,#0x21c]
        0x0001e848:    f20d1117    ....    ADD      r1,sp,#0x117
        0x0001e84c:    9102        ..      STR      r1,[sp,#8]
        0x0001e84e:    f7ffff31    ..1.    BL       prepare_test_pattern ; 0x1e6b4
        0x0001e852:    f89d0217    ....    LDRB     r0,[sp,#0x217]
        0x0001e856:    3001        .0      ADDS     r0,#1
        0x0001e858:    f88d0217    ....    STRB     r0,[sp,#0x217]
        0x0001e85c:    2002        .       MOVS     r0,#2
        0x0001e85e:    9001        ..      STR      r0,[sp,#4]
        0x0001e860:    2100        .!      MOVS     r1,#0
        0x0001e862:    9100        ..      STR      r1,[sp,#0]
        0x0001e864:    f7fbfb50    ..P.    BL       am_hal_daxi_control ; 0x19f08
        0x0001e868:    9902        ..      LDR      r1,[sp,#8]
        0x0001e86a:    9889        ..      LDR      r0,[sp,#0x224]
        0x0001e86c:    9a86        ..      LDR      r2,[sp,#0x218]
        0x0001e86e:    4410        .D      ADD      r0,r0,r2
        0x0001e870:    9004        ..      STR      r0,[sp,#0x10]
        0x0001e872:    9804        ..      LDR      r0,[sp,#0x10]
        0x0001e874:    9a87        ..      LDR      r2,[sp,#0x21c]
        0x0001e876:    f7f9fd93    ....    BL       __aeabi_memcpy ; 0x183a0
        0x0001e87a:    9900        ..      LDR      r1,[sp,#0]
        0x0001e87c:    9801        ..      LDR      r0,[sp,#4]
        0x0001e87e:    f7fbfb43    ..C.    BL       am_hal_daxi_control ; 0x19f08
        0x0001e882:    9889        ..      LDR      r0,[sp,#0x224]
        0x0001e884:    9986        ..      LDR      r1,[sp,#0x218]
        0x0001e886:    4408        .D      ADD      r0,r0,r1
        0x0001e888:    9004        ..      STR      r0,[sp,#0x10]
        0x0001e88a:    9904        ..      LDR      r1,[sp,#0x10]
        0x0001e88c:    9a87        ..      LDR      r2,[sp,#0x21c]
        0x0001e88e:    f10d0017    ....    ADD      r0,sp,#0x17
        0x0001e892:    9003        ..      STR      r0,[sp,#0xc]
        0x0001e894:    f7f9fd84    ....    BL       __aeabi_memcpy ; 0x183a0
        0x0001e898:    9902        ..      LDR      r1,[sp,#8]
        0x0001e89a:    9803        ..      LDR      r0,[sp,#0xc]
        0x0001e89c:    9a87        ..      LDR      r2,[sp,#0x21c]
        0x0001e89e:    f7f9fd53    ..S.    BL       memcmp ; 0x18348
        0x0001e8a2:    b120         .      CBZ      r0,0x1e8ae ; psram_check + 198
        0x0001e8a4:    e7ff        ..      B        0x1e8a6 ; psram_check + 190
        0x0001e8a6:    2001        .       MOVS     r0,#1
        0x0001e8a8:    f88d022f    ../.    STRB     r0,[sp,#0x22f]
        0x0001e8ac:    e008        ..      B        0x1e8c0 ; psram_check + 216
        0x0001e8ae:    9987        ..      LDR      r1,[sp,#0x21c]
        0x0001e8b0:    9886        ..      LDR      r0,[sp,#0x218]
        0x0001e8b2:    4408        .D      ADD      r0,r0,r1
        0x0001e8b4:    9086        ..      STR      r0,[sp,#0x218]
        0x0001e8b6:    e7a4        ..      B        0x1e802 ; psram_check + 26
        0x0001e8b8:    2000        .       MOVS     r0,#0
        0x0001e8ba:    f88d022f    ../.    STRB     r0,[sp,#0x22f]
        0x0001e8be:    e7ff        ..      B        0x1e8c0 ; psram_check + 216
        0x0001e8c0:    f89d022f    ../.    LDRB     r0,[sp,#0x22f]
        0x0001e8c4:    f50d7d0c    ...}    ADD      sp,sp,#0x230
        0x0001e8c8:    bd80        ..      POP      {r7,pc}
        0x0001e8ca:    0000        ..      MOVS     r0,r0
    psram_nonblocking_transfer
        0x0001e8cc:    b580        ..      PUSH     {r7,lr}
        0x0001e8ce:    b096        ..      SUB      sp,sp,#0x58
        0x0001e8d0:    f8ddc074    ..t.    LDR      r12,[sp,#0x74]
        0x0001e8d4:    f8ddc070    ..p.    LDR      r12,[sp,#0x70]
        0x0001e8d8:    f8ddc06c    ..l.    LDR      r12,[sp,#0x6c]
        0x0001e8dc:    f8ddc068    ..h.    LDR      r12,[sp,#0x68]
        0x0001e8e0:    f8ddc064    ..d.    LDR      r12,[sp,#0x64]
        0x0001e8e4:    f8ddc060    ..`.    LDR      r12,[sp,#0x60]
        0x0001e8e8:    9015        ..      STR      r0,[sp,#0x54]
        0x0001e8ea:    f88d1053    ..S.    STRB     r1,[sp,#0x53]
        0x0001e8ee:    f88d2052    ..R     STRB     r2,[sp,#0x52]
        0x0001e8f2:    9313        ..      STR      r3,[sp,#0x4c]
        0x0001e8f4:    2000        .       MOVS     r0,#0
        0x0001e8f6:    9012        ..      STR      r0,[sp,#0x48]
        0x0001e8f8:    2101        .!      MOVS     r1,#1
        0x0001e8fa:    f88d1030    ..0.    STRB     r1,[sp,#0x30]
        0x0001e8fe:    f89d1052    ..R.    LDRB     r1,[sp,#0x52]
        0x0001e902:    f0010101    ....    AND      r1,r1,#1
        0x0001e906:    f88d1031    ..1.    STRB     r1,[sp,#0x31]
        0x0001e90a:    991a        ..      LDR      r1,[sp,#0x68]
        0x0001e90c:    9110        ..      STR      r1,[sp,#0x40]
        0x0001e90e:    9011        ..      STR      r0,[sp,#0x44]
        0x0001e910:    e7ff        ..      B        0x1e912 ; psram_nonblocking_transfer + 70
        0x0001e912:    9819        ..      LDR      r0,[sp,#0x64]
        0x0001e914:    2800        .(      CMP      r0,#0
        0x0001e916:    f0008096    ....    BEQ.W    0x1ea46 ; psram_nonblocking_transfer + 378
        0x0001e91a:    e7ff        ..      B        0x1e91c ; psram_nonblocking_transfer + 80
        0x0001e91c:    f89d0060    ..`.    LDRB     r0,[sp,#0x60]
        0x0001e920:    0780        ..      LSLS     r0,r0,#30
        0x0001e922:    b180        ..      CBZ      r0,0x1e946 ; psram_nonblocking_transfer + 122
        0x0001e924:    e7ff        ..      B        0x1e926 ; psram_nonblocking_transfer + 90
        0x0001e926:    9818        ..      LDR      r0,[sp,#0x60]
        0x0001e928:    f36f209f    o..     BFC      r0,#10,#22
        0x0001e92c:    f5c06080    ...`    RSB      r0,r0,#0x400
        0x0001e930:    9919        ..      LDR      r1,[sp,#0x64]
        0x0001e932:    4288        .B      CMP      r0,r1
        0x0001e934:    d207        ..      BCS      0x1e946 ; psram_nonblocking_transfer + 122
        0x0001e936:    e7ff        ..      B        0x1e938 ; psram_nonblocking_transfer + 108
        0x0001e938:    9818        ..      LDR      r0,[sp,#0x60]
        0x0001e93a:    f0000003    ....    AND      r0,r0,#3
        0x0001e93e:    f1c00004    ....    RSB      r0,r0,#4
        0x0001e942:    900b        ..      STR      r0,[sp,#0x2c]
        0x0001e944:    e002        ..      B        0x1e94c ; psram_nonblocking_transfer + 128
        0x0001e946:    9819        ..      LDR      r0,[sp,#0x64]
        0x0001e948:    900b        ..      STR      r0,[sp,#0x2c]
        0x0001e94a:    e7ff        ..      B        0x1e94c ; psram_nonblocking_transfer + 128
        0x0001e94c:    980b        ..      LDR      r0,[sp,#0x2c]
        0x0001e94e:    9919        ..      LDR      r1,[sp,#0x64]
        0x0001e950:    1a40        @.      SUBS     r0,r0,r1
        0x0001e952:    fab0f080    ....    CLZ      r0,r0
        0x0001e956:    0940        @.      LSRS     r0,r0,#5
        0x0001e958:    f88d002b    ..+.    STRB     r0,[sp,#0x2b]
        0x0001e95c:    980b        ..      LDR      r0,[sp,#0x2c]
        0x0001e95e:    900d        ..      STR      r0,[sp,#0x34]
        0x0001e960:    9818        ..      LDR      r0,[sp,#0x60]
        0x0001e962:    900e        ..      STR      r0,[sp,#0x38]
        0x0001e964:    9813        ..      LDR      r0,[sp,#0x4c]
        0x0001e966:    900f        ..      STR      r0,[sp,#0x3c]
        0x0001e968:    f89d002b    ..+.    LDRB     r0,[sp,#0x2b]
        0x0001e96c:    07c0        ..      LSLS     r0,r0,#31
        0x0001e96e:    b118        ..      CBZ      r0,0x1e978 ; psram_nonblocking_transfer + 172
        0x0001e970:    e7ff        ..      B        0x1e972 ; psram_nonblocking_transfer + 166
        0x0001e972:    981b        ..      LDR      r0,[sp,#0x6c]
        0x0001e974:    9011        ..      STR      r0,[sp,#0x44]
        0x0001e976:    e7ff        ..      B        0x1e978 ; psram_nonblocking_transfer + 172
        0x0001e978:    f89d0053    ..S.    LDRB     r0,[sp,#0x53]
        0x0001e97c:    07c0        ..      LSLS     r0,r0,#31
        0x0001e97e:    b330        0.      CBZ      r0,0x1e9ce ; psram_nonblocking_transfer + 258
        0x0001e980:    e7ff        ..      B        0x1e982 ; psram_nonblocking_transfer + 182
        0x0001e982:    9815        ..      LDR      r0,[sp,#0x54]
        0x0001e984:    6840        @h      LDR      r0,[r0,#4]
        0x0001e986:    9009        ..      STR      r0,[sp,#0x24]
        0x0001e988:    f89d002b    ..+.    LDRB     r0,[sp,#0x2b]
        0x0001e98c:    07c0        ..      LSLS     r0,r0,#31
        0x0001e98e:    b118        ..      CBZ      r0,0x1e998 ; psram_nonblocking_transfer + 204
        0x0001e990:    e7ff        ..      B        0x1e992 ; psram_nonblocking_transfer + 198
        0x0001e992:    981c        ..      LDR      r0,[sp,#0x70]
        0x0001e994:    9008        ..      STR      r0,[sp,#0x20]
        0x0001e996:    e002        ..      B        0x1e99e ; psram_nonblocking_transfer + 210
        0x0001e998:    2000        .       MOVS     r0,#0
        0x0001e99a:    9008        ..      STR      r0,[sp,#0x20]
        0x0001e99c:    e7ff        ..      B        0x1e99e ; psram_nonblocking_transfer + 210
        0x0001e99e:    9808        ..      LDR      r0,[sp,#0x20]
        0x0001e9a0:    9007        ..      STR      r0,[sp,#0x1c]
        0x0001e9a2:    f89d002b    ..+.    LDRB     r0,[sp,#0x2b]
        0x0001e9a6:    07c0        ..      LSLS     r0,r0,#31
        0x0001e9a8:    b118        ..      CBZ      r0,0x1e9b2 ; psram_nonblocking_transfer + 230
        0x0001e9aa:    e7ff        ..      B        0x1e9ac ; psram_nonblocking_transfer + 224
        0x0001e9ac:    981d        ..      LDR      r0,[sp,#0x74]
        0x0001e9ae:    9006        ..      STR      r0,[sp,#0x18]
        0x0001e9b0:    e002        ..      B        0x1e9b8 ; psram_nonblocking_transfer + 236
        0x0001e9b2:    2000        .       MOVS     r0,#0
        0x0001e9b4:    9006        ..      STR      r0,[sp,#0x18]
        0x0001e9b6:    e7ff        ..      B        0x1e9b8 ; psram_nonblocking_transfer + 236
        0x0001e9b8:    9b07        ..      LDR      r3,[sp,#0x1c]
        0x0001e9ba:    9809        ..      LDR      r0,[sp,#0x24]
        0x0001e9bc:    9906        ..      LDR      r1,[sp,#0x18]
        0x0001e9be:    466a        jF      MOV      r2,sp
        0x0001e9c0:    6011        .`      STR      r1,[r2,#0]
        0x0001e9c2:    a90c        ..      ADD      r1,sp,#0x30
        0x0001e9c4:    2201        ."      MOVS     r2,#1
        0x0001e9c6:    f7fcfdca    ....    BL       am_hal_mspi_highprio_transfer ; 0x1b55e
        0x0001e9ca:    9012        ..      STR      r0,[sp,#0x48]
        0x0001e9cc:    e028        (.      B        0x1ea20 ; psram_nonblocking_transfer + 340
        0x0001e9ce:    9815        ..      LDR      r0,[sp,#0x54]
        0x0001e9d0:    6840        @h      LDR      r0,[r0,#4]
        0x0001e9d2:    9004        ..      STR      r0,[sp,#0x10]
        0x0001e9d4:    a80c        ..      ADD      r0,sp,#0x30
        0x0001e9d6:    9005        ..      STR      r0,[sp,#0x14]
        0x0001e9d8:    f89d002b    ..+.    LDRB     r0,[sp,#0x2b]
        0x0001e9dc:    07c0        ..      LSLS     r0,r0,#31
        0x0001e9de:    b118        ..      CBZ      r0,0x1e9e8 ; psram_nonblocking_transfer + 284
        0x0001e9e0:    e7ff        ..      B        0x1e9e2 ; psram_nonblocking_transfer + 278
        0x0001e9e2:    981c        ..      LDR      r0,[sp,#0x70]
        0x0001e9e4:    9003        ..      STR      r0,[sp,#0xc]
        0x0001e9e6:    e002        ..      B        0x1e9ee ; psram_nonblocking_transfer + 290
        0x0001e9e8:    2000        .       MOVS     r0,#0
        0x0001e9ea:    9003        ..      STR      r0,[sp,#0xc]
        0x0001e9ec:    e7ff        ..      B        0x1e9ee ; psram_nonblocking_transfer + 290
        0x0001e9ee:    9803        ..      LDR      r0,[sp,#0xc]
        0x0001e9f0:    9002        ..      STR      r0,[sp,#8]
        0x0001e9f2:    f89d002b    ..+.    LDRB     r0,[sp,#0x2b]
        0x0001e9f6:    07c0        ..      LSLS     r0,r0,#31
        0x0001e9f8:    b118        ..      CBZ      r0,0x1ea02 ; psram_nonblocking_transfer + 310
        0x0001e9fa:    e7ff        ..      B        0x1e9fc ; psram_nonblocking_transfer + 304
        0x0001e9fc:    981d        ..      LDR      r0,[sp,#0x74]
        0x0001e9fe:    9001        ..      STR      r0,[sp,#4]
        0x0001ea00:    e002        ..      B        0x1ea08 ; psram_nonblocking_transfer + 316
        0x0001ea02:    2000        .       MOVS     r0,#0
        0x0001ea04:    9001        ..      STR      r0,[sp,#4]
        0x0001ea06:    e7ff        ..      B        0x1ea08 ; psram_nonblocking_transfer + 316
        0x0001ea08:    9b02        ..      LDR      r3,[sp,#8]
        0x0001ea0a:    9905        ..      LDR      r1,[sp,#0x14]
        0x0001ea0c:    9804        ..      LDR      r0,[sp,#0x10]
        0x0001ea0e:    9a01        ..      LDR      r2,[sp,#4]
        0x0001ea10:    46ec        .F      MOV      r12,sp
        0x0001ea12:    f8cc2000    ...     STR      r2,[r12,#0]
        0x0001ea16:    2201        ."      MOVS     r2,#1
        0x0001ea18:    f7fcffe7    ....    BL       am_hal_mspi_nonblocking_transfer ; 0x1b9ea
        0x0001ea1c:    9012        ..      STR      r0,[sp,#0x48]
        0x0001ea1e:    e7ff        ..      B        0x1ea20 ; psram_nonblocking_transfer + 340
        0x0001ea20:    9812        ..      LDR      r0,[sp,#0x48]
        0x0001ea22:    b108        ..      CBZ      r0,0x1ea28 ; psram_nonblocking_transfer + 348
        0x0001ea24:    e7ff        ..      B        0x1ea26 ; psram_nonblocking_transfer + 346
        0x0001ea26:    e00e        ..      B        0x1ea46 ; psram_nonblocking_transfer + 378
        0x0001ea28:    990b        ..      LDR      r1,[sp,#0x2c]
        0x0001ea2a:    9818        ..      LDR      r0,[sp,#0x60]
        0x0001ea2c:    4408        .D      ADD      r0,r0,r1
        0x0001ea2e:    9018        ..      STR      r0,[sp,#0x60]
        0x0001ea30:    990b        ..      LDR      r1,[sp,#0x2c]
        0x0001ea32:    9819        ..      LDR      r0,[sp,#0x64]
        0x0001ea34:    1a40        @.      SUBS     r0,r0,r1
        0x0001ea36:    9019        ..      STR      r0,[sp,#0x64]
        0x0001ea38:    990b        ..      LDR      r1,[sp,#0x2c]
        0x0001ea3a:    9813        ..      LDR      r0,[sp,#0x4c]
        0x0001ea3c:    4408        .D      ADD      r0,r0,r1
        0x0001ea3e:    9013        ..      STR      r0,[sp,#0x4c]
        0x0001ea40:    2000        .       MOVS     r0,#0
        0x0001ea42:    9010        ..      STR      r0,[sp,#0x40]
        0x0001ea44:    e765        e.      B        0x1e912 ; psram_nonblocking_transfer + 70
        0x0001ea46:    9812        ..      LDR      r0,[sp,#0x48]
        0x0001ea48:    b016        ..      ADD      sp,sp,#0x58
        0x0001ea4a:    bd80        ..      POP      {r7,pc}
    run_new_image
        0x0001ea4c:    f64e5308    N..S    MOV      r3,#0xed08
        0x0001ea50:    f2ce0300    ....    MOVT     r3,#0xe000
        0x0001ea54:    6018        .`      STR      r0,[r3,#0]
        0x0001ea56:    6803        .h      LDR      r3,[r0,#0]
        0x0001ea58:    6842        Bh      LDR      r2,[r0,#4]
        0x0001ea5a:    469d        .F      MOV      sp,r3
        0x0001ea5c:    4710        .G      BX       r2
    sched_hiprio
        0x0001ea5e:    b570        p.      PUSH     {r4-r6,lr}
        0x0001ea60:    b082        ..      SUB      sp,sp,#8
        0x0001ea62:    460d        .F      MOV      r5,r1
        0x0001ea64:    4604        .F      MOV      r4,r0
        0x0001ea66:    f7fbfc85    ....    BL       am_hal_interrupt_master_disable ; 0x1a374
        0x0001ea6a:    9001        ..      STR      r0,[sp,#4]
        0x0001ea6c:    f8d46840    ..@h    LDR      r6,[r4,#0x840]
        0x0001ea70:    1970        p.      ADDS     r0,r6,r5
        0x0001ea72:    f8c40840    ..@.    STR      r0,[r4,#0x840]
        0x0001ea76:    9801        ..      LDR      r0,[sp,#4]
        0x0001ea78:    f7fbfc84    ....    BL       am_hal_interrupt_master_set ; 0x1a384
        0x0001ea7c:    b10e        ..      CBZ      r6,0x1ea82 ; sched_hiprio + 36
        0x0001ea7e:    2000        .       MOVS     r0,#0
        0x0001ea80:    e03b        ;.      B        0x1eafa ; sched_hiprio + 156
        0x0001ea82:    4620         F      MOV      r0,r4
        0x0001ea84:    f7fffc00    ....    BL       mspi_cq_pause ; 0x1e288
        0x0001ea88:    bbb8        ..      CBNZ     r0,0x1eafa ; sched_hiprio + 156
        0x0001ea8a:    6861        ah      LDR      r1,[r4,#4]
        0x0001ea8c:    2200        ."      MOVS     r2,#0
        0x0001ea8e:    f2c40206    ....    MOVT     r2,#0x4006
        0x0001ea92:    2000        .       MOVS     r0,#0
        0x0001ea94:    eb023101    ...1    ADD      r1,r2,r1,LSL #12
        0x0001ea98:    2340        @#      MOVS     r3,#0x40
        0x0001ea9a:    6260        `b      STR      r0,[r4,#0x24]
        0x0001ea9c:    f8c13208    ...2    STR      r3,[r1,#0x208]
        0x0001eaa0:    6861        ah      LDR      r1,[r4,#4]
        0x0001eaa2:    eb023101    ...1    ADD      r1,r2,r1,LSL #12
        0x0001eaa6:    f8d13200    ...2    LDR      r3,[r1,#0x200]
        0x0001eaaa:    f0430340    C.@.    ORR      r3,r3,#0x40
        0x0001eaae:    f8c13200    ...2    STR      r3,[r1,#0x200]
        0x0001eab2:    2101        .!      MOVS     r1,#1
        0x0001eab4:    f884183c    ..<.    STRB     r1,[r4,#0x83c]
        0x0001eab8:    f8d43850    ..P8    LDR      r3,[r4,#0x850]
        0x0001eabc:    f8d46848    ..Hh    LDR      r6,[r4,#0x848]
        0x0001eac0:    3301        .3      ADDS     r3,#1
        0x0001eac2:    fbb3f5f6    ....    UDIV     r5,r3,r6
        0x0001eac6:    6861        ah      LDR      r1,[r4,#4]
        0x0001eac8:    fb053316    ...3    MLS      r3,r5,r6,r3
        0x0001eacc:    f8d44854    ..TH    LDR      r4,[r4,#0x854]
        0x0001ead0:    eb023101    ...1    ADD      r1,r2,r1,LSL #12
        0x0001ead4:    f8c10100    ....    STR      r0,[r1,#0x100]
        0x0001ead8:    eb030243    ..C.    ADD      r2,r3,r3,LSL #1
        0x0001eadc:    f8543032    T.20    LDR      r3,[r4,r2,LSL #3]
        0x0001eae0:    eb0402c2    ....    ADD      r2,r4,r2,LSL #3
        0x0001eae4:    f8c13108    ...1    STR      r3,[r1,#0x108]
        0x0001eae8:    6853        Sh      LDR      r3,[r2,#4]
        0x0001eaea:    f8c1310c    ...1    STR      r3,[r1,#0x10c]
        0x0001eaee:    6893        .h      LDR      r3,[r2,#8]
        0x0001eaf0:    f8c13110    ...1    STR      r3,[r1,#0x110]
        0x0001eaf4:    68d2        .h      LDR      r2,[r2,#0xc]
        0x0001eaf6:    f8c12100    ...!    STR      r2,[r1,#0x100]
        0x0001eafa:    b002        ..      ADD      sp,sp,#8
        0x0001eafc:    bd70        p.      POP      {r4-r6,pc}
        0x0001eafe:    0000        ..      MOVS     r0,r0
    simple_strlen
        0x0001eb00:    b083        ..      SUB      sp,sp,#0xc
        0x0001eb02:    9001        ..      STR      r0,[sp,#4]
        0x0001eb04:    2000        .       MOVS     r0,#0
        0x0001eb06:    9000        ..      STR      r0,[sp,#0]
        0x0001eb08:    9801        ..      LDR      r0,[sp,#4]
        0x0001eb0a:    b918        ..      CBNZ     r0,0x1eb14 ; simple_strlen + 20
        0x0001eb0c:    e7ff        ..      B        0x1eb0e ; simple_strlen + 14
        0x0001eb0e:    9800        ..      LDR      r0,[sp,#0]
        0x0001eb10:    9002        ..      STR      r0,[sp,#8]
        0x0001eb12:    e00d        ..      B        0x1eb30 ; simple_strlen + 48
        0x0001eb14:    e7ff        ..      B        0x1eb16 ; simple_strlen + 22
        0x0001eb16:    9801        ..      LDR      r0,[sp,#4]
        0x0001eb18:    1c41        A.      ADDS     r1,r0,#1
        0x0001eb1a:    9101        ..      STR      r1,[sp,#4]
        0x0001eb1c:    7800        .x      LDRB     r0,[r0,#0]
        0x0001eb1e:    b120         .      CBZ      r0,0x1eb2a ; simple_strlen + 42
        0x0001eb20:    e7ff        ..      B        0x1eb22 ; simple_strlen + 34
        0x0001eb22:    9800        ..      LDR      r0,[sp,#0]
        0x0001eb24:    3001        .0      ADDS     r0,#1
        0x0001eb26:    9000        ..      STR      r0,[sp,#0]
        0x0001eb28:    e7f5        ..      B        0x1eb16 ; simple_strlen + 22
        0x0001eb2a:    9800        ..      LDR      r0,[sp,#0]
        0x0001eb2c:    9002        ..      STR      r0,[sp,#8]
        0x0001eb2e:    e7ff        ..      B        0x1eb30 ; simple_strlen + 48
        0x0001eb30:    9802        ..      LDR      r0,[sp,#8]
        0x0001eb32:    b003        ..      ADD      sp,sp,#0xc
        0x0001eb34:    4770        pG      BX       lr
        0x0001eb36:    0000        ..      MOVS     r0,r0
    timer_config_b1
        0x0001eb38:    e92d43f0    -..C    PUSH     {r4-r9,lr}
        0x0001eb3c:    f6423888    B..8    MOV      r8,#0x2b88
        0x0001eb40:    f2c10800    ....    MOVT     r8,#0x1000
        0x0001eb44:    eb080280    ....    ADD      r2,r8,r0,LSL #2
        0x0001eb48:    2600        .&      MOVS     r6,#0
        0x0001eb4a:    4615        .F      MOV      r5,r2
        0x0001eb4c:    e9d13e02    ...>    LDRD     r3,lr,[r1,#8]
        0x0001eb50:    f8d1c010    ....    LDR      r12,[r1,#0x10]
        0x0001eb54:    f8456b03    E..k    STR      r6,[r5],#3
        0x0001eb58:    784f        Ox      LDRB     r7,[r1,#1]
        0x0001eb5a:    2f0e        ./      CMP      r7,#0xe
        0x0001eb5c:    d832        2.      BHI      0x1ebc4 ; timer_config_b1 + 140
        0x0001eb5e:    1c96        ..      ADDS     r6,r2,#2
        0x0001eb60:    2207        ."      MOVS     r2,#7
        0x0001eb62:    e8dff007    ....    TBB      [pc,r7]
    $d.1
        0x0001eb66:    1199        ..      DCW    4505
        0x0001eb68:    2f082f08    ././    DCD    789065480
        0x0001eb6c:    2f2f2f99    .///    DCD    791621529
        0x0001eb70:    211d2f2f    //.!    DCD    555560751
        0x0001eb74:    0099        ..      DCW    153
    $t.2
        0x0001eb76:    f04f3201    O..2    MOV      r2,#0x1010101
        0x0001eb7a:    2b00        .+      CMP      r3,#0
        0x0001eb7c:    f8482020    H.      STR      r2,[r8,r0,LSL #2]
        0x0001eb80:    f0408089    @...    BNE.W    0x1ec96 ; timer_config_b1 + 350
        0x0001eb84:    2300        .#      MOVS     r3,#0
        0x0001eb86:    e01d        ..      B        0x1ebc4 ; timer_config_b1 + 140
        0x0001eb88:    2201        ."      MOVS     r2,#1
        0x0001eb8a:    f11e0701    ....    ADDS     r7,lr,#1
        0x0001eb8e:    702a        *p      STRB     r2,[r5,#0]
        0x0001eb90:    7032        2p      STRB     r2,[r6,#0]
        0x0001eb92:    d107        ..      BNE      0x1eba4 ; timer_config_b1 + 108
        0x0001eb94:    f11c0e01    ....    ADDS     lr,r12,#1
        0x0001eb98:    bf28        (.      IT       CS
        0x0001eb9a:    f04f3eff    O..>    MOVCS    lr,#0xffffffff
        0x0001eb9e:    e011        ..      B        0x1ebc4 ; timer_config_b1 + 140
        0x0001eba0:    2b20         +      CMP      r3,#0x20
        0x0001eba2:    d906        ..      BLS      0x1ebb2 ; timer_config_b1 + 122
        0x0001eba4:    2207        ."      MOVS     r2,#7
        0x0001eba6:    e077        w.      B        0x1ec98 ; timer_config_b1 + 352
        0x0001eba8:    f04f3201    O..2    MOV      r2,#0x1010101
        0x0001ebac:    f8482020    H.      STR      r2,[r8,r0,LSL #2]
        0x0001ebb0:    e008        ..      B        0x1ebc4 ; timer_config_b1 + 140
        0x0001ebb2:    2201        ."      MOVS     r2,#1
        0x0001ebb4:    2b00        .+      CMP      r3,#0
        0x0001ebb6:    469c        .F      MOV      r12,r3
        0x0001ebb8:    bf18        ..      IT       NE
        0x0001ebba:    3301        .3      ADDNE    r3,#1
        0x0001ebbc:    f8082020    ..      STRB     r2,[r8,r0,LSL #2]
        0x0001ebc0:    702a        *p      STRB     r2,[r5,#0]
        0x0001ebc2:    7032        2p      STRB     r2,[r6,#0]
        0x0001ebc4:    780a        .x      LDRB     r2,[r1,#0]
        0x0001ebc6:    f00204e0    ....    AND      r4,r2,#0xe0
        0x0001ebca:    2c20         ,      CMP      r4,#0x20
        0x0001ebcc:    d10d        ..      BNE      0x1ebea ; timer_config_b1 + 178
        0x0001ebce:    f1a20420    .. .    SUB      r4,r2,#0x20
        0x0001ebd2:    07d2        ..      LSLS     r2,r2,#31
        0x0001ebd4:    ea4f0264    O.d.    ASR      r2,r4,#1
        0x0001ebd8:    d102        ..      BNE      0x1ebe0 ; timer_config_b1 + 168
        0x0001ebda:    f8182022    .."     LDRB     r2,[r8,r2,LSL #2]
        0x0001ebde:    e002        ..      B        0x1ebe6 ; timer_config_b1 + 174
        0x0001ebe0:    eb080282    ....    ADD      r2,r8,r2,LSL #2
        0x0001ebe4:    7892        .x      LDRB     r2,[r2,#2]
        0x0001ebe6:    2a00        .*      CMP      r2,#0
        0x0001ebe8:    d055        U.      BEQ      0x1ec96 ; timer_config_b1 + 350
        0x0001ebea:    790a        .y      LDRB     r2,[r1,#4]
        0x0001ebec:    b172        r.      CBZ      r2,0x1ec0c ; timer_config_b1 + 212
        0x0001ebee:    794a        Jy      LDRB     r2,[r1,#5]
        0x0001ebf0:    2a1f        .*      CMP      r2,#0x1f
        0x0001ebf2:    d80b        ..      BHI      0x1ec0c ; timer_config_b1 + 212
        0x0001ebf4:    07d4        ..      LSLS     r4,r2,#31
        0x0001ebf6:    ea4f0252    O.R.    LSR      r2,r2,#1
        0x0001ebfa:    d102        ..      BNE      0x1ec02 ; timer_config_b1 + 202
        0x0001ebfc:    f8182022    .."     LDRB     r2,[r8,r2,LSL #2]
        0x0001ec00:    e002        ..      B        0x1ec08 ; timer_config_b1 + 208
        0x0001ec02:    eb080282    ....    ADD      r2,r8,r2,LSL #2
        0x0001ec06:    7892        .x      LDRB     r2,[r2,#2]
        0x0001ec08:    2a00        .*      CMP      r2,#0
        0x0001ec0a:    d044        D.      BEQ      0x1ec96 ; timer_config_b1 + 350
        0x0001ec0c:    f2481804    H...    MOV      r8,#0x8104
        0x0001ec10:    f2c40800    ....    MOVT     r8,#0x4000
        0x0001ec14:    2401        .$      MOVS     r4,#1
        0x0001ec16:    f8d85000    ...P    LDR      r5,[r8,#0]
        0x0001ec1a:    fa04f900    ....    LSL      r9,r4,r0
        0x0001ec1e:    ea250509    %...    BIC      r5,r5,r9
        0x0001ec22:    f8c85000    ...P    STR      r5,[r8,#0]
        0x0001ec26:    780d        .x      LDRB     r5,[r1,#0]
        0x0001ec28:    784e        Nx      LDRB     r6,[r1,#1]
        0x0001ec2a:    78ca        .x      LDRB     r2,[r1,#3]
        0x0001ec2c:    022d        -.      LSLS     r5,r5,#8
        0x0001ec2e:    788f        .x      LDRB     r7,[r1,#2]
        0x0001ec30:    f006060f    ....    AND      r6,r6,#0xf
        0x0001ec34:    ea456303    E..c    ORR      r3,r5,r3,LSL #24
        0x0001ec38:    f002021f    ....    AND      r2,r2,#0x1f
        0x0001ec3c:    790c        .y      LDRB     r4,[r1,#4]
        0x0001ec3e:    ea431306    C...    ORR      r3,r3,r6,LSL #4
        0x0001ec42:    eb081040    ..@.    ADD      r0,r8,r0,LSL #5
        0x0001ec46:    f007073f    ..?.    AND      r7,r7,#0x3f
        0x0001ec4a:    ea4302c2    C...    ORR      r2,r3,r2,LSL #3
        0x0001ec4e:    7949        Iy      LDRB     r1,[r1,#5]
        0x0001ec50:    f8d030fc    ...0    LDR      r3,[r0,#0xfc]
        0x0001ec54:    f0040403    ....    AND      r4,r4,#3
        0x0001ec58:    ea420287    B...    ORR      r2,r2,r7,LSL #2
        0x0001ec5c:    ea424204    B..B    ORR      r2,r2,r4,LSL #16
        0x0001ec60:    0209        ..      LSLS     r1,r1,#8
        0x0001ec62:    f0230301    #...    BIC      r3,r3,#1
        0x0001ec66:    f8c030fc    ...0    STR      r3,[r0,#0xfc]
        0x0001ec6a:    f8c020fc    ...     STR      r2,[r0,#0xfc]
        0x0001ec6e:    f8c0110c    ....    STR      r1,[r0,#0x10c]
        0x0001ec72:    f8c0e104    ....    STR      lr,[r0,#0x104]
        0x0001ec76:    f8c0c108    ....    STR      r12,[r0,#0x108]
        0x0001ec7a:    f8d010fc    ....    LDR      r1,[r0,#0xfc]
        0x0001ec7e:    2200        ."      MOVS     r2,#0
        0x0001ec80:    f0410102    A...    ORR      r1,r1,#2
        0x0001ec84:    f8c010fc    ....    STR      r1,[r0,#0xfc]
        0x0001ec88:    f8d80000    ....    LDR      r0,[r8,#0]
        0x0001ec8c:    ea400009    @...    ORR      r0,r0,r9
        0x0001ec90:    f8c80000    ....    STR      r0,[r8,#0]
        0x0001ec94:    e000        ..      B        0x1ec98 ; timer_config_b1 + 352
        0x0001ec96:    2206        ."      MOVS     r2,#6
        0x0001ec98:    4610        .F      MOV      r0,r2
        0x0001ec9a:    e8bd83f0    ....    POP      {r4-r9,pc}
        0x0001ec9e:    0000        ..      MOVS     r0,r0
    uint64_to_hexstr
        0x0001eca0:    b08c        ..      SUB      sp,sp,#0x30
        0x0001eca2:    910b        ..      STR      r1,[sp,#0x2c]
        0x0001eca4:    900a        ..      STR      r0,[sp,#0x28]
        0x0001eca6:    9209        ..      STR      r2,[sp,#0x24]
        0x0001eca8:    f88d3023    ..#0    STRB     r3,[sp,#0x23]
        0x0001ecac:    2000        .       MOVS     r0,#0
        0x0001ecae:    9006        ..      STR      r0,[sp,#0x18]
        0x0001ecb0:    980a        ..      LDR      r0,[sp,#0x28]
        0x0001ecb2:    990b        ..      LDR      r1,[sp,#0x2c]
        0x0001ecb4:    4308        .C      ORRS     r0,r0,r1
        0x0001ecb6:    b940        @.      CBNZ     r0,0x1ecca ; uint64_to_hexstr + 42
        0x0001ecb8:    e7ff        ..      B        0x1ecba ; uint64_to_hexstr + 26
        0x0001ecba:    9a06        ..      LDR      r2,[sp,#0x18]
        0x0001ecbc:    1c50        P.      ADDS     r0,r2,#1
        0x0001ecbe:    9006        ..      STR      r0,[sp,#0x18]
        0x0001ecc0:    f10d0103    ....    ADD      r1,sp,#3
        0x0001ecc4:    2030        0       MOVS     r0,#0x30
        0x0001ecc6:    5488        .T      STRB     r0,[r1,r2]
        0x0001ecc8:    e7ff        ..      B        0x1ecca ; uint64_to_hexstr + 42
        0x0001ecca:    e7ff        ..      B        0x1eccc ; uint64_to_hexstr + 44
        0x0001eccc:    980a        ..      LDR      r0,[sp,#0x28]
        0x0001ecce:    990b        ..      LDR      r1,[sp,#0x2c]
        0x0001ecd0:    4308        .C      ORRS     r0,r0,r1
        0x0001ecd2:    b350        P.      CBZ      r0,0x1ed2a ; uint64_to_hexstr + 138
        0x0001ecd4:    e7ff        ..      B        0x1ecd6 ; uint64_to_hexstr + 54
        0x0001ecd6:    f89d0028    ..(.    LDRB     r0,[sp,#0x28]
        0x0001ecda:    f000000f    ....    AND      r0,r0,#0xf
        0x0001ecde:    f88d0017    ....    STRB     r0,[sp,#0x17]
        0x0001ece2:    f89d0017    ....    LDRB     r0,[sp,#0x17]
        0x0001ece6:    280a        .(      CMP      r0,#0xa
        0x0001ece8:    db0d        ..      BLT      0x1ed06 ; uint64_to_hexstr + 102
        0x0001ecea:    e7ff        ..      B        0x1ecec ; uint64_to_hexstr + 76
        0x0001ecec:    f89d0023    ..#.    LDRB     r0,[sp,#0x23]
        0x0001ecf0:    07c0        ..      LSLS     r0,r0,#31
        0x0001ecf2:    2107        .!      MOVS     r1,#7
        0x0001ecf4:    2800        .(      CMP      r0,#0
        0x0001ecf6:    bf18        ..      IT       NE
        0x0001ecf8:    2127        '!      MOVNE    r1,#0x27
        0x0001ecfa:    f89d0017    ....    LDRB     r0,[sp,#0x17]
        0x0001ecfe:    4408        .D      ADD      r0,r0,r1
        0x0001ed00:    f88d0017    ....    STRB     r0,[sp,#0x17]
        0x0001ed04:    e7ff        ..      B        0x1ed06 ; uint64_to_hexstr + 102
        0x0001ed06:    f89d0017    ....    LDRB     r0,[sp,#0x17]
        0x0001ed0a:    3030        00      ADDS     r0,r0,#0x30
        0x0001ed0c:    9a06        ..      LDR      r2,[sp,#0x18]
        0x0001ed0e:    1c51        Q.      ADDS     r1,r2,#1
        0x0001ed10:    9106        ..      STR      r1,[sp,#0x18]
        0x0001ed12:    f10d0103    ....    ADD      r1,sp,#3
        0x0001ed16:    5488        .T      STRB     r0,[r1,r2]
        0x0001ed18:    980a        ..      LDR      r0,[sp,#0x28]
        0x0001ed1a:    990b        ..      LDR      r1,[sp,#0x2c]
        0x0001ed1c:    0900        ..      LSRS     r0,r0,#4
        0x0001ed1e:    ea407001    @..p    ORR      r0,r0,r1,LSL #28
        0x0001ed22:    0909        ..      LSRS     r1,r1,#4
        0x0001ed24:    910b        ..      STR      r1,[sp,#0x2c]
        0x0001ed26:    900a        ..      STR      r0,[sp,#0x28]
        0x0001ed28:    e7d0        ..      B        0x1eccc ; uint64_to_hexstr + 44
        0x0001ed2a:    9806        ..      LDR      r0,[sp,#0x18]
        0x0001ed2c:    9007        ..      STR      r0,[sp,#0x1c]
        0x0001ed2e:    9809        ..      LDR      r0,[sp,#0x24]
        0x0001ed30:    b198        ..      CBZ      r0,0x1ed5a ; uint64_to_hexstr + 186
        0x0001ed32:    e7ff        ..      B        0x1ed34 ; uint64_to_hexstr + 148
        0x0001ed34:    e7ff        ..      B        0x1ed36 ; uint64_to_hexstr + 150
        0x0001ed36:    9806        ..      LDR      r0,[sp,#0x18]
        0x0001ed38:    1e41        A.      SUBS     r1,r0,#1
        0x0001ed3a:    9106        ..      STR      r1,[sp,#0x18]
        0x0001ed3c:    b148        H.      CBZ      r0,0x1ed52 ; uint64_to_hexstr + 178
        0x0001ed3e:    e7ff        ..      B        0x1ed40 ; uint64_to_hexstr + 160
        0x0001ed40:    9906        ..      LDR      r1,[sp,#0x18]
        0x0001ed42:    f10d0003    ....    ADD      r0,sp,#3
        0x0001ed46:    5c40        @\      LDRB     r0,[r0,r1]
        0x0001ed48:    9909        ..      LDR      r1,[sp,#0x24]
        0x0001ed4a:    1c4a        J.      ADDS     r2,r1,#1
        0x0001ed4c:    9209        ..      STR      r2,[sp,#0x24]
        0x0001ed4e:    7008        .p      STRB     r0,[r1,#0]
        0x0001ed50:    e7f1        ..      B        0x1ed36 ; uint64_to_hexstr + 150
        0x0001ed52:    9909        ..      LDR      r1,[sp,#0x24]
        0x0001ed54:    2000        .       MOVS     r0,#0
        0x0001ed56:    7008        .p      STRB     r0,[r1,#0]
        0x0001ed58:    e7ff        ..      B        0x1ed5a ; uint64_to_hexstr + 186
        0x0001ed5a:    9807        ..      LDR      r0,[sp,#0x1c]
        0x0001ed5c:    b00c        ..      ADD      sp,sp,#0x30
        0x0001ed5e:    4770        pG      BX       lr
    uint64_to_str
        0x0001ed60:    b580        ..      PUSH     {r7,lr}
        0x0001ed62:    b090        ..      SUB      sp,sp,#0x40
        0x0001ed64:    910f        ..      STR      r1,[sp,#0x3c]
        0x0001ed66:    900e        ..      STR      r0,[sp,#0x38]
        0x0001ed68:    920d        ..      STR      r2,[sp,#0x34]
        0x0001ed6a:    2000        .       MOVS     r0,#0
        0x0001ed6c:    9005        ..      STR      r0,[sp,#0x14]
        0x0001ed6e:    9004        ..      STR      r0,[sp,#0x10]
        0x0001ed70:    e7ff        ..      B        0x1ed72 ; uint64_to_str + 18
        0x0001ed72:    980e        ..      LDR      r0,[sp,#0x38]
        0x0001ed74:    990f        ..      LDR      r1,[sp,#0x3c]
        0x0001ed76:    f7fefdd5    ....    BL       divu64_10 ; 0x1d924
        0x0001ed7a:    9101        ..      STR      r1,[sp,#4]
        0x0001ed7c:    9000        ..      STR      r0,[sp,#0]
        0x0001ed7e:    980e        ..      LDR      r0,[sp,#0x38]
        0x0001ed80:    9900        ..      LDR      r1,[sp,#0]
        0x0001ed82:    eb010181    ....    ADD      r1,r1,r1,LSL #2
        0x0001ed86:    eba00041    ..A.    SUB      r0,r0,r1,LSL #1
        0x0001ed8a:    9003        ..      STR      r0,[sp,#0xc]
        0x0001ed8c:    9803        ..      LDR      r0,[sp,#0xc]
        0x0001ed8e:    3030        00      ADDS     r0,r0,#0x30
        0x0001ed90:    9a05        ..      LDR      r2,[sp,#0x14]
        0x0001ed92:    1c51        Q.      ADDS     r1,r2,#1
        0x0001ed94:    9105        ..      STR      r1,[sp,#0x14]
        0x0001ed96:    f10d011b    ....    ADD      r1,sp,#0x1b
        0x0001ed9a:    5488        .T      STRB     r0,[r1,r2]
        0x0001ed9c:    9800        ..      LDR      r0,[sp,#0]
        0x0001ed9e:    9901        ..      LDR      r1,[sp,#4]
        0x0001eda0:    910f        ..      STR      r1,[sp,#0x3c]
        0x0001eda2:    900e        ..      STR      r0,[sp,#0x38]
        0x0001eda4:    e7ff        ..      B        0x1eda6 ; uint64_to_str + 70
        0x0001eda6:    980e        ..      LDR      r0,[sp,#0x38]
        0x0001eda8:    990f        ..      LDR      r1,[sp,#0x3c]
        0x0001edaa:    4308        .C      ORRS     r0,r0,r1
        0x0001edac:    2800        .(      CMP      r0,#0
        0x0001edae:    d1e0        ..      BNE      0x1ed72 ; uint64_to_str + 18
        0x0001edb0:    e7ff        ..      B        0x1edb2 ; uint64_to_str + 82
        0x0001edb2:    9805        ..      LDR      r0,[sp,#0x14]
        0x0001edb4:    9004        ..      STR      r0,[sp,#0x10]
        0x0001edb6:    980d        ..      LDR      r0,[sp,#0x34]
        0x0001edb8:    b198        ..      CBZ      r0,0x1ede2 ; uint64_to_str + 130
        0x0001edba:    e7ff        ..      B        0x1edbc ; uint64_to_str + 92
        0x0001edbc:    e7ff        ..      B        0x1edbe ; uint64_to_str + 94
        0x0001edbe:    9805        ..      LDR      r0,[sp,#0x14]
        0x0001edc0:    1e41        A.      SUBS     r1,r0,#1
        0x0001edc2:    9105        ..      STR      r1,[sp,#0x14]
        0x0001edc4:    b148        H.      CBZ      r0,0x1edda ; uint64_to_str + 122
        0x0001edc6:    e7ff        ..      B        0x1edc8 ; uint64_to_str + 104
        0x0001edc8:    9905        ..      LDR      r1,[sp,#0x14]
        0x0001edca:    f10d001b    ....    ADD      r0,sp,#0x1b
        0x0001edce:    5c40        @\      LDRB     r0,[r0,r1]
        0x0001edd0:    990d        ..      LDR      r1,[sp,#0x34]
        0x0001edd2:    1c4a        J.      ADDS     r2,r1,#1
        0x0001edd4:    920d        ..      STR      r2,[sp,#0x34]
        0x0001edd6:    7008        .p      STRB     r0,[r1,#0]
        0x0001edd8:    e7f1        ..      B        0x1edbe ; uint64_to_str + 94
        0x0001edda:    990d        ..      LDR      r1,[sp,#0x34]
        0x0001eddc:    2000        .       MOVS     r0,#0
        0x0001edde:    7008        .p      STRB     r0,[r1,#0]
        0x0001ede0:    e7ff        ..      B        0x1ede2 ; uint64_to_str + 130
        0x0001ede2:    9804        ..      LDR      r0,[sp,#0x10]
        0x0001ede4:    b010        ..      ADD      sp,sp,#0x40
        0x0001ede6:    bd80        ..      POP      {r7,pc}
    update_indices
        0x0001ede8:    b510        ..      PUSH     {r4,lr}
        0x0001edea:    b082        ..      SUB      sp,sp,#8
        0x0001edec:    4604        .F      MOV      r4,r0
        0x0001edee:    f7fbfac1    ....    BL       am_hal_interrupt_master_disable ; 0x1a374
        0x0001edf2:    9001        ..      STR      r0,[sp,#4]
        0x0001edf4:    e9d41008    ....    LDRD     r1,r0,[r4,#0x20]
        0x0001edf8:    e9d00201    ....    LDRD     r0,r2,[r0,#4]
        0x0001edfc:    460b        .F      MOV      r3,r1
        0x0001edfe:    6812        .h      LDR      r2,[r2,#0]
        0x0001ee00:    f3620307    b...    BFI      r3,r2,#0,#8
        0x0001ee04:    4299        .B      CMP      r1,r3
        0x0001ee06:    bfb8        ..      IT       LT
        0x0001ee08:    f5a37380    ...s    SUBLT    r3,r3,#0x100
        0x0001ee0c:    61e3        .a      STR      r3,[r4,#0x1c]
        0x0001ee0e:    6800        .h      LDR      r0,[r0,#0]
        0x0001ee10:    60e0        .`      STR      r0,[r4,#0xc]
        0x0001ee12:    9801        ..      LDR      r0,[sp,#4]
        0x0001ee14:    b002        ..      ADD      sp,sp,#8
        0x0001ee16:    e8bd4010    ...@    POP      {r4,lr}
        0x0001ee1a:    f7fbbab3    ....    B        am_hal_interrupt_master_set ; 0x1a384
    update_mspixip_state
        0x0001ee1e:    b5b0        ..      PUSH     {r4,r5,r7,lr}
        0x0001ee20:    b082        ..      SUB      sp,sp,#8
        0x0001ee22:    460c        .F      MOV      r4,r1
        0x0001ee24:    4605        .F      MOV      r5,r0
        0x0001ee26:    f7fbfaa5    ....    BL       am_hal_interrupt_master_disable ; 0x1a374
        0x0001ee2a:    9001        ..      STR      r0,[sp,#4]
        0x0001ee2c:    f64270d0    B..p    MOV      r0,#0x2fd0
        0x0001ee30:    f2c10000    ....    MOVT     r0,#0x1000
        0x0001ee34:    6801        .h      LDR      r1,[r0,#0]
        0x0001ee36:    2201        ."      MOVS     r2,#1
        0x0001ee38:    40aa        .@      LSLS     r2,r2,r5
        0x0001ee3a:    4391        .C      BICS     r1,r1,r2
        0x0001ee3c:    fa04f205    ....    LSL      r2,r4,r5
        0x0001ee40:    4311        .C      ORRS     r1,r1,r2
        0x0001ee42:    6001        .`      STR      r1,[r0,#0]
        0x0001ee44:    9801        ..      LDR      r0,[sp,#4]
        0x0001ee46:    b002        ..      ADD      sp,sp,#8
        0x0001ee48:    e8bd40b0    ...@    POP      {r4,r5,r7,lr}
        0x0001ee4c:    f7fbba9a    ....    B        am_hal_interrupt_master_set ; 0x1a384
    $t
    x$fpl$d2f
    $v0
    __aeabi_d2f
    _d2f
        0x0001ee50:    f0214200    !..B    BIC      r2,r1,#0x80000000
        0x0001ee54:    f0014300    ...C    AND      r3,r1,#0x80000000
        0x0001ee58:    f1a25260    ..`R    SUB      r2,r2,#0x38000000
        0x0001ee5c:    f5b21f80    ....    CMP      r2,#0x100000
        0x0001ee60:    bf28        (.      IT       CS
        0x0001ee62:    f1d26c7f    ...l    RSBSCS   r12,r2,#0xff00000
        0x0001ee66:    d90b        ..      BLS      0x1ee80 ; __aeabi_d2f + 48
        0x0001ee68:    ea5f1c00    _...    LSLS     r12,r0,#4
        0x0001ee6c:    ea4302c2    C...    ORR      r2,r3,r2,LSL #3
        0x0001ee70:    eb427050    B.Pp    ADC      r0,r2,r0,LSR #29
        0x0001ee74:    bf18        ..      IT       NE
        0x0001ee76:    4770        pG      BXNE     lr
        0x0001ee78:    bf28        (.      IT       CS
        0x0001ee7a:    f0200001     ...    BICCS    r0,r0,#1
        0x0001ee7e:    4770        pG      BX       lr
        0x0001ee80:    f5b21f80    ....    CMP      r2,#0x100000
        0x0001ee84:    bfbc        ..      ITT      LT
        0x0001ee86:    4618        .F      MOVLT    r0,r3
        0x0001ee88:    4770        pG      BXLT     lr
        0x0001ee8a:    ea4f0c41    O.A.    LSL      r12,r1,#1
        0x0001ee8e:    f51c1f00    ....    CMN      r12,#0x200000
        0x0001ee92:    d202        ..      BCS      0x1ee9a ; __aeabi_d2f + 74
        0x0001ee94:    4608        .F      MOV      r0,r1
        0x0001ee96:    f000b867    ..g.    B.W      __fpl_fretinf ; 0x1ef68
        0x0001ee9a:    b570        p.      PUSH     {r4-r6,lr}
        0x0001ee9c:    f000f809    ....    BL       __fpl_dnaninf ; 0x1eeb2
    $d
        0x0001eea0:    89000000    ....    DCD    2298478592
    $t
        0x0001eea4:    f7ffbff6    ....    B.W      0x1ee94 ; __aeabi_d2f + 68
        0x0001eea8:    f04f4000    O..@    MOV      r0,#0x80000000
        0x0001eeac:    f5a00080    ....    SUB      r0,r0,#0x400000
        0x0001eeb0:    4770        pG      BX       lr
    x$fpl$dnaninf
    $v0
    __fpl_dnaninf
        0x0001eeb2:    f10e0e02    ....    ADD      lr,lr,#2
        0x0001eeb6:    f02e0e03    ....    BIC      lr,lr,#3
        0x0001eeba:    f85e6b04    ^..k    LDR      r6,[lr],#4
        0x0001eebe:    4236        6B      TST      r6,r6
        0x0001eec0:    d405        ..      BMI      0x1eece ; __fpl_dnaninf + 28
        0x0001eec2:    2a01        .*      CMP      r2,#1
        0x0001eec4:    eb430503    C...    ADC      r5,r3,r3
        0x0001eec8:    f5151f00    ....    CMN      r5,#0x200000
        0x0001eecc:    d812        ..      BHI      0x1eef4 ; __fpl_dnaninf + 66
        0x0001eece:    2801        .(      CMP      r0,#1
        0x0001eed0:    eb410c01    A...    ADC      r12,r1,r1
        0x0001eed4:    f51c1f00    ....    CMN      r12,#0x200000
        0x0001eed8:    d80c        ..      BHI      0x1eef4 ; __fpl_dnaninf + 66
        0x0001eeda:    d10e        ..      BNE      0x1eefa ; __fpl_dnaninf + 72
        0x0001eedc:    ea4f7cd1    O..|    LSR      r12,r1,#31
        0x0001eee0:    eb0c0c4c    ..L.    ADD      r12,r12,r12,LSL #1
        0x0001eee4:    f10c0c02    ....    ADD      r12,r12,#2
        0x0001eee8:    f5151f00    ....    CMN      r5,#0x200000
        0x0001eeec:    bf08        ..      IT       EQ
        0x0001eeee:    eb4c7cd3    L..|    ADCEQ    r12,r12,r3,LSR #31
        0x0001eef2:    e004        ..      B        0x1eefe ; __fpl_dnaninf + 76
        0x0001eef4:    f04f0c08    O...    MOV      r12,#8
        0x0001eef8:    e001        ..      B        0x1eefe ; __fpl_dnaninf + 76
        0x0001eefa:    ea4f7cd3    O..|    LSR      r12,r3,#31
        0x0001eefe:    eb0c054c    ..L.    ADD      r5,r12,r12,LSL #1
        0x0001ef02:    fa26f605    &...    LSR      r6,r6,r5
        0x0001ef06:    f0060607    ....    AND      r6,r6,#7
        0x0001ef0a:    f1b60c04    ....    SUBS     r12,r6,#4
        0x0001ef0e:    d206        ..      BCS      0x1ef1e ; __fpl_dnaninf + 108
        0x0001ef10:    eb0e0c86    ....    ADD      r12,lr,r6,LSL #2
        0x0001ef14:    e8bd4070    ..p@    POP      {r4-r6,lr}
        0x0001ef18:    f04c0c01    L...    ORR      r12,r12,#1
        0x0001ef1c:    4760        `G      BX       r12
        0x0001ef1e:    e8dff00c    ....    TBB      [pc,r12]
    $d
        0x0001ef22:    0b09        ..      DCW    2825
        0x0001ef24:    0202        ..      DCW    514
    $t
        0x0001ef26:    f04f4100    O..A    MOV      r1,#0x80000000
        0x0001ef2a:    f5a12100    ...!    SUB      r1,r1,#0x80000
        0x0001ef2e:    f04f0000    O...    MOV      r0,#0
        0x0001ef32:    bd70        p.      POP      {r4-r6,pc}
        0x0001ef34:    4619        .F      MOV      r1,r3
        0x0001ef36:    4610        .F      MOV      r0,r2
        0x0001ef38:    2801        .(      CMP      r0,#1
        0x0001ef3a:    eb510401    Q...    ADCS     r4,r1,r1
        0x0001ef3e:    bf18        ..      IT       NE
        0x0001ef40:    f5d41400    ....    RSBSNE   r4,r4,#0x200000
        0x0001ef44:    bf84        ..      ITT      HI
        0x0001ef46:    2000        .       MOVHI    r0,#0
        0x0001ef48:    f0014100    ...A    ANDHI    r1,r1,#0x80000000
        0x0001ef4c:    bd70        p.      POP      {r4-r6,pc}
    x$fpl$fpinit
    $v0
    _fp_init
        0x0001ef4e:    eef10a10    ....    VMRS     r0,FPSCR
        0x0001ef52:    f64f71ff    O..q    MOV      r1,#0xffff
        0x0001ef56:    f2c031c0    ...1    MOVT     r1,#0x3c0
        0x0001ef5a:    ea200001     ...    BIC      r0,r0,r1
        0x0001ef5e:    f0407040    @.@p    ORR      r0,r0,#0x3000000
        0x0001ef62:    eee10a10    ....    VMSR     FPSCR,r0
    __fplib_config_fpu_vfp
    __fplib_config_pureend_doubles
        0x0001ef66:    4770        pG      BX       lr
    x$fpl$fretinf
    $v0
    __fpl_fretinf
        0x0001ef68:    21ff        .!      MOVS     r1,#0xff
        0x0001ef6a:    ea4150d0    A..P    ORR      r0,r1,r0,LSR #23
        0x0001ef6e:    05c0        ..      LSLS     r0,r0,#23
        0x0001ef70:    4770        pG      BX       lr
    $d.realdata
    .L__const.am_devices_mspi_psram_aps12808l_apply_ddr_timing.applyCfg
    x$fpl$usenofp
    __I$use$fp
        0x0001ef72:    0100        ..      DCW    256
        0x0001ef74:    00000001    ....    DCD    1
        0x0001ef78:    00000000    ....    DCD    0
        0x0001ef7c:    00          .       DCB    0
    .L__const.am_devices_mspi_psram_aps12808l_ddr_init_timing_check.scanCfg
        0x0001ef7d:    000101      ...     DCB    0,1,1
        0x0001ef80:    0000000f    ....    DCD    15
        0x0001ef84:    000c0c00    ....    DCD    789504
    am_hal_cachectrl_defaults
        0x0001ef88:    030e        ..      DCW    782
        0x0001ef8a:    00          .       DCB    0
    am_hal_daxi_defaults
        0x0001ef8b:    02          .       DCB    2
        0x0001ef8c:    00000000    ....    DCD    0
    am_hal_pwrctrl_peripheral_control
        0x0001ef90:    40021004    ...@    DCD    1073876996
        0x0001ef94:    00000001    ....    DCD    1
        0x0001ef98:    40021008    ...@    DCD    1073877000
        0x0001ef9c:    00000001    ....    DCD    1
        0x0001efa0:    40021004    ...@    DCD    1073876996
        0x0001efa4:    00000002    ....    DCD    2
        0x0001efa8:    40021008    ...@    DCD    1073877000
        0x0001efac:    0000001e    ....    DCD    30
        0x0001efb0:    40021004    ...@    DCD    1073876996
        0x0001efb4:    00000004    ....    DCD    4
        0x0001efb8:    40021008    ...@    DCD    1073877000
        0x0001efbc:    0000001e    ....    DCD    30
        0x0001efc0:    40021004    ...@    DCD    1073876996
        0x0001efc4:    00000008    ....    DCD    8
        0x0001efc8:    40021008    ...@    DCD    1073877000
        0x0001efcc:    0000001e    ....    DCD    30
        0x0001efd0:    40021004    ...@    DCD    1073876996
        0x0001efd4:    00000010    ....    DCD    16
        0x0001efd8:    40021008    ...@    DCD    1073877000
        0x0001efdc:    0000001e    ....    DCD    30
        0x0001efe0:    40021004    ...@    DCD    1073876996
        0x0001efe4:    00000020     ...    DCD    32
        0x0001efe8:    40021008    ...@    DCD    1073877000
        0x0001efec:    000001e0    ....    DCD    480
        0x0001eff0:    40021004    ...@    DCD    1073876996
        0x0001eff4:    00000040    @...    DCD    64
        0x0001eff8:    40021008    ...@    DCD    1073877000
        0x0001effc:    000001e0    ....    DCD    480
        0x0001f000:    40021004    ...@    DCD    1073876996
        0x0001f004:    00000080    ....    DCD    128
        0x0001f008:    40021008    ...@    DCD    1073877000
        0x0001f00c:    000001e0    ....    DCD    480
        0x0001f010:    40021004    ...@    DCD    1073876996
        0x0001f014:    00000100    ....    DCD    256
        0x0001f018:    40021008    ...@    DCD    1073877000
        0x0001f01c:    000001e0    ....    DCD    480
        0x0001f020:    40021004    ...@    DCD    1073876996
        0x0001f024:    00000200    ....    DCD    512
        0x0001f028:    40021008    ...@    DCD    1073877000
        0x0001f02c:    00001e00    ....    DCD    7680
        0x0001f030:    40021004    ...@    DCD    1073876996
        0x0001f034:    00000400    ....    DCD    1024
        0x0001f038:    40021008    ...@    DCD    1073877000
        0x0001f03c:    00001e00    ....    DCD    7680
        0x0001f040:    40021004    ...@    DCD    1073876996
        0x0001f044:    00000800    ....    DCD    2048
        0x0001f048:    40021008    ...@    DCD    1073877000
        0x0001f04c:    00001e00    ....    DCD    7680
        0x0001f050:    40021004    ...@    DCD    1073876996
        0x0001f054:    00001000    ....    DCD    4096
        0x0001f058:    40021008    ...@    DCD    1073877000
        0x0001f05c:    00001e00    ....    DCD    7680
        0x0001f060:    40021004    ...@    DCD    1073876996
        0x0001f064:    00002000    . ..    DCD    8192
        0x0001f068:    40021008    ...@    DCD    1073877000
        0x0001f06c:    00002000    . ..    DCD    8192
        0x0001f070:    40021004    ...@    DCD    1073876996
        0x0001f074:    00004000    .@..    DCD    16384
        0x0001f078:    40021008    ...@    DCD    1073877000
        0x0001f07c:    0001c000    ....    DCD    114688
        0x0001f080:    40021004    ...@    DCD    1073876996
        0x0001f084:    00008000    ....    DCD    32768
        0x0001f088:    40021008    ...@    DCD    1073877000
        0x0001f08c:    0001c000    ....    DCD    114688
        0x0001f090:    40021004    ...@    DCD    1073876996
        0x0001f094:    00010000    ....    DCD    65536
        0x0001f098:    40021008    ...@    DCD    1073877000
        0x0001f09c:    0001c000    ....    DCD    114688
        0x0001f0a0:    40021004    ...@    DCD    1073876996
        0x0001f0a4:    00020000    ....    DCD    131072
        0x0001f0a8:    40021008    ...@    DCD    1073877000
        0x0001f0ac:    00020000    ....    DCD    131072
        0x0001f0b0:    40021004    ...@    DCD    1073876996
        0x0001f0b4:    00040000    ....    DCD    262144
        0x0001f0b8:    40021008    ...@    DCD    1073877000
        0x0001f0bc:    00040000    ....    DCD    262144
        0x0001f0c0:    40021004    ...@    DCD    1073876996
        0x0001f0c4:    00080000    ....    DCD    524288
        0x0001f0c8:    40021008    ...@    DCD    1073877000
        0x0001f0cc:    00080000    ....    DCD    524288
        0x0001f0d0:    40021004    ...@    DCD    1073876996
        0x0001f0d4:    00100000    ....    DCD    1048576
        0x0001f0d8:    40021008    ...@    DCD    1073877000
        0x0001f0dc:    00100000    ....    DCD    1048576
        0x0001f0e0:    40021004    ...@    DCD    1073876996
        0x0001f0e4:    00200000    .. .    DCD    2097152
        0x0001f0e8:    40021008    ...@    DCD    1073877000
        0x0001f0ec:    00200000    .. .    DCD    2097152
        0x0001f0f0:    40021004    ...@    DCD    1073876996
        0x0001f0f4:    00400000    ..@.    DCD    4194304
        0x0001f0f8:    40021008    ...@    DCD    1073877000
        0x0001f0fc:    00400000    ..@.    DCD    4194304
        0x0001f100:    40021004    ...@    DCD    1073876996
        0x0001f104:    00800000    ....    DCD    8388608
        0x0001f108:    40021008    ...@    DCD    1073877000
        0x0001f10c:    00800000    ....    DCD    8388608
        0x0001f110:    40021004    ...@    DCD    1073876996
        0x0001f114:    01000000    ....    DCD    16777216
        0x0001f118:    40021008    ...@    DCD    1073877000
        0x0001f11c:    01000000    ....    DCD    16777216
        0x0001f120:    4002100c    ...@    DCD    1073877004
        0x0001f124:    00000001    ....    DCD    1
        0x0001f128:    40021010    ...@    DCD    1073877008
        0x0001f12c:    000000ff    ....    DCD    255
        0x0001f130:    4002100c    ...@    DCD    1073877004
        0x0001f134:    00000002    ....    DCD    2
        0x0001f138:    40021010    ...@    DCD    1073877008
        0x0001f13c:    000000ff    ....    DCD    255
        0x0001f140:    4002100c    ...@    DCD    1073877004
        0x0001f144:    00000004    ....    DCD    4
        0x0001f148:    40021010    ...@    DCD    1073877008
        0x0001f14c:    000000ff    ....    DCD    255
        0x0001f150:    4002100c    ...@    DCD    1073877004
        0x0001f154:    00000008    ....    DCD    8
        0x0001f158:    40021010    ...@    DCD    1073877008
        0x0001f15c:    000000ff    ....    DCD    255
        0x0001f160:    4002100c    ...@    DCD    1073877004
        0x0001f164:    00000010    ....    DCD    16
        0x0001f168:    40021010    ...@    DCD    1073877008
        0x0001f16c:    000000ff    ....    DCD    255
        0x0001f170:    4002100c    ...@    DCD    1073877004
        0x0001f174:    00000020     ...    DCD    32
        0x0001f178:    40021010    ...@    DCD    1073877008
        0x0001f17c:    000000ff    ....    DCD    255
        0x0001f180:    4002100c    ...@    DCD    1073877004
        0x0001f184:    00000040    @...    DCD    64
        0x0001f188:    40021010    ...@    DCD    1073877008
        0x0001f18c:    000000ff    ....    DCD    255
        0x0001f190:    4002100c    ...@    DCD    1073877004
        0x0001f194:    00000080    ....    DCD    128
        0x0001f198:    40021010    ...@    DCD    1073877008
        0x0001f19c:    000000ff    ....    DCD    255
        0x0001f1a0:    4002100c    ...@    DCD    1073877004
        0x0001f1a4:    00000400    ....    DCD    1024
        0x0001f1a8:    40021010    ...@    DCD    1073877008
        0x0001f1ac:    00000400    ....    DCD    1024
    aps12808l_sConfigArray
        0x0001f1b0:    00000006    ....    DCD    6
        0x0001f1b4:    00000000    ....    DCD    0
        0x0001f1b8:    00000001    ....    DCD    1
        0x0001f1bc:    00000000    ....    DCD    0
        0x0001f1c0:    00000006    ....    DCD    6
        0x0001f1c4:    00000001    ....    DCD    1
        0x0001f1c8:    00000001    ....    DCD    1
        0x0001f1cc:    00000000    ....    DCD    0
        0x0001f1d0:    00000007    ....    DCD    7
        0x0001f1d4:    00000000    ....    DCD    0
        0x0001f1d8:    00000001    ....    DCD    1
        0x0001f1dc:    00000000    ....    DCD    0
        0x0001f1e0:    00000007    ....    DCD    7
        0x0001f1e4:    00000001    ....    DCD    1
        0x0001f1e8:    00000001    ....    DCD    1
        0x0001f1ec:    00000000    ....    DCD    0
        0x0001f1f0:    00000008    ....    DCD    8
        0x0001f1f4:    00000000    ....    DCD    0
        0x0001f1f8:    00000001    ....    DCD    1
        0x0001f1fc:    00000000    ....    DCD    0
        0x0001f200:    00000008    ....    DCD    8
        0x0001f204:    00000001    ....    DCD    1
        0x0001f208:    00000001    ....    DCD    1
        0x0001f20c:    00000000    ....    DCD    0
        0x0001f210:    00000009    ....    DCD    9
        0x0001f214:    00000000    ....    DCD    0
        0x0001f218:    00000001    ....    DCD    1
        0x0001f21c:    00000000    ....    DCD    0
        0x0001f220:    00000009    ....    DCD    9
        0x0001f224:    00000001    ....    DCD    1
        0x0001f228:    00000001    ....    DCD    1
        0x0001f22c:    00000000    ....    DCD    0
        0x0001f230:    0000000a    ....    DCD    10
        0x0001f234:    00000000    ....    DCD    0
        0x0001f238:    00000001    ....    DCD    1
        0x0001f23c:    00000000    ....    DCD    0
        0x0001f240:    0000000a    ....    DCD    10
        0x0001f244:    00000001    ....    DCD    1
        0x0001f248:    00000001    ....    DCD    1
        0x0001f24c:    00000000    ....    DCD    0
        0x0001f250:    0000000b    ....    DCD    11
        0x0001f254:    00000000    ....    DCD    0
        0x0001f258:    00000001    ....    DCD    1
        0x0001f25c:    00000000    ....    DCD    0
        0x0001f260:    0000000b    ....    DCD    11
        0x0001f264:    00000001    ....    DCD    1
        0x0001f268:    00000001    ....    DCD    1
        0x0001f26c:    00000000    ....    DCD    0
        0x0001f270:    0000000c    ....    DCD    12
        0x0001f274:    00000000    ....    DCD    0
        0x0001f278:    00000001    ....    DCD    1
        0x0001f27c:    00000000    ....    DCD    0
        0x0001f280:    0000000c    ....    DCD    12
        0x0001f284:    00000001    ....    DCD    1
        0x0001f288:    00000001    ....    DCD    1
        0x0001f28c:    00000000    ....    DCD    0
        0x0001f290:    0000000d    ....    DCD    13
        0x0001f294:    00000000    ....    DCD    0
        0x0001f298:    00000001    ....    DCD    1
        0x0001f29c:    00000000    ....    DCD    0
        0x0001f2a0:    0000000d    ....    DCD    13
        0x0001f2a4:    00000001    ....    DCD    1
        0x0001f2a8:    00000001    ....    DCD    1
        0x0001f2ac:    00000000    ....    DCD    0
    gAmHalCmdQReg
        0x0001f2b0:    40050228    (..@    DCD    1074070056
        0x0001f2b4:    4005022c    ,..@    DCD    1074070060
        0x0001f2b8:    40050240    @..@    DCD    1074070080
        0x0001f2bc:    40050244    D..@    DCD    1074070084
        0x0001f2c0:    4005023c    <..@    DCD    1074070076
        0x0001f2c4:    00008000    ....    DCD    32768
        0x0001f2c8:    40050230    0..@    DCD    1074070064
        0x0001f2cc:    00000001    ....    DCD    1
        0x0001f2d0:    00000004    ....    DCD    4
        0x0001f2d4:    00000002    ....    DCD    2
        0x0001f2d8:    40051228    (..@    DCD    1074074152
        0x0001f2dc:    4005122c    ,..@    DCD    1074074156
        0x0001f2e0:    40051240    @..@    DCD    1074074176
        0x0001f2e4:    40051244    D..@    DCD    1074074180
        0x0001f2e8:    4005123c    <..@    DCD    1074074172
        0x0001f2ec:    00008000    ....    DCD    32768
        0x0001f2f0:    40051230    0..@    DCD    1074074160
        0x0001f2f4:    00000001    ....    DCD    1
        0x0001f2f8:    00000004    ....    DCD    4
        0x0001f2fc:    00000002    ....    DCD    2
        0x0001f300:    40052228    (".@    DCD    1074078248
        0x0001f304:    4005222c    ,".@    DCD    1074078252
        0x0001f308:    40052240    @".@    DCD    1074078272
        0x0001f30c:    40052244    D".@    DCD    1074078276
        0x0001f310:    4005223c    <".@    DCD    1074078268
        0x0001f314:    00008000    ....    DCD    32768
        0x0001f318:    40052230    0".@    DCD    1074078256
        0x0001f31c:    00000001    ....    DCD    1
        0x0001f320:    00000004    ....    DCD    4
        0x0001f324:    00000002    ....    DCD    2
        0x0001f328:    40053228    (2.@    DCD    1074082344
        0x0001f32c:    4005322c    ,2.@    DCD    1074082348
        0x0001f330:    40053240    @2.@    DCD    1074082368
        0x0001f334:    40053244    D2.@    DCD    1074082372
        0x0001f338:    4005323c    <2.@    DCD    1074082364
        0x0001f33c:    00008000    ....    DCD    32768
        0x0001f340:    40053230    02.@    DCD    1074082352
        0x0001f344:    00000001    ....    DCD    1
        0x0001f348:    00000004    ....    DCD    4
        0x0001f34c:    00000002    ....    DCD    2
        0x0001f350:    40054228    (B.@    DCD    1074086440
        0x0001f354:    4005422c    ,B.@    DCD    1074086444
        0x0001f358:    40054240    @B.@    DCD    1074086464
        0x0001f35c:    40054244    DB.@    DCD    1074086468
        0x0001f360:    4005423c    <B.@    DCD    1074086460
        0x0001f364:    00008000    ....    DCD    32768
        0x0001f368:    40054230    0B.@    DCD    1074086448
        0x0001f36c:    00000001    ....    DCD    1
        0x0001f370:    00000004    ....    DCD    4
        0x0001f374:    00000002    ....    DCD    2
        0x0001f378:    40055228    (R.@    DCD    1074090536
        0x0001f37c:    4005522c    ,R.@    DCD    1074090540
        0x0001f380:    40055240    @R.@    DCD    1074090560
        0x0001f384:    40055244    DR.@    DCD    1074090564
        0x0001f388:    4005523c    <R.@    DCD    1074090556
        0x0001f38c:    00008000    ....    DCD    32768
        0x0001f390:    40055230    0R.@    DCD    1074090544
        0x0001f394:    00000001    ....    DCD    1
        0x0001f398:    00000004    ....    DCD    4
        0x0001f39c:    00000002    ....    DCD    2
        0x0001f3a0:    40056228    (b.@    DCD    1074094632
        0x0001f3a4:    4005622c    ,b.@    DCD    1074094636
        0x0001f3a8:    40056240    @b.@    DCD    1074094656
        0x0001f3ac:    40056244    Db.@    DCD    1074094660
        0x0001f3b0:    4005623c    <b.@    DCD    1074094652
        0x0001f3b4:    00008000    ....    DCD    32768
        0x0001f3b8:    40056230    0b.@    DCD    1074094640
        0x0001f3bc:    00000001    ....    DCD    1
        0x0001f3c0:    00000004    ....    DCD    4
        0x0001f3c4:    00000002    ....    DCD    2
        0x0001f3c8:    40057228    (r.@    DCD    1074098728
        0x0001f3cc:    4005722c    ,r.@    DCD    1074098732
        0x0001f3d0:    40057240    @r.@    DCD    1074098752
        0x0001f3d4:    40057244    Dr.@    DCD    1074098756
        0x0001f3d8:    4005723c    <r.@    DCD    1074098748
        0x0001f3dc:    00008000    ....    DCD    32768
        0x0001f3e0:    40057230    0r.@    DCD    1074098736
        0x0001f3e4:    00000001    ....    DCD    1
        0x0001f3e8:    00000004    ....    DCD    4
        0x0001f3ec:    00000002    ....    DCD    2
        0x0001f3f0:    400602a0    ...@    DCD    1074135712
        0x0001f3f4:    400602a8    ...@    DCD    1074135720
        0x0001f3f8:    400602c0    ...@    DCD    1074135744
        0x0001f3fc:    400602c4    ...@    DCD    1074135748
        0x0001f400:    400602b8    ...@    DCD    1074135736
        0x0001f404:    00004000    .@..    DCD    16384
        0x0001f408:    400602ac    ...@    DCD    1074135724
        0x0001f40c:    00000001    ....    DCD    1
        0x0001f410:    00000004    ....    DCD    4
        0x0001f414:    00000008    ....    DCD    8
        0x0001f418:    400612a0    ...@    DCD    1074139808
        0x0001f41c:    400612a8    ...@    DCD    1074139816
        0x0001f420:    400612c0    ...@    DCD    1074139840
        0x0001f424:    400612c4    ...@    DCD    1074139844
        0x0001f428:    400612b8    ...@    DCD    1074139832
        0x0001f42c:    00004000    .@..    DCD    16384
        0x0001f430:    400612ac    ...@    DCD    1074139820
        0x0001f434:    00000001    ....    DCD    1
        0x0001f438:    00000004    ....    DCD    4
        0x0001f43c:    00000008    ....    DCD    8
        0x0001f440:    400622a0    .".@    DCD    1074143904
        0x0001f444:    400622a8    .".@    DCD    1074143912
        0x0001f448:    400622c0    .".@    DCD    1074143936
        0x0001f44c:    400622c4    .".@    DCD    1074143940
        0x0001f450:    400622b8    .".@    DCD    1074143928
        0x0001f454:    00004000    .@..    DCD    16384
        0x0001f458:    400622ac    .".@    DCD    1074143916
        0x0001f45c:    00000001    ....    DCD    1
        0x0001f460:    00000004    ....    DCD    4
        0x0001f464:    00000008    ....    DCD    8
    gAxiMemRange
        0x0001f468:    10060000    ....    DCD    268828672
        0x0001f46c:    00080000    ....    DCD    524288
        0x0001f470:    40021028    (..@    DCD    1073877032
        0x0001f474:    00000001    ....    DCD    1
        0x0001f478:    100e0000    ....    DCD    269352960
        0x0001f47c:    00080000    ....    DCD    524288
        0x0001f480:    40021028    (..@    DCD    1073877032
        0x0001f484:    00000002    ....    DCD    2
        0x0001f488:    10160000    ....    DCD    269877248
        0x0001f48c:    00020000    ....    DCD    131072
        0x0001f490:    4002105c    \..@    DCD    1073877084
        0x0001f494:    00000002    ....    DCD    2
        0x0001f498:    10180000    ....    DCD    270008320
        0x0001f49c:    00040000    ....    DCD    262144
        0x0001f4a0:    4002105c    \..@    DCD    1073877084
        0x0001f4a4:    00000001    ....    DCD    1
        0x0001f4a8:    101d0000    ....    DCD    270336000
        0x0001f4ac:    00008000    ....    DCD    32768
        0x0001f4b0:    4002107c    |..@    DCD    1073877116
        0x0001f4b4:    00000002    ....    DCD    2
        0x0001f4b8:    101c0000    ....    DCD    270270464
        0x0001f4bc:    00010000    ....    DCD    65536
        0x0001f4c0:    4002107c    |..@    DCD    1073877116
        0x0001f4c4:    00000001    ....    DCD    1
    g_DefaultMcuMemCfg
        0x0001f4c8:    07070102    ....    DCD    117899522
        0x0001f4cc:    0001        ..      DCW    1
    g_DefaultSRAMCfg
        0x0001f4ce:    0003        ..      DCW    3
        0x0001f4d0:    03000000    ....    DCD    50331648
    g_am_hal_bootrom_helper
        0x0001f4d4:    0800004d    M...    DCD    134217805
        0x0001f4d8:    08000051    Q...    DCD    134217809
        0x0001f4dc:    08000055    U...    DCD    134217813
        0x0001f4e0:    08000059    Y...    DCD    134217817
        0x0001f4e4:    0800006d    m...    DCD    134217837
        0x0001f4e8:    08000075    u...    DCD    134217845
        0x0001f4ec:    08000079    y...    DCD    134217849
        0x0001f4f0:    08000081    ....    DCD    134217857
        0x0001f4f4:    08000099    ....    DCD    134217881
        0x0001f4f8:    0800009d    ....    DCD    134217885
    mspi_interrupts
        0x0001f4fc:    00161514    ....    DCD    1447188
    __tagsym$$used.7
    sGlobalAccess
        0x0001f500:    0001fc28    (...    DCD    130088
        0x0001f504:    0001fc08    ....    DCD    130056
        0x0001f508:    0001fbe0    ....    DCD    130016
        0x0001f50c:    0001fbf4    ....    DCD    130036
        0x0001f510:    10060004    ....    DCD    268828676
        0x0001f514:    10060018    ....    DCD    268828696
        0x0001f518:    1006002c    ,...    DCD    268828716
    .L.str
        0x0001f51c:    6c6f7041    Apol    DCD    1819242561
        0x0001f520:    20346f6c    lo4     DCD    540307308
        0x0001f524:    4950534d    MSPI    DCD    1230000973
        0x0001f528:    52444420     DDR    DCD    1380205600
        0x0001f52c:    52535020     PSR    DCD    1381191712
        0x0001f530:    4c204d41    AM L    DCD    1277185345
        0x0001f534:    6564616f    oade    DCD    1701077359
        0x0001f538:    78452072    r Ex    DCD    2017796210
        0x0001f53c:    6c706d61    ampl    DCD    1819307361
        0x0001f540:    000a0a65    e...    DCD    658021
    .L.str.9
        0x0001f544:    6c696146    Fail    DCD    1818845510
        0x0001f548:    74206465    ed t    DCD    1948279909
        0x0001f54c:    6964206f    o di    DCD    1768169583
        0x0001f550:    6c626173    sabl    DCD    1818386803
        0x0001f554:    49582065    e XI    DCD    1230512229
        0x0001f558:    6f6d2050    P mo    DCD    1869422672
        0x0001f55c:    69206564    de i    DCD    1763730788
        0x0001f560:    6874206e    n th    DCD    1752440942
        0x0001f564:    534d2065    e MS    DCD    1397563493
        0x0001f568:    0a214950    PI!.    DCD    169953616
        0x0001f56c:    00          .       DCB    0
    .L.str.14
        0x0001f56d:    566572      Ver     DCB    86,101,114
        0x0001f570:    69796669    ifyi    DCD    1769563753
        0x0001f574:    6920676e    ng i    DCD    1763731310
        0x0001f578:    6567616d    mage    DCD    1701273965
        0x0001f57c:    206e6920     in     DCD    544106784
        0x0001f580:    65747845    Exte    DCD    1702131781
        0x0001f584:    6c616e72    rnal    DCD    1818324594
        0x0001f588:    52535020     PSR    DCD    1381191712
        0x0001f58c:    44204d41    AM D    DCD    1142967617
        0x0001f590:    63697665    evic    DCD    1667855973
        0x0001f594:    000a2165    e!..    DCD    663909
    .L.str.12
        0x0001f598:    74697257    Writ    DCD    1953067607
        0x0001f59c:    20676e69    ing     DCD    543649385
        0x0001f5a0:    67616d69    imag    DCD    1734438249
        0x0001f5a4:    6f742065    e to    DCD    1869881445
        0x0001f5a8:    74784520     Ext    DCD    1954039072
        0x0001f5ac:    616e7265    erna    DCD    1634628197
        0x0001f5b0:    5350206c    l PS    DCD    1397760108
        0x0001f5b4:    204d4152    RAM     DCD    541933906
        0x0001f5b8:    69766544    Devi    DCD    1769366852
        0x0001f5bc:    0a216563    ce!.    DCD    169960803
        0x0001f5c0:    00          .       DCB    0
    .L.str.15
        0x0001f5c1:    466169      Fai     DCB    70,97,105
        0x0001f5c4:    2064656c    led     DCD    543450476
        0x0001f5c8:    72206f74    to r    DCD    1914728308
        0x0001f5cc:    20646165    ead     DCD    543449445
        0x0001f5d0:    66667562    buff    DCD    1717990754
        0x0001f5d4:    74207265    er t    DCD    1948283493
        0x0001f5d8:    5350206f    o PS    DCD    1397760111
        0x0001f5dc:    204d4152    RAM     DCD    541933906
        0x0001f5e0:    69766544    Devi    DCD    1769366852
        0x0001f5e4:    0a216563    ce!.    DCD    169960803
        0x0001f5e8:    00          .       DCB    0
    .L.str.13
        0x0001f5e9:    466169      Fai     DCB    70,97,105
        0x0001f5ec:    2064656c    led     DCD    543450476
        0x0001f5f0:    77206f74    to w    DCD    1998614388
        0x0001f5f4:    65746972    rite    DCD    1702127986
        0x0001f5f8:    66756220     buf    DCD    1718968864
        0x0001f5fc:    20726566    fer     DCD    544367974
        0x0001f600:    50206f74    to P    DCD    1344302964
        0x0001f604:    4d415253    SRAM    DCD    1296126547
        0x0001f608:    76654420     Dev    DCD    1986348064
        0x0001f60c:    21656369    ice!    DCD    560292713
        0x0001f610:    000a        ..      DCW    10
    .L.str.18
        0x0001f612:    6146        Fa      DCW    24902
        0x0001f614:    64656c69    iled    DCD    1684368489
        0x0001f618:    206f7420     to     DCD    544175136
        0x0001f61c:    20747570    put     DCD    544503152
        0x0001f620:    20656874    the     DCD    543516788
        0x0001f624:    4950534d    MSPI    DCD    1230000973
        0x0001f628:    746e6920     int    DCD    1953392928
        0x0001f62c:    4958206f    o XI    DCD    1230512239
        0x0001f630:    6f6d2050    P mo    DCD    1869422672
        0x0001f634:    0a216564    de!.    DCD    169960804
        0x0001f638:    00          .       DCB    0
    .L.str.11
        0x0001f639:    466169      Fai     DCB    70,97,105
        0x0001f63c:    2064656c    led     DCD    543450476
        0x0001f640:    65206f74    to e    DCD    1696624500
        0x0001f644:    6c62616e    nabl    DCD    1818386798
        0x0001f648:    534d2065    e MS    DCD    1397563493
        0x0001f64c:    73204950    PI s    DCD    1931495760
        0x0001f650:    6d617263    cram    DCD    1835102819
        0x0001f654:    6e696c62    blin    DCD    1852402786
        0x0001f658:    000a2167    g!..    DCD    663911
    .L.str.16
        0x0001f65c:    61205854    TX a    DCD    1629509716
        0x0001f660:    5220646e    nd R    DCD    1377854574
        0x0001f664:    75622058    X bu    DCD    1969365080
        0x0001f668:    72656666    ffer    DCD    1919247974
        0x0001f66c:    61662073    s fa    DCD    1634082931
        0x0001f670:    64656c69    iled    DCD    1684368489
        0x0001f674:    206f7420     to     DCD    544175136
        0x0001f678:    706d6f63    comp    DCD    1886220131
        0x0001f67c:    20657261    are     DCD    543519329
        0x0001f680:    6f207461    at o    DCD    1864397921
        0x0001f684:    65736666    ffse    DCD    1702061670
        0x0001f688:    78302074    t 0x    DCD    2016419956
        0x0001f68c:    2d207825    %x -    DCD    757102629
        0x0001f690:    70784520     Exp    DCD    1886930208
        0x0001f694:    65746365    ecte    DCD    1702126437
        0x0001f698:    78302064    d 0x    DCD    2016419940
        0x0001f69c:    41207825    %x A    DCD    1092646949
        0x0001f6a0:    61757463    ctua    DCD    1635087459
        0x0001f6a4:    7830206c    l 0x    DCD    2016419948
        0x0001f6a8:    0a217825    %x!.    DCD    169965605
        0x0001f6ac:    00          .       DCB    0
    .L.str.8
        0x0001f6ad:    466169      Fai     DCB    70,97,105
        0x0001f6b0:    2064656c    led     DCD    543450476
        0x0001f6b4:    63206f74    to c    DCD    1663070068
        0x0001f6b8:    69666e6f    onfi    DCD    1768320623
        0x0001f6bc:    65727567    gure    DCD    1701999975
        0x0001f6c0:    65687420     the    DCD    1701344288
        0x0001f6c4:    50534d20     MSP    DCD    1347636512
        0x0001f6c8:    6e612049    I an    DCD    1851859017
        0x0001f6cc:    53502064    d PS    DCD    1397760100
        0x0001f6d0:    204d4152    RAM     DCD    541933906
        0x0001f6d4:    69766544    Devi    DCD    1769366852
        0x0001f6d8:    63206563    ce c    DCD    1663067491
        0x0001f6dc:    6572726f    orre    DCD    1701999215
        0x0001f6e0:    796c7463    ctly    DCD    2037150819
        0x0001f6e4:    0a21        !.      DCW    2593
        0x0001f6e6:    00          .       DCB    0
    .L.str.19
        0x0001f6e7:    4a          J       DCB    74
        0x0001f6e8:    69706d75    umpi    DCD    1768975733
        0x0001f6ec:    7420676e    ng t    DCD    1948280686
        0x0001f6f0:    6572206f    o re    DCD    1701978223
        0x0001f6f4:    61636f6c    loca    DCD    1633906540
        0x0001f6f8:    20646574    ted     DCD    543450484
        0x0001f6fc:    67616d69    imag    DCD    1734438249
        0x0001f700:    6e692065    e in    DCD    1852383333
        0x0001f704:    50534d20     MSP    DCD    1347636512
        0x0001f708:    53502049    I PS    DCD    1397760073
        0x0001f70c:    0a4d4152    RAM.    DCD    172835154
        0x0001f710:    00          .       DCB    0
    .L.str.20
        0x0001f711:    4d5350      MSP     DCB    77,83,80
        0x0001f714:    44442049    I DD    DCD    1145315401
        0x0001f718:    53502052    R PS    DCD    1397760082
        0x0001f71c:    204d4152    RAM     DCD    541933906
        0x0001f720:    64616f4c    Load    DCD    1684107084
        0x0001f724:    000a6465    ed..    DCD    681061
    .L.str.1
        0x0001f728:    696c6156    Vali    DCD    1768710486
        0x0001f72c:    61502064    d Pa    DCD    1632641124
        0x0001f730:    65686374    tche    DCD    1701340020
        0x0001f734:    6e692064    d in    DCD    1852383332
        0x0001f738:    6d726f66    form    DCD    1836216166
        0x0001f73c:    6f697461    atio    DCD    1869182049
        0x0001f740:    6f66206e    n fo    DCD    1868963950
        0x0001f744:    0a646e75    und.    DCD    174354037
        0x0001f748:    00          .       DCB    0
    .L.str.17
        0x0001f749:    507574      Put     DCB    80,117,116
        0x0001f74c:    676e6974    ting    DCD    1735289204
        0x0001f750:    65687420     the    DCD    1701344288
        0x0001f754:    50534d20     MSP    DCD    1347636512
        0x0001f758:    6e612049    I an    DCD    1851859017
        0x0001f75c:    78452064    d Ex    DCD    2017796196
        0x0001f760:    6e726574    tern    DCD    1852990836
        0x0001f764:    50206c61    al P    DCD    1344302177
        0x0001f768:    4d415253    SRAM    DCD    1296126547
        0x0001f76c:    746e6920     int    DCD    1953392928
        0x0001f770:    4958206f    o XI    DCD    1230512239
        0x0001f774:    6f6d2050    P mo    DCD    1869422672
        0x0001f778:    000a6564    de..    DCD    681316
    .L.str.10
        0x0001f77c:    74747550    Putt    DCD    1953789264
        0x0001f780:    20676e69    ing     DCD    543649385
        0x0001f784:    20656874    the     DCD    543516788
        0x0001f788:    4950534d    MSPI    DCD    1230000973
        0x0001f78c:    746e6920     int    DCD    1953392928
        0x0001f790:    6353206f    o Sc    DCD    1666392175
        0x0001f794:    626d6172    ramb    DCD    1651335538
        0x0001f798:    676e696c    ling    DCD    1735289196
        0x0001f79c:    646f6d20     mod    DCD    1685024032
        0x0001f7a0:    0a65        e.      DCW    2661
        0x0001f7a2:    00          .       DCB    0
    .L.str.5
        0x0001f7a3:    53          S       DCB    83
        0x0001f7a4:    6d617263    cram    DCD    1835102819
        0x0001f7a8:    6e696c62    blin    DCD    1852402786
        0x0001f7ac:    73692067    g is    DCD    1936269415
        0x0001f7b0:    0a732520     %s.    DCD    175318304
        0x0001f7b4:    00          .       DCB    0
    .L.str.3
        0x0001f7b5:    42696e      Bin     DCB    66,105,110
        0x0001f7b8:    736e4920     Ins    DCD    1936607520
        0x0001f7bc:    6c6c6174    tall    DCD    1819042164
        0x0001f7c0:    64644120     Add    DCD    1684291872
        0x0001f7c4:    73736572    ress    DCD    1936942450
        0x0001f7c8:    206e6920     in     DCD    544106784
        0x0001f7cc:    65747865    exte    DCD    1702131813
        0x0001f7d0:    6c616e72    rnal    DCD    1818324594
        0x0001f7d4:    52535020     PSR    DCD    1381191712
        0x0001f7d8:    3d204d41    AM =    DCD    1025527105
        0x0001f7dc:    25783020     0x%    DCD    628633632
        0x0001f7e0:    0a78        x.      DCW    2680
        0x0001f7e2:    00          .       DCB    0
    .L.str.4
        0x0001f7e3:    42          B       DCB    66
        0x0001f7e4:    53206e69    in S    DCD    1394634345
        0x0001f7e8:    20657a69    ize     DCD    543521385
        0x0001f7ec:    7830203d    = 0x    DCD    2016419901
        0x0001f7f0:    000a7825    %x..    DCD    686117
    .L.str.2
        0x0001f7f4:    206e6942    Bin     DCD    544106818
        0x0001f7f8:    72646441    Addr    DCD    1919181889
        0x0001f7fc:    20737365    ess     DCD    544437093
        0x0001f800:    69206e69    in i    DCD    1763733097
        0x0001f804:    7265746e    nter    DCD    1919251566
        0x0001f808:    206c616e    nal     DCD    543973742
        0x0001f80c:    73616c66    flas    DCD    1935764582
        0x0001f810:    203d2068    h =     DCD    540876904
        0x0001f814:    78257830    0x%x    DCD    2015721520
        0x0001f818:    000a        ..      DCW    10
    .L.str.6
        0x0001f81a:    6e45        En      DCW    28229
        0x0001f81c:    656c6261    able    DCD    1701601889
        0x0001f820:    0064        d.      DCW    100
    .L.str.7
        0x0001f822:    6944        Di      DCW    26948
        0x0001f824:    6c626173    sabl    DCD    1818386803
        0x0001f828:    6465        ed      DCW    25701
        0x0001f82a:    00          .       DCB    0
    .L.str.1
        0x0001f82b:    20                  DCB    32
        0x0001f82c:    49202020       I    DCD    1226842144
        0x0001f830:    6c61766e    nval    DCD    1818326638
        0x0001f834:    53206469    id S    DCD    1394631785
        0x0001f838:    68772050    P wh    DCD    1752637520
        0x0001f83c:    48206e65    en H    DCD    1210084965
        0x0001f840:    20647261    ard     DCD    543453793
        0x0001f844:    6c756146    Faul    DCD    1819631942
        0x0001f848:    636f2074    t oc    DCD    1668227188
        0x0001f84c:    65727563    cure    DCD    1701999971
        0x0001f850:    30203a64    d: 0    DCD    807418468
        0x0001f854:    38302578    x%08    DCD    942679416
        0x0001f858:    6e282058    X (n    DCD    1848123480
        0x0001f85c:    7453206f    o St    DCD    1951604847
        0x0001f860:    656b6361    acke    DCD    1701536609
        0x0001f864:    61642064    d da    DCD    1633951844
        0x0001f868:    0a296174    ta).    DCD    170484084
        0x0001f86c:    000a        ..      DCW    10
    .L.str.29
        0x0001f86e:    0a0a        ..      DCW    2570
        0x0001f870:    656e6f44    Done    DCD    1701736260
        0x0001f874:    74697720     wit    DCD    1953068832
        0x0001f878:    756f2068    h ou    DCD    1970217064
        0x0001f87c:    74757074    tput    DCD    1953853556
        0x0001f880:    6e45202e    . En    DCD    1850023982
        0x0001f884:    69726574    teri    DCD    1769104756
        0x0001f888:    6920676e    ng i    DCD    1763731310
        0x0001f88c:    6e69666e    nfin    DCD    1852401262
        0x0001f890:    20657469    ite     DCD    543519849
        0x0001f894:    706f6f6c    loop    DCD    1886351212
        0x0001f898:    000a0a2e    ....    DCD    657966
    .L.str
        0x0001f89c:    48202a2a    ** H    DCD    1210067498
        0x0001f8a0:    20647261    ard     DCD    543453793
        0x0001f8a4:    6c756146    Faul    DCD    1819631942
        0x0001f8a8:    634f2074    t Oc    DCD    1666130036
        0x0001f8ac:    72727563    curr    DCD    1920103779
        0x0001f8b0:    0a3a6465    ed:.    DCD    171598949
        0x0001f8b4:    000a        ..      DCW    10
    .L.str.10
        0x0001f8b6:    2020                DCW    8224
        0x0001f8b8:    53502020      PS    DCD    1397760032
        0x0001f8bc:    203d2052    R =     DCD    540876882
        0x0001f8c0:    30257830    0x%0    DCD    807761968
        0x0001f8c4:    0a0a5838    8X..    DCD    168450104
        0x0001f8c8:    00          .       DCB    0
    .L.str.2
        0x0001f8c9:    486172      Har     DCB    72,97,114
        0x0001f8cc:    61462064    d Fa    DCD    1631985764
        0x0001f8d0:    20746c75    ult     DCD    544500853
        0x0001f8d4:    63617473    stac    DCD    1667331187
        0x0001f8d8:    2064656b    ked     DCD    543450475
        0x0001f8dc:    61746164    data    DCD    1635017060
        0x0001f8e0:    0a3a        :.      DCW    2618
        0x0001f8e2:    00          .       DCB    0
    .L.str.25
        0x0001f8e3:    0a          .       DCB    10
        0x0001f8e4:    2055434d    MCU     DCD    542458701
        0x0001f8e8:    6c756146    Faul    DCD    1819631942
        0x0001f8ec:    61642074    t da    DCD    1633951860
        0x0001f8f0:    0a3a6174    ta:.    DCD    171598196
        0x0001f8f4:    00          .       DCB    0
    .L.str.11
        0x0001f8f5:    4f7468      Oth     DCB    79,116,104
        0x0001f8f8:    48207265    er H    DCD    1210085989
        0x0001f8fc:    20647261    ard     DCD    543453793
        0x0001f900:    6c756146    Faul    DCD    1819631942
        0x0001f904:    61642074    t da    DCD    1633951860
        0x0001f908:    0a3a6174    ta:.    DCD    171598196
        0x0001f90c:    00          .       DCB    0
    .L.str.18
        0x0001f90d:    202020              DCB    32,32,32
        0x0001f910:    20202020            DCD    538976288
        0x0001f914:    53464220     BFS    DCD    1397113376
        0x0001f918:    69622052    R bi    DCD    1768038482
        0x0001f91c:    203a3674    t6:     DCD    540685940
        0x0001f920:    45534552    RESE    DCD    1163085138
        0x0001f924:    44455652    RVED    DCD    1145394770
        0x0001f928:    000a        ..      DCW    10
    .L.str.17
        0x0001f92a:    2020                DCW    8224
        0x0001f92c:    20202020            DCD    538976288
        0x0001f930:    46422020      BF    DCD    1178738720
        0x0001f934:    62205253    SR b    DCD    1646285395
        0x0001f938:    3a377469    it7:    DCD    976712809
        0x0001f93c:    41464220     BFA    DCD    1095123488
        0x0001f940:    4c415652    RVAL    DCD    1279350354
        0x0001f944:    000a4449    ID..    DCD    672841
    .L.str.23
        0x0001f948:    20202020            DCD    538976288
        0x0001f94c:    20202020            DCD    538976288
        0x0001f950:    52534642    BFSR    DCD    1381189186
        0x0001f954:    74696220     bit    DCD    1953063456
        0x0001f958:    50203a31    1: P    DCD    1344289329
        0x0001f95c:    49434552    RECI    DCD    1229145426
        0x0001f960:    52454553    SEER    DCD    1380271443
        0x0001f964:    0a52        R.      DCW    2642
        0x0001f966:    00          .       DCB    0
    .L.str.20
        0x0001f967:    20                  DCB    32
        0x0001f968:    20202020            DCD    538976288
        0x0001f96c:    42202020       B    DCD    1109401632
        0x0001f970:    20525346    FSR     DCD    542266182
        0x0001f974:    34746962    bit4    DCD    880044386
        0x0001f978:    5453203a    : ST    DCD    1414733882
        0x0001f97c:    5252454b    KERR    DCD    1381123403
        0x0001f980:    000a        ..      DCW    10
    .L.str.21
        0x0001f982:    2020                DCW    8224
        0x0001f984:    20202020            DCD    538976288
        0x0001f988:    46422020      BF    DCD    1178738720
        0x0001f98c:    62205253    SR b    DCD    1646285395
        0x0001f990:    3a337469    it3:    DCD    976450665
        0x0001f994:    534e5520     UNS    DCD    1397642528
        0x0001f998:    52454b54    TKER    DCD    1380272980
        0x0001f99c:    0a52        R.      DCW    2642
        0x0001f99e:    00          .       DCB    0
    .L.str.19
        0x0001f99f:    20                  DCB    32
        0x0001f9a0:    20202020            DCD    538976288
        0x0001f9a4:    42202020       B    DCD    1109401632
        0x0001f9a8:    20525346    FSR     DCD    542266182
        0x0001f9ac:    35746962    bit5    DCD    896821602
        0x0001f9b0:    534c203a    : LS    DCD    1397497914
        0x0001f9b4:    52524550    PERR    DCD    1381123408
        0x0001f9b8:    000a        ..      DCW    10
    .L.str.22
        0x0001f9ba:    2020                DCW    8224
        0x0001f9bc:    20202020            DCD    538976288
        0x0001f9c0:    46422020      BF    DCD    1178738720
        0x0001f9c4:    62205253    SR b    DCD    1646285395
        0x0001f9c8:    3a327469    it2:    DCD    976385129
        0x0001f9cc:    504d4920     IMP    DCD    1347242272
        0x0001f9d0:    49434552    RECI    DCD    1229145426
        0x0001f9d4:    52524553    SERR    DCD    1381123411
        0x0001f9d8:    000a        ..      DCW    10
    .L.str.24
        0x0001f9da:    2020                DCW    8224
        0x0001f9dc:    20202020            DCD    538976288
        0x0001f9e0:    46422020      BF    DCD    1178738720
        0x0001f9e4:    62205253    SR b    DCD    1646285395
        0x0001f9e8:    3a307469    it0:    DCD    976254057
        0x0001f9ec:    55424920     IBU    DCD    1430407456
        0x0001f9f0:    52524553    SERR    DCD    1381123411
        0x0001f9f4:    000a        ..      DCW    10
    .L.str.16
        0x0001f9f6:    2020                DCW    8224
        0x0001f9f8:    46422020      BF    DCD    1178738720
        0x0001f9fc:    28205253    SR (    DCD    673206867
        0x0001fa00:    20737542    Bus     DCD    544437570
        0x0001fa04:    6c756146    Faul    DCD    1819631942
        0x0001fa08:    74532074    t St    DCD    1951604852
        0x0001fa0c:    73757461    atus    DCD    1937077345
        0x0001fa10:    67655220     Reg    DCD    1734693408
        0x0001fa14:    203d2029    ) =     DCD    540876841
        0x0001fa18:    30257830    0x%0    DCD    807761968
        0x0001fa1c:    000a5832    2X..    DCD    677938
    .L.str.14
        0x0001fa20:    20202020            DCD    538976288
        0x0001fa24:    52534d4d    MMSR    DCD    1381190989
        0x0001fa28:    654d2820     (Me    DCD    1699555360
        0x0001fa2c:    674d206d    m Mg    DCD    1733107821
        0x0001fa30:    4620746d    mt F    DCD    1176532077
        0x0001fa34:    746c7561    ault    DCD    1953264993
        0x0001fa38:    61745320     Sta    DCD    1635013408
        0x0001fa3c:    20737574    tus     DCD    544437620
        0x0001fa40:    29676552    Reg)    DCD    694642002
        0x0001fa44:    30203d20     = 0    DCD    807419168
        0x0001fa48:    32302578    x%02    DCD    842016120
        0x0001fa4c:    0a58        X.      DCW    2648
        0x0001fa4e:    00          .       DCB    0
    .L.str.15
        0x0001fa4f:    20                  DCB    32
        0x0001fa50:    55202020       U    DCD    1428168736
        0x0001fa54:    20525346    FSR     DCD    542266182
        0x0001fa58:    61735528    (Usa    DCD    1634948392
        0x0001fa5c:    46206567    ge F    DCD    1176528231
        0x0001fa60:    746c7561    ault    DCD    1953264993
        0x0001fa64:    61745320     Sta    DCD    1635013408
        0x0001fa68:    20737574    tus     DCD    544437620
        0x0001fa6c:    29676552    Reg)    DCD    694642002
        0x0001fa70:    30203d20     = 0    DCD    807419168
        0x0001fa74:    34302578    x%04    DCD    875570552
        0x0001fa78:    0a58        X.      DCW    2648
        0x0001fa7a:    00          .       DCB    0
    .L.str.27
        0x0001fa7b:    20                  DCB    32
        0x0001fa7c:    44202020       D    DCD    1142956064
        0x0001fa80:    45444f43    CODE    DCD    1162104643
        0x0001fa84:    75614620     Fau    DCD    1969309216
        0x0001fa88:    4120746c    lt A    DCD    1092645996
        0x0001fa8c:    65726464    ddre    DCD    1701995620
        0x0001fa90:    203a7373    ss:     DCD    540701555
        0x0001fa94:    30257830    0x%0    DCD    807761968
        0x0001fa98:    000a5838    8X..    DCD    677944
    .L.str.26
        0x0001fa9c:    20202020            DCD    538976288
        0x0001faa0:    444f4349    ICOD    DCD    1146045257
        0x0001faa4:    61462045    E Fa    DCD    1631985733
        0x0001faa8:    20746c75    ult     DCD    544500853
        0x0001faac:    72646441    Addr    DCD    1919181889
        0x0001fab0:    3a737365    ess:    DCD    980644709
        0x0001fab4:    25783020     0x%    DCD    628633632
        0x0001fab8:    0a583830    08X.    DCD    173553712
        0x0001fabc:    00          .       DCB    0
    .L.str.28
        0x0001fabd:    202020              DCB    32,32,32
        0x0001fac0:    53595320     SYS    DCD    1398362912
        0x0001fac4:    75614620     Fau    DCD    1969309216
        0x0001fac8:    4120746c    lt A    DCD    1092645996
        0x0001facc:    65726464    ddre    DCD    1701995620
        0x0001fad0:    203a7373    ss:     DCD    540701555
        0x0001fad4:    30257830    0x%0    DCD    807761968
        0x0001fad8:    000a5838    8X..    DCD    677944
    .L.str.3
        0x0001fadc:    20202020            DCD    538976288
        0x0001fae0:    20203052    R0      DCD    538980434
        0x0001fae4:    7830203d    = 0x    DCD    2016419901
        0x0001fae8:    58383025    %08X    DCD    1480077349
        0x0001faec:    000a        ..      DCW    10
    .L.str.4
        0x0001faee:    2020                DCW    8224
        0x0001faf0:    31522020      R1    DCD    827465760
        0x0001faf4:    203d2020      =     DCD    540876832
        0x0001faf8:    30257830    0x%0    DCD    807761968
        0x0001fafc:    000a5838    8X..    DCD    677944
    .L.str.5
        0x0001fb00:    20202020            DCD    538976288
        0x0001fb04:    20203252    R2      DCD    538980946
        0x0001fb08:    7830203d    = 0x    DCD    2016419901
        0x0001fb0c:    58383025    %08X    DCD    1480077349
        0x0001fb10:    000a        ..      DCW    10
    .L.str.6
        0x0001fb12:    2020                DCW    8224
        0x0001fb14:    33522020      R3    DCD    861020192
        0x0001fb18:    203d2020      =     DCD    540876832
        0x0001fb1c:    30257830    0x%0    DCD    807761968
        0x0001fb20:    000a5838    8X..    DCD    677944
    .L.str.9
        0x0001fb24:    20202020            DCD    538976288
        0x0001fb28:    20204350    PC      DCD    538985296
        0x0001fb2c:    7830203d    = 0x    DCD    2016419901
        0x0001fb30:    58383025    %08X    DCD    1480077349
        0x0001fb34:    000a        ..      DCW    10
    .L.str.8
        0x0001fb36:    2020                DCW    8224
        0x0001fb38:    524c2020      LR    DCD    1380720672
        0x0001fb3c:    203d2020      =     DCD    540876832
        0x0001fb40:    30257830    0x%0    DCD    807761968
        0x0001fb44:    000a5838    8X..    DCD    677944
    .L.str.13
        0x0001fb48:    20202020            DCD    538976288
        0x0001fb4c:    52414642    BFAR    DCD    1380009538
        0x0001fb50:    75422820     (Bu    DCD    1967269920
        0x0001fb54:    61462073    s Fa    DCD    1631985779
        0x0001fb58:    20746c75    ult     DCD    544500853
        0x0001fb5c:    72646441    Addr    DCD    1919181889
        0x0001fb60:    67655220     Reg    DCD    1734693408
        0x0001fb64:    203d2029    ) =     DCD    540876841
        0x0001fb68:    30257830    0x%0    DCD    807761968
        0x0001fb6c:    000a5838    8X..    DCD    677944
    .L.str.7
        0x0001fb70:    20202020            DCD    538976288
        0x0001fb74:    20323152    R12     DCD    540160338
        0x0001fb78:    7830203d    = 0x    DCD    2016419901
        0x0001fb7c:    58383025    %08X    DCD    1480077349
        0x0001fb80:    000a        ..      DCW    10
    .L.str.12
        0x0001fb82:    2020                DCW    8224
        0x0001fb84:    61462020      Fa    DCD    1631985696
        0x0001fb88:    20746c75    ult     DCD    544500853
        0x0001fb8c:    72646461    addr    DCD    1919181921
        0x0001fb90:    20737365    ess     DCD    544437093
        0x0001fb94:    7830203d    = 0x    DCD    2016419901
        0x0001fb98:    58383025    %08X    DCD    1480077349
        0x0001fb9c:    000a        ..      DCW    10
    .L.str
        0x0001fb9e:    0a0a        ..      DCW    2570
        0x0001fba0:    0a0a0a0a    ....    DCD    168430090
        0x0001fba4:    0a0a0a0a    ....    DCD    168430090
        0x0001fba8:    0a0a0a0a    ....    DCD    168430090
        0x0001fbac:    0a0a0a0a    ....    DCD    168430090
        0x0001fbb0:    00          .       DCB    0
    .L.str
        0x0001fbb1:    54696d      Tim     DCB    84,105,109
        0x0001fbb4:    20676e69    ing     DCD    543649385
        0x0001fbb8:    6e616353    Scan    DCD    1851876179
        0x0001fbbc:    74657320     set    DCD    1952805664
        0x0001fbc0:    65687420     the    DCD    1701344288
        0x0001fbc4:    6e696620     fin    DCD    1852401184
        0x0001fbc8:    65642065    e de    DCD    1701060709
        0x0001fbcc:    2079616c    lay     DCD    544825708
        0x0001fbd0:    25206f74    to %    DCD    622882676
        0x0001fbd4:    74732064    d st    DCD    1953701988
        0x0001fbd8:    2e737065    eps.    DCD    779317349
        0x0001fbdc:    0000000a    ....    DCD    10
    __tagsym$$used.1
    ui32DSP0Allowed
        0x0001fbe0:    00000000    ....    DCD    0
        0x0001fbe4:    00000000    ....    DCD    0
        0x0001fbe8:    00000000    ....    DCD    0
        0x0001fbec:    00000000    ....    DCD    0
        0x0001fbf0:    00000000    ....    DCD    0
    __tagsym$$used.2
    ui32DSP1Allowed
        0x0001fbf4:    00000000    ....    DCD    0
        0x0001fbf8:    00000000    ....    DCD    0
        0x0001fbfc:    00000000    ....    DCD    0
        0x0001fc00:    00000000    ....    DCD    0
        0x0001fc04:    00000000    ....    DCD    0
    __tagsym$$used.0
    ui32MCUAllowed
        0x0001fc08:    00000000    ....    DCD    0
        0x0001fc0c:    00000000    ....    DCD    0
        0x0001fc10:    00000000    ....    DCD    0
        0x0001fc14:    00000000    ....    DCD    0
        0x0001fc18:    00000000    ....    DCD    0
    ui32MspiXipBaseAddress
        0x0001fc1c:    14000000    ....    DCD    335544320
        0x0001fc20:    18000000    ....    DCD    402653184
        0x0001fc24:    1c000000    ....    DCD    469762048
    __tagsym$$used.3
    ui32SharedAccess
        0x0001fc28:    00000000    ....    DCD    0
        0x0001fc2c:    00000000    ....    DCD    0
        0x0001fc30:    00000000    ....    DCD    0
        0x0001fc34:    00000000    ....    DCD    0
        0x0001fc38:    00000000    ....    DCD    0
    Region$$Table$$Base
        0x0001fc3c:    0001fc70    p...    DCD    130160
        0x0001fc40:    10000000    ....    DCD    268435456
        0x0001fc44:    00000318    ....    DCD    792
        0x0001fc48:    00018270    p...    DCD    98928
        0x0001fc4c:    0001fde0    ....    DCD    130528
        0x0001fc50:    10060000    ....    DCD    268828672
        0x0001fc54:    00000040    @...    DCD    64
        0x0001fc58:    000182cc    ....    DCD    99020
        0x0001fc5c:    0001fde0    ....    DCD    130528
        0x0001fc60:    10000318    ....    DCD    268436248
        0x0001fc64:    00005c78    x\..    DCD    23672
        0x0001fc68:    000182e8    ....    DCD    99048
    Region$$Table$$Limit

** Section #2 'MCU_TCM' (SHT_PROGBITS) [SHF_ALLOC + SHF_WRITE]
    Size   : 368 bytes (alignment 16)
    Address: 0x10000000

    Data section was compressed (Original size: 792 bytes)

    0x10000000:   04 03 01 00 20 20 a0 a0 08 04 00 01 01 01 01 01    ....  ..........
    0x10000010:   01 00 46 00 06 00 04 03 01 00 20 20 a0 a0 09 04    ..F.......  ....
    0x10000020:   00 01 01 01 01 01 01 00 46 00 06 00 08 01 00 00    ........F.......
    0x10000030:   78 03 00 10 00 0a 00 00 00 00 00 00 00 00 00 00    x...............
    0x10000040:   01 01 00 1c 00 00 00 00 00 00 00 01 01 00 1c 00    ................
    0x10000050:   00 00 00 00 00 00 01 01 00 1c 00 00 00 00 00 00    ................
    0x10000060:   00 00 00 00 00 00 00 00 00 00 00 00 00 00 00 14    ................
    0x10000070:   00 0a 00 00 00 00 00 00 00 00 00 00 00 00 00 18    ................
    0x10000080:   00 0a 00 00 00 00 00 00 00 00 00 00 00 00 00 1c    ................
    0x10000090:   00 0a 00 00 00 00 00 00 92 24 01 80 20 01 00 00    .........$.. ...
    0x100000a0:   6d db 02 40 d1 02 00 00 0a 00 00 00 01 01 00 00    m..@............
    0x100000b0:   00 00 00 00 0a 00 00 00 01 01 00 00 00 00 00 00    ................
    0x100000c0:   0a 00 00 00 01 01 00 00 00 00 00 00 07 05 24 00    ..............$.
    0x100000d0:   07 05 25 00 00 0c 00 00 00 0c 00 00 00 0c 00 00    ..%.............
    0x100000e0:   00 0c 00 00 00 0c 00 00 00 0c 00 00 00 0c 00 00    ................
    0x100000f0:   00 0c 00 00 00 0c 00 00 00 0c 00 00 07 05 22 00    ..............".
    0x10000100:   00 0c 00 00 00 0c 00 00 00 0c 00 00 00 0c 00 00    ................
    0x10000110:   00 0c 00 00 00 0c 00 00 00 0c 00 00 00 0c 00 00    ................
    0x10000120:   00 0c 00 00 00 0c 00 00 07 05 20 00 00 0c 00 00    .......... .....
    0x10000130:   00 0c 00 00 00 0c 00 00 00 0c 00 00 00 0c 00 00    ................
    0x10000140:   00 0c 00 00 00 0c 00 00 00 0c 00 00 00 0c 00 00    ................
    0x10000150:   00 0c 00 00 44 f2 04 01 c4 f2 01 01 c3 22 4a 60    ....D........"J`
    0x10000160:   05 22 cb 6c 43 f0 10 03 cb 64 0a 65 01 23 cb 60    .".lC....d.e.#.`
    0x10000170:   00 22 0a 61 4a 61 8a 61 00 f0 0f 00 0b 68 43 f0    .".aJa.a.....hC.
    0x10000180:   08 03 0b 60 0a 68 22 f0 08 02 0a 60 09 22 0b 6d    ...`.h"....`.".m
    0x10000190:   62 f3 95 23 0b 65 06 22 0b 6d 62 f3 04 03 0b 65    b..#.e.".mb....e
    0x100001a0:   0a 68 42 f0 08 02 0a 60 0b 68 23 f0 08 03 0b 60    .hB....`.h#....`
    0x100001b0:   ca 6e 0b 68 23 f0 08 03 12 09 0b 60 40 ea 02 10    .n.h#......`@...
    0x100001c0:   c8 60 05 20 0a 6d 60 f3 04 02 0a 65 08 68 40 f0    .`. .m`....e.h@.
    0x100001d0:   08 00 08 60 0a 68 22 f0 08 02 0a 60 00 22 08 6d    ...`.h"....`.".m
    0x100001e0:   6f f3 95 20 08 65 ca 60 05 20 0a 6d 60 f3 04 02    o.. .e.`. .m`...
    0x100001f0:   0a 65 08 68 40 f0 08 00 08 60 0a 68 22 f0 08 02    .e.h@....`.h"...
    0x10000200:   0a 60 00 22 c8 6c 20 f0 10 00 c8 64 4a 60 70 47    .`.".l ....dJ`pG
    0x10000210:   44 f2 04 01 c4 f2 01 01 c3 20 48 60 05 20 ca 6c    D........ H`. .l
    0x10000220:   42 f0 10 02 ca 64 08 65 01 22 ca 60 00 20 08 61    B....d.e.".`. .a
    0x10000230:   48 61 88 61 0a 68 42 f0 08 02 0a 60 08 68 20 f0    Ha.a.hB....`.h .
    0x10000240:   08 00 08 60 09 20 0a 6d 60 f3 95 22 0a 65 06 20    ...`. .m`..".e. 
    0x10000250:   0a 6d 60 f3 04 02 0a 65 08 68 40 f0 08 00 08 60    .m`....e.h@....`
    0x10000260:   45 f6 a0 00 0a 68 22 f0 08 02 0a 60 c0 f2 10 00    E....h"....`....
    0x10000270:   ca 6e 02 f0 0f 02 02 43 ca 60 05 20 0a 6d 60 f3    .n.....C.`. .m`.
    0x10000280:   04 02 0a 65 08 68 40 f0 08 00 08 60 0a 68 22 f0    ...e.h@....`.h".
    0x10000290:   08 02 0a 60 00 22 08 6d 6f f3 95 20 08 65 ca 60    ...`.".mo.. .e.`
    0x100002a0:   05 20 0a 6d 60 f3 04 02 0a 65 08 68 40 f0 08 00    . .m`....e.h@...
    0x100002b0:   08 60 0a 68 22 f0 08 02 0a 60 00 22 c8 6c 20 f0    .`.h"....`.".l .
    0x100002c0:   10 00 c8 64 4a 60 00 20 70 47 00 00 ff ff ff ff    ...dJ`. pG......
    0x100002d0:   ff ff ff ff ff ff ff ff ff ff ff ff ff ff ff ff    ................
    0x100002e0:   08 1e 0c 40 18 1e 0c 40 55 01 00 10 11 02 00 10    ...@...@U.......
    0x100002f0:   08 60 bf f3 4f 8f 30 bf bf f3 6f 8f 70 47 00 bf    .`..O.0...o.pG..
    0x10000300:   00 00 00 00 00 00 00 00 00 00 00 00 00 00 00 00    ................
    0x10000310:   f1 02 00 10 00 00 00 00                            ........


** Section #3 'MCU_TCM' (SHT_NOBITS) [SHF_ALLOC + SHF_WRITE]
    Size   : 23672 bytes (alignment 8)
    Address: 0x10000318


** Section #4 'SHARED_SRAM' (SHT_PROGBITS) [SHF_ALLOC + SHF_WRITE]
    Size   : 64 bytes (alignment 4)
    Address: 0x10060000

    0x10060000:   00 f5 01 00 00 00 00 00 00 00 00 00 00 00 00 00    ................
    0x10060010:   00 00 00 00 00 00 00 00 00 00 00 00 00 00 00 00    ................
    0x10060020:   00 00 00 00 00 00 00 00 00 00 00 00 00 00 00 00    ................
    0x10060030:   00 00 00 00 00 00 00 00 00 00 00 00 00 00 00 00    ................


** Section #5 '.debug_abbrev' (SHT_PROGBITS)
    Size   : 1659 bytes


** Section #6 '.debug_frame' (SHT_PROGBITS)
    Size   : 6984 bytes


** Section #7 '.debug_info' (SHT_PROGBITS)
    Size   : 12849 bytes


** Section #8 '.debug_line' (SHT_PROGBITS)
    Size   : 11644 bytes


** Section #9 '.debug_str' (SHT_PROGBITS)
    Size   : 13188 bytes


** Section #10 '.debug_ranges' (SHT_PROGBITS)
    Size   : 520 bytes


** Section #11 '.symtab' (SHT_SYMTAB)
    Size   : 10848 bytes (alignment 4)
    String table #12 '.strtab'
    Last local symbol no. 327

    Symbol table .symtab (677 symbols, 327 local)

      #  Symbol Name                Value      Bind  Sec  Type  Vis  Size
    ========================================================================

      1  $d                         0x00018000   Lc    1   --   De 
      2  $t                         0x00018200   Lc    1   --   De 
      3  $d                         0x00018230   Lc    1   --   De 
      4  $t                         0x00018234   Lc    1   --   De 
      5  $d                         0x00018268   Lc    1   --   De 
      6  $t                         0x00018270   Lc    1   --   De 
      7  $d                         0x0001833a   Lc    1   --   De 
      8  $t                         0x00018348   Lc    1   --   De 
      9  $d                         0x00018544   Lc    1   --   De 
     10  $t                         0x00018548   Lc    1   --   De 
     11  $d                         0x00018550   Lc    1   --   De 
     12  $t                         0x00018554   Lc    1   --   De 
     13  $t.0                       0x00018558   Lc    1   --   De 
     14  $d.4                       0x00018578   Lc    1   --   De 
     15  $t.27                      0x0001857c   Lc    1   --   De 
     16  $d.32                      0x000187aa   Lc    1   --   De 
     17  $t.33                      0x000187bc   Lc    1   --   De 
     18  $d.34                      0x00018812   Lc    1   --   De 
     19  $t.35                      0x00018836   Lc    1   --   De 
     20  $d.36                      0x00018850   Lc    1   --   De 
     21  $t.37                      0x00018862   Lc    1   --   De 
     22  $d.2                       0x0001a364   Lc    1   --   De 
     23  $t.1                       0x0001a374   Lc    1   --   De 
     24  $d.13                      0x0001a7be   Lc    1   --   De 
     25  $t.14                      0x0001a800   Lc    1   --   De 
     26  $d.15                      0x0001ab5e   Lc    1   --   De 
     27  $t.16                      0x0001ab86   Lc    1   --   De 
     28  $d.23                      0x0001be2c   Lc    1   --   De 
     29  $t.24                      0x0001be30   Lc    1   --   De 
     30  $d.5                       0x0001c38c   Lc    1   --   De 
     31  $t.6                       0x0001c394   Lc    1   --   De 
     32  $d.9                       0x0001c5ee   Lc    1   --   De 
     33  $t.10                      0x0001c5f2   Lc    1   --   De 
     34  $d.4                       0x0001d01e   Lc    1   --   De 
     35  $t.5                       0x0001d084   Lc    1   --   De 
     36  $d.7                       0x0001e312   Lc    1   --   De 
     37  $t.8                       0x0001e33a   Lc    1   --   De 
     38  $d.22                      0x0001e6e4   Lc    1   --   De 
     39  $t.23                      0x0001e6ea   Lc    1   --   De 
     40  $d.1                       0x0001eb66   Lc    1   --   De 
     41  $t.2                       0x0001eb76   Lc    1   --   De 
     42  $t                         0x0001ee50   Lc    1   --   De 
     43  $d                         0x0001eea0   Lc    1   --   De 
     44  $t                         0x0001eea4   Lc    1   --   De 
     45  $d                         0x0001ef22   Lc    1   --   De 
     46  $t                         0x0001ef26   Lc    1   --   De 
     47  $d.realdata                0x0001ef72   Lc    1   --   De 
     48  $d.realdata                0x10000000   Lc    2   --   De 
     49  $d.realdata                0x10060000   Lc    4   --   De 
     50  am_resources.c             0x00000000   Lc  Abs  File  De 
     51  __tagsym$$used.0           0x0001fc08   Lc    1   --   De 
     52  __tagsym$$used.1           0x0001fbe0   Lc    1   --   De 
     53  __tagsym$$used.2           0x0001fbf4   Lc    1   --   De 
     54  __tagsym$$used.3           0x0001fc28   Lc    1   --   De 
     55  __tagsym$$used.4           0x10060004   Lc    4   --   De 
     56  __tagsym$$used.5           0x10060018   Lc    4   --   De 
     57  __tagsym$$used.6           0x1006002c   Lc    4   --   De 
     58  __tagsym$$used.7           0x0001f500   Lc    1   --   De 
     59  __tagsym$$used.8           0x10060000   Lc    4   --   De 
     60  mspi_ddr_psram_loader.c    0x00000000   Lc  Abs  File  De 
     61  __NVIC_SetPriority         0x000186b9   Lc    1  Code  De   0x42
     62  __NVIC_EnableIRQ           0x00018689   Lc    1  Code  De   0x30
     63  run_new_image              0x0001ea4d   Lc    1  Code  De   0x12
     64  .L.str                     0x0001f51c   Lc    1  Data  De   0x28
     65  .L.str.9                   0x0001f544   Lc    1  Data  De   0x29
     66  .L.str.14                  0x0001f56d   Lc    1  Data  De   0x2b
     67  .L.str.12                  0x0001f598   Lc    1  Data  De   0x29
     68  .L.str.15                  0x0001f5c1   Lc    1  Data  De   0x28
     69  .L.str.13                  0x0001f5e9   Lc    1  Data  De   0x29
     70  .L.str.18                  0x0001f612   Lc    1  Data  De   0x27
     71  .L.str.11                  0x0001f639   Lc    1  Data  De   0x23
     72  .L.str.16                  0x0001f65c   Lc    1  Data  De   0x51
     73  .L.str.8                   0x0001f6ad   Lc    1  Data  De   0x3a
     74  .L.str.19                  0x0001f6e7   Lc    1  Data  De   0x2a
     75  .L.str.20                  0x0001f711   Lc    1  Data  De   0x17
     76  .L.str.1                   0x0001f728   Lc    1  Data  De   0x21
     77  .L.str.17                  0x0001f749   Lc    1  Data  De   0x33
     78  .L.str.10                  0x0001f77c   Lc    1  Data  De   0x27
     79  .L.str.5                   0x0001f7a3   Lc    1  Data  De   0x12
     80  .L.str.3                   0x0001f7b5   Lc    1  Data  De   0x2e
     81  .L.str.4                   0x0001f7e3   Lc    1  Data  De   0x11
     82  .L.str.2                   0x0001f7f4   Lc    1  Data  De   0x26
     83  .L.str.6                   0x0001f81a   Lc    1  Data  De   0x8
     84  .L.str.7                   0x0001f822   Lc    1  Data  De   0x9
     85  mspi_interrupts            0x0001f4fc   Lc    1  Data  De   0x3
     86  am_util_delay.c            0x00000000   Lc  Abs  File  De 
     87  am_util_faultisr.c         0x00000000   Lc  Abs  File  De 
     88  .L.str.1                   0x0001f82b   Lc    1  Data  De   0x43
     89  .L.str.29                  0x0001f86e   Lc    1  Data  De   0x2e
     90  .L.str                     0x0001f89c   Lc    1  Data  De   0x1a
     91  .L.str.10                  0x0001f8b6   Lc    1  Data  De   0x13
     92  .L.str.2                   0x0001f8c9   Lc    1  Data  De   0x1a
     93  .L.str.25                  0x0001f8e3   Lc    1  Data  De   0x12
     94  .L.str.11                  0x0001f8f5   Lc    1  Data  De   0x18
     95  .L.str.18                  0x0001f90d   Lc    1  Data  De   0x1d
     96  .L.str.17                  0x0001f92a   Lc    1  Data  De   0x1e
     97  .L.str.23                  0x0001f948   Lc    1  Data  De   0x1f
     98  .L.str.20                  0x0001f967   Lc    1  Data  De   0x1b
     99  .L.str.21                  0x0001f982   Lc    1  Data  De   0x1d
    100  .L.str.19                  0x0001f99f   Lc    1  Data  De   0x1b
    101  .L.str.22                  0x0001f9ba   Lc    1  Data  De   0x20
    102  .L.str.24                  0x0001f9da   Lc    1  Data  De   0x1c
    103  .L.str.16                  0x0001f9f6   Lc    1  Data  De   0x2a
    104  .L.str.14                  0x0001fa20   Lc    1  Data  De   0x2f
    105  .L.str.15                  0x0001fa4f   Lc    1  Data  De   0x2c
    106  .L.str.27                  0x0001fa7b   Lc    1  Data  De   0x21
    107  .L.str.26                  0x0001fa9c   Lc    1  Data  De   0x21
    108  .L.str.28                  0x0001fabd   Lc    1  Data  De   0x1f
    109  .L.str.3                   0x0001fadc   Lc    1  Data  De   0x12
    110  .L.str.4                   0x0001faee   Lc    1  Data  De   0x12
    111  .L.str.5                   0x0001fb00   Lc    1  Data  De   0x12
    112  .L.str.6                   0x0001fb12   Lc    1  Data  De   0x12
    113  .L.str.9                   0x0001fb24   Lc    1  Data  De   0x12
    114  .L.str.8                   0x0001fb36   Lc    1  Data  De   0x12
    115  .L.str.13                  0x0001fb48   Lc    1  Data  De   0x28
    116  .L.str.7                   0x0001fb70   Lc    1  Data  De   0x12
    117  .L.str.12                  0x0001fb82   Lc    1  Data  De   0x1c
    118  am_util_stdio.c            0x00000000   Lc  Abs  File  De 
    119  decstr_to_int              0x0001d87d   Lc    1  Code  De   0xa6
    120  simple_strlen              0x0001eb01   Lc    1  Code  De   0x36
    121  padbuffer                  0x0001e655   Lc    1  Code  De   0x50
    122  ndigits_in_hex             0x0001e5a9   Lc    1  Code  De   0x3e
    123  uint64_to_hexstr           0x0001eca1   Lc    1  Code  De   0xc0
    124  ndigits_in_u64             0x0001e619   Lc    1  Code  De   0x3c
    125  uint64_to_str              0x0001ed61   Lc    1  Code  De   0x88
    126  ndigits_in_i64             0x0001e5e9   Lc    1  Code  De   0x30
    127  ftoa                       0x0001db0d   Lc    1  Code  De   0x230
    128  divu64_10                  0x0001d925   Lc    1  Code  De   0x118
    129  g_bTxtXlate                0x10004b1c   Lc    3  Data  De   0x1
    130  g_prfbuf                   0x10004b24   Lc    3  Data  De   0x400
    131  .L.str                     0x0001fb9e   Lc    1  Data  De   0x13
    132  am_devices_mspi_psram_aps12808l.c
                                    0x00000000   Lc  Abs  File  De 
    133  am_devices_mspi_psram_aps12808l_reset
                                    0x000199c9   Lc    1  Code  De   0x36
    134  am_devices_mspi_psram_aps12808l_id
                                    0x0001972d   Lc    1  Code  De   0x29a
    135  psram_nonblocking_transfer 0x0001e8cd   Lc    1  Code  De   0x180
    136  prepare_test_pattern       0x0001e6b5   Lc    1  Code  De   0x134
    137  count_consecutive_ones     0x0001d851   Lc    1  Code  De   0x2c
    138  find_mid_point             0x0001da3d   Lc    1  Code  De   0xce
    139  am_device_command_write    0x00018e0d   Lc    1  Code  De   0x6c
    140  am_device_command_read     0x00018da1   Lc    1  Code  De   0x6c
    141  .L__const.am_devices_mspi_psram_aps12808l_ddr_init_timing_check.scanCfg
                                    0x0001ef7d   Lc    1  Data  De   0xb
    142  ui32MspiXipBaseAddress     0x0001fc1c   Lc    1  Data  De   0xc
    143  .L.str                     0x0001fbb1   Lc    1  Data  De   0x2d
    144  .L__const.am_devices_mspi_psram_aps12808l_apply_ddr_timing.applyCfg
                                    0x0001ef72   Lc    1  Data  De   0xb
    145  ../keil6/startup_keil6.s   0x00000000   Lc  Abs  File  De 
    146  STACK                      0x10004f90   Lc    3  Sect  De   0x1000
    147  StackMem                   0x10004f90   Lc    3  Data  De 
    148  HEAP                       0x10004f90   Lc    3  Sect  De 
    149  HeapMem                    0x10004f90   Lc    3  Data  De 
    150  RESET                      0x00018000   Lc    1  Sect  De   0x234
    151  $v0                        0x00018200   Lc    1   --   De 
    152  am_cryptosec_isr           0x0001822f   Lc    1  Code  De 
    153  am_default_isr             0x0001822f   Lc    1  Code  De   0x2
    154  .text                      0x00018330   Lc    1  Sect  De   0x18
    155  $v0                        0x00018330   Lc    1   --   De 
    156  am_bsp.c                   0x00000000   Lc  Abs  File  De 
    157  g_ePrintInterface          0x10004b1e   Lc    3  Data  De   0x1
    158  am_hal_cachectrl.c         0x00000000   Lc  Abs  File  De 
    159  gAxiMemRange               0x0001f468   Lc    1  Data  De   0x60
    160  ui32AxiBufPwrStatReg       0x10004f88   Lc    3  Data  De   0x4
    161  ui32AxiBufPwrStatMask      0x10004f84   Lc    3  Data  De   0x4
    162  p64BAxiMem                 0x10004f78   Lc    3  Data  De   0x4
    163  am_hal_fault.c             0x00000000   Lc  Abs  File  De 
    164  am_hal_interrupt.c         0x00000000   Lc  Abs  File  De 
    165  am_hal_mspi.c              0x00000000   Lc  Abs  File  De 
    166  update_mspixip_state       0x0001ee1f   Lc    1  Code  De   0x32
    167  mspi_device_configure      0x0001e305   Lc    1  Code  De   0x27e
    168  mspi_cq_pause              0x0001e289   Lc    1  Code  De   0x7a
    169  mspi_seq_loopback          0x0001e585   Lc    1  Code  De   0x24
    170  sched_hiprio               0x0001ea5f   Lc    1  Code  De   0xa0
    171  mspi_dummy_callback        0x0001e583   Lc    1  Code  De   0x2
    172  g_MSPIState                0x10002fdc   Lc    3  Data  De   0x1a40
    173  am_hal_utils.c             0x00000000   Lc  Abs  File  De 
    174  am_bsp_pins.c              0x00000000   Lc  Abs  File  De 
    175  am_hal_bootrom_helper.c    0x00000000   Lc  Abs  File  De 
    176  am_hal_cmdq.c              0x00000000   Lc  Abs  File  De 
    177  update_indices             0x0001ede9   Lc    1  Code  De   0x36
    178  gAmHalCmdq                 0x10002bc8   Lc    3  Data  De   0x1e4
    179  gAmHalCmdQReg              0x0001f2b0   Lc    1  Data  De   0x1b8
    180  am_hal_itm.c               0x00000000   Lc  Abs  File  De 
    181  am_hal_rtc.c               0x00000000   Lc  Abs  File  De 
    182  am_hal_tpiu.c              0x00000000   Lc  Abs  File  De 
    183  am_hal_uart.c              0x00000000   Lc  Abs  File  De 
    184  am_hal_dcu.c               0x00000000   Lc  Abs  File  De 
    185  am_hal_gpio.c              0x00000000   Lc  Abs  File  De 
    186  g_ui32DSpintbl             0x0001a364   Lc    1   --   De 
    187  am_hal_pwrctrl.c           0x00000000   Lc  Abs  File  De 
    188  VDDF_simobuck_boost        0x000185b5   Lc    1  Code  De   0xd4
    189  buck_interval_check        0x0001d56d   Lc    1  Code  De   0x136
    190  TrimVersionGet             0x0001857d   Lc    1  Code  De   0x38
    191  storeAndWFIRAM             0x100002f0   Lc    2  Data  De   0x20
    192  am_hal_mram.c              0x00000000   Lc  Abs  File  De 
    193  g_program_mram_tmc_tcycrd  0x10000154   Lc    2  Data  De   0xbc
    194  g_recover_broken_mram_tmc_r_timer1
                                    0x10000210   Lc    2  Data  De   0xbc
    195  am_hal_pin.c               0x00000000   Lc  Abs  File  De 
    196  am_hal_queue.c             0x00000000   Lc  Abs  File  De 
    197  am_hal_timer.c             0x00000000   Lc  Abs  File  De 
    198  TimerFlags                 0x10002b88   Lc    3  Data  De   0x40
    199  am_hal_global.c            0x00000000   Lc  Abs  File  De 
    200  dc.s                       0x00000000   Lc  Abs  File  De 
    201  ../clib/string.c           0x00000000   Lc  Abs  File  De 
    202  .text                      0x00018348   Lc    1  Sect  De 
    203  ../clib/memcpset.s         0x00000000   Lc  Abs  File  De 
    204  .text                      0x000183a0   Lc    1  Sect  De   0x8a
    205  ../clib/memcpset.s         0x00000000   Lc  Abs  File  De 
    206  .text                      0x0001842a   Lc    1  Sect  De   0x4e
    207  ../clib/heapaux.c          0x00000000   Lc  Abs  File  De 
    208  .text                      0x00018478   Lc    1  Sect  De 
    209  ../clib/angel/startup.s    0x00000000   Lc  Abs  File  De 
    210  !!!main                    0x00018234   Lc    1  Sect  De   0x8
    211  ../clib/angel/handlers.s   0x00000000   Lc  Abs  File  De 
    212  !!handler_copy             0x000182cc   Lc    1  Sect  De   0x1a
    213  ../fplib/d2f.s             0x00000000   Lc  Abs  File  De 
    214  x$fpl$d2f                  0x0001ee50   Lc    1  Sect  De   0x62
    215  $v0                        0x0001ee50   Lc    1   --   De 
    216  ../clib/angel/kernel.s     0x00000000   Lc  Abs  File  De 
    217  .ARM.Collect$$rtentry$$00000000
                                    0x00018310   Lc    1  Sect  De 
    218  ../clib/memcpset.s         0x00000000   Lc  Abs  File  De 
    219  .text                      0x0001847e   Lc    1  Sect  De   0x64
    220  ../fplib/dnaninf.s         0x00000000   Lc  Abs  File  De 
    221  x$fpl$dnaninf              0x0001eeb2   Lc    1  Sect  De   0x9c
    222  $v0                        0x0001eeb2   Lc    1   --   De 
    223  ../fplib/fretinf.s         0x00000000   Lc  Abs  File  De 
    224  x$fpl$fretinf              0x0001ef68   Lc    1  Sect  De   0xa
    225  $v0                        0x0001ef68   Lc    1   --   De 
    226  ../fplib/usenofp.s         0x00000000   Lc  Abs  File  De 
    227  x$fpl$usenofp              0x0001ef72   Lc    1  Sect  De 
    228  ../clib/angel/kernel.s     0x00000000   Lc  Abs  File  De 
    229  .ARM.Collect$$rtentry$$00000002
                                    0x00018310   Lc    1  Sect  De 
    230  .ARM.Collect$$rtentry$$00000009
                                    0x00018316   Lc    1  Sect  De 
    231  .ARM.Collect$$rtentry$$0000000A
                                    0x00018316   Lc    1  Sect  De   0x4
    232  .ARM.Collect$$rtentry$$0000000C
                                    0x0001831a   Lc    1  Sect  De 
    233  .ARM.Collect$$rtentry$$0000000D
                                    0x0001831a   Lc    1  Sect  De   0x8
    234  ../clib/angel/kernel.s     0x00000000   Lc  Abs  File  De 
    235  .ARM.Collect$$rtentry$$00000004
                                    0x00018310   Lc    1  Sect  De   0x6
    236  ../clib/angel/sys.s        0x00000000   Lc  Abs  File  De 
    237  .text                      0x000184e2   Lc    1  Sect  De   0x4a
    238  ../clib/stdlib.c           0x00000000   Lc  Abs  File  De 
    239  .text                      0x0001852c   Lc    1  Sect  De 
    240  ../clib/angel/boardlib.s   0x00000000   Lc  Abs  File  De 
    241  ../clib/angel/boardlib.s   0x00000000   Lc  Abs  File  De 
    242  ../clib/angel/boardlib.s   0x00000000   Lc  Abs  File  De 
    243  ../clib/libinit.s          0x00000000   Lc  Abs  File  De 
    244  .ARM.Collect$$libinit$$00000000
                                    0x00018304   Lc    1  Sect  De   0x2
    245  ../clib/angel/sys.s        0x00000000   Lc  Abs  File  De 
    246  .text                      0x00018540   Lc    1  Sect  De   0x8
    247  .bss                       0x10000318   Lc    3  Sect  De   0x60
    248  ../clib/angel/kernel.s     0x00000000   Lc  Abs  File  De 
    249  .ARM.Collect$$rtexit$$00000000
                                    0x00018322   Lc    1  Sect  De   0x2
    250  ../clib/libinit.s          0x00000000   Lc  Abs  File  De 
    251  .ARM.Collect$$libinit$$00000001
                                    0x00018306   Lc    1  Sect  De   0x4
    252  .ARM.Collect$$libinit$$00000004
                                    0x0001830a   Lc    1  Sect  De 
    253  .ARM.Collect$$libinit$$0000000A
                                    0x0001830a   Lc    1  Sect  De 
    254  .ARM.Collect$$libinit$$0000000C
                                    0x0001830a   Lc    1  Sect  De 
    255  .ARM.Collect$$libinit$$0000000E
                                    0x0001830a   Lc    1  Sect  De 
    256  .ARM.Collect$$libinit$$00000011
                                    0x0001830a   Lc    1  Sect  De 
    257  .ARM.Collect$$libinit$$00000013
                                    0x0001830a   Lc    1  Sect  De 
    258  .ARM.Collect$$libinit$$00000015
                                    0x0001830a   Lc    1  Sect  De 
    259  .ARM.Collect$$libinit$$00000017
                                    0x0001830a   Lc    1  Sect  De 
    260  .ARM.Collect$$libinit$$00000019
                                    0x0001830a   Lc    1  Sect  De 
    261  .ARM.Collect$$libinit$$0000001B
                                    0x0001830a   Lc    1  Sect  De 
    262  .ARM.Collect$$libinit$$0000001D
                                    0x0001830a   Lc    1  Sect  De 
    263  .ARM.Collect$$libinit$$0000001F
                                    0x0001830a   Lc    1  Sect  De 
    264  .ARM.Collect$$libinit$$00000021
                                    0x0001830a   Lc    1  Sect  De 
    265  .ARM.Collect$$libinit$$00000023
                                    0x0001830a   Lc    1  Sect  De 
    266  .ARM.Collect$$libinit$$00000025
                                    0x0001830a   Lc    1  Sect  De 
    267  .ARM.Collect$$libinit$$0000002C
                                    0x0001830a   Lc    1  Sect  De 
    268  .ARM.Collect$$libinit$$0000002E
                                    0x0001830a   Lc    1  Sect  De 
    269  .ARM.Collect$$libinit$$00000030
                                    0x0001830a   Lc    1  Sect  De 
    270  .ARM.Collect$$libinit$$00000032
                                    0x0001830a   Lc    1  Sect  De 
    271  .ARM.Collect$$libinit$$00000033
                                    0x0001830a   Lc    1  Sect  De   0x2
    272  ../clib/angel/kernel.s     0x00000000   Lc  Abs  File  De 
    273  .ARM.Collect$$rtexit$$00000002
                                    0x00018324   Lc    1  Sect  De 
    274  .ARM.Collect$$rtexit$$00000003
                                    0x00018324   Lc    1  Sect  De   0x4
    275  .ARM.Collect$$rtexit$$00000004
                                    0x00018328   Lc    1  Sect  De   0x6
    276  ../clib/armsys.c           0x00000000   Lc  Abs  File  De 
    277  ../clib/armsys.c           0x00000000   Lc  Abs  File  De 
    278  ../fplib/fpinit.s          0x00000000   Lc  Abs  File  De 
    279  x$fpl$fpinit               0x0001ef4e   Lc    1  Sect  De   0x1a
    280  $v0                        0x0001ef4e   Lc    1   --   De 
    281  ../clib/angel/sysapp.c     0x00000000   Lc  Abs  File  De 
    282  .text                      0x00018548   Lc    1  Sect  De 
    283  ../clib/angel/sysapp.c     0x00000000   Lc  Abs  File  De 
    284  ../clib/angel/boardlib.s   0x00000000   Lc  Abs  File  De 
    285  ../clib/armsys.c           0x00000000   Lc  Abs  File  De 
    286  ../clib/armsys.c           0x00000000   Lc  Abs  File  De 
    287  ../clib/libinit.s          0x00000000   Lc  Abs  File  De 
    288  .ARM.Collect$$libshutdown$$00000000
                                    0x0001830c   Lc    1  Sect  De   0x2
    289  ../clib/angel/sysapp.c     0x00000000   Lc  Abs  File  De 
    290  ../clib/angel/sysapp.c     0x00000000   Lc  Abs  File  De 
    291  ../clib/angel/sys.s        0x00000000   Lc  Abs  File  De 
    292  .text                      0x00018554   Lc    1  Sect  De   0x2
    293  ../clib/angel/sys.s        0x00000000   Lc  Abs  File  De 
    294  .text                      0x00018556   Lc    1  Sect  De 
    295  ../clib/heapalloc.c        0x00000000   Lc  Abs  File  De 
    296  ../clib/signal.c           0x00000000   Lc  Abs  File  De 
    297  ../clib/signal.c           0x00000000   Lc  Abs  File  De 
    298  ../clib/libinit.s          0x00000000   Lc  Abs  File  De 
    299  .ARM.Collect$$libshutdown$$00000002
                                    0x0001830e   Lc    1  Sect  De 
    300  .ARM.Collect$$libshutdown$$00000004
                                    0x0001830e   Lc    1  Sect  De 
    301  .ARM.Collect$$libshutdown$$00000007
                                    0x0001830e   Lc    1  Sect  De 
    302  .ARM.Collect$$libshutdown$$0000000A
                                    0x0001830e   Lc    1  Sect  De 
    303  .ARM.Collect$$libshutdown$$0000000C
                                    0x0001830e   Lc    1  Sect  De 
    304  .ARM.Collect$$libshutdown$$0000000F
                                    0x0001830e   Lc    1  Sect  De 
    305  .ARM.Collect$$libshutdown$$00000010
                                    0x0001830e   Lc    1  Sect  De   0x2
    306  ../clib/angel/rt.s         0x00000000   Lc  Abs  File  De 
    307  ../clib/signal.c           0x00000000   Lc  Abs  File  De 
    308  ../clib/signal.c           0x00000000   Lc  Abs  File  De 
    309  ../clib/signal.c           0x00000000   Lc  Abs  File  De 
    310  ../clib/signal.c           0x00000000   Lc  Abs  File  De 
    311  ../clib/angel/sysapp.c     0x00000000   Lc  Abs  File  De 
    312  ../clib/angel/sysapp.c     0x00000000   Lc  Abs  File  De 
    313  ../clib/signal.s           0x00000000   Lc  Abs  File  De 
    314  ../clib/signal.c           0x00000000   Lc  Abs  File  De 
    315  ../clib/signal.c           0x00000000   Lc  Abs  File  De 
    316  ../clib/signal.c           0x00000000   Lc  Abs  File  De 
    317  ../clib/signal.c           0x00000000   Lc  Abs  File  De 
    318  ../clib/signal.c           0x00000000   Lc  Abs  File  De 
    319  ../clib/signal.c           0x00000000   Lc  Abs  File  De 
    320  ../clib/signal.c           0x00000000   Lc  Abs  File  De 
    321  ../clib/signal.c           0x00000000   Lc  Abs  File  De 
    322  ../clib/angel/dczerorl2.s  0x00000000   Lc  Abs  File  De 
    323  !!dczerorl2                0x00018270   Lc    1  Sect  De   0x5a
    324  ../clib/angel/scatter.s    0x00000000   Lc  Abs  File  De 
    325  !!!scatter                 0x0001823c   Lc    1  Sect  De   0x34
    326  ../clib/angel/handlers.s   0x00000000   Lc  Abs  File  De 
    327  !!handler_zi               0x000182e8   Lc    1  Sect  De   0x1c
    328  BuildAttributes$$THM_ISAv4$E$P$D$K$B$S$7EM$VFPi3$EXTD16$VFPS$VFMA$PE$A:L22UL41UL21$X:L11$S22US41US21$IEEE1$IW$~IW$USESV6$~STKCKD$USESV7$~SHL$OSPACE$ROPI$EBA8$UX$STANDARDLIB$REQ8$PRES8$EABIv2
                                    0x00000000   Gb  Abs   --   Hi 
    329  __Vectors                  0x00018000   Gb    1  Data  Hi 
    330  __Patchable                0x00018190   Gb    1  Data  Hi 
    331  Reset_Handler              0x00018201   Wk    1  Code  Hi   0x1c
    332  NMI_Handler                0x0001821f   Wk    1  Code  Hi   0x2
    333  MemManage_Handler          0x00018221   Wk    1  Code  Hi   0x2
    334  BusFault_Handler           0x00018223   Wk    1  Code  Hi   0x2
    335  UsageFault_Handler         0x00018225   Wk    1  Code  Hi   0x2
    336  SVC_Handler                0x00018227   Wk    1  Code  Hi   0x2
    337  DebugMon_Handler           0x00018229   Wk    1  Code  Hi   0x2
    338  PendSV_Handler             0x0001822b   Wk    1  Code  Hi   0x2
    339  SysTick_Handler            0x0001822d   Wk    1  Code  Hi   0x2
    340  am_adc_isr                 0x0001822f   Wk    1  Code  Hi 
    341  am_audadc0_isr             0x0001822f   Wk    1  Code  Hi 
    342  am_brownout_isr            0x0001822f   Wk    1  Code  Hi 
    343  am_cachecpu_isr            0x0001822f   Wk    1  Code  Hi 
    344  am_clkgen_isr              0x0001822f   Wk    1  Code  Hi 
    345  am_ctimer_isr              0x0001822f   Wk    1  Code  Hi 
    346  am_disp_isr                0x0001822f   Wk    1  Code  Hi 
    347  am_dsi_isr                 0x0001822f   Wk    1  Code  Hi 
    348  am_dspi2s0_isr             0x0001822f   Wk    1  Code  Hi 
    349  am_dspi2s1_isr             0x0001822f   Wk    1  Code  Hi 
    350  am_dspi2s2_isr             0x0001822f   Wk    1  Code  Hi 
    351  am_dspi2s3_isr             0x0001822f   Wk    1  Code  Hi 
    352  am_gpio0_001f_isr          0x0001822f   Wk    1  Code  Hi 
    353  am_gpio0_203f_isr          0x0001822f   Wk    1  Code  Hi 
    354  am_gpio0_405f_isr          0x0001822f   Wk    1  Code  Hi 
    355  am_gpio0_607f_isr          0x0001822f   Wk    1  Code  Hi 
    356  am_gpio1_001f_isr          0x0001822f   Wk    1  Code  Hi 
    357  am_gpio1_203f_isr          0x0001822f   Wk    1  Code  Hi 
    358  am_gpio1_405f_isr          0x0001822f   Wk    1  Code  Hi 
    359  am_gpio1_607f_isr          0x0001822f   Wk    1  Code  Hi 
    360  am_gpu_isr                 0x0001822f   Wk    1  Code  Hi 
    361  am_iomaster0_isr           0x0001822f   Wk    1  Code  Hi 
    362  am_iomaster1_isr           0x0001822f   Wk    1  Code  Hi 
    363  am_iomaster2_isr           0x0001822f   Wk    1  Code  Hi 
    364  am_iomaster3_isr           0x0001822f   Wk    1  Code  Hi 
    365  am_iomaster4_isr           0x0001822f   Wk    1  Code  Hi 
    366  am_iomaster5_isr           0x0001822f   Wk    1  Code  Hi 
    367  am_iomaster6_isr           0x0001822f   Wk    1  Code  Hi 
    368  am_iomaster7_isr           0x0001822f   Wk    1  Code  Hi 
    369  am_ioslave_acc_isr         0x0001822f   Wk    1  Code  Hi 
    370  am_ioslave_ios_isr         0x0001822f   Wk    1  Code  Hi 
    371  am_mspi1_isr               0x0001822f   Wk    1  Code  Hi 
    372  am_mspi2_isr               0x0001822f   Wk    1  Code  Hi 
    373  am_pdm0_isr                0x0001822f   Wk    1  Code  Hi 
    374  am_pdm1_isr                0x0001822f   Wk    1  Code  Hi 
    375  am_pdm2_isr                0x0001822f   Wk    1  Code  Hi 
    376  am_pdm3_isr                0x0001822f   Wk    1  Code  Hi 
    377  am_rtc_isr                 0x0001822f   Wk    1  Code  Hi 
    378  am_sdio_isr                0x0001822f   Wk    1  Code  Hi 
    379  am_stimer_cmpr0_isr        0x0001822f   Wk    1  Code  Hi 
    380  am_stimer_cmpr1_isr        0x0001822f   Wk    1  Code  Hi 
    381  am_stimer_cmpr2_isr        0x0001822f   Wk    1  Code  Hi 
    382  am_stimer_cmpr3_isr        0x0001822f   Wk    1  Code  Hi 
    383  am_stimer_cmpr4_isr        0x0001822f   Wk    1  Code  Hi 
    384  am_stimer_cmpr5_isr        0x0001822f   Wk    1  Code  Hi 
    385  am_stimer_cmpr6_isr        0x0001822f   Wk    1  Code  Hi 
    386  am_stimer_cmpr7_isr        0x0001822f   Wk    1  Code  Hi 
    387  am_stimerof_isr            0x0001822f   Wk    1  Code  Hi 
    388  am_timer00_isr             0x0001822f   Wk    1  Code  Hi 
    389  am_timer01_isr             0x0001822f   Wk    1  Code  Hi 
    390  am_timer02_isr             0x0001822f   Wk    1  Code  Hi 
    391  am_timer03_isr             0x0001822f   Wk    1  Code  Hi 
    392  am_timer04_isr             0x0001822f   Wk    1  Code  Hi 
    393  am_timer05_isr             0x0001822f   Wk    1  Code  Hi 
    394  am_timer06_isr             0x0001822f   Wk    1  Code  Hi 
    395  am_timer07_isr             0x0001822f   Wk    1  Code  Hi 
    396  am_timer08_isr             0x0001822f   Wk    1  Code  Hi 
    397  am_timer09_isr             0x0001822f   Wk    1  Code  Hi 
    398  am_timer10_isr             0x0001822f   Wk    1  Code  Hi 
    399  am_timer11_isr             0x0001822f   Wk    1  Code  Hi 
    400  am_timer12_isr             0x0001822f   Wk    1  Code  Hi 
    401  am_timer13_isr             0x0001822f   Wk    1  Code  Hi 
    402  am_timer14_isr             0x0001822f   Wk    1  Code  Hi 
    403  am_timer15_isr             0x0001822f   Wk    1  Code  Hi 
    404  am_uart1_isr               0x0001822f   Wk    1  Code  Hi 
    405  am_uart2_isr               0x0001822f   Wk    1  Code  Hi 
    406  am_uart3_isr               0x0001822f   Wk    1  Code  Hi 
    407  am_uart_isr                0x0001822f   Wk    1  Code  Hi 
    408  am_usb_isr                 0x0001822f   Wk    1  Code  Hi 
    409  am_vcomp_isr               0x0001822f   Wk    1  Code  Hi 
    410  am_watchdog_isr            0x0001822f   Wk    1  Code  Hi 
    411  __main                     0x00018235   Gb    1  Code  Hi   0x8
    412  __scatterload              0x0001823d   Gb    1  Code  Hi 
    413  __scatterload_rt2          0x0001823d   Gb    1  Code  Hi   0x2c
    414  __scatterload_rt2_thumb_only
                                    0x0001823d   Gb    1  Code  Hi 
    415  __scatterload_null         0x0001824b   Gb    1  Code  Hi 
    416  __decompress               0x00018271   Gb    1  Code  Hi   0x5a
    417  __decompress1              0x00018271   Gb    1  Code  Hi 
    418  __scatterload_copy         0x000182cd   Gb    1  Code  Hi   0x1a
    419  __scatterload_zeroinit     0x000182e9   Gb    1  Code  Hi   0x1c
    420  __rt_lib_init              0x00018305   Gb    1  Code  De 
    421  __rt_lib_init_fp_1         0x00018307   Gb    1  Code  Hi 
    422  __rt_lib_init_alloca_1     0x0001830b   Gb    1  Code  Hi 
    423  __rt_lib_init_argv_1       0x0001830b   Gb    1  Code  Hi 
    424  __rt_lib_init_atexit_1     0x0001830b   Gb    1  Code  Hi 
    425  __rt_lib_init_clock_1      0x0001830b   Gb    1  Code  Hi 
    426  __rt_lib_init_cpp_1        0x0001830b   Gb    1  Code  Hi 
    427  __rt_lib_init_exceptions_1 0x0001830b   Gb    1  Code  Hi 
    428  __rt_lib_init_fp_trap_1    0x0001830b   Gb    1  Code  Hi 
    429  __rt_lib_init_getenv_1     0x0001830b   Gb    1  Code  Hi 
    430  __rt_lib_init_heap_1       0x0001830b   Gb    1  Code  Hi 
    431  __rt_lib_init_lc_collate_1 0x0001830b   Gb    1  Code  Hi 
    432  __rt_lib_init_lc_ctype_1   0x0001830b   Gb    1  Code  Hi 
    433  __rt_lib_init_lc_monetary_1
                                    0x0001830b   Gb    1  Code  Hi 
    434  __rt_lib_init_lc_numeric_1 0x0001830b   Gb    1  Code  Hi 
    435  __rt_lib_init_lc_time_1    0x0001830b   Gb    1  Code  Hi 
    436  __rt_lib_init_preinit_1    0x0001830b   Gb    1  Code  Hi 
    437  __rt_lib_init_rand_1       0x0001830b   Gb    1  Code  Hi 
    438  __rt_lib_init_return       0x0001830b   Gb    1  Code  Hi 
    439  __rt_lib_init_signal_1     0x0001830b   Gb    1  Code  Hi 
    440  __rt_lib_init_stdio_1      0x0001830b   Gb    1  Code  Hi 
    441  __rt_lib_init_user_alloc_1 0x0001830b   Gb    1  Code  Hi 
    442  __rt_lib_shutdown          0x0001830d   Gb    1  Code  De 
    443  __rt_lib_shutdown_cpp_1    0x0001830f   Gb    1  Code  Hi 
    444  __rt_lib_shutdown_fp_trap_1
                                    0x0001830f   Gb    1  Code  Hi 
    445  __rt_lib_shutdown_heap_1   0x0001830f   Gb    1  Code  Hi 
    446  __rt_lib_shutdown_return   0x0001830f   Gb    1  Code  Hi 
    447  __rt_lib_shutdown_signal_1 0x0001830f   Gb    1  Code  Hi 
    448  __rt_lib_shutdown_stdio_1  0x0001830f   Gb    1  Code  Hi 
    449  __rt_lib_shutdown_user_alloc_1
                                    0x0001830f   Gb    1  Code  Hi 
    450  __rt_entry                 0x00018311   Gb    1  Code  Hi 
    451  __rt_entry_presh_1         0x00018311   Gb    1  Code  Hi 
    452  __rt_entry_sh              0x00018311   Gb    1  Code  Hi 
    453  __rt_entry_li              0x00018317   Gb    1  Code  Hi 
    454  __rt_entry_postsh_1        0x00018317   Gb    1  Code  Hi 
    455  __rt_entry_main            0x0001831b   Gb    1  Code  Hi 
    456  __rt_entry_postli_1        0x0001831b   Gb    1  Code  Hi 
    457  __rt_exit                  0x00018323   Gb    1  Code  De 
    458  __rt_exit_ls               0x00018325   Gb    1  Code  Hi 
    459  __rt_exit_prels_1          0x00018325   Gb    1  Code  Hi 
    460  __rt_exit_exit             0x00018329   Gb    1  Code  Hi 
    461  __user_initial_stackheap   0x00018331   Gb    1  Code  Hi   0xa
    462  memcmp                     0x00018349   Gb    1  Code  De   0x58
    463  __aeabi_memcpy             0x000183a1   Gb    1  Code  De 
    464  __rt_memcpy                0x000183a1   Gb    1  Code  De   0x8a
    465  _memcpy_lastbytes          0x00018407   Gb    1  Code  De 
    466  __aeabi_memclr4            0x0001842b   Gb    1  Code  De 
    467  __aeabi_memclr8            0x0001842b   Gb    1  Code  De 
    468  __rt_memclr_w              0x0001842b   Gb    1  Code  De 
    469  _memset_w                  0x0001842f   Gb    1  Code  De   0x4a
    470  __use_two_region_memory    0x00018479   Gb    1  Code  Hi   0x2
    471  __rt_heap_escrow$2region   0x0001847b   Gb    1  Code  De   0x2
    472  __rt_heap_expand$2region   0x0001847d   Gb    1  Code  De   0x2
    473  __aeabi_memcpy4            0x0001847f   Gb    1  Code  De 
    474  __aeabi_memcpy8            0x0001847f   Gb    1  Code  De 
    475  __rt_memcpy_w              0x0001847f   Gb    1  Code  De   0x64
    476  _memcpy_lastbytes_aligned  0x000184c7   Gb    1  Code  De 
    477  __user_setup_stackheap     0x000184e3   Gb    1  Code  De   0x4a
    478  exit                       0x0001852d   Gb    1  Code  De   0x12
    479  __user_libspace            0x00018541   Wk    1  Code  De   0x8
    480  __user_perproc_libspace    0x00018541   Wk    1  Code  De 
    481  __user_perthread_libspace  0x00018541   Wk    1  Code  De 
    482  _sys_exit                  0x00018549   Gb    1  Code  De   0x8
    483  __I$use$semihosting        0x00018555   Gb    1  Code  Hi 
    484  __use_no_semihosting_swi   0x00018555   Gb    1  Code  Hi   0x2
    485  __semihosting_library_function
                                    0x00018557   Gb    1  Code  Hi 
    486  HardFault_Handler          0x00018559   Gb    1  Code  Hi   0x1e
    487  am_bsp_itm_printf_enable   0x000186fb   Gb    1  Code  Hi   0x7c
    488  am_bsp_low_power_init      0x00018777   Gb    1  Code  Hi   0x16
    489  am_bsp_mspi_pins_enable    0x0001878d   Gb    1  Code  Hi   0x612
    490  am_devices_mspi_psram_aps12808l_apply_ddr_timing
                                    0x00018e79   Gb    1  Code  Hi   0x5a
    491  am_devices_mspi_psram_aps12808l_ddr_deinit
                                    0x00018ed5   Gb    1  Code  Hi   0x90
    492  am_devices_mspi_psram_aps12808l_ddr_disable_xip
                                    0x00018f65   Gb    1  Code  Hi   0x3c
    493  am_devices_mspi_psram_aps12808l_ddr_enable_scrambling
                                    0x00018fa1   Gb    1  Code  Hi   0x3c
    494  am_devices_mspi_psram_aps12808l_ddr_enable_xip
                                    0x00018fdd   Gb    1  Code  Hi   0x62
    495  am_devices_mspi_psram_aps12808l_ddr_init
                                    0x00019041   Gb    1  Code  Hi   0x2ce
    496  am_devices_mspi_psram_aps12808l_ddr_init_timing_check
                                    0x00019311   Gb    1  Code  Hi   0x224
    497  am_devices_mspi_psram_aps12808l_ddr_read
                                    0x00019535   Gb    1  Code  Hi   0xfc
    498  am_devices_mspi_psram_aps12808l_ddr_write
                                    0x00019631   Gb    1  Code  Hi   0xfc
    499  am_hal_cachectrl_config    0x000199ff   Gb    1  Code  Hi   0x44
    500  am_hal_cachectrl_enable    0x00019a43   Gb    1  Code  Hi   0x1e
    501  am_hal_cmdq_alloc_block    0x00019a61   Gb    1  Code  Hi   0x9a
    502  am_hal_cmdq_disable        0x00019afb   Gb    1  Code  Hi   0x34
    503  am_hal_cmdq_enable         0x00019b2f   Gb    1  Code  Hi   0x4c
    504  am_hal_cmdq_error_resume   0x00019b7d   Gb    1  Code  Hi   0x64
    505  am_hal_cmdq_get_status     0x00019be1   Gb    1  Code  Hi   0x68
    506  am_hal_cmdq_init           0x00019c49   Gb    1  Code  Hi   0xbe
    507  am_hal_cmdq_post_block     0x00019d07   Gb    1  Code  Hi   0x66
    508  am_hal_cmdq_post_loop_block
                                    0x00019d6d   Gb    1  Code  Hi   0x66
    509  am_hal_cmdq_release_block  0x00019dd3   Gb    1  Code  Hi   0x30
    510  am_hal_cmdq_reset          0x00019e03   Gb    1  Code  Hi   0x5a
    511  am_hal_cmdq_term           0x00019e5d   Gb    1  Code  Hi   0x56
    512  am_hal_daxi_config         0x00019eb3   Gb    1  Code  Hi   0x54
    513  am_hal_daxi_control        0x00019f09   Gb    1  Code  Hi   0x14c
    514  am_hal_dcu_get             0x0001a055   Gb    1  Code  Hi   0x9a
    515  am_hal_dcu_update          0x0001a0f1   Gb    1  Code  Hi   0xec
    516  am_hal_delay_us            0x0001a1dd   Gb    1  Code  Hi   0x36
    517  am_hal_delay_us_status_change
                                    0x0001a215   Gb    1  Code  Hi   0x54
    518  am_hal_delay_us_status_check
                                    0x0001a269   Gb    1  Code  Hi   0x62
    519  am_hal_fault_capture_enable
                                    0x0001a2cb   Gb    1  Code  Hi   0x12
    520  am_hal_fault_status_get    0x0001a2dd   Gb    1  Code  Hi   0x3a
    521  am_hal_gpio_pinconfig      0x0001a319   Gb    1  Code  Hi   0x4c
    522  am_hal_interrupt_master_disable
                                    0x0001a375   Gb    1  Code  Hi   0x8
    523  am_hal_interrupt_master_enable
                                    0x0001a37d   Gb    1  Code  Hi   0x8
    524  am_hal_interrupt_master_set
                                    0x0001a385   Gb    1  Code  Hi   0x6
    525  am_hal_itm_enable          0x0001a38d   Gb    1  Code  Hi   0x42
    526  am_hal_itm_print           0x0001a3d1   Gb    1  Code  Hi   0x2e
    527  am_hal_load_ui32           0x0001a3ff   Gb    1  Code  Hi   0xc
    528  am_hal_mram_ds_init        0x0001a40b   Gb    1  Code  Hi   0x12
    529  am_hal_mram_info_read      0x0001a41d   Gb    1  Code  Hi   0x94
    530  am_hal_mspi_blocking_transfer
                                    0x0001a4b1   Gb    1  Code  Hi   0x1c8
    531  am_hal_mspi_configure      0x0001a679   Gb    1  Code  Hi   0x104
    532  am_hal_mspi_control        0x0001a77d   Gb    1  Code  Hi   0xab2
    533  am_hal_mspi_deinitialize   0x0001b22f   Gb    1  Code  Hi   0x34
    534  am_hal_mspi_device_configure
                                    0x0001b263   Gb    1  Code  Hi   0x1c4
    535  am_hal_mspi_disable        0x0001b427   Gb    1  Code  Hi   0x90
    536  am_hal_mspi_enable         0x0001b4b7   Gb    1  Code  Hi   0xa8
    537  am_hal_mspi_highprio_transfer
                                    0x0001b55f   Gb    1  Code  Hi   0xb8
    538  am_hal_mspi_initialize     0x0001b617   Gb    1  Code  Hi   0x50
    539  am_hal_mspi_interrupt_clear
                                    0x0001b667   Gb    1  Code  Hi   0x2a
    540  am_hal_mspi_interrupt_disable
                                    0x0001b691   Gb    1  Code  Hi   0x30
    541  am_hal_mspi_interrupt_enable
                                    0x0001b6c1   Gb    1  Code  Hi   0x2e
    542  am_hal_mspi_interrupt_service
                                    0x0001b6f1   Gb    1  Code  Hi   0x2b8
    543  am_hal_mspi_interrupt_status_get
                                    0x0001b9a9   Gb    1  Code  Hi   0x42
    544  am_hal_mspi_nonblocking_transfer
                                    0x0001b9eb   Gb    1  Code  Hi   0x140
    545  am_hal_mspi_power_control  0x0001bb2b   Gb    1  Code  Hi   0x2ee
    546  am_hal_pwrctrl_control     0x0001be19   Gb    1  Code  Hi   0x38c
    547  am_hal_pwrctrl_low_power_init
                                    0x0001c1a5   Gb    1  Code  Hi   0x120
    548  am_hal_pwrctrl_mcu_memory_config
                                    0x0001c2c5   Gb    1  Code  Hi   0xfa
    549  am_hal_pwrctrl_periph_disable
                                    0x0001c3bf   Gb    1  Code  Hi   0x116
    550  am_hal_pwrctrl_periph_enable
                                    0x0001c4d5   Gb    1  Code  Hi   0x9c
    551  am_hal_pwrctrl_sram_config 0x0001c571   Gb    1  Code  Hi   0xa8
    552  am_hal_rtc_osc_disable     0x0001c619   Gb    1  Code  Hi   0x14
    553  am_hal_timer_clear         0x0001c62d   Gb    1  Code  Hi   0x58
    554  am_hal_timer_clear_stop    0x0001c685   Gb    1  Code  Hi   0x54
    555  am_hal_timer_default_config_set
                                    0x0001c6d9   Gb    1  Code  Hi   0x20
    556  am_hal_timer_disable       0x0001c6f9   Gb    1  Code  Hi   0x3c
    557  am_hal_timer_enable        0x0001c735   Gb    1  Code  Hi   0x4e
    558  am_hal_timer_enable_sync   0x0001c785   Gb    1  Code  Hi   0x6c
    559  am_hal_timer_interrupt_clear
                                    0x0001c7f1   Gb    1  Code  Hi   0x10
    560  am_hal_timer_interrupt_enable
                                    0x0001c801   Gb    1  Code  Hi   0x54
    561  am_hal_timer_interrupt_status_get
                                    0x0001c855   Gb    1  Code  Hi   0x16
    562  am_hal_timer_read          0x0001c86b   Gb    1  Code  Hi   0x26
    563  am_hal_timer_reset_config  0x0001c891   Gb    1  Code  Hi   0x72
    564  am_hal_tpiu_enable         0x0001c903   Gb    1  Code  Hi   0x76
    565  am_hal_triple_read         0x0001c979   Gb    1  Code  Hi   0x24
    566  am_hal_util_write_and_wait 0x0001c99d   Gb    1  Code  Hi   0x146
    567  am_mspi0_isr               0x0001cae5   Gb    1  Code  Hi   0x30
    568  am_util_delay_ms           0x0001cb15   Gb    1  Code  Hi   0x16
    569  am_util_delay_us           0x0001cb2d   Gb    1  Code  Hi   0x10
    570  am_util_faultisr_collect_data
                                    0x0001cb3d   Gb    1  Code  Hi   0x328
    571  am_util_stdio_printf       0x0001ce65   Gb    1  Code  Hi   0x5c
    572  am_util_stdio_printf_init  0x0001cec1   Gb    1  Code  Hi   0x14
    573  am_util_stdio_terminal_clear
                                    0x0001ced5   Gb    1  Code  Hi   0x10
    574  am_util_stdio_vsprintf     0x0001cee5   Gb    1  Code  Hi   0x654
    575  am_valid_sp                0x0001d539   Gb    1  Code  Hi   0x32
    576  buck_ldo_override_init     0x0001d6a3   Gb    1  Code  Hi   0x62
    577  build_dma_cmdlist          0x0001d705   Gb    1  Code  Hi   0x14a
    578  getStackedReg              0x0001dd3d   Gb    1  Code  Hi   0x8
    579  internal_timer_config      0x0001dd45   Gb    1  Code  Hi   0xce
    580  main                       0x0001de15   Gb    1  Code  Hi   0x474
    581  pfnMSPI_PSRAM_DDR_Callback 0x0001e6a5   Gb    1  Code  Hi   0x10
    582  psram_check                0x0001e7e9   Gb    1  Code  Hi   0xe2
    583  timer_config_b1            0x0001eb39   Gb    1  Code  Hi   0x166
    584  __aeabi_d2f                0x0001ee51   Gb    1  Code  De 
    585  _d2f                       0x0001ee51   Gb    1  Code  De   0x62
    586  __fpl_dnaninf              0x0001eeb3   Gb    1  Code  De   0x9c
    587  _fp_init                   0x0001ef4f   Gb    1  Code  De   0x1a
    588  __fplib_config_fpu_vfp     0x0001ef67   Gb    1  Code  De 
    589  __fplib_config_pureend_doubles
                                    0x0001ef67   Gb    1  Code  De 
    590  __fpl_fretinf              0x0001ef69   Gb    1  Code  De   0xa
    591  __I$use$fp                 0x0001ef72   Gb    1   --   De 
    592  am_hal_cachectrl_defaults  0x0001ef88   Gb    1  Data  Hi   0x3
    593  am_hal_daxi_defaults       0x0001ef8b   Gb    1  Data  Hi   0x3
    594  am_hal_pwrctrl_peripheral_control
                                    0x0001ef90   Gb    1  Data  Hi   0x220
    595  aps12808l_sConfigArray     0x0001f1b0   Gb    1  Data  Hi   0x100
    596  g_DefaultMcuMemCfg         0x0001f4c8   Gb    1  Data  Hi   0x6
    597  g_DefaultSRAMCfg           0x0001f4ce   Gb    1  Data  Hi   0x6
    598  g_am_hal_bootrom_helper    0x0001f4d4   Gb    1  Data  Hi   0x28
    599  sGlobalAccess              0x0001f500   Gb    1  Data  Hi   0x1c
    600  ui32DSP0Allowed            0x0001fbe0   Gb    1  Data  Hi   0x14
    601  ui32DSP1Allowed            0x0001fbf4   Gb    1  Data  Hi   0x14
    602  ui32MCUAllowed             0x0001fc08   Gb    1  Data  Hi   0x14
    603  ui32SharedAccess           0x0001fc28   Gb    1  Data  Hi   0x14
    604  Region$$Table$$Base        0x0001fc3c   Gb    1   --   Hi 
    605  Region$$Table$$Limit       0x0001fc6c   Gb    1   --   Hi 
    606  DDROctalCE0MSPIConfig      0x10000000   Gb    2  Data  Hi   0x16
    607  DDROctalCE1MSPIConfig      0x10000016   Gb    2  Data  Hi   0x16
    608  MSPI_PSRAM_OctalCE0MSPIConfig
                                    0x1000002c   Gb    2  Data  Hi   0x14
    609  gDDRDqsCfg                 0x10000040   Gb    2  Data  Hi   0x21
    610  gDDRXipConfig              0x10000064   Gb    2  Data  Hi   0x30
    611  gDcuDisable                0x10000098   Gb    2  Data  Hi   0x8
    612  gDcuEnable                 0x100000a0   Gb    2  Data  Hi   0x8
    613  gXipMiscCfg                0x100000a8   Gb    2  Data  Hi   0x24
    614  g_AM_BSP_GPIO_MSPI2_CE0    0x100000cc   Gb    2  Data  Hi   0x4
    615  g_AM_BSP_GPIO_MSPI2_CE1    0x100000d0   Gb    2  Data  Hi   0x4
    616  g_AM_BSP_GPIO_MSPI2_D0     0x100000d4   Gb    2  Data  Hi   0x4
    617  g_AM_BSP_GPIO_MSPI2_D1     0x100000d8   Gb    2  Data  Hi   0x4
    618  g_AM_BSP_GPIO_MSPI2_D2     0x100000dc   Gb    2  Data  Hi   0x4
    619  g_AM_BSP_GPIO_MSPI2_D3     0x100000e0   Gb    2  Data  Hi   0x4
    620  g_AM_BSP_GPIO_MSPI2_D4     0x100000e4   Gb    2  Data  Hi   0x4
    621  g_AM_BSP_GPIO_MSPI2_D5     0x100000e8   Gb    2  Data  Hi   0x4
    622  g_AM_BSP_GPIO_MSPI2_D6     0x100000ec   Gb    2  Data  Hi   0x4
    623  g_AM_BSP_GPIO_MSPI2_D7     0x100000f0   Gb    2  Data  Hi   0x4
    624  g_AM_BSP_GPIO_MSPI2_DQSDM  0x100000f4   Gb    2  Data  Hi   0x4
    625  g_AM_BSP_GPIO_MSPI2_SCK    0x100000f8   Gb    2  Data  Hi   0x4
    626  g_AM_BSP_GPIO_NOR_CE0      0x100000fc   Gb    2  Data  Hi   0x4
    627  g_AM_BSP_GPIO_NOR_D0       0x10000100   Gb    2  Data  Hi   0x4
    628  g_AM_BSP_GPIO_NOR_D1       0x10000104   Gb    2  Data  Hi   0x4
    629  g_AM_BSP_GPIO_NOR_D2       0x10000108   Gb    2  Data  Hi   0x4
    630  g_AM_BSP_GPIO_NOR_D3       0x1000010c   Gb    2  Data  Hi   0x4
    631  g_AM_BSP_GPIO_NOR_D4       0x10000110   Gb    2  Data  Hi   0x4
    632  g_AM_BSP_GPIO_NOR_D5       0x10000114   Gb    2  Data  Hi   0x4
    633  g_AM_BSP_GPIO_NOR_D6       0x10000118   Gb    2  Data  Hi   0x4
    634  g_AM_BSP_GPIO_NOR_D7       0x1000011c   Gb    2  Data  Hi   0x4
    635  g_AM_BSP_GPIO_NOR_DQS      0x10000120   Gb    2  Data  Hi   0x4
    636  g_AM_BSP_GPIO_NOR_SCK      0x10000124   Gb    2  Data  Hi   0x4
    637  g_AM_BSP_GPIO_PSRAM_CE0    0x10000128   Gb    2  Data  Hi   0x4
    638  g_AM_BSP_GPIO_PSRAM_D0     0x1000012c   Gb    2  Data  Hi   0x4
    639  g_AM_BSP_GPIO_PSRAM_D1     0x10000130   Gb    2  Data  Hi   0x4
    640  g_AM_BSP_GPIO_PSRAM_D2     0x10000134   Gb    2  Data  Hi   0x4
    641  g_AM_BSP_GPIO_PSRAM_D3     0x10000138   Gb    2  Data  Hi   0x4
    642  g_AM_BSP_GPIO_PSRAM_D4     0x1000013c   Gb    2  Data  Hi   0x4
    643  g_AM_BSP_GPIO_PSRAM_D5     0x10000140   Gb    2  Data  Hi   0x4
    644  g_AM_BSP_GPIO_PSRAM_D6     0x10000144   Gb    2  Data  Hi   0x4
    645  g_AM_BSP_GPIO_PSRAM_D7     0x10000148   Gb    2  Data  Hi   0x4
    646  g_AM_BSP_GPIO_PSRAM_DQS    0x1000014c   Gb    2  Data  Hi   0x4
    647  g_AM_BSP_GPIO_PSRAM_SCK    0x10000150   Gb    2  Data  Hi   0x4
    648  g_ui32TrimVer              0x100002cc   Gb    2  Data  Hi   0x4
    649  g_ui32origMEMLDOActiveTrim 0x100002d0   Gb    2  Data  Hi   0x4
    650  g_ui32origSimobuckVDDCtrim 0x100002d4   Gb    2  Data  Hi   0x4
    651  g_ui32origSimobuckVDDFtrim 0x100002d8   Gb    2  Data  Hi   0x4
    652  g_ui32origSimobuckVDDStrim 0x100002dc   Gb    2  Data  Hi   0x4
    653  gpDcuEnable                0x100002e0   Gb    2  Data  Hi   0x4
    654  gpDcuLock                  0x100002e4   Gb    2  Data  Hi   0x4
    655  program_mram_tmc_tcycrd    0x100002e8   Gb    2  Data  Hi   0x4
    656  recover_broken_mram_tmc_r_timer1
                                    0x100002ec   Gb    2  Data  Hi   0x4
    657  storeAndWFIfuncRAM         0x10000310   Gb    2  Data  Hi   0x4
    658  __libspace_start           0x10000318   Gb    3  Data  De   0x60
    659  DMATCBBuffer               0x10000378   Gb    3  Data  Hi   0x2800
    660  __temporary_stack_top$libspace
                                    0x10000378   Gb    3  Data  De 
    661  MSPIDdrTimingConfig        0x10002b78   Gb    3  Data  Hi   0x10
    662  gDDRAmPsram                0x10002dac   Gb    3  Data  Hi   0x18
    663  gDDRMspiCfg                0x10002dc4   Gb    3  Data  Hi   0xc
    664  gFaultStack                0x10002dd0   Gb    3  Data  Hi   0x200
    665  gMspiXipState              0x10002fd0   Gb    3  Data  Hi   0x4
    666  gStartOff                  0x10002fd4   Gb    3  Data  Hi   0x4
    667  g_AM_BSP_GPIO_ITM_SWO      0x10002fd8   Gb    3  Data  Hi   0x4
    668  g_TempBuf                  0x10004a1c   Gb    3  Data  Hi   0x100
    669  g_bVDDCbuckboosted         0x10004b1d   Gb    3  Data  Hi   0x1
    670  g_pfnCharPrint             0x10004b20   Gb    3  Data  Hi   0x4
    671  g_trim_reg_origvals        0x10004f24   Gb    3  Data  Hi   0x54
    672  pDevHandle                 0x10004f7c   Gb    3  Data  Hi   0x4
    673  pHandle                    0x10004f80   Gb    3  Data  Hi   0x4
    674  psGlobalAccessPtr          0x10060000   Gb    4  Data  Hi   0x4
    675  ui32MCUClaimed             0x10060004   Gb    4  Data  Hi   0x14
    676  ui32DSP0Claimed            0x10060018   Gb    4  Data  Hi   0x14
    677  ui32DSP1Claimed            0x1006002c   Gb    4  Data  Hi   0x14


** Section #12 '.strtab' (SHT_STRTAB)
    Size   : 11356 bytes

            #  Offset String
        ====================================

            1      1: $d
            2      4: $t
            3      7: $t.0
            4     12: $d.4
            5     17: $t.27
            6     23: $d.32
            7     29: $t.33
            8     35: $d.34
            9     41: $t.35
           10     47: $d.36
           11     53: $t.37
           12     59: $d.2
           13     64: $t.1
           14     69: $d.13
           15     75: $t.14
           16     81: $d.15
           17     87: $t.16
           18     93: $d.23
           19     99: $t.24
           20    105: $d.5
           21    110: $t.6
           22    115: $d.9
           23    120: $t.10
           24    126: $t.5
           25    131: $d.7
           26    136: $t.8
           27    141: $d.22
           28    147: $t.23
           29    153: $d.1
           30    158: $t.2
           31    163: $d.realdata
           32    175: am_resources.c
           33    190: __tagsym$$used.0
           34    207: __tagsym$$used.1
           35    224: __tagsym$$used.2
           36    241: __tagsym$$used.3
           37    258: __tagsym$$used.4
           38    275: __tagsym$$used.5
           39    292: __tagsym$$used.6
           40    309: __tagsym$$used.7
           41    326: __tagsym$$used.8
           42    343: mspi_ddr_psram_loader.c
           43    367: __NVIC_SetPriority
           44    386: __NVIC_EnableIRQ
           45    403: run_new_image
           46    417: .L.str
           47    424: .L.str.9
           48    433: .L.str.14
           49    443: .L.str.12
           50    453: .L.str.15
           51    463: .L.str.13
           52    473: .L.str.18
           53    483: .L.str.11
           54    493: .L.str.16
           55    503: .L.str.8
           56    512: .L.str.19
           57    522: .L.str.20
           58    532: .L.str.1
           59    541: .L.str.17
           60    551: .L.str.10
           61    561: .L.str.5
           62    570: .L.str.3
           63    579: .L.str.4
           64    588: .L.str.2
           65    597: .L.str.6
           66    606: .L.str.7
           67    615: mspi_interrupts
           68    631: am_util_delay.c
           69    647: am_util_faultisr.c
           70    666: .L.str.29
           71    676: .L.str.25
           72    686: .L.str.23
           73    696: .L.str.21
           74    706: .L.str.22
           75    716: .L.str.24
           76    726: .L.str.27
           77    736: .L.str.26
           78    746: .L.str.28
           79    756: am_util_stdio.c
           80    772: decstr_to_int
           81    786: simple_strlen
           82    800: padbuffer
           83    810: ndigits_in_hex
           84    825: uint64_to_hexstr
           85    842: ndigits_in_u64
           86    857: uint64_to_str
           87    871: ndigits_in_i64
           88    886: ftoa
           89    891: divu64_10
           90    901: g_bTxtXlate
           91    913: g_prfbuf
           92    922: am_devices_mspi_psram_aps12808l.c
           93    956: am_devices_mspi_psram_aps12808l_reset
           94    994: am_devices_mspi_psram_aps12808l_id
           95   1029: psram_nonblocking_transfer
           96   1056: prepare_test_pattern
           97   1077: count_consecutive_ones
           98   1100: find_mid_point
           99   1115: am_device_command_write
          100   1139: am_device_command_read
          101   1162: .L__const.am_devices_mspi_psram_aps12808l_ddr_init_timing_check.scanCfg
          102   1234: ui32MspiXipBaseAddress
          103   1257: .L__const.am_devices_mspi_psram_aps12808l_apply_ddr_timing.applyCfg
          104   1325: ../keil6/startup_keil6.s
          105   1350: STACK
          106   1356: StackMem
          107   1365: HEAP
          108   1370: HeapMem
          109   1378: RESET
          110   1384: $v0
          111   1388: am_cryptosec_isr
          112   1405: am_default_isr
          113   1420: .text
          114   1426: am_bsp.c
          115   1435: g_ePrintInterface
          116   1453: am_hal_cachectrl.c
          117   1472: gAxiMemRange
          118   1485: ui32AxiBufPwrStatReg
          119   1506: ui32AxiBufPwrStatMask
          120   1528: p64BAxiMem
          121   1539: am_hal_fault.c
          122   1554: am_hal_interrupt.c
          123   1573: am_hal_mspi.c
          124   1587: update_mspixip_state
          125   1608: mspi_device_configure
          126   1630: mspi_cq_pause
          127   1644: mspi_seq_loopback
          128   1662: sched_hiprio
          129   1675: mspi_dummy_callback
          130   1695: g_MSPIState
          131   1707: am_hal_utils.c
          132   1722: am_bsp_pins.c
          133   1736: am_hal_bootrom_helper.c
          134   1760: am_hal_cmdq.c
          135   1774: update_indices
          136   1789: gAmHalCmdq
          137   1800: gAmHalCmdQReg
          138   1814: am_hal_itm.c
          139   1827: am_hal_rtc.c
          140   1840: am_hal_tpiu.c
          141   1854: am_hal_uart.c
          142   1868: am_hal_dcu.c
          143   1881: am_hal_gpio.c
          144   1895: g_ui32DSpintbl
          145   1910: am_hal_pwrctrl.c
          146   1927: VDDF_simobuck_boost
          147   1947: buck_interval_check
          148   1967: TrimVersionGet
          149   1982: storeAndWFIRAM
          150   1997: am_hal_mram.c
          151   2011: g_program_mram_tmc_tcycrd
          152   2037: g_recover_broken_mram_tmc_r_timer1
          153   2072: am_hal_pin.c
          154   2085: am_hal_queue.c
          155   2100: am_hal_timer.c
          156   2115: TimerFlags
          157   2126: am_hal_global.c
          158   2142: dc.s
          159   2147: ../clib/string.c
          160   2164: ../clib/memcpset.s
          161   2183: ../clib/heapaux.c
          162   2201: ../clib/angel/startup.s
          163   2225: !!!main
          164   2233: ../clib/angel/handlers.s
          165   2258: !!handler_copy
          166   2273: ../fplib/d2f.s
          167   2288: x$fpl$d2f
          168   2298: ../clib/angel/kernel.s
          169   2321: .ARM.Collect$$rtentry$$00000000
          170   2353: ../fplib/dnaninf.s
          171   2372: x$fpl$dnaninf
          172   2386: ../fplib/fretinf.s
          173   2405: x$fpl$fretinf
          174   2419: ../fplib/usenofp.s
          175   2438: x$fpl$usenofp
          176   2452: .ARM.Collect$$rtentry$$00000002
          177   2484: .ARM.Collect$$rtentry$$00000009
          178   2516: .ARM.Collect$$rtentry$$0000000A
          179   2548: .ARM.Collect$$rtentry$$0000000C
          180   2580: .ARM.Collect$$rtentry$$0000000D
          181   2612: .ARM.Collect$$rtentry$$00000004
          182   2644: ../clib/angel/sys.s
          183   2664: ../clib/stdlib.c
          184   2681: ../clib/angel/boardlib.s
          185   2706: ../clib/libinit.s
          186   2724: .ARM.Collect$$libinit$$00000000
          187   2756: .bss
          188   2761: .ARM.Collect$$rtexit$$00000000
          189   2792: .ARM.Collect$$libinit$$00000001
          190   2824: .ARM.Collect$$libinit$$00000004
          191   2856: .ARM.Collect$$libinit$$0000000A
          192   2888: .ARM.Collect$$libinit$$0000000C
          193   2920: .ARM.Collect$$libinit$$0000000E
          194   2952: .ARM.Collect$$libinit$$00000011
          195   2984: .ARM.Collect$$libinit$$00000013
          196   3016: .ARM.Collect$$libinit$$00000015
          197   3048: .ARM.Collect$$libinit$$00000017
          198   3080: .ARM.Collect$$libinit$$00000019
          199   3112: .ARM.Collect$$libinit$$0000001B
          200   3144: .ARM.Collect$$libinit$$0000001D
          201   3176: .ARM.Collect$$libinit$$0000001F
          202   3208: .ARM.Collect$$libinit$$00000021
          203   3240: .ARM.Collect$$libinit$$00000023
          204   3272: .ARM.Collect$$libinit$$00000025
          205   3304: .ARM.Collect$$libinit$$0000002C
          206   3336: .ARM.Collect$$libinit$$0000002E
          207   3368: .ARM.Collect$$libinit$$00000030
          208   3400: .ARM.Collect$$libinit$$00000032
          209   3432: .ARM.Collect$$libinit$$00000033
          210   3464: .ARM.Collect$$rtexit$$00000002
          211   3495: .ARM.Collect$$rtexit$$00000003
          212   3526: .ARM.Collect$$rtexit$$00000004
          213   3557: ../clib/armsys.c
          214   3574: ../fplib/fpinit.s
          215   3592: x$fpl$fpinit
          216   3605: ../clib/angel/sysapp.c
          217   3628: .ARM.Collect$$libshutdown$$00000000
          218   3664: ../clib/heapalloc.c
          219   3684: ../clib/signal.c
          220   3701: .ARM.Collect$$libshutdown$$00000002
          221   3737: .ARM.Collect$$libshutdown$$00000004
          222   3773: .ARM.Collect$$libshutdown$$00000007
          223   3809: .ARM.Collect$$libshutdown$$0000000A
          224   3845: .ARM.Collect$$libshutdown$$0000000C
          225   3881: .ARM.Collect$$libshutdown$$0000000F
          226   3917: .ARM.Collect$$libshutdown$$00000010
          227   3953: ../clib/angel/rt.s
          228   3972: ../clib/signal.s
          229   3989: ../clib/angel/dczerorl2.s
          230   4015: !!dczerorl2
          231   4027: ../clib/angel/scatter.s
          232   4051: !!!scatter
          233   4062: !!handler_zi
          234   4075: BuildAttributes$$THM_ISAv4$E$P$D$K$B$S$7EM$VFPi3$EXTD16$VFPS$VFMA$PE$A:L22UL41UL21$X:L11$S22US41US21$IEEE1$IW$~IW$USESV6$~STKCKD$USESV7$~SHL$OSPACE$ROPI$EBA8$UX$STANDARDLIB$REQ8$PRES8$EABIv2
          235   4266: __Vectors
          236   4276: __Patchable
          237   4288: Reset_Handler
          238   4302: NMI_Handler
          239   4314: MemManage_Handler
          240   4332: BusFault_Handler
          241   4349: UsageFault_Handler
          242   4368: SVC_Handler
          243   4380: DebugMon_Handler
          244   4397: PendSV_Handler
          245   4412: SysTick_Handler
          246   4428: am_adc_isr
          247   4439: am_audadc0_isr
          248   4454: am_brownout_isr
          249   4470: am_cachecpu_isr
          250   4486: am_clkgen_isr
          251   4500: am_ctimer_isr
          252   4514: am_disp_isr
          253   4526: am_dsi_isr
          254   4537: am_dspi2s0_isr
          255   4552: am_dspi2s1_isr
          256   4567: am_dspi2s2_isr
          257   4582: am_dspi2s3_isr
          258   4597: am_gpio0_001f_isr
          259   4615: am_gpio0_203f_isr
          260   4633: am_gpio0_405f_isr
          261   4651: am_gpio0_607f_isr
          262   4669: am_gpio1_001f_isr
          263   4687: am_gpio1_203f_isr
          264   4705: am_gpio1_405f_isr
          265   4723: am_gpio1_607f_isr
          266   4741: am_gpu_isr
          267   4752: am_iomaster0_isr
          268   4769: am_iomaster1_isr
          269   4786: am_iomaster2_isr
          270   4803: am_iomaster3_isr
          271   4820: am_iomaster4_isr
          272   4837: am_iomaster5_isr
          273   4854: am_iomaster6_isr
          274   4871: am_iomaster7_isr
          275   4888: am_ioslave_acc_isr
          276   4907: am_ioslave_ios_isr
          277   4926: am_mspi1_isr
          278   4939: am_mspi2_isr
          279   4952: am_pdm0_isr
          280   4964: am_pdm1_isr
          281   4976: am_pdm2_isr
          282   4988: am_pdm3_isr
          283   5000: am_rtc_isr
          284   5011: am_sdio_isr
          285   5023: am_stimer_cmpr0_isr
          286   5043: am_stimer_cmpr1_isr
          287   5063: am_stimer_cmpr2_isr
          288   5083: am_stimer_cmpr3_isr
          289   5103: am_stimer_cmpr4_isr
          290   5123: am_stimer_cmpr5_isr
          291   5143: am_stimer_cmpr6_isr
          292   5163: am_stimer_cmpr7_isr
          293   5183: am_stimerof_isr
          294   5199: am_timer00_isr
          295   5214: am_timer01_isr
          296   5229: am_timer02_isr
          297   5244: am_timer03_isr
          298   5259: am_timer04_isr
          299   5274: am_timer05_isr
          300   5289: am_timer06_isr
          301   5304: am_timer07_isr
          302   5319: am_timer08_isr
          303   5334: am_timer09_isr
          304   5349: am_timer10_isr
          305   5364: am_timer11_isr
          306   5379: am_timer12_isr
          307   5394: am_timer13_isr
          308   5409: am_timer14_isr
          309   5424: am_timer15_isr
          310   5439: am_uart1_isr
          311   5452: am_uart2_isr
          312   5465: am_uart3_isr
          313   5478: am_uart_isr
          314   5490: am_usb_isr
          315   5501: am_vcomp_isr
          316   5514: am_watchdog_isr
          317   5530: __main
          318   5537: __scatterload
          319   5551: __scatterload_rt2
          320   5569: __scatterload_rt2_thumb_only
          321   5598: __scatterload_null
          322   5617: __decompress
          323   5630: __decompress1
          324   5644: __scatterload_copy
          325   5663: __scatterload_zeroinit
          326   5686: __rt_lib_init
          327   5700: __rt_lib_init_fp_1
          328   5719: __rt_lib_init_alloca_1
          329   5742: __rt_lib_init_argv_1
          330   5763: __rt_lib_init_atexit_1
          331   5786: __rt_lib_init_clock_1
          332   5808: __rt_lib_init_cpp_1
          333   5828: __rt_lib_init_exceptions_1
          334   5855: __rt_lib_init_fp_trap_1
          335   5879: __rt_lib_init_getenv_1
          336   5902: __rt_lib_init_heap_1
          337   5923: __rt_lib_init_lc_collate_1
          338   5950: __rt_lib_init_lc_ctype_1
          339   5975: __rt_lib_init_lc_monetary_1
          340   6003: __rt_lib_init_lc_numeric_1
          341   6030: __rt_lib_init_lc_time_1
          342   6054: __rt_lib_init_preinit_1
          343   6078: __rt_lib_init_rand_1
          344   6099: __rt_lib_init_return
          345   6120: __rt_lib_init_signal_1
          346   6143: __rt_lib_init_stdio_1
          347   6165: __rt_lib_init_user_alloc_1
          348   6192: __rt_lib_shutdown
          349   6210: __rt_lib_shutdown_cpp_1
          350   6234: __rt_lib_shutdown_fp_trap_1
          351   6262: __rt_lib_shutdown_heap_1
          352   6287: __rt_lib_shutdown_return
          353   6312: __rt_lib_shutdown_signal_1
          354   6339: __rt_lib_shutdown_stdio_1
          355   6365: __rt_lib_shutdown_user_alloc_1
          356   6396: __rt_entry
          357   6407: __rt_entry_presh_1
          358   6426: __rt_entry_sh
          359   6440: __rt_entry_li
          360   6454: __rt_entry_postsh_1
          361   6474: __rt_entry_main
          362   6490: __rt_entry_postli_1
          363   6510: __rt_exit
          364   6520: __rt_exit_ls
          365   6533: __rt_exit_prels_1
          366   6551: __rt_exit_exit
          367   6566: __user_initial_stackheap
          368   6591: memcmp
          369   6598: __aeabi_memcpy
          370   6613: __rt_memcpy
          371   6625: _memcpy_lastbytes
          372   6643: __aeabi_memclr4
          373   6659: __aeabi_memclr8
          374   6675: __rt_memclr_w
          375   6689: _memset_w
          376   6699: __use_two_region_memory
          377   6723: __rt_heap_escrow$2region
          378   6748: __rt_heap_expand$2region
          379   6773: __aeabi_memcpy4
          380   6789: __aeabi_memcpy8
          381   6805: __rt_memcpy_w
          382   6819: _memcpy_lastbytes_aligned
          383   6845: __user_setup_stackheap
          384   6868: exit
          385   6873: __user_libspace
          386   6889: __user_perproc_libspace
          387   6913: __user_perthread_libspace
          388   6939: _sys_exit
          389   6949: __I$use$semihosting
          390   6969: __use_no_semihosting_swi
          391   6994: __semihosting_library_function
          392   7025: HardFault_Handler
          393   7043: am_bsp_itm_printf_enable
          394   7068: am_bsp_low_power_init
          395   7090: am_bsp_mspi_pins_enable
          396   7114: am_devices_mspi_psram_aps12808l_apply_ddr_timing
          397   7163: am_devices_mspi_psram_aps12808l_ddr_deinit
          398   7206: am_devices_mspi_psram_aps12808l_ddr_disable_xip
          399   7254: am_devices_mspi_psram_aps12808l_ddr_enable_scrambling
          400   7308: am_devices_mspi_psram_aps12808l_ddr_enable_xip
          401   7355: am_devices_mspi_psram_aps12808l_ddr_init
          402   7396: am_devices_mspi_psram_aps12808l_ddr_init_timing_check
          403   7450: am_devices_mspi_psram_aps12808l_ddr_read
          404   7491: am_devices_mspi_psram_aps12808l_ddr_write
          405   7533: am_hal_cachectrl_config
          406   7557: am_hal_cachectrl_enable
          407   7581: am_hal_cmdq_alloc_block
          408   7605: am_hal_cmdq_disable
          409   7625: am_hal_cmdq_enable
          410   7644: am_hal_cmdq_error_resume
          411   7669: am_hal_cmdq_get_status
          412   7692: am_hal_cmdq_init
          413   7709: am_hal_cmdq_post_block
          414   7732: am_hal_cmdq_post_loop_block
          415   7760: am_hal_cmdq_release_block
          416   7786: am_hal_cmdq_reset
          417   7804: am_hal_cmdq_term
          418   7821: am_hal_daxi_config
          419   7840: am_hal_daxi_control
          420   7860: am_hal_dcu_get
          421   7875: am_hal_dcu_update
          422   7893: am_hal_delay_us
          423   7909: am_hal_delay_us_status_change
          424   7939: am_hal_delay_us_status_check
          425   7968: am_hal_fault_capture_enable
          426   7996: am_hal_fault_status_get
          427   8020: am_hal_gpio_pinconfig
          428   8042: am_hal_interrupt_master_disable
          429   8074: am_hal_interrupt_master_enable
          430   8105: am_hal_interrupt_master_set
          431   8133: am_hal_itm_enable
          432   8151: am_hal_itm_print
          433   8168: am_hal_load_ui32
          434   8185: am_hal_mram_ds_init
          435   8205: am_hal_mram_info_read
          436   8227: am_hal_mspi_blocking_transfer
          437   8257: am_hal_mspi_configure
          438   8279: am_hal_mspi_control
          439   8299: am_hal_mspi_deinitialize
          440   8324: am_hal_mspi_device_configure
          441   8353: am_hal_mspi_disable
          442   8373: am_hal_mspi_enable
          443   8392: am_hal_mspi_highprio_transfer
          444   8422: am_hal_mspi_initialize
          445   8445: am_hal_mspi_interrupt_clear
          446   8473: am_hal_mspi_interrupt_disable
          447   8503: am_hal_mspi_interrupt_enable
          448   8532: am_hal_mspi_interrupt_service
          449   8562: am_hal_mspi_interrupt_status_get
          450   8595: am_hal_mspi_nonblocking_transfer
          451   8628: am_hal_mspi_power_control
          452   8654: am_hal_pwrctrl_control
          453   8677: am_hal_pwrctrl_low_power_init
          454   8707: am_hal_pwrctrl_mcu_memory_config
          455   8740: am_hal_pwrctrl_periph_disable
          456   8770: am_hal_pwrctrl_periph_enable
          457   8799: am_hal_pwrctrl_sram_config
          458   8826: am_hal_rtc_osc_disable
          459   8849: am_hal_timer_clear
          460   8868: am_hal_timer_clear_stop
          461   8892: am_hal_timer_default_config_set
          462   8924: am_hal_timer_disable
          463   8945: am_hal_timer_enable
          464   8965: am_hal_timer_enable_sync
          465   8990: am_hal_timer_interrupt_clear
          466   9019: am_hal_timer_interrupt_enable
          467   9049: am_hal_timer_interrupt_status_get
          468   9083: am_hal_timer_read
          469   9101: am_hal_timer_reset_config
          470   9127: am_hal_tpiu_enable
          471   9146: am_hal_triple_read
          472   9165: am_hal_util_write_and_wait
          473   9192: am_mspi0_isr
          474   9205: am_util_delay_ms
          475   9222: am_util_delay_us
          476   9239: am_util_faultisr_collect_data
          477   9269: am_util_stdio_printf
          478   9290: am_util_stdio_printf_init
          479   9316: am_util_stdio_terminal_clear
          480   9345: am_util_stdio_vsprintf
          481   9368: am_valid_sp
          482   9380: buck_ldo_override_init
          483   9403: build_dma_cmdlist
          484   9421: getStackedReg
          485   9435: internal_timer_config
          486   9457: main
          487   9462: pfnMSPI_PSRAM_DDR_Callback
          488   9489: psram_check
          489   9501: timer_config_b1
          490   9517: __aeabi_d2f
          491   9529: _d2f
          492   9534: __fpl_dnaninf
          493   9548: _fp_init
          494   9557: __fplib_config_fpu_vfp
          495   9580: __fplib_config_pureend_doubles
          496   9611: __fpl_fretinf
          497   9625: __I$use$fp
          498   9636: am_hal_cachectrl_defaults
          499   9662: am_hal_daxi_defaults
          500   9683: am_hal_pwrctrl_peripheral_control
          501   9717: aps12808l_sConfigArray
          502   9740: g_DefaultMcuMemCfg
          503   9759: g_DefaultSRAMCfg
          504   9776: g_am_hal_bootrom_helper
          505   9800: sGlobalAccess
          506   9814: ui32DSP0Allowed
          507   9830: ui32DSP1Allowed
          508   9846: ui32MCUAllowed
          509   9861: ui32SharedAccess
          510   9878: Region$$Table$$Base
          511   9898: Region$$Table$$Limit
          512   9919: DDROctalCE0MSPIConfig
          513   9941: DDROctalCE1MSPIConfig
          514   9963: MSPI_PSRAM_OctalCE0MSPIConfig
          515   9993: gDDRDqsCfg
          516  10004: gDDRXipConfig
          517  10018: gDcuDisable
          518  10030: gDcuEnable
          519  10041: gXipMiscCfg
          520  10053: g_AM_BSP_GPIO_MSPI2_CE0
          521  10077: g_AM_BSP_GPIO_MSPI2_CE1
          522  10101: g_AM_BSP_GPIO_MSPI2_D0
          523  10124: g_AM_BSP_GPIO_MSPI2_D1
          524  10147: g_AM_BSP_GPIO_MSPI2_D2
          525  10170: g_AM_BSP_GPIO_MSPI2_D3
          526  10193: g_AM_BSP_GPIO_MSPI2_D4
          527  10216: g_AM_BSP_GPIO_MSPI2_D5
          528  10239: g_AM_BSP_GPIO_MSPI2_D6
          529  10262: g_AM_BSP_GPIO_MSPI2_D7
          530  10285: g_AM_BSP_GPIO_MSPI2_DQSDM
          531  10311: g_AM_BSP_GPIO_MSPI2_SCK
          532  10335: g_AM_BSP_GPIO_NOR_CE0
          533  10357: g_AM_BSP_GPIO_NOR_D0
          534  10378: g_AM_BSP_GPIO_NOR_D1
          535  10399: g_AM_BSP_GPIO_NOR_D2
          536  10420: g_AM_BSP_GPIO_NOR_D3
          537  10441: g_AM_BSP_GPIO_NOR_D4
          538  10462: g_AM_BSP_GPIO_NOR_D5
          539  10483: g_AM_BSP_GPIO_NOR_D6
          540  10504: g_AM_BSP_GPIO_NOR_D7
          541  10525: g_AM_BSP_GPIO_NOR_DQS
          542  10547: g_AM_BSP_GPIO_NOR_SCK
          543  10569: g_AM_BSP_GPIO_PSRAM_CE0
          544  10593: g_AM_BSP_GPIO_PSRAM_D0
          545  10616: g_AM_BSP_GPIO_PSRAM_D1
          546  10639: g_AM_BSP_GPIO_PSRAM_D2
          547  10662: g_AM_BSP_GPIO_PSRAM_D3
          548  10685: g_AM_BSP_GPIO_PSRAM_D4
          549  10708: g_AM_BSP_GPIO_PSRAM_D5
          550  10731: g_AM_BSP_GPIO_PSRAM_D6
          551  10754: g_AM_BSP_GPIO_PSRAM_D7
          552  10777: g_AM_BSP_GPIO_PSRAM_DQS
          553  10801: g_AM_BSP_GPIO_PSRAM_SCK
          554  10825: g_ui32TrimVer
          555  10839: g_ui32origMEMLDOActiveTrim
          556  10866: g_ui32origSimobuckVDDCtrim
          557  10893: g_ui32origSimobuckVDDFtrim
          558  10920: g_ui32origSimobuckVDDStrim
          559  10947: gpDcuEnable
          560  10959: gpDcuLock
          561  10969: program_mram_tmc_tcycrd
          562  10993: recover_broken_mram_tmc_r_timer1
          563  11026: storeAndWFIfuncRAM
          564  11045: __libspace_start
          565  11062: DMATCBBuffer
          566  11075: __temporary_stack_top$libspace
          567  11106: MSPIDdrTimingConfig
          568  11126: gDDRAmPsram
          569  11138: gDDRMspiCfg
          570  11150: gFaultStack
          571  11162: gMspiXipState
          572  11176: gStartOff
          573  11186: g_AM_BSP_GPIO_ITM_SWO
          574  11208: g_TempBuf
          575  11218: g_bVDDCbuckboosted
          576  11237: g_pfnCharPrint
          577  11252: g_trim_reg_origvals
          578  11272: pDevHandle
          579  11283: pHandle
          580  11291: psGlobalAccessPtr
          581  11309: ui32MCUClaimed
          582  11324: ui32DSP0Claimed
          583  11340: ui32DSP1Claimed


** Section #13 '.note' (SHT_NOTE)
    Size   : 32 bytes (alignment 4)


** Section #14 '.comment' (SHT_PROGBITS)
    Size   : 1612 bytes


** Section #15 '.shstrtab' (SHT_STRTAB)
    Size   : 148 bytes

            #  Offset String
        ====================================

            1      1: MCU_MRAM
            2     10: MCU_TCM
            3     18: SHARED_SRAM
            4     30: .debug_abbrev
            5     44: .debug_frame
            6     57: .debug_info
            7     69: .debug_line
            8     81: .debug_str
            9     92: .debug_ranges
           10    106: .symtab
           11    114: .strtab
           12    122: .note
           13    128: .comment
           14    137: .shstrtab
           15    147: 


